; ModuleID = 'compiler_builtins.4b347a0c-cgu.0'
source_filename = "compiler_builtins.4b347a0c-cgu.0"
target datalayout = "e-m:e-i64:64-f80:128-n8:16:32:64-S128"
target triple = "x86_64-obuasi-unknown-none"

module asm ""
module asm "            .pushsection .text.__rust_probestack"
module asm "            .globl __rust_probestack"
module asm "            .type  __rust_probestack, @function"
module asm "            .hidden __rust_probestack"
module asm "        __rust_probestack:"
module asm "            "
module asm "    .cfi_startproc"
module asm "    pushq  %rbp"
module asm "    .cfi_adjust_cfa_offset 8"
module asm "    .cfi_offset %rbp, -16"
module asm "    movq   %rsp, %rbp"
module asm "    .cfi_def_cfa_register %rbp"
module asm ""
module asm "    mov    %rax,%r11        // duplicate %rax as we're clobbering %r11"
module asm ""
module asm "    // Main loop, taken in one page increments. We're decrementing rsp by"
module asm "    // a page each time until there's less than a page remaining. We're"
module asm "    // guaranteed that this function isn't called unless there's more than a"
module asm "    // page needed."
module asm "    //"
module asm "    // Note that we're also testing against `8(%rsp)` to account for the 8"
module asm "    // bytes pushed on the stack orginally with our return address. Using"
module asm "    // `8(%rsp)` simulates us testing the stack pointer in the caller's"
module asm "    // context."
module asm ""
module asm "    // It's usually called when %rax >= 0x1000, but that's not always true."
module asm "    // Dynamic stack allocation, which is needed to implement unsized"
module asm "    // rvalues, triggers stackprobe even if %rax < 0x1000."
module asm "    // Thus we have to check %r11 first to avoid segfault."
module asm "    cmp    $0x1000,%r11"
module asm "    jna    3f"
module asm "2:"
module asm "    sub    $0x1000,%rsp"
module asm "    test   %rsp,8(%rsp)"
module asm "    sub    $0x1000,%r11"
module asm "    cmp    $0x1000,%r11"
module asm "    ja     2b"
module asm ""
module asm "3:"
module asm "    // Finish up the last remaining stack space requested, getting the last"
module asm "    // bits out of r11"
module asm "    sub    %r11,%rsp"
module asm "    test   %rsp,8(%rsp)"
module asm ""
module asm "    // Restore the stack pointer to what it previously was when entering"
module asm "    // this function. The caller will readjust the stack pointer after we"
module asm "    // return."
module asm "    add    %rax,%rsp"
module asm ""
module asm "    leave"
module asm "    .cfi_def_cfa_register %rsp"
module asm "    .cfi_adjust_cfa_offset -8"
module asm "    ret"
module asm "    .cfi_endproc"
module asm "    "
module asm "            .size __rust_probestack, . - __rust_probestack"
module asm "            .popsection"
module asm "            "

%"[closure@/Users/yaw/.cargo/registry/src/github.com-1ecc6299db9ec823/compiler_builtins-0.1.85/src/mem/x86_64.rs:159:14: 159:53]" = type {}
%"core::convert::Infallible" = type { [0 x i8] }
%"core::num::error::TryFromIntError" = type { {} }

@alloc2937 = private unnamed_addr constant <{ [107 x i8] }> <{ [107 x i8] c"/Users/yaw/.rustup/toolchains/nightly-aarch64-apple-darwin/lib/rustlib/src/rust/library/core/src/ops/bit.rs" }>, align 1
@alloc2932 = private unnamed_addr constant <{ ptr, [16 x i8] }> <{ ptr @alloc2937, [16 x i8] c"k\00\00\00\00\00\00\00\FB\01\00\00\01\00\00\00" }>, align 8
@str.0 = internal constant [35 x i8] c"attempt to shift left with overflow"
@alloc2934 = private unnamed_addr constant <{ ptr, [16 x i8] }> <{ ptr @alloc2937, [16 x i8] c"k\00\00\00\00\00\00\00s\02\00\00\01\00\00\00" }>, align 8
@str.1 = internal constant [36 x i8] c"attempt to shift right with overflow"
@alloc2977 = private unnamed_addr constant <{ [109 x i8] }> <{ [109 x i8] c"/Users/yaw/.rustup/toolchains/nightly-aarch64-apple-darwin/lib/rustlib/src/rust/library/core/src/ops/arith.rs" }>, align 1
@alloc2936 = private unnamed_addr constant <{ ptr, [16 x i8] }> <{ ptr @alloc2977, [16 x i8] c"m\00\00\00\00\00\00\00\DB\00\00\00\01\00\00\00" }>, align 8
@str.2 = internal constant [33 x i8] c"attempt to subtract with overflow"
@alloc2938 = private unnamed_addr constant <{ ptr, [16 x i8] }> <{ ptr @alloc2937, [16 x i8] c"k\00\00\00\00\00\00\00\1F\04\00\00\01\00\00\00" }>, align 8
@alloc2961 = private unnamed_addr constant <{ [107 x i8] }> <{ [107 x i8] c"/Users/yaw/.rustup/toolchains/nightly-aarch64-apple-darwin/lib/rustlib/src/rust/library/core/src/num/mod.rs" }>, align 1
@alloc2940 = private unnamed_addr constant <{ ptr, [16 x i8] }> <{ ptr @alloc2961, [16 x i8] c"k\00\00\00\00\00\00\00\F1\00\00\00\05\00\00\00" }>, align 8
@alloc2942 = private unnamed_addr constant <{ ptr, [16 x i8] }> <{ ptr @alloc2961, [16 x i8] c"k\00\00\00\00\00\00\001\01\00\00\05\00\00\00" }>, align 8
@alloc2944 = private unnamed_addr constant <{ ptr, [16 x i8] }> <{ ptr @alloc2961, [16 x i8] c"k\00\00\00\00\00\00\00\F6\00\00\00\05\00\00\00" }>, align 8
@alloc2946 = private unnamed_addr constant <{ ptr, [16 x i8] }> <{ ptr @alloc2961, [16 x i8] c"k\00\00\00\00\00\00\00\FB\00\00\00\05\00\00\00" }>, align 8
@alloc2948 = private unnamed_addr constant <{ ptr, [16 x i8] }> <{ ptr @alloc2961, [16 x i8] c"k\00\00\00\00\00\00\00\01\01\00\00\05\00\00\00" }>, align 8
@alloc2950 = private unnamed_addr constant <{ ptr, [16 x i8] }> <{ ptr @alloc2961, [16 x i8] c"k\00\00\00\00\00\00\00z\03\00\00\05\00\00\00" }>, align 8
@alloc2952 = private unnamed_addr constant <{ ptr, [16 x i8] }> <{ ptr @alloc2961, [16 x i8] c"k\00\00\00\00\00\00\00\99\03\00\00\05\00\00\00" }>, align 8
@alloc2954 = private unnamed_addr constant <{ ptr, [16 x i8] }> <{ ptr @alloc2961, [16 x i8] c"k\00\00\00\00\00\00\00\9F\03\00\00\05\00\00\00" }>, align 8
@alloc2956 = private unnamed_addr constant <{ ptr, [16 x i8] }> <{ ptr @alloc2961, [16 x i8] c"k\00\00\00\00\00\00\00\08\01\00\00\05\00\00\00" }>, align 8
@alloc2958 = private unnamed_addr constant <{ ptr, [16 x i8] }> <{ ptr @alloc2961, [16 x i8] c"k\00\00\00\00\00\00\00\A8\03\00\00\05\00\00\00" }>, align 8
@alloc2960 = private unnamed_addr constant <{ ptr, [16 x i8] }> <{ ptr @alloc2961, [16 x i8] c"k\00\00\00\00\00\00\00%\01\00\00\05\00\00\00" }>, align 8
@alloc2962 = private unnamed_addr constant <{ ptr, [16 x i8] }> <{ ptr @alloc2961, [16 x i8] c"k\00\00\00\00\00\00\00\C5\03\00\00\05\00\00\00" }>, align 8
@alloc2963 = private unnamed_addr constant <{ [107 x i8] }> <{ [107 x i8] c"/Users/yaw/.rustup/toolchains/nightly-aarch64-apple-darwin/lib/rustlib/src/rust/library/core/src/ptr/mod.rs" }>, align 1
@alloc2964 = private unnamed_addr constant <{ ptr, [16 x i8] }> <{ ptr @alloc2963, [16 x i8] c"k\00\00\00\00\00\00\00\E3\04\00\00\0D\00\00\00" }>, align 8
@alloc2965 = private unnamed_addr constant <{ [82 x i8] }> <{ [82 x i8] c"unsafe precondition(s) violated: hint::unreachable_unchecked must never be reached" }>, align 1
@alloc2976 = private unnamed_addr constant <{ [32 x i8] }> <{ [32 x i8] c"assertion failed: self.is_some()" }>, align 1
@alloc2978 = private unnamed_addr constant <{ ptr, [16 x i8] }> <{ ptr @alloc2977, [16 x i8] c"m\00\00\00\00\00\00\00\02\03\00\00\01\00\00\00" }>, align 8
@str.3 = internal constant [28 x i8] c"attempt to add with overflow"
@alloc2980 = private unnamed_addr constant <{ ptr, [16 x i8] }> <{ ptr @alloc2937, [16 x i8] c"k\00\00\00\00\00\00\00\CB\03\00\00\01\00\00\00" }>, align 8
@alloc2987 = private unnamed_addr constant <{ [100 x i8] }> <{ [100 x i8] c"/Users/yaw/.cargo/registry/src/github.com-1ecc6299db9ec823/compiler_builtins-0.1.85/src/float/add.rs" }>, align 1
@alloc2982 = private unnamed_addr constant <{ ptr, [16 x i8] }> <{ ptr @alloc2987, [16 x i8] c"d\00\00\00\00\00\00\00\88\00\00\00\11\00\00\00" }>, align 8
@alloc2984 = private unnamed_addr constant <{ ptr, [16 x i8] }> <{ ptr @alloc2987, [16 x i8] c"d\00\00\00\00\00\00\00\8A\00\00\00\0D\00\00\00" }>, align 8
@alloc2986 = private unnamed_addr constant <{ ptr, [16 x i8] }> <{ ptr @alloc2987, [16 x i8] c"d\00\00\00\00\00\00\00\95\00\00\00\0D\00\00\00" }>, align 8
@alloc2988 = private unnamed_addr constant <{ ptr, [16 x i8] }> <{ ptr @alloc2987, [16 x i8] c"d\00\00\00\00\00\00\00\A1\00\00\00\15\00\00\00" }>, align 8
@alloc3229 = private unnamed_addr constant <{ [101 x i8] }> <{ [101 x i8] c"/Users/yaw/.cargo/registry/src/github.com-1ecc6299db9ec823/compiler_builtins-0.1.85/src/float/conv.rs" }>, align 1
@alloc2990 = private unnamed_addr constant <{ ptr, [16 x i8] }> <{ ptr @alloc3229, [16 x i8] c"e\00\00\00\00\00\00\00\0D\00\00\00\11\00\00\00" }>, align 8
@alloc2992 = private unnamed_addr constant <{ ptr, [16 x i8] }> <{ ptr @alloc3229, [16 x i8] c"e\00\00\00\00\00\00\00\0E\00\00\00\11\00\00\00" }>, align 8
@alloc2994 = private unnamed_addr constant <{ ptr, [16 x i8] }> <{ ptr @alloc3229, [16 x i8] c"e\00\00\00\00\00\00\00\0F\00\00\00\16\00\00\00" }>, align 8
@alloc2996 = private unnamed_addr constant <{ ptr, [16 x i8] }> <{ ptr @alloc3229, [16 x i8] c"e\00\00\00\00\00\00\00\0F\00\00\00\11\00\00\00" }>, align 8
@alloc2998 = private unnamed_addr constant <{ ptr, [16 x i8] }> <{ ptr @alloc3229, [16 x i8] c"e\00\00\00\00\00\00\00\10\00\00\00\11\00\00\00" }>, align 8
@alloc3000 = private unnamed_addr constant <{ ptr, [16 x i8] }> <{ ptr @alloc3229, [16 x i8] c"e\00\00\00\00\00\00\00\11\00\00\00\09\00\00\00" }>, align 8
@alloc3002 = private unnamed_addr constant <{ ptr, [16 x i8] }> <{ ptr @alloc3229, [16 x i8] c"e\00\00\00\00\00\00\00\19\00\00\00\1F\00\00\00" }>, align 8
@alloc3004 = private unnamed_addr constant <{ ptr, [16 x i8] }> <{ ptr @alloc3229, [16 x i8] c"e\00\00\00\00\00\00\00\19\00\00\00\11\00\00\00" }>, align 8
@alloc3006 = private unnamed_addr constant <{ ptr, [16 x i8] }> <{ ptr @alloc3229, [16 x i8] c"e\00\00\00\00\00\00\00\1A\00\00\00\11\00\00\00" }>, align 8
@alloc3008 = private unnamed_addr constant <{ ptr, [16 x i8] }> <{ ptr @alloc3229, [16 x i8] c"e\00\00\00\00\00\00\00\1B\00\00\00\09\00\00\00" }>, align 8
@alloc3010 = private unnamed_addr constant <{ ptr, [16 x i8] }> <{ ptr @alloc3229, [16 x i8] c"e\00\00\00\00\00\00\00#\00\00\00\16\00\00\00" }>, align 8
@alloc3012 = private unnamed_addr constant <{ ptr, [16 x i8] }> <{ ptr @alloc3229, [16 x i8] c"e\00\00\00\00\00\00\00#\00\00\00\11\00\00\00" }>, align 8
@alloc3014 = private unnamed_addr constant <{ ptr, [16 x i8] }> <{ ptr @alloc3229, [16 x i8] c"e\00\00\00\00\00\00\00$\00\00\00(\00\00\00" }>, align 8
@alloc3016 = private unnamed_addr constant <{ ptr, [16 x i8] }> <{ ptr @alloc3229, [16 x i8] c"e\00\00\00\00\00\00\00%\00\00\00\09\00\00\00" }>, align 8
@alloc3018 = private unnamed_addr constant <{ ptr, [16 x i8] }> <{ ptr @alloc3229, [16 x i8] c"e\00\00\00\00\00\00\00-\00\00\00\11\00\00\00" }>, align 8
@alloc3020 = private unnamed_addr constant <{ ptr, [16 x i8] }> <{ ptr @alloc3229, [16 x i8] c"e\00\00\00\00\00\00\00.\00\00\00\11\00\00\00" }>, align 8
@alloc3022 = private unnamed_addr constant <{ ptr, [16 x i8] }> <{ ptr @alloc3229, [16 x i8] c"e\00\00\00\00\00\00\00/\00\00\00\16\00\00\00" }>, align 8
@alloc3024 = private unnamed_addr constant <{ ptr, [16 x i8] }> <{ ptr @alloc3229, [16 x i8] c"e\00\00\00\00\00\00\00/\00\00\00\11\00\00\00" }>, align 8
@alloc3026 = private unnamed_addr constant <{ ptr, [16 x i8] }> <{ ptr @alloc3229, [16 x i8] c"e\00\00\00\00\00\00\000\00\00\00\11\00\00\00" }>, align 8
@alloc3028 = private unnamed_addr constant <{ ptr, [16 x i8] }> <{ ptr @alloc3229, [16 x i8] c"e\00\00\00\00\00\00\001\00\00\00\09\00\00\00" }>, align 8
@alloc3030 = private unnamed_addr constant <{ ptr, [16 x i8] }> <{ ptr @alloc3229, [16 x i8] c"e\00\00\00\00\00\00\009\00\00\00\16\00\00\00" }>, align 8
@alloc3032 = private unnamed_addr constant <{ ptr, [16 x i8] }> <{ ptr @alloc3229, [16 x i8] c"e\00\00\00\00\00\00\009\00\00\00\11\00\00\00" }>, align 8
@alloc3034 = private unnamed_addr constant <{ ptr, [16 x i8] }> <{ ptr @alloc3229, [16 x i8] c"e\00\00\00\00\00\00\00:\00\00\00(\00\00\00" }>, align 8
@alloc3036 = private unnamed_addr constant <{ ptr, [16 x i8] }> <{ ptr @alloc3229, [16 x i8] c"e\00\00\00\00\00\00\00;\00\00\00\09\00\00\00" }>, align 8
@alloc3038 = private unnamed_addr constant <{ ptr, [16 x i8] }> <{ ptr @alloc3229, [16 x i8] c"e\00\00\00\00\00\00\00C\00\00\00\16\00\00\00" }>, align 8
@alloc3040 = private unnamed_addr constant <{ ptr, [16 x i8] }> <{ ptr @alloc3229, [16 x i8] c"e\00\00\00\00\00\00\00C\00\00\00\11\00\00\00" }>, align 8
@alloc3042 = private unnamed_addr constant <{ ptr, [16 x i8] }> <{ ptr @alloc3229, [16 x i8] c"e\00\00\00\00\00\00\00D\00\00\00(\00\00\00" }>, align 8
@alloc3044 = private unnamed_addr constant <{ ptr, [16 x i8] }> <{ ptr @alloc3229, [16 x i8] c"e\00\00\00\00\00\00\00E\00\00\00\09\00\00\00" }>, align 8
@alloc3055 = private unnamed_addr constant <{ [100 x i8] }> <{ [100 x i8] c"/Users/yaw/.cargo/registry/src/github.com-1ecc6299db9ec823/compiler_builtins-0.1.85/src/float/div.rs" }>, align 1
@alloc3046 = private unnamed_addr constant <{ ptr, [16 x i8] }> <{ ptr @alloc3055, [16 x i8] c"d\00\00\00\00\00\00\00e\00\00\00\0D\00\00\00" }>, align 8
@alloc3048 = private unnamed_addr constant <{ ptr, [16 x i8] }> <{ ptr @alloc3055, [16 x i8] c"d\00\00\00\00\00\00\00k\00\00\00\0D\00\00\00" }>, align 8
@alloc3050 = private unnamed_addr constant <{ ptr, [16 x i8] }> <{ ptr @alloc3055, [16 x i8] c"d\00\00\00\00\00\00\00\B5\00\00\00\1B\00\00\00" }>, align 8
@alloc3052 = private unnamed_addr constant <{ ptr, [16 x i8] }> <{ ptr @alloc3055, [16 x i8] c"d\00\00\00\00\00\00\008\01\00\00\0D\00\00\00" }>, align 8
@alloc3054 = private unnamed_addr constant <{ ptr, [16 x i8] }> <{ ptr @alloc3055, [16 x i8] c"d\00\00\00\00\00\00\00>\01\00\00\0D\00\00\00" }>, align 8
@alloc3056 = private unnamed_addr constant <{ ptr, [16 x i8] }> <{ ptr @alloc3055, [16 x i8] c"d\00\00\00\00\00\00\00\A3\01\00\00\1B\00\00\00" }>, align 8
@alloc3063 = private unnamed_addr constant <{ [103 x i8] }> <{ [103 x i8] c"/Users/yaw/.cargo/registry/src/github.com-1ecc6299db9ec823/compiler_builtins-0.1.85/src/float/extend.rs" }>, align 1
@alloc3058 = private unnamed_addr constant <{ ptr, [16 x i8] }> <{ ptr @alloc3063, [16 x i8] c"g\00\00\00\00\00\00\00=\00\00\00\15\00\00\00" }>, align 8
@alloc3060 = private unnamed_addr constant <{ ptr, [16 x i8] }> <{ ptr @alloc3063, [16 x i8] c"g\00\00\00\00\00\00\00?\00\00\00!\00\00\00" }>, align 8
@alloc3062 = private unnamed_addr constant <{ ptr, [16 x i8] }> <{ ptr @alloc3063, [16 x i8] c"g\00\00\00\00\00\00\00?\00\00\00 \00\00\00" }>, align 8
@alloc3064 = private unnamed_addr constant <{ ptr, [16 x i8] }> <{ ptr @alloc3063, [16 x i8] c"g\00\00\00\00\00\00\00@\00\00\00+\00\00\00" }>, align 8
@alloc3079 = private unnamed_addr constant <{ [100 x i8] }> <{ [100 x i8] c"/Users/yaw/.cargo/registry/src/github.com-1ecc6299db9ec823/compiler_builtins-0.1.85/src/float/mul.rs" }>, align 1
@alloc3066 = private unnamed_addr constant <{ ptr, [16 x i8] }> <{ ptr @alloc3079, [16 x i8] c"d\00\00\00\00\00\00\00]\00\00\00\0D\00\00\00" }>, align 8
@alloc3068 = private unnamed_addr constant <{ ptr, [16 x i8] }> <{ ptr @alloc3079, [16 x i8] c"d\00\00\00\00\00\00\00c\00\00\00\0D\00\00\00" }>, align 8
@alloc3070 = private unnamed_addr constant <{ ptr, [16 x i8] }> <{ ptr @alloc3079, [16 x i8] c"d\00\00\00\00\00\00\00\9A\00\00\00)\00\00\00" }>, align 8
@alloc3072 = private unnamed_addr constant <{ ptr, [16 x i8] }> <{ ptr @alloc3079, [16 x i8] c"d\00\00\00\00\00\00\00\9B\00\00\00+\00\00\00" }>, align 8
@alloc3074 = private unnamed_addr constant <{ ptr, [16 x i8] }> <{ ptr @alloc3079, [16 x i8] c"d\00\00\00\00\00\00\00\9D\00\00\00\1B\00\00\00" }>, align 8
@str.4 = internal constant [33 x i8] c"attempt to multiply with overflow"
@alloc3076 = private unnamed_addr constant <{ ptr, [16 x i8] }> <{ ptr @alloc3079, [16 x i8] c"d\00\00\00\00\00\00\00\9E\00\00\00+\00\00\00" }>, align 8
@alloc3078 = private unnamed_addr constant <{ ptr, [16 x i8] }> <{ ptr @alloc3079, [16 x i8] c"d\00\00\00\00\00\00\00\9E\00\00\00*\00\00\00" }>, align 8
@alloc3080 = private unnamed_addr constant <{ ptr, [16 x i8] }> <{ ptr @alloc3079, [16 x i8] c"d\00\00\00\00\00\00\00\9F\00\00\00+\00\00\00" }>, align 8
@alloc3091 = private unnamed_addr constant <{ [102 x i8] }> <{ [102 x i8] c"/Users/yaw/.cargo/registry/src/github.com-1ecc6299db9ec823/compiler_builtins-0.1.85/src/float/trunc.rs" }>, align 1
@alloc3082 = private unnamed_addr constant <{ ptr, [16 x i8] }> <{ ptr @alloc3091, [16 x i8] c"f\00\00\00\00\00\00\00$\00\00\00'\00\00\00" }>, align 8
@alloc3084 = private unnamed_addr constant <{ ptr, [16 x i8] }> <{ ptr @alloc3091, [16 x i8] c"f\00\00\00\00\00\00\00$\00\00\00&\00\00\00" }>, align 8
@alloc3086 = private unnamed_addr constant <{ ptr, [16 x i8] }> <{ ptr @alloc3091, [16 x i8] c"f\00\00\00\00\00\00\00%\00\00\00&\00\00\00" }>, align 8
@alloc3088 = private unnamed_addr constant <{ ptr, [16 x i8] }> <{ ptr @alloc3091, [16 x i8] c"f\00\00\00\00\00\00\00%\00\00\00%\00\00\00" }>, align 8
@alloc3090 = private unnamed_addr constant <{ ptr, [16 x i8] }> <{ ptr @alloc3091, [16 x i8] c"f\00\00\00\00\00\00\00R\00\00\00\15\00\00\00" }>, align 8
@alloc3092 = private unnamed_addr constant <{ ptr, [16 x i8] }> <{ ptr @alloc3091, [16 x i8] c"f\00\00\00\00\00\00\00Z\00\00\00-\00\00\00" }>, align 8
@alloc3103 = private unnamed_addr constant <{ [100 x i8] }> <{ [100 x i8] c"/Users/yaw/.cargo/registry/src/github.com-1ecc6299db9ec823/compiler_builtins-0.1.85/src/int/shift.rs" }>, align 1
@alloc3094 = private unnamed_addr constant <{ ptr, [16 x i8] }> <{ ptr @alloc3103, [16 x i8] c"d\00\00\00\00\00\00\00\09\00\00\00$\00\00\00" }>, align 8
@alloc3096 = private unnamed_addr constant <{ ptr, [16 x i8] }> <{ ptr @alloc3103, [16 x i8] c"d\00\00\00\00\00\00\00\0F\00\00\00'\00\00\00" }>, align 8
@alloc3098 = private unnamed_addr constant <{ ptr, [16 x i8] }> <{ ptr @alloc3103, [16 x i8] c"d\00\00\00\00\00\00\00\1F\00\00\00(\00\00\00" }>, align 8
@alloc3100 = private unnamed_addr constant <{ ptr, [16 x i8] }> <{ ptr @alloc3103, [16 x i8] c"d\00\00\00\00\00\00\00'\00\00\00E\00\00\00" }>, align 8
@alloc3102 = private unnamed_addr constant <{ ptr, [16 x i8] }> <{ ptr @alloc3103, [16 x i8] c"d\00\00\00\00\00\00\007\00\00\00#\00\00\00" }>, align 8
@alloc3104 = private unnamed_addr constant <{ ptr, [16 x i8] }> <{ ptr @alloc3103, [16 x i8] c"d\00\00\00\00\00\00\00<\00\00\00E\00\00\00" }>, align 8
@_ZN17compiler_builtins4math4libm4exp23TBL17h5bf70e2b61766d18E = internal constant <{ [4096 x i8] }> <{ [4096 x i8] c"]=\7Ff\9E\A0\E6?\00\00\00\00\00\889=D\17u\FAR\B0\E6?\00\00\00\00\00\00\D8<\FE\D9\0Bu\12\C0\E6?\00\00\00\00\00x(\BD\BFv\D4\DD\DC\CF\E6?\00\00\00\00\00\C0\1E=)\1Ae<\B2\DF\E6?\00\00\00\00\00\00\D8\BC\E3:Y\98\92\EF\E6?\00\00\00\00\00\00\BC\BC\86\93Q\F9}\FF\E6?\00\00\00\00\00\D8/\BD\A3-\F4ft\0F\E7?\00\00\00\00\00\88,\BD\C3_\EC\E8u\1F\E7?\00\00\00\00\00\C0\13=\05\CF\EA\86\82/\E7?\00\00\00\00\0008\BDR\81\A5H\9A?\E7?\00\00\00\00\00\C0\00\BD\FC\CC\D75\BDO\E7?\00\00\00\00\00\88/=\F1gBV\EB_\E7?\00\00\00\00\00\E0\03=Hm\AB\B1$p\E7?\00\00\00\00\00\D0'\BD8]\DEOi\80\E7?\00\00\00\00\00\00\DD\BC\00\1D\AC8\B9\90\E7?\00\00\00\00\00\00\E3<x\01\EBs\14\A1\E7?\00\00\00\00\00\00\ED\BC`\D0v\09{\B1\E7?\00\00\00\00\00@ =3\C10\01\ED\C1\E7?\00\00\00\00\00\00\A0<6\86\FFbj\D2\E7?\00\00\00\00\00\90&\BD;N\CF6\F3\E2\E7?\00\00\00\00\00\E0\02\BD\E8\C3\91\84\87\F3\E7?\00\00\00\00\00X$\BDN\1B>T'\04\E8?\00\00\00\00\00\003=\1A\07\D1\AD\D2\14\E8?\00\00\00\00\00\00\0F=~\CDL\99\89%\E8?\00\00\00\00\00\C0!\BD\D0B\B9\1EL6\E8?\00\00\00\00\00\D0)=\B5\CA#F\1AG\E8?\00\00\00\00\00\10G=\BC[\9F\17\F4W\E8?\00\00\00\00\00`\22=\AF\91D\9B\D9h\E8?\00\00\00\00\00\C42\BD\95\A31\D9\CAy\E8?\00\00\00\00\00\00#\BD\B8e\8A\D9\C7\8A\E8?\00\00\00\00\00\80*\BD\00Xx\A4\D0\9B\E8?\00\00\00\00\00\00\ED\BC#\A2*B\E5\AC\E8?\00\00\00\00\00(3=\FA\19\D6\BA\05\BE\E8?\00\00\00\00\00\B4B=\83C\B5\162\CF\E8?\00\00\00\00\00\D0.\BDLf\08^j\E0\E8?\00\00\00\00\00P \BD\07x\15\99\AE\F1\E8?\00\00\00\00\00((=\0E,(\D0\FE\02\E9?\00\00\00\00\00\B0\1C\BD\96\FF\91\0B[\14\E9?\00\00\00\00\00\E0\05\BD\F9/\AAS\C3%\E9?\00\00\00\00\00@\F5<J\C6\CD\B077\E9?\00\00\00\00\00 \17=\AE\98_+\B8H\E9?\00\00\00\00\00\00\09\BD\CBR\C8\CBDZ\E9?\00\00\00\00\00h%=!ov\9A\DDk\E9?\00\00\00\00\00\D06\BD*N\DE\9F\82}\E9?\00\00\00\00\00\00\01\BD\A3#z\E43\8F\E9?\00\00\00\00\00\00-=\04\06\CAp\F1\A0\E9?\00\00\00\00\00\A48\BD\89\FFSM\BB\B2\E9?\00\00\00\00\00\\5=[\F1\A3\82\91\C4\E9?\00\00\00\00\00\B8&=\C5\B8K\19t\D6\E9?\00\00\00\00\00\00\EC\BC\8E#\E3\19c\E8\E9?\00\00\00\00\00\D0\17=\02\F3\07\8D^\FA\E9?\00\00\00\00\00@\16=M\E5]{f\0C\EA?\00\00\00\00\00\00\F5\BC\F6\B8\8E\EDz\1E\EA?\00\00\00\00\00\E0\09='.J\EC\9B0\EA?\00\00\00\00\00\D8*=]\0AF\80\C9B\EA?\00\00\00\00\00\F0\1A\BD\9B%>\B2\03U\EA?\00\00\00\00\00`\0B=\13b\F4\8AJg\EA?\00\00\00\00\00\888=\A7\B30\13\9Ey\EA?\00\00\00\00\00 \11=\8D.\C1S\FE\8B\EA?\00\00\00\00\00\C0\06=\D2\FCyUk\9E\EA?\00\00\00\00\00\B8)\BD\B8o5!\E5\B0\EA?\00\00\00\00\00p+=\81\F3\D3\BFk\C3\EA?\00\00\00\00\00\00\D9<\80'<:\FF\D5\EA?\00\00\00\00\00\00\E4<\A3\D2Z\99\9F\E8\EA?\00\00\00\00\00\90,\BDg\F3\22\E6L\FB\EA?\00\00\00\00\00P\16=\90\B7\8D)\07\0E\EB?\00\00\00\00\00\D4/=\A9\89\9Al\CE \EB?\00\00\00\00\00p\12=K\1AO\B8\A23\EB?\00\00\00\00\00GM=\E7G\B7\15\84F\EB?\00\00\00\00\0088\BD:Y\E5\8DrY\EB?\00\00\00\00\00\00\98<j\C5\F1)nl\EB?\00\00\00\00\00\D0\0A=P^\FB\F2v\7F\EB?\00\00\00\00\00\80\DE<\B2I'\F2\8C\92\EB?\00\00\00\00\00\C0\04\BD\03\06\A10\B0\A5\EB?\00\00\00\00\00p\0D\BDfo\9A\B7\E0\B8\EB?\00\00\00\00\00\90\0D=\FF\C1K\90\1E\CC\EB?\00\00\00\00\00\A0\02=o\A1\F3\C3i\DF\EB?\00\00\00\00\00x\1F\BD\B8\1D\D7[\C2\F2\EB?\00\00\00\00\00\A0\10\BD\E9\B2Aa(\06\EC?\00\00\00\00\00@\11\BD\E0R\85\DD\9B\19\EC?\00\00\00\00\00\E0\0B=\EEd\FA\D9\1C-\EC?\00\00\00\00\00@\09\BD/\D0\FF_\AB@\EC?\00\00\00\00\00\D0\0E\BD\15\FD\FAxGT\EC?\00\00\00\00\00f9=\CB\D0W.\F1g\EC?\00\00\00\00\00\10\1A\BD\B6\C1\88\89\A8{\EC?\00\00\00\00\80EX\BD3\E7\06\94m\8F\EC?\00\00\00\00\00H\1A\BD\DF\C4QW@\A3\EC?\00\00\00\00\00\00\CB<\94\90\EF\DC \B7\EC?\00\00\00\00\00@\01=\89\16m.\0F\CB\EC?\00\00\00\00\00 \F0<\12\C4]U\0B\DF\EC?\00\00\00\00\00`\F3<;\AB[[\15\F3\EC?\00\00\00\00\00\90\06\BD\BC\89\07J-\07\ED?\00\00\00\00\00\A0\09=\FA\C8\08+S\1B\ED?\00\00\00\00\00\E0\15\BD\85\8A\0D\08\87/\ED?\00\00\00\00\00(\1D=\03\A2\CA\EA\C8C\ED?\00\00\00\00\00\A0\01=\91\A4\FB\DC\18X\ED?\00\00\00\00\00\00\DF<\A1\E6b\E8vl\ED?\00\00\00\00\00\A0\03\BDN\83\C9\16\E3\80\ED?\00\00\00\00\00\D8\0C\BD\90`\FFq]\95\ED?\00\00\00\00\00\C0\F4<\AE2\DB\03\E6\A9\ED?\00\00\00\00\00\90\FF<%\83:\D6|\BE\ED?\00\00\00\00\00\80\E9<E\B4\01\F3!\D3\ED?\00\00\00\00\00 \F5\BC\BF\05\1Cd\D5\E7\ED?\00\00\00\00\00p\1D\BD\EC\9A{3\97\FC\ED?\00\00\00\00\00\14\16\BD^}\19kg\11\EE?\00\00\00\00\00H\0B=\E7\A3\F5\14F&\EE?\00\00\00\00\00\CE@=\\\EE\16;3;\EE?\00\00\00\00\00h\0C=\B4?\8B\E7.P\EE?\00\00\00\00\000\09\BDhmg$9e\EE?\00\00\00\00\00\00\E5\BCDL\C7\FBQz\EE?\00\00\00\00\00\F8\07\BD&\B7\CDwy\8F\EE?\00\00\00\00\00p\F3\BC\E8\90\A4\A2\AF\A4\EE?\00\00\00\00\00\D0\E5<\E4\CA|\86\F4\B9\EE?\00\00\00\00\00\1A\16=\0Dh\8E-H\CF\EE?\00\00\00\00\00P\F5<\14\85\18\A2\AA\E4\EE?\00\00\00\00\00@\C6<\13Za\EE\1B\FA\EE?\00\00\00\00\00\80\EE\BC\06A\B6\1C\9C\0F\EF?\00\00\00\00\00\88\FA\BCc\B9k7+%\EF?\00\00\00\00\00\90,\BDur\DDH\C9:\EF?\00\00\00\00\00\00\AA<$En[vP\EF?\00\00\00\00\00\F0\F4\BC\FDD\88y2f\EF?\00\00\00\00\00\80\CA<8\BE\9C\AD\FD{\EF?\00\00\00\00\00\BC\FA<\82<$\02\D8\91\EF?\00\00\00\00\00`\D4\BC\8E\90\9E\81\C1\A7\EF?\00\00\00\00\00\0C\0B\BD\11\D5\926\BA\BD\EF?\00\00\00\00\00\E0\C0\BC\94q\8F+\C2\D3\EF?\00\00\00\00\80\DE\10\BD\EE#*k\D9\E9\EF?\00\00\00\00\00C\EE<\00\00\00\00\00\00\F0?\00\00\00\00\00\00\00\00\BE\BCZ\FA\1A\0B\F0?\00\00\00\00\00@\B3\BC\033\FB\A9=\16\F0?\00\00\00\00\00\17\12\BD\82\02;\14h!\F0?\00\00\00\00\00@\BA<l\80w>\9A,\F0?\00\00\00\00\00\98\EF<\CA\BB\11.\D47\F0?\00\00\00\00\00@\C7\BC\89\7Fn\E8\15C\F0?\00\00\00\00\000\D8<gT\F6r_N\F0?\00\00\00\00\00?\1A\BDZ\85\15\D3\B0Y\F0?\00\00\00\00\00\84\02\BD\95\1F<\0E\0Ae\F0?\00\00\00\00\00`\F1<\1A\F7\DD)kp\F0?\00\00\00\00\00$\15=-\A8r+\D4{\F0?\00\00\00\00\00\A0\E9\BC\D0\9Bu\18E\87\F0?\00\00\00\00\00@\E6<\C8\07f\F6\BD\92\F0?\00\00\00\00\00x\00\BD\83\F3\C6\CA>\9E\F0?\00\00\00\00\00\00\98\BC09\1F\9B\C7\A9\F0?\00\00\00\00\00\A0\FF<\FC\88\F9lX\B5\F0?\00\00\00\00\00\C8\FA\BC\8Al\E4E\F1\C0\F0?\00\00\00\00\00\C0\D9<\16Hr+\92\CC\F0?\00\00\00\00\00 \05=\D8]9#;\D8\F0?\00\00\00\00\00\D0\FA\BC\F3\D1\D32\EC\E3\F0?\00\00\00\00\00\AC\1B=\A6\A9\DF_\A5\EF\F0?\00\00\00\00\00\E8\04\BD\F0\D2\FE\AFf\FB\F0?\00\00\00\00\000\0D\BDK#\D7(0\07\F1?\00\00\00\00\00P\F1<[[\12\D0\01\13\F1?\00\00\00\00\00\00\EC<\F9*^\AB\DB\1E\F1?\00\00\00\00\00\BC\16=\D51l\C0\BD*\F1?\00\00\00\00\00@\E8<}\04\F2\14\A86\F1?\00\00\00\00\00\D0\0E\BD\E9-\A9\AE\9AB\F1?\00\00\00\00\00\E0\E8<81O\93\95N\F1?\00\00\00\00\00@\EB<q\8E\A5\C8\98Z\F1?\00\00\00\00\000\05=\DF\C3qT\A4f\F1?\00\00\00\00\008\03=\11R}<\B8r\F1?\00\00\00\00\00\D4(=\9F\BB\95\86\D4~\F1?\00\00\00\00\00\D0\05\BD\93\8D\8C8\F9\8A\F1?\00\00\00\00\00\88\1C\BDf]7X&\97\F1?\00\00\00\00\00\F0\11=\A7\CBo\EB[\A3\F1?\00\00\00\00\00H\10=\E3\87\13\F8\99\AF\F1?\00\00\00\00\009G\BDT]\04\84\E0\BB\F1?\00\00\00\00\00\E4$=C\1C(\95/\C8\F1?\00\00\00\00\00 \0A\BD\B2\B9h1\87\D4\F1?\00\00\00\00\00\80\E3<1@\B4^\E7\E0\F1?\00\00\00\00\00\C0\EA<8\D9\FC\22P\ED\F1?\00\00\00\00\00\90\01=\F7\CD8\84\C1\F9\F1?\00\00\00\00\00x\1B\BD\8F\8Db\88;\06\F2?\00\00\00\00\00\94-=\1E\A8x5\BE\12\F2?\00\00\00\00\00\00\D8<A\DD}\91I\1F\F2?\00\00\00\00\004+=#\13y\A2\DD+\F2?\00\00\00\00\00\F8\19=\E7aunz8\F2?\00\00\00\00\00\C8\19\BD'\14\82\FB\1FE\F2?\00\00\00\00\000\02=\02\A6\B2O\CEQ\F2?\00\00\00\00\00H\13\BD\B0\CE\1Eq\85^\F2?\00\00\00\00\00p\12=\16}\E2eEk\F2?\00\00\00\00\00\D0\11=\0F\E0\1D4\0Ex\F2?\00\00\00\00\00\EE1=>c\F5\E1\DF\84\F2?\00\00\00\00\00\C0\14\BD0\BB\91u\BA\91\F2?\00\00\00\00\00\D8\13\BD\09\DF\1F\F5\9D\9E\F2?\00\00\00\00\00\B0\08=\9B\0E\D1f\8A\AB\F2?\00\00\00\00\00|\22\BD:\DA\DA\D0\7F\B8\F2?\00\00\00\00\004*=\F9\1Aw9~\C5\F2?\00\00\00\00\00\80\10\BD\D9\02\E4\A6\85\D2\F2?\00\00\00\00\00\D0\0E\BDy\15d\1F\96\DF\F2?\00\00\00\00\00 \F4\BC\CF.>\A9\AF\EC\F2?\00\00\00\00\00\98$\BD\22\88\BDJ\D2\F9\F2?\00\00\00\00\000\16\BD%\B61\0A\FE\06\F3?\00\00\00\00\0062\BD\0B\A5\EE\ED2\14\F3?\00\00\00\00\80\DFp\BD\B8\D7L\FCp!\F3?\00\00\00\00\00H\22\BD\A2\E9\A8;\B8.\F3?\00\00\00\00\00\98%\BDf\17d\B2\08<\F3?\00\00\00\00\00\D0\1E='\FA\E3fbI\F3?\00\00\00\00\00\00\DC\BC\0F\9F\92_\C5V\F3?\00\00\00\00\00\D80\BD\B9\88\DE\A21d\F3?\00\00\00\00\00\C8\22=9\AA:7\A7q\F3?\00\00\00\00\00` =\FEt\1E#&\7F\F3?\00\00\00\00\00`\16\BD8\D8\05m\AE\8C\F3?\00\00\00\00\00\E0\0A\BD\C3>q\1B@\9A\F3?\00\00\00\00\00rD\BD \A0\E54\DB\A7\F3?\00\00\00\00\00 \08=\95n\EC\BF\7F\B5\F3?\00\00\00\00\00\80>=\F2\A8\13\C3-\C3\F3?\00\00\00\00\00\80\EF<\22\E1\EDD\E5\D0\F3?\00\00\00\00\00\A0\17\BD\BB4\12L\A6\DE\F3?\00\00\00\00\000&=\CCN\1C\DFp\EC\F3?\00\00\00\00\00\A6H\BD\8C~\AC\04E\FA\F3?\00\00\00\00\00\DC<\BD\BB\A0g\C3\22\08\F4?\00\00\00\00\00\B8%=\95.\F7!\0A\16\F4?\00\00\00\00\00\C0\1E=FF\09'\FB#\F4?\00\00\00\00\00`\13\BD \A9P\D9\F51\F4?\00\00\00\00\00\98#=\EB\B9\84?\FA?\F4?\00\00\00\00\00\00\FA<\19\89a`\08N\F4?\00\00\00\00\00\C0\F6\BC\01\D2\A7B \\\F4?\00\00\00\00\00\C0\0B\BD\16\00\1D\EDAj\F4?\00\00\00\00\00\80\12\BD&3\8Bfmx\F4?\00\00\00\00\00\E00=\00<\C1\B5\A2\86\F4?\00\00\00\00\00@-\BD\04\AF\92\E1\E1\94\F4?\00\00\00\00\00 \0C=r\D3\D7\F0*\A3\F4?\00\00\00\00\00P\1E\BD\01\B8m\EA}\B1\F4?\00\00\00\00\00\80\07=\E1)6\D5\DA\BF\F4?\00\00\00\00\00\80\13\BD2\C1\17\B8A\CE\F4?\00\00\00\00\00\80\00=\DB\DD\FD\99\B2\DC\F4?\00\00\00\00\00p,=\96\AB\D8\81-\EB\F4?\00\00\00\00\00\E0\1C\BD\02-\9Dv\B2\F9\F4?\00\00\00\00\00 \19=\C11E\7FA\08\F5?\00\00\00\00\00\C0\08\BD*f\CF\A2\DA\16\F5?\00\00\00\00\00\00\FA\BC\EAQ?\E8}%\F5?\00\00\00\00\00\08J=\DAN\9DV+4\F5?\00\00\00\00\00\D8&\BD\1A\AC\F6\F4\E2B\F5?\00\00\00\00\00D2\BD\DB\94]\CA\A4Q\F5?\00\00\00\00\00<H=k\11\E9\DDp`\F5?\00\00\00\00\00\B0$=\DE)\B56Go\F5?\00\00\00\00\00ZA=\0E\C4\E2\DB'~\F5?\00\00\00\00\00\E0)\BDo\C7\97\D4\12\8D\F5?\00\00\00\00\00\08#\BDL\0B\FF'\08\9C\F5?\00\00\00\00\00\ECM='TH\DD\07\AB\F5?\00\00\00\00\00\00\C4\BC\F4z\A8\FB\11\BA\F5?\00\00\00\00\00\080=\0BFY\8A&\C9\F5?\00\00\00\00\00\C8&\BD?\8E\99\90E\D8\F5?\00\00\00\00\00\9AF=\E1 \AD\15o\E7\F5?\00\00\00\00\00@\1B\BD\CA\EB\DC \A3\F6\F5?\00\00\00\00\00p\17=\B8\DCv\B9\E1\05\F6?\00\00\00\00\00\F8&=\15\F7\CD\E6*\15\F6?\00\00\00\00\00\00\01=1U:\B0~$\F6?\00\00\00\00\00\D0\15\BD\B5)\19\1D\DD3\F6?\00\00\00\00\00\D0\12\BD\13\C3\CC4FC\F6?\00\00\00\00\00\80\EA\BC\FA\8E\BC\FE\B9R\F6?\00\00\00\00\00`(\BD\973U\828b\F6?\00\00\00\00\00\FEq=\8E2\08\C7\C1q\F6?\00\00\00\00\00 7\BD~\A9L\D4U\81\F6?\00\00\00\00\00\80\E6<q\94\9E\B1\F4\90\F6?\00\00\00\00\00x)\BD" }>, align 8, !dbg !0
@_ZN17compiler_builtins4math4libm5exp2f6EXP2FT17haa14ab40c9567a2bE = internal constant <{ [128 x i8] }> <{ [128 x i8] c"\CD;\7Ff\9E\A0\E6?\87\01\EBs\14\A1\E7?\DB\A0*B\E5\AC\E8?\90\F0\A3\82\91\C4\E9?\AD\D3Z\99\9F\E8\EA?\9CR\85\DD\9B\19\EC?\87\A4\FB\DC\18X\ED?\DA\90\A4\A2\AF\A4\EE?\00\00\00\00\00\00\F0?\0F\89\F9lX\B5\F0?{Q}<\B8r\F1?8bunz8\F2?\15\B71\0A\FE\06\F3?\224\12L\A6\DE\F3?'*6\D5\DA\BF\F4?)TH\DD\07\AB\F5?" }>, align 8, !dbg !11
@alloc3125 = private unnamed_addr constant <{ [112 x i8] }> <{ [112 x i8] c"/Users/yaw/.cargo/registry/src/github.com-1ecc6299db9ec823/compiler_builtins-0.1.85/src/../libm/src/math/fmod.rs" }>, align 1
@alloc3106 = private unnamed_addr constant <{ ptr, [16 x i8] }> <{ ptr @alloc3125, [16 x i8] c"p\00\00\00\00\00\00\00\1D\00\00\00\11\00\00\00" }>, align 8
@str.5 = internal constant [31 x i8] c"attempt to negate with overflow"
@alloc3108 = private unnamed_addr constant <{ ptr, [16 x i8] }> <{ ptr @alloc3125, [16 x i8] c"p\00\00\00\00\00\00\00\1D\00\00\00\09\00\00\00" }>, align 8
@alloc3110 = private unnamed_addr constant <{ ptr, [16 x i8] }> <{ ptr @alloc3125, [16 x i8] c"p\00\00\00\00\00\00\00(\00\00\00\11\00\00\00" }>, align 8
@alloc3112 = private unnamed_addr constant <{ ptr, [16 x i8] }> <{ ptr @alloc3125, [16 x i8] c"p\00\00\00\00\00\00\00(\00\00\00\09\00\00\00" }>, align 8
@alloc3114 = private unnamed_addr constant <{ ptr, [16 x i8] }> <{ ptr @alloc3125, [16 x i8] c"p\00\00\00\00\00\00\008\00\00\00\09\00\00\00" }>, align 8
@alloc3116 = private unnamed_addr constant <{ ptr, [16 x i8] }> <{ ptr @alloc3125, [16 x i8] c"p\00\00\00\00\00\00\00H\00\00\00\09\00\00\00" }>, align 8
@alloc3118 = private unnamed_addr constant <{ ptr, [16 x i8] }> <{ ptr @alloc3125, [16 x i8] c"p\00\00\00\00\00\00\00K\00\00\00\11\00\00\00" }>, align 8
@alloc3120 = private unnamed_addr constant <{ ptr, [16 x i8] }> <{ ptr @alloc3125, [16 x i8] c"p\00\00\00\00\00\00\00K\00\00\00\09\00\00\00" }>, align 8
@alloc3122 = private unnamed_addr constant <{ ptr, [16 x i8] }> <{ ptr @alloc3125, [16 x i8] c"p\00\00\00\00\00\00\00C\00\00\00\09\00\00\00" }>, align 8
@alloc3124 = private unnamed_addr constant <{ ptr, [16 x i8] }> <{ ptr @alloc3125, [16 x i8] c"p\00\00\00\00\00\00\00%\00\00\00\0D\00\00\00" }>, align 8
@alloc3126 = private unnamed_addr constant <{ ptr, [16 x i8] }> <{ ptr @alloc3125, [16 x i8] c"p\00\00\00\00\00\00\00\1A\00\00\00\0D\00\00\00" }>, align 8
@alloc3147 = private unnamed_addr constant <{ [113 x i8] }> <{ [113 x i8] c"/Users/yaw/.cargo/registry/src/github.com-1ecc6299db9ec823/compiler_builtins-0.1.85/src/../libm/src/math/fmodf.rs" }>, align 1
@alloc3128 = private unnamed_addr constant <{ ptr, [16 x i8] }> <{ ptr @alloc3147, [16 x i8] c"q\00\00\00\00\00\00\00!\00\00\00\11\00\00\00" }>, align 8
@alloc3130 = private unnamed_addr constant <{ ptr, [16 x i8] }> <{ ptr @alloc3147, [16 x i8] c"q\00\00\00\00\00\00\00!\00\00\00\09\00\00\00" }>, align 8
@alloc3132 = private unnamed_addr constant <{ ptr, [16 x i8] }> <{ ptr @alloc3147, [16 x i8] c"q\00\00\00\00\00\00\00.\00\00\00\11\00\00\00" }>, align 8
@alloc3134 = private unnamed_addr constant <{ ptr, [16 x i8] }> <{ ptr @alloc3147, [16 x i8] c"q\00\00\00\00\00\00\00.\00\00\00\09\00\00\00" }>, align 8
@alloc3136 = private unnamed_addr constant <{ ptr, [16 x i8] }> <{ ptr @alloc3147, [16 x i8] c"q\00\00\00\00\00\00\00?\00\00\00\09\00\00\00" }>, align 8
@alloc3138 = private unnamed_addr constant <{ ptr, [16 x i8] }> <{ ptr @alloc3147, [16 x i8] c"q\00\00\00\00\00\00\00Q\00\00\00\09\00\00\00" }>, align 8
@alloc3140 = private unnamed_addr constant <{ ptr, [16 x i8] }> <{ ptr @alloc3147, [16 x i8] c"q\00\00\00\00\00\00\00T\00\00\00\11\00\00\00" }>, align 8
@alloc3142 = private unnamed_addr constant <{ ptr, [16 x i8] }> <{ ptr @alloc3147, [16 x i8] c"q\00\00\00\00\00\00\00T\00\00\00\09\00\00\00" }>, align 8
@alloc3144 = private unnamed_addr constant <{ ptr, [16 x i8] }> <{ ptr @alloc3147, [16 x i8] c"q\00\00\00\00\00\00\00L\00\00\00\09\00\00\00" }>, align 8
@alloc3146 = private unnamed_addr constant <{ ptr, [16 x i8] }> <{ ptr @alloc3147, [16 x i8] c"q\00\00\00\00\00\00\00*\00\00\00\0D\00\00\00" }>, align 8
@alloc3148 = private unnamed_addr constant <{ ptr, [16 x i8] }> <{ ptr @alloc3147, [16 x i8] c"q\00\00\00\00\00\00\00\1D\00\00\00\0D\00\00\00" }>, align 8
@_ZN17compiler_builtins4math4libm5k_tan1T17hf2340e307ff48605E = internal constant <{ [104 x i8] }> <{ [104 x i8] c"cUUUUU\D5?z\FE\10\11\11\11\C1?\FEA\B3\1B\BA\A1\AB?7\D6\06\84\F4d\96?\93\84n\E9\E3&\82?(\03V\C9\22mm?\15\83\E0\FE\C8\DBW?\01e\F2\F2\D8DC?h\10\8D\1A\F7&0?\A6\927\A0\88~\14?\E9\A7\F02\0F\B8\12?sS`\DB\CBu\F3\BE\D4z\BFtp*\FB>" }>, align 8, !dbg !18
@alloc3159 = private unnamed_addr constant <{ [101 x i8] }> <{ [101 x i8] c"/Users/yaw/.cargo/registry/src/github.com-1ecc6299db9ec823/compiler_builtins-0.1.85/src/mem/x86_64.rs" }>, align 1
@alloc3150 = private unnamed_addr constant <{ ptr, [16 x i8] }> <{ ptr @alloc3159, [16 x i8] c"e\00\00\00\00\00\00\00T\00\00\00\1F\00\00\00" }>, align 8
@alloc3152 = private unnamed_addr constant <{ ptr, [16 x i8] }> <{ ptr @alloc3159, [16 x i8] c"e\00\00\00\00\00\00\00U\00\00\00\1E\00\00\00" }>, align 8
@alloc3154 = private unnamed_addr constant <{ ptr, [16 x i8] }> <{ ptr @alloc3159, [16 x i8] c"e\00\00\00\00\00\00\00k\00\00\00\0D\00\00\00" }>, align 8
@alloc3156 = private unnamed_addr constant <{ ptr, [16 x i8] }> <{ ptr @alloc3159, [16 x i8] c"e\00\00\00\00\00\00\00\A2\00\00\00\18\00\00\00" }>, align 8
@alloc3158 = private unnamed_addr constant <{ ptr, [16 x i8] }> <{ ptr @alloc3159, [16 x i8] c"e\00\00\00\00\00\00\00\B3\00\00\00\1B\00\00\00" }>, align 8
@alloc3160 = private unnamed_addr constant <{ ptr, [16 x i8] }> <{ ptr @alloc3159, [16 x i8] c"e\00\00\00\00\00\00\00\B4\00\00\00\05\00\00\00" }>, align 8
@alloc3259 = private unnamed_addr constant <{ [98 x i8] }> <{ [98 x i8] c"/Users/yaw/.cargo/registry/src/github.com-1ecc6299db9ec823/compiler_builtins-0.1.85/src/mem/mod.rs" }>, align 1
@alloc3162 = private unnamed_addr constant <{ ptr, [16 x i8] }> <{ ptr @alloc3259, [16 x i8] c"b\00\00\00\00\00\00\00T\00\00\00\0D\00\00\00" }>, align 8
@alloc3164 = private unnamed_addr constant <{ ptr, [16 x i8] }> <{ ptr @alloc3259, [16 x i8] c"b\00\00\00\00\00\00\00b\00\00\00\11\00\00\00" }>, align 8
@alloc3166 = private unnamed_addr constant <{ ptr, [16 x i8] }> <{ ptr @alloc3259, [16 x i8] c"b\00\00\00\00\00\00\00j\00\00\00\11\00\00\00" }>, align 8
@alloc3168 = private unnamed_addr constant <{ ptr, [16 x i8] }> <{ ptr @alloc3259, [16 x i8] c"b\00\00\00\00\00\00\00\7F\00\00\00\0D\00\00\00" }>, align 8
@alloc3170 = private unnamed_addr constant <{ ptr, [16 x i8] }> <{ ptr @alloc3259, [16 x i8] c"b\00\00\00\00\00\00\00\86\00\00\00\0D\00\00\00" }>, align 8
@alloc3172 = private unnamed_addr constant <{ ptr, [16 x i8] }> <{ ptr @alloc3229, [16 x i8] c"e\00\00\00\00\00\00\00\9A\00\00\00\15\00\00\00" }>, align 8
@alloc3174 = private unnamed_addr constant <{ ptr, [16 x i8] }> <{ ptr @alloc3229, [16 x i8] c"e\00\00\00\00\00\00\00\9B\00\00\00\0D\00\00\00" }>, align 8
@alloc3176 = private unnamed_addr constant <{ ptr, [16 x i8] }> <{ ptr @alloc3229, [16 x i8] c"e\00\00\00\00\00\00\00\AA\00\00\00\15\00\00\00" }>, align 8
@alloc3178 = private unnamed_addr constant <{ ptr, [16 x i8] }> <{ ptr @alloc3229, [16 x i8] c"e\00\00\00\00\00\00\00\AB\00\00\00\0D\00\00\00" }>, align 8
@alloc3180 = private unnamed_addr constant <{ ptr, [16 x i8] }> <{ ptr @alloc3229, [16 x i8] c"e\00\00\00\00\00\00\00\BB\00\00\00\15\00\00\00" }>, align 8
@alloc3182 = private unnamed_addr constant <{ ptr, [16 x i8] }> <{ ptr @alloc3229, [16 x i8] c"e\00\00\00\00\00\00\00\BC\00\00\00\0D\00\00\00" }>, align 8
@alloc3184 = private unnamed_addr constant <{ ptr, [16 x i8] }> <{ ptr @alloc3229, [16 x i8] c"e\00\00\00\00\00\00\00\CB\00\00\00\15\00\00\00" }>, align 8
@alloc3186 = private unnamed_addr constant <{ ptr, [16 x i8] }> <{ ptr @alloc3229, [16 x i8] c"e\00\00\00\00\00\00\00\CC\00\00\00\0D\00\00\00" }>, align 8
@alloc3188 = private unnamed_addr constant <{ ptr, [16 x i8] }> <{ ptr @alloc3229, [16 x i8] c"e\00\00\00\00\00\00\00\DB\00\00\00\15\00\00\00" }>, align 8
@alloc3190 = private unnamed_addr constant <{ ptr, [16 x i8] }> <{ ptr @alloc3229, [16 x i8] c"e\00\00\00\00\00\00\00\DC\00\00\00\0D\00\00\00" }>, align 8
@alloc3192 = private unnamed_addr constant <{ ptr, [16 x i8] }> <{ ptr @alloc3229, [16 x i8] c"e\00\00\00\00\00\00\00\EC\00\00\00\15\00\00\00" }>, align 8
@alloc3194 = private unnamed_addr constant <{ ptr, [16 x i8] }> <{ ptr @alloc3229, [16 x i8] c"e\00\00\00\00\00\00\00\ED\00\00\00\0D\00\00\00" }>, align 8
@alloc3196 = private unnamed_addr constant <{ ptr, [16 x i8] }> <{ ptr @alloc3229, [16 x i8] c"e\00\00\00\00\00\00\00\FF\00\00\00\15\00\00\00" }>, align 8
@alloc3198 = private unnamed_addr constant <{ ptr, [16 x i8] }> <{ ptr @alloc3229, [16 x i8] c"e\00\00\00\00\00\00\00\00\01\00\00\15\00\00\00" }>, align 8
@alloc3200 = private unnamed_addr constant <{ ptr, [16 x i8] }> <{ ptr @alloc3229, [16 x i8] c"e\00\00\00\00\00\00\00\01\01\00\00'\00\00\00" }>, align 8
@alloc3202 = private unnamed_addr constant <{ ptr, [16 x i8] }> <{ ptr @alloc3229, [16 x i8] c"e\00\00\00\00\00\00\00\10\01\00\00\15\00\00\00" }>, align 8
@alloc3204 = private unnamed_addr constant <{ ptr, [16 x i8] }> <{ ptr @alloc3229, [16 x i8] c"e\00\00\00\00\00\00\00\11\01\00\00\15\00\00\00" }>, align 8
@alloc3206 = private unnamed_addr constant <{ ptr, [16 x i8] }> <{ ptr @alloc3229, [16 x i8] c"e\00\00\00\00\00\00\00\12\01\00\00'\00\00\00" }>, align 8
@alloc3208 = private unnamed_addr constant <{ ptr, [16 x i8] }> <{ ptr @alloc3229, [16 x i8] c"e\00\00\00\00\00\00\00\22\01\00\00\15\00\00\00" }>, align 8
@alloc3210 = private unnamed_addr constant <{ ptr, [16 x i8] }> <{ ptr @alloc3229, [16 x i8] c"e\00\00\00\00\00\00\00#\01\00\00\15\00\00\00" }>, align 8
@alloc3212 = private unnamed_addr constant <{ ptr, [16 x i8] }> <{ ptr @alloc3229, [16 x i8] c"e\00\00\00\00\00\00\00$\01\00\00'\00\00\00" }>, align 8
@alloc3214 = private unnamed_addr constant <{ ptr, [16 x i8] }> <{ ptr @alloc3229, [16 x i8] c"e\00\00\00\00\00\00\003\01\00\00\15\00\00\00" }>, align 8
@alloc3216 = private unnamed_addr constant <{ ptr, [16 x i8] }> <{ ptr @alloc3229, [16 x i8] c"e\00\00\00\00\00\00\004\01\00\00\15\00\00\00" }>, align 8
@alloc3218 = private unnamed_addr constant <{ ptr, [16 x i8] }> <{ ptr @alloc3229, [16 x i8] c"e\00\00\00\00\00\00\005\01\00\00'\00\00\00" }>, align 8
@alloc3220 = private unnamed_addr constant <{ ptr, [16 x i8] }> <{ ptr @alloc3229, [16 x i8] c"e\00\00\00\00\00\00\00D\01\00\00\15\00\00\00" }>, align 8
@alloc3222 = private unnamed_addr constant <{ ptr, [16 x i8] }> <{ ptr @alloc3229, [16 x i8] c"e\00\00\00\00\00\00\00E\01\00\00\15\00\00\00" }>, align 8
@alloc3224 = private unnamed_addr constant <{ ptr, [16 x i8] }> <{ ptr @alloc3229, [16 x i8] c"e\00\00\00\00\00\00\00F\01\00\00'\00\00\00" }>, align 8
@alloc3226 = private unnamed_addr constant <{ ptr, [16 x i8] }> <{ ptr @alloc3229, [16 x i8] c"e\00\00\00\00\00\00\00V\01\00\00\15\00\00\00" }>, align 8
@alloc3228 = private unnamed_addr constant <{ ptr, [16 x i8] }> <{ ptr @alloc3229, [16 x i8] c"e\00\00\00\00\00\00\00W\01\00\00\15\00\00\00" }>, align 8
@alloc3230 = private unnamed_addr constant <{ ptr, [16 x i8] }> <{ ptr @alloc3229, [16 x i8] c"e\00\00\00\00\00\00\00X\01\00\00'\00\00\00" }>, align 8
@alloc3233 = private unnamed_addr constant <{ [100 x i8] }> <{ [100 x i8] c"/Users/yaw/.cargo/registry/src/github.com-1ecc6299db9ec823/compiler_builtins-0.1.85/src/float/mod.rs" }>, align 1
@alloc3232 = private unnamed_addr constant <{ ptr, [16 x i8] }> <{ ptr @alloc3233, [16 x i8] c"d\00\00\00\00\00\00\00\AE\00\00\00\01\00\00\00" }>, align 8
@alloc3234 = private unnamed_addr constant <{ ptr, [16 x i8] }> <{ ptr @alloc3233, [16 x i8] c"d\00\00\00\00\00\00\00\AF\00\00\00\01\00\00\00" }>, align 8
@alloc3243 = private unnamed_addr constant <{ [118 x i8] }> <{ [118 x i8] c"/Users/yaw/.cargo/registry/src/github.com-1ecc6299db9ec823/compiler_builtins-0.1.85/src/int/specialized_div_rem/mod.rs" }>, align 1
@alloc3236 = private unnamed_addr constant <{ ptr, [16 x i8] }> <{ ptr @alloc3243, [16 x i8] c"v\00\00\00\00\00\00\00j\00\00\00\01\00\00\00" }>, align 8
@alloc3238 = private unnamed_addr constant <{ ptr, [16 x i8] }> <{ ptr @alloc3243, [16 x i8] c"v\00\00\00\00\00\00\00r\00\00\00\01\00\00\00" }>, align 8
@alloc3240 = private unnamed_addr constant <{ ptr, [16 x i8] }> <{ ptr @alloc3243, [16 x i8] c"v\00\00\00\00\00\00\00\CB\00\00\00\01\00\00\00" }>, align 8
@alloc3242 = private unnamed_addr constant <{ ptr, [16 x i8] }> <{ ptr @alloc3243, [16 x i8] c"v\00\00\00\00\00\00\00\FB\00\00\00\01\00\00\00" }>, align 8
@alloc3244 = private unnamed_addr constant <{ ptr, [16 x i8] }> <{ ptr @alloc3243, [16 x i8] c"v\00\00\00\00\00\00\00.\01\00\00\01\00\00\00" }>, align 8
@alloc3257 = private unnamed_addr constant <{ [108 x i8] }> <{ [108 x i8] c"/Users/yaw/.cargo/registry/src/github.com-1ecc6299db9ec823/compiler_builtins-0.1.85/src/int/leading_zeros.rs" }>, align 1
@alloc3246 = private unnamed_addr constant <{ ptr, [16 x i8] }> <{ ptr @alloc3257, [16 x i8] c"l\00\00\00\00\00\00\00\1A\00\00\00\0D\00\00\00" }>, align 8
@alloc3248 = private unnamed_addr constant <{ ptr, [16 x i8] }> <{ ptr @alloc3257, [16 x i8] c"l\00\00\00\00\00\00\00\22\00\00\00\0D\00\00\00" }>, align 8
@alloc3250 = private unnamed_addr constant <{ ptr, [16 x i8] }> <{ ptr @alloc3257, [16 x i8] c"l\00\00\00\00\00\00\00(\00\00\00\09\00\00\00" }>, align 8
@alloc3252 = private unnamed_addr constant <{ ptr, [16 x i8] }> <{ ptr @alloc3257, [16 x i8] c"l\00\00\00\00\00\00\00-\00\00\00\09\00\00\00" }>, align 8
@alloc3254 = private unnamed_addr constant <{ ptr, [16 x i8] }> <{ ptr @alloc3257, [16 x i8] c"l\00\00\00\00\00\00\002\00\00\00\09\00\00\00" }>, align 8
@alloc3256 = private unnamed_addr constant <{ ptr, [16 x i8] }> <{ ptr @alloc3257, [16 x i8] c"l\00\00\00\00\00\00\008\00\00\00\09\00\00\00" }>, align 8
@alloc3258 = private unnamed_addr constant <{ ptr, [16 x i8] }> <{ ptr @alloc3257, [16 x i8] c"l\00\00\00\00\00\00\00:\00\00\00\09\00\00\00" }>, align 8
@alloc3260 = private unnamed_addr constant <{ ptr, [16 x i8] }> <{ ptr @alloc3259, [16 x i8] c"b\00\00\00\00\00\00\00E\00\00\00\0D\00\00\00" }>, align 8

; <u32 as core::ops::bit::Shl>::shl
; Function Attrs: inlinehint noredzone nounwind
define internal i32 @"_ZN43_$LT$u32$u20$as$u20$core..ops..bit..Shl$GT$3shl17h29c674deb99849a2E"(i32 %self, i32 %other) unnamed_addr #0 !dbg !43 {
start:
  %other.dbg.spill = alloca i32, align 4
  %self.dbg.spill = alloca i32, align 4
  store i32 %self, ptr %self.dbg.spill, align 4
  call void @llvm.dbg.declare(metadata ptr %self.dbg.spill, metadata !53, metadata !DIExpression()), !dbg !56
  store i32 %other, ptr %other.dbg.spill, align 4
  call void @llvm.dbg.declare(metadata ptr %other.dbg.spill, metadata !54, metadata !DIExpression()), !dbg !57
  %0 = and i32 %other, -32, !dbg !58
  %_5.1 = icmp ne i32 %0, 0, !dbg !58
  %1 = and i32 %other, 31, !dbg !58
  %_5.0 = shl i32 %self, %1, !dbg !58
  %2 = call i1 @llvm.expect.i1(i1 %_5.1, i1 false), !dbg !58
  br i1 %2, label %panic, label %bb1, !dbg !58

bb1:                                              ; preds = %start
  ret i32 %_5.0, !dbg !59

panic:                                            ; preds = %start
; call core::panicking::panic
  call void @_ZN4core9panicking5panic17hef55b24906324c39E(ptr align 1 @str.0, i64 35, ptr align 8 @alloc2932) #7, !dbg !58
  unreachable, !dbg !58
}

; <u32 as core::ops::bit::Shr>::shr
; Function Attrs: inlinehint noredzone nounwind
define internal i32 @"_ZN43_$LT$u32$u20$as$u20$core..ops..bit..Shr$GT$3shr17h6ea79717a9a796d4E"(i32 %self, i32 %other) unnamed_addr #0 !dbg !60 {
start:
  %other.dbg.spill = alloca i32, align 4
  %self.dbg.spill = alloca i32, align 4
  store i32 %self, ptr %self.dbg.spill, align 4
  call void @llvm.dbg.declare(metadata ptr %self.dbg.spill, metadata !63, metadata !DIExpression()), !dbg !65
  store i32 %other, ptr %other.dbg.spill, align 4
  call void @llvm.dbg.declare(metadata ptr %other.dbg.spill, metadata !64, metadata !DIExpression()), !dbg !66
  %0 = and i32 %other, -32, !dbg !67
  %_5.1 = icmp ne i32 %0, 0, !dbg !67
  %1 = and i32 %other, 31, !dbg !67
  %_5.0 = lshr i32 %self, %1, !dbg !67
  %2 = call i1 @llvm.expect.i1(i1 %_5.1, i1 false), !dbg !67
  br i1 %2, label %panic, label %bb1, !dbg !67

bb1:                                              ; preds = %start
  ret i32 %_5.0, !dbg !68

panic:                                            ; preds = %start
; call core::panicking::panic
  call void @_ZN4core9panicking5panic17hef55b24906324c39E(ptr align 1 @str.1, i64 36, ptr align 8 @alloc2934) #7, !dbg !67
  unreachable, !dbg !67
}

; <u128 as core::ops::bit::Not>::not
; Function Attrs: inlinehint noredzone nounwind
define internal i128 @"_ZN44_$LT$u128$u20$as$u20$core..ops..bit..Not$GT$3not17h77f6eec83143769fE"(i128 %self) unnamed_addr #0 !dbg !69 {
start:
  %self.dbg.spill = alloca i128, align 8
  store i128 %self, ptr %self.dbg.spill, align 8
  call void @llvm.dbg.declare(metadata ptr %self.dbg.spill, metadata !75, metadata !DIExpression()), !dbg !76
  %0 = xor i128 %self, -1, !dbg !77
  ret i128 %0, !dbg !78
}

; <u8 as core::ops::bit::BitOr>::bitor
; Function Attrs: inlinehint noredzone nounwind
define internal i8 @"_ZN44_$LT$u8$u20$as$u20$core..ops..bit..BitOr$GT$5bitor17h1f3ed72f386a5dacE"(i8 %self, i8 %rhs) unnamed_addr #0 !dbg !79 {
start:
  %rhs.dbg.spill = alloca i8, align 1
  %self.dbg.spill = alloca i8, align 1
  store i8 %self, ptr %self.dbg.spill, align 1
  call void @llvm.dbg.declare(metadata ptr %self.dbg.spill, metadata !84, metadata !DIExpression()), !dbg !86
  store i8 %rhs, ptr %rhs.dbg.spill, align 1
  call void @llvm.dbg.declare(metadata ptr %rhs.dbg.spill, metadata !85, metadata !DIExpression()), !dbg !87
  %0 = or i8 %self, %rhs, !dbg !88
  ret i8 %0, !dbg !89
}

; <f32 as core::ops::arith::Div>::div
; Function Attrs: inlinehint noredzone nounwind
define internal float @"_ZN45_$LT$f32$u20$as$u20$core..ops..arith..Div$GT$3div17hcbc119a61d6a86a9E"(float %self, float %other) unnamed_addr #0 !dbg !90 {
start:
  %other.dbg.spill = alloca float, align 4
  %self.dbg.spill = alloca float, align 4
  store float %self, ptr %self.dbg.spill, align 4
  call void @llvm.dbg.declare(metadata ptr %self.dbg.spill, metadata !98, metadata !DIExpression()), !dbg !100
  store float %other, ptr %other.dbg.spill, align 4
  call void @llvm.dbg.declare(metadata ptr %other.dbg.spill, metadata !99, metadata !DIExpression()), !dbg !101
  %0 = fdiv float %self, %other, !dbg !102
  ret float %0, !dbg !103
}

; <f64 as core::ops::arith::Div>::div
; Function Attrs: inlinehint noredzone nounwind
define internal double @"_ZN45_$LT$f64$u20$as$u20$core..ops..arith..Div$GT$3div17h499ecebd283361daE"(double %self, double %other) unnamed_addr #0 !dbg !104 {
start:
  %other.dbg.spill = alloca double, align 8
  %self.dbg.spill = alloca double, align 8
  store double %self, ptr %self.dbg.spill, align 8
  call void @llvm.dbg.declare(metadata ptr %self.dbg.spill, metadata !109, metadata !DIExpression()), !dbg !111
  store double %other, ptr %other.dbg.spill, align 8
  call void @llvm.dbg.declare(metadata ptr %other.dbg.spill, metadata !110, metadata !DIExpression()), !dbg !112
  %0 = fdiv double %self, %other, !dbg !113
  ret double %0, !dbg !114
}

; <i16 as core::ops::bit::BitOr>::bitor
; Function Attrs: inlinehint noredzone nounwind
define internal i16 @"_ZN45_$LT$i16$u20$as$u20$core..ops..bit..BitOr$GT$5bitor17h6901c8f93227092eE"(i16 %self, i16 %rhs) unnamed_addr #0 !dbg !115 {
start:
  %rhs.dbg.spill = alloca i16, align 2
  %self.dbg.spill = alloca i16, align 2
  store i16 %self, ptr %self.dbg.spill, align 2
  call void @llvm.dbg.declare(metadata ptr %self.dbg.spill, metadata !121, metadata !DIExpression()), !dbg !123
  store i16 %rhs, ptr %rhs.dbg.spill, align 2
  call void @llvm.dbg.declare(metadata ptr %rhs.dbg.spill, metadata !122, metadata !DIExpression()), !dbg !124
  %0 = or i16 %self, %rhs, !dbg !125
  ret i16 %0, !dbg !126
}

; <i32 as core::ops::bit::BitOr>::bitor
; Function Attrs: inlinehint noredzone nounwind
define internal i32 @"_ZN45_$LT$i32$u20$as$u20$core..ops..bit..BitOr$GT$5bitor17h0b4b4b7c4ee08edfE"(i32 %self, i32 %rhs) unnamed_addr #0 !dbg !127 {
start:
  %rhs.dbg.spill = alloca i32, align 4
  %self.dbg.spill = alloca i32, align 4
  store i32 %self, ptr %self.dbg.spill, align 4
  call void @llvm.dbg.declare(metadata ptr %self.dbg.spill, metadata !133, metadata !DIExpression()), !dbg !135
  store i32 %rhs, ptr %rhs.dbg.spill, align 4
  call void @llvm.dbg.declare(metadata ptr %rhs.dbg.spill, metadata !134, metadata !DIExpression()), !dbg !136
  %0 = or i32 %self, %rhs, !dbg !137
  ret i32 %0, !dbg !138
}

; <i64 as core::ops::bit::BitOr>::bitor
; Function Attrs: inlinehint noredzone nounwind
define internal i64 @"_ZN45_$LT$i64$u20$as$u20$core..ops..bit..BitOr$GT$5bitor17h2530817d98054552E"(i64 %self, i64 %rhs) unnamed_addr #0 !dbg !139 {
start:
  %rhs.dbg.spill = alloca i64, align 8
  %self.dbg.spill = alloca i64, align 8
  store i64 %self, ptr %self.dbg.spill, align 8
  call void @llvm.dbg.declare(metadata ptr %self.dbg.spill, metadata !145, metadata !DIExpression()), !dbg !147
  store i64 %rhs, ptr %rhs.dbg.spill, align 8
  call void @llvm.dbg.declare(metadata ptr %rhs.dbg.spill, metadata !146, metadata !DIExpression()), !dbg !148
  %0 = or i64 %self, %rhs, !dbg !149
  ret i64 %0, !dbg !150
}

; <u16 as core::ops::bit::BitOr>::bitor
; Function Attrs: inlinehint noredzone nounwind
define internal i16 @"_ZN45_$LT$u16$u20$as$u20$core..ops..bit..BitOr$GT$5bitor17h8e98207b3ee82e4eE"(i16 %self, i16 %rhs) unnamed_addr #0 !dbg !151 {
start:
  %rhs.dbg.spill = alloca i16, align 2
  %self.dbg.spill = alloca i16, align 2
  store i16 %self, ptr %self.dbg.spill, align 2
  call void @llvm.dbg.declare(metadata ptr %self.dbg.spill, metadata !157, metadata !DIExpression()), !dbg !159
  store i16 %rhs, ptr %rhs.dbg.spill, align 2
  call void @llvm.dbg.declare(metadata ptr %rhs.dbg.spill, metadata !158, metadata !DIExpression()), !dbg !160
  %0 = or i16 %self, %rhs, !dbg !161
  ret i16 %0, !dbg !162
}

; <u32 as core::ops::arith::Sub>::sub
; Function Attrs: inlinehint noredzone nounwind
define internal i32 @"_ZN45_$LT$u32$u20$as$u20$core..ops..arith..Sub$GT$3sub17h8a7363d346dcfb67E"(i32 %self, i32 %other) unnamed_addr #0 !dbg !163 {
start:
  %other.dbg.spill = alloca i32, align 4
  %self.dbg.spill = alloca i32, align 4
  store i32 %self, ptr %self.dbg.spill, align 4
  call void @llvm.dbg.declare(metadata ptr %self.dbg.spill, metadata !166, metadata !DIExpression()), !dbg !168
  store i32 %other, ptr %other.dbg.spill, align 4
  call void @llvm.dbg.declare(metadata ptr %other.dbg.spill, metadata !167, metadata !DIExpression()), !dbg !169
  %_5.0 = sub i32 %self, %other, !dbg !170
  %_5.1 = icmp ult i32 %self, %other, !dbg !170
  %0 = call i1 @llvm.expect.i1(i1 %_5.1, i1 false), !dbg !170
  br i1 %0, label %panic, label %bb1, !dbg !170

bb1:                                              ; preds = %start
  ret i32 %_5.0, !dbg !171

panic:                                            ; preds = %start
; call core::panicking::panic
  call void @_ZN4core9panicking5panic17hef55b24906324c39E(ptr align 1 @str.2, i64 33, ptr align 8 @alloc2936) #7, !dbg !170
  unreachable, !dbg !170
}

; <u32 as core::ops::bit::BitOr>::bitor
; Function Attrs: inlinehint noredzone nounwind
define internal i32 @"_ZN45_$LT$u32$u20$as$u20$core..ops..bit..BitOr$GT$5bitor17h5cb70ae9388beb33E"(i32 %self, i32 %rhs) unnamed_addr #0 !dbg !172 {
start:
  %rhs.dbg.spill = alloca i32, align 4
  %self.dbg.spill = alloca i32, align 4
  store i32 %self, ptr %self.dbg.spill, align 4
  call void @llvm.dbg.declare(metadata ptr %self.dbg.spill, metadata !175, metadata !DIExpression()), !dbg !177
  store i32 %rhs, ptr %rhs.dbg.spill, align 4
  call void @llvm.dbg.declare(metadata ptr %rhs.dbg.spill, metadata !176, metadata !DIExpression()), !dbg !178
  %0 = or i32 %self, %rhs, !dbg !179
  ret i32 %0, !dbg !180
}

; <u64 as core::ops::arith::Sub>::sub
; Function Attrs: inlinehint noredzone nounwind
define internal i64 @"_ZN45_$LT$u64$u20$as$u20$core..ops..arith..Sub$GT$3sub17h22575febb12d7b96E"(i64 %self, i64 %other) unnamed_addr #0 !dbg !181 {
start:
  %other.dbg.spill = alloca i64, align 8
  %self.dbg.spill = alloca i64, align 8
  store i64 %self, ptr %self.dbg.spill, align 8
  call void @llvm.dbg.declare(metadata ptr %self.dbg.spill, metadata !186, metadata !DIExpression()), !dbg !188
  store i64 %other, ptr %other.dbg.spill, align 8
  call void @llvm.dbg.declare(metadata ptr %other.dbg.spill, metadata !187, metadata !DIExpression()), !dbg !189
  %_5.0 = sub i64 %self, %other, !dbg !190
  %_5.1 = icmp ult i64 %self, %other, !dbg !190
  %0 = call i1 @llvm.expect.i1(i1 %_5.1, i1 false), !dbg !190
  br i1 %0, label %panic, label %bb1, !dbg !190

bb1:                                              ; preds = %start
  ret i64 %_5.0, !dbg !191

panic:                                            ; preds = %start
; call core::panicking::panic
  call void @_ZN4core9panicking5panic17hef55b24906324c39E(ptr align 1 @str.2, i64 33, ptr align 8 @alloc2936) #7, !dbg !190
  unreachable, !dbg !190
}

; <u64 as core::ops::bit::BitOr>::bitor
; Function Attrs: inlinehint noredzone nounwind
define internal i64 @"_ZN45_$LT$u64$u20$as$u20$core..ops..bit..BitOr$GT$5bitor17h28a11ccbdbb1b2a0E"(i64 %self, i64 %rhs) unnamed_addr #0 !dbg !192 {
start:
  %rhs.dbg.spill = alloca i64, align 8
  %self.dbg.spill = alloca i64, align 8
  store i64 %self, ptr %self.dbg.spill, align 8
  call void @llvm.dbg.declare(metadata ptr %self.dbg.spill, metadata !195, metadata !DIExpression()), !dbg !197
  store i64 %rhs, ptr %rhs.dbg.spill, align 8
  call void @llvm.dbg.declare(metadata ptr %rhs.dbg.spill, metadata !196, metadata !DIExpression()), !dbg !198
  %0 = or i64 %self, %rhs, !dbg !199
  ret i64 %0, !dbg !200
}

; <i32 as core::ops::bit::BitAnd>::bitand
; Function Attrs: inlinehint noredzone nounwind
define internal i32 @"_ZN46_$LT$i32$u20$as$u20$core..ops..bit..BitAnd$GT$6bitand17hb5c1bc233d8ba8e7E"(i32 %self, i32 %rhs) unnamed_addr #0 !dbg !201 {
start:
  %rhs.dbg.spill = alloca i32, align 4
  %self.dbg.spill = alloca i32, align 4
  store i32 %self, ptr %self.dbg.spill, align 4
  call void @llvm.dbg.declare(metadata ptr %self.dbg.spill, metadata !204, metadata !DIExpression()), !dbg !206
  store i32 %rhs, ptr %rhs.dbg.spill, align 4
  call void @llvm.dbg.declare(metadata ptr %rhs.dbg.spill, metadata !205, metadata !DIExpression()), !dbg !207
  %0 = and i32 %self, %rhs, !dbg !208
  ret i32 %0, !dbg !209
}

; <i64 as core::ops::bit::BitAnd>::bitand
; Function Attrs: inlinehint noredzone nounwind
define internal i64 @"_ZN46_$LT$i64$u20$as$u20$core..ops..bit..BitAnd$GT$6bitand17h260c922f80e52c1dE"(i64 %self, i64 %rhs) unnamed_addr #0 !dbg !210 {
start:
  %rhs.dbg.spill = alloca i64, align 8
  %self.dbg.spill = alloca i64, align 8
  store i64 %self, ptr %self.dbg.spill, align 8
  call void @llvm.dbg.declare(metadata ptr %self.dbg.spill, metadata !213, metadata !DIExpression()), !dbg !215
  store i64 %rhs, ptr %rhs.dbg.spill, align 8
  call void @llvm.dbg.declare(metadata ptr %rhs.dbg.spill, metadata !214, metadata !DIExpression()), !dbg !216
  %0 = and i64 %self, %rhs, !dbg !217
  ret i64 %0, !dbg !218
}

; <u32 as core::ops::bit::BitAnd>::bitand
; Function Attrs: inlinehint noredzone nounwind
define internal i32 @"_ZN46_$LT$u32$u20$as$u20$core..ops..bit..BitAnd$GT$6bitand17h39c93aaceabdf7d9E"(i32 %self, i32 %rhs) unnamed_addr #0 !dbg !219 {
start:
  %rhs.dbg.spill = alloca i32, align 4
  %self.dbg.spill = alloca i32, align 4
  store i32 %self, ptr %self.dbg.spill, align 4
  call void @llvm.dbg.declare(metadata ptr %self.dbg.spill, metadata !222, metadata !DIExpression()), !dbg !224
  store i32 %rhs, ptr %rhs.dbg.spill, align 4
  call void @llvm.dbg.declare(metadata ptr %rhs.dbg.spill, metadata !223, metadata !DIExpression()), !dbg !225
  %0 = and i32 %self, %rhs, !dbg !226
  ret i32 %0, !dbg !227
}

; <u32 as core::ops::bit::BitXor>::bitxor
; Function Attrs: inlinehint noredzone nounwind
define internal i32 @"_ZN46_$LT$u32$u20$as$u20$core..ops..bit..BitXor$GT$6bitxor17h34fc0d1c073a0b45E"(i32 %self, i32 %other) unnamed_addr #0 !dbg !228 {
start:
  %other.dbg.spill = alloca i32, align 4
  %self.dbg.spill = alloca i32, align 4
  store i32 %self, ptr %self.dbg.spill, align 4
  call void @llvm.dbg.declare(metadata ptr %self.dbg.spill, metadata !231, metadata !DIExpression()), !dbg !233
  store i32 %other, ptr %other.dbg.spill, align 4
  call void @llvm.dbg.declare(metadata ptr %other.dbg.spill, metadata !232, metadata !DIExpression()), !dbg !234
  %0 = xor i32 %self, %other, !dbg !235
  ret i32 %0, !dbg !236
}

; <u64 as core::ops::bit::BitAnd>::bitand
; Function Attrs: inlinehint noredzone nounwind
define internal i64 @"_ZN46_$LT$u64$u20$as$u20$core..ops..bit..BitAnd$GT$6bitand17h5dd5308a9d8df24fE"(i64 %self, i64 %rhs) unnamed_addr #0 !dbg !237 {
start:
  %rhs.dbg.spill = alloca i64, align 8
  %self.dbg.spill = alloca i64, align 8
  store i64 %self, ptr %self.dbg.spill, align 8
  call void @llvm.dbg.declare(metadata ptr %self.dbg.spill, metadata !240, metadata !DIExpression()), !dbg !242
  store i64 %rhs, ptr %rhs.dbg.spill, align 8
  call void @llvm.dbg.declare(metadata ptr %rhs.dbg.spill, metadata !241, metadata !DIExpression()), !dbg !243
  %0 = and i64 %self, %rhs, !dbg !244
  ret i64 %0, !dbg !245
}

; <u64 as core::ops::bit::BitXor>::bitxor
; Function Attrs: inlinehint noredzone nounwind
define internal i64 @"_ZN46_$LT$u64$u20$as$u20$core..ops..bit..BitXor$GT$6bitxor17h67cd9a791b9d3c2bE"(i64 %self, i64 %other) unnamed_addr #0 !dbg !246 {
start:
  %other.dbg.spill = alloca i64, align 8
  %self.dbg.spill = alloca i64, align 8
  store i64 %self, ptr %self.dbg.spill, align 8
  call void @llvm.dbg.declare(metadata ptr %self.dbg.spill, metadata !249, metadata !DIExpression()), !dbg !251
  store i64 %other, ptr %other.dbg.spill, align 8
  call void @llvm.dbg.declare(metadata ptr %other.dbg.spill, metadata !250, metadata !DIExpression()), !dbg !252
  %0 = xor i64 %self, %other, !dbg !253
  ret i64 %0, !dbg !254
}

; <u32 as core::ops::bit::ShrAssign>::shr_assign
; Function Attrs: inlinehint noredzone nounwind
define internal void @"_ZN49_$LT$u32$u20$as$u20$core..ops..bit..ShrAssign$GT$10shr_assign17h3c3a0f924e00b786E"(ptr align 4 %self, i32 %other) unnamed_addr #0 !dbg !255 {
start:
  %other.dbg.spill = alloca i32, align 4
  %self.dbg.spill = alloca ptr, align 8
  store ptr %self, ptr %self.dbg.spill, align 8
  call void @llvm.dbg.declare(metadata ptr %self.dbg.spill, metadata !261, metadata !DIExpression()), !dbg !263
  store i32 %other, ptr %other.dbg.spill, align 4
  call void @llvm.dbg.declare(metadata ptr %other.dbg.spill, metadata !262, metadata !DIExpression()), !dbg !264
  %0 = load i32, ptr %self, align 4, !dbg !265
  %1 = and i32 %other, -32, !dbg !265
  %_4.1 = icmp ne i32 %1, 0, !dbg !265
  %2 = and i32 %other, 31, !dbg !265
  %_4.0 = lshr i32 %0, %2, !dbg !265
  %3 = call i1 @llvm.expect.i1(i1 %_4.1, i1 false), !dbg !265
  br i1 %3, label %panic, label %bb1, !dbg !265

bb1:                                              ; preds = %start
  store i32 %_4.0, ptr %self, align 4, !dbg !265
  ret void, !dbg !266

panic:                                            ; preds = %start
; call core::panicking::panic
  call void @_ZN4core9panicking5panic17hef55b24906324c39E(ptr align 1 @str.1, i64 36, ptr align 8 @alloc2938) #7, !dbg !265
  unreachable, !dbg !265
}

; core::cmp::impls::<impl core::cmp::PartialEq for i32>::eq
; Function Attrs: inlinehint noredzone nounwind
define internal zeroext i1 @"_ZN4core3cmp5impls54_$LT$impl$u20$core..cmp..PartialEq$u20$for$u20$i32$GT$2eq17h57ccd48ed939bed0E"(ptr align 4 %self, ptr align 4 %other) unnamed_addr #0 !dbg !267 {
start:
  %other.dbg.spill = alloca ptr, align 8
  %self.dbg.spill = alloca ptr, align 8
  store ptr %self, ptr %self.dbg.spill, align 8
  call void @llvm.dbg.declare(metadata ptr %self.dbg.spill, metadata !277, metadata !DIExpression()), !dbg !279
  store ptr %other, ptr %other.dbg.spill, align 8
  call void @llvm.dbg.declare(metadata ptr %other.dbg.spill, metadata !278, metadata !DIExpression()), !dbg !280
  %_3 = load i32, ptr %self, align 4, !dbg !281
  %_4 = load i32, ptr %other, align 4, !dbg !282
  %0 = icmp eq i32 %_3, %_4, !dbg !281
  ret i1 %0, !dbg !283
}

; core::cmp::impls::<impl core::cmp::PartialEq for i64>::eq
; Function Attrs: inlinehint noredzone nounwind
define internal zeroext i1 @"_ZN4core3cmp5impls54_$LT$impl$u20$core..cmp..PartialEq$u20$for$u20$i64$GT$2eq17hfc7abce97085ca50E"(ptr align 8 %self, ptr align 8 %other) unnamed_addr #0 !dbg !284 {
start:
  %other.dbg.spill = alloca ptr, align 8
  %self.dbg.spill = alloca ptr, align 8
  store ptr %self, ptr %self.dbg.spill, align 8
  call void @llvm.dbg.declare(metadata ptr %self.dbg.spill, metadata !290, metadata !DIExpression()), !dbg !292
  store ptr %other, ptr %other.dbg.spill, align 8
  call void @llvm.dbg.declare(metadata ptr %other.dbg.spill, metadata !291, metadata !DIExpression()), !dbg !293
  %_3 = load i64, ptr %self, align 8, !dbg !294
  %_4 = load i64, ptr %other, align 8, !dbg !295
  %0 = icmp eq i64 %_3, %_4, !dbg !294
  ret i1 %0, !dbg !296
}

; core::cmp::impls::<impl core::cmp::PartialEq for u16>::ne
; Function Attrs: inlinehint noredzone nounwind
define internal zeroext i1 @"_ZN4core3cmp5impls54_$LT$impl$u20$core..cmp..PartialEq$u20$for$u20$u16$GT$2ne17h5e322b3f86be60c0E"(ptr align 2 %self, ptr align 2 %other) unnamed_addr #0 !dbg !297 {
start:
  %other.dbg.spill = alloca ptr, align 8
  %self.dbg.spill = alloca ptr, align 8
  store ptr %self, ptr %self.dbg.spill, align 8
  call void @llvm.dbg.declare(metadata ptr %self.dbg.spill, metadata !303, metadata !DIExpression()), !dbg !305
  store ptr %other, ptr %other.dbg.spill, align 8
  call void @llvm.dbg.declare(metadata ptr %other.dbg.spill, metadata !304, metadata !DIExpression()), !dbg !306
  %_3 = load i16, ptr %self, align 2, !dbg !307
  %_4 = load i16, ptr %other, align 2, !dbg !308
  %0 = icmp ne i16 %_3, %_4, !dbg !307
  ret i1 %0, !dbg !309
}

; core::cmp::impls::<impl core::cmp::PartialEq for u32>::eq
; Function Attrs: inlinehint noredzone nounwind
define internal zeroext i1 @"_ZN4core3cmp5impls54_$LT$impl$u20$core..cmp..PartialEq$u20$for$u20$u32$GT$2eq17h628d0337250a1d5bE"(ptr align 4 %self, ptr align 4 %other) unnamed_addr #0 !dbg !310 {
start:
  %other.dbg.spill = alloca ptr, align 8
  %self.dbg.spill = alloca ptr, align 8
  store ptr %self, ptr %self.dbg.spill, align 8
  call void @llvm.dbg.declare(metadata ptr %self.dbg.spill, metadata !316, metadata !DIExpression()), !dbg !318
  store ptr %other, ptr %other.dbg.spill, align 8
  call void @llvm.dbg.declare(metadata ptr %other.dbg.spill, metadata !317, metadata !DIExpression()), !dbg !319
  %_3 = load i32, ptr %self, align 4, !dbg !320
  %_4 = load i32, ptr %other, align 4, !dbg !321
  %0 = icmp eq i32 %_3, %_4, !dbg !320
  ret i1 %0, !dbg !322
}

; core::cmp::impls::<impl core::cmp::PartialEq for u32>::ne
; Function Attrs: inlinehint noredzone nounwind
define internal zeroext i1 @"_ZN4core3cmp5impls54_$LT$impl$u20$core..cmp..PartialEq$u20$for$u20$u32$GT$2ne17hdb3c36f6fcd28782E"(ptr align 4 %self, ptr align 4 %other) unnamed_addr #0 !dbg !323 {
start:
  %other.dbg.spill = alloca ptr, align 8
  %self.dbg.spill = alloca ptr, align 8
  store ptr %self, ptr %self.dbg.spill, align 8
  call void @llvm.dbg.declare(metadata ptr %self.dbg.spill, metadata !325, metadata !DIExpression()), !dbg !327
  store ptr %other, ptr %other.dbg.spill, align 8
  call void @llvm.dbg.declare(metadata ptr %other.dbg.spill, metadata !326, metadata !DIExpression()), !dbg !328
  %_3 = load i32, ptr %self, align 4, !dbg !329
  %_4 = load i32, ptr %other, align 4, !dbg !330
  %0 = icmp ne i32 %_3, %_4, !dbg !329
  ret i1 %0, !dbg !331
}

; core::cmp::impls::<impl core::cmp::PartialEq for u64>::eq
; Function Attrs: inlinehint noredzone nounwind
define internal zeroext i1 @"_ZN4core3cmp5impls54_$LT$impl$u20$core..cmp..PartialEq$u20$for$u20$u64$GT$2eq17hb4a9908b26756450E"(ptr align 8 %self, ptr align 8 %other) unnamed_addr #0 !dbg !332 {
start:
  %other.dbg.spill = alloca ptr, align 8
  %self.dbg.spill = alloca ptr, align 8
  store ptr %self, ptr %self.dbg.spill, align 8
  call void @llvm.dbg.declare(metadata ptr %self.dbg.spill, metadata !338, metadata !DIExpression()), !dbg !340
  store ptr %other, ptr %other.dbg.spill, align 8
  call void @llvm.dbg.declare(metadata ptr %other.dbg.spill, metadata !339, metadata !DIExpression()), !dbg !341
  %_3 = load i64, ptr %self, align 8, !dbg !342
  %_4 = load i64, ptr %other, align 8, !dbg !343
  %0 = icmp eq i64 %_3, %_4, !dbg !342
  ret i1 %0, !dbg !344
}

; core::cmp::impls::<impl core::cmp::PartialEq for u64>::ne
; Function Attrs: inlinehint noredzone nounwind
define internal zeroext i1 @"_ZN4core3cmp5impls54_$LT$impl$u20$core..cmp..PartialEq$u20$for$u20$u64$GT$2ne17h5b6af75f7732dab1E"(ptr align 8 %self, ptr align 8 %other) unnamed_addr #0 !dbg !345 {
start:
  %other.dbg.spill = alloca ptr, align 8
  %self.dbg.spill = alloca ptr, align 8
  store ptr %self, ptr %self.dbg.spill, align 8
  call void @llvm.dbg.declare(metadata ptr %self.dbg.spill, metadata !347, metadata !DIExpression()), !dbg !349
  store ptr %other, ptr %other.dbg.spill, align 8
  call void @llvm.dbg.declare(metadata ptr %other.dbg.spill, metadata !348, metadata !DIExpression()), !dbg !350
  %_3 = load i64, ptr %self, align 8, !dbg !351
  %_4 = load i64, ptr %other, align 8, !dbg !352
  %0 = icmp ne i64 %_3, %_4, !dbg !351
  ret i1 %0, !dbg !353
}

; core::cmp::impls::<impl core::cmp::PartialEq for u128>::ne
; Function Attrs: inlinehint noredzone nounwind
define internal zeroext i1 @"_ZN4core3cmp5impls55_$LT$impl$u20$core..cmp..PartialEq$u20$for$u20$u128$GT$2ne17h8f4639026335413bE"(ptr align 8 %self, ptr align 8 %other) unnamed_addr #0 !dbg !354 {
start:
  %other.dbg.spill = alloca ptr, align 8
  %self.dbg.spill = alloca ptr, align 8
  store ptr %self, ptr %self.dbg.spill, align 8
  call void @llvm.dbg.declare(metadata ptr %self.dbg.spill, metadata !360, metadata !DIExpression()), !dbg !362
  store ptr %other, ptr %other.dbg.spill, align 8
  call void @llvm.dbg.declare(metadata ptr %other.dbg.spill, metadata !361, metadata !DIExpression()), !dbg !363
  %_3 = load i128, ptr %self, align 8, !dbg !364
  %_4 = load i128, ptr %other, align 8, !dbg !365
  %0 = icmp ne i128 %_3, %_4, !dbg !364
  ret i1 %0, !dbg !366
}

; core::cmp::impls::<impl core::cmp::PartialOrd for i32>::ge
; Function Attrs: inlinehint noredzone nounwind
define internal zeroext i1 @"_ZN4core3cmp5impls55_$LT$impl$u20$core..cmp..PartialOrd$u20$for$u20$i32$GT$2ge17he5a57f68c911dab7E"(ptr align 4 %self, ptr align 4 %other) unnamed_addr #0 !dbg !367 {
start:
  %other.dbg.spill = alloca ptr, align 8
  %self.dbg.spill = alloca ptr, align 8
  store ptr %self, ptr %self.dbg.spill, align 8
  call void @llvm.dbg.declare(metadata ptr %self.dbg.spill, metadata !370, metadata !DIExpression()), !dbg !372
  store ptr %other, ptr %other.dbg.spill, align 8
  call void @llvm.dbg.declare(metadata ptr %other.dbg.spill, metadata !371, metadata !DIExpression()), !dbg !373
  %_3 = load i32, ptr %self, align 4, !dbg !374
  %_4 = load i32, ptr %other, align 4, !dbg !375
  %0 = icmp sge i32 %_3, %_4, !dbg !374
  ret i1 %0, !dbg !376
}

; core::cmp::impls::<impl core::cmp::PartialOrd for i32>::gt
; Function Attrs: inlinehint noredzone nounwind
define internal zeroext i1 @"_ZN4core3cmp5impls55_$LT$impl$u20$core..cmp..PartialOrd$u20$for$u20$i32$GT$2gt17hc0336c7796e8b7a0E"(ptr align 4 %self, ptr align 4 %other) unnamed_addr #0 !dbg !377 {
start:
  %other.dbg.spill = alloca ptr, align 8
  %self.dbg.spill = alloca ptr, align 8
  store ptr %self, ptr %self.dbg.spill, align 8
  call void @llvm.dbg.declare(metadata ptr %self.dbg.spill, metadata !379, metadata !DIExpression()), !dbg !381
  store ptr %other, ptr %other.dbg.spill, align 8
  call void @llvm.dbg.declare(metadata ptr %other.dbg.spill, metadata !380, metadata !DIExpression()), !dbg !382
  %_3 = load i32, ptr %self, align 4, !dbg !383
  %_4 = load i32, ptr %other, align 4, !dbg !384
  %0 = icmp sgt i32 %_3, %_4, !dbg !383
  ret i1 %0, !dbg !385
}

; core::cmp::impls::<impl core::cmp::PartialOrd for i32>::lt
; Function Attrs: inlinehint noredzone nounwind
define internal zeroext i1 @"_ZN4core3cmp5impls55_$LT$impl$u20$core..cmp..PartialOrd$u20$for$u20$i32$GT$2lt17hb71a72e4775e558cE"(ptr align 4 %self, ptr align 4 %other) unnamed_addr #0 !dbg !386 {
start:
  %other.dbg.spill = alloca ptr, align 8
  %self.dbg.spill = alloca ptr, align 8
  store ptr %self, ptr %self.dbg.spill, align 8
  call void @llvm.dbg.declare(metadata ptr %self.dbg.spill, metadata !388, metadata !DIExpression()), !dbg !390
  store ptr %other, ptr %other.dbg.spill, align 8
  call void @llvm.dbg.declare(metadata ptr %other.dbg.spill, metadata !389, metadata !DIExpression()), !dbg !391
  %_3 = load i32, ptr %self, align 4, !dbg !392
  %_4 = load i32, ptr %other, align 4, !dbg !393
  %0 = icmp slt i32 %_3, %_4, !dbg !392
  ret i1 %0, !dbg !394
}

; core::cmp::impls::<impl core::cmp::PartialOrd for i64>::ge
; Function Attrs: inlinehint noredzone nounwind
define internal zeroext i1 @"_ZN4core3cmp5impls55_$LT$impl$u20$core..cmp..PartialOrd$u20$for$u20$i64$GT$2ge17h8a8a482c6f8d603aE"(ptr align 8 %self, ptr align 8 %other) unnamed_addr #0 !dbg !395 {
start:
  %other.dbg.spill = alloca ptr, align 8
  %self.dbg.spill = alloca ptr, align 8
  store ptr %self, ptr %self.dbg.spill, align 8
  call void @llvm.dbg.declare(metadata ptr %self.dbg.spill, metadata !398, metadata !DIExpression()), !dbg !400
  store ptr %other, ptr %other.dbg.spill, align 8
  call void @llvm.dbg.declare(metadata ptr %other.dbg.spill, metadata !399, metadata !DIExpression()), !dbg !401
  %_3 = load i64, ptr %self, align 8, !dbg !402
  %_4 = load i64, ptr %other, align 8, !dbg !403
  %0 = icmp sge i64 %_3, %_4, !dbg !402
  ret i1 %0, !dbg !404
}

; core::cmp::impls::<impl core::cmp::PartialOrd for i64>::gt
; Function Attrs: inlinehint noredzone nounwind
define internal zeroext i1 @"_ZN4core3cmp5impls55_$LT$impl$u20$core..cmp..PartialOrd$u20$for$u20$i64$GT$2gt17h2984934db32b06f5E"(ptr align 8 %self, ptr align 8 %other) unnamed_addr #0 !dbg !405 {
start:
  %other.dbg.spill = alloca ptr, align 8
  %self.dbg.spill = alloca ptr, align 8
  store ptr %self, ptr %self.dbg.spill, align 8
  call void @llvm.dbg.declare(metadata ptr %self.dbg.spill, metadata !407, metadata !DIExpression()), !dbg !409
  store ptr %other, ptr %other.dbg.spill, align 8
  call void @llvm.dbg.declare(metadata ptr %other.dbg.spill, metadata !408, metadata !DIExpression()), !dbg !410
  %_3 = load i64, ptr %self, align 8, !dbg !411
  %_4 = load i64, ptr %other, align 8, !dbg !412
  %0 = icmp sgt i64 %_3, %_4, !dbg !411
  ret i1 %0, !dbg !413
}

; core::cmp::impls::<impl core::cmp::PartialOrd for i64>::lt
; Function Attrs: inlinehint noredzone nounwind
define internal zeroext i1 @"_ZN4core3cmp5impls55_$LT$impl$u20$core..cmp..PartialOrd$u20$for$u20$i64$GT$2lt17hb961a33b8072e368E"(ptr align 8 %self, ptr align 8 %other) unnamed_addr #0 !dbg !414 {
start:
  %other.dbg.spill = alloca ptr, align 8
  %self.dbg.spill = alloca ptr, align 8
  store ptr %self, ptr %self.dbg.spill, align 8
  call void @llvm.dbg.declare(metadata ptr %self.dbg.spill, metadata !416, metadata !DIExpression()), !dbg !418
  store ptr %other, ptr %other.dbg.spill, align 8
  call void @llvm.dbg.declare(metadata ptr %other.dbg.spill, metadata !417, metadata !DIExpression()), !dbg !419
  %_3 = load i64, ptr %self, align 8, !dbg !420
  %_4 = load i64, ptr %other, align 8, !dbg !421
  %0 = icmp slt i64 %_3, %_4, !dbg !420
  ret i1 %0, !dbg !422
}

; core::cmp::impls::<impl core::cmp::PartialOrd for u32>::ge
; Function Attrs: inlinehint noredzone nounwind
define internal zeroext i1 @"_ZN4core3cmp5impls55_$LT$impl$u20$core..cmp..PartialOrd$u20$for$u20$u32$GT$2ge17h59fb18833fdbb7aaE"(ptr align 4 %self, ptr align 4 %other) unnamed_addr #0 !dbg !423 {
start:
  %other.dbg.spill = alloca ptr, align 8
  %self.dbg.spill = alloca ptr, align 8
  store ptr %self, ptr %self.dbg.spill, align 8
  call void @llvm.dbg.declare(metadata ptr %self.dbg.spill, metadata !426, metadata !DIExpression()), !dbg !428
  store ptr %other, ptr %other.dbg.spill, align 8
  call void @llvm.dbg.declare(metadata ptr %other.dbg.spill, metadata !427, metadata !DIExpression()), !dbg !429
  %_3 = load i32, ptr %self, align 4, !dbg !430
  %_4 = load i32, ptr %other, align 4, !dbg !431
  %0 = icmp uge i32 %_3, %_4, !dbg !430
  ret i1 %0, !dbg !432
}

; core::cmp::impls::<impl core::cmp::PartialOrd for u32>::gt
; Function Attrs: inlinehint noredzone nounwind
define internal zeroext i1 @"_ZN4core3cmp5impls55_$LT$impl$u20$core..cmp..PartialOrd$u20$for$u20$u32$GT$2gt17hd5e2a9c9be00246cE"(ptr align 4 %self, ptr align 4 %other) unnamed_addr #0 !dbg !433 {
start:
  %other.dbg.spill = alloca ptr, align 8
  %self.dbg.spill = alloca ptr, align 8
  store ptr %self, ptr %self.dbg.spill, align 8
  call void @llvm.dbg.declare(metadata ptr %self.dbg.spill, metadata !435, metadata !DIExpression()), !dbg !437
  store ptr %other, ptr %other.dbg.spill, align 8
  call void @llvm.dbg.declare(metadata ptr %other.dbg.spill, metadata !436, metadata !DIExpression()), !dbg !438
  %_3 = load i32, ptr %self, align 4, !dbg !439
  %_4 = load i32, ptr %other, align 4, !dbg !440
  %0 = icmp ugt i32 %_3, %_4, !dbg !439
  ret i1 %0, !dbg !441
}

; core::cmp::impls::<impl core::cmp::PartialOrd for u32>::lt
; Function Attrs: inlinehint noredzone nounwind
define internal zeroext i1 @"_ZN4core3cmp5impls55_$LT$impl$u20$core..cmp..PartialOrd$u20$for$u20$u32$GT$2lt17hb95ebb29613a89bcE"(ptr align 4 %self, ptr align 4 %other) unnamed_addr #0 !dbg !442 {
start:
  %other.dbg.spill = alloca ptr, align 8
  %self.dbg.spill = alloca ptr, align 8
  store ptr %self, ptr %self.dbg.spill, align 8
  call void @llvm.dbg.declare(metadata ptr %self.dbg.spill, metadata !444, metadata !DIExpression()), !dbg !446
  store ptr %other, ptr %other.dbg.spill, align 8
  call void @llvm.dbg.declare(metadata ptr %other.dbg.spill, metadata !445, metadata !DIExpression()), !dbg !447
  %_3 = load i32, ptr %self, align 4, !dbg !448
  %_4 = load i32, ptr %other, align 4, !dbg !449
  %0 = icmp ult i32 %_3, %_4, !dbg !448
  ret i1 %0, !dbg !450
}

; core::cmp::impls::<impl core::cmp::PartialOrd for u64>::ge
; Function Attrs: inlinehint noredzone nounwind
define internal zeroext i1 @"_ZN4core3cmp5impls55_$LT$impl$u20$core..cmp..PartialOrd$u20$for$u20$u64$GT$2ge17hb39d1bc948132581E"(ptr align 8 %self, ptr align 8 %other) unnamed_addr #0 !dbg !451 {
start:
  %other.dbg.spill = alloca ptr, align 8
  %self.dbg.spill = alloca ptr, align 8
  store ptr %self, ptr %self.dbg.spill, align 8
  call void @llvm.dbg.declare(metadata ptr %self.dbg.spill, metadata !454, metadata !DIExpression()), !dbg !456
  store ptr %other, ptr %other.dbg.spill, align 8
  call void @llvm.dbg.declare(metadata ptr %other.dbg.spill, metadata !455, metadata !DIExpression()), !dbg !457
  %_3 = load i64, ptr %self, align 8, !dbg !458
  %_4 = load i64, ptr %other, align 8, !dbg !459
  %0 = icmp uge i64 %_3, %_4, !dbg !458
  ret i1 %0, !dbg !460
}

; core::cmp::impls::<impl core::cmp::PartialOrd for u64>::gt
; Function Attrs: inlinehint noredzone nounwind
define internal zeroext i1 @"_ZN4core3cmp5impls55_$LT$impl$u20$core..cmp..PartialOrd$u20$for$u20$u64$GT$2gt17h104cd5c38d58a6afE"(ptr align 8 %self, ptr align 8 %other) unnamed_addr #0 !dbg !461 {
start:
  %other.dbg.spill = alloca ptr, align 8
  %self.dbg.spill = alloca ptr, align 8
  store ptr %self, ptr %self.dbg.spill, align 8
  call void @llvm.dbg.declare(metadata ptr %self.dbg.spill, metadata !463, metadata !DIExpression()), !dbg !465
  store ptr %other, ptr %other.dbg.spill, align 8
  call void @llvm.dbg.declare(metadata ptr %other.dbg.spill, metadata !464, metadata !DIExpression()), !dbg !466
  %_3 = load i64, ptr %self, align 8, !dbg !467
  %_4 = load i64, ptr %other, align 8, !dbg !468
  %0 = icmp ugt i64 %_3, %_4, !dbg !467
  ret i1 %0, !dbg !469
}

; core::cmp::impls::<impl core::cmp::PartialOrd for u64>::lt
; Function Attrs: inlinehint noredzone nounwind
define internal zeroext i1 @"_ZN4core3cmp5impls55_$LT$impl$u20$core..cmp..PartialOrd$u20$for$u20$u64$GT$2lt17hd17f7ea06781013dE"(ptr align 8 %self, ptr align 8 %other) unnamed_addr #0 !dbg !470 {
start:
  %other.dbg.spill = alloca ptr, align 8
  %self.dbg.spill = alloca ptr, align 8
  store ptr %self, ptr %self.dbg.spill, align 8
  call void @llvm.dbg.declare(metadata ptr %self.dbg.spill, metadata !472, metadata !DIExpression()), !dbg !474
  store ptr %other, ptr %other.dbg.spill, align 8
  call void @llvm.dbg.declare(metadata ptr %other.dbg.spill, metadata !473, metadata !DIExpression()), !dbg !475
  %_3 = load i64, ptr %self, align 8, !dbg !476
  %_4 = load i64, ptr %other, align 8, !dbg !477
  %0 = icmp ult i64 %_3, %_4, !dbg !476
  ret i1 %0, !dbg !478
}

; core::cmp::impls::<impl core::cmp::PartialOrd for i128>::lt
; Function Attrs: inlinehint noredzone nounwind
define internal zeroext i1 @"_ZN4core3cmp5impls56_$LT$impl$u20$core..cmp..PartialOrd$u20$for$u20$i128$GT$2lt17h7c4b3eeb1f5a83ccE"(ptr align 8 %self, ptr align 8 %other) unnamed_addr #0 !dbg !479 {
start:
  %other.dbg.spill = alloca ptr, align 8
  %self.dbg.spill = alloca ptr, align 8
  store ptr %self, ptr %self.dbg.spill, align 8
  call void @llvm.dbg.declare(metadata ptr %self.dbg.spill, metadata !486, metadata !DIExpression()), !dbg !488
  store ptr %other, ptr %other.dbg.spill, align 8
  call void @llvm.dbg.declare(metadata ptr %other.dbg.spill, metadata !487, metadata !DIExpression()), !dbg !489
  %_3 = load i128, ptr %self, align 8, !dbg !490
  %_4 = load i128, ptr %other, align 8, !dbg !491
  %0 = icmp slt i128 %_3, %_4, !dbg !490
  ret i1 %0, !dbg !492
}

; core::cmp::impls::<impl core::cmp::PartialOrd for u128>::lt
; Function Attrs: inlinehint noredzone nounwind
define internal zeroext i1 @"_ZN4core3cmp5impls56_$LT$impl$u20$core..cmp..PartialOrd$u20$for$u20$u128$GT$2lt17h127b4df8646e2827E"(ptr align 8 %self, ptr align 8 %other) unnamed_addr #0 !dbg !493 {
start:
  %other.dbg.spill = alloca ptr, align 8
  %self.dbg.spill = alloca ptr, align 8
  store ptr %self, ptr %self.dbg.spill, align 8
  call void @llvm.dbg.declare(metadata ptr %self.dbg.spill, metadata !496, metadata !DIExpression()), !dbg !498
  store ptr %other, ptr %other.dbg.spill, align 8
  call void @llvm.dbg.declare(metadata ptr %other.dbg.spill, metadata !497, metadata !DIExpression()), !dbg !499
  %_3 = load i128, ptr %self, align 8, !dbg !500
  %_4 = load i128, ptr %other, align 8, !dbg !501
  %0 = icmp ult i128 %_3, %_4, !dbg !500
  ret i1 %0, !dbg !502
}

; core::f32::<impl f32>::is_sign_negative
; Function Attrs: inlinehint noredzone nounwind
define internal zeroext i1 @"_ZN4core3f3221_$LT$impl$u20$f32$GT$16is_sign_negative17h8857e7b58fcd9fcbE"(float %self) unnamed_addr #0 !dbg !503 {
start:
  %0 = alloca i32, align 4
  %self.dbg.spill = alloca float, align 4
  store float %self, ptr %self.dbg.spill, align 4
  call void @llvm.dbg.declare(metadata ptr %self.dbg.spill, metadata !510, metadata !DIExpression()), !dbg !511
  %1 = bitcast float %self to i32, !dbg !512
  store i32 %1, ptr %0, align 4, !dbg !512
  %_3 = load i32, ptr %0, align 4, !dbg !512
  %_2 = and i32 %_3, -2147483648, !dbg !512
  %2 = icmp ne i32 %_2, 0, !dbg !512
  ret i1 %2, !dbg !513
}

; core::f32::<impl f32>::is_nan
; Function Attrs: inlinehint noredzone nounwind
define internal zeroext i1 @"_ZN4core3f3221_$LT$impl$u20$f32$GT$6is_nan17h68cff3f03c829029E"(float %self) unnamed_addr #0 !dbg !514 {
start:
  %self.dbg.spill = alloca float, align 4
  store float %self, ptr %self.dbg.spill, align 4
  call void @llvm.dbg.declare(metadata ptr %self.dbg.spill, metadata !516, metadata !DIExpression()), !dbg !517
  %0 = fcmp une float %self, %self, !dbg !518
  ret i1 %0, !dbg !519
}

; core::f32::<impl f32>::to_bits
; Function Attrs: inlinehint noredzone nounwind
define internal i32 @"_ZN4core3f3221_$LT$impl$u20$f32$GT$7to_bits17h4ee47c61a953ee7bE"(float %self) unnamed_addr #0 !dbg !520 {
start:
  %0 = alloca i32, align 4
  %x.dbg.spill.i = alloca float, align 4
  %self.dbg.spill = alloca float, align 4
  %_2 = alloca float, align 4
  store float %self, ptr %self.dbg.spill, align 4
  call void @llvm.dbg.declare(metadata ptr %self.dbg.spill, metadata !524, metadata !DIExpression()), !dbg !525
  store float %self, ptr %_2, align 4, !dbg !526
  %1 = load float, ptr %_2, align 4, !dbg !527
  store float %1, ptr %x.dbg.spill.i, align 4
  call void @llvm.dbg.declare(metadata ptr %x.dbg.spill.i, metadata !528, metadata !DIExpression()), !dbg !532
  %2 = bitcast float %1 to i32, !dbg !534
  store i32 %2, ptr %0, align 4, !dbg !534
  %3 = load i32, ptr %0, align 4, !dbg !534
  ret i32 %3, !dbg !535
}

; core::f32::<impl f32>::from_bits
; Function Attrs: inlinehint noredzone nounwind
define internal float @"_ZN4core3f3221_$LT$impl$u20$f32$GT$9from_bits17hbe705c4259aef2c0E"(i32 %v) unnamed_addr #0 !dbg !536 {
start:
  %0 = alloca float, align 4
  %x.dbg.spill.i = alloca i32, align 4
  %v.dbg.spill = alloca i32, align 4
  %_2 = alloca i32, align 4
  store i32 %v, ptr %v.dbg.spill, align 4
  call void @llvm.dbg.declare(metadata ptr %v.dbg.spill, metadata !540, metadata !DIExpression()), !dbg !541
  store i32 %v, ptr %_2, align 4, !dbg !542
  %1 = load i32, ptr %_2, align 4, !dbg !543
  store i32 %1, ptr %x.dbg.spill.i, align 4
  call void @llvm.dbg.declare(metadata ptr %x.dbg.spill.i, metadata !544, metadata !DIExpression()), !dbg !548
  %2 = bitcast i32 %1 to float, !dbg !550
  store float %2, ptr %0, align 4, !dbg !550
  %3 = load float, ptr %0, align 4, !dbg !550
  ret float %3, !dbg !551
}

; core::f64::<impl f64>::is_sign_negative
; Function Attrs: inlinehint noredzone nounwind
define internal zeroext i1 @"_ZN4core3f6421_$LT$impl$u20$f64$GT$16is_sign_negative17hf9c90e60d7c0d3c9E"(double %self) unnamed_addr #0 !dbg !552 {
start:
  %0 = alloca i64, align 8
  %self.dbg.spill = alloca double, align 8
  store double %self, ptr %self.dbg.spill, align 8
  call void @llvm.dbg.declare(metadata ptr %self.dbg.spill, metadata !559, metadata !DIExpression()), !dbg !560
  %1 = bitcast double %self to i64, !dbg !561
  store i64 %1, ptr %0, align 8, !dbg !561
  %_3 = load i64, ptr %0, align 8, !dbg !561
  %_2 = and i64 %_3, -9223372036854775808, !dbg !561
  %2 = icmp ne i64 %_2, 0, !dbg !561
  ret i1 %2, !dbg !562
}

; core::f64::<impl f64>::is_nan
; Function Attrs: inlinehint noredzone nounwind
define internal zeroext i1 @"_ZN4core3f6421_$LT$impl$u20$f64$GT$6is_nan17h5aa895ef67ca6514E"(double %self) unnamed_addr #0 !dbg !563 {
start:
  %self.dbg.spill = alloca double, align 8
  store double %self, ptr %self.dbg.spill, align 8
  call void @llvm.dbg.declare(metadata ptr %self.dbg.spill, metadata !565, metadata !DIExpression()), !dbg !566
  %0 = fcmp une double %self, %self, !dbg !567
  ret i1 %0, !dbg !568
}

; core::f64::<impl f64>::to_bits
; Function Attrs: inlinehint noredzone nounwind
define internal i64 @"_ZN4core3f6421_$LT$impl$u20$f64$GT$7to_bits17h8fbc80d018efe478E"(double %self) unnamed_addr #0 !dbg !569 {
start:
  %0 = alloca i64, align 8
  %rt.dbg.spill.i = alloca double, align 8
  %self.dbg.spill = alloca double, align 8
  %_2 = alloca double, align 8
  store double %self, ptr %self.dbg.spill, align 8
  call void @llvm.dbg.declare(metadata ptr %self.dbg.spill, metadata !573, metadata !DIExpression()), !dbg !574
  store double %self, ptr %_2, align 8, !dbg !575
  %1 = load double, ptr %_2, align 8, !dbg !576
  store double %1, ptr %rt.dbg.spill.i, align 8
  call void @llvm.dbg.declare(metadata ptr %rt.dbg.spill.i, metadata !577, metadata !DIExpression()), !dbg !581
  %2 = bitcast double %1 to i64, !dbg !583
  store i64 %2, ptr %0, align 8, !dbg !583
  %3 = load i64, ptr %0, align 8, !dbg !583
  ret i64 %3, !dbg !584
}

; core::f64::<impl f64>::from_bits
; Function Attrs: inlinehint noredzone nounwind
define internal double @"_ZN4core3f6421_$LT$impl$u20$f64$GT$9from_bits17hc5540d705cf98825E"(i64 %v) unnamed_addr #0 !dbg !585 {
start:
  %0 = alloca double, align 8
  %rt.dbg.spill.i = alloca i64, align 8
  %v.dbg.spill = alloca i64, align 8
  %_2 = alloca i64, align 8
  store i64 %v, ptr %v.dbg.spill, align 8
  call void @llvm.dbg.declare(metadata ptr %v.dbg.spill, metadata !589, metadata !DIExpression()), !dbg !590
  store i64 %v, ptr %_2, align 8, !dbg !591
  %1 = load i64, ptr %_2, align 8, !dbg !592
  store i64 %1, ptr %rt.dbg.spill.i, align 8
  call void @llvm.dbg.declare(metadata ptr %rt.dbg.spill.i, metadata !593, metadata !DIExpression()), !dbg !597
  %2 = bitcast i64 %1 to double, !dbg !599
  store double %2, ptr %0, align 8, !dbg !599
  %3 = load double, ptr %0, align 8, !dbg !599
  ret double %3, !dbg !600
}

; core::num::<impl i8>::wrapping_abs
; Function Attrs: inlinehint noredzone nounwind
define internal i8 @"_ZN4core3num20_$LT$impl$u20$i8$GT$12wrapping_abs17h081ab7bc36036858E"(i8 %self) unnamed_addr #0 !dbg !601 {
start:
  %rhs.dbg.spill.i = alloca i8, align 1
  %self.dbg.spill.i2 = alloca i8, align 1
  %self.dbg.spill.i1 = alloca i8, align 1
  %self.dbg.spill.i = alloca i8, align 1
  %self.dbg.spill = alloca i8, align 1
  %0 = alloca i8, align 1
  store i8 %self, ptr %self.dbg.spill, align 1
  call void @llvm.dbg.declare(metadata ptr %self.dbg.spill, metadata !609, metadata !DIExpression()), !dbg !610
  store i8 %self, ptr %self.dbg.spill.i, align 1
  call void @llvm.dbg.declare(metadata ptr %self.dbg.spill.i, metadata !611, metadata !DIExpression()), !dbg !616
  %1 = icmp slt i8 %self, 0, !dbg !618
  br i1 %1, label %bb2, label %bb3, !dbg !619

bb3:                                              ; preds = %start
  store i8 %self, ptr %0, align 1, !dbg !620
  br label %bb4, !dbg !621

bb2:                                              ; preds = %start
  store i8 %self, ptr %self.dbg.spill.i1, align 1
  call void @llvm.dbg.declare(metadata ptr %self.dbg.spill.i1, metadata !622, metadata !DIExpression()), !dbg !625
  store i8 0, ptr %self.dbg.spill.i2, align 1
  call void @llvm.dbg.declare(metadata ptr %self.dbg.spill.i2, metadata !627, metadata !DIExpression()), !dbg !633
  store i8 %self, ptr %rhs.dbg.spill.i, align 1
  call void @llvm.dbg.declare(metadata ptr %rhs.dbg.spill.i, metadata !632, metadata !DIExpression()), !dbg !635
  %2 = sub i8 0, %self, !dbg !636
  store i8 %2, ptr %0, align 1, !dbg !637
  br label %bb4, !dbg !637

bb4:                                              ; preds = %bb3, %bb2
  %3 = load i8, ptr %0, align 1, !dbg !638
  ret i8 %3, !dbg !638
}

; core::num::<impl i16>::wrapping_abs
; Function Attrs: inlinehint noredzone nounwind
define internal i16 @"_ZN4core3num21_$LT$impl$u20$i16$GT$12wrapping_abs17h17eed6b04fc17473E"(i16 %self) unnamed_addr #0 !dbg !639 {
start:
  %rhs.dbg.spill.i = alloca i16, align 2
  %self.dbg.spill.i2 = alloca i16, align 2
  %self.dbg.spill.i1 = alloca i16, align 2
  %self.dbg.spill.i = alloca i16, align 2
  %self.dbg.spill = alloca i16, align 2
  %0 = alloca i16, align 2
  store i16 %self, ptr %self.dbg.spill, align 2
  call void @llvm.dbg.declare(metadata ptr %self.dbg.spill, metadata !644, metadata !DIExpression()), !dbg !645
  store i16 %self, ptr %self.dbg.spill.i, align 2
  call void @llvm.dbg.declare(metadata ptr %self.dbg.spill.i, metadata !646, metadata !DIExpression()), !dbg !651
  %1 = icmp slt i16 %self, 0, !dbg !653
  br i1 %1, label %bb2, label %bb3, !dbg !654

bb3:                                              ; preds = %start
  store i16 %self, ptr %0, align 2, !dbg !655
  br label %bb4, !dbg !656

bb2:                                              ; preds = %start
  store i16 %self, ptr %self.dbg.spill.i1, align 2
  call void @llvm.dbg.declare(metadata ptr %self.dbg.spill.i1, metadata !657, metadata !DIExpression()), !dbg !660
  store i16 0, ptr %self.dbg.spill.i2, align 2
  call void @llvm.dbg.declare(metadata ptr %self.dbg.spill.i2, metadata !662, metadata !DIExpression()), !dbg !666
  store i16 %self, ptr %rhs.dbg.spill.i, align 2
  call void @llvm.dbg.declare(metadata ptr %rhs.dbg.spill.i, metadata !665, metadata !DIExpression()), !dbg !668
  %2 = sub i16 0, %self, !dbg !669
  store i16 %2, ptr %0, align 2, !dbg !670
  br label %bb4, !dbg !670

bb4:                                              ; preds = %bb3, %bb2
  %3 = load i16, ptr %0, align 2, !dbg !671
  ret i16 %3, !dbg !671
}

; core::num::<impl i32>::unsigned_abs
; Function Attrs: inlinehint noredzone nounwind
define internal i32 @"_ZN4core3num21_$LT$impl$u20$i32$GT$12unsigned_abs17hf2e02d5b650a1d9aE"(i32 %self) unnamed_addr #0 !dbg !672 {
start:
  %self.dbg.spill = alloca i32, align 4
  store i32 %self, ptr %self.dbg.spill, align 4
  call void @llvm.dbg.declare(metadata ptr %self.dbg.spill, metadata !677, metadata !DIExpression()), !dbg !678
; call core::num::<impl i32>::wrapping_abs
  %_2 = call i32 @"_ZN4core3num21_$LT$impl$u20$i32$GT$12wrapping_abs17h7e26271b17f74a4bE"(i32 %self) #8, !dbg !679
  ret i32 %_2, !dbg !680
}

; core::num::<impl i32>::wrapping_abs
; Function Attrs: inlinehint noredzone nounwind
define internal i32 @"_ZN4core3num21_$LT$impl$u20$i32$GT$12wrapping_abs17h7e26271b17f74a4bE"(i32 %self) unnamed_addr #0 !dbg !681 {
start:
  %rhs.dbg.spill.i = alloca i32, align 4
  %self.dbg.spill.i2 = alloca i32, align 4
  %self.dbg.spill.i1 = alloca i32, align 4
  %self.dbg.spill.i = alloca i32, align 4
  %self.dbg.spill = alloca i32, align 4
  %0 = alloca i32, align 4
  store i32 %self, ptr %self.dbg.spill, align 4
  call void @llvm.dbg.declare(metadata ptr %self.dbg.spill, metadata !685, metadata !DIExpression()), !dbg !686
  store i32 %self, ptr %self.dbg.spill.i, align 4
  call void @llvm.dbg.declare(metadata ptr %self.dbg.spill.i, metadata !687, metadata !DIExpression()), !dbg !692
  %1 = icmp slt i32 %self, 0, !dbg !694
  br i1 %1, label %bb2, label %bb3, !dbg !695

bb3:                                              ; preds = %start
  store i32 %self, ptr %0, align 4, !dbg !696
  br label %bb4, !dbg !697

bb2:                                              ; preds = %start
  store i32 %self, ptr %self.dbg.spill.i1, align 4
  call void @llvm.dbg.declare(metadata ptr %self.dbg.spill.i1, metadata !698, metadata !DIExpression()), !dbg !701
  store i32 0, ptr %self.dbg.spill.i2, align 4
  call void @llvm.dbg.declare(metadata ptr %self.dbg.spill.i2, metadata !703, metadata !DIExpression()), !dbg !707
  store i32 %self, ptr %rhs.dbg.spill.i, align 4
  call void @llvm.dbg.declare(metadata ptr %rhs.dbg.spill.i, metadata !706, metadata !DIExpression()), !dbg !709
  %2 = sub i32 0, %self, !dbg !710
  store i32 %2, ptr %0, align 4, !dbg !711
  br label %bb4, !dbg !711

bb4:                                              ; preds = %bb3, %bb2
  %3 = load i32, ptr %0, align 4, !dbg !712
  ret i32 %3, !dbg !712
}

; core::num::<impl i64>::unsigned_abs
; Function Attrs: inlinehint noredzone nounwind
define internal i64 @"_ZN4core3num21_$LT$impl$u20$i64$GT$12unsigned_abs17he1c6c5c486d6308eE"(i64 %self) unnamed_addr #0 !dbg !713 {
start:
  %self.dbg.spill = alloca i64, align 8
  store i64 %self, ptr %self.dbg.spill, align 8
  call void @llvm.dbg.declare(metadata ptr %self.dbg.spill, metadata !718, metadata !DIExpression()), !dbg !719
; call core::num::<impl i64>::wrapping_abs
  %_2 = call i64 @"_ZN4core3num21_$LT$impl$u20$i64$GT$12wrapping_abs17hd98930c92fba6109E"(i64 %self) #8, !dbg !720
  ret i64 %_2, !dbg !721
}

; core::num::<impl i64>::wrapping_abs
; Function Attrs: inlinehint noredzone nounwind
define internal i64 @"_ZN4core3num21_$LT$impl$u20$i64$GT$12wrapping_abs17hd98930c92fba6109E"(i64 %self) unnamed_addr #0 !dbg !722 {
start:
  %rhs.dbg.spill.i = alloca i64, align 8
  %self.dbg.spill.i2 = alloca i64, align 8
  %self.dbg.spill.i1 = alloca i64, align 8
  %self.dbg.spill.i = alloca i64, align 8
  %self.dbg.spill = alloca i64, align 8
  %0 = alloca i64, align 8
  store i64 %self, ptr %self.dbg.spill, align 8
  call void @llvm.dbg.declare(metadata ptr %self.dbg.spill, metadata !726, metadata !DIExpression()), !dbg !727
  store i64 %self, ptr %self.dbg.spill.i, align 8
  call void @llvm.dbg.declare(metadata ptr %self.dbg.spill.i, metadata !728, metadata !DIExpression()), !dbg !733
  %1 = icmp slt i64 %self, 0, !dbg !735
  br i1 %1, label %bb2, label %bb3, !dbg !736

bb3:                                              ; preds = %start
  store i64 %self, ptr %0, align 8, !dbg !737
  br label %bb4, !dbg !738

bb2:                                              ; preds = %start
  store i64 %self, ptr %self.dbg.spill.i1, align 8
  call void @llvm.dbg.declare(metadata ptr %self.dbg.spill.i1, metadata !739, metadata !DIExpression()), !dbg !742
  store i64 0, ptr %self.dbg.spill.i2, align 8
  call void @llvm.dbg.declare(metadata ptr %self.dbg.spill.i2, metadata !744, metadata !DIExpression()), !dbg !748
  store i64 %self, ptr %rhs.dbg.spill.i, align 8
  call void @llvm.dbg.declare(metadata ptr %rhs.dbg.spill.i, metadata !747, metadata !DIExpression()), !dbg !750
  %2 = sub i64 0, %self, !dbg !751
  store i64 %2, ptr %0, align 8, !dbg !752
  br label %bb4, !dbg !752

bb4:                                              ; preds = %bb3, %bb2
  %3 = load i64, ptr %0, align 8, !dbg !753
  ret i64 %3, !dbg !753
}

; core::num::<impl u64>::checked_div
; Function Attrs: inlinehint noredzone nounwind
define internal { i64, i64 } @"_ZN4core3num21_$LT$impl$u20$u64$GT$11checked_div17had8cb6821cbb37a3E"(i64 %self, i64 %rhs) unnamed_addr #0 !dbg !754 {
start:
  %0 = alloca i64, align 8
  %1 = alloca i8, align 1
  %rhs.dbg.spill = alloca i64, align 8
  %self.dbg.spill = alloca i64, align 8
  %2 = alloca { i64, i64 }, align 8
  store i64 %self, ptr %self.dbg.spill, align 8
  call void @llvm.dbg.declare(metadata ptr %self.dbg.spill, metadata !774, metadata !DIExpression()), !dbg !776
  store i64 %rhs, ptr %rhs.dbg.spill, align 8
  call void @llvm.dbg.declare(metadata ptr %rhs.dbg.spill, metadata !775, metadata !DIExpression()), !dbg !777
  %_4 = icmp eq i64 %rhs, 0, !dbg !778
  %3 = call i1 @llvm.expect.i1(i1 %_4, i1 false), !dbg !779
  %4 = zext i1 %3 to i8, !dbg !779
  store i8 %4, ptr %1, align 1, !dbg !779
  %5 = load i8, ptr %1, align 1, !dbg !779, !range !780, !noundef !55
  %_3 = trunc i8 %5 to i1, !dbg !779
  br i1 %_3, label %bb2, label %bb3, !dbg !779

bb3:                                              ; preds = %start
  %6 = udiv i64 %self, %rhs, !dbg !781
  store i64 %6, ptr %0, align 8, !dbg !781
  %_6 = load i64, ptr %0, align 8, !dbg !781
  %7 = getelementptr inbounds { i64, i64 }, ptr %2, i32 0, i32 1, !dbg !782
  store i64 %_6, ptr %7, align 8, !dbg !782
  store i64 1, ptr %2, align 8, !dbg !782
  br label %bb5, !dbg !783

bb2:                                              ; preds = %start
  store i64 0, ptr %2, align 8, !dbg !784
  br label %bb5, !dbg !783

bb5:                                              ; preds = %bb3, %bb2
  %8 = getelementptr inbounds { i64, i64 }, ptr %2, i32 0, i32 0, !dbg !785
  %9 = load i64, ptr %8, align 8, !dbg !785, !range !786, !noundef !55
  %10 = getelementptr inbounds { i64, i64 }, ptr %2, i32 0, i32 1, !dbg !785
  %11 = load i64, ptr %10, align 8, !dbg !785
  %12 = insertvalue { i64, i64 } undef, i64 %9, 0, !dbg !785
  %13 = insertvalue { i64, i64 } %12, i64 %11, 1, !dbg !785
  ret { i64, i64 } %13, !dbg !785
}

; core::num::<impl u64>::checked_rem
; Function Attrs: inlinehint noredzone nounwind
define internal { i64, i64 } @"_ZN4core3num21_$LT$impl$u20$u64$GT$11checked_rem17h350fcc4675ff514aE"(i64 %self, i64 %rhs) unnamed_addr #0 !dbg !787 {
start:
  %0 = alloca i64, align 8
  %1 = alloca i8, align 1
  %rhs.dbg.spill = alloca i64, align 8
  %self.dbg.spill = alloca i64, align 8
  %2 = alloca { i64, i64 }, align 8
  store i64 %self, ptr %self.dbg.spill, align 8
  call void @llvm.dbg.declare(metadata ptr %self.dbg.spill, metadata !789, metadata !DIExpression()), !dbg !791
  store i64 %rhs, ptr %rhs.dbg.spill, align 8
  call void @llvm.dbg.declare(metadata ptr %rhs.dbg.spill, metadata !790, metadata !DIExpression()), !dbg !792
  %_4 = icmp eq i64 %rhs, 0, !dbg !793
  %3 = call i1 @llvm.expect.i1(i1 %_4, i1 false), !dbg !794
  %4 = zext i1 %3 to i8, !dbg !794
  store i8 %4, ptr %1, align 1, !dbg !794
  %5 = load i8, ptr %1, align 1, !dbg !794, !range !780, !noundef !55
  %_3 = trunc i8 %5 to i1, !dbg !794
  br i1 %_3, label %bb2, label %bb3, !dbg !794

bb3:                                              ; preds = %start
  %6 = urem i64 %self, %rhs, !dbg !795
  store i64 %6, ptr %0, align 8, !dbg !795
  %_6 = load i64, ptr %0, align 8, !dbg !795
  %7 = getelementptr inbounds { i64, i64 }, ptr %2, i32 0, i32 1, !dbg !796
  store i64 %_6, ptr %7, align 8, !dbg !796
  store i64 1, ptr %2, align 8, !dbg !796
  br label %bb5, !dbg !797

bb2:                                              ; preds = %start
  store i64 0, ptr %2, align 8, !dbg !798
  br label %bb5, !dbg !797

bb5:                                              ; preds = %bb3, %bb2
  %8 = getelementptr inbounds { i64, i64 }, ptr %2, i32 0, i32 0, !dbg !799
  %9 = load i64, ptr %8, align 8, !dbg !799, !range !786, !noundef !55
  %10 = getelementptr inbounds { i64, i64 }, ptr %2, i32 0, i32 1, !dbg !799
  %11 = load i64, ptr %10, align 8, !dbg !799
  %12 = insertvalue { i64, i64 } undef, i64 %9, 0, !dbg !799
  %13 = insertvalue { i64, i64 } %12, i64 %11, 1, !dbg !799
  ret { i64, i64 } %13, !dbg !799
}

; core::num::<impl i128>::unsigned_abs
; Function Attrs: inlinehint noredzone nounwind
define internal i128 @"_ZN4core3num22_$LT$impl$u20$i128$GT$12unsigned_abs17hb3eabe1a6b0467e3E"(i128 %self) unnamed_addr #0 !dbg !800 {
start:
  %self.dbg.spill = alloca i128, align 8
  store i128 %self, ptr %self.dbg.spill, align 8
  call void @llvm.dbg.declare(metadata ptr %self.dbg.spill, metadata !805, metadata !DIExpression()), !dbg !806
; call core::num::<impl i128>::wrapping_abs
  %_2 = call i128 @"_ZN4core3num22_$LT$impl$u20$i128$GT$12wrapping_abs17hd5a6a7f9c74c67d9E"(i128 %self) #8, !dbg !807
  ret i128 %_2, !dbg !808
}

; core::num::<impl i128>::wrapping_abs
; Function Attrs: inlinehint noredzone nounwind
define internal i128 @"_ZN4core3num22_$LT$impl$u20$i128$GT$12wrapping_abs17hd5a6a7f9c74c67d9E"(i128 %self) unnamed_addr #0 !dbg !809 {
start:
  %rhs.dbg.spill.i = alloca i128, align 8
  %self.dbg.spill.i2 = alloca i128, align 8
  %self.dbg.spill.i1 = alloca i128, align 8
  %self.dbg.spill.i = alloca i128, align 8
  %self.dbg.spill = alloca i128, align 8
  %0 = alloca i128, align 8
  store i128 %self, ptr %self.dbg.spill, align 8
  call void @llvm.dbg.declare(metadata ptr %self.dbg.spill, metadata !813, metadata !DIExpression()), !dbg !814
  store i128 %self, ptr %self.dbg.spill.i, align 8
  call void @llvm.dbg.declare(metadata ptr %self.dbg.spill.i, metadata !815, metadata !DIExpression()), !dbg !820
  %1 = icmp slt i128 %self, 0, !dbg !822
  br i1 %1, label %bb2, label %bb3, !dbg !823

bb3:                                              ; preds = %start
  store i128 %self, ptr %0, align 8, !dbg !824
  br label %bb4, !dbg !825

bb2:                                              ; preds = %start
  store i128 %self, ptr %self.dbg.spill.i1, align 8
  call void @llvm.dbg.declare(metadata ptr %self.dbg.spill.i1, metadata !826, metadata !DIExpression()), !dbg !829
  store i128 0, ptr %self.dbg.spill.i2, align 8
  call void @llvm.dbg.declare(metadata ptr %self.dbg.spill.i2, metadata !831, metadata !DIExpression()), !dbg !837
  store i128 %self, ptr %rhs.dbg.spill.i, align 8
  call void @llvm.dbg.declare(metadata ptr %rhs.dbg.spill.i, metadata !836, metadata !DIExpression()), !dbg !839
  %2 = sub i128 0, %self, !dbg !840
  store i128 %2, ptr %0, align 8, !dbg !841
  br label %bb4, !dbg !841

bb4:                                              ; preds = %bb3, %bb2
  %3 = load i128, ptr %0, align 8, !dbg !842
  ret i128 %3, !dbg !842
}

; core::num::<impl isize>::wrapping_abs
; Function Attrs: inlinehint noredzone nounwind
define internal i64 @"_ZN4core3num23_$LT$impl$u20$isize$GT$12wrapping_abs17h4b142367cfea1bc9E"(i64 %self) unnamed_addr #0 !dbg !843 {
start:
  %rhs.dbg.spill.i = alloca i64, align 8
  %self.dbg.spill.i2 = alloca i64, align 8
  %self.dbg.spill.i1 = alloca i64, align 8
  %self.dbg.spill.i = alloca i64, align 8
  %self.dbg.spill = alloca i64, align 8
  %0 = alloca i64, align 8
  store i64 %self, ptr %self.dbg.spill, align 8
  call void @llvm.dbg.declare(metadata ptr %self.dbg.spill, metadata !849, metadata !DIExpression()), !dbg !850
  store i64 %self, ptr %self.dbg.spill.i, align 8
  call void @llvm.dbg.declare(metadata ptr %self.dbg.spill.i, metadata !851, metadata !DIExpression()), !dbg !856
  %1 = icmp slt i64 %self, 0, !dbg !858
  br i1 %1, label %bb2, label %bb3, !dbg !859

bb3:                                              ; preds = %start
  store i64 %self, ptr %0, align 8, !dbg !860
  br label %bb4, !dbg !861

bb2:                                              ; preds = %start
  store i64 %self, ptr %self.dbg.spill.i1, align 8
  call void @llvm.dbg.declare(metadata ptr %self.dbg.spill.i1, metadata !862, metadata !DIExpression()), !dbg !865
  store i64 0, ptr %self.dbg.spill.i2, align 8
  call void @llvm.dbg.declare(metadata ptr %self.dbg.spill.i2, metadata !867, metadata !DIExpression()), !dbg !873
  store i64 %self, ptr %rhs.dbg.spill.i, align 8
  call void @llvm.dbg.declare(metadata ptr %rhs.dbg.spill.i, metadata !872, metadata !DIExpression()), !dbg !875
  %2 = sub i64 0, %self, !dbg !876
  store i64 %2, ptr %0, align 8, !dbg !877
  br label %bb4, !dbg !877

bb4:                                              ; preds = %bb3, %bb2
  %3 = load i64, ptr %0, align 8, !dbg !878
  ret i64 %3, !dbg !878
}

; core::ops::function::FnOnce::call_once
; Function Attrs: inlinehint noredzone nounwind
define internal i32 @_ZN4core3ops8function6FnOnce9call_once17h6422d7cec1b52ef9E(ptr align 8 %0, ptr %1, ptr %2, i64 %3) unnamed_addr #0 !dbg !879 {
start:
  %_2 = alloca { ptr, ptr, i64 }, align 8
  %_1 = alloca ptr, align 8
  store ptr %0, ptr %_1, align 8
  store ptr %1, ptr %_2, align 8
  %4 = getelementptr inbounds { ptr, ptr, i64 }, ptr %_2, i32 0, i32 1
  store ptr %2, ptr %4, align 8
  %5 = getelementptr inbounds { ptr, ptr, i64 }, ptr %_2, i32 0, i32 2
  store i64 %3, ptr %5, align 8
  call void @llvm.dbg.declare(metadata ptr %_1, metadata !900, metadata !DIExpression()), !dbg !910
  call void @llvm.dbg.declare(metadata ptr %_2, metadata !901, metadata !DIExpression()), !dbg !910
  %6 = load ptr, ptr %_2, align 8, !dbg !910
  %7 = getelementptr inbounds { ptr, ptr, i64 }, ptr %_2, i32 0, i32 1, !dbg !910
  %8 = load ptr, ptr %7, align 8, !dbg !910
  %9 = getelementptr inbounds { ptr, ptr, i64 }, ptr %_2, i32 0, i32 2, !dbg !910
  %10 = load i64, ptr %9, align 8, !dbg !910
; call compiler_builtins::mem::impls::compare_bytes::{{closure}}
  %11 = call i32 @"_ZN17compiler_builtins3mem5impls13compare_bytes28_$u7b$$u7b$closure$u7d$$u7d$17hea0a5ad5b9be43fcE"(ptr align 8 %_1, ptr %6, ptr %8, i64 %10) #8, !dbg !910
  ret i32 %11, !dbg !910
}

; core::ops::function::FnOnce::call_once
; Function Attrs: inlinehint noredzone nounwind
define internal i32 @_ZN4core3ops8function6FnOnce9call_once17h8841a21d2a974eb5E(ptr align 1 %0, ptr %1, ptr %2, i64 %3) unnamed_addr #0 !dbg !911 {
start:
  %_2 = alloca { ptr, ptr, i64 }, align 8
  %_1 = alloca ptr, align 8
  store ptr %0, ptr %_1, align 8
  store ptr %1, ptr %_2, align 8
  %4 = getelementptr inbounds { ptr, ptr, i64 }, ptr %_2, i32 0, i32 1
  store ptr %2, ptr %4, align 8
  %5 = getelementptr inbounds { ptr, ptr, i64 }, ptr %_2, i32 0, i32 2
  store i64 %3, ptr %5, align 8
  call void @llvm.dbg.declare(metadata ptr %_1, metadata !916, metadata !DIExpression()), !dbg !926
  call void @llvm.dbg.declare(metadata ptr %_2, metadata !917, metadata !DIExpression()), !dbg !926
  %6 = load ptr, ptr %_2, align 8, !dbg !926
  %7 = getelementptr inbounds { ptr, ptr, i64 }, ptr %_2, i32 0, i32 1, !dbg !926
  %8 = load ptr, ptr %7, align 8, !dbg !926
  %9 = getelementptr inbounds { ptr, ptr, i64 }, ptr %_2, i32 0, i32 2, !dbg !926
  %10 = load i64, ptr %9, align 8, !dbg !926
; call compiler_builtins::mem::impls::compare_bytes::{{closure}}
  %11 = call i32 @"_ZN17compiler_builtins3mem5impls13compare_bytes28_$u7b$$u7b$closure$u7d$$u7d$17h8e983bfcf7aca316E"(ptr align 8 %_1, ptr %6, ptr %8, i64 %10) #8, !dbg !926
  ret i32 %11, !dbg !926
}

; core::ops::function::FnOnce::call_once
; Function Attrs: inlinehint noredzone nounwind
define internal i32 @_ZN4core3ops8function6FnOnce9call_once17ha30f7270399e507eE(ptr %0, ptr %1, i64 %2) unnamed_addr #0 !dbg !927 {
start:
  %_2 = alloca { ptr, ptr, i64 }, align 8
  %_1 = alloca %"[closure@/Users/yaw/.cargo/registry/src/github.com-1ecc6299db9ec823/compiler_builtins-0.1.85/src/mem/x86_64.rs:159:14: 159:53]", align 1
  store ptr %0, ptr %_2, align 8
  %3 = getelementptr inbounds { ptr, ptr, i64 }, ptr %_2, i32 0, i32 1
  store ptr %1, ptr %3, align 8
  %4 = getelementptr inbounds { ptr, ptr, i64 }, ptr %_2, i32 0, i32 2
  store i64 %2, ptr %4, align 8
  call void @llvm.dbg.declare(metadata ptr %_1, metadata !932, metadata !DIExpression()), !dbg !942
  call void @llvm.dbg.declare(metadata ptr %_2, metadata !933, metadata !DIExpression()), !dbg !942
  %5 = load ptr, ptr %_2, align 8, !dbg !942
  %6 = getelementptr inbounds { ptr, ptr, i64 }, ptr %_2, i32 0, i32 1, !dbg !942
  %7 = load ptr, ptr %6, align 8, !dbg !942
  %8 = getelementptr inbounds { ptr, ptr, i64 }, ptr %_2, i32 0, i32 2, !dbg !942
  %9 = load i64, ptr %8, align 8, !dbg !942
; call compiler_builtins::mem::impls::compare_bytes::{{closure}}
  %10 = call i32 @"_ZN17compiler_builtins3mem5impls13compare_bytes28_$u7b$$u7b$closure$u7d$$u7d$17h732db331c6affbabE"(ptr align 1 %_1, ptr %5, ptr %7, i64 %9) #8, !dbg !942
  ret i32 %10, !dbg !942
}

; core::ops::function::FnOnce::call_once
; Function Attrs: inlinehint noredzone nounwind
define internal i32 @_ZN4core3ops8function6FnOnce9call_once17hd49223f4d530c114E(ptr align 8 %0, ptr %1, ptr %2, i64 %3) unnamed_addr #0 !dbg !943 {
start:
  %_2 = alloca { ptr, ptr, i64 }, align 8
  %_1 = alloca ptr, align 8
  store ptr %0, ptr %_1, align 8
  store ptr %1, ptr %_2, align 8
  %4 = getelementptr inbounds { ptr, ptr, i64 }, ptr %_2, i32 0, i32 1
  store ptr %2, ptr %4, align 8
  %5 = getelementptr inbounds { ptr, ptr, i64 }, ptr %_2, i32 0, i32 2
  store i64 %3, ptr %5, align 8
  call void @llvm.dbg.declare(metadata ptr %_1, metadata !952, metadata !DIExpression()), !dbg !962
  call void @llvm.dbg.declare(metadata ptr %_2, metadata !953, metadata !DIExpression()), !dbg !962
  %6 = load ptr, ptr %_2, align 8, !dbg !962
  %7 = getelementptr inbounds { ptr, ptr, i64 }, ptr %_2, i32 0, i32 1, !dbg !962
  %8 = load ptr, ptr %7, align 8, !dbg !962
  %9 = getelementptr inbounds { ptr, ptr, i64 }, ptr %_2, i32 0, i32 2, !dbg !962
  %10 = load i64, ptr %9, align 8, !dbg !962
; call compiler_builtins::mem::impls::compare_bytes::{{closure}}
  %11 = call i32 @"_ZN17compiler_builtins3mem5impls13compare_bytes28_$u7b$$u7b$closure$u7d$$u7d$17h3941e237bd20e228E"(ptr align 8 %_1, ptr %6, ptr %8, i64 %10) #8, !dbg !962
  ret i32 %11, !dbg !962
}

; core::ptr::read_unaligned
; Function Attrs: inlinehint noredzone nounwind
define hidden i32 @_ZN4core3ptr14read_unaligned17hdf9168741e2916bbE(ptr %src) unnamed_addr #0 !dbg !963 {
start:
  %slot.dbg.spill.i = alloca i32, align 4
  %0 = alloca i32, align 4
  %self.dbg.spill.i1 = alloca i32, align 4
  %self.dbg.spill.i = alloca ptr, align 8
  %src.dbg.spill = alloca ptr, align 8
  %tmp = alloca i32, align 4
  store ptr %src, ptr %src.dbg.spill, align 8
  call void @llvm.dbg.declare(metadata ptr %src.dbg.spill, metadata !969, metadata !DIExpression()), !dbg !985
  call void @llvm.dbg.declare(metadata ptr %tmp, metadata !970, metadata !DIExpression()), !dbg !986
  %1 = load i32, ptr %0, align 4, !dbg !987
  store i32 %1, ptr %tmp, align 4, !dbg !993
  store ptr %tmp, ptr %self.dbg.spill.i, align 8
  call void @llvm.dbg.declare(metadata ptr %self.dbg.spill.i, metadata !994, metadata !DIExpression()), !dbg !1001
; call core::intrinsics::copy_nonoverlapping
  call void @_ZN4core10intrinsics19copy_nonoverlapping17h528427acd75b38abE(ptr %src, ptr %tmp, i64 4) #8, !dbg !1003
  %_10 = load i32, ptr %tmp, align 4, !dbg !1004
  store i32 %_10, ptr %self.dbg.spill.i1, align 4
  call void @llvm.dbg.declare(metadata ptr %self.dbg.spill.i1, metadata !1005, metadata !DIExpression()), !dbg !1023
  store i32 %_10, ptr %slot.dbg.spill.i, align 4
  call void @llvm.dbg.declare(metadata ptr %slot.dbg.spill.i, metadata !1025, metadata !DIExpression()), !dbg !1031
  ret i32 %_10, !dbg !1033
}

; core::ptr::read_unaligned
; Function Attrs: inlinehint noredzone nounwind
define hidden i128 @_ZN4core3ptr14read_unaligned17he695a176f6b2d229E(ptr %src) unnamed_addr #0 !dbg !1034 {
start:
  %slot.dbg.spill.i = alloca i128, align 8
  %0 = alloca i128, align 8
  %self.dbg.spill.i1 = alloca i128, align 8
  %self.dbg.spill.i = alloca ptr, align 8
  %src.dbg.spill = alloca ptr, align 8
  %tmp = alloca i128, align 8
  store ptr %src, ptr %src.dbg.spill, align 8
  call void @llvm.dbg.declare(metadata ptr %src.dbg.spill, metadata !1039, metadata !DIExpression()), !dbg !1051
  call void @llvm.dbg.declare(metadata ptr %tmp, metadata !1040, metadata !DIExpression()), !dbg !1052
  %1 = load i128, ptr %0, align 8, !dbg !1053
  store i128 %1, ptr %tmp, align 8, !dbg !1058
  store ptr %tmp, ptr %self.dbg.spill.i, align 8
  call void @llvm.dbg.declare(metadata ptr %self.dbg.spill.i, metadata !1059, metadata !DIExpression()), !dbg !1066
; call core::intrinsics::copy_nonoverlapping
  call void @_ZN4core10intrinsics19copy_nonoverlapping17h528427acd75b38abE(ptr %src, ptr %tmp, i64 16) #8, !dbg !1068
  %_10 = load i128, ptr %tmp, align 8, !dbg !1069
  store i128 %_10, ptr %self.dbg.spill.i1, align 8
  call void @llvm.dbg.declare(metadata ptr %self.dbg.spill.i1, metadata !1070, metadata !DIExpression()), !dbg !1075
  store i128 %_10, ptr %slot.dbg.spill.i, align 8
  call void @llvm.dbg.declare(metadata ptr %slot.dbg.spill.i, metadata !1077, metadata !DIExpression()), !dbg !1082
  ret i128 %_10, !dbg !1084
}

; core::ptr::read_unaligned
; Function Attrs: inlinehint noredzone nounwind
define hidden i16 @_ZN4core3ptr14read_unaligned17hfeeda9fba28d80d6E(ptr %src) unnamed_addr #0 !dbg !1085 {
start:
  %slot.dbg.spill.i = alloca i16, align 2
  %0 = alloca i16, align 2
  %self.dbg.spill.i1 = alloca i16, align 2
  %self.dbg.spill.i = alloca ptr, align 8
  %src.dbg.spill = alloca ptr, align 8
  %tmp = alloca i16, align 2
  store ptr %src, ptr %src.dbg.spill, align 8
  call void @llvm.dbg.declare(metadata ptr %src.dbg.spill, metadata !1089, metadata !DIExpression()), !dbg !1101
  call void @llvm.dbg.declare(metadata ptr %tmp, metadata !1090, metadata !DIExpression()), !dbg !1102
  %1 = load i16, ptr %0, align 2, !dbg !1103
  store i16 %1, ptr %tmp, align 2, !dbg !1108
  store ptr %tmp, ptr %self.dbg.spill.i, align 8
  call void @llvm.dbg.declare(metadata ptr %self.dbg.spill.i, metadata !1109, metadata !DIExpression()), !dbg !1116
; call core::intrinsics::copy_nonoverlapping
  call void @_ZN4core10intrinsics19copy_nonoverlapping17h528427acd75b38abE(ptr %src, ptr %tmp, i64 2) #8, !dbg !1118
  %_10 = load i16, ptr %tmp, align 2, !dbg !1119
  store i16 %_10, ptr %self.dbg.spill.i1, align 2
  call void @llvm.dbg.declare(metadata ptr %self.dbg.spill.i1, metadata !1120, metadata !DIExpression()), !dbg !1125
  store i16 %_10, ptr %slot.dbg.spill.i, align 2
  call void @llvm.dbg.declare(metadata ptr %slot.dbg.spill.i, metadata !1127, metadata !DIExpression()), !dbg !1132
  ret i16 %_10, !dbg !1134
}

; core::ptr::const_ptr::<impl *const T>::read_unaligned
; Function Attrs: inlinehint noredzone nounwind
define hidden i128 @"_ZN4core3ptr9const_ptr33_$LT$impl$u20$$BP$const$u20$T$GT$14read_unaligned17h3ccbfaab7afd7818E"(ptr %self) unnamed_addr #0 !dbg !1135 {
start:
  %self.dbg.spill = alloca ptr, align 8
  store ptr %self, ptr %self.dbg.spill, align 8
  call void @llvm.dbg.declare(metadata ptr %self.dbg.spill, metadata !1140, metadata !DIExpression()), !dbg !1141
; call core::ptr::read_unaligned
  %0 = call i128 @_ZN4core3ptr14read_unaligned17he695a176f6b2d229E(ptr %self) #8, !dbg !1142
  ret i128 %0, !dbg !1143
}

; core::ptr::const_ptr::<impl *const T>::read_unaligned
; Function Attrs: inlinehint noredzone nounwind
define hidden i32 @"_ZN4core3ptr9const_ptr33_$LT$impl$u20$$BP$const$u20$T$GT$14read_unaligned17h56b8dfe0581bfffdE"(ptr %self) unnamed_addr #0 !dbg !1144 {
start:
  %self.dbg.spill = alloca ptr, align 8
  store ptr %self, ptr %self.dbg.spill, align 8
  call void @llvm.dbg.declare(metadata ptr %self.dbg.spill, metadata !1146, metadata !DIExpression()), !dbg !1147
; call core::ptr::read_unaligned
  %0 = call i32 @_ZN4core3ptr14read_unaligned17hdf9168741e2916bbE(ptr %self) #8, !dbg !1148
  ret i32 %0, !dbg !1149
}

; core::ptr::const_ptr::<impl *const T>::read_unaligned
; Function Attrs: inlinehint noredzone nounwind
define hidden i64 @"_ZN4core3ptr9const_ptr33_$LT$impl$u20$$BP$const$u20$T$GT$14read_unaligned17ha111c3fce08858c5E"(ptr %self) unnamed_addr #0 !dbg !1150 {
start:
  %self.dbg.spill = alloca ptr, align 8
  store ptr %self, ptr %self.dbg.spill, align 8
  call void @llvm.dbg.declare(metadata ptr %self.dbg.spill, metadata !1154, metadata !DIExpression()), !dbg !1155
; call core::ptr::read_unaligned
  %0 = call i64 @_ZN4core3ptr14read_unaligned17h2e7fae137a2ab5b5E(ptr %self) #8, !dbg !1156
  ret i64 %0, !dbg !1157
}

; core::ptr::const_ptr::<impl *const T>::read_unaligned
; Function Attrs: inlinehint noredzone nounwind
define hidden i16 @"_ZN4core3ptr9const_ptr33_$LT$impl$u20$$BP$const$u20$T$GT$14read_unaligned17hcb6c3a4d402cb445E"(ptr %self) unnamed_addr #0 !dbg !1158 {
start:
  %self.dbg.spill = alloca ptr, align 8
  store ptr %self, ptr %self.dbg.spill, align 8
  call void @llvm.dbg.declare(metadata ptr %self.dbg.spill, metadata !1160, metadata !DIExpression()), !dbg !1161
; call core::ptr::read_unaligned
  %0 = call i16 @_ZN4core3ptr14read_unaligned17hfeeda9fba28d80d6E(ptr %self) #8, !dbg !1162
  ret i16 %0, !dbg !1163
}

; core::ptr::const_ptr::<impl *const T>::read
; Function Attrs: inlinehint noredzone nounwind
define hidden i8 @"_ZN4core3ptr9const_ptr33_$LT$impl$u20$$BP$const$u20$T$GT$4read17hab4a01541b7b5993E"(ptr %self) unnamed_addr #0 !dbg !1164 {
start:
  %self.dbg.spill = alloca ptr, align 8
  store ptr %self, ptr %self.dbg.spill, align 8
  call void @llvm.dbg.declare(metadata ptr %self.dbg.spill, metadata !1168, metadata !DIExpression()), !dbg !1171
; call core::ptr::read
  %0 = call i8 @_ZN4core3ptr4read17h591f4d238933f51eE(ptr %self) #8, !dbg !1172
  ret i8 %0, !dbg !1173
}

; core::hint::unreachable_unchecked
; Function Attrs: inlinehint noredzone noreturn nounwind
define internal void @_ZN4core4hint21unreachable_unchecked17hcd9fc860852fdb0dE() unnamed_addr #1 !dbg !1174 {
start:
; call core::panicking::panic_nounwind
  call void @_ZN4core9panicking14panic_nounwind17hb1f12d647e493101E(ptr align 1 @alloc2965, i64 82) #7, !dbg !1179
  unreachable, !dbg !1179

_ZN4core4hint21unreachable_unchecked7runtime17h41faf7c8a422c3a9E.exit: ; No predecessors!
  unreachable, !dbg !1184
}

; core::option::Option<T>::unwrap_unchecked
; Function Attrs: inlinehint noredzone nounwind
define hidden i8 @"_ZN4core6option15Option$LT$T$GT$16unwrap_unchecked17h1a7211f2f47fd844E"(i1 zeroext %0, i8 %1, ptr align 8 %2) unnamed_addr #0 !dbg !1185 {
start:
  %val.dbg.spill = alloca i8, align 1
  %self = alloca { i8, i8 }, align 1
  %3 = getelementptr inbounds { i8, i8 }, ptr %self, i32 0, i32 0
  %4 = zext i1 %0 to i8
  store i8 %4, ptr %3, align 1
  %5 = getelementptr inbounds { i8, i8 }, ptr %self, i32 0, i32 1
  store i8 %1, ptr %5, align 1
  call void @llvm.dbg.declare(metadata ptr %self, metadata !1201, metadata !DIExpression()), !dbg !1204
; call core::option::Option<T>::is_some
  %_3 = call zeroext i1 @"_ZN4core6option15Option$LT$T$GT$7is_some17h17568ff0fb9437a1E"(ptr align 1 %self) #8, !dbg !1205
  %_2 = xor i1 %_3, true, !dbg !1206
  br i1 %_2, label %bb2, label %bb3, !dbg !1206

bb3:                                              ; preds = %start
  %6 = load i8, ptr %self, align 1, !dbg !1207, !range !780, !noundef !55
  %7 = trunc i8 %6 to i1, !dbg !1207
  %_6 = zext i1 %7 to i64, !dbg !1207
  %8 = icmp eq i64 %_6, 0, !dbg !1208
  br i1 %8, label %bb4, label %bb6, !dbg !1208

bb2:                                              ; preds = %start
; call core::panicking::panic
  call void @_ZN4core9panicking5panic17hef55b24906324c39E(ptr align 1 @alloc2976, i64 32, ptr align 8 %2) #7, !dbg !1206
  unreachable, !dbg !1206

bb4:                                              ; preds = %bb3
; call core::hint::unreachable_unchecked
  call void @_ZN4core4hint21unreachable_unchecked17hcd9fc860852fdb0dE() #7, !dbg !1209
  unreachable, !dbg !1209

bb6:                                              ; preds = %bb3
  %9 = getelementptr inbounds { i8, i8 }, ptr %self, i32 0, i32 1, !dbg !1210
  %val = load i8, ptr %9, align 1, !dbg !1210
  store i8 %val, ptr %val.dbg.spill, align 1, !dbg !1210
  call void @llvm.dbg.declare(metadata ptr %val.dbg.spill, metadata !1202, metadata !DIExpression()), !dbg !1211
  ret i8 %val, !dbg !1212

bb5:                                              ; No predecessors!
  unreachable, !dbg !1207
}

; core::option::Option<T>::unwrap_unchecked
; Function Attrs: inlinehint noredzone nounwind
define hidden i16 @"_ZN4core6option15Option$LT$T$GT$16unwrap_unchecked17h1e0b7edc15dca726E"(i16 %0, i16 %1, ptr align 8 %2) unnamed_addr #0 !dbg !1213 {
start:
  %val.dbg.spill = alloca i16, align 2
  %self = alloca { i16, i16 }, align 2
  %3 = getelementptr inbounds { i16, i16 }, ptr %self, i32 0, i32 0
  store i16 %0, ptr %3, align 2
  %4 = getelementptr inbounds { i16, i16 }, ptr %self, i32 0, i32 1
  store i16 %1, ptr %4, align 2
  call void @llvm.dbg.declare(metadata ptr %self, metadata !1230, metadata !DIExpression()), !dbg !1233
; call core::option::Option<T>::is_some
  %_3 = call zeroext i1 @"_ZN4core6option15Option$LT$T$GT$7is_some17h4b231c64dfc033daE"(ptr align 2 %self) #8, !dbg !1234
  %_2 = xor i1 %_3, true, !dbg !1235
  br i1 %_2, label %bb2, label %bb3, !dbg !1235

bb3:                                              ; preds = %start
  %5 = load i16, ptr %self, align 2, !dbg !1236, !range !1237, !noundef !55
  %_6 = zext i16 %5 to i64, !dbg !1236
  %6 = icmp eq i64 %_6, 0, !dbg !1238
  br i1 %6, label %bb4, label %bb6, !dbg !1238

bb2:                                              ; preds = %start
; call core::panicking::panic
  call void @_ZN4core9panicking5panic17hef55b24906324c39E(ptr align 1 @alloc2976, i64 32, ptr align 8 %2) #7, !dbg !1235
  unreachable, !dbg !1235

bb4:                                              ; preds = %bb3
; call core::hint::unreachable_unchecked
  call void @_ZN4core4hint21unreachable_unchecked17hcd9fc860852fdb0dE() #7, !dbg !1239
  unreachable, !dbg !1239

bb6:                                              ; preds = %bb3
  %7 = getelementptr inbounds { i16, i16 }, ptr %self, i32 0, i32 1, !dbg !1240
  %val = load i16, ptr %7, align 2, !dbg !1240
  store i16 %val, ptr %val.dbg.spill, align 2, !dbg !1240
  call void @llvm.dbg.declare(metadata ptr %val.dbg.spill, metadata !1231, metadata !DIExpression()), !dbg !1241
  ret i16 %val, !dbg !1242

bb5:                                              ; No predecessors!
  unreachable, !dbg !1236
}

; core::option::Option<T>::unwrap_unchecked
; Function Attrs: inlinehint noredzone nounwind
define hidden i64 @"_ZN4core6option15Option$LT$T$GT$16unwrap_unchecked17h40903bcca4c7922cE"(i64 %0, i64 %1, ptr align 8 %2) unnamed_addr #0 !dbg !1243 {
start:
  %val.dbg.spill = alloca i64, align 8
  %self = alloca { i64, i64 }, align 8
  %3 = getelementptr inbounds { i64, i64 }, ptr %self, i32 0, i32 0
  store i64 %0, ptr %3, align 8
  %4 = getelementptr inbounds { i64, i64 }, ptr %self, i32 0, i32 1
  store i64 %1, ptr %4, align 8
  call void @llvm.dbg.declare(metadata ptr %self, metadata !1260, metadata !DIExpression()), !dbg !1263
; call core::option::Option<T>::is_some
  %_3 = call zeroext i1 @"_ZN4core6option15Option$LT$T$GT$7is_some17hc2093393ef630b72E"(ptr align 8 %self) #8, !dbg !1264
  %_2 = xor i1 %_3, true, !dbg !1265
  br i1 %_2, label %bb2, label %bb3, !dbg !1265

bb3:                                              ; preds = %start
  %_6 = load i64, ptr %self, align 8, !dbg !1266, !range !786, !noundef !55
  %5 = icmp eq i64 %_6, 0, !dbg !1267
  br i1 %5, label %bb4, label %bb6, !dbg !1267

bb2:                                              ; preds = %start
; call core::panicking::panic
  call void @_ZN4core9panicking5panic17hef55b24906324c39E(ptr align 1 @alloc2976, i64 32, ptr align 8 %2) #7, !dbg !1265
  unreachable, !dbg !1265

bb4:                                              ; preds = %bb3
; call core::hint::unreachable_unchecked
  call void @_ZN4core4hint21unreachable_unchecked17hcd9fc860852fdb0dE() #7, !dbg !1268
  unreachable, !dbg !1268

bb6:                                              ; preds = %bb3
  %6 = getelementptr inbounds { i64, i64 }, ptr %self, i32 0, i32 1, !dbg !1269
  %val = load i64, ptr %6, align 8, !dbg !1269
  store i64 %val, ptr %val.dbg.spill, align 8, !dbg !1269
  call void @llvm.dbg.declare(metadata ptr %val.dbg.spill, metadata !1261, metadata !DIExpression()), !dbg !1270
  ret i64 %val, !dbg !1271

bb5:                                              ; No predecessors!
  unreachable, !dbg !1266
}

; core::option::Option<T>::unwrap_unchecked
; Function Attrs: inlinehint noredzone nounwind
define hidden i32 @"_ZN4core6option15Option$LT$T$GT$16unwrap_unchecked17h5b1136c6de4cdff4E"(i32 %0, i32 %1, ptr align 8 %2) unnamed_addr #0 !dbg !1272 {
start:
  %val.dbg.spill = alloca i32, align 4
  %self = alloca { i32, i32 }, align 4
  %3 = getelementptr inbounds { i32, i32 }, ptr %self, i32 0, i32 0
  store i32 %0, ptr %3, align 4
  %4 = getelementptr inbounds { i32, i32 }, ptr %self, i32 0, i32 1
  store i32 %1, ptr %4, align 4
  call void @llvm.dbg.declare(metadata ptr %self, metadata !1289, metadata !DIExpression()), !dbg !1292
; call core::option::Option<T>::is_some
  %_3 = call zeroext i1 @"_ZN4core6option15Option$LT$T$GT$7is_some17h303a6d36d271ff53E"(ptr align 4 %self) #8, !dbg !1293
  %_2 = xor i1 %_3, true, !dbg !1294
  br i1 %_2, label %bb2, label %bb3, !dbg !1294

bb3:                                              ; preds = %start
  %5 = load i32, ptr %self, align 4, !dbg !1295, !range !1296, !noundef !55
  %_6 = zext i32 %5 to i64, !dbg !1295
  %6 = icmp eq i64 %_6, 0, !dbg !1297
  br i1 %6, label %bb4, label %bb6, !dbg !1297

bb2:                                              ; preds = %start
; call core::panicking::panic
  call void @_ZN4core9panicking5panic17hef55b24906324c39E(ptr align 1 @alloc2976, i64 32, ptr align 8 %2) #7, !dbg !1294
  unreachable, !dbg !1294

bb4:                                              ; preds = %bb3
; call core::hint::unreachable_unchecked
  call void @_ZN4core4hint21unreachable_unchecked17hcd9fc860852fdb0dE() #7, !dbg !1298
  unreachable, !dbg !1298

bb6:                                              ; preds = %bb3
  %7 = getelementptr inbounds { i32, i32 }, ptr %self, i32 0, i32 1, !dbg !1299
  %val = load i32, ptr %7, align 4, !dbg !1299
  store i32 %val, ptr %val.dbg.spill, align 4, !dbg !1299
  call void @llvm.dbg.declare(metadata ptr %val.dbg.spill, metadata !1290, metadata !DIExpression()), !dbg !1300
  ret i32 %val, !dbg !1301

bb5:                                              ; No predecessors!
  unreachable, !dbg !1295
}

; core::option::Option<T>::unwrap_unchecked
; Function Attrs: inlinehint noredzone nounwind
define hidden i32 @"_ZN4core6option15Option$LT$T$GT$16unwrap_unchecked17h77e99987fac7c801E"(i32 %0, i32 %1, ptr align 8 %2) unnamed_addr #0 !dbg !1302 {
start:
  %val.dbg.spill = alloca i32, align 4
  %self = alloca { i32, i32 }, align 4
  %3 = getelementptr inbounds { i32, i32 }, ptr %self, i32 0, i32 0
  store i32 %0, ptr %3, align 4
  %4 = getelementptr inbounds { i32, i32 }, ptr %self, i32 0, i32 1
  store i32 %1, ptr %4, align 4
  call void @llvm.dbg.declare(metadata ptr %self, metadata !1317, metadata !DIExpression()), !dbg !1320
; call core::option::Option<T>::is_some
  %_3 = call zeroext i1 @"_ZN4core6option15Option$LT$T$GT$7is_some17hba913630386a6435E"(ptr align 4 %self) #8, !dbg !1321
  %_2 = xor i1 %_3, true, !dbg !1322
  br i1 %_2, label %bb2, label %bb3, !dbg !1322

bb3:                                              ; preds = %start
  %5 = load i32, ptr %self, align 4, !dbg !1323, !range !1296, !noundef !55
  %_6 = zext i32 %5 to i64, !dbg !1323
  %6 = icmp eq i64 %_6, 0, !dbg !1324
  br i1 %6, label %bb4, label %bb6, !dbg !1324

bb2:                                              ; preds = %start
; call core::panicking::panic
  call void @_ZN4core9panicking5panic17hef55b24906324c39E(ptr align 1 @alloc2976, i64 32, ptr align 8 %2) #7, !dbg !1322
  unreachable, !dbg !1322

bb4:                                              ; preds = %bb3
; call core::hint::unreachable_unchecked
  call void @_ZN4core4hint21unreachable_unchecked17hcd9fc860852fdb0dE() #7, !dbg !1325
  unreachable, !dbg !1325

bb6:                                              ; preds = %bb3
  %7 = getelementptr inbounds { i32, i32 }, ptr %self, i32 0, i32 1, !dbg !1326
  %val = load i32, ptr %7, align 4, !dbg !1326
  store i32 %val, ptr %val.dbg.spill, align 4, !dbg !1326
  call void @llvm.dbg.declare(metadata ptr %val.dbg.spill, metadata !1318, metadata !DIExpression()), !dbg !1327
  ret i32 %val, !dbg !1328

bb5:                                              ; No predecessors!
  unreachable, !dbg !1323
}

; core::option::Option<T>::unwrap_unchecked
; Function Attrs: inlinehint noredzone nounwind
define hidden i8 @"_ZN4core6option15Option$LT$T$GT$16unwrap_unchecked17h9048c3d331bea648E"(i1 zeroext %0, i8 %1, ptr align 8 %2) unnamed_addr #0 !dbg !1329 {
start:
  %val.dbg.spill = alloca i8, align 1
  %self = alloca { i8, i8 }, align 1
  %3 = getelementptr inbounds { i8, i8 }, ptr %self, i32 0, i32 0
  %4 = zext i1 %0 to i8
  store i8 %4, ptr %3, align 1
  %5 = getelementptr inbounds { i8, i8 }, ptr %self, i32 0, i32 1
  store i8 %1, ptr %5, align 1
  call void @llvm.dbg.declare(metadata ptr %self, metadata !1346, metadata !DIExpression()), !dbg !1349
; call core::option::Option<T>::is_some
  %_3 = call zeroext i1 @"_ZN4core6option15Option$LT$T$GT$7is_some17had2fb40afd915a2cE"(ptr align 1 %self) #8, !dbg !1350
  %_2 = xor i1 %_3, true, !dbg !1351
  br i1 %_2, label %bb2, label %bb3, !dbg !1351

bb3:                                              ; preds = %start
  %6 = load i8, ptr %self, align 1, !dbg !1352, !range !780, !noundef !55
  %7 = trunc i8 %6 to i1, !dbg !1352
  %_6 = zext i1 %7 to i64, !dbg !1352
  %8 = icmp eq i64 %_6, 0, !dbg !1353
  br i1 %8, label %bb4, label %bb6, !dbg !1353

bb2:                                              ; preds = %start
; call core::panicking::panic
  call void @_ZN4core9panicking5panic17hef55b24906324c39E(ptr align 1 @alloc2976, i64 32, ptr align 8 %2) #7, !dbg !1351
  unreachable, !dbg !1351

bb4:                                              ; preds = %bb3
; call core::hint::unreachable_unchecked
  call void @_ZN4core4hint21unreachable_unchecked17hcd9fc860852fdb0dE() #7, !dbg !1354
  unreachable, !dbg !1354

bb6:                                              ; preds = %bb3
  %9 = getelementptr inbounds { i8, i8 }, ptr %self, i32 0, i32 1, !dbg !1355
  %val = load i8, ptr %9, align 1, !dbg !1355
  store i8 %val, ptr %val.dbg.spill, align 1, !dbg !1355
  call void @llvm.dbg.declare(metadata ptr %val.dbg.spill, metadata !1347, metadata !DIExpression()), !dbg !1356
  ret i8 %val, !dbg !1357

bb5:                                              ; No predecessors!
  unreachable, !dbg !1352
}

; core::option::Option<T>::unwrap_unchecked
; Function Attrs: inlinehint noredzone nounwind
define hidden i128 @"_ZN4core6option15Option$LT$T$GT$16unwrap_unchecked17h9147a606ab0215afE"(i64 %0, i128 %1, ptr align 8 %2) unnamed_addr #0 !dbg !1358 {
start:
  %val.dbg.spill = alloca i128, align 8
  %self = alloca { i64, i128 }, align 8
  %3 = getelementptr inbounds { i64, i128 }, ptr %self, i32 0, i32 0
  store i64 %0, ptr %3, align 8
  %4 = getelementptr inbounds { i64, i128 }, ptr %self, i32 0, i32 1
  store i128 %1, ptr %4, align 8
  call void @llvm.dbg.declare(metadata ptr %self, metadata !1375, metadata !DIExpression()), !dbg !1378
; call core::option::Option<T>::is_some
  %_3 = call zeroext i1 @"_ZN4core6option15Option$LT$T$GT$7is_some17h8fcaf928eecb4fa0E"(ptr align 8 %self) #8, !dbg !1379
  %_2 = xor i1 %_3, true, !dbg !1380
  br i1 %_2, label %bb2, label %bb3, !dbg !1380

bb3:                                              ; preds = %start
  %_6 = load i64, ptr %self, align 8, !dbg !1381, !range !786, !noundef !55
  %5 = icmp eq i64 %_6, 0, !dbg !1382
  br i1 %5, label %bb4, label %bb6, !dbg !1382

bb2:                                              ; preds = %start
; call core::panicking::panic
  call void @_ZN4core9panicking5panic17hef55b24906324c39E(ptr align 1 @alloc2976, i64 32, ptr align 8 %2) #7, !dbg !1380
  unreachable, !dbg !1380

bb4:                                              ; preds = %bb3
; call core::hint::unreachable_unchecked
  call void @_ZN4core4hint21unreachable_unchecked17hcd9fc860852fdb0dE() #7, !dbg !1383
  unreachable, !dbg !1383

bb6:                                              ; preds = %bb3
  %6 = getelementptr inbounds { i64, i128 }, ptr %self, i32 0, i32 1, !dbg !1384
  %val = load i128, ptr %6, align 8, !dbg !1384
  store i128 %val, ptr %val.dbg.spill, align 8, !dbg !1384
  call void @llvm.dbg.declare(metadata ptr %val.dbg.spill, metadata !1376, metadata !DIExpression()), !dbg !1385
  ret i128 %val, !dbg !1386

bb5:                                              ; No predecessors!
  unreachable, !dbg !1381
}

; core::option::Option<T>::unwrap_unchecked
; Function Attrs: inlinehint noredzone nounwind
define hidden i64 @"_ZN4core6option15Option$LT$T$GT$16unwrap_unchecked17hb6768d37e4eed192E"(i64 %0, i64 %1, ptr align 8 %2) unnamed_addr #0 !dbg !1387 {
start:
  %val.dbg.spill = alloca i64, align 8
  %self = alloca { i64, i64 }, align 8
  %3 = getelementptr inbounds { i64, i64 }, ptr %self, i32 0, i32 0
  store i64 %0, ptr %3, align 8
  %4 = getelementptr inbounds { i64, i64 }, ptr %self, i32 0, i32 1
  store i64 %1, ptr %4, align 8
  call void @llvm.dbg.declare(metadata ptr %self, metadata !1391, metadata !DIExpression()), !dbg !1394
; call core::option::Option<T>::is_some
  %_3 = call zeroext i1 @"_ZN4core6option15Option$LT$T$GT$7is_some17h770cb92cf16c2ca4E"(ptr align 8 %self) #8, !dbg !1395
  %_2 = xor i1 %_3, true, !dbg !1396
  br i1 %_2, label %bb2, label %bb3, !dbg !1396

bb3:                                              ; preds = %start
  %_6 = load i64, ptr %self, align 8, !dbg !1397, !range !786, !noundef !55
  %5 = icmp eq i64 %_6, 0, !dbg !1398
  br i1 %5, label %bb4, label %bb6, !dbg !1398

bb2:                                              ; preds = %start
; call core::panicking::panic
  call void @_ZN4core9panicking5panic17hef55b24906324c39E(ptr align 1 @alloc2976, i64 32, ptr align 8 %2) #7, !dbg !1396
  unreachable, !dbg !1396

bb4:                                              ; preds = %bb3
; call core::hint::unreachable_unchecked
  call void @_ZN4core4hint21unreachable_unchecked17hcd9fc860852fdb0dE() #7, !dbg !1399
  unreachable, !dbg !1399

bb6:                                              ; preds = %bb3
  %6 = getelementptr inbounds { i64, i64 }, ptr %self, i32 0, i32 1, !dbg !1400
  %val = load i64, ptr %6, align 8, !dbg !1400
  store i64 %val, ptr %val.dbg.spill, align 8, !dbg !1400
  call void @llvm.dbg.declare(metadata ptr %val.dbg.spill, metadata !1392, metadata !DIExpression()), !dbg !1401
  ret i64 %val, !dbg !1402

bb5:                                              ; No predecessors!
  unreachable, !dbg !1397
}

; core::option::Option<T>::unwrap_unchecked
; Function Attrs: inlinehint noredzone nounwind
define hidden i16 @"_ZN4core6option15Option$LT$T$GT$16unwrap_unchecked17he9b706f0163134ccE"(i16 %0, i16 %1, ptr align 8 %2) unnamed_addr #0 !dbg !1403 {
start:
  %val.dbg.spill = alloca i16, align 2
  %self = alloca { i16, i16 }, align 2
  %3 = getelementptr inbounds { i16, i16 }, ptr %self, i32 0, i32 0
  store i16 %0, ptr %3, align 2
  %4 = getelementptr inbounds { i16, i16 }, ptr %self, i32 0, i32 1
  store i16 %1, ptr %4, align 2
  call void @llvm.dbg.declare(metadata ptr %self, metadata !1418, metadata !DIExpression()), !dbg !1421
; call core::option::Option<T>::is_some
  %_3 = call zeroext i1 @"_ZN4core6option15Option$LT$T$GT$7is_some17he0aa8f702787bf89E"(ptr align 2 %self) #8, !dbg !1422
  %_2 = xor i1 %_3, true, !dbg !1423
  br i1 %_2, label %bb2, label %bb3, !dbg !1423

bb3:                                              ; preds = %start
  %5 = load i16, ptr %self, align 2, !dbg !1424, !range !1237, !noundef !55
  %_6 = zext i16 %5 to i64, !dbg !1424
  %6 = icmp eq i64 %_6, 0, !dbg !1425
  br i1 %6, label %bb4, label %bb6, !dbg !1425

bb2:                                              ; preds = %start
; call core::panicking::panic
  call void @_ZN4core9panicking5panic17hef55b24906324c39E(ptr align 1 @alloc2976, i64 32, ptr align 8 %2) #7, !dbg !1423
  unreachable, !dbg !1423

bb4:                                              ; preds = %bb3
; call core::hint::unreachable_unchecked
  call void @_ZN4core4hint21unreachable_unchecked17hcd9fc860852fdb0dE() #7, !dbg !1426
  unreachable, !dbg !1426

bb6:                                              ; preds = %bb3
  %7 = getelementptr inbounds { i16, i16 }, ptr %self, i32 0, i32 1, !dbg !1427
  %val = load i16, ptr %7, align 2, !dbg !1427
  store i16 %val, ptr %val.dbg.spill, align 2, !dbg !1427
  call void @llvm.dbg.declare(metadata ptr %val.dbg.spill, metadata !1419, metadata !DIExpression()), !dbg !1428
  ret i16 %val, !dbg !1429

bb5:                                              ; No predecessors!
  unreachable, !dbg !1424
}

; core::option::Option<T>::unwrap_unchecked
; Function Attrs: inlinehint noredzone nounwind
define hidden i128 @"_ZN4core6option15Option$LT$T$GT$16unwrap_unchecked17hefc4612baeb9e9ddE"(i64 %0, i128 %1, ptr align 8 %2) unnamed_addr #0 !dbg !1430 {
start:
  %val.dbg.spill = alloca i128, align 8
  %self = alloca { i64, i128 }, align 8
  %3 = getelementptr inbounds { i64, i128 }, ptr %self, i32 0, i32 0
  store i64 %0, ptr %3, align 8
  %4 = getelementptr inbounds { i64, i128 }, ptr %self, i32 0, i32 1
  store i128 %1, ptr %4, align 8
  call void @llvm.dbg.declare(metadata ptr %self, metadata !1445, metadata !DIExpression()), !dbg !1448
; call core::option::Option<T>::is_some
  %_3 = call zeroext i1 @"_ZN4core6option15Option$LT$T$GT$7is_some17h84df13659954412cE"(ptr align 8 %self) #8, !dbg !1449
  %_2 = xor i1 %_3, true, !dbg !1450
  br i1 %_2, label %bb2, label %bb3, !dbg !1450

bb3:                                              ; preds = %start
  %_6 = load i64, ptr %self, align 8, !dbg !1451, !range !786, !noundef !55
  %5 = icmp eq i64 %_6, 0, !dbg !1452
  br i1 %5, label %bb4, label %bb6, !dbg !1452

bb2:                                              ; preds = %start
; call core::panicking::panic
  call void @_ZN4core9panicking5panic17hef55b24906324c39E(ptr align 1 @alloc2976, i64 32, ptr align 8 %2) #7, !dbg !1450
  unreachable, !dbg !1450

bb4:                                              ; preds = %bb3
; call core::hint::unreachable_unchecked
  call void @_ZN4core4hint21unreachable_unchecked17hcd9fc860852fdb0dE() #7, !dbg !1453
  unreachable, !dbg !1453

bb6:                                              ; preds = %bb3
  %6 = getelementptr inbounds { i64, i128 }, ptr %self, i32 0, i32 1, !dbg !1454
  %val = load i128, ptr %6, align 8, !dbg !1454
  store i128 %val, ptr %val.dbg.spill, align 8, !dbg !1454
  call void @llvm.dbg.declare(metadata ptr %val.dbg.spill, metadata !1446, metadata !DIExpression()), !dbg !1455
  ret i128 %val, !dbg !1456

bb5:                                              ; No predecessors!
  unreachable, !dbg !1451
}

; core::option::Option<T>::unwrap_unchecked
; Function Attrs: inlinehint noredzone nounwind
define hidden i64 @"_ZN4core6option15Option$LT$T$GT$16unwrap_unchecked17hf61219a28543c3cfE"(i64 %0, i64 %1, ptr align 8 %2) unnamed_addr #0 !dbg !1457 {
start:
  %val.dbg.spill = alloca i64, align 8
  %self = alloca { i64, i64 }, align 8
  %3 = getelementptr inbounds { i64, i64 }, ptr %self, i32 0, i32 0
  store i64 %0, ptr %3, align 8
  %4 = getelementptr inbounds { i64, i64 }, ptr %self, i32 0, i32 1
  store i64 %1, ptr %4, align 8
  call void @llvm.dbg.declare(metadata ptr %self, metadata !1474, metadata !DIExpression()), !dbg !1477
; call core::option::Option<T>::is_some
  %_3 = call zeroext i1 @"_ZN4core6option15Option$LT$T$GT$7is_some17hfc0024d42e28e467E"(ptr align 8 %self) #8, !dbg !1478
  %_2 = xor i1 %_3, true, !dbg !1479
  br i1 %_2, label %bb2, label %bb3, !dbg !1479

bb3:                                              ; preds = %start
  %_6 = load i64, ptr %self, align 8, !dbg !1480, !range !786, !noundef !55
  %5 = icmp eq i64 %_6, 0, !dbg !1481
  br i1 %5, label %bb4, label %bb6, !dbg !1481

bb2:                                              ; preds = %start
; call core::panicking::panic
  call void @_ZN4core9panicking5panic17hef55b24906324c39E(ptr align 1 @alloc2976, i64 32, ptr align 8 %2) #7, !dbg !1479
  unreachable, !dbg !1479

bb4:                                              ; preds = %bb3
; call core::hint::unreachable_unchecked
  call void @_ZN4core4hint21unreachable_unchecked17hcd9fc860852fdb0dE() #7, !dbg !1482
  unreachable, !dbg !1482

bb6:                                              ; preds = %bb3
  %6 = getelementptr inbounds { i64, i64 }, ptr %self, i32 0, i32 1, !dbg !1483
  %val = load i64, ptr %6, align 8, !dbg !1483
  store i64 %val, ptr %val.dbg.spill, align 8, !dbg !1483
  call void @llvm.dbg.declare(metadata ptr %val.dbg.spill, metadata !1475, metadata !DIExpression()), !dbg !1484
  ret i64 %val, !dbg !1485

bb5:                                              ; No predecessors!
  unreachable, !dbg !1480
}

; core::option::Option<T>::is_some
; Function Attrs: inlinehint noredzone nounwind
define hidden zeroext i1 @"_ZN4core6option15Option$LT$T$GT$7is_some17h303a6d36d271ff53E"(ptr align 4 %self) unnamed_addr #0 !dbg !1486 {
start:
  %self.dbg.spill = alloca ptr, align 8
  %0 = alloca i8, align 1
  store ptr %self, ptr %self.dbg.spill, align 8
  call void @llvm.dbg.declare(metadata ptr %self.dbg.spill, metadata !1491, metadata !DIExpression()), !dbg !1492
  %1 = load i32, ptr %self, align 4, !dbg !1493, !range !1296, !noundef !55
  %_2 = zext i32 %1 to i64, !dbg !1493
  %2 = icmp eq i64 %_2, 1, !dbg !1494
  br i1 %2, label %bb2, label %bb1, !dbg !1494

bb2:                                              ; preds = %start
  store i8 1, ptr %0, align 1, !dbg !1494
  br label %bb3, !dbg !1494

bb1:                                              ; preds = %start
  store i8 0, ptr %0, align 1, !dbg !1494
  br label %bb3, !dbg !1494

bb3:                                              ; preds = %bb2, %bb1
  %3 = load i8, ptr %0, align 1, !dbg !1495, !range !780, !noundef !55
  %4 = trunc i8 %3 to i1, !dbg !1495
  ret i1 %4, !dbg !1495
}

; core::option::Option<T>::is_some
; Function Attrs: inlinehint noredzone nounwind
define hidden zeroext i1 @"_ZN4core6option15Option$LT$T$GT$7is_some17h4b231c64dfc033daE"(ptr align 2 %self) unnamed_addr #0 !dbg !1496 {
start:
  %self.dbg.spill = alloca ptr, align 8
  %0 = alloca i8, align 1
  store ptr %self, ptr %self.dbg.spill, align 8
  call void @llvm.dbg.declare(metadata ptr %self.dbg.spill, metadata !1501, metadata !DIExpression()), !dbg !1502
  %1 = load i16, ptr %self, align 2, !dbg !1503, !range !1237, !noundef !55
  %_2 = zext i16 %1 to i64, !dbg !1503
  %2 = icmp eq i64 %_2, 1, !dbg !1504
  br i1 %2, label %bb2, label %bb1, !dbg !1504

bb2:                                              ; preds = %start
  store i8 1, ptr %0, align 1, !dbg !1504
  br label %bb3, !dbg !1504

bb1:                                              ; preds = %start
  store i8 0, ptr %0, align 1, !dbg !1504
  br label %bb3, !dbg !1504

bb3:                                              ; preds = %bb2, %bb1
  %3 = load i8, ptr %0, align 1, !dbg !1505, !range !780, !noundef !55
  %4 = trunc i8 %3 to i1, !dbg !1505
  ret i1 %4, !dbg !1505
}

; core::option::Option<T>::is_some
; Function Attrs: inlinehint noredzone nounwind
define hidden zeroext i1 @"_ZN4core6option15Option$LT$T$GT$7is_some17h84df13659954412cE"(ptr align 8 %self) unnamed_addr #0 !dbg !1506 {
start:
  %self.dbg.spill = alloca ptr, align 8
  %0 = alloca i8, align 1
  store ptr %self, ptr %self.dbg.spill, align 8
  call void @llvm.dbg.declare(metadata ptr %self.dbg.spill, metadata !1511, metadata !DIExpression()), !dbg !1512
  %_2 = load i64, ptr %self, align 8, !dbg !1513, !range !786, !noundef !55
  %1 = icmp eq i64 %_2, 1, !dbg !1514
  br i1 %1, label %bb2, label %bb1, !dbg !1514

bb2:                                              ; preds = %start
  store i8 1, ptr %0, align 1, !dbg !1514
  br label %bb3, !dbg !1514

bb1:                                              ; preds = %start
  store i8 0, ptr %0, align 1, !dbg !1514
  br label %bb3, !dbg !1514

bb3:                                              ; preds = %bb2, %bb1
  %2 = load i8, ptr %0, align 1, !dbg !1515, !range !780, !noundef !55
  %3 = trunc i8 %2 to i1, !dbg !1515
  ret i1 %3, !dbg !1515
}

; core::option::Option<T>::is_some
; Function Attrs: inlinehint noredzone nounwind
define hidden zeroext i1 @"_ZN4core6option15Option$LT$T$GT$7is_some17h8fcaf928eecb4fa0E"(ptr align 8 %self) unnamed_addr #0 !dbg !1516 {
start:
  %self.dbg.spill = alloca ptr, align 8
  %0 = alloca i8, align 1
  store ptr %self, ptr %self.dbg.spill, align 8
  call void @llvm.dbg.declare(metadata ptr %self.dbg.spill, metadata !1521, metadata !DIExpression()), !dbg !1522
  %_2 = load i64, ptr %self, align 8, !dbg !1523, !range !786, !noundef !55
  %1 = icmp eq i64 %_2, 1, !dbg !1524
  br i1 %1, label %bb2, label %bb1, !dbg !1524

bb2:                                              ; preds = %start
  store i8 1, ptr %0, align 1, !dbg !1524
  br label %bb3, !dbg !1524

bb1:                                              ; preds = %start
  store i8 0, ptr %0, align 1, !dbg !1524
  br label %bb3, !dbg !1524

bb3:                                              ; preds = %bb2, %bb1
  %2 = load i8, ptr %0, align 1, !dbg !1525, !range !780, !noundef !55
  %3 = trunc i8 %2 to i1, !dbg !1525
  ret i1 %3, !dbg !1525
}

; core::option::Option<T>::is_some
; Function Attrs: inlinehint noredzone nounwind
define hidden zeroext i1 @"_ZN4core6option15Option$LT$T$GT$7is_some17had2fb40afd915a2cE"(ptr align 1 %self) unnamed_addr #0 !dbg !1526 {
start:
  %self.dbg.spill = alloca ptr, align 8
  %0 = alloca i8, align 1
  store ptr %self, ptr %self.dbg.spill, align 8
  call void @llvm.dbg.declare(metadata ptr %self.dbg.spill, metadata !1531, metadata !DIExpression()), !dbg !1532
  %1 = load i8, ptr %self, align 1, !dbg !1533, !range !780, !noundef !55
  %2 = trunc i8 %1 to i1, !dbg !1533
  %_2 = zext i1 %2 to i64, !dbg !1533
  %3 = icmp eq i64 %_2, 1, !dbg !1534
  br i1 %3, label %bb2, label %bb1, !dbg !1534

bb2:                                              ; preds = %start
  store i8 1, ptr %0, align 1, !dbg !1534
  br label %bb3, !dbg !1534

bb1:                                              ; preds = %start
  store i8 0, ptr %0, align 1, !dbg !1534
  br label %bb3, !dbg !1534

bb3:                                              ; preds = %bb2, %bb1
  %4 = load i8, ptr %0, align 1, !dbg !1535, !range !780, !noundef !55
  %5 = trunc i8 %4 to i1, !dbg !1535
  ret i1 %5, !dbg !1535
}

; core::option::Option<T>::is_some
; Function Attrs: inlinehint noredzone nounwind
define hidden zeroext i1 @"_ZN4core6option15Option$LT$T$GT$7is_some17hba913630386a6435E"(ptr align 4 %self) unnamed_addr #0 !dbg !1536 {
start:
  %self.dbg.spill = alloca ptr, align 8
  %0 = alloca i8, align 1
  store ptr %self, ptr %self.dbg.spill, align 8
  call void @llvm.dbg.declare(metadata ptr %self.dbg.spill, metadata !1541, metadata !DIExpression()), !dbg !1542
  %1 = load i32, ptr %self, align 4, !dbg !1543, !range !1296, !noundef !55
  %_2 = zext i32 %1 to i64, !dbg !1543
  %2 = icmp eq i64 %_2, 1, !dbg !1544
  br i1 %2, label %bb2, label %bb1, !dbg !1544

bb2:                                              ; preds = %start
  store i8 1, ptr %0, align 1, !dbg !1544
  br label %bb3, !dbg !1544

bb1:                                              ; preds = %start
  store i8 0, ptr %0, align 1, !dbg !1544
  br label %bb3, !dbg !1544

bb3:                                              ; preds = %bb2, %bb1
  %3 = load i8, ptr %0, align 1, !dbg !1545, !range !780, !noundef !55
  %4 = trunc i8 %3 to i1, !dbg !1545
  ret i1 %4, !dbg !1545
}

; core::option::Option<T>::is_some
; Function Attrs: inlinehint noredzone nounwind
define hidden zeroext i1 @"_ZN4core6option15Option$LT$T$GT$7is_some17hc2093393ef630b72E"(ptr align 8 %self) unnamed_addr #0 !dbg !1546 {
start:
  %self.dbg.spill = alloca ptr, align 8
  %0 = alloca i8, align 1
  store ptr %self, ptr %self.dbg.spill, align 8
  call void @llvm.dbg.declare(metadata ptr %self.dbg.spill, metadata !1551, metadata !DIExpression()), !dbg !1552
  %_2 = load i64, ptr %self, align 8, !dbg !1553, !range !786, !noundef !55
  %1 = icmp eq i64 %_2, 1, !dbg !1554
  br i1 %1, label %bb2, label %bb1, !dbg !1554

bb2:                                              ; preds = %start
  store i8 1, ptr %0, align 1, !dbg !1554
  br label %bb3, !dbg !1554

bb1:                                              ; preds = %start
  store i8 0, ptr %0, align 1, !dbg !1554
  br label %bb3, !dbg !1554

bb3:                                              ; preds = %bb2, %bb1
  %2 = load i8, ptr %0, align 1, !dbg !1555, !range !780, !noundef !55
  %3 = trunc i8 %2 to i1, !dbg !1555
  ret i1 %3, !dbg !1555
}

; core::option::Option<T>::is_some
; Function Attrs: inlinehint noredzone nounwind
define hidden zeroext i1 @"_ZN4core6option15Option$LT$T$GT$7is_some17he0aa8f702787bf89E"(ptr align 2 %self) unnamed_addr #0 !dbg !1556 {
start:
  %self.dbg.spill = alloca ptr, align 8
  %0 = alloca i8, align 1
  store ptr %self, ptr %self.dbg.spill, align 8
  call void @llvm.dbg.declare(metadata ptr %self.dbg.spill, metadata !1561, metadata !DIExpression()), !dbg !1562
  %1 = load i16, ptr %self, align 2, !dbg !1563, !range !1237, !noundef !55
  %_2 = zext i16 %1 to i64, !dbg !1563
  %2 = icmp eq i64 %_2, 1, !dbg !1564
  br i1 %2, label %bb2, label %bb1, !dbg !1564

bb2:                                              ; preds = %start
  store i8 1, ptr %0, align 1, !dbg !1564
  br label %bb3, !dbg !1564

bb1:                                              ; preds = %start
  store i8 0, ptr %0, align 1, !dbg !1564
  br label %bb3, !dbg !1564

bb3:                                              ; preds = %bb2, %bb1
  %3 = load i8, ptr %0, align 1, !dbg !1565, !range !780, !noundef !55
  %4 = trunc i8 %3 to i1, !dbg !1565
  ret i1 %4, !dbg !1565
}

; core::option::Option<T>::is_some
; Function Attrs: inlinehint noredzone nounwind
define hidden zeroext i1 @"_ZN4core6option15Option$LT$T$GT$7is_some17hfc0024d42e28e467E"(ptr align 8 %self) unnamed_addr #0 !dbg !1566 {
start:
  %self.dbg.spill = alloca ptr, align 8
  %0 = alloca i8, align 1
  store ptr %self, ptr %self.dbg.spill, align 8
  call void @llvm.dbg.declare(metadata ptr %self.dbg.spill, metadata !1571, metadata !DIExpression()), !dbg !1572
  %_2 = load i64, ptr %self, align 8, !dbg !1573, !range !786, !noundef !55
  %1 = icmp eq i64 %_2, 1, !dbg !1574
  br i1 %1, label %bb2, label %bb1, !dbg !1574

bb2:                                              ; preds = %start
  store i8 1, ptr %0, align 1, !dbg !1574
  br label %bb3, !dbg !1574

bb1:                                              ; preds = %start
  store i8 0, ptr %0, align 1, !dbg !1574
  br label %bb3, !dbg !1574

bb3:                                              ; preds = %bb2, %bb1
  %2 = load i8, ptr %0, align 1, !dbg !1575, !range !780, !noundef !55
  %3 = trunc i8 %2 to i1, !dbg !1575
  ret i1 %3, !dbg !1575
}

; core::result::Result<T,E>::ok
; Function Attrs: inlinehint noredzone nounwind
define hidden { i32, i32 } @"_ZN4core6result19Result$LT$T$C$E$GT$2ok17h0dcbf402d607d5c9E"(i32 %0) unnamed_addr #0 !dbg !1576 {
start:
  %x.dbg.spill1 = alloca i32, align 4
  %x.dbg.spill = alloca %"core::convert::Infallible", align 1
  %1 = alloca { i32, i32 }, align 4
  %self = alloca i32, align 4
  store i32 %0, ptr %self, align 4
  call void @llvm.dbg.declare(metadata ptr %self, metadata !1600, metadata !DIExpression()), !dbg !1605
  call void @llvm.dbg.declare(metadata ptr %x.dbg.spill, metadata !1603, metadata !DIExpression()), !dbg !1606
  br i1 true, label %bb3, label %bb1, !dbg !1607

bb3:                                              ; preds = %start
  %x = load i32, ptr %self, align 4, !dbg !1608
  store i32 %x, ptr %x.dbg.spill1, align 4, !dbg !1608
  call void @llvm.dbg.declare(metadata ptr %x.dbg.spill1, metadata !1601, metadata !DIExpression()), !dbg !1609
  %2 = getelementptr inbounds { i32, i32 }, ptr %1, i32 0, i32 1, !dbg !1610
  store i32 %x, ptr %2, align 4, !dbg !1610
  store i32 1, ptr %1, align 4, !dbg !1610
  br label %bb4, !dbg !1611

bb1:                                              ; preds = %start
  store i32 0, ptr %1, align 4, !dbg !1612
  br label %bb4, !dbg !1613

bb2:                                              ; No predecessors!
  unreachable, !dbg !1614

bb4:                                              ; preds = %bb3, %bb1
  %3 = getelementptr inbounds { i32, i32 }, ptr %1, i32 0, i32 0, !dbg !1615
  %4 = load i32, ptr %3, align 4, !dbg !1615, !range !1296, !noundef !55
  %5 = getelementptr inbounds { i32, i32 }, ptr %1, i32 0, i32 1, !dbg !1615
  %6 = load i32, ptr %5, align 4, !dbg !1615
  %7 = insertvalue { i32, i32 } undef, i32 %4, 0, !dbg !1615
  %8 = insertvalue { i32, i32 } %7, i32 %6, 1, !dbg !1615
  ret { i32, i32 } %8, !dbg !1615
}

; core::result::Result<T,E>::ok
; Function Attrs: inlinehint noredzone nounwind
define hidden { i64, i64 } @"_ZN4core6result19Result$LT$T$C$E$GT$2ok17h252c48abba276874E"(i64 %0) unnamed_addr #0 !dbg !1616 {
start:
  %x.dbg.spill1 = alloca i64, align 8
  %x.dbg.spill = alloca %"core::convert::Infallible", align 1
  %1 = alloca { i64, i64 }, align 8
  %self = alloca i64, align 8
  store i64 %0, ptr %self, align 8
  call void @llvm.dbg.declare(metadata ptr %self, metadata !1633, metadata !DIExpression()), !dbg !1638
  call void @llvm.dbg.declare(metadata ptr %x.dbg.spill, metadata !1636, metadata !DIExpression()), !dbg !1639
  br i1 true, label %bb3, label %bb1, !dbg !1640

bb3:                                              ; preds = %start
  %x = load i64, ptr %self, align 8, !dbg !1641
  store i64 %x, ptr %x.dbg.spill1, align 8, !dbg !1641
  call void @llvm.dbg.declare(metadata ptr %x.dbg.spill1, metadata !1634, metadata !DIExpression()), !dbg !1642
  %2 = getelementptr inbounds { i64, i64 }, ptr %1, i32 0, i32 1, !dbg !1643
  store i64 %x, ptr %2, align 8, !dbg !1643
  store i64 1, ptr %1, align 8, !dbg !1643
  br label %bb4, !dbg !1644

bb1:                                              ; preds = %start
  store i64 0, ptr %1, align 8, !dbg !1645
  br label %bb4, !dbg !1646

bb2:                                              ; No predecessors!
  unreachable, !dbg !1647

bb4:                                              ; preds = %bb3, %bb1
  %3 = getelementptr inbounds { i64, i64 }, ptr %1, i32 0, i32 0, !dbg !1648
  %4 = load i64, ptr %3, align 8, !dbg !1648, !range !786, !noundef !55
  %5 = getelementptr inbounds { i64, i64 }, ptr %1, i32 0, i32 1, !dbg !1648
  %6 = load i64, ptr %5, align 8, !dbg !1648
  %7 = insertvalue { i64, i64 } undef, i64 %4, 0, !dbg !1648
  %8 = insertvalue { i64, i64 } %7, i64 %6, 1, !dbg !1648
  ret { i64, i64 } %8, !dbg !1648
}

; core::result::Result<T,E>::ok
; Function Attrs: inlinehint noredzone nounwind
define hidden { i8, i8 } @"_ZN4core6result19Result$LT$T$C$E$GT$2ok17h43a890c690fa5b7eE"(i1 zeroext %0, i8 %1) unnamed_addr #0 !dbg !1649 {
start:
  %x.dbg.spill1 = alloca i8, align 1
  %x.dbg.spill = alloca %"core::num::error::TryFromIntError", align 1
  %2 = alloca { i8, i8 }, align 1
  %self = alloca { i8, i8 }, align 1
  %3 = getelementptr inbounds { i8, i8 }, ptr %self, i32 0, i32 0
  %4 = zext i1 %0 to i8
  store i8 %4, ptr %3, align 1
  %5 = getelementptr inbounds { i8, i8 }, ptr %self, i32 0, i32 1
  store i8 %1, ptr %5, align 1
  call void @llvm.dbg.declare(metadata ptr %self, metadata !1672, metadata !DIExpression()), !dbg !1677
  call void @llvm.dbg.declare(metadata ptr %x.dbg.spill, metadata !1675, metadata !DIExpression()), !dbg !1678
  %6 = load i8, ptr %self, align 1, !dbg !1679, !range !780, !noundef !55
  %7 = trunc i8 %6 to i1, !dbg !1679
  %_2 = zext i1 %7 to i64, !dbg !1679
  %8 = icmp eq i64 %_2, 0, !dbg !1680
  br i1 %8, label %bb3, label %bb1, !dbg !1680

bb3:                                              ; preds = %start
  %9 = getelementptr inbounds { i8, i8 }, ptr %self, i32 0, i32 1, !dbg !1681
  %x = load i8, ptr %9, align 1, !dbg !1681
  store i8 %x, ptr %x.dbg.spill1, align 1, !dbg !1681
  call void @llvm.dbg.declare(metadata ptr %x.dbg.spill1, metadata !1673, metadata !DIExpression()), !dbg !1682
  %10 = getelementptr inbounds { i8, i8 }, ptr %2, i32 0, i32 1, !dbg !1683
  store i8 %x, ptr %10, align 1, !dbg !1683
  store i8 1, ptr %2, align 1, !dbg !1683
  br label %bb4, !dbg !1684

bb1:                                              ; preds = %start
  store i8 0, ptr %2, align 1, !dbg !1685
  br label %bb4, !dbg !1686

bb2:                                              ; No predecessors!
  unreachable, !dbg !1679

bb4:                                              ; preds = %bb3, %bb1
  %11 = getelementptr inbounds { i8, i8 }, ptr %2, i32 0, i32 0, !dbg !1687
  %12 = load i8, ptr %11, align 1, !dbg !1687, !range !780, !noundef !55
  %13 = trunc i8 %12 to i1, !dbg !1687
  %14 = getelementptr inbounds { i8, i8 }, ptr %2, i32 0, i32 1, !dbg !1687
  %15 = load i8, ptr %14, align 1, !dbg !1687
  %16 = zext i1 %13 to i8, !dbg !1687
  %17 = insertvalue { i8, i8 } undef, i8 %16, 0, !dbg !1687
  %18 = insertvalue { i8, i8 } %17, i8 %15, 1, !dbg !1687
  ret { i8, i8 } %18, !dbg !1687
}

; core::result::Result<T,E>::ok
; Function Attrs: inlinehint noredzone nounwind
define hidden { i64, i128 } @"_ZN4core6result19Result$LT$T$C$E$GT$2ok17h5a2c224219b07073E"(i128 %0) unnamed_addr #0 !dbg !1688 {
start:
  %x.dbg.spill1 = alloca i128, align 8
  %x.dbg.spill = alloca %"core::convert::Infallible", align 1
  %1 = alloca { i64, i128 }, align 8
  %self = alloca i128, align 8
  store i128 %0, ptr %self, align 8
  call void @llvm.dbg.declare(metadata ptr %self, metadata !1705, metadata !DIExpression()), !dbg !1710
  call void @llvm.dbg.declare(metadata ptr %x.dbg.spill, metadata !1708, metadata !DIExpression()), !dbg !1711
  br i1 true, label %bb3, label %bb1, !dbg !1712

bb3:                                              ; preds = %start
  %x = load i128, ptr %self, align 8, !dbg !1713
  store i128 %x, ptr %x.dbg.spill1, align 8, !dbg !1713
  call void @llvm.dbg.declare(metadata ptr %x.dbg.spill1, metadata !1706, metadata !DIExpression()), !dbg !1714
  %2 = getelementptr inbounds { i64, i128 }, ptr %1, i32 0, i32 1, !dbg !1715
  store i128 %x, ptr %2, align 8, !dbg !1715
  store i64 1, ptr %1, align 8, !dbg !1715
  br label %bb4, !dbg !1716

bb1:                                              ; preds = %start
  store i64 0, ptr %1, align 8, !dbg !1717
  br label %bb4, !dbg !1718

bb2:                                              ; No predecessors!
  unreachable, !dbg !1719

bb4:                                              ; preds = %bb3, %bb1
  %3 = getelementptr inbounds { i64, i128 }, ptr %1, i32 0, i32 0, !dbg !1720
  %4 = load i64, ptr %3, align 8, !dbg !1720, !range !786, !noundef !55
  %5 = getelementptr inbounds { i64, i128 }, ptr %1, i32 0, i32 1, !dbg !1720
  %6 = load i128, ptr %5, align 8, !dbg !1720
  %7 = insertvalue { i64, i128 } undef, i64 %4, 0, !dbg !1720
  %8 = insertvalue { i64, i128 } %7, i128 %6, 1, !dbg !1720
  ret { i64, i128 } %8, !dbg !1720
}

; core::result::Result<T,E>::ok
; Function Attrs: inlinehint noredzone nounwind
define hidden { i64, i64 } @"_ZN4core6result19Result$LT$T$C$E$GT$2ok17h6f30bb2547066fadE"(i64 %0, i64 %1) unnamed_addr #0 !dbg !1721 {
start:
  %x.dbg.spill1 = alloca i64, align 8
  %x.dbg.spill = alloca %"core::num::error::TryFromIntError", align 1
  %2 = alloca { i64, i64 }, align 8
  %self = alloca { i64, i64 }, align 8
  %3 = getelementptr inbounds { i64, i64 }, ptr %self, i32 0, i32 0
  store i64 %0, ptr %3, align 8
  %4 = getelementptr inbounds { i64, i64 }, ptr %self, i32 0, i32 1
  store i64 %1, ptr %4, align 8
  call void @llvm.dbg.declare(metadata ptr %self, metadata !1752, metadata !DIExpression()), !dbg !1757
  call void @llvm.dbg.declare(metadata ptr %x.dbg.spill, metadata !1755, metadata !DIExpression()), !dbg !1758
  %_2 = load i64, ptr %self, align 8, !dbg !1759, !range !786, !noundef !55
  %5 = icmp eq i64 %_2, 0, !dbg !1760
  br i1 %5, label %bb3, label %bb1, !dbg !1760

bb3:                                              ; preds = %start
  %6 = getelementptr inbounds { i64, i64 }, ptr %self, i32 0, i32 1, !dbg !1761
  %x = load i64, ptr %6, align 8, !dbg !1761
  store i64 %x, ptr %x.dbg.spill1, align 8, !dbg !1761
  call void @llvm.dbg.declare(metadata ptr %x.dbg.spill1, metadata !1753, metadata !DIExpression()), !dbg !1762
  %7 = getelementptr inbounds { i64, i64 }, ptr %2, i32 0, i32 1, !dbg !1763
  store i64 %x, ptr %7, align 8, !dbg !1763
  store i64 1, ptr %2, align 8, !dbg !1763
  br label %bb4, !dbg !1764

bb1:                                              ; preds = %start
  store i64 0, ptr %2, align 8, !dbg !1765
  br label %bb4, !dbg !1766

bb2:                                              ; No predecessors!
  unreachable, !dbg !1759

bb4:                                              ; preds = %bb3, %bb1
  %8 = getelementptr inbounds { i64, i64 }, ptr %2, i32 0, i32 0, !dbg !1767
  %9 = load i64, ptr %8, align 8, !dbg !1767, !range !786, !noundef !55
  %10 = getelementptr inbounds { i64, i64 }, ptr %2, i32 0, i32 1, !dbg !1767
  %11 = load i64, ptr %10, align 8, !dbg !1767
  %12 = insertvalue { i64, i64 } undef, i64 %9, 0, !dbg !1767
  %13 = insertvalue { i64, i64 } %12, i64 %11, 1, !dbg !1767
  ret { i64, i64 } %13, !dbg !1767
}

; core::result::Result<T,E>::ok
; Function Attrs: inlinehint noredzone nounwind
define hidden { i16, i16 } @"_ZN4core6result19Result$LT$T$C$E$GT$2ok17h7facb82ce6ac1108E"(i16 %0, i16 %1) unnamed_addr #0 !dbg !1768 {
start:
  %x.dbg.spill1 = alloca i16, align 2
  %x.dbg.spill = alloca %"core::num::error::TryFromIntError", align 1
  %2 = alloca { i16, i16 }, align 2
  %self = alloca { i16, i16 }, align 2
  %3 = getelementptr inbounds { i16, i16 }, ptr %self, i32 0, i32 0
  store i16 %0, ptr %3, align 2
  %4 = getelementptr inbounds { i16, i16 }, ptr %self, i32 0, i32 1
  store i16 %1, ptr %4, align 2
  call void @llvm.dbg.declare(metadata ptr %self, metadata !1786, metadata !DIExpression()), !dbg !1791
  call void @llvm.dbg.declare(metadata ptr %x.dbg.spill, metadata !1789, metadata !DIExpression()), !dbg !1792
  %5 = load i16, ptr %self, align 2, !dbg !1793, !range !1237, !noundef !55
  %_2 = zext i16 %5 to i64, !dbg !1793
  %6 = icmp eq i64 %_2, 0, !dbg !1794
  br i1 %6, label %bb3, label %bb1, !dbg !1794

bb3:                                              ; preds = %start
  %7 = getelementptr inbounds { i16, i16 }, ptr %self, i32 0, i32 1, !dbg !1795
  %x = load i16, ptr %7, align 2, !dbg !1795
  store i16 %x, ptr %x.dbg.spill1, align 2, !dbg !1795
  call void @llvm.dbg.declare(metadata ptr %x.dbg.spill1, metadata !1787, metadata !DIExpression()), !dbg !1796
  %8 = getelementptr inbounds { i16, i16 }, ptr %2, i32 0, i32 1, !dbg !1797
  store i16 %x, ptr %8, align 2, !dbg !1797
  store i16 1, ptr %2, align 2, !dbg !1797
  br label %bb4, !dbg !1798

bb1:                                              ; preds = %start
  store i16 0, ptr %2, align 2, !dbg !1799
  br label %bb4, !dbg !1800

bb2:                                              ; No predecessors!
  unreachable, !dbg !1793

bb4:                                              ; preds = %bb3, %bb1
  %9 = getelementptr inbounds { i16, i16 }, ptr %2, i32 0, i32 0, !dbg !1801
  %10 = load i16, ptr %9, align 2, !dbg !1801, !range !1237, !noundef !55
  %11 = getelementptr inbounds { i16, i16 }, ptr %2, i32 0, i32 1, !dbg !1801
  %12 = load i16, ptr %11, align 2, !dbg !1801
  %13 = insertvalue { i16, i16 } undef, i16 %10, 0, !dbg !1801
  %14 = insertvalue { i16, i16 } %13, i16 %12, 1, !dbg !1801
  ret { i16, i16 } %14, !dbg !1801
}

; core::result::Result<T,E>::ok
; Function Attrs: inlinehint noredzone nounwind
define hidden { i64, i64 } @"_ZN4core6result19Result$LT$T$C$E$GT$2ok17h8d68b07b73e49647E"(i64 %0) unnamed_addr #0 !dbg !1802 {
start:
  %x.dbg.spill1 = alloca i64, align 8
  %x.dbg.spill = alloca %"core::convert::Infallible", align 1
  %1 = alloca { i64, i64 }, align 8
  %self = alloca i64, align 8
  store i64 %0, ptr %self, align 8
  call void @llvm.dbg.declare(metadata ptr %self, metadata !1819, metadata !DIExpression()), !dbg !1824
  call void @llvm.dbg.declare(metadata ptr %x.dbg.spill, metadata !1822, metadata !DIExpression()), !dbg !1825
  br i1 true, label %bb3, label %bb1, !dbg !1826

bb3:                                              ; preds = %start
  %x = load i64, ptr %self, align 8, !dbg !1827
  store i64 %x, ptr %x.dbg.spill1, align 8, !dbg !1827
  call void @llvm.dbg.declare(metadata ptr %x.dbg.spill1, metadata !1820, metadata !DIExpression()), !dbg !1828
  %2 = getelementptr inbounds { i64, i64 }, ptr %1, i32 0, i32 1, !dbg !1829
  store i64 %x, ptr %2, align 8, !dbg !1829
  store i64 1, ptr %1, align 8, !dbg !1829
  br label %bb4, !dbg !1830

bb1:                                              ; preds = %start
  store i64 0, ptr %1, align 8, !dbg !1831
  br label %bb4, !dbg !1832

bb2:                                              ; No predecessors!
  unreachable, !dbg !1833

bb4:                                              ; preds = %bb3, %bb1
  %3 = getelementptr inbounds { i64, i64 }, ptr %1, i32 0, i32 0, !dbg !1834
  %4 = load i64, ptr %3, align 8, !dbg !1834, !range !786, !noundef !55
  %5 = getelementptr inbounds { i64, i64 }, ptr %1, i32 0, i32 1, !dbg !1834
  %6 = load i64, ptr %5, align 8, !dbg !1834
  %7 = insertvalue { i64, i64 } undef, i64 %4, 0, !dbg !1834
  %8 = insertvalue { i64, i64 } %7, i64 %6, 1, !dbg !1834
  ret { i64, i64 } %8, !dbg !1834
}

; core::result::Result<T,E>::ok
; Function Attrs: inlinehint noredzone nounwind
define hidden { i16, i16 } @"_ZN4core6result19Result$LT$T$C$E$GT$2ok17hb68ac14f7a336900E"(i16 %0, i16 %1) unnamed_addr #0 !dbg !1835 {
start:
  %x.dbg.spill1 = alloca i16, align 2
  %x.dbg.spill = alloca %"core::num::error::TryFromIntError", align 1
  %2 = alloca { i16, i16 }, align 2
  %self = alloca { i16, i16 }, align 2
  %3 = getelementptr inbounds { i16, i16 }, ptr %self, i32 0, i32 0
  store i16 %0, ptr %3, align 2
  %4 = getelementptr inbounds { i16, i16 }, ptr %self, i32 0, i32 1
  store i16 %1, ptr %4, align 2
  call void @llvm.dbg.declare(metadata ptr %self, metadata !1853, metadata !DIExpression()), !dbg !1858
  call void @llvm.dbg.declare(metadata ptr %x.dbg.spill, metadata !1856, metadata !DIExpression()), !dbg !1859
  %5 = load i16, ptr %self, align 2, !dbg !1860, !range !1237, !noundef !55
  %_2 = zext i16 %5 to i64, !dbg !1860
  %6 = icmp eq i64 %_2, 0, !dbg !1861
  br i1 %6, label %bb3, label %bb1, !dbg !1861

bb3:                                              ; preds = %start
  %7 = getelementptr inbounds { i16, i16 }, ptr %self, i32 0, i32 1, !dbg !1862
  %x = load i16, ptr %7, align 2, !dbg !1862
  store i16 %x, ptr %x.dbg.spill1, align 2, !dbg !1862
  call void @llvm.dbg.declare(metadata ptr %x.dbg.spill1, metadata !1854, metadata !DIExpression()), !dbg !1863
  %8 = getelementptr inbounds { i16, i16 }, ptr %2, i32 0, i32 1, !dbg !1864
  store i16 %x, ptr %8, align 2, !dbg !1864
  store i16 1, ptr %2, align 2, !dbg !1864
  br label %bb4, !dbg !1865

bb1:                                              ; preds = %start
  store i16 0, ptr %2, align 2, !dbg !1866
  br label %bb4, !dbg !1867

bb2:                                              ; No predecessors!
  unreachable, !dbg !1860

bb4:                                              ; preds = %bb3, %bb1
  %9 = getelementptr inbounds { i16, i16 }, ptr %2, i32 0, i32 0, !dbg !1868
  %10 = load i16, ptr %9, align 2, !dbg !1868, !range !1237, !noundef !55
  %11 = getelementptr inbounds { i16, i16 }, ptr %2, i32 0, i32 1, !dbg !1868
  %12 = load i16, ptr %11, align 2, !dbg !1868
  %13 = insertvalue { i16, i16 } undef, i16 %10, 0, !dbg !1868
  %14 = insertvalue { i16, i16 } %13, i16 %12, 1, !dbg !1868
  ret { i16, i16 } %14, !dbg !1868
}

; core::result::Result<T,E>::ok
; Function Attrs: inlinehint noredzone nounwind
define hidden { i8, i8 } @"_ZN4core6result19Result$LT$T$C$E$GT$2ok17hd0c5a2a6e093b7e8E"(i1 zeroext %0, i8 %1) unnamed_addr #0 !dbg !1869 {
start:
  %x.dbg.spill1 = alloca i8, align 1
  %x.dbg.spill = alloca %"core::num::error::TryFromIntError", align 1
  %2 = alloca { i8, i8 }, align 1
  %self = alloca { i8, i8 }, align 1
  %3 = getelementptr inbounds { i8, i8 }, ptr %self, i32 0, i32 0
  %4 = zext i1 %0 to i8
  store i8 %4, ptr %3, align 1
  %5 = getelementptr inbounds { i8, i8 }, ptr %self, i32 0, i32 1
  store i8 %1, ptr %5, align 1
  call void @llvm.dbg.declare(metadata ptr %self, metadata !1887, metadata !DIExpression()), !dbg !1892
  call void @llvm.dbg.declare(metadata ptr %x.dbg.spill, metadata !1890, metadata !DIExpression()), !dbg !1893
  %6 = load i8, ptr %self, align 1, !dbg !1894, !range !780, !noundef !55
  %7 = trunc i8 %6 to i1, !dbg !1894
  %_2 = zext i1 %7 to i64, !dbg !1894
  %8 = icmp eq i64 %_2, 0, !dbg !1895
  br i1 %8, label %bb3, label %bb1, !dbg !1895

bb3:                                              ; preds = %start
  %9 = getelementptr inbounds { i8, i8 }, ptr %self, i32 0, i32 1, !dbg !1896
  %x = load i8, ptr %9, align 1, !dbg !1896
  store i8 %x, ptr %x.dbg.spill1, align 1, !dbg !1896
  call void @llvm.dbg.declare(metadata ptr %x.dbg.spill1, metadata !1888, metadata !DIExpression()), !dbg !1897
  %10 = getelementptr inbounds { i8, i8 }, ptr %2, i32 0, i32 1, !dbg !1898
  store i8 %x, ptr %10, align 1, !dbg !1898
  store i8 1, ptr %2, align 1, !dbg !1898
  br label %bb4, !dbg !1899

bb1:                                              ; preds = %start
  store i8 0, ptr %2, align 1, !dbg !1900
  br label %bb4, !dbg !1901

bb2:                                              ; No predecessors!
  unreachable, !dbg !1894

bb4:                                              ; preds = %bb3, %bb1
  %11 = getelementptr inbounds { i8, i8 }, ptr %2, i32 0, i32 0, !dbg !1902
  %12 = load i8, ptr %11, align 1, !dbg !1902, !range !780, !noundef !55
  %13 = trunc i8 %12 to i1, !dbg !1902
  %14 = getelementptr inbounds { i8, i8 }, ptr %2, i32 0, i32 1, !dbg !1902
  %15 = load i8, ptr %14, align 1, !dbg !1902
  %16 = zext i1 %13 to i8, !dbg !1902
  %17 = insertvalue { i8, i8 } undef, i8 %16, 0, !dbg !1902
  %18 = insertvalue { i8, i8 } %17, i8 %15, 1, !dbg !1902
  ret { i8, i8 } %18, !dbg !1902
}

; core::result::Result<T,E>::ok
; Function Attrs: inlinehint noredzone nounwind
define hidden { i64, i64 } @"_ZN4core6result19Result$LT$T$C$E$GT$2ok17he42756ed3b041821E"(i64 %0, i64 %1) unnamed_addr #0 !dbg !1903 {
start:
  %x.dbg.spill1 = alloca i64, align 8
  %x.dbg.spill = alloca %"core::num::error::TryFromIntError", align 1
  %2 = alloca { i64, i64 }, align 8
  %self = alloca { i64, i64 }, align 8
  %3 = getelementptr inbounds { i64, i64 }, ptr %self, i32 0, i32 0
  store i64 %0, ptr %3, align 8
  %4 = getelementptr inbounds { i64, i64 }, ptr %self, i32 0, i32 1
  store i64 %1, ptr %4, align 8
  call void @llvm.dbg.declare(metadata ptr %self, metadata !1921, metadata !DIExpression()), !dbg !1926
  call void @llvm.dbg.declare(metadata ptr %x.dbg.spill, metadata !1924, metadata !DIExpression()), !dbg !1927
  %_2 = load i64, ptr %self, align 8, !dbg !1928, !range !786, !noundef !55
  %5 = icmp eq i64 %_2, 0, !dbg !1929
  br i1 %5, label %bb3, label %bb1, !dbg !1929

bb3:                                              ; preds = %start
  %6 = getelementptr inbounds { i64, i64 }, ptr %self, i32 0, i32 1, !dbg !1930
  %x = load i64, ptr %6, align 8, !dbg !1930
  store i64 %x, ptr %x.dbg.spill1, align 8, !dbg !1930
  call void @llvm.dbg.declare(metadata ptr %x.dbg.spill1, metadata !1922, metadata !DIExpression()), !dbg !1931
  %7 = getelementptr inbounds { i64, i64 }, ptr %2, i32 0, i32 1, !dbg !1932
  store i64 %x, ptr %7, align 8, !dbg !1932
  store i64 1, ptr %2, align 8, !dbg !1932
  br label %bb4, !dbg !1933

bb1:                                              ; preds = %start
  store i64 0, ptr %2, align 8, !dbg !1934
  br label %bb4, !dbg !1935

bb2:                                              ; No predecessors!
  unreachable, !dbg !1928

bb4:                                              ; preds = %bb3, %bb1
  %8 = getelementptr inbounds { i64, i64 }, ptr %2, i32 0, i32 0, !dbg !1936
  %9 = load i64, ptr %8, align 8, !dbg !1936, !range !786, !noundef !55
  %10 = getelementptr inbounds { i64, i64 }, ptr %2, i32 0, i32 1, !dbg !1936
  %11 = load i64, ptr %10, align 8, !dbg !1936
  %12 = insertvalue { i64, i64 } undef, i64 %9, 0, !dbg !1936
  %13 = insertvalue { i64, i64 } %12, i64 %11, 1, !dbg !1936
  ret { i64, i64 } %13, !dbg !1936
}

; core::result::Result<T,E>::ok
; Function Attrs: inlinehint noredzone nounwind
define hidden { i64, i128 } @"_ZN4core6result19Result$LT$T$C$E$GT$2ok17hf3569982f10ff664E"(i128 %0) unnamed_addr #0 !dbg !1937 {
start:
  %x.dbg.spill1 = alloca i128, align 8
  %x.dbg.spill = alloca %"core::convert::Infallible", align 1
  %1 = alloca { i64, i128 }, align 8
  %self = alloca i128, align 8
  store i128 %0, ptr %self, align 8
  call void @llvm.dbg.declare(metadata ptr %self, metadata !1954, metadata !DIExpression()), !dbg !1959
  call void @llvm.dbg.declare(metadata ptr %x.dbg.spill, metadata !1957, metadata !DIExpression()), !dbg !1960
  br i1 true, label %bb3, label %bb1, !dbg !1961

bb3:                                              ; preds = %start
  %x = load i128, ptr %self, align 8, !dbg !1962
  store i128 %x, ptr %x.dbg.spill1, align 8, !dbg !1962
  call void @llvm.dbg.declare(metadata ptr %x.dbg.spill1, metadata !1955, metadata !DIExpression()), !dbg !1963
  %2 = getelementptr inbounds { i64, i128 }, ptr %1, i32 0, i32 1, !dbg !1964
  store i128 %x, ptr %2, align 8, !dbg !1964
  store i64 1, ptr %1, align 8, !dbg !1964
  br label %bb4, !dbg !1965

bb1:                                              ; preds = %start
  store i64 0, ptr %1, align 8, !dbg !1966
  br label %bb4, !dbg !1967

bb2:                                              ; No predecessors!
  unreachable, !dbg !1968

bb4:                                              ; preds = %bb3, %bb1
  %3 = getelementptr inbounds { i64, i128 }, ptr %1, i32 0, i32 0, !dbg !1969
  %4 = load i64, ptr %3, align 8, !dbg !1969, !range !786, !noundef !55
  %5 = getelementptr inbounds { i64, i128 }, ptr %1, i32 0, i32 1, !dbg !1969
  %6 = load i128, ptr %5, align 8, !dbg !1969
  %7 = insertvalue { i64, i128 } undef, i64 %4, 0, !dbg !1969
  %8 = insertvalue { i64, i128 } %7, i128 %6, 1, !dbg !1969
  ret { i64, i128 } %8, !dbg !1969
}

; core::result::Result<T,E>::ok
; Function Attrs: inlinehint noredzone nounwind
define hidden { i32, i32 } @"_ZN4core6result19Result$LT$T$C$E$GT$2ok17hf82cb1e528038fecE"(i32 %0, i32 %1) unnamed_addr #0 !dbg !1970 {
start:
  %x.dbg.spill1 = alloca i32, align 4
  %x.dbg.spill = alloca %"core::num::error::TryFromIntError", align 1
  %2 = alloca { i32, i32 }, align 4
  %self = alloca { i32, i32 }, align 4
  %3 = getelementptr inbounds { i32, i32 }, ptr %self, i32 0, i32 0
  store i32 %0, ptr %3, align 4
  %4 = getelementptr inbounds { i32, i32 }, ptr %self, i32 0, i32 1
  store i32 %1, ptr %4, align 4
  call void @llvm.dbg.declare(metadata ptr %self, metadata !1988, metadata !DIExpression()), !dbg !1993
  call void @llvm.dbg.declare(metadata ptr %x.dbg.spill, metadata !1991, metadata !DIExpression()), !dbg !1994
  %5 = load i32, ptr %self, align 4, !dbg !1995, !range !1296, !noundef !55
  %_2 = zext i32 %5 to i64, !dbg !1995
  %6 = icmp eq i64 %_2, 0, !dbg !1996
  br i1 %6, label %bb3, label %bb1, !dbg !1996

bb3:                                              ; preds = %start
  %7 = getelementptr inbounds { i32, i32 }, ptr %self, i32 0, i32 1, !dbg !1997
  %x = load i32, ptr %7, align 4, !dbg !1997
  store i32 %x, ptr %x.dbg.spill1, align 4, !dbg !1997
  call void @llvm.dbg.declare(metadata ptr %x.dbg.spill1, metadata !1989, metadata !DIExpression()), !dbg !1998
  %8 = getelementptr inbounds { i32, i32 }, ptr %2, i32 0, i32 1, !dbg !1999
  store i32 %x, ptr %8, align 4, !dbg !1999
  store i32 1, ptr %2, align 4, !dbg !1999
  br label %bb4, !dbg !2000

bb1:                                              ; preds = %start
  store i32 0, ptr %2, align 4, !dbg !2001
  br label %bb4, !dbg !2002

bb2:                                              ; No predecessors!
  unreachable, !dbg !1995

bb4:                                              ; preds = %bb3, %bb1
  %9 = getelementptr inbounds { i32, i32 }, ptr %2, i32 0, i32 0, !dbg !2003
  %10 = load i32, ptr %9, align 4, !dbg !2003, !range !1296, !noundef !55
  %11 = getelementptr inbounds { i32, i32 }, ptr %2, i32 0, i32 1, !dbg !2003
  %12 = load i32, ptr %11, align 4, !dbg !2003
  %13 = insertvalue { i32, i32 } undef, i32 %10, 0, !dbg !2003
  %14 = insertvalue { i32, i32 } %13, i32 %12, 1, !dbg !2003
  ret { i32, i32 } %14, !dbg !2003
}

; core::convert::num::ptr_try_from_impls::<impl core::convert::TryFrom<u32> for isize>::try_from
; Function Attrs: inlinehint noredzone nounwind
define internal { i64, i64 } @"_ZN4core7convert3num18ptr_try_from_impls69_$LT$impl$u20$core..convert..TryFrom$LT$u32$GT$$u20$for$u20$isize$GT$8try_from17h12916df791756cbaE"(i32 %value) unnamed_addr #0 !dbg !2004 {
start:
  %value.dbg.spill = alloca i32, align 4
  %0 = alloca { i64, i64 }, align 8
  store i32 %value, ptr %value.dbg.spill, align 4
  call void @llvm.dbg.declare(metadata ptr %value.dbg.spill, metadata !2012, metadata !DIExpression()), !dbg !2013
  %_2 = zext i32 %value to i64, !dbg !2014
  %1 = getelementptr inbounds { i64, i64 }, ptr %0, i32 0, i32 1, !dbg !2015
  store i64 %_2, ptr %1, align 8, !dbg !2015
  store i64 0, ptr %0, align 8, !dbg !2015
  %2 = getelementptr inbounds { i64, i64 }, ptr %0, i32 0, i32 0, !dbg !2016
  %3 = load i64, ptr %2, align 8, !dbg !2016, !range !786, !noundef !55
  %4 = getelementptr inbounds { i64, i64 }, ptr %0, i32 0, i32 1, !dbg !2016
  %5 = load i64, ptr %4, align 8, !dbg !2016
  %6 = insertvalue { i64, i64 } undef, i64 %3, 0, !dbg !2016
  %7 = insertvalue { i64, i64 } %6, i64 %5, 1, !dbg !2016
  ret { i64, i64 } %7, !dbg !2016
}

; core::convert::num::ptr_try_from_impls::<impl core::convert::TryFrom<u32> for usize>::try_from
; Function Attrs: inlinehint noredzone nounwind
define internal { i64, i64 } @"_ZN4core7convert3num18ptr_try_from_impls69_$LT$impl$u20$core..convert..TryFrom$LT$u32$GT$$u20$for$u20$usize$GT$8try_from17h03b878ef1e901d16E"(i32 %value) unnamed_addr #0 !dbg !2017 {
start:
  %value.dbg.spill = alloca i32, align 4
  %0 = alloca { i64, i64 }, align 8
  store i32 %value, ptr %value.dbg.spill, align 4
  call void @llvm.dbg.declare(metadata ptr %value.dbg.spill, metadata !2022, metadata !DIExpression()), !dbg !2023
  %_2 = zext i32 %value to i64, !dbg !2024
  %1 = getelementptr inbounds { i64, i64 }, ptr %0, i32 0, i32 1, !dbg !2025
  store i64 %_2, ptr %1, align 8, !dbg !2025
  store i64 0, ptr %0, align 8, !dbg !2025
  %2 = getelementptr inbounds { i64, i64 }, ptr %0, i32 0, i32 0, !dbg !2026
  %3 = load i64, ptr %2, align 8, !dbg !2026, !range !786, !noundef !55
  %4 = getelementptr inbounds { i64, i64 }, ptr %0, i32 0, i32 1, !dbg !2026
  %5 = load i64, ptr %4, align 8, !dbg !2026
  %6 = insertvalue { i64, i64 } undef, i64 %3, 0, !dbg !2026
  %7 = insertvalue { i64, i64 } %6, i64 %5, 1, !dbg !2026
  ret { i64, i64 } %7, !dbg !2026
}

; core::convert::num::<impl core::convert::TryFrom<u32> for i8>::try_from
; Function Attrs: inlinehint noredzone nounwind
define internal { i8, i8 } @"_ZN4core7convert3num66_$LT$impl$u20$core..convert..TryFrom$LT$u32$GT$$u20$for$u20$i8$GT$8try_from17hed64d0ad3ad85001E"(i32 %u) unnamed_addr #0 !dbg !2027 {
start:
  %u.dbg.spill = alloca i32, align 4
  %0 = alloca { i8, i8 }, align 1
  store i32 %u, ptr %u.dbg.spill, align 4
  call void @llvm.dbg.declare(metadata ptr %u.dbg.spill, metadata !2032, metadata !DIExpression()), !dbg !2033
  %_2 = icmp ugt i32 %u, 127, !dbg !2034
  br i1 %_2, label %bb1, label %bb2, !dbg !2034

bb2:                                              ; preds = %start
  %_5 = trunc i32 %u to i8, !dbg !2035
  %1 = getelementptr inbounds { i8, i8 }, ptr %0, i32 0, i32 1, !dbg !2036
  store i8 %_5, ptr %1, align 1, !dbg !2036
  store i8 0, ptr %0, align 1, !dbg !2036
  br label %bb3, !dbg !2037

bb1:                                              ; preds = %start
  store i8 1, ptr %0, align 1, !dbg !2038
  br label %bb3, !dbg !2037

bb3:                                              ; preds = %bb2, %bb1
  %2 = getelementptr inbounds { i8, i8 }, ptr %0, i32 0, i32 0, !dbg !2039
  %3 = load i8, ptr %2, align 1, !dbg !2039, !range !780, !noundef !55
  %4 = trunc i8 %3 to i1, !dbg !2039
  %5 = getelementptr inbounds { i8, i8 }, ptr %0, i32 0, i32 1, !dbg !2039
  %6 = load i8, ptr %5, align 1, !dbg !2039
  %7 = zext i1 %4 to i8, !dbg !2039
  %8 = insertvalue { i8, i8 } undef, i8 %7, 0, !dbg !2039
  %9 = insertvalue { i8, i8 } %8, i8 %6, 1, !dbg !2039
  ret { i8, i8 } %9, !dbg !2039
}

; core::convert::num::<impl core::convert::TryFrom<u32> for u8>::try_from
; Function Attrs: inlinehint noredzone nounwind
define internal { i8, i8 } @"_ZN4core7convert3num66_$LT$impl$u20$core..convert..TryFrom$LT$u32$GT$$u20$for$u20$u8$GT$8try_from17h0562ba786bcdf233E"(i32 %u) unnamed_addr #0 !dbg !2040 {
start:
  %u.dbg.spill = alloca i32, align 4
  %0 = alloca { i8, i8 }, align 1
  store i32 %u, ptr %u.dbg.spill, align 4
  call void @llvm.dbg.declare(metadata ptr %u.dbg.spill, metadata !2045, metadata !DIExpression()), !dbg !2046
  %_2 = icmp ugt i32 %u, 255, !dbg !2047
  br i1 %_2, label %bb1, label %bb2, !dbg !2047

bb2:                                              ; preds = %start
  %_5 = trunc i32 %u to i8, !dbg !2048
  %1 = getelementptr inbounds { i8, i8 }, ptr %0, i32 0, i32 1, !dbg !2049
  store i8 %_5, ptr %1, align 1, !dbg !2049
  store i8 0, ptr %0, align 1, !dbg !2049
  br label %bb3, !dbg !2050

bb1:                                              ; preds = %start
  store i8 1, ptr %0, align 1, !dbg !2051
  br label %bb3, !dbg !2050

bb3:                                              ; preds = %bb2, %bb1
  %2 = getelementptr inbounds { i8, i8 }, ptr %0, i32 0, i32 0, !dbg !2052
  %3 = load i8, ptr %2, align 1, !dbg !2052, !range !780, !noundef !55
  %4 = trunc i8 %3 to i1, !dbg !2052
  %5 = getelementptr inbounds { i8, i8 }, ptr %0, i32 0, i32 1, !dbg !2052
  %6 = load i8, ptr %5, align 1, !dbg !2052
  %7 = zext i1 %4 to i8, !dbg !2052
  %8 = insertvalue { i8, i8 } undef, i8 %7, 0, !dbg !2052
  %9 = insertvalue { i8, i8 } %8, i8 %6, 1, !dbg !2052
  ret { i8, i8 } %9, !dbg !2052
}

; core::convert::num::<impl core::convert::TryFrom<u32> for i16>::try_from
; Function Attrs: inlinehint noredzone nounwind
define internal { i16, i16 } @"_ZN4core7convert3num67_$LT$impl$u20$core..convert..TryFrom$LT$u32$GT$$u20$for$u20$i16$GT$8try_from17h538f9fdfde98c970E"(i32 %u) unnamed_addr #0 !dbg !2053 {
start:
  %u.dbg.spill = alloca i32, align 4
  %0 = alloca { i16, i16 }, align 2
  store i32 %u, ptr %u.dbg.spill, align 4
  call void @llvm.dbg.declare(metadata ptr %u.dbg.spill, metadata !2058, metadata !DIExpression()), !dbg !2059
  %_2 = icmp ugt i32 %u, 32767, !dbg !2060
  br i1 %_2, label %bb1, label %bb2, !dbg !2060

bb2:                                              ; preds = %start
  %_5 = trunc i32 %u to i16, !dbg !2061
  %1 = getelementptr inbounds { i16, i16 }, ptr %0, i32 0, i32 1, !dbg !2062
  store i16 %_5, ptr %1, align 2, !dbg !2062
  store i16 0, ptr %0, align 2, !dbg !2062
  br label %bb3, !dbg !2063

bb1:                                              ; preds = %start
  store i16 1, ptr %0, align 2, !dbg !2064
  br label %bb3, !dbg !2063

bb3:                                              ; preds = %bb2, %bb1
  %2 = getelementptr inbounds { i16, i16 }, ptr %0, i32 0, i32 0, !dbg !2065
  %3 = load i16, ptr %2, align 2, !dbg !2065, !range !1237, !noundef !55
  %4 = getelementptr inbounds { i16, i16 }, ptr %0, i32 0, i32 1, !dbg !2065
  %5 = load i16, ptr %4, align 2, !dbg !2065
  %6 = insertvalue { i16, i16 } undef, i16 %3, 0, !dbg !2065
  %7 = insertvalue { i16, i16 } %6, i16 %5, 1, !dbg !2065
  ret { i16, i16 } %7, !dbg !2065
}

; core::convert::num::<impl core::convert::TryFrom<u32> for i32>::try_from
; Function Attrs: inlinehint noredzone nounwind
define internal { i32, i32 } @"_ZN4core7convert3num67_$LT$impl$u20$core..convert..TryFrom$LT$u32$GT$$u20$for$u20$i32$GT$8try_from17hc41d9f240d0232b1E"(i32 %u) unnamed_addr #0 !dbg !2066 {
start:
  %u.dbg.spill = alloca i32, align 4
  %0 = alloca { i32, i32 }, align 4
  store i32 %u, ptr %u.dbg.spill, align 4
  call void @llvm.dbg.declare(metadata ptr %u.dbg.spill, metadata !2071, metadata !DIExpression()), !dbg !2072
  %_2 = icmp ugt i32 %u, 2147483647, !dbg !2073
  br i1 %_2, label %bb1, label %bb2, !dbg !2073

bb2:                                              ; preds = %start
  %1 = getelementptr inbounds { i32, i32 }, ptr %0, i32 0, i32 1, !dbg !2074
  store i32 %u, ptr %1, align 4, !dbg !2074
  store i32 0, ptr %0, align 4, !dbg !2074
  br label %bb3, !dbg !2075

bb1:                                              ; preds = %start
  store i32 1, ptr %0, align 4, !dbg !2076
  br label %bb3, !dbg !2075

bb3:                                              ; preds = %bb2, %bb1
  %2 = getelementptr inbounds { i32, i32 }, ptr %0, i32 0, i32 0, !dbg !2077
  %3 = load i32, ptr %2, align 4, !dbg !2077, !range !1296, !noundef !55
  %4 = getelementptr inbounds { i32, i32 }, ptr %0, i32 0, i32 1, !dbg !2077
  %5 = load i32, ptr %4, align 4, !dbg !2077
  %6 = insertvalue { i32, i32 } undef, i32 %3, 0, !dbg !2077
  %7 = insertvalue { i32, i32 } %6, i32 %5, 1, !dbg !2077
  ret { i32, i32 } %7, !dbg !2077
}

; core::convert::num::<impl core::convert::TryFrom<u32> for u16>::try_from
; Function Attrs: inlinehint noredzone nounwind
define internal { i16, i16 } @"_ZN4core7convert3num67_$LT$impl$u20$core..convert..TryFrom$LT$u32$GT$$u20$for$u20$u16$GT$8try_from17h139c7f6a55644ef8E"(i32 %u) unnamed_addr #0 !dbg !2078 {
start:
  %u.dbg.spill = alloca i32, align 4
  %0 = alloca { i16, i16 }, align 2
  store i32 %u, ptr %u.dbg.spill, align 4
  call void @llvm.dbg.declare(metadata ptr %u.dbg.spill, metadata !2083, metadata !DIExpression()), !dbg !2084
  %_2 = icmp ugt i32 %u, 65535, !dbg !2085
  br i1 %_2, label %bb1, label %bb2, !dbg !2085

bb2:                                              ; preds = %start
  %_5 = trunc i32 %u to i16, !dbg !2086
  %1 = getelementptr inbounds { i16, i16 }, ptr %0, i32 0, i32 1, !dbg !2087
  store i16 %_5, ptr %1, align 2, !dbg !2087
  store i16 0, ptr %0, align 2, !dbg !2087
  br label %bb3, !dbg !2088

bb1:                                              ; preds = %start
  store i16 1, ptr %0, align 2, !dbg !2089
  br label %bb3, !dbg !2088

bb3:                                              ; preds = %bb2, %bb1
  %2 = getelementptr inbounds { i16, i16 }, ptr %0, i32 0, i32 0, !dbg !2090
  %3 = load i16, ptr %2, align 2, !dbg !2090, !range !1237, !noundef !55
  %4 = getelementptr inbounds { i16, i16 }, ptr %0, i32 0, i32 1, !dbg !2090
  %5 = load i16, ptr %4, align 2, !dbg !2090
  %6 = insertvalue { i16, i16 } undef, i16 %3, 0, !dbg !2090
  %7 = insertvalue { i16, i16 } %6, i16 %5, 1, !dbg !2090
  ret { i16, i16 } %7, !dbg !2090
}

; <T as core::convert::Into<U>>::into
; Function Attrs: noredzone nounwind
define hidden i64 @"_ZN50_$LT$T$u20$as$u20$core..convert..Into$LT$U$GT$$GT$4into17h6e082fab5aaa6768E"(i32 %self) unnamed_addr #2 !dbg !2091 {
start:
  %small.dbg.spill.i = alloca i32, align 4
  %self.dbg.spill = alloca i32, align 4
  store i32 %self, ptr %self.dbg.spill, align 4
  call void @llvm.dbg.declare(metadata ptr %self.dbg.spill, metadata !2097, metadata !DIExpression()), !dbg !2100
  store i32 %self, ptr %small.dbg.spill.i, align 4
  call void @llvm.dbg.declare(metadata ptr %small.dbg.spill.i, metadata !2101, metadata !DIExpression()), !dbg !2105
  %0 = zext i32 %self to i64, !dbg !2107
  ret i64 %0, !dbg !2108
}

; <T as core::convert::Into<U>>::into
; Function Attrs: noredzone nounwind
define hidden i128 @"_ZN50_$LT$T$u20$as$u20$core..convert..Into$LT$U$GT$$GT$4into17h9fbc2197ffa3a319E"(i32 %self) unnamed_addr #2 !dbg !2109 {
start:
  %small.dbg.spill.i = alloca i32, align 4
  %self.dbg.spill = alloca i32, align 4
  store i32 %self, ptr %self.dbg.spill, align 4
  call void @llvm.dbg.declare(metadata ptr %self.dbg.spill, metadata !2113, metadata !DIExpression()), !dbg !2116
  store i32 %self, ptr %small.dbg.spill.i, align 4
  call void @llvm.dbg.declare(metadata ptr %small.dbg.spill.i, metadata !2117, metadata !DIExpression()), !dbg !2121
  %0 = zext i32 %self to i128, !dbg !2123
  ret i128 %0, !dbg !2124
}

; <T as core::convert::Into<U>>::into
; Function Attrs: noredzone nounwind
define hidden i64 @"_ZN50_$LT$T$u20$as$u20$core..convert..Into$LT$U$GT$$GT$4into17hb707293f3c9e8337E"(i32 %self) unnamed_addr #2 !dbg !2125 {
start:
  %small.dbg.spill.i = alloca i32, align 4
  %self.dbg.spill = alloca i32, align 4
  store i32 %self, ptr %self.dbg.spill, align 4
  call void @llvm.dbg.declare(metadata ptr %self.dbg.spill, metadata !2129, metadata !DIExpression()), !dbg !2132
  store i32 %self, ptr %small.dbg.spill.i, align 4
  call void @llvm.dbg.declare(metadata ptr %small.dbg.spill.i, metadata !2133, metadata !DIExpression()), !dbg !2137
  %0 = zext i32 %self to i64, !dbg !2139
  ret i64 %0, !dbg !2140
}

; <T as core::convert::Into<U>>::into
; Function Attrs: noredzone nounwind
define hidden i128 @"_ZN50_$LT$T$u20$as$u20$core..convert..Into$LT$U$GT$$GT$4into17hbc7853d40feb26e5E"(i32 %self) unnamed_addr #2 !dbg !2141 {
start:
  %small.dbg.spill.i = alloca i32, align 4
  %self.dbg.spill = alloca i32, align 4
  store i32 %self, ptr %self.dbg.spill, align 4
  call void @llvm.dbg.declare(metadata ptr %self.dbg.spill, metadata !2145, metadata !DIExpression()), !dbg !2148
  store i32 %self, ptr %small.dbg.spill.i, align 4
  call void @llvm.dbg.declare(metadata ptr %small.dbg.spill.i, metadata !2149, metadata !DIExpression()), !dbg !2153
  %0 = zext i32 %self to i128, !dbg !2155
  ret i128 %0, !dbg !2156
}

; <T as core::convert::Into<U>>::into
; Function Attrs: noredzone nounwind
define hidden i32 @"_ZN50_$LT$T$u20$as$u20$core..convert..Into$LT$U$GT$$GT$4into17hfe78988dc2c27237E"(i32 %self) unnamed_addr #2 !dbg !2157 {
start:
  %t.dbg.spill.i = alloca i32, align 4
  %self.dbg.spill = alloca i32, align 4
  store i32 %self, ptr %self.dbg.spill, align 4
  call void @llvm.dbg.declare(metadata ptr %self.dbg.spill, metadata !2161, metadata !DIExpression()), !dbg !2164
  store i32 %self, ptr %t.dbg.spill.i, align 4
  call void @llvm.dbg.declare(metadata ptr %t.dbg.spill.i, metadata !2165, metadata !DIExpression()), !dbg !2169
  ret i32 %self, !dbg !2171
}

; <f32 as core::ops::arith::MulAssign>::mul_assign
; Function Attrs: inlinehint noredzone nounwind
define internal void @"_ZN51_$LT$f32$u20$as$u20$core..ops..arith..MulAssign$GT$10mul_assign17he2d6e66a063adfb9E"(ptr align 4 %self, float %other) unnamed_addr #0 !dbg !2172 {
start:
  %other.dbg.spill = alloca float, align 4
  %self.dbg.spill = alloca ptr, align 8
  store ptr %self, ptr %self.dbg.spill, align 8
  call void @llvm.dbg.declare(metadata ptr %self.dbg.spill, metadata !2178, metadata !DIExpression()), !dbg !2180
  store float %other, ptr %other.dbg.spill, align 4
  call void @llvm.dbg.declare(metadata ptr %other.dbg.spill, metadata !2179, metadata !DIExpression()), !dbg !2181
  %0 = load float, ptr %self, align 4, !dbg !2182
  %1 = fmul float %0, %other, !dbg !2182
  store float %1, ptr %self, align 4, !dbg !2182
  ret void, !dbg !2183
}

; <f64 as core::ops::arith::MulAssign>::mul_assign
; Function Attrs: inlinehint noredzone nounwind
define internal void @"_ZN51_$LT$f64$u20$as$u20$core..ops..arith..MulAssign$GT$10mul_assign17h3f7c6ac0957d8f4dE"(ptr align 8 %self, double %other) unnamed_addr #0 !dbg !2184 {
start:
  %other.dbg.spill = alloca double, align 8
  %self.dbg.spill = alloca ptr, align 8
  store ptr %self, ptr %self.dbg.spill, align 8
  call void @llvm.dbg.declare(metadata ptr %self.dbg.spill, metadata !2190, metadata !DIExpression()), !dbg !2192
  store double %other, ptr %other.dbg.spill, align 8
  call void @llvm.dbg.declare(metadata ptr %other.dbg.spill, metadata !2191, metadata !DIExpression()), !dbg !2193
  %0 = load double, ptr %self, align 8, !dbg !2194
  %1 = fmul double %0, %other, !dbg !2194
  store double %1, ptr %self, align 8, !dbg !2194
  ret void, !dbg !2195
}

; <u32 as core::ops::arith::AddAssign>::add_assign
; Function Attrs: inlinehint noredzone nounwind
define internal void @"_ZN51_$LT$u32$u20$as$u20$core..ops..arith..AddAssign$GT$10add_assign17hc01c0af5ebe55a16E"(ptr align 4 %self, i32 %other) unnamed_addr #0 !dbg !2196 {
start:
  %other.dbg.spill = alloca i32, align 4
  %self.dbg.spill = alloca ptr, align 8
  store ptr %self, ptr %self.dbg.spill, align 8
  call void @llvm.dbg.declare(metadata ptr %self.dbg.spill, metadata !2199, metadata !DIExpression()), !dbg !2201
  store i32 %other, ptr %other.dbg.spill, align 4
  call void @llvm.dbg.declare(metadata ptr %other.dbg.spill, metadata !2200, metadata !DIExpression()), !dbg !2202
  %0 = load i32, ptr %self, align 4, !dbg !2203
  %1 = call { i32, i1 } @llvm.uadd.with.overflow.i32(i32 %0, i32 %other), !dbg !2203
  %_4.0 = extractvalue { i32, i1 } %1, 0, !dbg !2203
  %_4.1 = extractvalue { i32, i1 } %1, 1, !dbg !2203
  %2 = call i1 @llvm.expect.i1(i1 %_4.1, i1 false), !dbg !2203
  br i1 %2, label %panic, label %bb1, !dbg !2203

bb1:                                              ; preds = %start
  store i32 %_4.0, ptr %self, align 4, !dbg !2203
  ret void, !dbg !2204

panic:                                            ; preds = %start
; call core::panicking::panic
  call void @_ZN4core9panicking5panic17hef55b24906324c39E(ptr align 1 @str.3, i64 28, ptr align 8 @alloc2978) #7, !dbg !2203
  unreachable, !dbg !2203
}

; <u32 as core::ops::bit::BitOrAssign>::bitor_assign
; Function Attrs: inlinehint noredzone nounwind
define internal void @"_ZN51_$LT$u32$u20$as$u20$core..ops..bit..BitOrAssign$GT$12bitor_assign17h53675b7005f335ddE"(ptr align 4 %self, i32 %other) unnamed_addr #0 !dbg !2205 {
start:
  %other.dbg.spill = alloca i32, align 4
  %self.dbg.spill = alloca ptr, align 8
  store ptr %self, ptr %self.dbg.spill, align 8
  call void @llvm.dbg.declare(metadata ptr %self.dbg.spill, metadata !2208, metadata !DIExpression()), !dbg !2210
  store i32 %other, ptr %other.dbg.spill, align 4
  call void @llvm.dbg.declare(metadata ptr %other.dbg.spill, metadata !2209, metadata !DIExpression()), !dbg !2211
  %0 = load i32, ptr %self, align 4, !dbg !2212
  %1 = or i32 %0, %other, !dbg !2212
  store i32 %1, ptr %self, align 4, !dbg !2212
  ret void, !dbg !2213
}

; <u64 as core::ops::arith::AddAssign>::add_assign
; Function Attrs: inlinehint noredzone nounwind
define internal void @"_ZN51_$LT$u64$u20$as$u20$core..ops..arith..AddAssign$GT$10add_assign17h53de1d210f723adeE"(ptr align 8 %self, i64 %other) unnamed_addr #0 !dbg !2214 {
start:
  %other.dbg.spill = alloca i64, align 8
  %self.dbg.spill = alloca ptr, align 8
  store ptr %self, ptr %self.dbg.spill, align 8
  call void @llvm.dbg.declare(metadata ptr %self.dbg.spill, metadata !2220, metadata !DIExpression()), !dbg !2222
  store i64 %other, ptr %other.dbg.spill, align 8
  call void @llvm.dbg.declare(metadata ptr %other.dbg.spill, metadata !2221, metadata !DIExpression()), !dbg !2223
  %0 = load i64, ptr %self, align 8, !dbg !2224
  %1 = call { i64, i1 } @llvm.uadd.with.overflow.i64(i64 %0, i64 %other), !dbg !2224
  %_4.0 = extractvalue { i64, i1 } %1, 0, !dbg !2224
  %_4.1 = extractvalue { i64, i1 } %1, 1, !dbg !2224
  %2 = call i1 @llvm.expect.i1(i1 %_4.1, i1 false), !dbg !2224
  br i1 %2, label %panic, label %bb1, !dbg !2224

bb1:                                              ; preds = %start
  store i64 %_4.0, ptr %self, align 8, !dbg !2224
  ret void, !dbg !2225

panic:                                            ; preds = %start
; call core::panicking::panic
  call void @_ZN4core9panicking5panic17hef55b24906324c39E(ptr align 1 @str.3, i64 28, ptr align 8 @alloc2978) #7, !dbg !2224
  unreachable, !dbg !2224
}

; <u64 as core::ops::bit::BitOrAssign>::bitor_assign
; Function Attrs: inlinehint noredzone nounwind
define internal void @"_ZN51_$LT$u64$u20$as$u20$core..ops..bit..BitOrAssign$GT$12bitor_assign17hb6c57f09aec67338E"(ptr align 8 %self, i64 %other) unnamed_addr #0 !dbg !2226 {
start:
  %other.dbg.spill = alloca i64, align 8
  %self.dbg.spill = alloca ptr, align 8
  store ptr %self, ptr %self.dbg.spill, align 8
  call void @llvm.dbg.declare(metadata ptr %self.dbg.spill, metadata !2229, metadata !DIExpression()), !dbg !2231
  store i64 %other, ptr %other.dbg.spill, align 8
  call void @llvm.dbg.declare(metadata ptr %other.dbg.spill, metadata !2230, metadata !DIExpression()), !dbg !2232
  %0 = load i64, ptr %self, align 8, !dbg !2233
  %1 = or i64 %0, %other, !dbg !2233
  store i64 %1, ptr %self, align 8, !dbg !2233
  ret void, !dbg !2234
}

; <u32 as core::ops::bit::BitAndAssign>::bitand_assign
; Function Attrs: inlinehint noredzone nounwind
define internal void @"_ZN52_$LT$u32$u20$as$u20$core..ops..bit..BitAndAssign$GT$13bitand_assign17h4470163370a3db43E"(ptr align 4 %self, i32 %other) unnamed_addr #0 !dbg !2235 {
start:
  %other.dbg.spill = alloca i32, align 4
  %self.dbg.spill = alloca ptr, align 8
  store ptr %self, ptr %self.dbg.spill, align 8
  call void @llvm.dbg.declare(metadata ptr %self.dbg.spill, metadata !2238, metadata !DIExpression()), !dbg !2240
  store i32 %other, ptr %other.dbg.spill, align 4
  call void @llvm.dbg.declare(metadata ptr %other.dbg.spill, metadata !2239, metadata !DIExpression()), !dbg !2241
  %0 = load i32, ptr %self, align 4, !dbg !2242
  %1 = and i32 %0, %other, !dbg !2242
  store i32 %1, ptr %self, align 4, !dbg !2242
  ret void, !dbg !2243
}

; <u64 as core::ops::bit::BitAndAssign>::bitand_assign
; Function Attrs: inlinehint noredzone nounwind
define internal void @"_ZN52_$LT$u64$u20$as$u20$core..ops..bit..BitAndAssign$GT$13bitand_assign17hc841bfdc355aa745E"(ptr align 8 %self, i64 %other) unnamed_addr #0 !dbg !2244 {
start:
  %other.dbg.spill = alloca i64, align 8
  %self.dbg.spill = alloca ptr, align 8
  store ptr %self, ptr %self.dbg.spill, align 8
  call void @llvm.dbg.declare(metadata ptr %self.dbg.spill, metadata !2247, metadata !DIExpression()), !dbg !2249
  store i64 %other, ptr %other.dbg.spill, align 8
  call void @llvm.dbg.declare(metadata ptr %other.dbg.spill, metadata !2248, metadata !DIExpression()), !dbg !2250
  %0 = load i64, ptr %self, align 8, !dbg !2251
  %1 = and i64 %0, %other, !dbg !2251
  store i64 %1, ptr %self, align 8, !dbg !2251
  ret void, !dbg !2252
}

; <T as core::convert::TryFrom<U>>::try_from
; Function Attrs: noredzone nounwind
define hidden i64 @"_ZN53_$LT$T$u20$as$u20$core..convert..TryFrom$LT$U$GT$$GT$8try_from17h40e028feada820a0E"(i32 %value) unnamed_addr #2 !dbg !2253 {
start:
  %value.dbg.spill = alloca i32, align 4
  %0 = alloca i64, align 8
  store i32 %value, ptr %value.dbg.spill, align 4
  call void @llvm.dbg.declare(metadata ptr %value.dbg.spill, metadata !2258, metadata !DIExpression()), !dbg !2260
; call <T as core::convert::Into<U>>::into
  %_2 = call i64 @"_ZN50_$LT$T$u20$as$u20$core..convert..Into$LT$U$GT$$GT$4into17h6e082fab5aaa6768E"(i32 %value) #8, !dbg !2261
  store i64 %_2, ptr %0, align 8, !dbg !2262
  %1 = load i64, ptr %0, align 8, !dbg !2263
  ret i64 %1, !dbg !2263
}

; <T as core::convert::TryFrom<U>>::try_from
; Function Attrs: noredzone nounwind
define hidden i64 @"_ZN53_$LT$T$u20$as$u20$core..convert..TryFrom$LT$U$GT$$GT$8try_from17h52ab8e81f505e32cE"(i32 %value) unnamed_addr #2 !dbg !2264 {
start:
  %value.dbg.spill = alloca i32, align 4
  %0 = alloca i64, align 8
  store i32 %value, ptr %value.dbg.spill, align 4
  call void @llvm.dbg.declare(metadata ptr %value.dbg.spill, metadata !2268, metadata !DIExpression()), !dbg !2270
; call <T as core::convert::Into<U>>::into
  %_2 = call i64 @"_ZN50_$LT$T$u20$as$u20$core..convert..Into$LT$U$GT$$GT$4into17hb707293f3c9e8337E"(i32 %value) #8, !dbg !2271
  store i64 %_2, ptr %0, align 8, !dbg !2272
  %1 = load i64, ptr %0, align 8, !dbg !2273
  ret i64 %1, !dbg !2273
}

; <T as core::convert::TryFrom<U>>::try_from
; Function Attrs: noredzone nounwind
define hidden i128 @"_ZN53_$LT$T$u20$as$u20$core..convert..TryFrom$LT$U$GT$$GT$8try_from17h7c54b8ba15d5e403E"(i32 %value) unnamed_addr #2 !dbg !2274 {
start:
  %value.dbg.spill = alloca i32, align 4
  %0 = alloca i128, align 8
  store i32 %value, ptr %value.dbg.spill, align 4
  call void @llvm.dbg.declare(metadata ptr %value.dbg.spill, metadata !2278, metadata !DIExpression()), !dbg !2280
; call <T as core::convert::Into<U>>::into
  %_2 = call i128 @"_ZN50_$LT$T$u20$as$u20$core..convert..Into$LT$U$GT$$GT$4into17hbc7853d40feb26e5E"(i32 %value) #8, !dbg !2281
  store i128 %_2, ptr %0, align 8, !dbg !2282
  %1 = load i128, ptr %0, align 8, !dbg !2283
  ret i128 %1, !dbg !2283
}

; <T as core::convert::TryFrom<U>>::try_from
; Function Attrs: noredzone nounwind
define hidden i128 @"_ZN53_$LT$T$u20$as$u20$core..convert..TryFrom$LT$U$GT$$GT$8try_from17h80a737d8521ca5d6E"(i32 %value) unnamed_addr #2 !dbg !2284 {
start:
  %value.dbg.spill = alloca i32, align 4
  %0 = alloca i128, align 8
  store i32 %value, ptr %value.dbg.spill, align 4
  call void @llvm.dbg.declare(metadata ptr %value.dbg.spill, metadata !2288, metadata !DIExpression()), !dbg !2290
; call <T as core::convert::Into<U>>::into
  %_2 = call i128 @"_ZN50_$LT$T$u20$as$u20$core..convert..Into$LT$U$GT$$GT$4into17h9fbc2197ffa3a319E"(i32 %value) #8, !dbg !2291
  store i128 %_2, ptr %0, align 8, !dbg !2292
  %1 = load i128, ptr %0, align 8, !dbg !2293
  ret i128 %1, !dbg !2293
}

; <T as core::convert::TryFrom<U>>::try_from
; Function Attrs: noredzone nounwind
define hidden i32 @"_ZN53_$LT$T$u20$as$u20$core..convert..TryFrom$LT$U$GT$$GT$8try_from17hd2b9d23d81034937E"(i32 %value) unnamed_addr #2 !dbg !2294 {
start:
  %value.dbg.spill = alloca i32, align 4
  %0 = alloca i32, align 4
  store i32 %value, ptr %value.dbg.spill, align 4
  call void @llvm.dbg.declare(metadata ptr %value.dbg.spill, metadata !2298, metadata !DIExpression()), !dbg !2299
; call <T as core::convert::Into<U>>::into
  %_2 = call i32 @"_ZN50_$LT$T$u20$as$u20$core..convert..Into$LT$U$GT$$GT$4into17hfe78988dc2c27237E"(i32 %value) #8, !dbg !2300
  store i32 %_2, ptr %0, align 4, !dbg !2301
  %1 = load i32, ptr %0, align 4, !dbg !2302
  ret i32 %1, !dbg !2302
}

; <T as core::convert::TryInto<U>>::try_into
; Function Attrs: noredzone nounwind
define hidden i64 @"_ZN53_$LT$T$u20$as$u20$core..convert..TryInto$LT$U$GT$$GT$8try_into17h0172b2ee5446b7bbE"(i32 %self) unnamed_addr #2 !dbg !2303 {
start:
  %self.dbg.spill = alloca i32, align 4
  store i32 %self, ptr %self.dbg.spill, align 4
  call void @llvm.dbg.declare(metadata ptr %self.dbg.spill, metadata !2306, metadata !DIExpression()), !dbg !2307
; call <T as core::convert::TryFrom<U>>::try_from
  %0 = call i64 @"_ZN53_$LT$T$u20$as$u20$core..convert..TryFrom$LT$U$GT$$GT$8try_from17h40e028feada820a0E"(i32 %self) #8, !dbg !2308
  ret i64 %0, !dbg !2309
}

; <T as core::convert::TryInto<U>>::try_into
; Function Attrs: noredzone nounwind
define hidden i128 @"_ZN53_$LT$T$u20$as$u20$core..convert..TryInto$LT$U$GT$$GT$8try_into17h045165ee233237e7E"(i32 %self) unnamed_addr #2 !dbg !2310 {
start:
  %self.dbg.spill = alloca i32, align 4
  store i32 %self, ptr %self.dbg.spill, align 4
  call void @llvm.dbg.declare(metadata ptr %self.dbg.spill, metadata !2312, metadata !DIExpression()), !dbg !2313
; call <T as core::convert::TryFrom<U>>::try_from
  %0 = call i128 @"_ZN53_$LT$T$u20$as$u20$core..convert..TryFrom$LT$U$GT$$GT$8try_from17h7c54b8ba15d5e403E"(i32 %self) #8, !dbg !2314
  ret i128 %0, !dbg !2315
}

; <T as core::convert::TryInto<U>>::try_into
; Function Attrs: noredzone nounwind
define hidden { i32, i32 } @"_ZN53_$LT$T$u20$as$u20$core..convert..TryInto$LT$U$GT$$GT$8try_into17h0c086e61ee923894E"(i32 %self) unnamed_addr #2 !dbg !2316 {
start:
  %self.dbg.spill = alloca i32, align 4
  store i32 %self, ptr %self.dbg.spill, align 4
  call void @llvm.dbg.declare(metadata ptr %self.dbg.spill, metadata !2318, metadata !DIExpression()), !dbg !2321
; call core::convert::num::<impl core::convert::TryFrom<u32> for i32>::try_from
  %0 = call { i32, i32 } @"_ZN4core7convert3num67_$LT$impl$u20$core..convert..TryFrom$LT$u32$GT$$u20$for$u20$i32$GT$8try_from17hc41d9f240d0232b1E"(i32 %self) #8, !dbg !2322
  %1 = extractvalue { i32, i32 } %0, 0, !dbg !2322
  %2 = extractvalue { i32, i32 } %0, 1, !dbg !2322
  %3 = insertvalue { i32, i32 } undef, i32 %1, 0, !dbg !2323
  %4 = insertvalue { i32, i32 } %3, i32 %2, 1, !dbg !2323
  ret { i32, i32 } %4, !dbg !2323
}

; <T as core::convert::TryInto<U>>::try_into
; Function Attrs: noredzone nounwind
define hidden { i8, i8 } @"_ZN53_$LT$T$u20$as$u20$core..convert..TryInto$LT$U$GT$$GT$8try_into17h35ba5024e9b66674E"(i32 %self) unnamed_addr #2 !dbg !2324 {
start:
  %self.dbg.spill = alloca i32, align 4
  store i32 %self, ptr %self.dbg.spill, align 4
  call void @llvm.dbg.declare(metadata ptr %self.dbg.spill, metadata !2326, metadata !DIExpression()), !dbg !2329
; call core::convert::num::<impl core::convert::TryFrom<u32> for u8>::try_from
  %0 = call { i8, i8 } @"_ZN4core7convert3num66_$LT$impl$u20$core..convert..TryFrom$LT$u32$GT$$u20$for$u20$u8$GT$8try_from17h0562ba786bcdf233E"(i32 %self) #8, !dbg !2330
  %1 = extractvalue { i8, i8 } %0, 0, !dbg !2330
  %2 = trunc i8 %1 to i1, !dbg !2330
  %3 = extractvalue { i8, i8 } %0, 1, !dbg !2330
  %4 = zext i1 %2 to i8, !dbg !2331
  %5 = insertvalue { i8, i8 } undef, i8 %4, 0, !dbg !2331
  %6 = insertvalue { i8, i8 } %5, i8 %3, 1, !dbg !2331
  ret { i8, i8 } %6, !dbg !2331
}

; <T as core::convert::TryInto<U>>::try_into
; Function Attrs: noredzone nounwind
define hidden { i16, i16 } @"_ZN53_$LT$T$u20$as$u20$core..convert..TryInto$LT$U$GT$$GT$8try_into17h70397b596bdf0a86E"(i32 %self) unnamed_addr #2 !dbg !2332 {
start:
  %self.dbg.spill = alloca i32, align 4
  store i32 %self, ptr %self.dbg.spill, align 4
  call void @llvm.dbg.declare(metadata ptr %self.dbg.spill, metadata !2334, metadata !DIExpression()), !dbg !2337
; call core::convert::num::<impl core::convert::TryFrom<u32> for u16>::try_from
  %0 = call { i16, i16 } @"_ZN4core7convert3num67_$LT$impl$u20$core..convert..TryFrom$LT$u32$GT$$u20$for$u20$u16$GT$8try_from17h139c7f6a55644ef8E"(i32 %self) #8, !dbg !2338
  %1 = extractvalue { i16, i16 } %0, 0, !dbg !2338
  %2 = extractvalue { i16, i16 } %0, 1, !dbg !2338
  %3 = insertvalue { i16, i16 } undef, i16 %1, 0, !dbg !2339
  %4 = insertvalue { i16, i16 } %3, i16 %2, 1, !dbg !2339
  ret { i16, i16 } %4, !dbg !2339
}

; <T as core::convert::TryInto<U>>::try_into
; Function Attrs: noredzone nounwind
define hidden i64 @"_ZN53_$LT$T$u20$as$u20$core..convert..TryInto$LT$U$GT$$GT$8try_into17h74e5befe69781f8dE"(i32 %self) unnamed_addr #2 !dbg !2340 {
start:
  %self.dbg.spill = alloca i32, align 4
  store i32 %self, ptr %self.dbg.spill, align 4
  call void @llvm.dbg.declare(metadata ptr %self.dbg.spill, metadata !2342, metadata !DIExpression()), !dbg !2343
; call <T as core::convert::TryFrom<U>>::try_from
  %0 = call i64 @"_ZN53_$LT$T$u20$as$u20$core..convert..TryFrom$LT$U$GT$$GT$8try_from17h52ab8e81f505e32cE"(i32 %self) #8, !dbg !2344
  ret i64 %0, !dbg !2345
}

; <T as core::convert::TryInto<U>>::try_into
; Function Attrs: noredzone nounwind
define hidden { i64, i64 } @"_ZN53_$LT$T$u20$as$u20$core..convert..TryInto$LT$U$GT$$GT$8try_into17h7f54e2b42311e74bE"(i32 %self) unnamed_addr #2 !dbg !2346 {
start:
  %self.dbg.spill = alloca i32, align 4
  store i32 %self, ptr %self.dbg.spill, align 4
  call void @llvm.dbg.declare(metadata ptr %self.dbg.spill, metadata !2348, metadata !DIExpression()), !dbg !2351
; call core::convert::num::ptr_try_from_impls::<impl core::convert::TryFrom<u32> for usize>::try_from
  %0 = call { i64, i64 } @"_ZN4core7convert3num18ptr_try_from_impls69_$LT$impl$u20$core..convert..TryFrom$LT$u32$GT$$u20$for$u20$usize$GT$8try_from17h03b878ef1e901d16E"(i32 %self) #8, !dbg !2352
  %1 = extractvalue { i64, i64 } %0, 0, !dbg !2352
  %2 = extractvalue { i64, i64 } %0, 1, !dbg !2352
  %3 = insertvalue { i64, i64 } undef, i64 %1, 0, !dbg !2353
  %4 = insertvalue { i64, i64 } %3, i64 %2, 1, !dbg !2353
  ret { i64, i64 } %4, !dbg !2353
}

; <T as core::convert::TryInto<U>>::try_into
; Function Attrs: noredzone nounwind
define hidden { i8, i8 } @"_ZN53_$LT$T$u20$as$u20$core..convert..TryInto$LT$U$GT$$GT$8try_into17h8a576e8fc7d70eeaE"(i32 %self) unnamed_addr #2 !dbg !2354 {
start:
  %self.dbg.spill = alloca i32, align 4
  store i32 %self, ptr %self.dbg.spill, align 4
  call void @llvm.dbg.declare(metadata ptr %self.dbg.spill, metadata !2356, metadata !DIExpression()), !dbg !2359
; call core::convert::num::<impl core::convert::TryFrom<u32> for i8>::try_from
  %0 = call { i8, i8 } @"_ZN4core7convert3num66_$LT$impl$u20$core..convert..TryFrom$LT$u32$GT$$u20$for$u20$i8$GT$8try_from17hed64d0ad3ad85001E"(i32 %self) #8, !dbg !2360
  %1 = extractvalue { i8, i8 } %0, 0, !dbg !2360
  %2 = trunc i8 %1 to i1, !dbg !2360
  %3 = extractvalue { i8, i8 } %0, 1, !dbg !2360
  %4 = zext i1 %2 to i8, !dbg !2361
  %5 = insertvalue { i8, i8 } undef, i8 %4, 0, !dbg !2361
  %6 = insertvalue { i8, i8 } %5, i8 %3, 1, !dbg !2361
  ret { i8, i8 } %6, !dbg !2361
}

; <T as core::convert::TryInto<U>>::try_into
; Function Attrs: noredzone nounwind
define hidden { i16, i16 } @"_ZN53_$LT$T$u20$as$u20$core..convert..TryInto$LT$U$GT$$GT$8try_into17hb3469c64c4053147E"(i32 %self) unnamed_addr #2 !dbg !2362 {
start:
  %self.dbg.spill = alloca i32, align 4
  store i32 %self, ptr %self.dbg.spill, align 4
  call void @llvm.dbg.declare(metadata ptr %self.dbg.spill, metadata !2364, metadata !DIExpression()), !dbg !2367
; call core::convert::num::<impl core::convert::TryFrom<u32> for i16>::try_from
  %0 = call { i16, i16 } @"_ZN4core7convert3num67_$LT$impl$u20$core..convert..TryFrom$LT$u32$GT$$u20$for$u20$i16$GT$8try_from17h538f9fdfde98c970E"(i32 %self) #8, !dbg !2368
  %1 = extractvalue { i16, i16 } %0, 0, !dbg !2368
  %2 = extractvalue { i16, i16 } %0, 1, !dbg !2368
  %3 = insertvalue { i16, i16 } undef, i16 %1, 0, !dbg !2369
  %4 = insertvalue { i16, i16 } %3, i16 %2, 1, !dbg !2369
  ret { i16, i16 } %4, !dbg !2369
}

; <T as core::convert::TryInto<U>>::try_into
; Function Attrs: noredzone nounwind
define hidden { i64, i64 } @"_ZN53_$LT$T$u20$as$u20$core..convert..TryInto$LT$U$GT$$GT$8try_into17hba3ca03b86982b5eE"(i32 %self) unnamed_addr #2 !dbg !2370 {
start:
  %self.dbg.spill = alloca i32, align 4
  store i32 %self, ptr %self.dbg.spill, align 4
  call void @llvm.dbg.declare(metadata ptr %self.dbg.spill, metadata !2372, metadata !DIExpression()), !dbg !2375
; call core::convert::num::ptr_try_from_impls::<impl core::convert::TryFrom<u32> for isize>::try_from
  %0 = call { i64, i64 } @"_ZN4core7convert3num18ptr_try_from_impls69_$LT$impl$u20$core..convert..TryFrom$LT$u32$GT$$u20$for$u20$isize$GT$8try_from17h12916df791756cbaE"(i32 %self) #8, !dbg !2376
  %1 = extractvalue { i64, i64 } %0, 0, !dbg !2376
  %2 = extractvalue { i64, i64 } %0, 1, !dbg !2376
  %3 = insertvalue { i64, i64 } undef, i64 %1, 0, !dbg !2377
  %4 = insertvalue { i64, i64 } %3, i64 %2, 1, !dbg !2377
  ret { i64, i64 } %4, !dbg !2377
}

; <T as core::convert::TryInto<U>>::try_into
; Function Attrs: noredzone nounwind
define hidden i128 @"_ZN53_$LT$T$u20$as$u20$core..convert..TryInto$LT$U$GT$$GT$8try_into17hbd5a45fd09defa25E"(i32 %self) unnamed_addr #2 !dbg !2378 {
start:
  %self.dbg.spill = alloca i32, align 4
  store i32 %self, ptr %self.dbg.spill, align 4
  call void @llvm.dbg.declare(metadata ptr %self.dbg.spill, metadata !2380, metadata !DIExpression()), !dbg !2381
; call <T as core::convert::TryFrom<U>>::try_from
  %0 = call i128 @"_ZN53_$LT$T$u20$as$u20$core..convert..TryFrom$LT$U$GT$$GT$8try_from17h80a737d8521ca5d6E"(i32 %self) #8, !dbg !2382
  ret i128 %0, !dbg !2383
}

; <T as core::convert::TryInto<U>>::try_into
; Function Attrs: noredzone nounwind
define hidden i32 @"_ZN53_$LT$T$u20$as$u20$core..convert..TryInto$LT$U$GT$$GT$8try_into17hcaef0f0bd6a2fe09E"(i32 %self) unnamed_addr #2 !dbg !2384 {
start:
  %self.dbg.spill = alloca i32, align 4
  store i32 %self, ptr %self.dbg.spill, align 4
  call void @llvm.dbg.declare(metadata ptr %self.dbg.spill, metadata !2386, metadata !DIExpression()), !dbg !2387
; call <T as core::convert::TryFrom<U>>::try_from
  %0 = call i32 @"_ZN53_$LT$T$u20$as$u20$core..convert..TryFrom$LT$U$GT$$GT$8try_from17hd2b9d23d81034937E"(i32 %self) #8, !dbg !2388
  ret i32 %0, !dbg !2389
}

; <u8 as core::ops::bit::Shl<u32>>::shl
; Function Attrs: inlinehint noredzone nounwind
define internal i8 @"_ZN53_$LT$u8$u20$as$u20$core..ops..bit..Shl$LT$u32$GT$$GT$3shl17h463129465dc1c853E"(i8 %self, i32 %other) unnamed_addr #0 !dbg !2390 {
start:
  %other.dbg.spill = alloca i32, align 4
  %self.dbg.spill = alloca i8, align 1
  store i8 %self, ptr %self.dbg.spill, align 1
  call void @llvm.dbg.declare(metadata ptr %self.dbg.spill, metadata !2395, metadata !DIExpression()), !dbg !2397
  store i32 %other, ptr %other.dbg.spill, align 4
  call void @llvm.dbg.declare(metadata ptr %other.dbg.spill, metadata !2396, metadata !DIExpression()), !dbg !2398
  %0 = and i32 %other, -8, !dbg !2399
  %_5.1 = icmp ne i32 %0, 0, !dbg !2399
  %1 = trunc i32 %other to i8, !dbg !2399
  %2 = and i8 %1, 7, !dbg !2399
  %_5.0 = shl i8 %self, %2, !dbg !2399
  %3 = call i1 @llvm.expect.i1(i1 %_5.1, i1 false), !dbg !2399
  br i1 %3, label %panic, label %bb1, !dbg !2399

bb1:                                              ; preds = %start
  ret i8 %_5.0, !dbg !2400

panic:                                            ; preds = %start
; call core::panicking::panic
  call void @_ZN4core9panicking5panic17hef55b24906324c39E(ptr align 1 @str.0, i64 35, ptr align 8 @alloc2932) #7, !dbg !2399
  unreachable, !dbg !2399
}

; <u16 as core::ops::bit::Shl<u32>>::shl
; Function Attrs: inlinehint noredzone nounwind
define internal i16 @"_ZN54_$LT$u16$u20$as$u20$core..ops..bit..Shl$LT$u32$GT$$GT$3shl17hafcd518df6ea8455E"(i16 %self, i32 %other) unnamed_addr #0 !dbg !2401 {
start:
  %other.dbg.spill = alloca i32, align 4
  %self.dbg.spill = alloca i16, align 2
  store i16 %self, ptr %self.dbg.spill, align 2
  call void @llvm.dbg.declare(metadata ptr %self.dbg.spill, metadata !2406, metadata !DIExpression()), !dbg !2408
  store i32 %other, ptr %other.dbg.spill, align 4
  call void @llvm.dbg.declare(metadata ptr %other.dbg.spill, metadata !2407, metadata !DIExpression()), !dbg !2409
  %0 = and i32 %other, -16, !dbg !2410
  %_5.1 = icmp ne i32 %0, 0, !dbg !2410
  %1 = trunc i32 %other to i16, !dbg !2410
  %2 = and i16 %1, 15, !dbg !2410
  %_5.0 = shl i16 %self, %2, !dbg !2410
  %3 = call i1 @llvm.expect.i1(i1 %_5.1, i1 false), !dbg !2410
  br i1 %3, label %panic, label %bb1, !dbg !2410

bb1:                                              ; preds = %start
  ret i16 %_5.0, !dbg !2411

panic:                                            ; preds = %start
; call core::panicking::panic
  call void @_ZN4core9panicking5panic17hef55b24906324c39E(ptr align 1 @str.0, i64 35, ptr align 8 @alloc2932) #7, !dbg !2410
  unreachable, !dbg !2410
}

; <u64 as core::ops::bit::Shl<u32>>::shl
; Function Attrs: inlinehint noredzone nounwind
define internal i64 @"_ZN54_$LT$u64$u20$as$u20$core..ops..bit..Shl$LT$u32$GT$$GT$3shl17h1fb32d9a6fdf861aE"(i64 %self, i32 %other) unnamed_addr #0 !dbg !2412 {
start:
  %other.dbg.spill = alloca i32, align 4
  %self.dbg.spill = alloca i64, align 8
  store i64 %self, ptr %self.dbg.spill, align 8
  call void @llvm.dbg.declare(metadata ptr %self.dbg.spill, metadata !2417, metadata !DIExpression()), !dbg !2419
  store i32 %other, ptr %other.dbg.spill, align 4
  call void @llvm.dbg.declare(metadata ptr %other.dbg.spill, metadata !2418, metadata !DIExpression()), !dbg !2420
  %0 = and i32 %other, -64, !dbg !2421
  %_5.1 = icmp ne i32 %0, 0, !dbg !2421
  %1 = zext i32 %other to i64, !dbg !2421
  %2 = and i64 %1, 63, !dbg !2421
  %_5.0 = shl i64 %self, %2, !dbg !2421
  %3 = call i1 @llvm.expect.i1(i1 %_5.1, i1 false), !dbg !2421
  br i1 %3, label %panic, label %bb1, !dbg !2421

bb1:                                              ; preds = %start
  ret i64 %_5.0, !dbg !2422

panic:                                            ; preds = %start
; call core::panicking::panic
  call void @_ZN4core9panicking5panic17hef55b24906324c39E(ptr align 1 @str.0, i64 35, ptr align 8 @alloc2932) #7, !dbg !2421
  unreachable, !dbg !2421
}

; <u64 as core::ops::bit::Shr<u32>>::shr
; Function Attrs: inlinehint noredzone nounwind
define internal i64 @"_ZN54_$LT$u64$u20$as$u20$core..ops..bit..Shr$LT$u32$GT$$GT$3shr17hd3acd92f0e92d74fE"(i64 %self, i32 %other) unnamed_addr #0 !dbg !2423 {
start:
  %other.dbg.spill = alloca i32, align 4
  %self.dbg.spill = alloca i64, align 8
  store i64 %self, ptr %self.dbg.spill, align 8
  call void @llvm.dbg.declare(metadata ptr %self.dbg.spill, metadata !2426, metadata !DIExpression()), !dbg !2428
  store i32 %other, ptr %other.dbg.spill, align 4
  call void @llvm.dbg.declare(metadata ptr %other.dbg.spill, metadata !2427, metadata !DIExpression()), !dbg !2429
  %0 = and i32 %other, -64, !dbg !2430
  %_5.1 = icmp ne i32 %0, 0, !dbg !2430
  %1 = zext i32 %other to i64, !dbg !2430
  %2 = and i64 %1, 63, !dbg !2430
  %_5.0 = lshr i64 %self, %2, !dbg !2430
  %3 = call i1 @llvm.expect.i1(i1 %_5.1, i1 false), !dbg !2430
  br i1 %3, label %panic, label %bb1, !dbg !2430

bb1:                                              ; preds = %start
  ret i64 %_5.0, !dbg !2431

panic:                                            ; preds = %start
; call core::panicking::panic
  call void @_ZN4core9panicking5panic17hef55b24906324c39E(ptr align 1 @str.1, i64 36, ptr align 8 @alloc2934) #7, !dbg !2430
  unreachable, !dbg !2430
}

; <i128 as core::ops::bit::Shl<u32>>::shl
; Function Attrs: inlinehint noredzone nounwind
define internal i128 @"_ZN55_$LT$i128$u20$as$u20$core..ops..bit..Shl$LT$u32$GT$$GT$3shl17h3a6cf5ccdd07b384E"(i128 %self, i32 %other) unnamed_addr #0 !dbg !2432 {
start:
  %other.dbg.spill = alloca i32, align 4
  %self.dbg.spill = alloca i128, align 8
  store i128 %self, ptr %self.dbg.spill, align 8
  call void @llvm.dbg.declare(metadata ptr %self.dbg.spill, metadata !2437, metadata !DIExpression()), !dbg !2439
  store i32 %other, ptr %other.dbg.spill, align 4
  call void @llvm.dbg.declare(metadata ptr %other.dbg.spill, metadata !2438, metadata !DIExpression()), !dbg !2440
  %0 = and i32 %other, -128, !dbg !2441
  %_5.1 = icmp ne i32 %0, 0, !dbg !2441
  %1 = zext i32 %other to i128, !dbg !2441
  %2 = and i128 %1, 127, !dbg !2441
  %_5.0 = shl i128 %self, %2, !dbg !2441
  %3 = call i1 @llvm.expect.i1(i1 %_5.1, i1 false), !dbg !2441
  br i1 %3, label %panic, label %bb1, !dbg !2441

bb1:                                              ; preds = %start
  ret i128 %_5.0, !dbg !2442

panic:                                            ; preds = %start
; call core::panicking::panic
  call void @_ZN4core9panicking5panic17hef55b24906324c39E(ptr align 1 @str.0, i64 35, ptr align 8 @alloc2932) #7, !dbg !2441
  unreachable, !dbg !2441
}

; <u32 as core::ops::bit::ShlAssign<i32>>::shl_assign
; Function Attrs: inlinehint noredzone nounwind
define internal void @"_ZN60_$LT$u32$u20$as$u20$core..ops..bit..ShlAssign$LT$i32$GT$$GT$10shl_assign17hfe1b9975ce691636E"(ptr align 4 %self, i32 %other) unnamed_addr #0 !dbg !2443 {
start:
  %other.dbg.spill = alloca i32, align 4
  %self.dbg.spill = alloca ptr, align 8
  store ptr %self, ptr %self.dbg.spill, align 8
  call void @llvm.dbg.declare(metadata ptr %self.dbg.spill, metadata !2448, metadata !DIExpression()), !dbg !2450
  store i32 %other, ptr %other.dbg.spill, align 4
  call void @llvm.dbg.declare(metadata ptr %other.dbg.spill, metadata !2449, metadata !DIExpression()), !dbg !2451
  %0 = load i32, ptr %self, align 4, !dbg !2452
  %1 = and i32 %other, -32, !dbg !2452
  %_4.1 = icmp ne i32 %1, 0, !dbg !2452
  %2 = and i32 %other, 31, !dbg !2452
  %_4.0 = shl i32 %0, %2, !dbg !2452
  %3 = call i1 @llvm.expect.i1(i1 %_4.1, i1 false), !dbg !2452
  br i1 %3, label %panic, label %bb1, !dbg !2452

bb1:                                              ; preds = %start
  store i32 %_4.0, ptr %self, align 4, !dbg !2452
  ret void, !dbg !2453

panic:                                            ; preds = %start
; call core::panicking::panic
  call void @_ZN4core9panicking5panic17hef55b24906324c39E(ptr align 1 @str.0, i64 35, ptr align 8 @alloc2980) #7, !dbg !2452
  unreachable, !dbg !2452
}

; <u64 as core::ops::bit::ShlAssign<i32>>::shl_assign
; Function Attrs: inlinehint noredzone nounwind
define internal void @"_ZN60_$LT$u64$u20$as$u20$core..ops..bit..ShlAssign$LT$i32$GT$$GT$10shl_assign17ha2a7e7de51c90bd6E"(ptr align 8 %self, i32 %other) unnamed_addr #0 !dbg !2454 {
start:
  %other.dbg.spill = alloca i32, align 4
  %self.dbg.spill = alloca ptr, align 8
  store ptr %self, ptr %self.dbg.spill, align 8
  call void @llvm.dbg.declare(metadata ptr %self.dbg.spill, metadata !2459, metadata !DIExpression()), !dbg !2461
  store i32 %other, ptr %other.dbg.spill, align 4
  call void @llvm.dbg.declare(metadata ptr %other.dbg.spill, metadata !2460, metadata !DIExpression()), !dbg !2462
  %0 = load i64, ptr %self, align 8, !dbg !2463
  %1 = and i32 %other, -64, !dbg !2463
  %_4.1 = icmp ne i32 %1, 0, !dbg !2463
  %2 = zext i32 %other to i64, !dbg !2463
  %3 = and i64 %2, 63, !dbg !2463
  %_4.0 = shl i64 %0, %3, !dbg !2463
  %4 = call i1 @llvm.expect.i1(i1 %_4.1, i1 false), !dbg !2463
  br i1 %4, label %panic, label %bb1, !dbg !2463

bb1:                                              ; preds = %start
  store i64 %_4.0, ptr %self, align 8, !dbg !2463
  ret void, !dbg !2464

panic:                                            ; preds = %start
; call core::panicking::panic
  call void @_ZN4core9panicking5panic17hef55b24906324c39E(ptr align 1 @str.0, i64 35, ptr align 8 @alloc2980) #7, !dbg !2463
  unreachable, !dbg !2463
}

; <u64 as core::ops::bit::ShrAssign<u32>>::shr_assign
; Function Attrs: inlinehint noredzone nounwind
define internal void @"_ZN60_$LT$u64$u20$as$u20$core..ops..bit..ShrAssign$LT$u32$GT$$GT$10shr_assign17h14fa3e617dc8a634E"(ptr align 8 %self, i32 %other) unnamed_addr #0 !dbg !2465 {
start:
  %other.dbg.spill = alloca i32, align 4
  %self.dbg.spill = alloca ptr, align 8
  store ptr %self, ptr %self.dbg.spill, align 8
  call void @llvm.dbg.declare(metadata ptr %self.dbg.spill, metadata !2470, metadata !DIExpression()), !dbg !2472
  store i32 %other, ptr %other.dbg.spill, align 4
  call void @llvm.dbg.declare(metadata ptr %other.dbg.spill, metadata !2471, metadata !DIExpression()), !dbg !2473
  %0 = load i64, ptr %self, align 8, !dbg !2474
  %1 = and i32 %other, -64, !dbg !2474
  %_4.1 = icmp ne i32 %1, 0, !dbg !2474
  %2 = zext i32 %other to i64, !dbg !2474
  %3 = and i64 %2, 63, !dbg !2474
  %_4.0 = lshr i64 %0, %3, !dbg !2474
  %4 = call i1 @llvm.expect.i1(i1 %_4.1, i1 false), !dbg !2474
  br i1 %4, label %panic, label %bb1, !dbg !2474

bb1:                                              ; preds = %start
  store i64 %_4.0, ptr %self, align 8, !dbg !2474
  ret void, !dbg !2475

panic:                                            ; preds = %start
; call core::panicking::panic
  call void @_ZN4core9panicking5panic17hef55b24906324c39E(ptr align 1 @str.1, i64 36, ptr align 8 @alloc2938) #7, !dbg !2474
  unreachable, !dbg !2474
}

; compiler_builtins::float::add::add
; Function Attrs: noredzone nounwind
define internal double @_ZN17compiler_builtins5float3add3add17h344e15efac465c71E(double %a, double %b) unnamed_addr #2 !dbg !2476 {
start:
  %rhs.dbg.spill.i = alloca i32, align 4
  %self.dbg.spill.i = alloca i32, align 4
  %round_guard_sticky.dbg.spill = alloca i32, align 4
  %a_significand_i32.dbg.spill = alloca i32, align 4
  %sticky.dbg.spill10 = alloca i64, align 8
  %shift.dbg.spill8 = alloca i64, align 8
  %sticky.dbg.spill5 = alloca i64, align 8
  %shift.dbg.spill = alloca i32, align 4
  %sticky.dbg.spill = alloca i64, align 8
  %subtraction.dbg.spill = alloca i8, align 1
  %result_sign.dbg.spill = alloca i64, align 8
  %significand.dbg.spill2 = alloca i64, align 8
  %exponent.dbg.spill1 = alloca i32, align 4
  %significand.dbg.spill = alloca i64, align 8
  %exponent.dbg.spill = alloca i32, align 4
  %tmp.dbg.spill = alloca i64, align 8
  %qnan_rep.dbg.spill = alloca i64, align 8
  %quiet_bit.dbg.spill = alloca i64, align 8
  %exponent_mask.dbg.spill = alloca i64, align 8
  %abs_mask.dbg.spill = alloca i64, align 8
  %significand_mask.dbg.spill = alloca i64, align 8
  %implicit_bit.dbg.spill = alloca i64, align 8
  %max_exponent.dbg.spill = alloca i32, align 4
  %significand_bits.dbg.spill = alloca i32, align 4
  %one.dbg.spill = alloca i64, align 8
  %b.dbg.spill = alloca double, align 8
  %a.dbg.spill = alloca double, align 8
  %result = alloca i64, align 8
  %_255 = alloca i64, align 8
  %_248 = alloca i64, align 8
  %_226 = alloca i64, align 8
  %_222 = alloca i64, align 8
  %_218 = alloca i64, align 8
  %_213 = alloca i64, align 8
  %_192 = alloca i64, align 8
  %_188 = alloca i64, align 8
  %_173 = alloca i64, align 8
  %_166 = alloca i64, align 8
  %_159 = alloca i64, align 8
  %align = alloca i64, align 8
  %_138 = alloca i64, align 8
  %b_significand = alloca i64, align 8
  %a_significand = alloca i64, align 8
  %b_exponent = alloca i32, align 4
  %a_exponent = alloca i32, align 4
  %_94 = alloca i64, align 8
  %_85 = alloca i64, align 8
  %_81 = alloca i64, align 8
  %_68 = alloca i64, align 8
  %_48 = alloca i64, align 8
  %_44 = alloca i64, align 8
  %_39 = alloca i64, align 8
  %_35 = alloca i64, align 8
  %_32 = alloca i8, align 1
  %b_abs = alloca i64, align 8
  %a_abs = alloca i64, align 8
  %b_rep = alloca i64, align 8
  %a_rep = alloca i64, align 8
  %inf_rep = alloca i64, align 8
  %sign_bit = alloca i64, align 8
  %bits = alloca i64, align 8
  %zero = alloca i64, align 8
  %0 = alloca double, align 8
  store double %a, ptr %a.dbg.spill, align 8
  call void @llvm.dbg.declare(metadata ptr %a.dbg.spill, metadata !2480, metadata !DIExpression()), !dbg !2556
  store double %b, ptr %b.dbg.spill, align 8
  call void @llvm.dbg.declare(metadata ptr %b.dbg.spill, metadata !2481, metadata !DIExpression()), !dbg !2557
  call void @llvm.dbg.declare(metadata ptr %zero, metadata !2484, metadata !DIExpression()), !dbg !2558
  call void @llvm.dbg.declare(metadata ptr %bits, metadata !2486, metadata !DIExpression()), !dbg !2559
  call void @llvm.dbg.declare(metadata ptr %sign_bit, metadata !2496, metadata !DIExpression()), !dbg !2560
  call void @llvm.dbg.declare(metadata ptr %inf_rep, metadata !2502, metadata !DIExpression()), !dbg !2561
  call void @llvm.dbg.declare(metadata ptr %a_rep, metadata !2508, metadata !DIExpression()), !dbg !2562
  call void @llvm.dbg.declare(metadata ptr %b_rep, metadata !2510, metadata !DIExpression()), !dbg !2563
  call void @llvm.dbg.declare(metadata ptr %a_abs, metadata !2512, metadata !DIExpression()), !dbg !2564
  call void @llvm.dbg.declare(metadata ptr %b_abs, metadata !2514, metadata !DIExpression()), !dbg !2565
  call void @llvm.dbg.declare(metadata ptr %a_exponent, metadata !2518, metadata !DIExpression()), !dbg !2566
  call void @llvm.dbg.declare(metadata ptr %b_exponent, metadata !2520, metadata !DIExpression()), !dbg !2567
  call void @llvm.dbg.declare(metadata ptr %a_significand, metadata !2522, metadata !DIExpression()), !dbg !2568
  call void @llvm.dbg.declare(metadata ptr %b_significand, metadata !2524, metadata !DIExpression()), !dbg !2569
  call void @llvm.dbg.declare(metadata ptr %align, metadata !2536, metadata !DIExpression()), !dbg !2570
  call void @llvm.dbg.declare(metadata ptr %result, metadata !2552, metadata !DIExpression()), !dbg !2571
  store i64 1, ptr %one.dbg.spill, align 8, !dbg !2572
  call void @llvm.dbg.declare(metadata ptr %one.dbg.spill, metadata !2482, metadata !DIExpression()), !dbg !2573
  store i64 0, ptr %zero, align 8, !dbg !2574
; call <u32 as compiler_builtins::int::CastInto<u64>>::cast
  %1 = call i64 @"_ZN67_$LT$u32$u20$as$u20$compiler_builtins..int..CastInto$LT$u64$GT$$GT$4cast17h8b59634ffc2c8f98E"(i32 64) #8, !dbg !2575
  store i64 %1, ptr %bits, align 8, !dbg !2575
  store i32 52, ptr %significand_bits.dbg.spill, align 4, !dbg !2576
  call void @llvm.dbg.declare(metadata ptr %significand_bits.dbg.spill, metadata !2488, metadata !DIExpression()), !dbg !2577
  store i32 2047, ptr %max_exponent.dbg.spill, align 4, !dbg !2578
  call void @llvm.dbg.declare(metadata ptr %max_exponent.dbg.spill, metadata !2490, metadata !DIExpression()), !dbg !2579
  store i64 4503599627370496, ptr %implicit_bit.dbg.spill, align 8, !dbg !2580
  call void @llvm.dbg.declare(metadata ptr %implicit_bit.dbg.spill, metadata !2492, metadata !DIExpression()), !dbg !2581
  store i64 4503599627370495, ptr %significand_mask.dbg.spill, align 8, !dbg !2582
  call void @llvm.dbg.declare(metadata ptr %significand_mask.dbg.spill, metadata !2494, metadata !DIExpression()), !dbg !2583
  store i64 -9223372036854775808, ptr %sign_bit, align 8, !dbg !2584
  %_13 = load i64, ptr %sign_bit, align 8, !dbg !2585
; call <u64 as core::ops::arith::Sub>::sub
  %abs_mask = call i64 @"_ZN45_$LT$u64$u20$as$u20$core..ops..arith..Sub$GT$3sub17h22575febb12d7b96E"(i64 %_13, i64 1) #8, !dbg !2585
  store i64 %abs_mask, ptr %abs_mask.dbg.spill, align 8, !dbg !2585
  call void @llvm.dbg.declare(metadata ptr %abs_mask.dbg.spill, metadata !2498, metadata !DIExpression()), !dbg !2586
  store i64 9218868437227405312, ptr %exponent_mask.dbg.spill, align 8, !dbg !2587
  call void @llvm.dbg.declare(metadata ptr %exponent_mask.dbg.spill, metadata !2500, metadata !DIExpression()), !dbg !2588
  store i64 9218868437227405312, ptr %inf_rep, align 8, !dbg !2589
; call <u64 as core::ops::bit::Shr<u32>>::shr
  %quiet_bit = call i64 @"_ZN54_$LT$u64$u20$as$u20$core..ops..bit..Shr$LT$u32$GT$$GT$3shr17hd3acd92f0e92d74fE"(i64 4503599627370496, i32 1) #8, !dbg !2590
  store i64 %quiet_bit, ptr %quiet_bit.dbg.spill, align 8, !dbg !2590
  call void @llvm.dbg.declare(metadata ptr %quiet_bit.dbg.spill, metadata !2504, metadata !DIExpression()), !dbg !2591
; call <u64 as core::ops::bit::BitOr>::bitor
  %qnan_rep = call i64 @"_ZN45_$LT$u64$u20$as$u20$core..ops..bit..BitOr$GT$5bitor17h28a11ccbdbb1b2a0E"(i64 9218868437227405312, i64 %quiet_bit) #8, !dbg !2592
  store i64 %qnan_rep, ptr %qnan_rep.dbg.spill, align 8, !dbg !2592
  call void @llvm.dbg.declare(metadata ptr %qnan_rep.dbg.spill, metadata !2506, metadata !DIExpression()), !dbg !2593
; call <f64 as compiler_builtins::float::Float>::repr
  %2 = call i64 @"_ZN55_$LT$f64$u20$as$u20$compiler_builtins..float..Float$GT$4repr17h6d84a0c210bcb2d7E"(double %a) #8, !dbg !2594
  store i64 %2, ptr %a_rep, align 8, !dbg !2594
; call <f64 as compiler_builtins::float::Float>::repr
  %3 = call i64 @"_ZN55_$LT$f64$u20$as$u20$compiler_builtins..float..Float$GT$4repr17h6d84a0c210bcb2d7E"(double %b) #8, !dbg !2595
  store i64 %3, ptr %b_rep, align 8, !dbg !2595
  %_27 = load i64, ptr %a_rep, align 8, !dbg !2596
; call <u64 as core::ops::bit::BitAnd>::bitand
  %4 = call i64 @"_ZN46_$LT$u64$u20$as$u20$core..ops..bit..BitAnd$GT$6bitand17h5dd5308a9d8df24fE"(i64 %_27, i64 %abs_mask) #8, !dbg !2596
  store i64 %4, ptr %a_abs, align 8, !dbg !2596
  %_30 = load i64, ptr %b_rep, align 8, !dbg !2597
; call <u64 as core::ops::bit::BitAnd>::bitand
  %5 = call i64 @"_ZN46_$LT$u64$u20$as$u20$core..ops..bit..BitAnd$GT$6bitand17h5dd5308a9d8df24fE"(i64 %_30, i64 %abs_mask) #8, !dbg !2597
  store i64 %5, ptr %b_abs, align 8, !dbg !2597
  %_36 = load i64, ptr %a_abs, align 8, !dbg !2598
; call <u64 as compiler_builtins::int::Int>::wrapping_sub
  %6 = call i64 @"_ZN51_$LT$u64$u20$as$u20$compiler_builtins..int..Int$GT$12wrapping_sub17ha61eacdc90a112cbE"(i64 %_36, i64 1) #8, !dbg !2598
  store i64 %6, ptr %_35, align 8, !dbg !2598
  %_40 = load i64, ptr %inf_rep, align 8, !dbg !2599
; call <u64 as core::ops::arith::Sub>::sub
  %7 = call i64 @"_ZN45_$LT$u64$u20$as$u20$core..ops..arith..Sub$GT$3sub17h22575febb12d7b96E"(i64 %_40, i64 1) #8, !dbg !2599
  store i64 %7, ptr %_39, align 8, !dbg !2599
; call core::cmp::impls::<impl core::cmp::PartialOrd for u64>::ge
  %_33 = call zeroext i1 @"_ZN4core3cmp5impls55_$LT$impl$u20$core..cmp..PartialOrd$u20$for$u20$u64$GT$2ge17hb39d1bc948132581E"(ptr align 8 %_35, ptr align 8 %_39) #8, !dbg !2598
  br i1 %_33, label %bb9, label %bb10, !dbg !2598

bb10:                                             ; preds = %start
  %_45 = load i64, ptr %b_abs, align 8, !dbg !2600
; call <u64 as compiler_builtins::int::Int>::wrapping_sub
  %8 = call i64 @"_ZN51_$LT$u64$u20$as$u20$compiler_builtins..int..Int$GT$12wrapping_sub17ha61eacdc90a112cbE"(i64 %_45, i64 1) #8, !dbg !2600
  store i64 %8, ptr %_44, align 8, !dbg !2600
  %_49 = load i64, ptr %inf_rep, align 8, !dbg !2601
; call <u64 as core::ops::arith::Sub>::sub
  %9 = call i64 @"_ZN45_$LT$u64$u20$as$u20$core..ops..arith..Sub$GT$3sub17h22575febb12d7b96E"(i64 %_49, i64 1) #8, !dbg !2601
  store i64 %9, ptr %_48, align 8, !dbg !2601
; call core::cmp::impls::<impl core::cmp::PartialOrd for u64>::ge
  %_42 = call zeroext i1 @"_ZN4core3cmp5impls55_$LT$impl$u20$core..cmp..PartialOrd$u20$for$u20$u64$GT$2ge17hb39d1bc948132581E"(ptr align 8 %_44, ptr align 8 %_48) #8, !dbg !2600
  %10 = zext i1 %_42 to i8, !dbg !2598
  store i8 %10, ptr %_32, align 1, !dbg !2598
  br label %bb11, !dbg !2598

bb9:                                              ; preds = %start
  store i8 1, ptr %_32, align 1, !dbg !2598
  br label %bb11, !dbg !2598

bb11:                                             ; preds = %bb10, %bb9
  %11 = load i8, ptr %_32, align 1, !dbg !2598, !range !780, !noundef !55
  %12 = trunc i8 %11 to i1, !dbg !2598
  br i1 %12, label %bb18, label %bb50, !dbg !2598

bb50:                                             ; preds = %bb47, %bb11
; call core::cmp::impls::<impl core::cmp::PartialOrd for u64>::gt
  %_95 = call zeroext i1 @"_ZN4core3cmp5impls55_$LT$impl$u20$core..cmp..PartialOrd$u20$for$u20$u64$GT$2gt17h104cd5c38d58a6afE"(ptr align 8 %b_abs, ptr align 8 %a_abs) #8, !dbg !2602
  br i1 %_95, label %bb52, label %bb53, !dbg !2602

bb18:                                             ; preds = %bb11
; call core::cmp::impls::<impl core::cmp::PartialOrd for u64>::gt
  %_51 = call zeroext i1 @"_ZN4core3cmp5impls55_$LT$impl$u20$core..cmp..PartialOrd$u20$for$u20$u64$GT$2gt17h104cd5c38d58a6afE"(ptr align 8 %a_abs, ptr align 8 %inf_rep) #8, !dbg !2603
  br i1 %_51, label %bb20, label %bb22, !dbg !2603

bb22:                                             ; preds = %bb18
; call core::cmp::impls::<impl core::cmp::PartialOrd for u64>::gt
  %_57 = call zeroext i1 @"_ZN4core3cmp5impls55_$LT$impl$u20$core..cmp..PartialOrd$u20$for$u20$u64$GT$2gt17h104cd5c38d58a6afE"(ptr align 8 %b_abs, ptr align 8 %inf_rep) #8, !dbg !2604
  br i1 %_57, label %bb24, label %bb26, !dbg !2604

bb20:                                             ; preds = %bb18
  %_55 = load i64, ptr %a_abs, align 8, !dbg !2605
; call <u64 as core::ops::bit::BitOr>::bitor
  %_54 = call i64 @"_ZN45_$LT$u64$u20$as$u20$core..ops..bit..BitOr$GT$5bitor17h28a11ccbdbb1b2a0E"(i64 %_55, i64 %quiet_bit) #8, !dbg !2605
; call <f64 as compiler_builtins::float::Float>::from_repr
  %13 = call double @"_ZN55_$LT$f64$u20$as$u20$compiler_builtins..float..Float$GT$9from_repr17hb8d876fdfb82a14dE"(i64 %_54) #8, !dbg !2606
  store double %13, ptr %0, align 8, !dbg !2606
  br label %bb146, !dbg !2606

bb146:                                            ; preds = %bb145, %bb119, %bb95, %bb49, %bb46, %bb42, %bb37, %bb34, %bb33, %bb24, %bb20
  %14 = load double, ptr %0, align 8, !dbg !2607
  ret double %14, !dbg !2607

bb26:                                             ; preds = %bb22
; call core::cmp::impls::<impl core::cmp::PartialEq for u64>::eq
  %_63 = call zeroext i1 @"_ZN4core3cmp5impls54_$LT$impl$u20$core..cmp..PartialEq$u20$for$u20$u64$GT$2eq17hb4a9908b26756450E"(ptr align 8 %a_abs, ptr align 8 %inf_rep) #8, !dbg !2608
  br i1 %_63, label %bb28, label %bb35, !dbg !2608

bb24:                                             ; preds = %bb22
  %_61 = load i64, ptr %b_abs, align 8, !dbg !2609
; call <u64 as core::ops::bit::BitOr>::bitor
  %_60 = call i64 @"_ZN45_$LT$u64$u20$as$u20$core..ops..bit..BitOr$GT$5bitor17h28a11ccbdbb1b2a0E"(i64 %_61, i64 %quiet_bit) #8, !dbg !2609
; call <f64 as compiler_builtins::float::Float>::from_repr
  %15 = call double @"_ZN55_$LT$f64$u20$as$u20$compiler_builtins..float..Float$GT$9from_repr17hb8d876fdfb82a14dE"(i64 %_60) #8, !dbg !2610
  store double %15, ptr %0, align 8, !dbg !2610
  br label %bb146, !dbg !2610

bb35:                                             ; preds = %bb26
; call core::cmp::impls::<impl core::cmp::PartialEq for u64>::eq
  %_75 = call zeroext i1 @"_ZN4core3cmp5impls54_$LT$impl$u20$core..cmp..PartialEq$u20$for$u20$u64$GT$2eq17hb4a9908b26756450E"(ptr align 8 %b_abs, ptr align 8 %inf_rep) #8, !dbg !2611
  br i1 %_75, label %bb37, label %bb38, !dbg !2611

bb28:                                             ; preds = %bb26
; call <f64 as compiler_builtins::float::Float>::repr
  %_69 = call i64 @"_ZN55_$LT$f64$u20$as$u20$compiler_builtins..float..Float$GT$4repr17h6d84a0c210bcb2d7E"(double %a) #8, !dbg !2612
; call <f64 as compiler_builtins::float::Float>::repr
  %_71 = call i64 @"_ZN55_$LT$f64$u20$as$u20$compiler_builtins..float..Float$GT$4repr17h6d84a0c210bcb2d7E"(double %b) #8, !dbg !2613
; call <u64 as core::ops::bit::BitXor>::bitxor
  %16 = call i64 @"_ZN46_$LT$u64$u20$as$u20$core..ops..bit..BitXor$GT$6bitxor17h67cd9a791b9d3c2bE"(i64 %_69, i64 %_71) #8, !dbg !2614
  store i64 %16, ptr %_68, align 8, !dbg !2614
; call core::cmp::impls::<impl core::cmp::PartialEq for u64>::eq
  %_66 = call zeroext i1 @"_ZN4core3cmp5impls54_$LT$impl$u20$core..cmp..PartialEq$u20$for$u20$u64$GT$2eq17hb4a9908b26756450E"(ptr align 8 %_68, ptr align 8 %sign_bit) #8, !dbg !2614
  br i1 %_66, label %bb33, label %bb34, !dbg !2614

bb34:                                             ; preds = %bb28
  store double %a, ptr %0, align 8, !dbg !2615
  br label %bb146, !dbg !2616

bb33:                                             ; preds = %bb28
; call <f64 as compiler_builtins::float::Float>::from_repr
  %17 = call double @"_ZN55_$LT$f64$u20$as$u20$compiler_builtins..float..Float$GT$9from_repr17hb8d876fdfb82a14dE"(i64 %qnan_rep) #8, !dbg !2617
  store double %17, ptr %0, align 8, !dbg !2617
  br label %bb146, !dbg !2617

bb38:                                             ; preds = %bb35
  store i64 0, ptr %_81, align 8, !dbg !2618
; call core::cmp::impls::<impl core::cmp::PartialEq for u64>::eq
  %_78 = call zeroext i1 @"_ZN4core3cmp5impls54_$LT$impl$u20$core..cmp..PartialEq$u20$for$u20$u64$GT$2eq17hb4a9908b26756450E"(ptr align 8 %a_abs, ptr align 8 %_81) #8, !dbg !2619
  br i1 %_78, label %bb40, label %bb47, !dbg !2619

bb37:                                             ; preds = %bb35
  store double %b, ptr %0, align 8, !dbg !2620
  br label %bb146, !dbg !2621

bb47:                                             ; preds = %bb38
  store i64 0, ptr %_94, align 8, !dbg !2624
; call core::cmp::impls::<impl core::cmp::PartialEq for u64>::eq
  %_91 = call zeroext i1 @"_ZN4core3cmp5impls54_$LT$impl$u20$core..cmp..PartialEq$u20$for$u20$u64$GT$2eq17hb4a9908b26756450E"(ptr align 8 %b_abs, ptr align 8 %_94) #8, !dbg !2625
  br i1 %_91, label %bb49, label %bb50, !dbg !2625

bb40:                                             ; preds = %bb38
  store i64 0, ptr %_85, align 8, !dbg !2626
; call core::cmp::impls::<impl core::cmp::PartialEq for u64>::eq
  %_82 = call zeroext i1 @"_ZN4core3cmp5impls54_$LT$impl$u20$core..cmp..PartialEq$u20$for$u20$u64$GT$2eq17hb4a9908b26756450E"(ptr align 8 %b_abs, ptr align 8 %_85) #8, !dbg !2627
  br i1 %_82, label %bb42, label %bb46, !dbg !2627

bb46:                                             ; preds = %bb40
  store double %b, ptr %0, align 8, !dbg !2628
  br label %bb146, !dbg !2629

bb42:                                             ; preds = %bb40
; call <f64 as compiler_builtins::float::Float>::repr
  %_87 = call i64 @"_ZN55_$LT$f64$u20$as$u20$compiler_builtins..float..Float$GT$4repr17h6d84a0c210bcb2d7E"(double %a) #8, !dbg !2630
; call <f64 as compiler_builtins::float::Float>::repr
  %_89 = call i64 @"_ZN55_$LT$f64$u20$as$u20$compiler_builtins..float..Float$GT$4repr17h6d84a0c210bcb2d7E"(double %b) #8, !dbg !2631
; call <u64 as core::ops::bit::BitAnd>::bitand
  %_86 = call i64 @"_ZN46_$LT$u64$u20$as$u20$core..ops..bit..BitAnd$GT$6bitand17h5dd5308a9d8df24fE"(i64 %_87, i64 %_89) #8, !dbg !2630
; call <f64 as compiler_builtins::float::Float>::from_repr
  %18 = call double @"_ZN55_$LT$f64$u20$as$u20$compiler_builtins..float..Float$GT$9from_repr17hb8d876fdfb82a14dE"(i64 %_86) #8, !dbg !2632
  store double %18, ptr %0, align 8, !dbg !2632
  br label %bb146, !dbg !2632

bb49:                                             ; preds = %bb47
  store double %a, ptr %0, align 8, !dbg !2633
  br label %bb146, !dbg !2621

bb53:                                             ; preds = %bb52, %bb50
  %_104 = load i64, ptr %a_rep, align 8, !dbg !2634
; call <u64 as core::ops::bit::BitAnd>::bitand
  %_103 = call i64 @"_ZN46_$LT$u64$u20$as$u20$core..ops..bit..BitAnd$GT$6bitand17h5dd5308a9d8df24fE"(i64 %_104, i64 9218868437227405312) #8, !dbg !2635
; call <u64 as core::ops::bit::Shr<u32>>::shr
  %_102 = call i64 @"_ZN54_$LT$u64$u20$as$u20$core..ops..bit..Shr$LT$u32$GT$$GT$3shr17hd3acd92f0e92d74fE"(i64 %_103, i32 52) #8, !dbg !2636
; call <u64 as compiler_builtins::int::CastInto<i32>>::cast
  %19 = call i32 @"_ZN67_$LT$u64$u20$as$u20$compiler_builtins..int..CastInto$LT$i32$GT$$GT$4cast17h00845db9089de5a9E"(i64 %_102) #8, !dbg !2636
  store i32 %19, ptr %a_exponent, align 4, !dbg !2636
  %_110 = load i64, ptr %b_rep, align 8, !dbg !2637
; call <u64 as core::ops::bit::BitAnd>::bitand
  %_109 = call i64 @"_ZN46_$LT$u64$u20$as$u20$core..ops..bit..BitAnd$GT$6bitand17h5dd5308a9d8df24fE"(i64 %_110, i64 9218868437227405312) #8, !dbg !2638
; call <u64 as core::ops::bit::Shr<u32>>::shr
  %_108 = call i64 @"_ZN54_$LT$u64$u20$as$u20$core..ops..bit..Shr$LT$u32$GT$$GT$3shr17hd3acd92f0e92d74fE"(i64 %_109, i32 52) #8, !dbg !2639
; call <u64 as compiler_builtins::int::CastInto<i32>>::cast
  %20 = call i32 @"_ZN67_$LT$u64$u20$as$u20$compiler_builtins..int..CastInto$LT$i32$GT$$GT$4cast17h00845db9089de5a9E"(i64 %_108) #8, !dbg !2639
  store i32 %20, ptr %b_exponent, align 4, !dbg !2639
  %_114 = load i64, ptr %a_rep, align 8, !dbg !2640
; call <u64 as core::ops::bit::BitAnd>::bitand
  %21 = call i64 @"_ZN46_$LT$u64$u20$as$u20$core..ops..bit..BitAnd$GT$6bitand17h5dd5308a9d8df24fE"(i64 %_114, i64 4503599627370495) #8, !dbg !2640
  store i64 %21, ptr %a_significand, align 8, !dbg !2640
  %_117 = load i64, ptr %b_rep, align 8, !dbg !2641
; call <u64 as core::ops::bit::BitAnd>::bitand
  %22 = call i64 @"_ZN46_$LT$u64$u20$as$u20$core..ops..bit..BitAnd$GT$6bitand17h5dd5308a9d8df24fE"(i64 %_117, i64 4503599627370495) #8, !dbg !2641
  store i64 %22, ptr %b_significand, align 8, !dbg !2641
  %_119 = load i32, ptr %a_exponent, align 4, !dbg !2642
  %23 = icmp eq i32 %_119, 0, !dbg !2642
  br i1 %23, label %bb62, label %bb64, !dbg !2642

bb52:                                             ; preds = %bb50
  %tmp = load i64, ptr %a_rep, align 8, !dbg !2643
  store i64 %tmp, ptr %tmp.dbg.spill, align 8, !dbg !2643
  call void @llvm.dbg.declare(metadata ptr %tmp.dbg.spill, metadata !2516, metadata !DIExpression()), !dbg !2644
  %_99 = load i64, ptr %b_rep, align 8, !dbg !2645
  store i64 %_99, ptr %a_rep, align 8, !dbg !2646
  store i64 %tmp, ptr %b_rep, align 8, !dbg !2647
  br label %bb53, !dbg !2648

bb62:                                             ; preds = %bb53
  %_123 = load i64, ptr %a_significand, align 8, !dbg !2649
; call <f64 as compiler_builtins::float::Float>::normalize
  %24 = call { i32, i64 } @"_ZN55_$LT$f64$u20$as$u20$compiler_builtins..float..Float$GT$9normalize17h26b99590713ce206E"(i64 %_123) #8, !dbg !2650
  %_122.0 = extractvalue { i32, i64 } %24, 0, !dbg !2650
  %_122.1 = extractvalue { i32, i64 } %24, 1, !dbg !2650
  store i32 %_122.0, ptr %exponent.dbg.spill, align 4, !dbg !2651
  call void @llvm.dbg.declare(metadata ptr %exponent.dbg.spill, metadata !2526, metadata !DIExpression()), !dbg !2652
  store i64 %_122.1, ptr %significand.dbg.spill, align 8, !dbg !2653
  call void @llvm.dbg.declare(metadata ptr %significand.dbg.spill, metadata !2528, metadata !DIExpression()), !dbg !2654
  store i32 %_122.0, ptr %a_exponent, align 4, !dbg !2655
  store i64 %_122.1, ptr %a_significand, align 8, !dbg !2656
  br label %bb64, !dbg !2657

bb64:                                             ; preds = %bb62, %bb53
  %_126 = load i32, ptr %b_exponent, align 4, !dbg !2658
  %25 = icmp eq i32 %_126, 0, !dbg !2658
  br i1 %25, label %bb65, label %bb67, !dbg !2658

bb65:                                             ; preds = %bb64
  %_130 = load i64, ptr %b_significand, align 8, !dbg !2659
; call <f64 as compiler_builtins::float::Float>::normalize
  %26 = call { i32, i64 } @"_ZN55_$LT$f64$u20$as$u20$compiler_builtins..float..Float$GT$9normalize17h26b99590713ce206E"(i64 %_130) #8, !dbg !2660
  %_129.0 = extractvalue { i32, i64 } %26, 0, !dbg !2660
  %_129.1 = extractvalue { i32, i64 } %26, 1, !dbg !2660
  store i32 %_129.0, ptr %exponent.dbg.spill1, align 4, !dbg !2661
  call void @llvm.dbg.declare(metadata ptr %exponent.dbg.spill1, metadata !2529, metadata !DIExpression()), !dbg !2662
  store i64 %_129.1, ptr %significand.dbg.spill2, align 8, !dbg !2663
  call void @llvm.dbg.declare(metadata ptr %significand.dbg.spill2, metadata !2531, metadata !DIExpression()), !dbg !2664
  store i32 %_129.0, ptr %b_exponent, align 4, !dbg !2665
  store i64 %_129.1, ptr %b_significand, align 8, !dbg !2666
  br label %bb67, !dbg !2667

bb67:                                             ; preds = %bb65, %bb64
  %_134 = load i64, ptr %a_rep, align 8, !dbg !2668
  %_135 = load i64, ptr %sign_bit, align 8, !dbg !2669
; call <u64 as core::ops::bit::BitAnd>::bitand
  %result_sign = call i64 @"_ZN46_$LT$u64$u20$as$u20$core..ops..bit..BitAnd$GT$6bitand17h5dd5308a9d8df24fE"(i64 %_134, i64 %_135) #8, !dbg !2668
  store i64 %result_sign, ptr %result_sign.dbg.spill, align 8, !dbg !2668
  call void @llvm.dbg.declare(metadata ptr %result_sign.dbg.spill, metadata !2532, metadata !DIExpression()), !dbg !2670
  %_140 = load i64, ptr %a_rep, align 8, !dbg !2671
  %_141 = load i64, ptr %b_rep, align 8, !dbg !2672
; call <u64 as core::ops::bit::BitXor>::bitxor
  %_139 = call i64 @"_ZN46_$LT$u64$u20$as$u20$core..ops..bit..BitXor$GT$6bitxor17h67cd9a791b9d3c2bE"(i64 %_140, i64 %_141) #8, !dbg !2673
  %_142 = load i64, ptr %sign_bit, align 8, !dbg !2674
; call <u64 as core::ops::bit::BitAnd>::bitand
  %27 = call i64 @"_ZN46_$LT$u64$u20$as$u20$core..ops..bit..BitAnd$GT$6bitand17h5dd5308a9d8df24fE"(i64 %_139, i64 %_142) #8, !dbg !2675
  store i64 %27, ptr %_138, align 8, !dbg !2675
; call core::cmp::impls::<impl core::cmp::PartialEq for u64>::ne
  %subtraction = call zeroext i1 @"_ZN4core3cmp5impls54_$LT$impl$u20$core..cmp..PartialEq$u20$for$u20$u64$GT$2ne17h5b6af75f7732dab1E"(ptr align 8 %_138, ptr align 8 %zero) #8, !dbg !2675
  %28 = zext i1 %subtraction to i8, !dbg !2675
  store i8 %28, ptr %subtraction.dbg.spill, align 1, !dbg !2675
  call void @llvm.dbg.declare(metadata ptr %subtraction.dbg.spill, metadata !2534, metadata !DIExpression()), !dbg !2676
  %_146 = load i64, ptr %a_significand, align 8, !dbg !2677
; call <u64 as core::ops::bit::BitOr>::bitor
  %_145 = call i64 @"_ZN45_$LT$u64$u20$as$u20$core..ops..bit..BitOr$GT$5bitor17h28a11ccbdbb1b2a0E"(i64 %_146, i64 4503599627370496) #8, !dbg !2678
; call <u64 as core::ops::bit::Shl<u32>>::shl
  %_144 = call i64 @"_ZN54_$LT$u64$u20$as$u20$core..ops..bit..Shl$LT$u32$GT$$GT$3shl17h1fb32d9a6fdf861aE"(i64 %_145, i32 3) #8, !dbg !2678
  store i64 %_144, ptr %a_significand, align 8, !dbg !2679
  %_150 = load i64, ptr %b_significand, align 8, !dbg !2680
; call <u64 as core::ops::bit::BitOr>::bitor
  %_149 = call i64 @"_ZN45_$LT$u64$u20$as$u20$core..ops..bit..BitOr$GT$5bitor17h28a11ccbdbb1b2a0E"(i64 %_150, i64 4503599627370496) #8, !dbg !2681
; call <u64 as core::ops::bit::Shl<u32>>::shl
  %_148 = call i64 @"_ZN54_$LT$u64$u20$as$u20$core..ops..bit..Shl$LT$u32$GT$$GT$3shl17h1fb32d9a6fdf861aE"(i64 %_149, i32 3) #8, !dbg !2681
  store i64 %_148, ptr %b_significand, align 8, !dbg !2682
  %_154 = load i32, ptr %a_exponent, align 4, !dbg !2683
  %_155 = load i32, ptr %b_exponent, align 4, !dbg !2684
  store i32 %_154, ptr %self.dbg.spill.i, align 4
  call void @llvm.dbg.declare(metadata ptr %self.dbg.spill.i, metadata !703, metadata !DIExpression()), !dbg !2685
  store i32 %_155, ptr %rhs.dbg.spill.i, align 4
  call void @llvm.dbg.declare(metadata ptr %rhs.dbg.spill.i, metadata !706, metadata !DIExpression()), !dbg !2687
  %29 = sub i32 %_154, %_155, !dbg !2688
; call <i32 as compiler_builtins::int::CastInto<u64>>::cast
  %30 = call i64 @"_ZN67_$LT$i32$u20$as$u20$compiler_builtins..int..CastInto$LT$u64$GT$$GT$4cast17h8a80344232e95a6cE"(i32 %29) #8, !dbg !2683
  store i64 %30, ptr %align, align 8, !dbg !2683
  store i64 0, ptr %_159, align 8, !dbg !2689
; call core::cmp::impls::<impl core::cmp::PartialEq for u64>::ne
  %_156 = call zeroext i1 @"_ZN4core3cmp5impls54_$LT$impl$u20$core..cmp..PartialEq$u20$for$u20$u64$GT$2ne17h5b6af75f7732dab1E"(ptr align 8 %align, ptr align 8 %_159) #8, !dbg !2690
  br i1 %_156, label %bb79, label %bb91, !dbg !2690

bb91:                                             ; preds = %bb90, %bb81, %bb67
  br i1 %subtraction, label %bb92, label %bb106, !dbg !2691

bb79:                                             ; preds = %bb67
; call core::cmp::impls::<impl core::cmp::PartialOrd for u64>::lt
  %_160 = call zeroext i1 @"_ZN4core3cmp5impls55_$LT$impl$u20$core..cmp..PartialOrd$u20$for$u20$u64$GT$2lt17hd17f7ea06781013dE"(ptr align 8 %align, ptr align 8 %bits) #8, !dbg !2692
  br i1 %_160, label %bb81, label %bb90, !dbg !2692

bb90:                                             ; preds = %bb79
  store i64 1, ptr %b_significand, align 8, !dbg !2693
  br label %bb91, !dbg !2694

bb81:                                             ; preds = %bb79
  %_167 = load i64, ptr %b_significand, align 8, !dbg !2695
  %_170 = load i64, ptr %bits, align 8, !dbg !2696
  %_171 = load i64, ptr %align, align 8, !dbg !2697
; call <u64 as compiler_builtins::int::Int>::wrapping_sub
  %_169 = call i64 @"_ZN51_$LT$u64$u20$as$u20$compiler_builtins..int..Int$GT$12wrapping_sub17ha61eacdc90a112cbE"(i64 %_170, i64 %_171) #8, !dbg !2696
; call <u64 as compiler_builtins::int::CastInto<u32>>::cast
  %_168 = call i32 @"_ZN67_$LT$u64$u20$as$u20$compiler_builtins..int..CastInto$LT$u32$GT$$GT$4cast17hee0a9daccc98ae19E"(i64 %_169) #8, !dbg !2696
; call <u64 as core::ops::bit::Shl<u32>>::shl
  %31 = call i64 @"_ZN54_$LT$u64$u20$as$u20$core..ops..bit..Shl$LT$u32$GT$$GT$3shl17h1fb32d9a6fdf861aE"(i64 %_167, i32 %_168) #8, !dbg !2695
  store i64 %31, ptr %_166, align 8, !dbg !2695
  store i64 0, ptr %_173, align 8, !dbg !2698
; call core::cmp::impls::<impl core::cmp::PartialEq for u64>::ne
  %_164 = call zeroext i1 @"_ZN4core3cmp5impls54_$LT$impl$u20$core..cmp..PartialEq$u20$for$u20$u64$GT$2ne17h5b6af75f7732dab1E"(ptr align 8 %_166, ptr align 8 %_173) #8, !dbg !2695
; call <u64 as compiler_builtins::int::Int>::from_bool
