; ModuleID = 'bootloader.4c619316-cgu.0'
source_filename = "bootloader.4c619316-cgu.0"
target datalayout = "e-m:e-i64:64-f80:128-n8:16:32:64-S128"
target triple = "x86_64-obuasi-unknown-none"

%"bootinfo::memory_map::MemoryRegion" = type { { i64, i64 }, i32, [1 x i32] }
%"core::ops::range::RangeInclusive<usize>" = type { i64, i64, i8, [7 x i8] }
%"core::fmt::Arguments<'_>" = type { { ptr, i64 }, { ptr, i64 }, { ptr, i64 } }
%"core::fmt::UnsafeArg" = type { {} }
%"core::mem::maybe_uninit::MaybeUninit<bootinfo::memory_map::MemoryRegion>" = type { [3 x i64] }
%"core::mem::manually_drop::ManuallyDrop<bootinfo::memory_map::MemoryRegion>" = type { %"bootinfo::memory_map::MemoryRegion" }
%"core::ptr::metadata::PtrRepr<[bootinfo::memory_map::MemoryRegion]>" = type { [2 x i64] }
%"core::ptr::metadata::PtrComponents<bootinfo::memory_map::MemoryRegion>" = type { ptr, {} }
%"core::ptr::metadata::PtrRepr<bootinfo::memory_map::MemoryRegion>" = type { [1 x i64] }
%"[closure@/Users/yaw/.cargo/registry/src/index.crates.io-6f17d22bba15001f/bootloader-0.9.23/src/bootinfo/memory_map.rs:40:39: 40:47]" = type {}
%"[closure@core::slice::sort::choose_pivot<bootinfo::memory_map::MemoryRegion, [closure@core::slice::<impl [bootinfo::memory_map::MemoryRegion]>::sort_unstable_by<[closure@/Users/yaw/.cargo/registry/src/index.crates.io-6f17d22bba15001f/bootloader-0.9.23/src/bootinfo/memory_map.rs:40:39: 40:47]>::{closure#0}]>::{closure#0}]" = type { { ptr, i64 }, ptr, ptr }
%"core::option::Option<core::fmt::Arguments<'_>>" = type { [2 x i64], ptr, [3 x i64] }
%"bootinfo::TlsTemplate" = type { i64, i64, i64 }
%"core::option::Option<bootinfo::TlsTemplate>::Some" = type { [1 x i64], %"bootinfo::TlsTemplate" }
%"[closure@/Users/yaw/.cargo/registry/src/index.crates.io-6f17d22bba15001f/bootloader-0.9.23/src/bootinfo/memory_map.rs:58:70: 58:73]" = type {}
%"bootinfo::memory_map::MemoryMap" = type { [64 x %"bootinfo::memory_map::MemoryRegion"], i64 }
%"core::fmt::builders::DebugList<'_, '_>" = type { %"core::fmt::builders::DebugInner<'_, '_>" }
%"core::fmt::builders::DebugInner<'_, '_>" = type { ptr, i8, i8, [6 x i8] }
%"core::fmt::rt::v1::FormatSpec" = type { { i64, i64 }, { i64, i64 }, i32, i32, i8, [7 x i8] }
%"core::fmt::rt::v1::Argument" = type { %"core::fmt::rt::v1::FormatSpec", i64 }
%"bootinfo::memory_map::E820MemoryRegion" = type { i64, i64, i32, i32 }
%"bootinfo::BootInfo" = type { %"bootinfo::memory_map::MemoryMap", %"bootinfo::TlsTemplate", i8, [7 x i8] }
%"core::option::Option<bootinfo::TlsTemplate>" = type { i64, [3 x i64] }

@alloc_fa017189c529f9a37ad81f1b7f28d734 = private unnamed_addr constant <{ [97 x i8] }> <{ [97 x i8] c"unsafe precondition(s) violated: slice::get_unchecked requires that the range is within the slice" }>, align 1
@alloc_e4c0784e4975da2173a354afd99193ad = private unnamed_addr constant <{ [101 x i8] }> <{ [101 x i8] c"unsafe precondition(s) violated: slice::get_unchecked_mut requires that the range is within the slice" }>, align 1
@alloc_cf71ba46b07f75a509e946b584ee4f31 = private unnamed_addr constant <{ [110 x i8] }> <{ [110 x i8] c"/Users/yaw/.rustup/toolchains/nightly-aarch64-apple-darwin/lib/rustlib/src/rust/library/core/src/intrinsics.rs" }>, align 1
@alloc_c92b068cc8d2cd4c50e9488095980e32 = private unnamed_addr constant <{ ptr, [16 x i8] }> <{ ptr @alloc_cf71ba46b07f75a509e946b584ee4f31, [16 x i8] c"n\00\00\00\00\00\00\00\DA\09\00\007\00\00\00" }>, align 8
@alloc_7ad8e03c2174e39a8f819d6ca6833838 = private unnamed_addr constant <{ ptr, [16 x i8] }> <{ ptr @alloc_cf71ba46b07f75a509e946b584ee4f31, [16 x i8] c"n\00\00\00\00\00\00\00\DB\09\00\00+\00\00\00" }>, align 8
@str.0 = internal constant [33 x i8] c"attempt to subtract with overflow"
@alloc_2ca6b8c4026dbf3457d2606f6c47263d = private unnamed_addr constant <{ ptr, [16 x i8] }> <{ ptr @alloc_cf71ba46b07f75a509e946b584ee4f31, [16 x i8] c"n\00\00\00\00\00\00\00\DB\09\00\00J\00\00\00" }>, align 8
@alloc_8df0580a595a87d56789d20c7318e185 = private unnamed_addr constant <{ [166 x i8] }> <{ [166 x i8] c"unsafe precondition(s) violated: ptr::copy_nonoverlapping requires that both pointer arguments are aligned and non-null and the specified memory ranges do not overlap" }>, align 1
@alloc_4f979e408ba56e8e0fdc172fb24ef68d = private unnamed_addr constant <{ [112 x i8] }> <{ [112 x i8] c"unsafe precondition(s) violated: ptr::copy requires that both pointer arguments are aligned aligned and non-null" }>, align 1
@vtable.1 = private constant <{ ptr, [16 x i8], ptr }> <{ ptr @"_ZN4core3ptr71drop_in_place$LT$$RF$bootloader..bootinfo..memory_map..MemoryRegion$GT$17h749af3c141c3b648E", [16 x i8] c"\08\00\00\00\00\00\00\00\08\00\00\00\00\00\00\00", ptr @"_ZN42_$LT$$RF$T$u20$as$u20$core..fmt..Debug$GT$3fmt17ha840e02953f70767E" }>, align 8, !dbg !0
@alloc_c2ea93c90919bb7b1e482f917e413fa1 = private unnamed_addr constant <{ [107 x i8] }> <{ [107 x i8] c"/Users/yaw/.rustup/toolchains/nightly-aarch64-apple-darwin/lib/rustlib/src/rust/library/core/src/fmt/mod.rs" }>, align 1
@alloc_bf47d7cf946e324312b7aba9afabb742 = private unnamed_addr constant <{ ptr, [16 x i8] }> <{ ptr @alloc_c2ea93c90919bb7b1e482f917e413fa1, [16 x i8] c"k\00\00\00\00\00\00\00\9D\01\00\008\00\00\00" }>, align 8
@str.2 = internal constant [28 x i8] c"attempt to add with overflow"
@alloc_91c7fa63c3cfeaa3c795652d5cf060e4 = private unnamed_addr constant <{ [12 x i8] }> <{ [12 x i8] c"invalid args" }>, align 1
@alloc_560206a49c61adca6f3f0639a12632eb = private unnamed_addr constant <{ ptr, [8 x i8] }> <{ ptr @alloc_91c7fa63c3cfeaa3c795652d5cf060e4, [8 x i8] c"\0C\00\00\00\00\00\00\00" }>, align 8
@alloc_0e0da1257467e00be4bc17cc4a166d8a = private unnamed_addr constant <{ ptr, [16 x i8] }> <{ ptr @alloc_c2ea93c90919bb7b1e482f917e413fa1, [16 x i8] c"k\00\00\00\00\00\00\00\9E\01\00\00\0D\00\00\00" }>, align 8
@alloc_3565e73f34d7302748197a3f0bc50374 = private unnamed_addr constant <{ ptr, [16 x i8] }> <{ ptr @alloc_c2ea93c90919bb7b1e482f917e413fa1, [16 x i8] c"k\00\00\00\00\00\00\00\91\01\00\00\0D\00\00\00" }>, align 8
@alloc_513570631223a12912d85da2bec3b15a = private unnamed_addr constant <{}> zeroinitializer, align 8
@alloc_062d8212fd02b81dce3f023edbf3244d = private unnamed_addr constant <{ [107 x i8] }> <{ [107 x i8] c"/Users/yaw/.rustup/toolchains/nightly-aarch64-apple-darwin/lib/rustlib/src/rust/library/core/src/mem/mod.rs" }>, align 1
@alloc_f5758da710ba897165288b0f4da8acb3 = private unnamed_addr constant <{ ptr, [16 x i8] }> <{ ptr @alloc_062d8212fd02b81dce3f023edbf3244d, [16 x i8] c"k\00\00\00\00\00\00\00\E5\02\00\00\0C\00\00\00" }>, align 8
@str.3 = internal constant [25 x i8] c"attempt to divide by zero"
@alloc_8b72e65625de3e221368553edb4591ff = private unnamed_addr constant <{ [107 x i8] }> <{ [107 x i8] c"/Users/yaw/.rustup/toolchains/nightly-aarch64-apple-darwin/lib/rustlib/src/rust/library/core/src/num/mod.rs" }>, align 1
@alloc_82a295533409787c3e504fb0ce3831ff = private unnamed_addr constant <{ ptr, [16 x i8] }> <{ ptr @alloc_8b72e65625de3e221368553edb4591ff, [16 x i8] c"k\00\00\00\00\00\00\00\A6\04\00\00\05\00\00\00" }>, align 8
@str.4 = internal constant [36 x i8] c"attempt to shift right with overflow"
@alloc_444495105b9016883a01942a28847d22 = private unnamed_addr constant <{ [109 x i8] }> <{ [109 x i8] c"/Users/yaw/.rustup/toolchains/nightly-aarch64-apple-darwin/lib/rustlib/src/rust/library/core/src/ops/range.rs" }>, align 1
@alloc_50d1e257ccd56aaa3f8677a989ec63c7 = private unnamed_addr constant <{ ptr, [16 x i8] }> <{ ptr @alloc_444495105b9016883a01942a28847d22, [16 x i8] c"m\00\00\00\00\00\00\00\CA\01\00\00\1D\00\00\00" }>, align 8
@alloc_29f87e6ac6e7e4317253d26531c5c81c = private unnamed_addr constant <{ [107 x i8] }> <{ [107 x i8] c"/Users/yaw/.rustup/toolchains/nightly-aarch64-apple-darwin/lib/rustlib/src/rust/library/core/src/ptr/mod.rs" }>, align 1
@alloc_a8d2d57d37571df30f9c47ba3b3c586b = private unnamed_addr constant <{ ptr, [16 x i8] }> <{ ptr @alloc_29f87e6ac6e7e4317253d26531c5c81c, [16 x i8] c"k\00\00\00\00\00\00\00\AC\03\00\00&\00\00\00" }>, align 8
@str.5 = internal constant [33 x i8] c"attempt to multiply with overflow"
@alloc_1c99eb2e2429202974a1788dce7f6920 = private unnamed_addr constant <{ ptr, [16 x i8] }> <{ ptr @alloc_29f87e6ac6e7e4317253d26531c5c81c, [16 x i8] c"k\00\00\00\00\00\00\00\AE\03\00\00\09\00\00\00" }>, align 8
@str.6 = internal constant [57 x i8] c"attempt to calculate the remainder with a divisor of zero"
@alloc_aee30a4ba5cd6160a04cfc5ee6f29e2a = private unnamed_addr constant <{ ptr, [16 x i8] }> <{ ptr @alloc_29f87e6ac6e7e4317253d26531c5c81c, [16 x i8] c"k\00\00\00\00\00\00\00\AF\03\00\00\09\00\00\00" }>, align 8
@alloc_546a48d82dbbd37bfd409d4513b73f46 = private unnamed_addr constant <{ [166 x i8] }> <{ [166 x i8] c"unsafe precondition(s) violated: ptr::swap_nonoverlapping requires that both pointer arguments are aligned and non-null and the specified memory ranges do not overlap" }>, align 1
@alloc_dbabcbd9c3313ee88be66af0b6b2af23 = private unnamed_addr constant <{ ptr, [16 x i8] }> <{ ptr @alloc_29f87e6ac6e7e4317253d26531c5c81c, [16 x i8] c"k\00\00\00\00\00\00\00\C8\03\00\00\09\00\00\00" }>, align 8
@alloc_981fd9513041e1603a1d1d7b668a749d = private unnamed_addr constant <{ [101 x i8] }> <{ [101 x i8] c"unsafe precondition(s) violated: ptr::read requires that the pointer argument is aligned and non-null" }>, align 1
@alloc_b7474065d782af00c4610bb4ef55210b = private unnamed_addr constant <{ [102 x i8] }> <{ [102 x i8] c"unsafe precondition(s) violated: ptr::write requires that the pointer argument is aligned and non-null" }>, align 1
@alloc_20b3d155afd5c58c42e598b7e6d186ef = private unnamed_addr constant <{ [93 x i8] }> <{ [93 x i8] c"unsafe precondition(s) violated: NonNull::new_unchecked requires that the pointer is non-null" }>, align 1
@alloc_cc91f7045aeea4ab0f301c62c00dba06 = private unnamed_addr constant <{ [113 x i8] }> <{ [113 x i8] c"/Users/yaw/.rustup/toolchains/nightly-aarch64-apple-darwin/lib/rustlib/src/rust/library/core/src/ptr/const_ptr.rs" }>, align 1
@alloc_62bc2c890ddc30f006544617e59d1e71 = private unnamed_addr constant <{ ptr, [16 x i8] }> <{ ptr @alloc_cc91f7045aeea4ab0f301c62c00dba06, [16 x i8] c"q\00\00\00\00\00\00\00#\06\00\00\1A\00\00\00" }>, align 8
@alloc_fad0cd83b7d1858a846a172eb260e593 = private unnamed_addr constant <{ [42 x i8] }> <{ [42 x i8] c"is_aligned_to: align is not a power-of-two" }>, align 1
@alloc_60ac762d06592b2ab3358175d7a7c295 = private unnamed_addr constant <{ ptr, [8 x i8] }> <{ ptr @alloc_fad0cd83b7d1858a846a172eb260e593, [8 x i8] c"*\00\00\00\00\00\00\00" }>, align 8
@alloc_96632254c3ae610e82e64a0469a9df2d = private unnamed_addr constant <{ ptr, [16 x i8] }> <{ ptr @alloc_cc91f7045aeea4ab0f301c62c00dba06, [16 x i8] c"q\00\00\00\00\00\00\00\1E\06\00\00\0D\00\00\00" }>, align 8
@alloc_ec595fc0e82ef92fc59bd74f68296eae = private unnamed_addr constant <{ [73 x i8] }> <{ [73 x i8] c"assertion failed: 0 < pointee_size && pointee_size <= isize::MAX as usize" }>, align 1
@alloc_054967ab02808043e6941783e8d3de80 = private unnamed_addr constant <{ ptr, [16 x i8] }> <{ ptr @alloc_cc91f7045aeea4ab0f301c62c00dba06, [16 x i8] c"q\00\00\00\00\00\00\00\1C\03\00\00\09\00\00\00" }>, align 8
@alloc_cb50775363ffdd1238910b6e9573721d = private unnamed_addr constant <{ [71 x i8] }> <{ [71 x i8] c"unsafe precondition(s) violated: ptr::sub_ptr requires `this >= origin`" }>, align 1
@alloc_fddaeef1fe1a23c45402ef8f58614acb = private unnamed_addr constant <{ [35 x i8] }> <{ [35 x i8] c"assertion failed: mid <= self.len()" }>, align 1
@alloc_9a72dc1c87ddefcce62e4b5ab68e5150 = private unnamed_addr constant <{ [1 x i8] }> <{ [1 x i8] c"\FF" }>, align 1
@alloc_0e767b22ac99e9123f3c482417f77f98 = private unnamed_addr constant <{ [109 x i8] }> <{ [109 x i8] c"/Users/yaw/.rustup/toolchains/nightly-aarch64-apple-darwin/lib/rustlib/src/rust/library/core/src/slice/mod.rs" }>, align 1
@alloc_4a6cc2814e9c70d90675aafc22034495 = private unnamed_addr constant <{ ptr, [16 x i8] }> <{ ptr @alloc_0e767b22ac99e9123f3c482417f77f98, [16 x i8] c"m\00\00\00\00\00\00\00\DD\06\00\00M\00\00\00" }>, align 8
@alloc_3dc073651148de734d2593768efc16e9 = private unnamed_addr constant <{ [104 x i8] }> <{ [104 x i8] c"unsafe precondition(s) violated: slice::split_at_mut_unchecked requires the index to be within the slice" }>, align 1
@alloc_dd0dc542054f5a3bd5e0287046a20794 = private unnamed_addr constant <{ [30 x i8] }> <{ [30 x i8] c"assertion failed: a.len() == n" }>, align 1
@alloc_9bc869464e7f5dcda873bc5fba3167ae = private unnamed_addr constant <{ ptr, [16 x i8] }> <{ ptr @alloc_0e767b22ac99e9123f3c482417f77f98, [16 x i8] c"m\00\00\00\00\00\00\00\C3\02\00\00\0D\00\00\00" }>, align 8
@alloc_deedf7aeab1a7c66b5420b58a4093bcc = private unnamed_addr constant <{ [30 x i8] }> <{ [30 x i8] c"assertion failed: b.len() == n" }>, align 1
@alloc_b8749fb97ee29c7317ad030bd8942a48 = private unnamed_addr constant <{ ptr, [16 x i8] }> <{ ptr @alloc_0e767b22ac99e9123f3c482417f77f98, [16 x i8] c"m\00\00\00\00\00\00\00\C4\02\00\00\0D\00\00\00" }>, align 8
@alloc_3aa494a7a9b07e5c1a0696cee8170daa = private unnamed_addr constant <{ ptr, [16 x i8] }> <{ ptr @alloc_0e767b22ac99e9123f3c482417f77f98, [16 x i8] c"m\00\00\00\00\00\00\00\CA\02\00\00 \00\00\00" }>, align 8
@alloc_fb8f45380652987d6b5bbea56a8e912e = private unnamed_addr constant <{ ptr, [16 x i8] }> <{ ptr @alloc_0e767b22ac99e9123f3c482417f77f98, [16 x i8] c"m\00\00\00\00\00\00\00\CA\02\00\00-\00\00\00" }>, align 8
@alloc_2d6a2ee37e528966f03d3441dddee676 = private unnamed_addr constant <{ ptr, [16 x i8] }> <{ ptr @alloc_0e767b22ac99e9123f3c482417f77f98, [16 x i8] c"m\00\00\00\00\00\00\00\CE\02\00\00 \00\00\00" }>, align 8
@alloc_aa932769fb5b51c12790c6d75b182bf2 = private unnamed_addr constant <{ ptr, [16 x i8] }> <{ ptr @alloc_0e767b22ac99e9123f3c482417f77f98, [16 x i8] c"m\00\00\00\00\00\00\00\CE\02\00\00-\00\00\00" }>, align 8
@alloc_6014d62b444cee9e42a5ca2bfd6b4613 = private unnamed_addr constant <{ ptr, [16 x i8] }> <{ ptr @alloc_0e767b22ac99e9123f3c482417f77f98, [16 x i8] c"m\00\00\00\00\00\00\00\CE\02\00\00+\00\00\00" }>, align 8
@alloc_c070e7c146c652ff4ec0b63c99b2e746 = private unnamed_addr constant <{ ptr, [16 x i8] }> <{ ptr @alloc_0e767b22ac99e9123f3c482417f77f98, [16 x i8] c"m\00\00\00\00\00\00\00\CF\02\00\00\11\00\00\00" }>, align 8
@alloc_d685bb4d9a1abf4f5af46d1af0d9ef8a = private unnamed_addr constant <{ [166 x i8] }> <{ [166 x i8] c"unsafe precondition(s) violated: slice::from_raw_parts_mut requires the pointer to be aligned and non-null, and the total size of the slice not to exceed `isize::MAX`" }>, align 1
@alloc_140877f72603b53a2926afdc5b6562c1 = private unnamed_addr constant <{ [30 x i8] }> <{ [30 x i8] c"assertion failed: v.len() >= 2" }>, align 1
@alloc_d80990e1774d1c38795ebd415913ef0a = private unnamed_addr constant <{ [110 x i8] }> <{ [110 x i8] c"/Users/yaw/.rustup/toolchains/nightly-aarch64-apple-darwin/lib/rustlib/src/rust/library/core/src/slice/sort.rs" }>, align 1
@alloc_6932146a2b5945f5118e7e865cb7ff4c = private unnamed_addr constant <{ ptr, [16 x i8] }> <{ ptr @alloc_d80990e1774d1c38795ebd415913ef0a, [16 x i8] c"n\00\00\00\00\00\00\00\\\00\00\00\05\00\00\00" }>, align 8
@alloc_2b18b37ae84d61762f070ebc082ffd36 = private unnamed_addr constant <{ ptr, [16 x i8] }> <{ ptr @alloc_d80990e1774d1c38795ebd415913ef0a, [16 x i8] c"n\00\00\00\00\00\00\00\87\00\00\00F\00\00\00" }>, align 8
@alloc_141337dbddbbf875f1e651a897c1c26f = private unnamed_addr constant <{ ptr, [16 x i8] }> <{ ptr @alloc_d80990e1774d1c38795ebd415913ef0a, [16 x i8] c"n\00\00\00\00\00\00\00'\00\00\00\05\00\00\00" }>, align 8
@alloc_90f4b6dda14e5cb7081926ef9c658315 = private unnamed_addr constant <{ ptr, [16 x i8] }> <{ ptr @alloc_d80990e1774d1c38795ebd415913ef0a, [16 x i8] c"n\00\00\00\00\00\00\00*\00\00\00\0D\00\00\00" }>, align 8
@alloc_e41efc6332efd19972427a8ca6f9ac9d = private unnamed_addr constant <{ ptr, [16 x i8] }> <{ ptr @alloc_d80990e1774d1c38795ebd415913ef0a, [16 x i8] c"n\00\00\00\00\00\00\00G\00\00\00\1A\00\00\00" }>, align 8
@alloc_912dd1c737b966744c5b309cc20a3d47 = private unnamed_addr constant <{ ptr, [16 x i8] }> <{ ptr @alloc_d80990e1774d1c38795ebd415913ef0a, [16 x i8] c"n\00\00\00\00\00\00\00\DF\02\00\00\11\00\00\00" }>, align 8
@alloc_7aff2c5e0ce2b115fc6c1e2cef0aaf8b = private unnamed_addr constant <{ ptr, [16 x i8] }> <{ ptr @alloc_d80990e1774d1c38795ebd415913ef0a, [16 x i8] c"n\00\00\00\00\00\00\00\E0\02\00\00\11\00\00\00" }>, align 8
@alloc_51fd6fd3cd9ef520ddfe39086f06b289 = private unnamed_addr constant <{ ptr, [16 x i8] }> <{ ptr @alloc_d80990e1774d1c38795ebd415913ef0a, [16 x i8] c"n\00\00\00\00\00\00\00\E1\02\00\00\11\00\00\00" }>, align 8
@alloc_6a8eb4c18787545063c119f92681aeff = private unnamed_addr constant <{ ptr, [16 x i8] }> <{ ptr @alloc_d80990e1774d1c38795ebd415913ef0a, [16 x i8] c"n\00\00\00\00\00\00\00\13\03\00\00\0A\00\00\00" }>, align 8
@alloc_8b1cf5b76b10a43810ba75cdb94336e8 = private unnamed_addr constant <{ ptr, [16 x i8] }> <{ ptr @alloc_d80990e1774d1c38795ebd415913ef0a, [16 x i8] c"n\00\00\00\00\00\00\00\F1\02\00\00\11\00\00\00" }>, align 8
@alloc_4e8855159810091534f04a19bbe30782 = private unnamed_addr constant <{ ptr, [16 x i8] }> <{ ptr @alloc_d80990e1774d1c38795ebd415913ef0a, [16 x i8] c"n\00\00\00\00\00\00\00\00\03\00\00\1C\00\00\00" }>, align 8
@alloc_787d88f30b9a4c9abd6abb658d261d97 = private unnamed_addr constant <{ ptr, [16 x i8] }> <{ ptr @alloc_d80990e1774d1c38795ebd415913ef0a, [16 x i8] c"n\00\00\00\00\00\00\00\00\03\00\00/\00\00\00" }>, align 8
@alloc_2745df5dada1022057bbf8b1e08b9408 = private unnamed_addr constant <{ ptr, [16 x i8] }> <{ ptr @alloc_d80990e1774d1c38795ebd415913ef0a, [16 x i8] c"n\00\00\00\00\00\00\00\BD\02\00\00\13\00\00\00" }>, align 8
@alloc_c3165b226cb3c0c182e30d6993318b09 = private unnamed_addr constant <{ ptr, [16 x i8] }> <{ ptr @alloc_d80990e1774d1c38795ebd415913ef0a, [16 x i8] c"n\00\00\00\00\00\00\00\C3\02\00\00+\00\00\00" }>, align 8
@alloc_c938216ce784d5d7b6bb0e8f59c85beb = private unnamed_addr constant <{ ptr, [16 x i8] }> <{ ptr @alloc_d80990e1774d1c38795ebd415913ef0a, [16 x i8] c"n\00\00\00\00\00\00\00\C7\02\00\00\11\00\00\00" }>, align 8
@alloc_55987e570b17d50f773e204af1733715 = private unnamed_addr constant <{ ptr, [16 x i8] }> <{ ptr @alloc_d80990e1774d1c38795ebd415913ef0a, [16 x i8] c"n\00\00\00\00\00\00\00\CA\02\00\00\14\00\00\00" }>, align 8
@alloc_dd29033771d55fdf04aba4a1982901e8 = private unnamed_addr constant <{ ptr, [16 x i8] }> <{ ptr @alloc_d80990e1774d1c38795ebd415913ef0a, [16 x i8] c"n\00\00\00\00\00\00\00\CA\02\00\00\0F\00\00\00" }>, align 8
@alloc_f8322b69080b1e19bc4df073038a414d = private unnamed_addr constant <{ ptr, [16 x i8] }> <{ ptr @alloc_d80990e1774d1c38795ebd415913ef0a, [16 x i8] c"n\00\00\00\00\00\00\00l\02\00\00\07\00\00\00" }>, align 8
@alloc_23975e137ecce848c3167e283c742672 = private unnamed_addr constant <{ ptr, [16 x i8] }> <{ ptr @alloc_d80990e1774d1c38795ebd415913ef0a, [16 x i8] c"n\00\00\00\00\00\00\00m\02\00\00\18\00\00\00" }>, align 8
@alloc_3ea9d353dbaea466ca156be00652f893 = private unnamed_addr constant <{ ptr, [16 x i8] }> <{ ptr @alloc_d80990e1774d1c38795ebd415913ef0a, [16 x i8] c"n\00\00\00\00\00\00\00n\02\00\00\16\00\00\00" }>, align 8
@alloc_a23b538f7d9197acefade9a7784184c2 = private unnamed_addr constant <{ ptr, [16 x i8] }> <{ ptr @alloc_d80990e1774d1c38795ebd415913ef0a, [16 x i8] c"n\00\00\00\00\00\00\00\82\02\00\00\11\00\00\00" }>, align 8
@alloc_3aa499bef66e3a89497706d0904ac653 = private unnamed_addr constant <{ ptr, [16 x i8] }> <{ ptr @alloc_d80990e1774d1c38795ebd415913ef0a, [16 x i8] c"n\00\00\00\00\00\00\00\86\02\00\00;\00\00\00" }>, align 8
@alloc_6b88286adc8b79b2ce0db9f94ea83bc3 = private unnamed_addr constant <{ ptr, [16 x i8] }> <{ ptr @alloc_d80990e1774d1c38795ebd415913ef0a, [16 x i8] c"n\00\00\00\00\00\00\00\87\02\00\00\11\00\00\00" }>, align 8
@alloc_10d6a7449345760a13244dcd4f3e8edd = private unnamed_addr constant <{ ptr, [16 x i8] }> <{ ptr @alloc_d80990e1774d1c38795ebd415913ef0a, [16 x i8] c"n\00\00\00\00\00\00\00\98\02\00\00\05\00\00\00" }>, align 8
@alloc_894987bd31137d43dbfbf66922648de6 = private unnamed_addr constant <{ ptr, [16 x i8] }> <{ ptr @alloc_d80990e1774d1c38795ebd415913ef0a, [16 x i8] c"n\00\00\00\00\00\00\00\90\02\00\00\0D\00\00\00" }>, align 8
@alloc_bae318ebda80fadd5948c94c31acdbd2 = private unnamed_addr constant <{ ptr, [16 x i8] }> <{ ptr @alloc_d80990e1774d1c38795ebd415913ef0a, [16 x i8] c"n\00\00\00\00\00\00\00\93\02\00\00\0D\00\00\00" }>, align 8
@alloc_fe4e881dfa6c70f91499a9b97cada070 = private unnamed_addr constant <{ ptr, [16 x i8] }> <{ ptr @alloc_d80990e1774d1c38795ebd415913ef0a, [16 x i8] c"n\00\00\00\00\00\00\00_\01\00\00&\00\00\00" }>, align 8
@alloc_2417cbaa5b767dc07fcb426311fbedcd = private unnamed_addr constant <{ ptr, [16 x i8] }> <{ ptr @alloc_d80990e1774d1c38795ebd415913ef0a, [16 x i8] c"n\00\00\00\00\00\00\00e\01\00\00\11\00\00\00" }>, align 8
@alloc_7d4914bfaafcfa4692cc10dc5496d4e2 = private unnamed_addr constant <{ ptr, [16 x i8] }> <{ ptr @alloc_d80990e1774d1c38795ebd415913ef0a, [16 x i8] c"n\00\00\00\00\00\00\00s\01\00\00\1B\00\00\00" }>, align 8
@alloc_8221bdf38a3766feb9723f333c95dc9e = private unnamed_addr constant <{ [54 x i8] }> <{ [54 x i8] c"assertion failed: block_l <= BLOCK && block_r <= BLOCK" }>, align 1
@alloc_d98b9ce84085f5d91faa526ef2b40520 = private unnamed_addr constant <{ ptr, [16 x i8] }> <{ ptr @alloc_d80990e1774d1c38795ebd415913ef0a, [16 x i8] c"n\00\00\00\00\00\00\00u\01\00\00\0D\00\00\00" }>, align 8
@alloc_5d32d2daaec9cf0d402f2dc37af0ea6f = private unnamed_addr constant <{ ptr, [16 x i8] }> <{ ptr @alloc_d80990e1774d1c38795ebd415913ef0a, [16 x i8] c"n\00\00\00\00\00\00\00v\01\00\00*\00\00\00" }>, align 8
@alloc_a3f9d5911d83d2dfd6ee66814bbe6049 = private unnamed_addr constant <{ [50 x i8] }> <{ [50 x i8] c"assertion failed: width(l, r) == block_l + block_r" }>, align 1
@alloc_ea197cb372011b0fee90d7558b246bfb = private unnamed_addr constant <{ ptr, [16 x i8] }> <{ ptr @alloc_d80990e1774d1c38795ebd415913ef0a, [16 x i8] c"n\00\00\00\00\00\00\00v\01\00\00\0D\00\00\00" }>, align 8
@alloc_0a48b3a7e93a3fb66a7841c604466c03 = private unnamed_addr constant <{ ptr, [16 x i8] }> <{ ptr @alloc_d80990e1774d1c38795ebd415913ef0a, [16 x i8] c"n\00\00\00\00\00\00\00\D2\01\00\00*\00\00\00" }>, align 8
@alloc_255f6db4d0c02746fb4a9b785ea6e516 = private unnamed_addr constant <{ ptr, [16 x i8] }> <{ ptr @alloc_d80990e1774d1c38795ebd415913ef0a, [16 x i8] c"n\00\00\00\00\00\00\00\D6\01\00\007\00\00\00" }>, align 8
@alloc_3fa281490ed5627b0d5acda868d81af0 = private unnamed_addr constant <{ ptr, [16 x i8] }> <{ ptr @alloc_d80990e1774d1c38795ebd415913ef0a, [16 x i8] c"n\00\00\00\00\00\00\00\D8\01\00\00.\00\00\00" }>, align 8
@alloc_2107e90e8c7dda0adfd21e59e3b7e9ee = private unnamed_addr constant <{ ptr, [16 x i8] }> <{ ptr @alloc_d80990e1774d1c38795ebd415913ef0a, [16 x i8] c"n\00\00\00\00\00\00\00\DB\01\00\000\00\00\00" }>, align 8
@alloc_23d83fb97dc5ddd699c8f80f695d1b3b = private unnamed_addr constant <{ ptr, [16 x i8] }> <{ ptr @alloc_d80990e1774d1c38795ebd415913ef0a, [16 x i8] c"n\00\00\00\00\00\00\00\02\02\00\00\09\00\00\00" }>, align 8
@alloc_fbd29d12e7b221b5790588e8407e814c = private unnamed_addr constant <{ ptr, [16 x i8] }> <{ ptr @alloc_d80990e1774d1c38795ebd415913ef0a, [16 x i8] c"n\00\00\00\00\00\00\00\19\02\00\00\09\00\00\00" }>, align 8
@alloc_0ba58876d11be66a75ed3c6ebb0e6bf5 = private unnamed_addr constant <{ ptr, [16 x i8] }> <{ ptr @alloc_d80990e1774d1c38795ebd415913ef0a, [16 x i8] c"n\00\00\00\00\00\00\00\1E\02\00\00$\00\00\00" }>, align 8
@alloc_60cd9f07f649265b0b23f897aad9bad7 = private unnamed_addr constant <{ [41 x i8] }> <{ [41 x i8] c"assertion failed: mem::size_of::<T>() > 0" }>, align 1
@alloc_9dd923649e31f13c3223b59f17507a2e = private unnamed_addr constant <{ ptr, [16 x i8] }> <{ ptr @alloc_d80990e1774d1c38795ebd415913ef0a, [16 x i8] c"n\00\00\00\00\00\00\00V\01\00\00\09\00\00\00" }>, align 8
@alloc_c103c0ba323341afbed17e7fe7e651ca = private unnamed_addr constant <{ ptr, [16 x i8] }> <{ ptr @alloc_d80990e1774d1c38795ebd415913ef0a, [16 x i8] c"n\00\00\00\00\00\00\00Y\01\00\00\09\00\00\00" }>, align 8
@alloc_bd81c17235b1444753a1935a813b485f = private unnamed_addr constant <{ ptr, [16 x i8] }> <{ ptr @alloc_d80990e1774d1c38795ebd415913ef0a, [16 x i8] c"n\00\00\00\00\00\00\00\D7\00\00\00K\00\00\00" }>, align 8
@alloc_e743259f65f79dce5fdf7e439c96cb01 = private unnamed_addr constant <{ ptr, [16 x i8] }> <{ ptr @alloc_d80990e1774d1c38795ebd415913ef0a, [16 x i8] c"n\00\00\00\00\00\00\00\D8\00\00\00\11\00\00\00" }>, align 8
@alloc_2300fc4e056106188d3f21c349fb8e76 = private unnamed_addr constant <{ ptr, [16 x i8] }> <{ ptr @alloc_d80990e1774d1c38795ebd415913ef0a, [16 x i8] c"n\00\00\00\00\00\00\00\E7\00\00\00\10\00\00\00" }>, align 8
@alloc_0cd04c6390f55d83a74a72e18ad99930 = private unnamed_addr constant <{ ptr, [16 x i8] }> <{ ptr @alloc_d80990e1774d1c38795ebd415913ef0a, [16 x i8] c"n\00\00\00\00\00\00\00\E7\00\00\00\0B\00\00\00" }>, align 8
@alloc_5f37f9a166db798315b708b1541f42a2 = private unnamed_addr constant <{ ptr, [16 x i8] }> <{ ptr @alloc_d80990e1774d1c38795ebd415913ef0a, [16 x i8] c"n\00\00\00\00\00\00\00\EB\00\00\00,\00\00\00" }>, align 8
@alloc_51848abd31708fd9bd4e978ad4e2fdf6 = private unnamed_addr constant <{ ptr, [16 x i8] }> <{ ptr @alloc_d80990e1774d1c38795ebd415913ef0a, [16 x i8] c"n\00\00\00\00\00\00\00\EB\00\00\004\00\00\00" }>, align 8
@alloc_59f135123cded1fb506d3f148328939a = private unnamed_addr constant <{ ptr, [16 x i8] }> <{ ptr @alloc_d80990e1774d1c38795ebd415913ef0a, [16 x i8] c"n\00\00\00\00\00\00\00\EE\00\00\00-\00\00\00" }>, align 8
@alloc_5429279aa16fa0cdfc25e6fc8726a06a = private unnamed_addr constant <{ [46 x i8] }> <{ [46 x i8] c"assertion failed: offset != 0 && offset <= len" }>, align 1
@alloc_99bb945c879f5888798b28005543a365 = private unnamed_addr constant <{ ptr, [16 x i8] }> <{ ptr @alloc_d80990e1774d1c38795ebd415913ef0a, [16 x i8] c"n\00\00\00\00\00\00\00\9B\00\00\00\05\00\00\00" }>, align 8
@alloc_73eebdc85b9e117e5d0f01368c59f59c = private unnamed_addr constant <{ ptr, [16 x i8] }> <{ ptr @alloc_d80990e1774d1c38795ebd415913ef0a, [16 x i8] c"n\00\00\00\00\00\00\00\A3\00\00\00\1E\00\00\00" }>, align 8
@alloc_6973cb22fd5a814eff7046b5b9169c77 = private unnamed_addr constant <{ [58 x i8] }> <{ [58 x i8] c"assertion failed: offset != 0 && offset <= len && len >= 2" }>, align 1
@alloc_15caf4948137b9f7be8cedfe4929bfd3 = private unnamed_addr constant <{ ptr, [16 x i8] }> <{ ptr @alloc_d80990e1774d1c38795ebd415913ef0a, [16 x i8] c"n\00\00\00\00\00\00\00\B4\00\00\00\05\00\00\00" }>, align 8
@alloc_9da74b8166775a21c862af0758b35f3d = private unnamed_addr constant <{ ptr, [16 x i8] }> <{ ptr @alloc_d80990e1774d1c38795ebd415913ef0a, [16 x i8] c"n\00\00\00\00\00\00\00\BD\00\00\00\1E\00\00\00" }>, align 8
@alloc_afed1504fcd128c4005dc410e4c81be0 = private unnamed_addr constant <{ ptr, [16 x i8] }> <{ ptr @alloc_d80990e1774d1c38795ebd415913ef0a, [16 x i8] c"n\00\00\00\00\00\00\00?\03\00\00\0D\00\00\00" }>, align 8
@alloc_587605405deda51184d8e058ecd3dd79 = private unnamed_addr constant <{ ptr, [16 x i8] }> <{ ptr @alloc_d80990e1774d1c38795ebd415913ef0a, [16 x i8] c"n\00\00\00\00\00\00\00S\03\00\00\1D\00\00\00" }>, align 8
@alloc_696cf6b9c96fa15d1a2bc76997b92dc8 = private unnamed_addr constant <{ ptr, [16 x i8] }> <{ ptr @alloc_d80990e1774d1c38795ebd415913ef0a, [16 x i8] c"n\00\00\00\00\00\00\00W\03\00\00\1A\00\00\00" }>, align 8
@alloc_6a2abb486c72767951ddbfabb5cef306 = private unnamed_addr constant <{ ptr, [16 x i8] }> <{ ptr @alloc_d80990e1774d1c38795ebd415913ef0a, [16 x i8] c"n\00\00\00\00\00\00\00^\03\00\00&\00\00\00" }>, align 8
@alloc_971270e5ffee50b341d575bd26c9235e = private unnamed_addr constant <{ ptr, [16 x i8] }> <{ ptr @alloc_d80990e1774d1c38795ebd415913ef0a, [16 x i8] c"n\00\00\00\00\00\00\00b\03\00\00\1F\00\00\00" }>, align 8
@alloc_06bcb3e9440cff471acdc9917714413b = private unnamed_addr constant <{ ptr, [16 x i8] }> <{ ptr @alloc_d80990e1774d1c38795ebd415913ef0a, [16 x i8] c"n\00\00\00\00\00\00\00c\03\00\00$\00\00\00" }>, align 8
@alloc_f8fe30ccfa6c382fc0c6802f54db9165 = private unnamed_addr constant <{ ptr, [16 x i8] }> <{ ptr @alloc_d80990e1774d1c38795ebd415913ef0a, [16 x i8] c"n\00\00\00\00\00\00\00d\03\00\00\16\00\00\00" }>, align 8
@alloc_dc7cc06f65f47d89307805f9ed1e1cb4 = private unnamed_addr constant <{ ptr, [16 x i8] }> <{ ptr @alloc_d80990e1774d1c38795ebd415913ef0a, [16 x i8] c"n\00\00\00\00\00\00\00 \01\00\00\0B\00\00\00" }>, align 8
@alloc_218d542ba7d42d9731521fd943356c38 = private unnamed_addr constant <{ ptr, [16 x i8] }> <{ ptr @alloc_d80990e1774d1c38795ebd415913ef0a, [16 x i8] c"n\00\00\00\00\00\00\00!\01\00\00\18\00\00\00" }>, align 8
@alloc_8c633453631874cfb45135c562495182 = private unnamed_addr constant <{ ptr, [16 x i8] }> <{ ptr @alloc_d80990e1774d1c38795ebd415913ef0a, [16 x i8] c"n\00\00\00\00\00\00\00\01\01\00\00\1D\00\00\00" }>, align 8
@alloc_cced75eb33ad0d231589a125c7f2c71e = private unnamed_addr constant <{ ptr, [16 x i8] }> <{ ptr @alloc_d80990e1774d1c38795ebd415913ef0a, [16 x i8] c"n\00\00\00\00\00\00\00\07\01\00\00\10\00\00\00" }>, align 8
@alloc_02d41e7169598a3cfcfd3f0d1c833ec2 = private unnamed_addr constant <{ ptr, [16 x i8] }> <{ ptr @alloc_d80990e1774d1c38795ebd415913ef0a, [16 x i8] c"n\00\00\00\00\00\00\00\0B\01\00\00#\00\00\00" }>, align 8
@alloc_794be56d42be9995e3a84c84d26159ed = private unnamed_addr constant <{ ptr, [16 x i8] }> <{ ptr @alloc_d80990e1774d1c38795ebd415913ef0a, [16 x i8] c"n\00\00\00\00\00\00\00\0B\01\00\000\00\00\00" }>, align 8
@alloc_d32b57d7e285e3b164a125d44291af3f = private unnamed_addr constant <{ ptr, [16 x i8] }> <{ ptr @alloc_d80990e1774d1c38795ebd415913ef0a, [16 x i8] c"n\00\00\00\00\00\00\00\0B\01\00\00.\00\00\00" }>, align 8
@alloc_3f7ac4164e6f54924783af0ed6bc3c8d = private unnamed_addr constant <{ ptr, [16 x i8] }> <{ ptr @alloc_d80990e1774d1c38795ebd415913ef0a, [16 x i8] c"n\00\00\00\00\00\00\00\0B\01\00\00\11\00\00\00" }>, align 8
@alloc_5714221f35142e87516e8a17190398c5 = private unnamed_addr constant <{ ptr, [16 x i8] }> <{ ptr @alloc_d80990e1774d1c38795ebd415913ef0a, [16 x i8] c"n\00\00\00\00\00\00\00\0F\01\00\00\1A\00\00\00" }>, align 8
@alloc_8b3b0b984669970c12a2c2d899b23d16 = private unnamed_addr constant <{ ptr, [16 x i8] }> <{ ptr @alloc_d80990e1774d1c38795ebd415913ef0a, [16 x i8] c"n\00\00\00\00\00\00\00\0F\01\00\00$\00\00\00" }>, align 8
@alloc_4685547f2c3cd5dc1819afd3ce6280d4 = private unnamed_addr constant <{ ptr, [16 x i8] }> <{ ptr @alloc_d80990e1774d1c38795ebd415913ef0a, [16 x i8] c"n\00\00\00\00\00\00\00\14\01\00\00\0F\00\00\00" }>, align 8
@alloc_a32d8ca4e4d506b0d34a470e4dcb5cd1 = private unnamed_addr constant <{ ptr, [16 x i8] }> <{ ptr @alloc_d80990e1774d1c38795ebd415913ef0a, [16 x i8] c"n\00\00\00\00\00\00\006\02\00\00\0B\00\00\00" }>, align 8
@alloc_e52ab9305e2b15d74c4e9ac02c87db27 = private unnamed_addr constant <{ ptr, [16 x i8] }> <{ ptr @alloc_d80990e1774d1c38795ebd415913ef0a, [16 x i8] c"n\00\00\00\00\00\00\007\02\00\00\1C\00\00\00" }>, align 8
@alloc_0b2a738361d208826a072b92b3acda46 = private unnamed_addr constant <{ ptr, [16 x i8] }> <{ ptr @alloc_d80990e1774d1c38795ebd415913ef0a, [16 x i8] c"n\00\00\00\00\00\00\008\02\00\00\1A\00\00\00" }>, align 8
@alloc_96c6545aa6432add279027414fe61766 = private unnamed_addr constant <{ ptr, [16 x i8] }> <{ ptr @alloc_d80990e1774d1c38795ebd415913ef0a, [16 x i8] c"n\00\00\00\00\00\00\00M\02\00\00\11\00\00\00" }>, align 8
@alloc_0b6e8a57da681e1fb7c4d0e2204e6a73 = private unnamed_addr constant <{ ptr, [16 x i8] }> <{ ptr @alloc_d80990e1774d1c38795ebd415913ef0a, [16 x i8] c"n\00\00\00\00\00\00\00Q\02\00\005\00\00\00" }>, align 8
@alloc_a38e39bd8e066eb11cb79be2a1a30355 = private unnamed_addr constant <{ ptr, [16 x i8] }> <{ ptr @alloc_d80990e1774d1c38795ebd415913ef0a, [16 x i8] c"n\00\00\00\00\00\00\00R\02\00\00\11\00\00\00" }>, align 8
@alloc_b0c68aa41aa72af376e4904f7447f27d = private unnamed_addr constant <{ ptr, [16 x i8] }> <{ ptr @alloc_d80990e1774d1c38795ebd415913ef0a, [16 x i8] c"n\00\00\00\00\00\00\00V\02\00\00'\00\00\00" }>, align 8
@alloc_b173b94e8487e85973e5816a197e44e8 = private unnamed_addr constant <{ ptr, [16 x i8] }> <{ ptr @alloc_d80990e1774d1c38795ebd415913ef0a, [16 x i8] c"n\00\00\00\00\00\00\00V\02\00\00\0A\00\00\00" }>, align 8
@alloc_62f31cc339340f8d2589d3fbbff1b89f = private unnamed_addr constant <{ ptr, [16 x i8] }> <{ ptr @alloc_d80990e1774d1c38795ebd415913ef0a, [16 x i8] c"n\00\00\00\00\00\00\00^\02\00\00\07\00\00\00" }>, align 8
@alloc_da17763e772b00039467b49b69f200eb = private unnamed_addr constant <{ ptr, [16 x i8] }> <{ ptr @alloc_d80990e1774d1c38795ebd415913ef0a, [16 x i8] c"n\00\00\00\00\00\00\00\7F\03\00\00\11\00\00\00" }>, align 8
@alloc_b3b3c2a7efcea294ef431b7ed1abebea = private unnamed_addr constant <{ [97 x i8] }> <{ [97 x i8] c"unsafe precondition(s) violated: slice::get_unchecked requires that the index is within the slice" }>, align 1
@alloc_cb9e1adc7c2835de63b1ee25a132c405 = private unnamed_addr constant <{ [110 x i8] }> <{ [110 x i8] c"/Users/yaw/.rustup/toolchains/nightly-aarch64-apple-darwin/lib/rustlib/src/rust/library/core/src/slice/iter.rs" }>, align 1
@alloc_0943d9cf8c1b2e3a95fc7ea34abb4c1f = private unnamed_addr constant <{ ptr, [16 x i8] }> <{ ptr @alloc_cb9e1adc7c2835de63b1ee25a132c405, [16 x i8] c"n\00\00\00\00\00\00\00\81\00\00\00\01\00\00\00" }>, align 8
@alloc_377fe4797e3690987ab15f0122f4880b = private unnamed_addr constant <{ [37 x i8] }> <{ [37 x i8] c"too many memory regions in memory map" }>, align 1
@alloc_7d15286e500c88a119425ae53316340e = private unnamed_addr constant <{ [108 x i8] }> <{ [108 x i8] c"/Users/yaw/.cargo/registry/src/index.crates.io-6f17d22bba15001f/bootloader-0.9.23/src/bootinfo/memory_map.rs" }>, align 1
@alloc_7196c88dea27a90737fe52164bfa6d4b = private unnamed_addr constant <{ ptr, [16 x i8] }> <{ ptr @alloc_7d15286e500c88a119425ae53316340e, [16 x i8] c"l\00\00\00\00\00\00\00\1C\00\00\00\09\00\00\00" }>, align 8
@alloc_e65e0ba17a4d9de8b42e16f5ae86b726 = private unnamed_addr constant <{ ptr, [16 x i8] }> <{ ptr @alloc_7d15286e500c88a119425ae53316340e, [16 x i8] c"l\00\00\00\00\00\00\00 \00\00\00\09\00\00\00" }>, align 8
@alloc_6248fd711ab5313acabe549160484394 = private unnamed_addr constant <{ ptr, [16 x i8] }> <{ ptr @alloc_7d15286e500c88a119425ae53316340e, [16 x i8] c"l\00\00\00\00\00\00\00!\00\00\00\09\00\00\00" }>, align 8
@alloc_914b2c69d7eca30497b9feaf15ac92f1 = private unnamed_addr constant <{ [1 x i8] }> zeroinitializer, align 1
@alloc_bc412f3c128804cf7932bd162091bc4c = private unnamed_addr constant <{ ptr, [16 x i8] }> <{ ptr @alloc_7d15286e500c88a119425ae53316340e, [16 x i8] c"l\00\00\00\00\00\00\00H\00\00\00\0A\00\00\00" }>, align 8
@alloc_db57840325994cb1e9e58dfeb27e1cf2 = private unnamed_addr constant <{ ptr, [16 x i8] }> <{ ptr @alloc_7d15286e500c88a119425ae53316340e, [16 x i8] c"l\00\00\00\00\00\00\00O\00\00\00\0E\00\00\00" }>, align 8
@alloc_cad8f68633be23a5a8047bc131d14ec3 = private unnamed_addr constant <{ ptr, [16 x i8] }> <{ ptr @alloc_7d15286e500c88a119425ae53316340e, [16 x i8] c"l\00\00\00\00\00\00\00\85\00\00\00\19\00\00\00" }>, align 8
@alloc_9e0090e7731cd791b1d2228aa613acc1 = private unnamed_addr constant <{ ptr, [16 x i8] }> <{ ptr @alloc_7d15286e500c88a119425ae53316340e, [16 x i8] c"l\00\00\00\00\00\00\00\88\00\00\00\1F\00\00\00" }>, align 8
@alloc_57ce308cfbee0eeaa37d0e2ac37f242e = private unnamed_addr constant <{ ptr, [16 x i8] }> <{ ptr @alloc_7d15286e500c88a119425ae53316340e, [16 x i8] c"l\00\00\00\00\00\00\00\93\00\00\00\09\00\00\00" }>, align 8
@alloc_4848cdfc410b3d9eebbe30a8648bbf6f = private unnamed_addr constant <{ ptr, [16 x i8] }> <{ ptr @alloc_7d15286e500c88a119425ae53316340e, [16 x i8] c"l\00\00\00\00\00\00\00\98\00\00\00\09\00\00\00" }>, align 8
@alloc_67fee3923a1253e576603db2a7cc3769 = private unnamed_addr constant <{ [11 x i8] }> <{ [11 x i8] c"FrameRange(" }>, align 1
@alloc_07656b3a0de61ce5c628545e169e4a19 = private unnamed_addr constant <{ [2 x i8] }> <{ [2 x i8] c".." }>, align 1
@alloc_9e3f62b0e6490cc45676dc85f910c2d0 = private unnamed_addr constant <{ [1 x i8] }> <{ [1 x i8] c")" }>, align 1
@alloc_b835a9d6c252fc7d7d9309678c4406b9 = private unnamed_addr constant <{ ptr, [8 x i8], ptr, [8 x i8], ptr, [8 x i8] }> <{ ptr @alloc_67fee3923a1253e576603db2a7cc3769, [8 x i8] c"\0B\00\00\00\00\00\00\00", ptr @alloc_07656b3a0de61ce5c628545e169e4a19, [8 x i8] c"\02\00\00\00\00\00\00\00", ptr @alloc_9e3f62b0e6490cc45676dc85f910c2d0, [8 x i8] c"\01\00\00\00\00\00\00\00" }>, align 8
@alloc_4ca1ac426b102a9acc7fcf913cf4c660 = private unnamed_addr constant <{ [20 x i8] }> <{ [20 x i8] c"invalid region type " }>, align 1
@alloc_0a0c8f921f96ace4b9d73a9fb1f3a7e8 = private unnamed_addr constant <{ ptr, [8 x i8] }> <{ ptr @alloc_4ca1ac426b102a9acc7fcf913cf4c660, [8 x i8] c"\14\00\00\00\00\00\00\00" }>, align 8
@alloc_7aa2ce3965daa798a811db4359705d8b = private unnamed_addr constant <{ ptr, [16 x i8] }> <{ ptr @alloc_7d15286e500c88a119425ae53316340e, [16 x i8] c"l\00\00\00\00\00\00\00\E1\00\00\00\12\00\00\00" }>, align 8
@alloc_82eaa0d65834937aa85ffd9cf79e73a5 = private unnamed_addr constant <{ ptr, [16 x i8] }> <{ ptr @alloc_7d15286e500c88a119425ae53316340e, [16 x i8] c"l\00\00\00\00\00\00\00\E4\00\00\007\00\00\00" }>, align 8
@alloc_2fa382d66c8b05cee83d1e636a456d83 = private unnamed_addr constant <{ [12 x i8] }> <{ [12 x i8] c"MemoryRegion" }>, align 1
@alloc_c6d312f4fb2564cdde1868738b40e953 = private unnamed_addr constant <{ [5 x i8] }> <{ [5 x i8] c"range" }>, align 1
@vtable.7 = private constant <{ ptr, [16 x i8], ptr }> <{ ptr @"_ZN4core3ptr65drop_in_place$LT$bootloader..bootinfo..memory_map..FrameRange$GT$17hbe46a727592d2381E", [16 x i8] c"\10\00\00\00\00\00\00\00\08\00\00\00\00\00\00\00", ptr @"_ZN81_$LT$bootloader..bootinfo..memory_map..FrameRange$u20$as$u20$core..fmt..Debug$GT$3fmt17h9cd311b58a6b23e2E" }>, align 8, !dbg !44
@alloc_24a09d864e93eaea8a967d85ad5fb14b = private unnamed_addr constant <{ [11 x i8] }> <{ [11 x i8] c"region_type" }>, align 1
@vtable.8 = private constant <{ ptr, [16 x i8], ptr }> <{ ptr @"_ZN4core3ptr75drop_in_place$LT$$RF$bootloader..bootinfo..memory_map..MemoryRegionType$GT$17h00bb43a2928ed5a5E", [16 x i8] c"\08\00\00\00\00\00\00\00\08\00\00\00\00\00\00\00", ptr @"_ZN42_$LT$$RF$T$u20$as$u20$core..fmt..Debug$GT$3fmt17hd6cd9195c5fd3845E" }>, align 8, !dbg !52
@alloc_4f458a5ac3a6382b3750f993ab870080 = private unnamed_addr constant <{ [13 x i8] }> <{ [13 x i8] c"NonExhaustive" }>, align 1
@alloc_3faf0b3374c02c8ecbb0aba47045e793 = private unnamed_addr constant <{ [7 x i8] }> <{ [7 x i8] c"Package" }>, align 1
@alloc_1f9c4cc73f4140a97f2cf1f721646a68 = private unnamed_addr constant <{ [8 x i8] }> <{ [8 x i8] c"BootInfo" }>, align 1
@alloc_59ba7b9f7211443cd55a366616eef46a = private unnamed_addr constant <{ [5 x i8] }> <{ [5 x i8] c"Empty" }>, align 1
@alloc_296c708f84ba4aacbf601faaf01ee90e = private unnamed_addr constant <{ [9 x i8] }> <{ [9 x i8] c"FrameZero" }>, align 1
@alloc_88f77a4216025d9c2616c4e0631b580d = private unnamed_addr constant <{ [10 x i8] }> <{ [10 x i8] c"Bootloader" }>, align 1
@alloc_84113867da1e74b2269b5cf897cae626 = private unnamed_addr constant <{ [9 x i8] }> <{ [9 x i8] c"PageTable" }>, align 1
@alloc_272cabb5c5fb66cc8e055c6a08dd5a38 = private unnamed_addr constant <{ [11 x i8] }> <{ [11 x i8] c"KernelStack" }>, align 1
@alloc_bfff067230aa23bc581d3ad54a803735 = private unnamed_addr constant <{ [6 x i8] }> <{ [6 x i8] c"Kernel" }>, align 1
@alloc_2db2f360d33be2fea5593ededc5fb904 = private unnamed_addr constant <{ [9 x i8] }> <{ [9 x i8] c"BadMemory" }>, align 1
@alloc_497f8f871d9b9bd5767a37917b988618 = private unnamed_addr constant <{ [7 x i8] }> <{ [7 x i8] c"AcpiNvs" }>, align 1
@alloc_405580fa38aa12693d369698203e043e = private unnamed_addr constant <{ [15 x i8] }> <{ [15 x i8] c"AcpiReclaimable" }>, align 1
@alloc_f09f4d0dabebc98449d61db8d60067bb = private unnamed_addr constant <{ [8 x i8] }> <{ [8 x i8] c"Reserved" }>, align 1
@alloc_3e93a37ed61282b1c76f7355bd470201 = private unnamed_addr constant <{ [5 x i8] }> <{ [5 x i8] c"InUse" }>, align 1
@alloc_3c5b86a9b7fa1d302afea08936e483c5 = private unnamed_addr constant <{ [6 x i8] }> <{ [6 x i8] c"Usable" }>, align 1
@alloc_bee533f45c59e636f24e3b92e9dcf8a1 = private unnamed_addr constant <{ [16 x i8] }> <{ [16 x i8] c"E820MemoryRegion" }>, align 1
@alloc_e896abd190c076ac3d64221d9ae37a51 = private unnamed_addr constant <{ [10 x i8] }> <{ [10 x i8] c"start_addr" }>, align 1
@vtable.9 = private constant <{ ptr, [16 x i8], ptr }> <{ ptr @"_ZN4core3ptr24drop_in_place$LT$u64$GT$17hf7c86fa446e088a4E", [16 x i8] c"\08\00\00\00\00\00\00\00\08\00\00\00\00\00\00\00", ptr @"_ZN4core3fmt3num50_$LT$impl$u20$core..fmt..Debug$u20$for$u20$u64$GT$3fmt17h1603b60bba44f0f1E" }>, align 8, !dbg !61
@alloc_f92b1a49cd2fef011d7606f6333298f2 = private unnamed_addr constant <{ [3 x i8] }> <{ [3 x i8] c"len" }>, align 1
@vtable.a = private constant <{ ptr, [16 x i8], ptr }> <{ ptr @"_ZN4core3ptr24drop_in_place$LT$u32$GT$17h208e4315a370da61E", [16 x i8] c"\04\00\00\00\00\00\00\00\04\00\00\00\00\00\00\00", ptr @"_ZN4core3fmt3num50_$LT$impl$u20$core..fmt..Debug$u20$for$u20$u32$GT$3fmt17hea2ff610b2a3984aE" }>, align 8, !dbg !69
@alloc_3453f215b747c0edd0eebf0fbcea5172 = private unnamed_addr constant <{ [24 x i8] }> <{ [24 x i8] c"acpi_extended_attributes" }>, align 1
@vtable.b = private constant <{ ptr, [16 x i8], ptr }> <{ ptr @"_ZN4core3ptr28drop_in_place$LT$$RF$u32$GT$17hb29ede95f2e852e7E", [16 x i8] c"\08\00\00\00\00\00\00\00\08\00\00\00\00\00\00\00", ptr @"_ZN42_$LT$$RF$T$u20$as$u20$core..fmt..Debug$GT$3fmt17h03207b162034f1bcE" }>, align 8, !dbg !77
@alloc_9edc7a92f8d25561ab6dc7613f63189d = private unnamed_addr constant <{ [10 x i8] }> <{ [10 x i8] c"memory_map" }>, align 1
@vtable.c = private constant <{ ptr, [16 x i8], ptr }> <{ ptr @"_ZN4core3ptr64drop_in_place$LT$bootloader..bootinfo..memory_map..MemoryMap$GT$17h9f8456f6721d4ab0E", [16 x i8] c"\08\06\00\00\00\00\00\00\08\00\00\00\00\00\00\00", ptr @"_ZN80_$LT$bootloader..bootinfo..memory_map..MemoryMap$u20$as$u20$core..fmt..Debug$GT$3fmt17h718019e44c05edf8E" }>, align 8, !dbg !86
@alloc_1cbcc15d14c439465e35578ac36229c9 = private unnamed_addr constant <{ [12 x i8] }> <{ [12 x i8] c"tls_template" }>, align 1
@vtable.d = private constant <{ ptr, [16 x i8], ptr }> <{ ptr @"_ZN4core3ptr54drop_in_place$LT$bootloader..bootinfo..TlsTemplate$GT$17ha0142110463679f0E", [16 x i8] c"\18\00\00\00\00\00\00\00\08\00\00\00\00\00\00\00", ptr @"_ZN70_$LT$bootloader..bootinfo..TlsTemplate$u20$as$u20$core..fmt..Debug$GT$3fmt17h86ced365e7ce4c2eE" }>, align 8, !dbg !101
@alloc_b0bb0c7a0f8be091d3fc1c11116fce9b = private unnamed_addr constant <{ [15 x i8] }> <{ [15 x i8] c"_non_exhaustive" }>, align 1
@vtable.e = private constant <{ ptr, [16 x i8], ptr }> <{ ptr @"_ZN4core3ptr27drop_in_place$LT$$RF$u8$GT$17h56648f426ae11b3dE", [16 x i8] c"\08\00\00\00\00\00\00\00\08\00\00\00\00\00\00\00", ptr @"_ZN42_$LT$$RF$T$u20$as$u20$core..fmt..Debug$GT$3fmt17h65f399967d7391c0E" }>, align 8, !dbg !114
@alloc_db9f6246386b35b655b2a4a0bfe4b5d7 = private unnamed_addr constant <{ [11 x i8] }> <{ [11 x i8] c"TlsTemplate" }>, align 1
@alloc_586126a6b84f2dd36fa1e3b3e4c38ef1 = private unnamed_addr constant <{ [9 x i8] }> <{ [9 x i8] c"file_size" }>, align 1
@alloc_6a7e1d6cb9743b05f95a08c478d87c6e = private unnamed_addr constant <{ [8 x i8] }> <{ [8 x i8] c"mem_size" }>, align 1
@vtable.f = private constant <{ ptr, [16 x i8], ptr }> <{ ptr @"_ZN4core3ptr28drop_in_place$LT$$RF$u64$GT$17h063f7adf094db454E", [16 x i8] c"\08\00\00\00\00\00\00\00\08\00\00\00\00\00\00\00", ptr @"_ZN42_$LT$$RF$T$u20$as$u20$core..fmt..Debug$GT$3fmt17h91a47dc815968b8cE" }>, align 8, !dbg !124

; <core::ops::range::Range<usize> as core::slice::index::SliceIndex<[T]>>::get_unchecked
; Function Attrs: inlinehint noredzone nounwind
define { ptr, i64 } @"_ZN106_$LT$core..ops..range..Range$LT$usize$GT$$u20$as$u20$core..slice..index..SliceIndex$LT$$u5b$T$u5d$$GT$$GT$13get_unchecked17h2d47314f2b84b306E"(i64 %self.0, i64 %self.1, ptr %slice.0, i64 %slice.1) unnamed_addr #0 !dbg !163 {
start:
  %0 = alloca ptr, align 8
  %count.dbg.spill.i1 = alloca i64, align 8
  %self.dbg.spill.i2 = alloca ptr, align 8
  %count.dbg.spill.i = alloca i64, align 8
  %self.dbg.spill.i = alloca ptr, align 8
  %slice.dbg.spill.i = alloca { ptr, i64 }, align 8
  %this.dbg.spill.i = alloca { i64, i64 }, align 8
  %_4.i = alloca i8, align 1
  %new_len.dbg.spill = alloca i64, align 8
  %1 = alloca i64, align 8
  %slice.dbg.spill = alloca { ptr, i64 }, align 8
  %self.dbg.spill = alloca { i64, i64 }, align 8
  %_6 = alloca { { i64, i64 }, { ptr, i64 } }, align 8
  %this = alloca { i64, i64 }, align 8
  %2 = getelementptr inbounds { i64, i64 }, ptr %self.dbg.spill, i32 0, i32 0
  store i64 %self.0, ptr %2, align 8
  %3 = getelementptr inbounds { i64, i64 }, ptr %self.dbg.spill, i32 0, i32 1
  store i64 %self.1, ptr %3, align 8
  call void @llvm.dbg.declare(metadata ptr %self.dbg.spill, metadata !184, metadata !DIExpression()), !dbg !192
  %4 = getelementptr inbounds { ptr, i64 }, ptr %slice.dbg.spill, i32 0, i32 0
  store ptr %slice.0, ptr %4, align 8
  %5 = getelementptr inbounds { ptr, i64 }, ptr %slice.dbg.spill, i32 0, i32 1
  store i64 %slice.1, ptr %5, align 8
  call void @llvm.dbg.declare(metadata ptr %slice.dbg.spill, metadata !185, metadata !DIExpression()), !dbg !193
  call void @llvm.dbg.declare(metadata ptr %this, metadata !186, metadata !DIExpression()), !dbg !194
  store i64 %self.0, ptr %this, align 8, !dbg !195
  %6 = getelementptr inbounds { i64, i64 }, ptr %this, i32 0, i32 1, !dbg !195
  store i64 %self.1, ptr %6, align 8, !dbg !195
  br i1 true, label %bb1, label %bb2, !dbg !196

bb2:                                              ; preds = %"_ZN106_$LT$core..ops..range..Range$LT$usize$GT$$u20$as$u20$core..slice..index..SliceIndex$LT$$u5b$T$u5d$$GT$$GT$13get_unchecked7runtime17h1ff5ce516cbba997E.exit", %start
  %7 = sub nuw i64 %self.1, %self.0, !dbg !197
  store i64 %7, ptr %1, align 8, !dbg !197
  %new_len = load i64, ptr %1, align 8, !dbg !197, !noundef !24
  store i64 %new_len, ptr %new_len.dbg.spill, align 8, !dbg !197
  call void @llvm.dbg.declare(metadata ptr %new_len.dbg.spill, metadata !188, metadata !DIExpression()), !dbg !198
; call core::ptr::const_ptr::<impl *const [T]>::as_ptr
  %_11 = call ptr @"_ZN4core3ptr9const_ptr43_$LT$impl$u20$$BP$const$u20$$u5b$T$u5d$$GT$6as_ptr17h54c6b9f4248a570dE"(ptr %slice.0, i64 %slice.1) #10, !dbg !199
  store ptr %_11, ptr %self.dbg.spill.i, align 8
  call void @llvm.dbg.declare(metadata ptr %self.dbg.spill.i, metadata !200, metadata !DIExpression()), !dbg !211
  store i64 %self.0, ptr %count.dbg.spill.i, align 8
  call void @llvm.dbg.declare(metadata ptr %count.dbg.spill.i, metadata !210, metadata !DIExpression()), !dbg !213
  store ptr %_11, ptr %self.dbg.spill.i2, align 8
  call void @llvm.dbg.declare(metadata ptr %self.dbg.spill.i2, metadata !214, metadata !DIExpression()), !dbg !221
  store i64 %self.0, ptr %count.dbg.spill.i1, align 8
  call void @llvm.dbg.declare(metadata ptr %count.dbg.spill.i1, metadata !220, metadata !DIExpression()), !dbg !223
  %8 = getelementptr inbounds %"bootinfo::memory_map::MemoryRegion", ptr %_11, i64 %self.0, !dbg !224
  store ptr %8, ptr %0, align 8, !dbg !224
  %9 = load ptr, ptr %0, align 8, !dbg !224, !noundef !24
; call core::ptr::slice_from_raw_parts
  %10 = call { ptr, i64 } @_ZN4core3ptr20slice_from_raw_parts17hb93b12de4d910fe0E(ptr %9, i64 %new_len) #10, !dbg !225
  %11 = extractvalue { ptr, i64 } %10, 0, !dbg !225
  %12 = extractvalue { ptr, i64 } %10, 1, !dbg !225
  %13 = insertvalue { ptr, i64 } poison, ptr %11, 0, !dbg !226
  %14 = insertvalue { ptr, i64 } %13, i64 %12, 1, !dbg !226
  ret { ptr, i64 } %14, !dbg !226

bb1:                                              ; preds = %start
  %15 = getelementptr inbounds { i64, i64 }, ptr %this, i32 0, i32 0, !dbg !196
  %16 = load i64, ptr %15, align 8, !dbg !196, !noundef !24
  %17 = getelementptr inbounds { i64, i64 }, ptr %this, i32 0, i32 1, !dbg !196
  %18 = load i64, ptr %17, align 8, !dbg !196, !noundef !24
  %19 = getelementptr inbounds { i64, i64 }, ptr %_6, i32 0, i32 0, !dbg !196
  store i64 %16, ptr %19, align 8, !dbg !196
  %20 = getelementptr inbounds { i64, i64 }, ptr %_6, i32 0, i32 1, !dbg !196
  store i64 %18, ptr %20, align 8, !dbg !196
  %21 = getelementptr inbounds { { i64, i64 }, { ptr, i64 } }, ptr %_6, i32 0, i32 1, !dbg !196
  %22 = getelementptr inbounds { ptr, i64 }, ptr %21, i32 0, i32 0, !dbg !196
  store ptr %slice.0, ptr %22, align 8, !dbg !196
  %23 = getelementptr inbounds { ptr, i64 }, ptr %21, i32 0, i32 1, !dbg !196
  store i64 %slice.1, ptr %23, align 8, !dbg !196
  %24 = getelementptr inbounds { i64, i64 }, ptr %_6, i32 0, i32 0, !dbg !196
  %25 = load i64, ptr %24, align 8, !dbg !196, !noundef !24
  %26 = getelementptr inbounds { i64, i64 }, ptr %_6, i32 0, i32 1, !dbg !196
  %27 = load i64, ptr %26, align 8, !dbg !196, !noundef !24
  %28 = getelementptr inbounds { { i64, i64 }, { ptr, i64 } }, ptr %_6, i32 0, i32 1, !dbg !196
  %29 = getelementptr inbounds { ptr, i64 }, ptr %28, i32 0, i32 0, !dbg !196
  %30 = load ptr, ptr %29, align 8, !dbg !196, !noundef !24
  %31 = getelementptr inbounds { ptr, i64 }, ptr %28, i32 0, i32 1, !dbg !196
  %32 = load i64, ptr %31, align 8, !dbg !196, !noundef !24
  store i64 %25, ptr %this.dbg.spill.i, align 8
  %33 = getelementptr inbounds { i64, i64 }, ptr %this.dbg.spill.i, i32 0, i32 1
  store i64 %27, ptr %33, align 8
  call void @llvm.dbg.declare(metadata ptr %this.dbg.spill.i, metadata !227, metadata !DIExpression()), !dbg !235
  store ptr %30, ptr %slice.dbg.spill.i, align 8
  %34 = getelementptr inbounds { ptr, i64 }, ptr %slice.dbg.spill.i, i32 0, i32 1
  store i64 %32, ptr %34, align 8
  call void @llvm.dbg.declare(metadata ptr %slice.dbg.spill.i, metadata !234, metadata !DIExpression()), !dbg !235
  %_5.i = icmp uge i64 %27, %25, !dbg !237
  br i1 %_5.i, label %bb2.i, label %bb1.i, !dbg !237

bb1.i:                                            ; preds = %bb1
  store i8 0, ptr %_4.i, align 1, !dbg !237
  br label %bb3.i, !dbg !237

bb2.i:                                            ; preds = %bb1
; call core::ptr::const_ptr::<impl *const [T]>::len
  %_10.i = call i64 @"_ZN4core3ptr9const_ptr43_$LT$impl$u20$$BP$const$u20$$u5b$T$u5d$$GT$3len17h350a4060caf8200cE"(ptr %30, i64 %32) #10, !dbg !239
  %_8.i = icmp ule i64 %27, %_10.i, !dbg !240
  %35 = zext i1 %_8.i to i8, !dbg !237
  store i8 %35, ptr %_4.i, align 1, !dbg !237
  br label %bb3.i, !dbg !237

bb3.i:                                            ; preds = %bb2.i, %bb1.i
  %36 = load i8, ptr %_4.i, align 1, !dbg !241, !range !242, !noundef !24
  %37 = trunc i8 %36 to i1, !dbg !241
  %_3.i = xor i1 %37, true, !dbg !241
  br i1 %_3.i, label %bb5.i, label %"_ZN106_$LT$core..ops..range..Range$LT$usize$GT$$u20$as$u20$core..slice..index..SliceIndex$LT$$u5b$T$u5d$$GT$$GT$13get_unchecked7runtime17h1ff5ce516cbba997E.exit", !dbg !241

bb5.i:                                            ; preds = %bb3.i
; call core::panicking::panic_nounwind
  call void @_ZN4core9panicking14panic_nounwind17h4573e3544b1244f5E(ptr align 1 @alloc_fa017189c529f9a37ad81f1b7f28d734, i64 97) #11, !dbg !243
  unreachable, !dbg !243

"_ZN106_$LT$core..ops..range..Range$LT$usize$GT$$u20$as$u20$core..slice..index..SliceIndex$LT$$u5b$T$u5d$$GT$$GT$13get_unchecked7runtime17h1ff5ce516cbba997E.exit": ; preds = %bb3.i
  br label %bb2, !dbg !196
}

; <core::ops::range::Range<usize> as core::slice::index::SliceIndex<[T]>>::get_unchecked_mut
; Function Attrs: inlinehint noredzone nounwind
define { ptr, i64 } @"_ZN106_$LT$core..ops..range..Range$LT$usize$GT$$u20$as$u20$core..slice..index..SliceIndex$LT$$u5b$T$u5d$$GT$$GT$17get_unchecked_mut17h2ce56c62d1d071b6E"(i64 %self.0, i64 %self.1, ptr %slice.0, i64 %slice.1) unnamed_addr #0 !dbg !244 {
start:
  %self.dbg.spill.i5 = alloca { ptr, i64 }, align 8
  %self.dbg.spill.i4 = alloca { ptr, i64 }, align 8
  %0 = alloca ptr, align 8
  %count.dbg.spill.i1 = alloca i64, align 8
  %self.dbg.spill.i2 = alloca ptr, align 8
  %count.dbg.spill.i = alloca i64, align 8
  %self.dbg.spill.i = alloca ptr, align 8
  %slice.dbg.spill.i = alloca { ptr, i64 }, align 8
  %this.dbg.spill.i = alloca { i64, i64 }, align 8
  %_4.i = alloca i8, align 1
  %new_len.dbg.spill = alloca i64, align 8
  %1 = alloca i64, align 8
  %slice.dbg.spill = alloca { ptr, i64 }, align 8
  %self.dbg.spill = alloca { i64, i64 }, align 8
  %_6 = alloca { { i64, i64 }, { ptr, i64 } }, align 8
  %this = alloca { i64, i64 }, align 8
  %2 = getelementptr inbounds { i64, i64 }, ptr %self.dbg.spill, i32 0, i32 0
  store i64 %self.0, ptr %2, align 8
  %3 = getelementptr inbounds { i64, i64 }, ptr %self.dbg.spill, i32 0, i32 1
  store i64 %self.1, ptr %3, align 8
  call void @llvm.dbg.declare(metadata ptr %self.dbg.spill, metadata !252, metadata !DIExpression()), !dbg !258
  %4 = getelementptr inbounds { ptr, i64 }, ptr %slice.dbg.spill, i32 0, i32 0
  store ptr %slice.0, ptr %4, align 8
  %5 = getelementptr inbounds { ptr, i64 }, ptr %slice.dbg.spill, i32 0, i32 1
  store i64 %slice.1, ptr %5, align 8
  call void @llvm.dbg.declare(metadata ptr %slice.dbg.spill, metadata !253, metadata !DIExpression()), !dbg !259
  call void @llvm.dbg.declare(metadata ptr %this, metadata !254, metadata !DIExpression()), !dbg !260
  store i64 %self.0, ptr %this, align 8, !dbg !261
  %6 = getelementptr inbounds { i64, i64 }, ptr %this, i32 0, i32 1, !dbg !261
  store i64 %self.1, ptr %6, align 8, !dbg !261
  br i1 true, label %bb1, label %bb2, !dbg !262

bb2:                                              ; preds = %"_ZN106_$LT$core..ops..range..Range$LT$usize$GT$$u20$as$u20$core..slice..index..SliceIndex$LT$$u5b$T$u5d$$GT$$GT$17get_unchecked_mut7runtime17h19713aa0ec311f3bE.exit", %start
  %7 = sub nuw i64 %self.1, %self.0, !dbg !263
  store i64 %7, ptr %1, align 8, !dbg !263
  %new_len = load i64, ptr %1, align 8, !dbg !263, !noundef !24
  store i64 %new_len, ptr %new_len.dbg.spill, align 8, !dbg !263
  call void @llvm.dbg.declare(metadata ptr %new_len.dbg.spill, metadata !256, metadata !DIExpression()), !dbg !264
  store ptr %slice.0, ptr %self.dbg.spill.i4, align 8
  %8 = getelementptr inbounds { ptr, i64 }, ptr %self.dbg.spill.i4, i32 0, i32 1
  store i64 %slice.1, ptr %8, align 8
  call void @llvm.dbg.declare(metadata ptr %self.dbg.spill.i4, metadata !265, metadata !DIExpression()), !dbg !274
  store ptr %slice.0, ptr %self.dbg.spill.i, align 8
  call void @llvm.dbg.declare(metadata ptr %self.dbg.spill.i, metadata !276, metadata !DIExpression()), !dbg !283
  store i64 %self.0, ptr %count.dbg.spill.i, align 8
  call void @llvm.dbg.declare(metadata ptr %count.dbg.spill.i, metadata !282, metadata !DIExpression()), !dbg !285
  store ptr %slice.0, ptr %self.dbg.spill.i2, align 8
  call void @llvm.dbg.declare(metadata ptr %self.dbg.spill.i2, metadata !286, metadata !DIExpression()), !dbg !292
  store i64 %self.0, ptr %count.dbg.spill.i1, align 8
  call void @llvm.dbg.declare(metadata ptr %count.dbg.spill.i1, metadata !291, metadata !DIExpression()), !dbg !294
  %9 = getelementptr inbounds %"bootinfo::memory_map::MemoryRegion", ptr %slice.0, i64 %self.0, !dbg !295
  store ptr %9, ptr %0, align 8, !dbg !295
  %_3.i3 = load ptr, ptr %0, align 8, !dbg !295, !noundef !24
; call core::ptr::slice_from_raw_parts_mut
  %10 = call { ptr, i64 } @_ZN4core3ptr24slice_from_raw_parts_mut17h72e5f39bb23cac74E(ptr %_3.i3, i64 %new_len) #10, !dbg !296
  %11 = extractvalue { ptr, i64 } %10, 0, !dbg !296
  %12 = extractvalue { ptr, i64 } %10, 1, !dbg !296
  %13 = insertvalue { ptr, i64 } poison, ptr %11, 0, !dbg !297
  %14 = insertvalue { ptr, i64 } %13, i64 %12, 1, !dbg !297
  ret { ptr, i64 } %14, !dbg !297

bb1:                                              ; preds = %start
  %15 = getelementptr inbounds { i64, i64 }, ptr %this, i32 0, i32 0, !dbg !262
  %16 = load i64, ptr %15, align 8, !dbg !262, !noundef !24
  %17 = getelementptr inbounds { i64, i64 }, ptr %this, i32 0, i32 1, !dbg !262
  %18 = load i64, ptr %17, align 8, !dbg !262, !noundef !24
  %19 = getelementptr inbounds { i64, i64 }, ptr %_6, i32 0, i32 0, !dbg !262
  store i64 %16, ptr %19, align 8, !dbg !262
  %20 = getelementptr inbounds { i64, i64 }, ptr %_6, i32 0, i32 1, !dbg !262
  store i64 %18, ptr %20, align 8, !dbg !262
  %21 = getelementptr inbounds { { i64, i64 }, { ptr, i64 } }, ptr %_6, i32 0, i32 1, !dbg !262
  %22 = getelementptr inbounds { ptr, i64 }, ptr %21, i32 0, i32 0, !dbg !262
  store ptr %slice.0, ptr %22, align 8, !dbg !262
  %23 = getelementptr inbounds { ptr, i64 }, ptr %21, i32 0, i32 1, !dbg !262
  store i64 %slice.1, ptr %23, align 8, !dbg !262
  %24 = getelementptr inbounds { i64, i64 }, ptr %_6, i32 0, i32 0, !dbg !262
  %25 = load i64, ptr %24, align 8, !dbg !262, !noundef !24
  %26 = getelementptr inbounds { i64, i64 }, ptr %_6, i32 0, i32 1, !dbg !262
  %27 = load i64, ptr %26, align 8, !dbg !262, !noundef !24
  %28 = getelementptr inbounds { { i64, i64 }, { ptr, i64 } }, ptr %_6, i32 0, i32 1, !dbg !262
  %29 = getelementptr inbounds { ptr, i64 }, ptr %28, i32 0, i32 0, !dbg !262
  %30 = load ptr, ptr %29, align 8, !dbg !262, !noundef !24
  %31 = getelementptr inbounds { ptr, i64 }, ptr %28, i32 0, i32 1, !dbg !262
  %32 = load i64, ptr %31, align 8, !dbg !262, !noundef !24
  store i64 %25, ptr %this.dbg.spill.i, align 8
  %33 = getelementptr inbounds { i64, i64 }, ptr %this.dbg.spill.i, i32 0, i32 1
  store i64 %27, ptr %33, align 8
  call void @llvm.dbg.declare(metadata ptr %this.dbg.spill.i, metadata !298, metadata !DIExpression()), !dbg !305
  store ptr %30, ptr %slice.dbg.spill.i, align 8
  %34 = getelementptr inbounds { ptr, i64 }, ptr %slice.dbg.spill.i, i32 0, i32 1
  store i64 %32, ptr %34, align 8
  call void @llvm.dbg.declare(metadata ptr %slice.dbg.spill.i, metadata !304, metadata !DIExpression()), !dbg !305
  %_5.i = icmp uge i64 %27, %25, !dbg !307
  br i1 %_5.i, label %bb2.i, label %bb1.i, !dbg !307

bb1.i:                                            ; preds = %bb1
  store i8 0, ptr %_4.i, align 1, !dbg !307
  br label %bb3.i, !dbg !307

bb2.i:                                            ; preds = %bb1
  store ptr %30, ptr %self.dbg.spill.i5, align 8
  %35 = getelementptr inbounds { ptr, i64 }, ptr %self.dbg.spill.i5, i32 0, i32 1
  store i64 %32, ptr %35, align 8
  call void @llvm.dbg.declare(metadata ptr %self.dbg.spill.i5, metadata !309, metadata !DIExpression()), !dbg !314
; call core::ptr::metadata::metadata
  %36 = call i64 @_ZN4core3ptr8metadata8metadata17h4fc945275518d4ceE(ptr %30, i64 %32) #10, !dbg !316
  %_8.i = icmp ule i64 %27, %36, !dbg !317
  %37 = zext i1 %_8.i to i8, !dbg !307
  store i8 %37, ptr %_4.i, align 1, !dbg !307
  br label %bb3.i, !dbg !307

bb3.i:                                            ; preds = %bb2.i, %bb1.i
  %38 = load i8, ptr %_4.i, align 1, !dbg !318, !range !242, !noundef !24
  %39 = trunc i8 %38 to i1, !dbg !318
  %_3.i = xor i1 %39, true, !dbg !318
  br i1 %_3.i, label %bb5.i, label %"_ZN106_$LT$core..ops..range..Range$LT$usize$GT$$u20$as$u20$core..slice..index..SliceIndex$LT$$u5b$T$u5d$$GT$$GT$17get_unchecked_mut7runtime17h19713aa0ec311f3bE.exit", !dbg !318

bb5.i:                                            ; preds = %bb3.i
; call core::panicking::panic_nounwind
  call void @_ZN4core9panicking14panic_nounwind17h4573e3544b1244f5E(ptr align 1 @alloc_e4c0784e4975da2173a354afd99193ad, i64 101) #11, !dbg !319
  unreachable, !dbg !319

"_ZN106_$LT$core..ops..range..Range$LT$usize$GT$$u20$as$u20$core..slice..index..SliceIndex$LT$$u5b$T$u5d$$GT$$GT$17get_unchecked_mut7runtime17h19713aa0ec311f3bE.exit": ; preds = %bb3.i
  br label %bb2, !dbg !262
}

; <core::ops::range::Range<usize> as core::slice::index::SliceIndex<[T]>>::index
; Function Attrs: inlinehint noredzone nounwind
define { ptr, i64 } @"_ZN106_$LT$core..ops..range..Range$LT$usize$GT$$u20$as$u20$core..slice..index..SliceIndex$LT$$u5b$T$u5d$$GT$$GT$5index17haff5e48139e6d51eE"(i64 %self.0, i64 %self.1, ptr align 8 %slice.0, i64 %slice.1, ptr align 8 %0) unnamed_addr #0 !dbg !320 {
start:
  %slice.dbg.spill = alloca { ptr, i64 }, align 8
  %self.dbg.spill = alloca { i64, i64 }, align 8
  %1 = getelementptr inbounds { i64, i64 }, ptr %self.dbg.spill, i32 0, i32 0
  store i64 %self.0, ptr %1, align 8
  %2 = getelementptr inbounds { i64, i64 }, ptr %self.dbg.spill, i32 0, i32 1
  store i64 %self.1, ptr %2, align 8
  call void @llvm.dbg.declare(metadata ptr %self.dbg.spill, metadata !341, metadata !DIExpression()), !dbg !343
  %3 = getelementptr inbounds { ptr, i64 }, ptr %slice.dbg.spill, i32 0, i32 0
  store ptr %slice.0, ptr %3, align 8
  %4 = getelementptr inbounds { ptr, i64 }, ptr %slice.dbg.spill, i32 0, i32 1
  store i64 %slice.1, ptr %4, align 8
  call void @llvm.dbg.declare(metadata ptr %slice.dbg.spill, metadata !342, metadata !DIExpression()), !dbg !344
  %_3 = icmp ugt i64 %self.0, %self.1, !dbg !345
  br i1 %_3, label %bb1, label %bb2, !dbg !345

bb2:                                              ; preds = %start
  %_9 = icmp ugt i64 %self.1, %slice.1, !dbg !346
  br i1 %_9, label %bb3, label %bb4, !dbg !346

bb1:                                              ; preds = %start
; call core::slice::index::slice_index_order_fail
  call void @_ZN4core5slice5index22slice_index_order_fail17h3a73883734c7d871E(i64 %self.0, i64 %self.1, ptr align 8 %0) #11, !dbg !347
  unreachable, !dbg !347

bb4:                                              ; preds = %bb2
; call <core::ops::range::Range<usize> as core::slice::index::SliceIndex<[T]>>::get_unchecked
  %5 = call { ptr, i64 } @"_ZN106_$LT$core..ops..range..Range$LT$usize$GT$$u20$as$u20$core..slice..index..SliceIndex$LT$$u5b$T$u5d$$GT$$GT$13get_unchecked17h2d47314f2b84b306E"(i64 %self.0, i64 %self.1, ptr %slice.0, i64 %slice.1) #10, !dbg !348
  %_15.0 = extractvalue { ptr, i64 } %5, 0, !dbg !348
  %_15.1 = extractvalue { ptr, i64 } %5, 1, !dbg !348
  %6 = insertvalue { ptr, i64 } poison, ptr %_15.0, 0, !dbg !349
  %7 = insertvalue { ptr, i64 } %6, i64 %_15.1, 1, !dbg !349
  ret { ptr, i64 } %7, !dbg !349

bb3:                                              ; preds = %bb2
; call core::slice::index::slice_end_index_len_fail
  call void @_ZN4core5slice5index24slice_end_index_len_fail17hac0fdec05618e01fE(i64 %self.1, i64 %slice.1, ptr align 8 %0) #11, !dbg !350
  unreachable, !dbg !350
}

; <core::ops::range::Range<usize> as core::slice::index::SliceIndex<[T]>>::index_mut
; Function Attrs: inlinehint noredzone nounwind
define { ptr, i64 } @"_ZN106_$LT$core..ops..range..Range$LT$usize$GT$$u20$as$u20$core..slice..index..SliceIndex$LT$$u5b$T$u5d$$GT$$GT$9index_mut17hf93e08869586640aE"(i64 %self.0, i64 %self.1, ptr align 8 %slice.0, i64 %slice.1, ptr align 8 %0) unnamed_addr #0 !dbg !351 {
start:
  %slice.dbg.spill = alloca { ptr, i64 }, align 8
  %self.dbg.spill = alloca { i64, i64 }, align 8
  %1 = getelementptr inbounds { i64, i64 }, ptr %self.dbg.spill, i32 0, i32 0
  store i64 %self.0, ptr %1, align 8
  %2 = getelementptr inbounds { i64, i64 }, ptr %self.dbg.spill, i32 0, i32 1
  store i64 %self.1, ptr %2, align 8
  call void @llvm.dbg.declare(metadata ptr %self.dbg.spill, metadata !359, metadata !DIExpression()), !dbg !361
  %3 = getelementptr inbounds { ptr, i64 }, ptr %slice.dbg.spill, i32 0, i32 0
  store ptr %slice.0, ptr %3, align 8
  %4 = getelementptr inbounds { ptr, i64 }, ptr %slice.dbg.spill, i32 0, i32 1
  store i64 %slice.1, ptr %4, align 8
  call void @llvm.dbg.declare(metadata ptr %slice.dbg.spill, metadata !360, metadata !DIExpression()), !dbg !362
  %_3 = icmp ugt i64 %self.0, %self.1, !dbg !363
  br i1 %_3, label %bb1, label %bb2, !dbg !363

bb2:                                              ; preds = %start
  %_9 = icmp ugt i64 %self.1, %slice.1, !dbg !364
  br i1 %_9, label %bb3, label %bb4, !dbg !364

bb1:                                              ; preds = %start
; call core::slice::index::slice_index_order_fail
  call void @_ZN4core5slice5index22slice_index_order_fail17h3a73883734c7d871E(i64 %self.0, i64 %self.1, ptr align 8 %0) #11, !dbg !365
  unreachable, !dbg !365

bb4:                                              ; preds = %bb2
; call <core::ops::range::Range<usize> as core::slice::index::SliceIndex<[T]>>::get_unchecked_mut
  %5 = call { ptr, i64 } @"_ZN106_$LT$core..ops..range..Range$LT$usize$GT$$u20$as$u20$core..slice..index..SliceIndex$LT$$u5b$T$u5d$$GT$$GT$17get_unchecked_mut17h2ce56c62d1d071b6E"(i64 %self.0, i64 %self.1, ptr %slice.0, i64 %slice.1) #10, !dbg !366
  %_17.0 = extractvalue { ptr, i64 } %5, 0, !dbg !366
  %_17.1 = extractvalue { ptr, i64 } %5, 1, !dbg !366
  %6 = insertvalue { ptr, i64 } poison, ptr %_17.0, 0, !dbg !367
  %7 = insertvalue { ptr, i64 } %6, i64 %_17.1, 1, !dbg !367
  ret { ptr, i64 } %7, !dbg !367

bb3:                                              ; preds = %bb2
; call core::slice::index::slice_end_index_len_fail
  call void @_ZN4core5slice5index24slice_end_index_len_fail17hac0fdec05618e01fE(i64 %self.1, i64 %slice.1, ptr align 8 %0) #11, !dbg !368
  unreachable, !dbg !368
}

; <core::ops::range::RangeTo<usize> as core::slice::index::SliceIndex<[T]>>::index_mut
; Function Attrs: inlinehint noredzone nounwind
define { ptr, i64 } @"_ZN108_$LT$core..ops..range..RangeTo$LT$usize$GT$$u20$as$u20$core..slice..index..SliceIndex$LT$$u5b$T$u5d$$GT$$GT$9index_mut17hd9bac579f2e3e23fE"(i64 %self, ptr align 8 %slice.0, i64 %slice.1, ptr align 8 %0) unnamed_addr #0 !dbg !369 {
start:
  %slice.dbg.spill = alloca { ptr, i64 }, align 8
  %self.dbg.spill = alloca i64, align 8
  %_4 = alloca { i64, i64 }, align 8
  store i64 %self, ptr %self.dbg.spill, align 8
  call void @llvm.dbg.declare(metadata ptr %self.dbg.spill, metadata !377, metadata !DIExpression()), !dbg !379
  %1 = getelementptr inbounds { ptr, i64 }, ptr %slice.dbg.spill, i32 0, i32 0
  store ptr %slice.0, ptr %1, align 8
  %2 = getelementptr inbounds { ptr, i64 }, ptr %slice.dbg.spill, i32 0, i32 1
  store i64 %slice.1, ptr %2, align 8
  call void @llvm.dbg.declare(metadata ptr %slice.dbg.spill, metadata !378, metadata !DIExpression()), !dbg !380
  store i64 0, ptr %_4, align 8, !dbg !381
  %3 = getelementptr inbounds { i64, i64 }, ptr %_4, i32 0, i32 1, !dbg !381
  store i64 %self, ptr %3, align 8, !dbg !381
  %4 = getelementptr inbounds { i64, i64 }, ptr %_4, i32 0, i32 0, !dbg !381
  %5 = load i64, ptr %4, align 8, !dbg !381, !noundef !24
  %6 = getelementptr inbounds { i64, i64 }, ptr %_4, i32 0, i32 1, !dbg !381
  %7 = load i64, ptr %6, align 8, !dbg !381, !noundef !24
; call <core::ops::range::Range<usize> as core::slice::index::SliceIndex<[T]>>::index_mut
  %8 = call { ptr, i64 } @"_ZN106_$LT$core..ops..range..Range$LT$usize$GT$$u20$as$u20$core..slice..index..SliceIndex$LT$$u5b$T$u5d$$GT$$GT$9index_mut17hf93e08869586640aE"(i64 %5, i64 %7, ptr align 8 %slice.0, i64 %slice.1, ptr align 8 %0) #10, !dbg !381
  %_3.0 = extractvalue { ptr, i64 } %8, 0, !dbg !381
  %_3.1 = extractvalue { ptr, i64 } %8, 1, !dbg !381
  %9 = insertvalue { ptr, i64 } poison, ptr %_3.0, 0, !dbg !382
  %10 = insertvalue { ptr, i64 } %9, i64 %_3.1, 1, !dbg !382
  ret { ptr, i64 } %10, !dbg !382
}

; <core::ops::range::RangeFrom<usize> as core::slice::index::SliceIndex<[T]>>::get_unchecked_mut
; Function Attrs: inlinehint noredzone nounwind
define { ptr, i64 } @"_ZN110_$LT$core..ops..range..RangeFrom$LT$usize$GT$$u20$as$u20$core..slice..index..SliceIndex$LT$$u5b$T$u5d$$GT$$GT$17get_unchecked_mut17h0358784fea02884dE"(i64 %self, ptr %slice.0, i64 %slice.1) unnamed_addr #0 !dbg !383 {
start:
  %self.dbg.spill.i = alloca { ptr, i64 }, align 8
  %slice.dbg.spill = alloca { ptr, i64 }, align 8
  %self.dbg.spill = alloca i64, align 8
  %_3 = alloca { i64, i64 }, align 8
  store i64 %self, ptr %self.dbg.spill, align 8
  call void @llvm.dbg.declare(metadata ptr %self.dbg.spill, metadata !391, metadata !DIExpression()), !dbg !393
  %0 = getelementptr inbounds { ptr, i64 }, ptr %slice.dbg.spill, i32 0, i32 0
  store ptr %slice.0, ptr %0, align 8
  %1 = getelementptr inbounds { ptr, i64 }, ptr %slice.dbg.spill, i32 0, i32 1
  store i64 %slice.1, ptr %1, align 8
  call void @llvm.dbg.declare(metadata ptr %slice.dbg.spill, metadata !392, metadata !DIExpression()), !dbg !394
  store ptr %slice.0, ptr %self.dbg.spill.i, align 8
  %2 = getelementptr inbounds { ptr, i64 }, ptr %self.dbg.spill.i, i32 0, i32 1
  store i64 %slice.1, ptr %2, align 8
  call void @llvm.dbg.declare(metadata ptr %self.dbg.spill.i, metadata !309, metadata !DIExpression()), !dbg !395
; call core::ptr::metadata::metadata
  %3 = call i64 @_ZN4core3ptr8metadata8metadata17h4fc945275518d4ceE(ptr %slice.0, i64 %slice.1) #10, !dbg !397
  store i64 %self, ptr %_3, align 8, !dbg !398
  %4 = getelementptr inbounds { i64, i64 }, ptr %_3, i32 0, i32 1, !dbg !398
  store i64 %3, ptr %4, align 8, !dbg !398
  %5 = getelementptr inbounds { i64, i64 }, ptr %_3, i32 0, i32 0, !dbg !398
  %6 = load i64, ptr %5, align 8, !dbg !398, !noundef !24
  %7 = getelementptr inbounds { i64, i64 }, ptr %_3, i32 0, i32 1, !dbg !398
  %8 = load i64, ptr %7, align 8, !dbg !398, !noundef !24
; call <core::ops::range::Range<usize> as core::slice::index::SliceIndex<[T]>>::get_unchecked_mut
  %9 = call { ptr, i64 } @"_ZN106_$LT$core..ops..range..Range$LT$usize$GT$$u20$as$u20$core..slice..index..SliceIndex$LT$$u5b$T$u5d$$GT$$GT$17get_unchecked_mut17h2ce56c62d1d071b6E"(i64 %6, i64 %8, ptr %slice.0, i64 %slice.1) #10, !dbg !398
  %10 = extractvalue { ptr, i64 } %9, 0, !dbg !398
  %11 = extractvalue { ptr, i64 } %9, 1, !dbg !398
  %12 = insertvalue { ptr, i64 } poison, ptr %10, 0, !dbg !399
  %13 = insertvalue { ptr, i64 } %12, i64 %11, 1, !dbg !399
  ret { ptr, i64 } %13, !dbg !399
}

; <core::ops::range::RangeFrom<usize> as core::slice::index::SliceIndex<[T]>>::index_mut
; Function Attrs: inlinehint noredzone nounwind
define { ptr, i64 } @"_ZN110_$LT$core..ops..range..RangeFrom$LT$usize$GT$$u20$as$u20$core..slice..index..SliceIndex$LT$$u5b$T$u5d$$GT$$GT$9index_mut17hd547e1811f3e4269E"(i64 %self, ptr align 8 %slice.0, i64 %slice.1, ptr align 8 %0) unnamed_addr #0 !dbg !400 {
start:
  %slice.dbg.spill = alloca { ptr, i64 }, align 8
  %self.dbg.spill = alloca i64, align 8
  store i64 %self, ptr %self.dbg.spill, align 8
  call void @llvm.dbg.declare(metadata ptr %self.dbg.spill, metadata !404, metadata !DIExpression()), !dbg !406
  %1 = getelementptr inbounds { ptr, i64 }, ptr %slice.dbg.spill, i32 0, i32 0
  store ptr %slice.0, ptr %1, align 8
  %2 = getelementptr inbounds { ptr, i64 }, ptr %slice.dbg.spill, i32 0, i32 1
  store i64 %slice.1, ptr %2, align 8
  call void @llvm.dbg.declare(metadata ptr %slice.dbg.spill, metadata !405, metadata !DIExpression()), !dbg !407
  %_3 = icmp ugt i64 %self, %slice.1, !dbg !408
  br i1 %_3, label %bb1, label %bb2, !dbg !408

bb2:                                              ; preds = %start
; call <core::ops::range::RangeFrom<usize> as core::slice::index::SliceIndex<[T]>>::get_unchecked_mut
  %3 = call { ptr, i64 } @"_ZN110_$LT$core..ops..range..RangeFrom$LT$usize$GT$$u20$as$u20$core..slice..index..SliceIndex$LT$$u5b$T$u5d$$GT$$GT$17get_unchecked_mut17h0358784fea02884dE"(i64 %self, ptr %slice.0, i64 %slice.1) #10, !dbg !409
  %_11.0 = extractvalue { ptr, i64 } %3, 0, !dbg !409
  %_11.1 = extractvalue { ptr, i64 } %3, 1, !dbg !409
  %4 = insertvalue { ptr, i64 } poison, ptr %_11.0, 0, !dbg !410
  %5 = insertvalue { ptr, i64 } %4, i64 %_11.1, 1, !dbg !410
  ret { ptr, i64 } %5, !dbg !410

bb1:                                              ; preds = %start
; call core::slice::index::slice_start_index_len_fail
  call void @_ZN4core5slice5index26slice_start_index_len_fail17he5dc540bc7c1eda1E(i64 %self, i64 %slice.1, ptr align 8 %0) #11, !dbg !411
  unreachable, !dbg !411
}

; <core::ops::range::RangeInclusive<usize> as core::slice::index::SliceIndex<[T]>>::index_mut
; Function Attrs: inlinehint noredzone nounwind
define { ptr, i64 } @"_ZN115_$LT$core..ops..range..RangeInclusive$LT$usize$GT$$u20$as$u20$core..slice..index..SliceIndex$LT$$u5b$T$u5d$$GT$$GT$9index_mut17hc4ce3d4532c78366E"(ptr %self, ptr align 8 %slice.0, i64 %slice.1, ptr align 8 %0) unnamed_addr #0 !dbg !412 {
start:
  %slice.dbg.spill = alloca { ptr, i64 }, align 8, !dbg !425
  call void @llvm.dbg.declare(metadata ptr %self, metadata !423, metadata !DIExpression()), !dbg !425
  %1 = getelementptr inbounds { ptr, i64 }, ptr %slice.dbg.spill, i32 0, i32 0
  store ptr %slice.0, ptr %1, align 8
  %2 = getelementptr inbounds { ptr, i64 }, ptr %slice.dbg.spill, i32 0, i32 1
  store i64 %slice.1, ptr %2, align 8
  call void @llvm.dbg.declare(metadata ptr %slice.dbg.spill, metadata !424, metadata !DIExpression()), !dbg !426
; call core::ops::range::RangeInclusive<Idx>::end
  %_5 = call align 8 ptr @"_ZN4core3ops5range25RangeInclusive$LT$Idx$GT$3end17hc84d02dca1ce1660E"(ptr align 8 %self) #10, !dbg !427
  %_4 = load i64, ptr %_5, align 8, !dbg !428, !noundef !24
  %_3 = icmp eq i64 %_4, -1, !dbg !428
  br i1 %_3, label %bb2, label %bb3, !dbg !428

bb3:                                              ; preds = %start
; call core::ops::range::RangeInclusive<usize>::into_slice_range
  %3 = call { i64, i64 } @"_ZN4core3ops5range27RangeInclusive$LT$usize$GT$16into_slice_range17h4384b7d931bb2e10E"(ptr %self) #10, !dbg !429
  %_9.0 = extractvalue { i64, i64 } %3, 0, !dbg !429
  %_9.1 = extractvalue { i64, i64 } %3, 1, !dbg !429
; call <core::ops::range::Range<usize> as core::slice::index::SliceIndex<[T]>>::index_mut
  %4 = call { ptr, i64 } @"_ZN106_$LT$core..ops..range..Range$LT$usize$GT$$u20$as$u20$core..slice..index..SliceIndex$LT$$u5b$T$u5d$$GT$$GT$9index_mut17hf93e08869586640aE"(i64 %_9.0, i64 %_9.1, ptr align 8 %slice.0, i64 %slice.1, ptr align 8 %0) #10, !dbg !429
  %_8.0 = extractvalue { ptr, i64 } %4, 0, !dbg !429
  %_8.1 = extractvalue { ptr, i64 } %4, 1, !dbg !429
  %5 = insertvalue { ptr, i64 } poison, ptr %_8.0, 0, !dbg !430
  %6 = insertvalue { ptr, i64 } %5, i64 %_8.1, 1, !dbg !430
  ret { ptr, i64 } %6, !dbg !430

bb2:                                              ; preds = %start
; call core::slice::index::slice_end_index_overflow_fail
  call void @_ZN4core5slice5index29slice_end_index_overflow_fail17h6f79fc3290077011E(ptr align 8 %0) #11, !dbg !431
  unreachable, !dbg !431
}

; <core::ops::range::RangeToInclusive<usize> as core::slice::index::SliceIndex<[T]>>::index_mut
; Function Attrs: inlinehint noredzone nounwind
define { ptr, i64 } @"_ZN117_$LT$core..ops..range..RangeToInclusive$LT$usize$GT$$u20$as$u20$core..slice..index..SliceIndex$LT$$u5b$T$u5d$$GT$$GT$9index_mut17h0a361e9ac236b6adE"(i64 %self, ptr align 8 %slice.0, i64 %slice.1, ptr align 8 %0) unnamed_addr #0 !dbg !432 {
start:
  %slice.dbg.spill = alloca { ptr, i64 }, align 8
  %self.dbg.spill = alloca i64, align 8
  %_4 = alloca %"core::ops::range::RangeInclusive<usize>", align 8
  store i64 %self, ptr %self.dbg.spill, align 8
  call void @llvm.dbg.declare(metadata ptr %self.dbg.spill, metadata !440, metadata !DIExpression()), !dbg !442
  %1 = getelementptr inbounds { ptr, i64 }, ptr %slice.dbg.spill, i32 0, i32 0
  store ptr %slice.0, ptr %1, align 8
  %2 = getelementptr inbounds { ptr, i64 }, ptr %slice.dbg.spill, i32 0, i32 1
  store i64 %slice.1, ptr %2, align 8
  call void @llvm.dbg.declare(metadata ptr %slice.dbg.spill, metadata !441, metadata !DIExpression()), !dbg !443
; call core::ops::range::RangeInclusive<Idx>::new
  call void @"_ZN4core3ops5range25RangeInclusive$LT$Idx$GT$3new17h6e1589f1e89e1696E"(ptr sret(%"core::ops::range::RangeInclusive<usize>") %_4, i64 0, i64 %self) #10, !dbg !444
; call <core::ops::range::RangeInclusive<usize> as core::slice::index::SliceIndex<[T]>>::index_mut
  %3 = call { ptr, i64 } @"_ZN115_$LT$core..ops..range..RangeInclusive$LT$usize$GT$$u20$as$u20$core..slice..index..SliceIndex$LT$$u5b$T$u5d$$GT$$GT$9index_mut17hc4ce3d4532c78366E"(ptr %_4, ptr align 8 %slice.0, i64 %slice.1, ptr align 8 %0) #10, !dbg !444
  %_3.0 = extractvalue { ptr, i64 } %3, 0, !dbg !444
  %_3.1 = extractvalue { ptr, i64 } %3, 1, !dbg !444
  %4 = insertvalue { ptr, i64 } poison, ptr %_3.0, 0, !dbg !445
  %5 = insertvalue { ptr, i64 } %4, i64 %_3.1, 1, !dbg !445
  ret { ptr, i64 } %5, !dbg !445
}

; <&T as core::fmt::Debug>::fmt
; Function Attrs: noredzone nounwind
define zeroext i1 @"_ZN42_$LT$$RF$T$u20$as$u20$core..fmt..Debug$GT$3fmt17ha840e02953f70767E"(ptr align 8 %self, ptr align 8 %f) unnamed_addr #1 !dbg !446 {
start:
  %f.dbg.spill = alloca ptr, align 8
  %self.dbg.spill = alloca ptr, align 8
  store ptr %self, ptr %self.dbg.spill, align 8
  call void @llvm.dbg.declare(metadata ptr %self.dbg.spill, metadata !505, metadata !DIExpression()), !dbg !507
  store ptr %f, ptr %f.dbg.spill, align 8
  call void @llvm.dbg.declare(metadata ptr %f.dbg.spill, metadata !506, metadata !DIExpression()), !dbg !508
  %_3 = load ptr, ptr %self, align 8, !dbg !509, !nonnull !24, !align !510, !noundef !24
; call <bootloader::bootinfo::memory_map::MemoryRegion as core::fmt::Debug>::fmt
  %0 = call zeroext i1 @"_ZN83_$LT$bootloader..bootinfo..memory_map..MemoryRegion$u20$as$u20$core..fmt..Debug$GT$3fmt17h771e7cc3aaff61b4E"(ptr align 8 %_3, ptr align 8 %f) #10, !dbg !511
  ret i1 %0, !dbg !512
}

; <&T as core::fmt::Debug>::fmt
; Function Attrs: noredzone nounwind
define zeroext i1 @"_ZN42_$LT$$RF$T$u20$as$u20$core..fmt..Debug$GT$3fmt17hd6cd9195c5fd3845E"(ptr align 8 %self, ptr align 8 %f) unnamed_addr #1 !dbg !513 {
start:
  %f.dbg.spill = alloca ptr, align 8
  %self.dbg.spill = alloca ptr, align 8
  store ptr %self, ptr %self.dbg.spill, align 8
  call void @llvm.dbg.declare(metadata ptr %self.dbg.spill, metadata !518, metadata !DIExpression()), !dbg !522
  store ptr %f, ptr %f.dbg.spill, align 8
  call void @llvm.dbg.declare(metadata ptr %f.dbg.spill, metadata !519, metadata !DIExpression()), !dbg !523
  %_3 = load ptr, ptr %self, align 8, !dbg !524, !nonnull !24, !align !525, !noundef !24
; call <bootloader::bootinfo::memory_map::MemoryRegionType as core::fmt::Debug>::fmt
  %0 = call zeroext i1 @"_ZN87_$LT$bootloader..bootinfo..memory_map..MemoryRegionType$u20$as$u20$core..fmt..Debug$GT$3fmt17h942619d28359881eE"(ptr align 4 %_3, ptr align 8 %f) #10, !dbg !526
  ret i1 %0, !dbg !527
}

; core::intrinsics::is_nonoverlapping
; Function Attrs: noredzone nounwind
define zeroext i1 @_ZN4core10intrinsics17is_nonoverlapping17hde59f38a0bf7fb53E(ptr %src, ptr %dst, i64 %count) unnamed_addr #1 !dbg !528 {
start:
  %self.dbg.spill.i5 = alloca ptr, align 8
  %self.dbg.spill.i4 = alloca ptr, align 8
  %self.dbg.spill.i2 = alloca ptr, align 8
  %self.dbg.spill.i = alloca ptr, align 8
  %size.dbg.spill = alloca i64, align 8
  %dst_usize.dbg.spill = alloca i64, align 8
  %src_usize.dbg.spill = alloca i64, align 8
  %count.dbg.spill = alloca i64, align 8
  %dst.dbg.spill = alloca ptr, align 8
  %src.dbg.spill = alloca ptr, align 8
  %diff = alloca i64, align 8
  store ptr %src, ptr %src.dbg.spill, align 8
  call void @llvm.dbg.declare(metadata ptr %src.dbg.spill, metadata !533, metadata !DIExpression()), !dbg !544
  store ptr %dst, ptr %dst.dbg.spill, align 8
  call void @llvm.dbg.declare(metadata ptr %dst.dbg.spill, metadata !534, metadata !DIExpression()), !dbg !545
  store i64 %count, ptr %count.dbg.spill, align 8
  call void @llvm.dbg.declare(metadata ptr %count.dbg.spill, metadata !535, metadata !DIExpression()), !dbg !546
  call void @llvm.dbg.declare(metadata ptr %diff, metadata !542, metadata !DIExpression()), !dbg !547
  store ptr %src, ptr %self.dbg.spill.i2, align 8
  call void @llvm.dbg.declare(metadata ptr %self.dbg.spill.i2, metadata !548, metadata !DIExpression()), !dbg !553
  store ptr %src, ptr %self.dbg.spill.i4, align 8
  call void @llvm.dbg.declare(metadata ptr %self.dbg.spill.i4, metadata !555, metadata !DIExpression()), !dbg !562
  %0 = ptrtoint ptr %src to i64, !dbg !564
  store i64 %0, ptr %src_usize.dbg.spill, align 8, !dbg !565
  call void @llvm.dbg.declare(metadata ptr %src_usize.dbg.spill, metadata !536, metadata !DIExpression()), !dbg !566
  store ptr %dst, ptr %self.dbg.spill.i, align 8
  call void @llvm.dbg.declare(metadata ptr %self.dbg.spill.i, metadata !548, metadata !DIExpression()), !dbg !567
  store ptr %dst, ptr %self.dbg.spill.i5, align 8
  call void @llvm.dbg.declare(metadata ptr %self.dbg.spill.i5, metadata !555, metadata !DIExpression()), !dbg !569
  %1 = ptrtoint ptr %dst to i64, !dbg !571
  store i64 %1, ptr %dst_usize.dbg.spill, align 8, !dbg !572
  call void @llvm.dbg.declare(metadata ptr %dst_usize.dbg.spill, metadata !538, metadata !DIExpression()), !dbg !573
; call core::num::<impl usize>::checked_mul
  %2 = call { i64, i64 } @"_ZN4core3num23_$LT$impl$u20$usize$GT$11checked_mul17h189dca2a0ce59f54E"(i64 24, i64 %count) #10, !dbg !574
  %_7.0 = extractvalue { i64, i64 } %2, 0, !dbg !574
  %_7.1 = extractvalue { i64, i64 } %2, 1, !dbg !574
; call core::option::Option<T>::unwrap
  %size = call i64 @"_ZN4core6option15Option$LT$T$GT$6unwrap17h6b9c7dcddc3eb64aE"(i64 %_7.0, i64 %_7.1, ptr align 8 @alloc_c92b068cc8d2cd4c50e9488095980e32) #10, !dbg !574
  store i64 %size, ptr %size.dbg.spill, align 8, !dbg !574
  call void @llvm.dbg.declare(metadata ptr %size.dbg.spill, metadata !540, metadata !DIExpression()), !dbg !575
  %_10 = icmp ugt i64 %0, %1, !dbg !576
  br i1 %_10, label %bb6, label %bb8, !dbg !576

bb8:                                              ; preds = %start
  %_18.0 = sub i64 %1, %0, !dbg !577
  %_18.1 = icmp ult i64 %1, %0, !dbg !577
  %3 = call i1 @llvm.expect.i1(i1 %_18.1, i1 false), !dbg !577
  br i1 %3, label %panic1, label %bb9, !dbg !577

bb6:                                              ; preds = %start
  %_15.0 = sub i64 %0, %1, !dbg !578
  %_15.1 = icmp ult i64 %0, %1, !dbg !578
  %4 = call i1 @llvm.expect.i1(i1 %_15.1, i1 false), !dbg !578
  br i1 %4, label %panic, label %bb7, !dbg !578

bb7:                                              ; preds = %bb6
  store i64 %_15.0, ptr %diff, align 8, !dbg !578
  br label %bb10, !dbg !579

panic:                                            ; preds = %bb6
; call core::panicking::panic
  call void @_ZN4core9panicking5panic17h277234a6cd982fe5E(ptr align 1 @str.0, i64 33, ptr align 8 @alloc_7ad8e03c2174e39a8f819d6ca6833838) #11, !dbg !578
  unreachable, !dbg !578

bb10:                                             ; preds = %bb9, %bb7
  %_19 = load i64, ptr %diff, align 8, !dbg !580, !noundef !24
  %5 = icmp uge i64 %_19, %size, !dbg !580
  ret i1 %5, !dbg !581

bb9:                                              ; preds = %bb8
  store i64 %_18.0, ptr %diff, align 8, !dbg !577
  br label %bb10, !dbg !579

panic1:                                           ; preds = %bb8
; call core::panicking::panic
  call void @_ZN4core9panicking5panic17h277234a6cd982fe5E(ptr align 1 @str.0, i64 33, ptr align 8 @alloc_2ca6b8c4026dbf3457d2606f6c47263d) #11, !dbg !577
  unreachable, !dbg !577
}

; core::intrinsics::copy_nonoverlapping
; Function Attrs: inlinehint noredzone nounwind
define void @_ZN4core10intrinsics19copy_nonoverlapping17h043830e124fcf1c8E(ptr %src, ptr %dst, i64 %count) unnamed_addr #0 !dbg !582 {
start:
  %count.dbg.spill.i = alloca i64, align 8
  %dst.dbg.spill.i = alloca ptr, align 8
  %src.dbg.spill.i = alloca ptr, align 8
  %_6.i = alloca i8, align 1
  %_5.i = alloca i8, align 1
  %count.dbg.spill = alloca i64, align 8
  %dst.dbg.spill = alloca ptr, align 8
  %src.dbg.spill = alloca ptr, align 8
  %_6 = alloca { ptr, ptr, i64 }, align 8
  store ptr %src, ptr %src.dbg.spill, align 8
  call void @llvm.dbg.declare(metadata ptr %src.dbg.spill, metadata !586, metadata !DIExpression()), !dbg !589
  store ptr %dst, ptr %dst.dbg.spill, align 8
  call void @llvm.dbg.declare(metadata ptr %dst.dbg.spill, metadata !587, metadata !DIExpression()), !dbg !590
  store i64 %count, ptr %count.dbg.spill, align 8
  call void @llvm.dbg.declare(metadata ptr %count.dbg.spill, metadata !588, metadata !DIExpression()), !dbg !591
  br i1 true, label %bb1, label %bb2, !dbg !592

bb2:                                              ; preds = %_ZN4core10intrinsics19copy_nonoverlapping7runtime17h9f39d8379615f03aE.exit, %start
  %0 = mul i64 %count, 24, !dbg !593
  call void @llvm.memcpy.p0.p0.i64(ptr align 8 %dst, ptr align 8 %src, i64 %0, i1 false), !dbg !593
  ret void, !dbg !594

bb1:                                              ; preds = %start
  store ptr %src, ptr %_6, align 8, !dbg !592
  %1 = getelementptr inbounds { ptr, ptr, i64 }, ptr %_6, i32 0, i32 1, !dbg !592
  store ptr %dst, ptr %1, align 8, !dbg !592
  %2 = getelementptr inbounds { ptr, ptr, i64 }, ptr %_6, i32 0, i32 2, !dbg !592
  store i64 %count, ptr %2, align 8, !dbg !592
  %3 = load ptr, ptr %_6, align 8, !dbg !592, !noundef !24
  %4 = getelementptr inbounds { ptr, ptr, i64 }, ptr %_6, i32 0, i32 1, !dbg !592
  %5 = load ptr, ptr %4, align 8, !dbg !592, !noundef !24
  %6 = getelementptr inbounds { ptr, ptr, i64 }, ptr %_6, i32 0, i32 2, !dbg !592
  %7 = load i64, ptr %6, align 8, !dbg !592, !noundef !24
  store ptr %3, ptr %src.dbg.spill.i, align 8
  call void @llvm.dbg.declare(metadata ptr %src.dbg.spill.i, metadata !595, metadata !DIExpression()), !dbg !601
  store ptr %5, ptr %dst.dbg.spill.i, align 8
  call void @llvm.dbg.declare(metadata ptr %dst.dbg.spill.i, metadata !599, metadata !DIExpression()), !dbg !601
  store i64 %7, ptr %count.dbg.spill.i, align 8
  call void @llvm.dbg.declare(metadata ptr %count.dbg.spill.i, metadata !600, metadata !DIExpression()), !dbg !601
; call core::intrinsics::is_aligned_and_not_null
  %_7.i = call zeroext i1 @_ZN4core10intrinsics23is_aligned_and_not_null17hf4ba8c4511457810E(ptr %3) #10, !dbg !603
  br i1 %_7.i, label %bb5.i, label %bb4.i, !dbg !603

bb4.i:                                            ; preds = %bb1
  store i8 0, ptr %_6.i, align 1, !dbg !603
  br label %bb6.i, !dbg !603

bb5.i:                                            ; preds = %bb1
; call core::intrinsics::is_aligned_and_not_null
  %_8.i = call zeroext i1 @_ZN4core10intrinsics23is_aligned_and_not_null17hf4ba8c4511457810E(ptr %5) #10, !dbg !604
  %8 = zext i1 %_8.i to i8, !dbg !603
  store i8 %8, ptr %_6.i, align 1, !dbg !603
  br label %bb6.i, !dbg !603

bb6.i:                                            ; preds = %bb5.i, %bb4.i
  %9 = load i8, ptr %_6.i, align 1, !dbg !603, !range !242, !noundef !24
  %10 = trunc i8 %9 to i1, !dbg !603
  br i1 %10, label %bb2.i, label %bb1.i, !dbg !603

bb1.i:                                            ; preds = %bb6.i
  store i8 0, ptr %_5.i, align 1, !dbg !603
  br label %bb3.i, !dbg !603

bb2.i:                                            ; preds = %bb6.i
; call core::intrinsics::is_nonoverlapping
  %_10.i = call zeroext i1 @_ZN4core10intrinsics17is_nonoverlapping17hde59f38a0bf7fb53E(ptr %3, ptr %5, i64 %7) #10, !dbg !605
  %11 = zext i1 %_10.i to i8, !dbg !603
  store i8 %11, ptr %_5.i, align 1, !dbg !603
  br label %bb3.i, !dbg !603

bb3.i:                                            ; preds = %bb2.i, %bb1.i
  %12 = load i8, ptr %_5.i, align 1, !dbg !606, !range !242, !noundef !24
  %13 = trunc i8 %12 to i1, !dbg !606
  %_4.i = xor i1 %13, true, !dbg !606
  br i1 %_4.i, label %bb10.i, label %_ZN4core10intrinsics19copy_nonoverlapping7runtime17h9f39d8379615f03aE.exit, !dbg !606

bb10.i:                                           ; preds = %bb3.i
; call core::panicking::panic_nounwind
  call void @_ZN4core9panicking14panic_nounwind17h4573e3544b1244f5E(ptr align 1 @alloc_8df0580a595a87d56789d20c7318e185, i64 166) #11, !dbg !607
  unreachable, !dbg !607

_ZN4core10intrinsics19copy_nonoverlapping7runtime17h9f39d8379615f03aE.exit: ; preds = %bb3.i
  br label %bb2, !dbg !592
}

; core::intrinsics::copy_nonoverlapping
; Function Attrs: inlinehint noredzone nounwind
define void @_ZN4core10intrinsics19copy_nonoverlapping17h3fc0a0a5354c2a60E(ptr %src, ptr %dst, i64 %count) unnamed_addr #0 !dbg !608 {
start:
  %count.dbg.spill.i = alloca i64, align 8
  %dst.dbg.spill.i = alloca ptr, align 8
  %src.dbg.spill.i = alloca ptr, align 8
  %_6.i = alloca i8, align 1
  %_5.i = alloca i8, align 1
  %count.dbg.spill = alloca i64, align 8
  %dst.dbg.spill = alloca ptr, align 8
  %src.dbg.spill = alloca ptr, align 8
  %_6 = alloca { ptr, ptr, i64 }, align 8
  store ptr %src, ptr %src.dbg.spill, align 8
  call void @llvm.dbg.declare(metadata ptr %src.dbg.spill, metadata !614, metadata !DIExpression()), !dbg !617
  store ptr %dst, ptr %dst.dbg.spill, align 8
  call void @llvm.dbg.declare(metadata ptr %dst.dbg.spill, metadata !615, metadata !DIExpression()), !dbg !618
  store i64 %count, ptr %count.dbg.spill, align 8
  call void @llvm.dbg.declare(metadata ptr %count.dbg.spill, metadata !616, metadata !DIExpression()), !dbg !619
  br i1 true, label %bb1, label %bb2, !dbg !620

bb2:                                              ; preds = %_ZN4core10intrinsics19copy_nonoverlapping7runtime17h5cb93030700fe491E.exit, %start
  %0 = mul i64 %count, 8, !dbg !621
  call void @llvm.memcpy.p0.p0.i64(ptr align 8 %dst, ptr align 8 %src, i64 %0, i1 false), !dbg !621
  ret void, !dbg !622

bb1:                                              ; preds = %start
  store ptr %src, ptr %_6, align 8, !dbg !620
  %1 = getelementptr inbounds { ptr, ptr, i64 }, ptr %_6, i32 0, i32 1, !dbg !620
  store ptr %dst, ptr %1, align 8, !dbg !620
  %2 = getelementptr inbounds { ptr, ptr, i64 }, ptr %_6, i32 0, i32 2, !dbg !620
  store i64 %count, ptr %2, align 8, !dbg !620
  %3 = load ptr, ptr %_6, align 8, !dbg !620, !noundef !24
  %4 = getelementptr inbounds { ptr, ptr, i64 }, ptr %_6, i32 0, i32 1, !dbg !620
  %5 = load ptr, ptr %4, align 8, !dbg !620, !noundef !24
  %6 = getelementptr inbounds { ptr, ptr, i64 }, ptr %_6, i32 0, i32 2, !dbg !620
  %7 = load i64, ptr %6, align 8, !dbg !620, !noundef !24
  store ptr %3, ptr %src.dbg.spill.i, align 8
  call void @llvm.dbg.declare(metadata ptr %src.dbg.spill.i, metadata !623, metadata !DIExpression()), !dbg !628
  store ptr %5, ptr %dst.dbg.spill.i, align 8
  call void @llvm.dbg.declare(metadata ptr %dst.dbg.spill.i, metadata !626, metadata !DIExpression()), !dbg !628
  store i64 %7, ptr %count.dbg.spill.i, align 8
  call void @llvm.dbg.declare(metadata ptr %count.dbg.spill.i, metadata !627, metadata !DIExpression()), !dbg !628
; call core::intrinsics::is_aligned_and_not_null
  %_7.i = call zeroext i1 @_ZN4core10intrinsics23is_aligned_and_not_null17h54e3a64a8d80a0c2E(ptr %3) #10, !dbg !630
  br i1 %_7.i, label %bb5.i, label %bb4.i, !dbg !630

bb4.i:                                            ; preds = %bb1
  store i8 0, ptr %_6.i, align 1, !dbg !630
  br label %bb6.i, !dbg !630

bb5.i:                                            ; preds = %bb1
; call core::intrinsics::is_aligned_and_not_null
  %_8.i = call zeroext i1 @_ZN4core10intrinsics23is_aligned_and_not_null17h54e3a64a8d80a0c2E(ptr %5) #10, !dbg !631
  %8 = zext i1 %_8.i to i8, !dbg !630
  store i8 %8, ptr %_6.i, align 1, !dbg !630
  br label %bb6.i, !dbg !630

bb6.i:                                            ; preds = %bb5.i, %bb4.i
  %9 = load i8, ptr %_6.i, align 1, !dbg !630, !range !242, !noundef !24
  %10 = trunc i8 %9 to i1, !dbg !630
  br i1 %10, label %bb2.i, label %bb1.i, !dbg !630

bb1.i:                                            ; preds = %bb6.i
  store i8 0, ptr %_5.i, align 1, !dbg !630
  br label %bb3.i, !dbg !630

bb2.i:                                            ; preds = %bb6.i
; call core::intrinsics::is_nonoverlapping
  %_10.i = call zeroext i1 @_ZN4core10intrinsics17is_nonoverlapping17hdfa133b4c9e6bfe0E(ptr %3, ptr %5, i64 %7) #10, !dbg !632
  %11 = zext i1 %_10.i to i8, !dbg !630
  store i8 %11, ptr %_5.i, align 1, !dbg !630
  br label %bb3.i, !dbg !630

bb3.i:                                            ; preds = %bb2.i, %bb1.i
  %12 = load i8, ptr %_5.i, align 1, !dbg !633, !range !242, !noundef !24
  %13 = trunc i8 %12 to i1, !dbg !633
  %_4.i = xor i1 %13, true, !dbg !633
  br i1 %_4.i, label %bb10.i, label %_ZN4core10intrinsics19copy_nonoverlapping7runtime17h5cb93030700fe491E.exit, !dbg !633

bb10.i:                                           ; preds = %bb3.i
; call core::panicking::panic_nounwind
  call void @_ZN4core9panicking14panic_nounwind17h4573e3544b1244f5E(ptr align 1 @alloc_8df0580a595a87d56789d20c7318e185, i64 166) #11, !dbg !634
  unreachable, !dbg !634

_ZN4core10intrinsics19copy_nonoverlapping7runtime17h5cb93030700fe491E.exit: ; preds = %bb3.i
  br label %bb2, !dbg !620
}

; core::intrinsics::is_aligned_and_not_null
; Function Attrs: noredzone nounwind
define zeroext i1 @_ZN4core10intrinsics23is_aligned_and_not_null17h7024e836f5e00bcaE(ptr %ptr) unnamed_addr #1 !dbg !635 {
start:
  %ptr.dbg.spill = alloca ptr, align 8
  %0 = alloca i8, align 1
  store ptr %ptr, ptr %ptr.dbg.spill, align 8
  call void @llvm.dbg.declare(metadata ptr %ptr.dbg.spill, metadata !650, metadata !DIExpression()), !dbg !653
; call core::ptr::const_ptr::<impl *const T>::is_null
  %_3 = call zeroext i1 @"_ZN4core3ptr9const_ptr33_$LT$impl$u20$$BP$const$u20$T$GT$7is_null17hfc824951da861796E"(ptr %ptr) #10, !dbg !654
  %_2 = xor i1 %_3, true, !dbg !655
  br i1 %_2, label %bb2, label %bb1, !dbg !655

bb1:                                              ; preds = %start
  store i8 0, ptr %0, align 1, !dbg !655
  br label %bb3, !dbg !655

bb2:                                              ; preds = %start
; call core::ptr::const_ptr::<impl *const T>::is_aligned
  %_4 = call zeroext i1 @"_ZN4core3ptr9const_ptr33_$LT$impl$u20$$BP$const$u20$T$GT$10is_aligned17he1d57f4f8c65cbe0E"(ptr %ptr) #10, !dbg !656
  %1 = zext i1 %_4 to i8, !dbg !655
  store i8 %1, ptr %0, align 1, !dbg !655
  br label %bb3, !dbg !655

bb3:                                              ; preds = %bb1, %bb2
  %2 = load i8, ptr %0, align 1, !dbg !657, !range !242, !noundef !24
  %3 = trunc i8 %2 to i1, !dbg !657
  ret i1 %3, !dbg !657
}

; core::intrinsics::is_aligned_and_not_null
; Function Attrs: noredzone nounwind
define zeroext i1 @_ZN4core10intrinsics23is_aligned_and_not_null17hf4ba8c4511457810E(ptr %ptr) unnamed_addr #1 !dbg !658 {
start:
  %ptr.dbg.spill = alloca ptr, align 8
  %0 = alloca i8, align 1
  store ptr %ptr, ptr %ptr.dbg.spill, align 8
  call void @llvm.dbg.declare(metadata ptr %ptr.dbg.spill, metadata !662, metadata !DIExpression()), !dbg !663
; call core::ptr::const_ptr::<impl *const T>::is_null
  %_3 = call zeroext i1 @"_ZN4core3ptr9const_ptr33_$LT$impl$u20$$BP$const$u20$T$GT$7is_null17hf52a54f7e512b4a6E"(ptr %ptr) #10, !dbg !664
  %_2 = xor i1 %_3, true, !dbg !665
  br i1 %_2, label %bb2, label %bb1, !dbg !665

bb1:                                              ; preds = %start
  store i8 0, ptr %0, align 1, !dbg !665
  br label %bb3, !dbg !665

bb2:                                              ; preds = %start
; call core::ptr::const_ptr::<impl *const T>::is_aligned
  %_4 = call zeroext i1 @"_ZN4core3ptr9const_ptr33_$LT$impl$u20$$BP$const$u20$T$GT$10is_aligned17he2efdc4959409220E"(ptr %ptr) #10, !dbg !666
  %1 = zext i1 %_4 to i8, !dbg !665
  store i8 %1, ptr %0, align 1, !dbg !665
  br label %bb3, !dbg !665

bb3:                                              ; preds = %bb1, %bb2
  %2 = load i8, ptr %0, align 1, !dbg !667, !range !242, !noundef !24
  %3 = trunc i8 %2 to i1, !dbg !667
  ret i1 %3, !dbg !667
}

; core::intrinsics::is_valid_allocation_size
; Function Attrs: noredzone nounwind
define zeroext i1 @_ZN4core10intrinsics24is_valid_allocation_size17hf5c09850e6be46cfE(i64 %len) unnamed_addr #1 !dbg !668 {
start:
  %max_len.dbg.spill = alloca i64, align 8
  %len.dbg.spill = alloca i64, align 8
  store i64 %len, ptr %len.dbg.spill, align 8
  call void @llvm.dbg.declare(metadata ptr %len.dbg.spill, metadata !672, metadata !DIExpression()), !dbg !675
  store i64 384307168202282325, ptr %max_len.dbg.spill, align 8, !dbg !676
  call void @llvm.dbg.declare(metadata ptr %max_len.dbg.spill, metadata !673, metadata !DIExpression()), !dbg !677
  %0 = icmp ule i64 %len, 384307168202282325, !dbg !678
  ret i1 %0, !dbg !679
}

; core::intrinsics::copy
; Function Attrs: inlinehint noredzone nounwind
define void @_ZN4core10intrinsics4copy17h6835612ca7c29911E(ptr %src, ptr %dst, i64 %count) unnamed_addr #0 !dbg !680 {
start:
  %dst.dbg.spill.i = alloca ptr, align 8
  %src.dbg.spill.i = alloca ptr, align 8
  %_4.i = alloca i8, align 1
  %count.dbg.spill = alloca i64, align 8
  %dst.dbg.spill = alloca ptr, align 8
  %src.dbg.spill = alloca ptr, align 8
  %_6 = alloca { ptr, ptr }, align 8
  store ptr %src, ptr %src.dbg.spill, align 8
  call void @llvm.dbg.declare(metadata ptr %src.dbg.spill, metadata !682, metadata !DIExpression()), !dbg !685
  store ptr %dst, ptr %dst.dbg.spill, align 8
  call void @llvm.dbg.declare(metadata ptr %dst.dbg.spill, metadata !683, metadata !DIExpression()), !dbg !686
  store i64 %count, ptr %count.dbg.spill, align 8
  call void @llvm.dbg.declare(metadata ptr %count.dbg.spill, metadata !684, metadata !DIExpression()), !dbg !687
  br i1 true, label %bb1, label %bb2, !dbg !688

bb2:                                              ; preds = %_ZN4core10intrinsics4copy7runtime17h400269ee81791563E.exit, %start
  %0 = mul i64 8, %count, !dbg !689
  call void @llvm.memmove.p0.p0.i64(ptr align 8 %dst, ptr align 8 %src, i64 %0, i1 false), !dbg !689
  ret void, !dbg !690

bb1:                                              ; preds = %start
  store ptr %src, ptr %_6, align 8, !dbg !688
  %1 = getelementptr inbounds { ptr, ptr }, ptr %_6, i32 0, i32 1, !dbg !688
  store ptr %dst, ptr %1, align 8, !dbg !688
  %2 = load ptr, ptr %_6, align 8, !dbg !688, !noundef !24
  %3 = getelementptr inbounds { ptr, ptr }, ptr %_6, i32 0, i32 1, !dbg !688
  %4 = load ptr, ptr %3, align 8, !dbg !688, !noundef !24
  store ptr %2, ptr %src.dbg.spill.i, align 8
  call void @llvm.dbg.declare(metadata ptr %src.dbg.spill.i, metadata !691, metadata !DIExpression()), !dbg !698
  store ptr %4, ptr %dst.dbg.spill.i, align 8
  call void @llvm.dbg.declare(metadata ptr %dst.dbg.spill.i, metadata !697, metadata !DIExpression()), !dbg !698
; call core::intrinsics::is_aligned_and_not_null
  %_5.i = call zeroext i1 @_ZN4core10intrinsics23is_aligned_and_not_null17h54e3a64a8d80a0c2E(ptr %2) #10, !dbg !700
  br i1 %_5.i, label %bb2.i, label %bb1.i, !dbg !700

bb1.i:                                            ; preds = %bb1
  store i8 0, ptr %_4.i, align 1, !dbg !700
  br label %bb3.i, !dbg !700

bb2.i:                                            ; preds = %bb1
; call core::intrinsics::is_aligned_and_not_null
  %_6.i = call zeroext i1 @_ZN4core10intrinsics23is_aligned_and_not_null17h54e3a64a8d80a0c2E(ptr %4) #10, !dbg !701
  %5 = zext i1 %_6.i to i8, !dbg !700
  store i8 %5, ptr %_4.i, align 1, !dbg !700
  br label %bb3.i, !dbg !700

bb3.i:                                            ; preds = %bb2.i, %bb1.i
  %6 = load i8, ptr %_4.i, align 1, !dbg !702, !range !242, !noundef !24
  %7 = trunc i8 %6 to i1, !dbg !702
  %_3.i = xor i1 %7, true, !dbg !702
  br i1 %_3.i, label %bb6.i, label %_ZN4core10intrinsics4copy7runtime17h400269ee81791563E.exit, !dbg !702

bb6.i:                                            ; preds = %bb3.i
; call core::panicking::panic_nounwind
  call void @_ZN4core9panicking14panic_nounwind17h4573e3544b1244f5E(ptr align 1 @alloc_4f979e408ba56e8e0fdc172fb24ef68d, i64 112) #11, !dbg !703
  unreachable, !dbg !703

_ZN4core10intrinsics4copy7runtime17h400269ee81791563E.exit: ; preds = %bb3.i
  br label %bb2, !dbg !688
}

; core::intrinsics::copy
; Function Attrs: inlinehint noredzone nounwind
define void @_ZN4core10intrinsics4copy17hde30679fb0cb8f2eE(ptr %src, ptr %dst, i64 %count) unnamed_addr #0 !dbg !704 {
start:
  %dst.dbg.spill.i = alloca ptr, align 8
  %src.dbg.spill.i = alloca ptr, align 8
  %_4.i = alloca i8, align 1
  %count.dbg.spill = alloca i64, align 8
  %dst.dbg.spill = alloca ptr, align 8
  %src.dbg.spill = alloca ptr, align 8
  %_6 = alloca { ptr, ptr }, align 8
  store ptr %src, ptr %src.dbg.spill, align 8
  call void @llvm.dbg.declare(metadata ptr %src.dbg.spill, metadata !706, metadata !DIExpression()), !dbg !709
  store ptr %dst, ptr %dst.dbg.spill, align 8
  call void @llvm.dbg.declare(metadata ptr %dst.dbg.spill, metadata !707, metadata !DIExpression()), !dbg !710
  store i64 %count, ptr %count.dbg.spill, align 8
  call void @llvm.dbg.declare(metadata ptr %count.dbg.spill, metadata !708, metadata !DIExpression()), !dbg !711
  br i1 true, label %bb1, label %bb2, !dbg !712

bb2:                                              ; preds = %_ZN4core10intrinsics4copy7runtime17hbe7485e94375aad4E.exit, %start
  %0 = mul i64 24, %count, !dbg !713
  call void @llvm.memmove.p0.p0.i64(ptr align 8 %dst, ptr align 8 %src, i64 %0, i1 false), !dbg !713
  ret void, !dbg !714

bb1:                                              ; preds = %start
  store ptr %src, ptr %_6, align 8, !dbg !712
  %1 = getelementptr inbounds { ptr, ptr }, ptr %_6, i32 0, i32 1, !dbg !712
  store ptr %dst, ptr %1, align 8, !dbg !712
  %2 = load ptr, ptr %_6, align 8, !dbg !712, !noundef !24
  %3 = getelementptr inbounds { ptr, ptr }, ptr %_6, i32 0, i32 1, !dbg !712
  %4 = load ptr, ptr %3, align 8, !dbg !712, !noundef !24
  store ptr %2, ptr %src.dbg.spill.i, align 8
  call void @llvm.dbg.declare(metadata ptr %src.dbg.spill.i, metadata !715, metadata !DIExpression()), !dbg !721
  store ptr %4, ptr %dst.dbg.spill.i, align 8
  call void @llvm.dbg.declare(metadata ptr %dst.dbg.spill.i, metadata !720, metadata !DIExpression()), !dbg !721
; call core::intrinsics::is_aligned_and_not_null
  %_5.i = call zeroext i1 @_ZN4core10intrinsics23is_aligned_and_not_null17hf4ba8c4511457810E(ptr %2) #10, !dbg !723
  br i1 %_5.i, label %bb2.i, label %bb1.i, !dbg !723

bb1.i:                                            ; preds = %bb1
  store i8 0, ptr %_4.i, align 1, !dbg !723
  br label %bb3.i, !dbg !723

bb2.i:                                            ; preds = %bb1
; call core::intrinsics::is_aligned_and_not_null
  %_6.i = call zeroext i1 @_ZN4core10intrinsics23is_aligned_and_not_null17hf4ba8c4511457810E(ptr %4) #10, !dbg !724
  %5 = zext i1 %_6.i to i8, !dbg !723
  store i8 %5, ptr %_4.i, align 1, !dbg !723
  br label %bb3.i, !dbg !723

bb3.i:                                            ; preds = %bb2.i, %bb1.i
  %6 = load i8, ptr %_4.i, align 1, !dbg !725, !range !242, !noundef !24
  %7 = trunc i8 %6 to i1, !dbg !725
  %_3.i = xor i1 %7, true, !dbg !725
  br i1 %_3.i, label %bb6.i, label %_ZN4core10intrinsics4copy7runtime17hbe7485e94375aad4E.exit, !dbg !725

bb6.i:                                            ; preds = %bb3.i
; call core::panicking::panic_nounwind
  call void @_ZN4core9panicking14panic_nounwind17h4573e3544b1244f5E(ptr align 1 @alloc_4f979e408ba56e8e0fdc172fb24ef68d, i64 112) #11, !dbg !726
  unreachable, !dbg !726

_ZN4core10intrinsics4copy7runtime17hbe7485e94375aad4E.exit: ; preds = %bb3.i
  br label %bb2, !dbg !712
}

; core::cmp::impls::<impl core::cmp::Ord for u64>::cmp
; Function Attrs: inlinehint noredzone nounwind
define internal i8 @"_ZN4core3cmp5impls48_$LT$impl$u20$core..cmp..Ord$u20$for$u20$u64$GT$3cmp17ha720db96ca76e537E"(ptr align 8 %self, ptr align 8 %other) unnamed_addr #0 !dbg !727 {
start:
  %other.dbg.spill = alloca ptr, align 8
  %self.dbg.spill = alloca ptr, align 8
  %0 = alloca i8, align 1
  store ptr %self, ptr %self.dbg.spill, align 8
  call void @llvm.dbg.declare(metadata ptr %self.dbg.spill, metadata !734, metadata !DIExpression()), !dbg !736
  store ptr %other, ptr %other.dbg.spill, align 8
  call void @llvm.dbg.declare(metadata ptr %other.dbg.spill, metadata !735, metadata !DIExpression()), !dbg !737
  %_4 = load i64, ptr %self, align 8, !dbg !738, !noundef !24
  %_5 = load i64, ptr %other, align 8, !dbg !739, !noundef !24
  %_3 = icmp ult i64 %_4, %_5, !dbg !738
  br i1 %_3, label %bb1, label %bb2, !dbg !738

bb2:                                              ; preds = %start
  %_7 = load i64, ptr %self, align 8, !dbg !740, !noundef !24
  %_8 = load i64, ptr %other, align 8, !dbg !741, !noundef !24
  %_6 = icmp eq i64 %_7, %_8, !dbg !740
  br i1 %_6, label %bb3, label %bb4, !dbg !740

bb1:                                              ; preds = %start
  store i8 -1, ptr %0, align 1, !dbg !742
  br label %bb5, !dbg !743

bb5:                                              ; preds = %bb4, %bb3, %bb1
  %1 = load i8, ptr %0, align 1, !dbg !744, !range !745, !noundef !24
  ret i8 %1, !dbg !744

bb4:                                              ; preds = %bb2
  store i8 1, ptr %0, align 1, !dbg !746
  br label %bb5, !dbg !747

bb3:                                              ; preds = %bb2
  store i8 0, ptr %0, align 1, !dbg !748
  br label %bb5, !dbg !747
}

; core::fmt::ArgumentV1::new_lower_hex
; Function Attrs: inlinehint noredzone nounwind
define { ptr, ptr } @_ZN4core3fmt10ArgumentV113new_lower_hex17hc064ddddc92919cbE(ptr align 8 %x) unnamed_addr #0 !dbg !749 {
start:
  %x.dbg.spill = alloca ptr, align 8
  store ptr %x, ptr %x.dbg.spill, align 8
  call void @llvm.dbg.declare(metadata ptr %x.dbg.spill, metadata !763, metadata !DIExpression()), !dbg !766
; call core::fmt::ArgumentV1::new
  %0 = call { ptr, ptr } @_ZN4core3fmt10ArgumentV13new17hff38262718737e36E(ptr align 8 %x, ptr @"_ZN4core3fmt3num53_$LT$impl$u20$core..fmt..LowerHex$u20$for$u20$u64$GT$3fmt17hceee1cc64e7ed24aE") #10, !dbg !767
  %1 = extractvalue { ptr, ptr } %0, 0, !dbg !767
  %2 = extractvalue { ptr, ptr } %0, 1, !dbg !767
  %3 = insertvalue { ptr, ptr } poison, ptr %1, 0, !dbg !768
  %4 = insertvalue { ptr, ptr } %3, ptr %2, 1, !dbg !768
  ret { ptr, ptr } %4, !dbg !768
}

; core::fmt::num::<impl core::fmt::Debug for u32>::fmt
; Function Attrs: inlinehint noredzone nounwind
define internal zeroext i1 @"_ZN4core3fmt3num50_$LT$impl$u20$core..fmt..Debug$u20$for$u20$u32$GT$3fmt17hea2ff610b2a3984aE"(ptr align 4 %self, ptr align 8 %f) unnamed_addr #0 !dbg !769 {
start:
  %f.dbg.spill = alloca ptr, align 8
  %self.dbg.spill = alloca ptr, align 8
  %0 = alloca i8, align 1
  store ptr %self, ptr %self.dbg.spill, align 8
  call void @llvm.dbg.declare(metadata ptr %self.dbg.spill, metadata !776, metadata !DIExpression()), !dbg !778
  store ptr %f, ptr %f.dbg.spill, align 8
  call void @llvm.dbg.declare(metadata ptr %f.dbg.spill, metadata !777, metadata !DIExpression()), !dbg !779
; call core::fmt::Formatter::debug_lower_hex
  %_3 = call zeroext i1 @_ZN4core3fmt9Formatter15debug_lower_hex17h41ca6b16ba65727eE(ptr align 8 %f) #10, !dbg !780
  br i1 %_3, label %bb2, label %bb3, !dbg !780

bb3:                                              ; preds = %start
; call core::fmt::Formatter::debug_upper_hex
  %_5 = call zeroext i1 @_ZN4core3fmt9Formatter15debug_upper_hex17h1b93910475cacd94E(ptr align 8 %f) #10, !dbg !781
  br i1 %_5, label %bb5, label %bb6, !dbg !781

bb2:                                              ; preds = %start
; call core::fmt::num::<impl core::fmt::LowerHex for u32>::fmt
  %1 = call zeroext i1 @"_ZN4core3fmt3num53_$LT$impl$u20$core..fmt..LowerHex$u20$for$u20$u32$GT$3fmt17h87cb2e342e5141a4E"(ptr align 4 %self, ptr align 8 %f) #10, !dbg !782
  %2 = zext i1 %1 to i8, !dbg !782
  store i8 %2, ptr %0, align 1, !dbg !782
  br label %bb7, !dbg !782

bb7:                                              ; preds = %bb6, %bb5, %bb2
  %3 = load i8, ptr %0, align 1, !dbg !783, !range !242, !noundef !24
  %4 = trunc i8 %3 to i1, !dbg !783
  ret i1 %4, !dbg !783

bb6:                                              ; preds = %bb3
; call core::fmt::num::imp::<impl core::fmt::Display for u32>::fmt
  %5 = call zeroext i1 @"_ZN4core3fmt3num3imp52_$LT$impl$u20$core..fmt..Display$u20$for$u20$u32$GT$3fmt17h9c863612f56988d3E"(ptr align 4 %self, ptr align 8 %f) #10, !dbg !784
  %6 = zext i1 %5 to i8, !dbg !784
  store i8 %6, ptr %0, align 1, !dbg !784
  br label %bb7, !dbg !784

bb5:                                              ; preds = %bb3
; call core::fmt::num::<impl core::fmt::UpperHex for u32>::fmt
  %7 = call zeroext i1 @"_ZN4core3fmt3num53_$LT$impl$u20$core..fmt..UpperHex$u20$for$u20$u32$GT$3fmt17h2f2ab6e4739c3556E"(ptr align 4 %self, ptr align 8 %f) #10, !dbg !785
  %8 = zext i1 %7 to i8, !dbg !785
  store i8 %8, ptr %0, align 1, !dbg !785
  br label %bb7, !dbg !785
}

; core::fmt::num::<impl core::fmt::Debug for u64>::fmt
; Function Attrs: inlinehint noredzone nounwind
define internal zeroext i1 @"_ZN4core3fmt3num50_$LT$impl$u20$core..fmt..Debug$u20$for$u20$u64$GT$3fmt17h1603b60bba44f0f1E"(ptr align 8 %self, ptr align 8 %f) unnamed_addr #0 !dbg !786 {
start:
  %f.dbg.spill = alloca ptr, align 8
  %self.dbg.spill = alloca ptr, align 8
  %0 = alloca i8, align 1
  store ptr %self, ptr %self.dbg.spill, align 8
  call void @llvm.dbg.declare(metadata ptr %self.dbg.spill, metadata !791, metadata !DIExpression()), !dbg !793
  store ptr %f, ptr %f.dbg.spill, align 8
  call void @llvm.dbg.declare(metadata ptr %f.dbg.spill, metadata !792, metadata !DIExpression()), !dbg !794
; call core::fmt::Formatter::debug_lower_hex
  %_3 = call zeroext i1 @_ZN4core3fmt9Formatter15debug_lower_hex17h41ca6b16ba65727eE(ptr align 8 %f) #10, !dbg !795
  br i1 %_3, label %bb2, label %bb3, !dbg !795

bb3:                                              ; preds = %start
; call core::fmt::Formatter::debug_upper_hex
  %_5 = call zeroext i1 @_ZN4core3fmt9Formatter15debug_upper_hex17h1b93910475cacd94E(ptr align 8 %f) #10, !dbg !796
  br i1 %_5, label %bb5, label %bb6, !dbg !796

bb2:                                              ; preds = %start
; call core::fmt::num::<impl core::fmt::LowerHex for u64>::fmt
  %1 = call zeroext i1 @"_ZN4core3fmt3num53_$LT$impl$u20$core..fmt..LowerHex$u20$for$u20$u64$GT$3fmt17hceee1cc64e7ed24aE"(ptr align 8 %self, ptr align 8 %f) #10, !dbg !797
  %2 = zext i1 %1 to i8, !dbg !797
  store i8 %2, ptr %0, align 1, !dbg !797
  br label %bb7, !dbg !797

bb7:                                              ; preds = %bb6, %bb5, %bb2
  %3 = load i8, ptr %0, align 1, !dbg !798, !range !242, !noundef !24
  %4 = trunc i8 %3 to i1, !dbg !798
  ret i1 %4, !dbg !798

bb6:                                              ; preds = %bb3
; call core::fmt::num::imp::<impl core::fmt::Display for u64>::fmt
  %5 = call zeroext i1 @"_ZN4core3fmt3num3imp52_$LT$impl$u20$core..fmt..Display$u20$for$u20$u64$GT$3fmt17ha7e2c62b9562228dE"(ptr align 8 %self, ptr align 8 %f) #10, !dbg !799
  %6 = zext i1 %5 to i8, !dbg !799
  store i8 %6, ptr %0, align 1, !dbg !799
  br label %bb7, !dbg !799

bb5:                                              ; preds = %bb3
; call core::fmt::num::<impl core::fmt::UpperHex for u64>::fmt
  %7 = call zeroext i1 @"_ZN4core3fmt3num53_$LT$impl$u20$core..fmt..UpperHex$u20$for$u20$u64$GT$3fmt17h66713fc47818d59eE"(ptr align 8 %self, ptr align 8 %f) #10, !dbg !800
  %8 = zext i1 %7 to i8, !dbg !800
  store i8 %8, ptr %0, align 1, !dbg !800
  br label %bb7, !dbg !800
}

; core::fmt::builders::DebugList::entries
; Function Attrs: noredzone nounwind
define align 8 ptr @_ZN4core3fmt8builders9DebugList7entries17hf04f1b1141114cdfE(ptr align 8 %self, ptr %entries.0, ptr %entries.1) unnamed_addr #1 !dbg !801 {
start:
  %entries.dbg.spill = alloca { ptr, ptr }, align 8
  %self.dbg.spill = alloca ptr, align 8
  %entry = alloca ptr, align 8
  %_5 = alloca ptr, align 8
  %iter = alloca { ptr, ptr }, align 8
  store ptr %self, ptr %self.dbg.spill, align 8
  call void @llvm.dbg.declare(metadata ptr %self.dbg.spill, metadata !830, metadata !DIExpression()), !dbg !839
  %0 = getelementptr inbounds { ptr, ptr }, ptr %entries.dbg.spill, i32 0, i32 0
  store ptr %entries.0, ptr %0, align 8
  %1 = getelementptr inbounds { ptr, ptr }, ptr %entries.dbg.spill, i32 0, i32 1
  store ptr %entries.1, ptr %1, align 8
  call void @llvm.dbg.declare(metadata ptr %entries.dbg.spill, metadata !831, metadata !DIExpression()), !dbg !840
  call void @llvm.dbg.declare(metadata ptr %iter, metadata !832, metadata !DIExpression()), !dbg !841
  call void @llvm.dbg.declare(metadata ptr %entry, metadata !834, metadata !DIExpression()), !dbg !842
; call <I as core::iter::traits::collect::IntoIterator>::into_iter
  %2 = call { ptr, ptr } @"_ZN63_$LT$I$u20$as$u20$core..iter..traits..collect..IntoIterator$GT$9into_iter17h3761bf7223d13674E"(ptr %entries.0, ptr %entries.1) #10, !dbg !843
  %_3.0 = extractvalue { ptr, ptr } %2, 0, !dbg !843
  %_3.1 = extractvalue { ptr, ptr } %2, 1, !dbg !843
  %3 = getelementptr inbounds { ptr, ptr }, ptr %iter, i32 0, i32 0, !dbg !843
  store ptr %_3.0, ptr %3, align 8, !dbg !843
  %4 = getelementptr inbounds { ptr, ptr }, ptr %iter, i32 0, i32 1, !dbg !843
  store ptr %_3.1, ptr %4, align 8, !dbg !843
  br label %bb2, !dbg !844

bb2:                                              ; preds = %bb4, %start
; call <core::slice::iter::Iter<T> as core::iter::traits::iterator::Iterator>::next
  %5 = call align 8 ptr @"_ZN91_$LT$core..slice..iter..Iter$LT$T$GT$$u20$as$u20$core..iter..traits..iterator..Iterator$GT$4next17h87ad7e6cefe6e715E"(ptr align 8 %iter) #10, !dbg !841
  store ptr %5, ptr %_5, align 8, !dbg !841
  %6 = load ptr, ptr %_5, align 8, !dbg !841, !noundef !24
  %7 = ptrtoint ptr %6 to i64, !dbg !841
  %8 = icmp eq i64 %7, 0, !dbg !841
  %_7 = select i1 %8, i64 0, i64 1, !dbg !841
  %9 = icmp eq i64 %_7, 0, !dbg !841
  br i1 %9, label %bb6, label %bb4, !dbg !841

bb6:                                              ; preds = %bb2
  ret ptr %self, !dbg !845

bb4:                                              ; preds = %bb2
  %10 = load ptr, ptr %_5, align 8, !dbg !846, !nonnull !24, !align !510, !noundef !24
  store ptr %10, ptr %entry, align 8, !dbg !846
; call core::fmt::builders::DebugList::entry
  %_9 = call align 8 ptr @_ZN4core3fmt8builders9DebugList5entry17h7271bd8a3d508d11E(ptr align 8 %self, ptr align 1 %entry, ptr align 8 @vtable.1) #10, !dbg !847
  br label %bb2, !dbg !848

bb5:                                              ; No predecessors!
  unreachable, !dbg !841
}

; core::fmt::Arguments::new_v1_formatted
; Function Attrs: inlinehint noredzone nounwind
define internal void @_ZN4core3fmt9Arguments16new_v1_formatted17h96272abef9da8fc8E(ptr sret(%"core::fmt::Arguments<'_>") %0, ptr align 8 %pieces.0, i64 %pieces.1, ptr align 8 %args.0, i64 %args.1, ptr align 8 %fmt.0, i64 %fmt.1) unnamed_addr #0 !dbg !849 {
start:
  %_4.dbg.spill = alloca %"core::fmt::UnsafeArg", align 1
  %fmt.dbg.spill = alloca { ptr, i64 }, align 8
  %args.dbg.spill = alloca { ptr, i64 }, align 8
  %pieces.dbg.spill = alloca { ptr, i64 }, align 8
  %_5 = alloca { ptr, i64 }, align 8
  %_unsafe_arg.dbg.spill = alloca %"core::fmt::UnsafeArg", align 1
  call void @llvm.dbg.declare(metadata ptr %_unsafe_arg.dbg.spill, metadata !918, metadata !DIExpression()), !dbg !920
  %1 = getelementptr inbounds { ptr, i64 }, ptr %pieces.dbg.spill, i32 0, i32 0
  store ptr %pieces.0, ptr %1, align 8
  %2 = getelementptr inbounds { ptr, i64 }, ptr %pieces.dbg.spill, i32 0, i32 1
  store i64 %pieces.1, ptr %2, align 8
  call void @llvm.dbg.declare(metadata ptr %pieces.dbg.spill, metadata !915, metadata !DIExpression()), !dbg !921
  %3 = getelementptr inbounds { ptr, i64 }, ptr %args.dbg.spill, i32 0, i32 0
  store ptr %args.0, ptr %3, align 8
  %4 = getelementptr inbounds { ptr, i64 }, ptr %args.dbg.spill, i32 0, i32 1
  store i64 %args.1, ptr %4, align 8
  call void @llvm.dbg.declare(metadata ptr %args.dbg.spill, metadata !916, metadata !DIExpression()), !dbg !922
  %5 = getelementptr inbounds { ptr, i64 }, ptr %fmt.dbg.spill, i32 0, i32 0
  store ptr %fmt.0, ptr %5, align 8
  %6 = getelementptr inbounds { ptr, i64 }, ptr %fmt.dbg.spill, i32 0, i32 1
  store i64 %fmt.1, ptr %6, align 8
  call void @llvm.dbg.declare(metadata ptr %fmt.dbg.spill, metadata !917, metadata !DIExpression()), !dbg !923
  call void @llvm.dbg.declare(metadata ptr %_4.dbg.spill, metadata !919, metadata !DIExpression()), !dbg !920
  %7 = getelementptr inbounds { ptr, i64 }, ptr %_5, i32 0, i32 0, !dbg !924
  store ptr %fmt.0, ptr %7, align 8, !dbg !924
  %8 = getelementptr inbounds { ptr, i64 }, ptr %_5, i32 0, i32 1, !dbg !924
  store i64 %fmt.1, ptr %8, align 8, !dbg !924
  %9 = getelementptr inbounds %"core::fmt::Arguments<'_>", ptr %0, i32 0, i32 1, !dbg !925
  %10 = getelementptr inbounds { ptr, i64 }, ptr %9, i32 0, i32 0, !dbg !925
  store ptr %pieces.0, ptr %10, align 8, !dbg !925
  %11 = getelementptr inbounds { ptr, i64 }, ptr %9, i32 0, i32 1, !dbg !925
  store i64 %pieces.1, ptr %11, align 8, !dbg !925
  %12 = getelementptr inbounds { ptr, i64 }, ptr %_5, i32 0, i32 0, !dbg !925
  %13 = load ptr, ptr %12, align 8, !dbg !925, !align !510, !noundef !24
  %14 = getelementptr inbounds { ptr, i64 }, ptr %_5, i32 0, i32 1, !dbg !925
  %15 = load i64, ptr %14, align 8, !dbg !925
  %16 = getelementptr inbounds { ptr, i64 }, ptr %0, i32 0, i32 0, !dbg !925
  store ptr %13, ptr %16, align 8, !dbg !925
  %17 = getelementptr inbounds { ptr, i64 }, ptr %0, i32 0, i32 1, !dbg !925
  store i64 %15, ptr %17, align 8, !dbg !925
  %18 = getelementptr inbounds %"core::fmt::Arguments<'_>", ptr %0, i32 0, i32 2, !dbg !925
  %19 = getelementptr inbounds { ptr, i64 }, ptr %18, i32 0, i32 0, !dbg !925
  store ptr %args.0, ptr %19, align 8, !dbg !925
  %20 = getelementptr inbounds { ptr, i64 }, ptr %18, i32 0, i32 1, !dbg !925
  store i64 %args.1, ptr %20, align 8, !dbg !925
  ret void, !dbg !926
}

; core::fmt::Arguments::new_v1
; Function Attrs: inlinehint noredzone nounwind
define internal void @_ZN4core3fmt9Arguments6new_v117hc8c49b7ed491bfe8E(ptr sret(%"core::fmt::Arguments<'_>") %0, ptr align 8 %pieces.0, i64 %pieces.1, ptr align 8 %args.0, i64 %args.1) unnamed_addr #0 !dbg !927 {
start:
  %args.dbg.spill = alloca { ptr, i64 }, align 8
  %pieces.dbg.spill = alloca { ptr, i64 }, align 8
  %_15 = alloca { ptr, i64 }, align 8
  %_13 = alloca %"core::fmt::Arguments<'_>", align 8
  %_3 = alloca i8, align 1
  %1 = getelementptr inbounds { ptr, i64 }, ptr %pieces.dbg.spill, i32 0, i32 0
  store ptr %pieces.0, ptr %1, align 8
  %2 = getelementptr inbounds { ptr, i64 }, ptr %pieces.dbg.spill, i32 0, i32 1
  store i64 %pieces.1, ptr %2, align 8
  call void @llvm.dbg.declare(metadata ptr %pieces.dbg.spill, metadata !931, metadata !DIExpression()), !dbg !933
  %3 = getelementptr inbounds { ptr, i64 }, ptr %args.dbg.spill, i32 0, i32 0
  store ptr %args.0, ptr %3, align 8
  %4 = getelementptr inbounds { ptr, i64 }, ptr %args.dbg.spill, i32 0, i32 1
  store i64 %args.1, ptr %4, align 8
  call void @llvm.dbg.declare(metadata ptr %args.dbg.spill, metadata !932, metadata !DIExpression()), !dbg !934
  %_4 = icmp ult i64 %pieces.1, %args.1, !dbg !935
  br i1 %_4, label %bb1, label %bb2, !dbg !935

bb2:                                              ; preds = %start
  %5 = call { i64, i1 } @llvm.uadd.with.overflow.i64(i64 %args.1, i64 1), !dbg !936
  %_11.0 = extractvalue { i64, i1 } %5, 0, !dbg !936
  %_11.1 = extractvalue { i64, i1 } %5, 1, !dbg !936
  %6 = call i1 @llvm.expect.i1(i1 %_11.1, i1 false), !dbg !936
  br i1 %6, label %panic, label %bb4, !dbg !936

bb1:                                              ; preds = %start
  store i8 1, ptr %_3, align 1, !dbg !935
  br label %bb3, !dbg !935

bb3:                                              ; preds = %bb4, %bb1
  %7 = load i8, ptr %_3, align 1, !dbg !935, !range !242, !noundef !24
  %8 = trunc i8 %7 to i1, !dbg !935
  br i1 %8, label %bb5, label %bb7, !dbg !935

bb4:                                              ; preds = %bb2
  %_7 = icmp ugt i64 %pieces.1, %_11.0, !dbg !937
  %9 = zext i1 %_7 to i8, !dbg !935
  store i8 %9, ptr %_3, align 1, !dbg !935
  br label %bb3, !dbg !935

panic:                                            ; preds = %bb2
; call core::panicking::panic
  call void @_ZN4core9panicking5panic17h277234a6cd982fe5E(ptr align 1 @str.2, i64 28, ptr align 8 @alloc_bf47d7cf946e324312b7aba9afabb742) #11, !dbg !936
  unreachable, !dbg !936

bb7:                                              ; preds = %bb3
  store ptr null, ptr %_15, align 8, !dbg !938
  %10 = getelementptr inbounds %"core::fmt::Arguments<'_>", ptr %0, i32 0, i32 1, !dbg !939
  %11 = getelementptr inbounds { ptr, i64 }, ptr %10, i32 0, i32 0, !dbg !939
  store ptr %pieces.0, ptr %11, align 8, !dbg !939
  %12 = getelementptr inbounds { ptr, i64 }, ptr %10, i32 0, i32 1, !dbg !939
  store i64 %pieces.1, ptr %12, align 8, !dbg !939
  %13 = getelementptr inbounds { ptr, i64 }, ptr %_15, i32 0, i32 0, !dbg !939
  %14 = load ptr, ptr %13, align 8, !dbg !939, !align !510, !noundef !24
  %15 = getelementptr inbounds { ptr, i64 }, ptr %_15, i32 0, i32 1, !dbg !939
  %16 = load i64, ptr %15, align 8, !dbg !939
  %17 = getelementptr inbounds { ptr, i64 }, ptr %0, i32 0, i32 0, !dbg !939
  store ptr %14, ptr %17, align 8, !dbg !939
  %18 = getelementptr inbounds { ptr, i64 }, ptr %0, i32 0, i32 1, !dbg !939
  store i64 %16, ptr %18, align 8, !dbg !939
  %19 = getelementptr inbounds %"core::fmt::Arguments<'_>", ptr %0, i32 0, i32 2, !dbg !939
  %20 = getelementptr inbounds { ptr, i64 }, ptr %19, i32 0, i32 0, !dbg !939
  store ptr %args.0, ptr %20, align 8, !dbg !939
  %21 = getelementptr inbounds { ptr, i64 }, ptr %19, i32 0, i32 1, !dbg !939
  store i64 %args.1, ptr %21, align 8, !dbg !939
  ret void, !dbg !940

bb5:                                              ; preds = %bb3
; call core::fmt::Arguments::new_const
  call void @_ZN4core3fmt9Arguments9new_const17h7d88afe42d22638bE(ptr sret(%"core::fmt::Arguments<'_>") %_13, ptr align 8 @alloc_560206a49c61adca6f3f0639a12632eb, i64 1) #10, !dbg !941
; call core::panicking::panic_fmt
  call void @_ZN4core9panicking9panic_fmt17hcab56c0eeadf4812E(ptr %_13, ptr align 8 @alloc_0e0da1257467e00be4bc17cc4a166d8a) #11, !dbg !941
  unreachable, !dbg !941
}

; core::fmt::Arguments::new_const
; Function Attrs: inlinehint noredzone nounwind
define internal void @_ZN4core3fmt9Arguments9new_const17h7d88afe42d22638bE(ptr sret(%"core::fmt::Arguments<'_>") %0, ptr align 8 %pieces.0, i64 %pieces.1) unnamed_addr #0 !dbg !942 {
start:
  %pieces.dbg.spill = alloca { ptr, i64 }, align 8
  %_7 = alloca { ptr, i64 }, align 8
  %_5 = alloca %"core::fmt::Arguments<'_>", align 8
  %1 = getelementptr inbounds { ptr, i64 }, ptr %pieces.dbg.spill, i32 0, i32 0
  store ptr %pieces.0, ptr %1, align 8
  %2 = getelementptr inbounds { ptr, i64 }, ptr %pieces.dbg.spill, i32 0, i32 1
  store i64 %pieces.1, ptr %2, align 8
  call void @llvm.dbg.declare(metadata ptr %pieces.dbg.spill, metadata !946, metadata !DIExpression()), !dbg !947
  %_2 = icmp ugt i64 %pieces.1, 1, !dbg !948
  br i1 %_2, label %bb1, label %bb3, !dbg !948

bb3:                                              ; preds = %start
  store ptr null, ptr %_7, align 8, !dbg !949
  %3 = getelementptr inbounds %"core::fmt::Arguments<'_>", ptr %0, i32 0, i32 1, !dbg !950
  %4 = getelementptr inbounds { ptr, i64 }, ptr %3, i32 0, i32 0, !dbg !950
  store ptr %pieces.0, ptr %4, align 8, !dbg !950
  %5 = getelementptr inbounds { ptr, i64 }, ptr %3, i32 0, i32 1, !dbg !950
  store i64 %pieces.1, ptr %5, align 8, !dbg !950
  %6 = getelementptr inbounds { ptr, i64 }, ptr %_7, i32 0, i32 0, !dbg !950
  %7 = load ptr, ptr %6, align 8, !dbg !950, !align !510, !noundef !24
  %8 = getelementptr inbounds { ptr, i64 }, ptr %_7, i32 0, i32 1, !dbg !950
  %9 = load i64, ptr %8, align 8, !dbg !950
  %10 = getelementptr inbounds { ptr, i64 }, ptr %0, i32 0, i32 0, !dbg !950
  store ptr %7, ptr %10, align 8, !dbg !950
  %11 = getelementptr inbounds { ptr, i64 }, ptr %0, i32 0, i32 1, !dbg !950
  store i64 %9, ptr %11, align 8, !dbg !950
  %12 = getelementptr inbounds %"core::fmt::Arguments<'_>", ptr %0, i32 0, i32 2, !dbg !950
  %13 = getelementptr inbounds { ptr, i64 }, ptr %12, i32 0, i32 0, !dbg !950
  store ptr @alloc_513570631223a12912d85da2bec3b15a, ptr %13, align 8, !dbg !950
  %14 = getelementptr inbounds { ptr, i64 }, ptr %12, i32 0, i32 1, !dbg !950
  store i64 0, ptr %14, align 8, !dbg !950
  ret void, !dbg !951

bb1:                                              ; preds = %start
; call core::fmt::Arguments::new_const
  call void @_ZN4core3fmt9Arguments9new_const17h7d88afe42d22638bE(ptr sret(%"core::fmt::Arguments<'_>") %_5, ptr align 8 @alloc_560206a49c61adca6f3f0639a12632eb, i64 1) #10, !dbg !952
; call core::panicking::panic_fmt
  call void @_ZN4core9panicking9panic_fmt17hcab56c0eeadf4812E(ptr %_5, ptr align 8 @alloc_3565e73f34d7302748197a3f0bc50374) #11, !dbg !952
  unreachable, !dbg !952
}

; core::mem::swap_simple
; Function Attrs: inlinehint noredzone nounwind
define void @_ZN4core3mem11swap_simple17h3fac42cd55c798b3E(ptr align 8 %x, ptr align 8 %y) unnamed_addr #0 !dbg !953 {
start:
  %y.dbg.spill = alloca ptr, align 8
  %x.dbg.spill = alloca ptr, align 8
  %_12 = alloca %"core::mem::maybe_uninit::MaybeUninit<bootinfo::memory_map::MemoryRegion>", align 8
  %_9 = alloca %"core::mem::maybe_uninit::MaybeUninit<bootinfo::memory_map::MemoryRegion>", align 8
  %b = alloca %"core::mem::maybe_uninit::MaybeUninit<bootinfo::memory_map::MemoryRegion>", align 8
  %a = alloca %"core::mem::maybe_uninit::MaybeUninit<bootinfo::memory_map::MemoryRegion>", align 8
  store ptr %x, ptr %x.dbg.spill, align 8
  call void @llvm.dbg.declare(metadata ptr %x.dbg.spill, metadata !959, metadata !DIExpression()), !dbg !965
  store ptr %y, ptr %y.dbg.spill, align 8
  call void @llvm.dbg.declare(metadata ptr %y.dbg.spill, metadata !960, metadata !DIExpression()), !dbg !966
  call void @llvm.dbg.declare(metadata ptr %a, metadata !961, metadata !DIExpression()), !dbg !967
  call void @llvm.dbg.declare(metadata ptr %b, metadata !963, metadata !DIExpression()), !dbg !968
; call core::ptr::read
  call void @_ZN4core3ptr4read17h6e169d0229e0c3d6E(ptr sret(%"core::mem::maybe_uninit::MaybeUninit<bootinfo::memory_map::MemoryRegion>") %a, ptr %x) #10, !dbg !969
; call core::ptr::read
  call void @_ZN4core3ptr4read17h6e169d0229e0c3d6E(ptr sret(%"core::mem::maybe_uninit::MaybeUninit<bootinfo::memory_map::MemoryRegion>") %b, ptr %y) #10, !dbg !970
  call void @llvm.memcpy.p0.p0.i64(ptr align 8 %_9, ptr align 8 %b, i64 24, i1 false), !dbg !971
; call core::ptr::write
  call void @_ZN4core3ptr5write17hd3c3cfa0b3004d5dE(ptr %x, ptr %_9) #10, !dbg !972
  call void @llvm.memcpy.p0.p0.i64(ptr align 8 %_12, ptr align 8 %a, i64 24, i1 false), !dbg !973
; call core::ptr::write
  call void @_ZN4core3ptr5write17hd3c3cfa0b3004d5dE(ptr %y, ptr %_12) #10, !dbg !974
  ret void, !dbg !975
}

; core::mem::swap_simple
; Function Attrs: inlinehint noredzone nounwind
define void @_ZN4core3mem11swap_simple17h59cb8439350ba3caE(ptr align 8 %x, ptr align 8 %y) unnamed_addr #0 !dbg !976 {
start:
  %y.dbg.spill = alloca ptr, align 8
  %x.dbg.spill = alloca ptr, align 8
  %_12 = alloca %"bootinfo::memory_map::MemoryRegion", align 8
  %_9 = alloca %"bootinfo::memory_map::MemoryRegion", align 8
  %b = alloca %"bootinfo::memory_map::MemoryRegion", align 8
  %a = alloca %"bootinfo::memory_map::MemoryRegion", align 8
  store ptr %x, ptr %x.dbg.spill, align 8
  call void @llvm.dbg.declare(metadata ptr %x.dbg.spill, metadata !981, metadata !DIExpression()), !dbg !987
  store ptr %y, ptr %y.dbg.spill, align 8
  call void @llvm.dbg.declare(metadata ptr %y.dbg.spill, metadata !982, metadata !DIExpression()), !dbg !988
  call void @llvm.dbg.declare(metadata ptr %a, metadata !983, metadata !DIExpression()), !dbg !989
  call void @llvm.dbg.declare(metadata ptr %b, metadata !985, metadata !DIExpression()), !dbg !990
; call core::ptr::read
  call void @_ZN4core3ptr4read17h9bbf8b811484d8b8E(ptr sret(%"bootinfo::memory_map::MemoryRegion") %a, ptr %x) #10, !dbg !991
; call core::ptr::read
  call void @_ZN4core3ptr4read17h9bbf8b811484d8b8E(ptr sret(%"bootinfo::memory_map::MemoryRegion") %b, ptr %y) #10, !dbg !992
  call void @llvm.memcpy.p0.p0.i64(ptr align 8 %_9, ptr align 8 %b, i64 24, i1 false), !dbg !993
; call core::ptr::write
  call void @_ZN4core3ptr5write17h501899311e03ab4eE(ptr %x, ptr %_9) #10, !dbg !994
  call void @llvm.memcpy.p0.p0.i64(ptr align 8 %_12, ptr align 8 %a, i64 24, i1 false), !dbg !995
; call core::ptr::write
  call void @_ZN4core3ptr5write17h501899311e03ab4eE(ptr %y, ptr %_12) #10, !dbg !996
  ret void, !dbg !997
}

; core::mem::swap
; Function Attrs: inlinehint noredzone nounwind
define void @_ZN4core3mem4swap17h1e8e662fc708a4c7E(ptr align 8 %x, ptr align 8 %y) unnamed_addr #0 !dbg !998 {
start:
  %y.dbg.spill = alloca ptr, align 8
  %x.dbg.spill = alloca ptr, align 8
  store ptr %x, ptr %x.dbg.spill, align 8
  call void @llvm.dbg.declare(metadata ptr %x.dbg.spill, metadata !1000, metadata !DIExpression()), !dbg !1002
  store ptr %y, ptr %y.dbg.spill, align 8
  call void @llvm.dbg.declare(metadata ptr %y.dbg.spill, metadata !1001, metadata !DIExpression()), !dbg !1003
  %_7 = icmp eq i64 8, 0, !dbg !1004
  %0 = call i1 @llvm.expect.i1(i1 %_7, i1 false), !dbg !1004
  br i1 %0, label %panic, label %bb3, !dbg !1004

bb3:                                              ; preds = %start
  %_4 = udiv i64 24, 8, !dbg !1004
  %_3 = icmp ugt i64 %_4, 4, !dbg !1004
  br i1 %_3, label %bb4, label %bb5, !dbg !1004

panic:                                            ; preds = %start
; call core::panicking::panic
  call void @_ZN4core9panicking5panic17h277234a6cd982fe5E(ptr align 1 @str.3, i64 25, ptr align 8 @alloc_f5758da710ba897165288b0f4da8acb3) #11, !dbg !1004
  unreachable, !dbg !1004

bb5:                                              ; preds = %bb3
; call core::mem::swap_simple
  call void @_ZN4core3mem11swap_simple17h59cb8439350ba3caE(ptr align 8 %x, ptr align 8 %y) #10, !dbg !1005
  br label %bb6, !dbg !1005

bb4:                                              ; preds = %bb3
; call core::ptr::swap_nonoverlapping
  call void @_ZN4core3ptr19swap_nonoverlapping17h4d74a56b75fdc00bE(ptr %x, ptr %y, i64 1) #10, !dbg !1006
  br label %bb6, !dbg !1006

bb6:                                              ; preds = %bb5, %bb4
  ret void, !dbg !1007
}

; core::mem::forget
; Function Attrs: inlinehint noredzone nounwind
define void @_ZN4core3mem6forget17hf1997bd7a4ba0664E(ptr %t) unnamed_addr #0 !dbg !1008 {
start:
  %_2 = alloca %"core::mem::manually_drop::ManuallyDrop<bootinfo::memory_map::MemoryRegion>", align 8
  call void @llvm.dbg.declare(metadata ptr %t, metadata !1012, metadata !DIExpression()), !dbg !1013
  call void @llvm.dbg.declare(metadata ptr %t, metadata !1014, metadata !DIExpression()), !dbg !1020
  call void @llvm.memcpy.p0.p0.i64(ptr align 8 %_2, ptr align 8 %t, i64 24, i1 false), !dbg !1022
  ret void, !dbg !1023
}

; core::num::<impl usize>::checked_mul
; Function Attrs: inlinehint noredzone nounwind
define internal { i64, i64 } @"_ZN4core3num23_$LT$impl$u20$usize$GT$11checked_mul17h189dca2a0ce59f54E"(i64 %self, i64 %rhs) unnamed_addr #0 !dbg !1024 {
start:
  %b.dbg.spill.i = alloca i8, align 1
  %a.dbg.spill.i = alloca i64, align 8
  %rhs.dbg.spill.i = alloca i64, align 8
  %self.dbg.spill.i = alloca i64, align 8
  %0 = alloca { i64, i8 }, align 8
  %1 = alloca i8, align 1
  %b.dbg.spill = alloca i8, align 1
  %a.dbg.spill = alloca i64, align 8
  %rhs.dbg.spill = alloca i64, align 8
  %self.dbg.spill = alloca i64, align 8
  %2 = alloca { i64, i64 }, align 8
  store i64 %self, ptr %self.dbg.spill, align 8
  call void @llvm.dbg.declare(metadata ptr %self.dbg.spill, metadata !1031, metadata !DIExpression()), !dbg !1036
  store i64 %rhs, ptr %rhs.dbg.spill, align 8
  call void @llvm.dbg.declare(metadata ptr %rhs.dbg.spill, metadata !1032, metadata !DIExpression()), !dbg !1037
  store i64 %self, ptr %self.dbg.spill.i, align 8
  call void @llvm.dbg.declare(metadata ptr %self.dbg.spill.i, metadata !1038, metadata !DIExpression()), !dbg !1051
  store i64 %rhs, ptr %rhs.dbg.spill.i, align 8
  call void @llvm.dbg.declare(metadata ptr %rhs.dbg.spill.i, metadata !1047, metadata !DIExpression()), !dbg !1053
  %3 = call { i64, i1 } @llvm.umul.with.overflow.i64(i64 %self, i64 %rhs), !dbg !1054
  %_5.0.i = extractvalue { i64, i1 } %3, 0, !dbg !1054
  %_5.1.i = extractvalue { i64, i1 } %3, 1, !dbg !1054
  store i64 %_5.0.i, ptr %a.dbg.spill.i, align 8, !dbg !1055
  call void @llvm.dbg.declare(metadata ptr %a.dbg.spill.i, metadata !1048, metadata !DIExpression()), !dbg !1056
  %4 = zext i1 %_5.1.i to i8, !dbg !1057
  store i8 %4, ptr %b.dbg.spill.i, align 1, !dbg !1057
  call void @llvm.dbg.declare(metadata ptr %b.dbg.spill.i, metadata !1050, metadata !DIExpression()), !dbg !1058
  store i64 %_5.0.i, ptr %0, align 8, !dbg !1059
  %5 = getelementptr inbounds { i64, i8 }, ptr %0, i32 0, i32 1, !dbg !1059
  %6 = zext i1 %_5.1.i to i8, !dbg !1059
  store i8 %6, ptr %5, align 8, !dbg !1059
  %7 = load i64, ptr %0, align 8, !dbg !1060, !noundef !24
  %8 = getelementptr inbounds { i64, i8 }, ptr %0, i32 0, i32 1, !dbg !1060
  %9 = load i8, ptr %8, align 8, !dbg !1060, !range !242, !noundef !24
  %10 = trunc i8 %9 to i1, !dbg !1060
  %11 = zext i1 %10 to i8, !dbg !1060
  %12 = insertvalue { i64, i8 } poison, i64 %7, 0, !dbg !1060
  %13 = insertvalue { i64, i8 } %12, i8 %11, 1, !dbg !1060
  %_5.0 = extractvalue { i64, i8 } %13, 0, !dbg !1061
  %14 = extractvalue { i64, i8 } %13, 1, !dbg !1061
  %_5.1 = trunc i8 %14 to i1, !dbg !1061
  store i64 %_5.0, ptr %a.dbg.spill, align 8, !dbg !1062
  call void @llvm.dbg.declare(metadata ptr %a.dbg.spill, metadata !1033, metadata !DIExpression()), !dbg !1063
  %15 = zext i1 %_5.1 to i8, !dbg !1064
  store i8 %15, ptr %b.dbg.spill, align 1, !dbg !1064
  call void @llvm.dbg.declare(metadata ptr %b.dbg.spill, metadata !1035, metadata !DIExpression()), !dbg !1065
  %16 = call i1 @llvm.expect.i1(i1 %_5.1, i1 false), !dbg !1066
  %17 = zext i1 %16 to i8, !dbg !1066
  store i8 %17, ptr %1, align 1, !dbg !1066
  %18 = load i8, ptr %1, align 1, !dbg !1066, !range !242, !noundef !24
  %_6 = trunc i8 %18 to i1, !dbg !1066
  br i1 %_6, label %bb3, label %bb4, !dbg !1066

bb4:                                              ; preds = %start
  %19 = getelementptr inbounds { i64, i64 }, ptr %2, i32 0, i32 1, !dbg !1067
  store i64 %_5.0, ptr %19, align 8, !dbg !1067
  store i64 1, ptr %2, align 8, !dbg !1067
  br label %bb5, !dbg !1068

bb3:                                              ; preds = %start
  store i64 0, ptr %2, align 8, !dbg !1069
  br label %bb5, !dbg !1068

bb5:                                              ; preds = %bb4, %bb3
  %20 = getelementptr inbounds { i64, i64 }, ptr %2, i32 0, i32 0, !dbg !1070
  %21 = load i64, ptr %20, align 8, !dbg !1070, !range !1071, !noundef !24
  %22 = getelementptr inbounds { i64, i64 }, ptr %2, i32 0, i32 1, !dbg !1070
  %23 = load i64, ptr %22, align 8, !dbg !1070
  %24 = insertvalue { i64, i64 } poison, i64 %21, 0, !dbg !1070
  %25 = insertvalue { i64, i64 } %24, i64 %23, 1, !dbg !1070
  ret { i64, i64 } %25, !dbg !1070
}

; core::num::<impl usize>::next_power_of_two
; Function Attrs: inlinehint noredzone nounwind
define internal i64 @"_ZN4core3num23_$LT$impl$u20$usize$GT$17next_power_of_two17h6d38340da7fe9804E"(i64 %self) unnamed_addr #0 !dbg !1072 {
start:
  %self.dbg.spill = alloca i64, align 8
  store i64 %self, ptr %self.dbg.spill, align 8
  call void @llvm.dbg.declare(metadata ptr %self.dbg.spill, metadata !1076, metadata !DIExpression()), !dbg !1077
; call core::num::<impl usize>::one_less_than_next_power_of_two
  %_2 = call i64 @"_ZN4core3num23_$LT$impl$u20$usize$GT$31one_less_than_next_power_of_two17h3e370a0003229e16E"(i64 %self) #10, !dbg !1078
  %0 = call { i64, i1 } @llvm.uadd.with.overflow.i64(i64 %_2, i64 1), !dbg !1078
  %_3.0 = extractvalue { i64, i1 } %0, 0, !dbg !1078
  %_3.1 = extractvalue { i64, i1 } %0, 1, !dbg !1078
  %1 = call i1 @llvm.expect.i1(i1 %_3.1, i1 false), !dbg !1078
  br i1 %1, label %panic, label %bb2, !dbg !1078

bb2:                                              ; preds = %start
  ret i64 %_3.0, !dbg !1079

panic:                                            ; preds = %start
; call core::panicking::panic
  call void @_ZN4core9panicking5panic17h277234a6cd982fe5E(ptr align 1 @str.2, i64 28, ptr align 8 @alloc_82a295533409787c3e504fb0ce3831ff) #11, !dbg !1078
  unreachable, !dbg !1078
}

; core::num::<impl usize>::one_less_than_next_power_of_two
; Function Attrs: inlinehint noredzone nounwind
define internal i64 @"_ZN4core3num23_$LT$impl$u20$usize$GT$31one_less_than_next_power_of_two17h3e370a0003229e16E"(i64 %self) unnamed_addr #0 !dbg !1080 {
start:
  %z.dbg.spill = alloca i64, align 8
  %0 = alloca i64, align 8
  %p.dbg.spill = alloca i64, align 8
  %self.dbg.spill = alloca i64, align 8
  %1 = alloca i64, align 8
  store i64 %self, ptr %self.dbg.spill, align 8
  call void @llvm.dbg.declare(metadata ptr %self.dbg.spill, metadata !1082, metadata !DIExpression()), !dbg !1087
  %_2 = icmp ule i64 %self, 1, !dbg !1088
  br i1 %_2, label %bb1, label %bb2, !dbg !1088

bb2:                                              ; preds = %start
  %_4.0 = sub i64 %self, 1, !dbg !1089
  %_4.1 = icmp ult i64 %self, 1, !dbg !1089
  %2 = call i1 @llvm.expect.i1(i1 %_4.1, i1 false), !dbg !1089
  br i1 %2, label %panic, label %bb3, !dbg !1089

bb1:                                              ; preds = %start
  store i64 0, ptr %1, align 8, !dbg !1090
  br label %bb6, !dbg !1091

bb6:                                              ; preds = %bb5, %bb1
  %3 = load i64, ptr %1, align 8, !dbg !1091, !noundef !24
  ret i64 %3, !dbg !1091

bb3:                                              ; preds = %bb2
  store i64 %_4.0, ptr %p.dbg.spill, align 8, !dbg !1089
  call void @llvm.dbg.declare(metadata ptr %p.dbg.spill, metadata !1083, metadata !DIExpression()), !dbg !1092
  %4 = call i64 @llvm.ctlz.i64(i64 %_4.0, i1 true), !dbg !1093
  store i64 %4, ptr %0, align 8, !dbg !1093
  %z = load i64, ptr %0, align 8, !dbg !1093, !noundef !24
  store i64 %z, ptr %z.dbg.spill, align 8, !dbg !1093
  call void @llvm.dbg.declare(metadata ptr %z.dbg.spill, metadata !1085, metadata !DIExpression()), !dbg !1094
  %_7 = icmp ult i64 %z, 64, !dbg !1095
  %5 = call i1 @llvm.expect.i1(i1 %_7, i1 true), !dbg !1095
  br i1 %5, label %bb5, label %panic1, !dbg !1095

panic:                                            ; preds = %bb2
; call core::panicking::panic
  call void @_ZN4core9panicking5panic17h277234a6cd982fe5E(ptr align 1 @str.0, i64 33, ptr align 8 @alloc_82a295533409787c3e504fb0ce3831ff) #11, !dbg !1089
  unreachable, !dbg !1089

bb5:                                              ; preds = %bb3
  %6 = and i64 %z, 63, !dbg !1095
  %7 = lshr i64 -1, %6, !dbg !1095
  store i64 %7, ptr %1, align 8, !dbg !1095
  br label %bb6, !dbg !1091

panic1:                                           ; preds = %bb3
; call core::panicking::panic
  call void @_ZN4core9panicking5panic17h277234a6cd982fe5E(ptr align 1 @str.4, i64 36, ptr align 8 @alloc_82a295533409787c3e504fb0ce3831ff) #11, !dbg !1095
  unreachable, !dbg !1095
}

; core::ops::range::RangeInclusive<usize>::into_slice_range
; Function Attrs: inlinehint noredzone nounwind
define internal { i64, i64 } @"_ZN4core3ops5range27RangeInclusive$LT$usize$GT$16into_slice_range17h4384b7d931bb2e10E"(ptr %self) unnamed_addr #0 !dbg !1096 {
start:
  %exclusive_end.dbg.spill = alloca i64, align 8
  %start1 = alloca i64, align 8
  %0 = alloca { i64, i64 }, align 8
  call void @llvm.dbg.declare(metadata ptr %self, metadata !1101, metadata !DIExpression()), !dbg !1106
  call void @llvm.dbg.declare(metadata ptr %start1, metadata !1104, metadata !DIExpression()), !dbg !1107
  %1 = getelementptr inbounds %"core::ops::range::RangeInclusive<usize>", ptr %self, i32 0, i32 1, !dbg !1108
  %_3 = load i64, ptr %1, align 8, !dbg !1108, !noundef !24
  %2 = call { i64, i1 } @llvm.uadd.with.overflow.i64(i64 %_3, i64 1), !dbg !1108
  %_4.0 = extractvalue { i64, i1 } %2, 0, !dbg !1108
  %_4.1 = extractvalue { i64, i1 } %2, 1, !dbg !1108
  %3 = call i1 @llvm.expect.i1(i1 %_4.1, i1 false), !dbg !1108
  br i1 %3, label %panic, label %bb1, !dbg !1108

bb1:                                              ; preds = %start
  store i64 %_4.0, ptr %exclusive_end.dbg.spill, align 8, !dbg !1108
  call void @llvm.dbg.declare(metadata ptr %exclusive_end.dbg.spill, metadata !1102, metadata !DIExpression()), !dbg !1109
  %4 = getelementptr inbounds %"core::ops::range::RangeInclusive<usize>", ptr %self, i32 0, i32 2, !dbg !1110
  %5 = load i8, ptr %4, align 8, !dbg !1110, !range !242, !noundef !24
  %_6 = trunc i8 %5 to i1, !dbg !1110
  br i1 %_6, label %bb2, label %bb3, !dbg !1110

panic:                                            ; preds = %start
; call core::panicking::panic
  call void @_ZN4core9panicking5panic17h277234a6cd982fe5E(ptr align 1 @str.2, i64 28, ptr align 8 @alloc_50d1e257ccd56aaa3f8677a989ec63c7) #11, !dbg !1108
  unreachable, !dbg !1108

bb3:                                              ; preds = %bb1
  %6 = load i64, ptr %self, align 8, !dbg !1111, !noundef !24
  store i64 %6, ptr %start1, align 8, !dbg !1111
  br label %bb4, !dbg !1112

bb2:                                              ; preds = %bb1
  store i64 %_4.0, ptr %start1, align 8, !dbg !1113
  br label %bb4, !dbg !1112

bb4:                                              ; preds = %bb3, %bb2
  %_7 = load i64, ptr %start1, align 8, !dbg !1114, !noundef !24
  store i64 %_7, ptr %0, align 8, !dbg !1114
  %7 = getelementptr inbounds { i64, i64 }, ptr %0, i32 0, i32 1, !dbg !1114
  store i64 %_4.0, ptr %7, align 8, !dbg !1114
  %8 = getelementptr inbounds { i64, i64 }, ptr %0, i32 0, i32 0, !dbg !1115
  %9 = load i64, ptr %8, align 8, !dbg !1115, !noundef !24
  %10 = getelementptr inbounds { i64, i64 }, ptr %0, i32 0, i32 1, !dbg !1115
  %11 = load i64, ptr %10, align 8, !dbg !1115, !noundef !24
  %12 = insertvalue { i64, i64 } poison, i64 %9, 0, !dbg !1115
  %13 = insertvalue { i64, i64 } %12, i64 %11, 1, !dbg !1115
  ret { i64, i64 } %13, !dbg !1115
}

; core::ops::function::impls::<impl core::ops::function::FnMut<A> for &mut F>::call_mut
; Function Attrs: noredzone nounwind
define zeroext i1 @"_ZN4core3ops8function5impls79_$LT$impl$u20$core..ops..function..FnMut$LT$A$GT$$u20$for$u20$$RF$mut$u20$F$GT$8call_mut17hb784f0c5ee813df5E"(ptr align 8 %self, ptr align 8 %0, ptr align 8 %1) unnamed_addr #1 !dbg !1116 {
start:
  %self.dbg.spill = alloca ptr, align 8
  %args = alloca { ptr, ptr }, align 8
  store ptr %0, ptr %args, align 8
  %2 = getelementptr inbounds { ptr, ptr }, ptr %args, i32 0, i32 1
  store ptr %1, ptr %2, align 8
  store ptr %self, ptr %self.dbg.spill, align 8
  call void @llvm.dbg.declare(metadata ptr %self.dbg.spill, metadata !1135, metadata !DIExpression()), !dbg !1144
  call void @llvm.dbg.declare(metadata ptr %args, metadata !1136, metadata !DIExpression()), !dbg !1145
  %_3 = load ptr, ptr %self, align 8, !dbg !1146, !nonnull !24, !align !510, !noundef !24
  %3 = getelementptr inbounds { ptr, ptr }, ptr %args, i32 0, i32 0, !dbg !1146
  %4 = load ptr, ptr %3, align 8, !dbg !1146, !nonnull !24, !align !510, !noundef !24
  %5 = getelementptr inbounds { ptr, ptr }, ptr %args, i32 0, i32 1, !dbg !1146
  %6 = load ptr, ptr %5, align 8, !dbg !1146, !nonnull !24, !align !510, !noundef !24
; call core::slice::<impl [T]>::sort_unstable_by::{{closure}}
  %7 = call zeroext i1 @"_ZN4core5slice29_$LT$impl$u20$$u5b$T$u5d$$GT$16sort_unstable_by28_$u7b$$u7b$closure$u7d$$u7d$17h72c5253f3a69a3b3E"(ptr align 8 %_3, ptr align 8 %4, ptr align 8 %6) #10, !dbg !1146
  ret i1 %7, !dbg !1147
}

; core::ptr::drop_in_place<core::slice::sort::InsertionHole<bootloader::bootinfo::memory_map::MemoryRegion>>
; Function Attrs: noredzone nounwind
define void @"_ZN4core3ptr107drop_in_place$LT$core..slice..sort..InsertionHole$LT$bootloader..bootinfo..memory_map..MemoryRegion$GT$$GT$17hf11a1c24d41b52e3E"(ptr %_1) unnamed_addr #1 !dbg !1148 {
start:
  %_1.dbg.spill = alloca ptr, align 8
  store ptr %_1, ptr %_1.dbg.spill, align 8
  call void @llvm.dbg.declare(metadata ptr %_1.dbg.spill, metadata !1159, metadata !DIExpression()), !dbg !1162
; call <core::slice::sort::InsertionHole<T> as core::ops::drop::Drop>::drop
  call void @"_ZN83_$LT$core..slice..sort..InsertionHole$LT$T$GT$$u20$as$u20$core..ops..drop..Drop$GT$4drop17h459d39f427c87586E"(ptr align 8 %_1) #10, !dbg !1162
  ret void, !dbg !1162
}

; core::ptr::swap_nonoverlapping
; Function Attrs: inlinehint noredzone nounwind
define void @_ZN4core3ptr19swap_nonoverlapping17h4d74a56b75fdc00bE(ptr %x, ptr %y, i64 %count) unnamed_addr #0 !dbg !1163 {
start:
  %self.dbg.spill.i20 = alloca ptr, align 8
  %self.dbg.spill.i19 = alloca ptr, align 8
  %self.dbg.spill.i18 = alloca ptr, align 8
  %self.dbg.spill.i17 = alloca ptr, align 8
  %count.dbg.spill.i = alloca i64, align 8
  %y.dbg.spill.i = alloca ptr, align 8
  %x.dbg.spill.i = alloca ptr, align 8
  %_6.i = alloca i8, align 1
  %_5.i = alloca i8, align 1
  %0 = alloca i64, align 8
  %self.dbg.spill.i.i = alloca i64, align 8
  %self.dbg.spill.i = alloca i64, align 8
  %count.dbg.spill16 = alloca i64, align 8
  %y.dbg.spill13 = alloca ptr, align 8
  %x.dbg.spill11 = alloca ptr, align 8
  %count.dbg.spill8 = alloca i64, align 8
  %y.dbg.spill5 = alloca ptr, align 8
  %x.dbg.spill3 = alloca ptr, align 8
  %count.dbg.spill = alloca i64, align 8
  %y.dbg.spill = alloca ptr, align 8
  %x.dbg.spill = alloca ptr, align 8
  %_39 = alloca i8, align 1
  %_20 = alloca i8, align 1
  %_11 = alloca i8, align 1
  %_7 = alloca i8, align 1
  %_6 = alloca { ptr, ptr, i64 }, align 8
  store ptr %x, ptr %x.dbg.spill, align 8
  call void @llvm.dbg.declare(metadata ptr %x.dbg.spill, metadata !1167, metadata !DIExpression()), !dbg !1183
  store ptr %y, ptr %y.dbg.spill, align 8
  call void @llvm.dbg.declare(metadata ptr %y.dbg.spill, metadata !1168, metadata !DIExpression()), !dbg !1184
  store i64 %count, ptr %count.dbg.spill, align 8
  call void @llvm.dbg.declare(metadata ptr %count.dbg.spill, metadata !1169, metadata !DIExpression()), !dbg !1185
  br i1 true, label %bb1, label %bb2, !dbg !1186

bb2:                                              ; preds = %_ZN4core3ptr19swap_nonoverlapping7runtime17h5a0323559f393991E.exit, %start
  %_8 = icmp ule i64 8, 8, !dbg !1187
  br i1 %_8, label %bb4, label %bb3, !dbg !1187

bb1:                                              ; preds = %start
  store ptr %x, ptr %_6, align 8, !dbg !1186
  %1 = getelementptr inbounds { ptr, ptr, i64 }, ptr %_6, i32 0, i32 1, !dbg !1186
  store ptr %y, ptr %1, align 8, !dbg !1186
  %2 = getelementptr inbounds { ptr, ptr, i64 }, ptr %_6, i32 0, i32 2, !dbg !1186
  store i64 %count, ptr %2, align 8, !dbg !1186
  %3 = load ptr, ptr %_6, align 8, !dbg !1186, !noundef !24
  %4 = getelementptr inbounds { ptr, ptr, i64 }, ptr %_6, i32 0, i32 1, !dbg !1186
  %5 = load ptr, ptr %4, align 8, !dbg !1186, !noundef !24
  %6 = getelementptr inbounds { ptr, ptr, i64 }, ptr %_6, i32 0, i32 2, !dbg !1186
  %7 = load i64, ptr %6, align 8, !dbg !1186, !noundef !24
  store ptr %3, ptr %x.dbg.spill.i, align 8
  call void @llvm.dbg.declare(metadata ptr %x.dbg.spill.i, metadata !1188, metadata !DIExpression()), !dbg !1194
  store ptr %5, ptr %y.dbg.spill.i, align 8
  call void @llvm.dbg.declare(metadata ptr %y.dbg.spill.i, metadata !1192, metadata !DIExpression()), !dbg !1194
  store i64 %7, ptr %count.dbg.spill.i, align 8
  call void @llvm.dbg.declare(metadata ptr %count.dbg.spill.i, metadata !1193, metadata !DIExpression()), !dbg !1194
; call core::intrinsics::is_aligned_and_not_null
  %_7.i = call zeroext i1 @_ZN4core10intrinsics23is_aligned_and_not_null17hf4ba8c4511457810E(ptr %3) #10, !dbg !1196
  br i1 %_7.i, label %bb5.i, label %bb4.i, !dbg !1196

bb4.i:                                            ; preds = %bb1
  store i8 0, ptr %_6.i, align 1, !dbg !1196
  br label %bb6.i, !dbg !1196

bb5.i:                                            ; preds = %bb1
; call core::intrinsics::is_aligned_and_not_null
  %_9.i = call zeroext i1 @_ZN4core10intrinsics23is_aligned_and_not_null17hf4ba8c4511457810E(ptr %5) #10, !dbg !1198
  %8 = zext i1 %_9.i to i8, !dbg !1196
  store i8 %8, ptr %_6.i, align 1, !dbg !1196
  br label %bb6.i, !dbg !1196

bb6.i:                                            ; preds = %bb5.i, %bb4.i
  %9 = load i8, ptr %_6.i, align 1, !dbg !1196, !range !242, !noundef !24
  %10 = trunc i8 %9 to i1, !dbg !1196
  br i1 %10, label %bb2.i, label %bb1.i, !dbg !1196

bb1.i:                                            ; preds = %bb6.i
  store i8 0, ptr %_5.i, align 1, !dbg !1196
  br label %bb3.i, !dbg !1196

bb2.i:                                            ; preds = %bb6.i
; call core::intrinsics::is_nonoverlapping
  %_11.i = call zeroext i1 @_ZN4core10intrinsics17is_nonoverlapping17hde59f38a0bf7fb53E(ptr %3, ptr %5, i64 %7) #10, !dbg !1199
  %11 = zext i1 %_11.i to i8, !dbg !1196
  store i8 %11, ptr %_5.i, align 1, !dbg !1196
  br label %bb3.i, !dbg !1196

bb3.i:                                            ; preds = %bb2.i, %bb1.i
  %12 = load i8, ptr %_5.i, align 1, !dbg !1200, !range !242, !noundef !24
  %13 = trunc i8 %12 to i1, !dbg !1200
  %_4.i = xor i1 %13, true, !dbg !1200
  br i1 %_4.i, label %bb10.i, label %_ZN4core3ptr19swap_nonoverlapping7runtime17h5a0323559f393991E.exit, !dbg !1200

bb10.i:                                           ; preds = %bb3.i
; call core::panicking::panic_nounwind
  call void @_ZN4core9panicking14panic_nounwind17h4573e3544b1244f5E(ptr align 1 @alloc_546a48d82dbbd37bfd409d4513b73f46, i64 166) #11, !dbg !1201
  unreachable, !dbg !1201

_ZN4core3ptr19swap_nonoverlapping7runtime17h5a0323559f393991E.exit: ; preds = %bb3.i
  br label %bb2, !dbg !1186

bb3:                                              ; preds = %bb2
  store i8 0, ptr %_7, align 1, !dbg !1187
  br label %bb5, !dbg !1187

bb4:                                              ; preds = %bb2
  store i64 24, ptr %self.dbg.spill.i, align 8
  call void @llvm.dbg.declare(metadata ptr %self.dbg.spill.i, metadata !1202, metadata !DIExpression()), !dbg !1205
  store i64 24, ptr %self.dbg.spill.i.i, align 8
  call void @llvm.dbg.declare(metadata ptr %self.dbg.spill.i.i, metadata !1207, metadata !DIExpression()), !dbg !1212
  store i64 2, ptr %0, align 8, !dbg !1214
  %_2.i.i = load i64, ptr %0, align 8, !dbg !1214, !noundef !24
  %14 = trunc i64 %_2.i.i to i32, !dbg !1214
  %15 = icmp eq i32 %14, 1, !dbg !1215
  %_12 = xor i1 %15, true, !dbg !1216
  br i1 %_12, label %bb8, label %bb9, !dbg !1217

bb9:                                              ; preds = %bb4
  %16 = call { i64, i1 } @llvm.umul.with.overflow.i64(i64 8, i64 2), !dbg !1218
  %_19.0 = extractvalue { i64, i1 } %16, 0, !dbg !1218
  %_19.1 = extractvalue { i64, i1 } %16, 1, !dbg !1218
  %17 = call i1 @llvm.expect.i1(i1 %_19.1, i1 false), !dbg !1218
  br i1 %17, label %panic, label %bb15, !dbg !1218

bb8:                                              ; preds = %bb4
  store i8 1, ptr %_11, align 1, !dbg !1217
  br label %bb10, !dbg !1217

bb10:                                             ; preds = %bb15, %bb8
  %18 = load i8, ptr %_11, align 1, !dbg !1187, !range !242, !noundef !24
  %19 = trunc i8 %18 to i1, !dbg !1187
  %20 = zext i1 %19 to i8, !dbg !1187
  store i8 %20, ptr %_7, align 1, !dbg !1187
  br label %bb5, !dbg !1187

bb15:                                             ; preds = %bb9
  %_15 = icmp ugt i64 24, %_19.0, !dbg !1219
  %21 = zext i1 %_15 to i8, !dbg !1217
  store i8 %21, ptr %_11, align 1, !dbg !1217
  br label %bb10, !dbg !1217

panic:                                            ; preds = %bb9
; call core::panicking::panic
  call void @_ZN4core9panicking5panic17h277234a6cd982fe5E(ptr align 1 @str.5, i64 33, ptr align 8 @alloc_a8d2d57d37571df30f9c47ba3b3c586b) #11, !dbg !1218
  unreachable, !dbg !1218

bb5:                                              ; preds = %bb3, %bb10
  %22 = load i8, ptr %_7, align 1, !dbg !1187, !range !242, !noundef !24
  %23 = trunc i8 %22 to i1, !dbg !1187
  br i1 %23, label %bb16, label %bb48, !dbg !1187

bb48:                                             ; preds = %bb35, %bb5
; call core::ptr::swap_nonoverlapping_simple_untyped
  call void @_ZN4core3ptr34swap_nonoverlapping_simple_untyped17he6ae6a6b44528d63E(ptr %x, ptr %y, i64 %count) #10, !dbg !1220
  br label %bb49, !dbg !1220

bb16:                                             ; preds = %bb5
  %_21 = icmp uge i64 8, 8, !dbg !1221
  br i1 %_21, label %bb18, label %bb17, !dbg !1221

bb17:                                             ; preds = %bb16
  store i8 0, ptr %_20, align 1, !dbg !1221
  br label %bb19, !dbg !1221

bb18:                                             ; preds = %bb16
  %_28 = icmp eq i64 8, 0, !dbg !1221
  %24 = call i1 @llvm.expect.i1(i1 %_28, i1 false), !dbg !1221
  br i1 %24, label %panic1, label %bb24, !dbg !1221

bb24:                                             ; preds = %bb18
  %_25 = urem i64 24, 8, !dbg !1221
  %_24 = icmp eq i64 %_25, 0, !dbg !1221
  %25 = zext i1 %_24 to i8, !dbg !1221
  store i8 %25, ptr %_20, align 1, !dbg !1221
  br label %bb19, !dbg !1221

panic1:                                           ; preds = %bb18
; call core::panicking::panic
  call void @_ZN4core9panicking5panic17h277234a6cd982fe5E(ptr align 1 @str.6, i64 57, ptr align 8 @alloc_1c99eb2e2429202974a1788dce7f6920) #11, !dbg !1221
  unreachable, !dbg !1221

bb19:                                             ; preds = %bb17, %bb24
  %26 = load i8, ptr %_20, align 1, !dbg !1221, !range !242, !noundef !24
  %27 = trunc i8 %26 to i1, !dbg !1221
  br i1 %27, label %bb25, label %bb32, !dbg !1221

bb32:                                             ; preds = %bb19
  %_40 = icmp uge i64 8, 1, !dbg !1222
  br i1 %_40, label %bb34, label %bb33, !dbg !1222

bb25:                                             ; preds = %bb19
  store ptr %x, ptr %self.dbg.spill.i20, align 8
  call void @llvm.dbg.declare(metadata ptr %self.dbg.spill.i20, metadata !1223, metadata !DIExpression()), !dbg !1230
  store ptr %x, ptr %x.dbg.spill3, align 8, !dbg !1221
  call void @llvm.dbg.declare(metadata ptr %x.dbg.spill3, metadata !1170, metadata !DIExpression()), !dbg !1232
  store ptr %y, ptr %self.dbg.spill.i19, align 8
  call void @llvm.dbg.declare(metadata ptr %self.dbg.spill.i19, metadata !1223, metadata !DIExpression()), !dbg !1233
  store ptr %y, ptr %y.dbg.spill5, align 8, !dbg !1232
  call void @llvm.dbg.declare(metadata ptr %y.dbg.spill5, metadata !1172, metadata !DIExpression()), !dbg !1235
  %_35 = icmp eq i64 8, 0, !dbg !1235
  %28 = call i1 @llvm.expect.i1(i1 %_35, i1 false), !dbg !1235
  br i1 %28, label %panic6, label %bb30, !dbg !1235

bb30:                                             ; preds = %bb25
  %_32 = udiv i64 24, 8, !dbg !1235
  %29 = call { i64, i1 } @llvm.umul.with.overflow.i64(i64 %count, i64 %_32), !dbg !1235
  %_36.0 = extractvalue { i64, i1 } %29, 0, !dbg !1235
  %_36.1 = extractvalue { i64, i1 } %29, 1, !dbg !1235
  %30 = call i1 @llvm.expect.i1(i1 %_36.1, i1 false), !dbg !1235
  br i1 %30, label %panic7, label %bb31, !dbg !1235

panic6:                                           ; preds = %bb25
; call core::panicking::panic
  call void @_ZN4core9panicking5panic17h277234a6cd982fe5E(ptr align 1 @str.3, i64 25, ptr align 8 @alloc_1c99eb2e2429202974a1788dce7f6920) #11, !dbg !1235
  unreachable, !dbg !1235

bb31:                                             ; preds = %bb30
  store i64 %_36.0, ptr %count.dbg.spill8, align 8, !dbg !1235
  call void @llvm.dbg.declare(metadata ptr %count.dbg.spill8, metadata !1174, metadata !DIExpression()), !dbg !1236
; call core::ptr::swap_nonoverlapping_simple_untyped
  call void @_ZN4core3ptr34swap_nonoverlapping_simple_untyped17h2756a2f44b36c0c2E(ptr %x, ptr %y, i64 %_36.0) #10, !dbg !1236
  br label %bb49, !dbg !1236

panic7:                                           ; preds = %bb30
; call core::panicking::panic
  call void @_ZN4core9panicking5panic17h277234a6cd982fe5E(ptr align 1 @str.5, i64 33, ptr align 8 @alloc_1c99eb2e2429202974a1788dce7f6920) #11, !dbg !1235
  unreachable, !dbg !1235

bb49:                                             ; preds = %bb48, %bb47, %bb31
  ret void, !dbg !1237

bb33:                                             ; preds = %bb32
  store i8 0, ptr %_39, align 1, !dbg !1222
  br label %bb35, !dbg !1222

bb34:                                             ; preds = %bb32
  %_47 = icmp eq i64 1, 0, !dbg !1222
  %31 = call i1 @llvm.expect.i1(i1 %_47, i1 false), !dbg !1222
  br i1 %31, label %panic9, label %bb40, !dbg !1222

bb40:                                             ; preds = %bb34
  %_44 = urem i64 24, 1, !dbg !1222
  %_43 = icmp eq i64 %_44, 0, !dbg !1222
  %32 = zext i1 %_43 to i8, !dbg !1222
  store i8 %32, ptr %_39, align 1, !dbg !1222
  br label %bb35, !dbg !1222

panic9:                                           ; preds = %bb34
; call core::panicking::panic
  call void @_ZN4core9panicking5panic17h277234a6cd982fe5E(ptr align 1 @str.6, i64 57, ptr align 8 @alloc_aee30a4ba5cd6160a04cfc5ee6f29e2a) #11, !dbg !1222
  unreachable, !dbg !1222

bb35:                                             ; preds = %bb33, %bb40
  %33 = load i8, ptr %_39, align 1, !dbg !1222, !range !242, !noundef !24
  %34 = trunc i8 %33 to i1, !dbg !1222
  br i1 %34, label %bb41, label %bb48, !dbg !1222

bb41:                                             ; preds = %bb35
  store ptr %x, ptr %self.dbg.spill.i18, align 8
  call void @llvm.dbg.declare(metadata ptr %self.dbg.spill.i18, metadata !1238, metadata !DIExpression()), !dbg !1245
  store ptr %x, ptr %x.dbg.spill11, align 8, !dbg !1222
  call void @llvm.dbg.declare(metadata ptr %x.dbg.spill11, metadata !1176, metadata !DIExpression()), !dbg !1247
  store ptr %y, ptr %self.dbg.spill.i17, align 8
  call void @llvm.dbg.declare(metadata ptr %self.dbg.spill.i17, metadata !1238, metadata !DIExpression()), !dbg !1248
  store ptr %y, ptr %y.dbg.spill13, align 8, !dbg !1247
  call void @llvm.dbg.declare(metadata ptr %y.dbg.spill13, metadata !1179, metadata !DIExpression()), !dbg !1250
  %_54 = icmp eq i64 1, 0, !dbg !1250
  %35 = call i1 @llvm.expect.i1(i1 %_54, i1 false), !dbg !1250
  br i1 %35, label %panic14, label %bb46, !dbg !1250

bb46:                                             ; preds = %bb41
  %_51 = udiv i64 24, 1, !dbg !1250
  %36 = call { i64, i1 } @llvm.umul.with.overflow.i64(i64 %count, i64 %_51), !dbg !1250
  %_55.0 = extractvalue { i64, i1 } %36, 0, !dbg !1250
  %_55.1 = extractvalue { i64, i1 } %36, 1, !dbg !1250
  %37 = call i1 @llvm.expect.i1(i1 %_55.1, i1 false), !dbg !1250
  br i1 %37, label %panic15, label %bb47, !dbg !1250

panic14:                                          ; preds = %bb41
; call core::panicking::panic
  call void @_ZN4core9panicking5panic17h277234a6cd982fe5E(ptr align 1 @str.3, i64 25, ptr align 8 @alloc_aee30a4ba5cd6160a04cfc5ee6f29e2a) #11, !dbg !1250
  unreachable, !dbg !1250

bb47:                                             ; preds = %bb46
  store i64 %_55.0, ptr %count.dbg.spill16, align 8, !dbg !1250
  call void @llvm.dbg.declare(metadata ptr %count.dbg.spill16, metadata !1181, metadata !DIExpression()), !dbg !1251
; call core::ptr::swap_nonoverlapping_simple_untyped
  call void @_ZN4core3ptr34swap_nonoverlapping_simple_untyped17h97bc86d9d3c3b08bE(ptr %x, ptr %y, i64 %_55.0) #10, !dbg !1251
  br label %bb49, !dbg !1251

panic15:                                          ; preds = %bb46
; call core::panicking::panic
  call void @_ZN4core9panicking5panic17h277234a6cd982fe5E(ptr align 1 @str.5, i64 33, ptr align 8 @alloc_aee30a4ba5cd6160a04cfc5ee6f29e2a) #11, !dbg !1250
  unreachable, !dbg !1250
}

; core::ptr::slice_from_raw_parts
; Function Attrs: inlinehint noredzone nounwind
define { ptr, i64 } @_ZN4core3ptr20slice_from_raw_parts17hb93b12de4d910fe0E(ptr %data, i64 %len) unnamed_addr #0 !dbg !1252 {
start:
  %self.dbg.spill.i = alloca ptr, align 8
  %len.dbg.spill = alloca i64, align 8
  %data.dbg.spill = alloca ptr, align 8
  store ptr %data, ptr %data.dbg.spill, align 8
  call void @llvm.dbg.declare(metadata ptr %data.dbg.spill, metadata !1256, metadata !DIExpression()), !dbg !1258
  store i64 %len, ptr %len.dbg.spill, align 8
  call void @llvm.dbg.declare(metadata ptr %len.dbg.spill, metadata !1257, metadata !DIExpression()), !dbg !1259
  store ptr %data, ptr %self.dbg.spill.i, align 8
  call void @llvm.dbg.declare(metadata ptr %self.dbg.spill.i, metadata !555, metadata !DIExpression()), !dbg !1260
; call core::ptr::metadata::from_raw_parts
  %0 = call { ptr, i64 } @_ZN4core3ptr8metadata14from_raw_parts17h4596d8df27de8d45E(ptr %data, i64 %len) #10, !dbg !1262
  %1 = extractvalue { ptr, i64 } %0, 0, !dbg !1262
  %2 = extractvalue { ptr, i64 } %0, 1, !dbg !1262
  %3 = insertvalue { ptr, i64 } poison, ptr %1, 0, !dbg !1263
  %4 = insertvalue { ptr, i64 } %3, i64 %2, 1, !dbg !1263
  ret { ptr, i64 } %4, !dbg !1263
}

; core::ptr::drop_in_place<u32>
; Function Attrs: inlinehint noredzone nounwind
define internal void @"_ZN4core3ptr24drop_in_place$LT$u32$GT$17h208e4315a370da61E"(ptr %_1) unnamed_addr #0 !dbg !1264 {
start:
  %_1.dbg.spill = alloca ptr, align 8
  store ptr %_1, ptr %_1.dbg.spill, align 8
  call void @llvm.dbg.declare(metadata ptr %_1.dbg.spill, metadata !1269, metadata !DIExpression()), !dbg !1272
  ret void, !dbg !1272
}

; core::ptr::drop_in_place<u64>
; Function Attrs: inlinehint noredzone nounwind
define internal void @"_ZN4core3ptr24drop_in_place$LT$u64$GT$17hf7c86fa446e088a4E"(ptr %_1) unnamed_addr #0 !dbg !1273 {
start:
  %_1.dbg.spill = alloca ptr, align 8
  store ptr %_1, ptr %_1.dbg.spill, align 8
  call void @llvm.dbg.declare(metadata ptr %_1.dbg.spill, metadata !1278, metadata !DIExpression()), !dbg !1279
  ret void, !dbg !1279
}

; core::ptr::slice_from_raw_parts_mut
; Function Attrs: inlinehint noredzone nounwind
define { ptr, i64 } @_ZN4core3ptr24slice_from_raw_parts_mut17h72e5f39bb23cac74E(ptr %data, i64 %len) unnamed_addr #0 !dbg !1280 {
start:
  %self.dbg.spill.i = alloca ptr, align 8
  %len.dbg.spill = alloca i64, align 8
  %data.dbg.spill = alloca ptr, align 8
  store ptr %data, ptr %data.dbg.spill, align 8
  call void @llvm.dbg.declare(metadata ptr %data.dbg.spill, metadata !1284, metadata !DIExpression()), !dbg !1286
  store i64 %len, ptr %len.dbg.spill, align 8
  call void @llvm.dbg.declare(metadata ptr %len.dbg.spill, metadata !1285, metadata !DIExpression()), !dbg !1287
  store ptr %data, ptr %self.dbg.spill.i, align 8
  call void @llvm.dbg.declare(metadata ptr %self.dbg.spill.i, metadata !1288, metadata !DIExpression()), !dbg !1294
; call core::ptr::metadata::from_raw_parts_mut
  %0 = call { ptr, i64 } @_ZN4core3ptr8metadata18from_raw_parts_mut17hd44602cd73005437E(ptr %data, i64 %len) #10, !dbg !1296
  %1 = extractvalue { ptr, i64 } %0, 0, !dbg !1296
  %2 = extractvalue { ptr, i64 } %0, 1, !dbg !1296
  %3 = insertvalue { ptr, i64 } poison, ptr %1, 0, !dbg !1297
  %4 = insertvalue { ptr, i64 } %3, i64 %2, 1, !dbg !1297
  ret { ptr, i64 } %4, !dbg !1297
}

; core::ptr::drop_in_place<&u8>
; Function Attrs: inlinehint noredzone nounwind
define internal void @"_ZN4core3ptr27drop_in_place$LT$$RF$u8$GT$17h56648f426ae11b3dE"(ptr %_1) unnamed_addr #0 !dbg !1298 {
start:
  %_1.dbg.spill = alloca ptr, align 8
  store ptr %_1, ptr %_1.dbg.spill, align 8
  call void @llvm.dbg.declare(metadata ptr %_1.dbg.spill, metadata !1303, metadata !DIExpression()), !dbg !1306
  ret void, !dbg !1306
}

; core::ptr::drop_in_place<&u32>
; Function Attrs: inlinehint noredzone nounwind
define internal void @"_ZN4core3ptr28drop_in_place$LT$$RF$u32$GT$17hb29ede95f2e852e7E"(ptr %_1) unnamed_addr #0 !dbg !1307 {
start:
  %_1.dbg.spill = alloca ptr, align 8
  store ptr %_1, ptr %_1.dbg.spill, align 8
  call void @llvm.dbg.declare(metadata ptr %_1.dbg.spill, metadata !1312, metadata !DIExpression()), !dbg !1315
  ret void, !dbg !1315
}

; core::ptr::drop_in_place<&u64>
; Function Attrs: inlinehint noredzone nounwind
define internal void @"_ZN4core3ptr28drop_in_place$LT$$RF$u64$GT$17h063f7adf094db454E"(ptr %_1) unnamed_addr #0 !dbg !1316 {
start:
  %_1.dbg.spill = alloca ptr, align 8
  store ptr %_1, ptr %_1.dbg.spill, align 8
  call void @llvm.dbg.declare(metadata ptr %_1.dbg.spill, metadata !1321, metadata !DIExpression()), !dbg !1324
  ret void, !dbg !1324
}

; core::ptr::swap_nonoverlapping_simple_untyped
; Function Attrs: inlinehint noredzone nounwind
define void @_ZN4core3ptr34swap_nonoverlapping_simple_untyped17he6ae6a6b44528d63E(ptr %x, ptr %y, i64 %count) unnamed_addr #0 !dbg !1325 {
start:
  %0 = alloca ptr, align 8
  %count.dbg.spill.i13 = alloca i64, align 8
  %self.dbg.spill.i14 = alloca ptr, align 8
  %1 = alloca ptr, align 8
  %count.dbg.spill.i11 = alloca i64, align 8
  %self.dbg.spill.i12 = alloca ptr, align 8
  %self.dbg.spill.i10 = alloca ptr, align 8
  %self.dbg.spill.i9 = alloca ptr, align 8
  %count.dbg.spill.i7 = alloca i64, align 8
  %self.dbg.spill.i8 = alloca ptr, align 8
  %count.dbg.spill.i = alloca i64, align 8
  %self.dbg.spill.i = alloca ptr, align 8
  %y.dbg.spill6 = alloca ptr, align 8
  %x.dbg.spill5 = alloca ptr, align 8
  %y.dbg.spill4 = alloca ptr, align 8
  %x.dbg.spill2 = alloca ptr, align 8
  %count.dbg.spill = alloca i64, align 8
  %y.dbg.spill = alloca ptr, align 8
  %x.dbg.spill = alloca ptr, align 8
  %i = alloca i64, align 8
  store ptr %x, ptr %x.dbg.spill, align 8
  call void @llvm.dbg.declare(metadata ptr %x.dbg.spill, metadata !1327, metadata !DIExpression()), !dbg !1341
  store ptr %y, ptr %y.dbg.spill, align 8
  call void @llvm.dbg.declare(metadata ptr %y.dbg.spill, metadata !1328, metadata !DIExpression()), !dbg !1342
  store i64 %count, ptr %count.dbg.spill, align 8
  call void @llvm.dbg.declare(metadata ptr %count.dbg.spill, metadata !1329, metadata !DIExpression()), !dbg !1343
  call void @llvm.dbg.declare(metadata ptr %i, metadata !1335, metadata !DIExpression()), !dbg !1344
  store ptr %x, ptr %self.dbg.spill.i10, align 8
  call void @llvm.dbg.declare(metadata ptr %self.dbg.spill.i10, metadata !1345, metadata !DIExpression()), !dbg !1352
  store ptr %x, ptr %x.dbg.spill2, align 8, !dbg !1354
  call void @llvm.dbg.declare(metadata ptr %x.dbg.spill2, metadata !1330, metadata !DIExpression()), !dbg !1355
  store ptr %y, ptr %self.dbg.spill.i9, align 8
  call void @llvm.dbg.declare(metadata ptr %self.dbg.spill.i9, metadata !1345, metadata !DIExpression()), !dbg !1356
  store ptr %y, ptr %y.dbg.spill4, align 8, !dbg !1358
  call void @llvm.dbg.declare(metadata ptr %y.dbg.spill4, metadata !1333, metadata !DIExpression()), !dbg !1359
  store i64 0, ptr %i, align 8, !dbg !1360
  br label %bb3, !dbg !1361

bb3:                                              ; preds = %bb8, %start
  %_8 = load i64, ptr %i, align 8, !dbg !1362, !noundef !24
  %_7 = icmp ult i64 %_8, %count, !dbg !1362
  br i1 %_7, label %bb4, label %bb9, !dbg !1362

bb9:                                              ; preds = %bb3
  ret void, !dbg !1363

bb4:                                              ; preds = %bb3
  %_12 = load i64, ptr %i, align 8, !dbg !1364, !noundef !24
  store ptr %x, ptr %self.dbg.spill.i8, align 8
  call void @llvm.dbg.declare(metadata ptr %self.dbg.spill.i8, metadata !1365, metadata !DIExpression()), !dbg !1371
  store i64 %_12, ptr %count.dbg.spill.i7, align 8
  call void @llvm.dbg.declare(metadata ptr %count.dbg.spill.i7, metadata !1370, metadata !DIExpression()), !dbg !1373
  store ptr %x, ptr %self.dbg.spill.i12, align 8
  call void @llvm.dbg.declare(metadata ptr %self.dbg.spill.i12, metadata !1374, metadata !DIExpression()), !dbg !1380
  store i64 %_12, ptr %count.dbg.spill.i11, align 8
  call void @llvm.dbg.declare(metadata ptr %count.dbg.spill.i11, metadata !1379, metadata !DIExpression()), !dbg !1382
  %2 = getelementptr inbounds %"core::mem::maybe_uninit::MaybeUninit<bootinfo::memory_map::MemoryRegion>", ptr %x, i64 %_12, !dbg !1383
  store ptr %2, ptr %1, align 8, !dbg !1383
  %_3.i = load ptr, ptr %1, align 8, !dbg !1383, !noundef !24
  store ptr %_3.i, ptr %x.dbg.spill5, align 8, !dbg !1384
  call void @llvm.dbg.declare(metadata ptr %x.dbg.spill5, metadata !1337, metadata !DIExpression()), !dbg !1385
  %_16 = load i64, ptr %i, align 8, !dbg !1386, !noundef !24
  store ptr %y, ptr %self.dbg.spill.i, align 8
  call void @llvm.dbg.declare(metadata ptr %self.dbg.spill.i, metadata !1365, metadata !DIExpression()), !dbg !1387
  store i64 %_16, ptr %count.dbg.spill.i, align 8
  call void @llvm.dbg.declare(metadata ptr %count.dbg.spill.i, metadata !1370, metadata !DIExpression()), !dbg !1389
  store ptr %y, ptr %self.dbg.spill.i14, align 8
  call void @llvm.dbg.declare(metadata ptr %self.dbg.spill.i14, metadata !1374, metadata !DIExpression()), !dbg !1390
  store i64 %_16, ptr %count.dbg.spill.i13, align 8
  call void @llvm.dbg.declare(metadata ptr %count.dbg.spill.i13, metadata !1379, metadata !DIExpression()), !dbg !1392
  %3 = getelementptr inbounds %"core::mem::maybe_uninit::MaybeUninit<bootinfo::memory_map::MemoryRegion>", ptr %y, i64 %_16, !dbg !1393
  store ptr %3, ptr %0, align 8, !dbg !1393
  %_3.i15 = load ptr, ptr %0, align 8, !dbg !1393, !noundef !24
  store ptr %_3.i15, ptr %y.dbg.spill6, align 8, !dbg !1394
  call void @llvm.dbg.declare(metadata ptr %y.dbg.spill6, metadata !1339, metadata !DIExpression()), !dbg !1395
; call core::mem::swap_simple
  call void @_ZN4core3mem11swap_simple17h3fac42cd55c798b3E(ptr align 8 %_3.i, ptr align 8 %_3.i15) #10, !dbg !1396
  %4 = load i64, ptr %i, align 8, !dbg !1397, !noundef !24
  %5 = call { i64, i1 } @llvm.uadd.with.overflow.i64(i64 %4, i64 1), !dbg !1397
  %_18.0 = extractvalue { i64, i1 } %5, 0, !dbg !1397
  %_18.1 = extractvalue { i64, i1 } %5, 1, !dbg !1397
  %6 = call i1 @llvm.expect.i1(i1 %_18.1, i1 false), !dbg !1397
  br i1 %6, label %panic, label %bb8, !dbg !1397

bb8:                                              ; preds = %bb4
  store i64 %_18.0, ptr %i, align 8, !dbg !1397
  br label %bb3, !dbg !1361

panic:                                            ; preds = %bb4
; call core::panicking::panic
  call void @_ZN4core9panicking5panic17h277234a6cd982fe5E(ptr align 1 @str.2, i64 28, ptr align 8 @alloc_dbabcbd9c3313ee88be66af0b6b2af23) #11, !dbg !1397
  unreachable, !dbg !1397
}

; core::ptr::read
; Function Attrs: inlinehint noredzone nounwind
define void @_ZN4core3ptr4read17h6e169d0229e0c3d6E(ptr sret(%"core::mem::maybe_uninit::MaybeUninit<bootinfo::memory_map::MemoryRegion>") %0, ptr %src) unnamed_addr #0 !dbg !1398 {
start:
  %src.dbg.spill.i = alloca ptr, align 8
  %src.dbg.spill = alloca ptr, align 8
  %_4 = alloca ptr, align 8
  store ptr %src, ptr %src.dbg.spill, align 8
  call void @llvm.dbg.declare(metadata ptr %src.dbg.spill, metadata !1402, metadata !DIExpression()), !dbg !1403
  br i1 true, label %bb1, label %bb2, !dbg !1404

bb2:                                              ; preds = %_ZN4core3ptr4read7runtime17h8145d8f41345a3b0E.exit, %start
  call void @llvm.memcpy.p0.p0.i64(ptr align 8 %0, ptr align 8 %src, i64 24, i1 false), !dbg !1405
  ret void, !dbg !1406

bb1:                                              ; preds = %start
  store ptr %src, ptr %_4, align 8, !dbg !1404
  %1 = load ptr, ptr %_4, align 8, !dbg !1404, !noundef !24
  store ptr %1, ptr %src.dbg.spill.i, align 8
  call void @llvm.dbg.declare(metadata ptr %src.dbg.spill.i, metadata !1407, metadata !DIExpression()), !dbg !1413
; call core::intrinsics::is_aligned_and_not_null
  %_3.i = call zeroext i1 @_ZN4core10intrinsics23is_aligned_and_not_null17h7024e836f5e00bcaE(ptr %1) #10, !dbg !1415
  %_2.i = xor i1 %_3.i, true, !dbg !1417
  br i1 %_2.i, label %bb2.i, label %_ZN4core3ptr4read7runtime17h8145d8f41345a3b0E.exit, !dbg !1417

bb2.i:                                            ; preds = %bb1
; call core::panicking::panic_nounwind
  call void @_ZN4core9panicking14panic_nounwind17h4573e3544b1244f5E(ptr align 1 @alloc_981fd9513041e1603a1d1d7b668a749d, i64 101) #11, !dbg !1418
  unreachable, !dbg !1418

_ZN4core3ptr4read7runtime17h8145d8f41345a3b0E.exit: ; preds = %bb1
  br label %bb2, !dbg !1404
}

; core::ptr::read
; Function Attrs: inlinehint noredzone nounwind
define void @_ZN4core3ptr4read17h9bbf8b811484d8b8E(ptr sret(%"bootinfo::memory_map::MemoryRegion") %0, ptr %src) unnamed_addr #0 !dbg !1419 {
start:
  %src.dbg.spill.i = alloca ptr, align 8
  %src.dbg.spill = alloca ptr, align 8
  %_4 = alloca ptr, align 8
  store ptr %src, ptr %src.dbg.spill, align 8
  call void @llvm.dbg.declare(metadata ptr %src.dbg.spill, metadata !1423, metadata !DIExpression()), !dbg !1424
  br i1 true, label %bb1, label %bb2, !dbg !1425

bb2:                                              ; preds = %_ZN4core3ptr4read7runtime17hcc9c66b658ebb9a0E.exit, %start
  call void @llvm.memcpy.p0.p0.i64(ptr align 8 %0, ptr align 8 %src, i64 24, i1 false), !dbg !1426
  ret void, !dbg !1427

bb1:                                              ; preds = %start
  store ptr %src, ptr %_4, align 8, !dbg !1425
  %1 = load ptr, ptr %_4, align 8, !dbg !1425, !noundef !24
  store ptr %1, ptr %src.dbg.spill.i, align 8
  call void @llvm.dbg.declare(metadata ptr %src.dbg.spill.i, metadata !1428, metadata !DIExpression()), !dbg !1433
; call core::intrinsics::is_aligned_and_not_null
  %_3.i = call zeroext i1 @_ZN4core10intrinsics23is_aligned_and_not_null17hf4ba8c4511457810E(ptr %1) #10, !dbg !1435
  %_2.i = xor i1 %_3.i, true, !dbg !1437
  br i1 %_2.i, label %bb2.i, label %_ZN4core3ptr4read7runtime17hcc9c66b658ebb9a0E.exit, !dbg !1437

bb2.i:                                            ; preds = %bb1
; call core::panicking::panic_nounwind
  call void @_ZN4core9panicking14panic_nounwind17h4573e3544b1244f5E(ptr align 1 @alloc_981fd9513041e1603a1d1d7b668a749d, i64 101) #11, !dbg !1438
  unreachable, !dbg !1438

_ZN4core3ptr4read7runtime17hcc9c66b658ebb9a0E.exit: ; preds = %bb1
  br label %bb2, !dbg !1425
}

; core::ptr::swap
; Function Attrs: inlinehint noredzone nounwind
define void @_ZN4core3ptr4swap17h8b2f3774968ef06dE(ptr %x, ptr %y) unnamed_addr #0 !dbg !1439 {
start:
  %self.dbg.spill.i1 = alloca ptr, align 8
  %self.dbg.spill.i = alloca ptr, align 8
  %y.dbg.spill = alloca ptr, align 8
  %x.dbg.spill = alloca ptr, align 8
  %tmp = alloca %"core::mem::maybe_uninit::MaybeUninit<bootinfo::memory_map::MemoryRegion>", align 8
  store ptr %x, ptr %x.dbg.spill, align 8
  call void @llvm.dbg.declare(metadata ptr %x.dbg.spill, metadata !1443, metadata !DIExpression()), !dbg !1447
  store ptr %y, ptr %y.dbg.spill, align 8
  call void @llvm.dbg.declare(metadata ptr %y.dbg.spill, metadata !1444, metadata !DIExpression()), !dbg !1448
  call void @llvm.dbg.declare(metadata ptr %tmp, metadata !1445, metadata !DIExpression()), !dbg !1449
  store ptr %tmp, ptr %self.dbg.spill.i, align 8
  call void @llvm.dbg.declare(metadata ptr %self.dbg.spill.i, metadata !1450, metadata !DIExpression()), !dbg !1456
; call core::intrinsics::copy_nonoverlapping
  call void @_ZN4core10intrinsics19copy_nonoverlapping17h043830e124fcf1c8E(ptr %x, ptr %tmp, i64 1) #10, !dbg !1458
; call core::intrinsics::copy
  call void @_ZN4core10intrinsics4copy17hde30679fb0cb8f2eE(ptr %y, ptr %x, i64 1) #10, !dbg !1459
  store ptr %tmp, ptr %self.dbg.spill.i1, align 8
  call void @llvm.dbg.declare(metadata ptr %self.dbg.spill.i1, metadata !1460, metadata !DIExpression()), !dbg !1466
; call core::intrinsics::copy_nonoverlapping
  call void @_ZN4core10intrinsics19copy_nonoverlapping17h043830e124fcf1c8E(ptr %tmp, ptr %y, i64 1) #10, !dbg !1468
  ret void, !dbg !1469
}

; core::ptr::swap
; Function Attrs: inlinehint noredzone nounwind
define void @_ZN4core3ptr4swap17hbde6658a27455df3E(ptr %x, ptr %y) unnamed_addr #0 !dbg !1470 {
start:
  %0 = alloca i64, align 8
  %self.dbg.spill.i1 = alloca ptr, align 8
  %self.dbg.spill.i = alloca ptr, align 8
  %y.dbg.spill = alloca ptr, align 8
  %x.dbg.spill = alloca ptr, align 8
  %tmp = alloca i64, align 8
  store ptr %x, ptr %x.dbg.spill, align 8
  call void @llvm.dbg.declare(metadata ptr %x.dbg.spill, metadata !1474, metadata !DIExpression()), !dbg !1485
  store ptr %y, ptr %y.dbg.spill, align 8
  call void @llvm.dbg.declare(metadata ptr %y.dbg.spill, metadata !1475, metadata !DIExpression()), !dbg !1486
  call void @llvm.dbg.declare(metadata ptr %tmp, metadata !1476, metadata !DIExpression()), !dbg !1487
  %1 = load i64, ptr %0, align 8, !dbg !1488
  store i64 %1, ptr %tmp, align 8, !dbg !1493
  store ptr %tmp, ptr %self.dbg.spill.i, align 8
  call void @llvm.dbg.declare(metadata ptr %self.dbg.spill.i, metadata !1494, metadata !DIExpression()), !dbg !1500
; call core::intrinsics::copy_nonoverlapping
  call void @_ZN4core10intrinsics19copy_nonoverlapping17h3fc0a0a5354c2a60E(ptr %x, ptr %tmp, i64 1) #10, !dbg !1502
; call core::intrinsics::copy
  call void @_ZN4core10intrinsics4copy17h6835612ca7c29911E(ptr %y, ptr %x, i64 1) #10, !dbg !1503
  store ptr %tmp, ptr %self.dbg.spill.i1, align 8
  call void @llvm.dbg.declare(metadata ptr %self.dbg.spill.i1, metadata !1504, metadata !DIExpression()), !dbg !1510
; call core::intrinsics::copy_nonoverlapping
  call void @_ZN4core10intrinsics19copy_nonoverlapping17h3fc0a0a5354c2a60E(ptr %tmp, ptr %y, i64 1) #10, !dbg !1512
  ret void, !dbg !1513
}

; core::ptr::drop_in_place<bootloader::bootinfo::TlsTemplate>
; Function Attrs: inlinehint noredzone nounwind
define internal void @"_ZN4core3ptr54drop_in_place$LT$bootloader..bootinfo..TlsTemplate$GT$17ha0142110463679f0E"(ptr %_1) unnamed_addr #0 !dbg !1514 {
start:
  %_1.dbg.spill = alloca ptr, align 8
  store ptr %_1, ptr %_1.dbg.spill, align 8
  call void @llvm.dbg.declare(metadata ptr %_1.dbg.spill, metadata !1519, metadata !DIExpression()), !dbg !1522
  ret void, !dbg !1522
}

; core::ptr::write
; Function Attrs: inlinehint noredzone nounwind
define void @_ZN4core3ptr5write17h501899311e03ab4eE(ptr %dst, ptr %src) unnamed_addr #0 !dbg !1523 {
start:
  %dst.dbg.spill.i = alloca ptr, align 8
  %dst.dbg.spill = alloca ptr, align 8
  %_5 = alloca ptr, align 8
  store ptr %dst, ptr %dst.dbg.spill, align 8
  call void @llvm.dbg.declare(metadata ptr %dst.dbg.spill, metadata !1527, metadata !DIExpression()), !dbg !1529
  call void @llvm.dbg.declare(metadata ptr %src, metadata !1528, metadata !DIExpression()), !dbg !1530
  br i1 true, label %bb1, label %bb2, !dbg !1531

bb2:                                              ; preds = %_ZN4core3ptr5write7runtime17hc070da9edb9c4022E.exit, %start
  call void @llvm.memcpy.p0.p0.i64(ptr align 8 %dst, ptr align 8 %src, i64 24, i1 false), !dbg !1532
  ret void, !dbg !1533

bb1:                                              ; preds = %start
  store ptr %dst, ptr %_5, align 8, !dbg !1531
  %0 = load ptr, ptr %_5, align 8, !dbg !1531, !noundef !24
  store ptr %0, ptr %dst.dbg.spill.i, align 8
  call void @llvm.dbg.declare(metadata ptr %dst.dbg.spill.i, metadata !1534, metadata !DIExpression()), !dbg !1540
; call core::intrinsics::is_aligned_and_not_null
  %_3.i = call zeroext i1 @_ZN4core10intrinsics23is_aligned_and_not_null17hf4ba8c4511457810E(ptr %0) #10, !dbg !1542
  %_2.i = xor i1 %_3.i, true, !dbg !1544
  br i1 %_2.i, label %bb2.i, label %_ZN4core3ptr5write7runtime17hc070da9edb9c4022E.exit, !dbg !1544

bb2.i:                                            ; preds = %bb1
; call core::panicking::panic_nounwind
  call void @_ZN4core9panicking14panic_nounwind17h4573e3544b1244f5E(ptr align 1 @alloc_b7474065d782af00c4610bb4ef55210b, i64 102) #11, !dbg !1545
  unreachable, !dbg !1545

_ZN4core3ptr5write7runtime17hc070da9edb9c4022E.exit: ; preds = %bb1
  br label %bb2, !dbg !1531
}

; core::ptr::write
; Function Attrs: inlinehint noredzone nounwind
define void @_ZN4core3ptr5write17hd3c3cfa0b3004d5dE(ptr %dst, ptr %src) unnamed_addr #0 !dbg !1546 {
start:
  %dst.dbg.spill.i = alloca ptr, align 8
  %dst.dbg.spill = alloca ptr, align 8
  %_5 = alloca ptr, align 8
  store ptr %dst, ptr %dst.dbg.spill, align 8
  call void @llvm.dbg.declare(metadata ptr %dst.dbg.spill, metadata !1550, metadata !DIExpression()), !dbg !1552
  call void @llvm.dbg.declare(metadata ptr %src, metadata !1551, metadata !DIExpression()), !dbg !1553
  br i1 true, label %bb1, label %bb2, !dbg !1554

bb2:                                              ; preds = %_ZN4core3ptr5write7runtime17he7f4a72ad6c3c503E.exit, %start
  call void @llvm.memcpy.p0.p0.i64(ptr align 8 %dst, ptr align 8 %src, i64 24, i1 false), !dbg !1555
  ret void, !dbg !1556

bb1:                                              ; preds = %start
  store ptr %dst, ptr %_5, align 8, !dbg !1554
  %0 = load ptr, ptr %_5, align 8, !dbg !1554, !noundef !24
  store ptr %0, ptr %dst.dbg.spill.i, align 8
  call void @llvm.dbg.declare(metadata ptr %dst.dbg.spill.i, metadata !1557, metadata !DIExpression()), !dbg !1562
; call core::intrinsics::is_aligned_and_not_null
  %_3.i = call zeroext i1 @_ZN4core10intrinsics23is_aligned_and_not_null17h7024e836f5e00bcaE(ptr %0) #10, !dbg !1564
  %_2.i = xor i1 %_3.i, true, !dbg !1566
  br i1 %_2.i, label %bb2.i, label %_ZN4core3ptr5write7runtime17he7f4a72ad6c3c503E.exit, !dbg !1566

bb2.i:                                            ; preds = %bb1
; call core::panicking::panic_nounwind
  call void @_ZN4core9panicking14panic_nounwind17h4573e3544b1244f5E(ptr align 1 @alloc_b7474065d782af00c4610bb4ef55210b, i64 102) #11, !dbg !1567
  unreachable, !dbg !1567

_ZN4core3ptr5write7runtime17he7f4a72ad6c3c503E.exit: ; preds = %bb1
  br label %bb2, !dbg !1554
}

; core::ptr::drop_in_place<bootloader::bootinfo::memory_map::MemoryMap>
; Function Attrs: inlinehint noredzone nounwind
define internal void @"_ZN4core3ptr64drop_in_place$LT$bootloader..bootinfo..memory_map..MemoryMap$GT$17h9f8456f6721d4ab0E"(ptr %_1) unnamed_addr #0 !dbg !1568 {
start:
  %_1.dbg.spill = alloca ptr, align 8
  store ptr %_1, ptr %_1.dbg.spill, align 8
  call void @llvm.dbg.declare(metadata ptr %_1.dbg.spill, metadata !1573, metadata !DIExpression()), !dbg !1576
  ret void, !dbg !1576
}

; core::ptr::drop_in_place<bootloader::bootinfo::memory_map::FrameRange>
; Function Attrs: inlinehint noredzone nounwind
define internal void @"_ZN4core3ptr65drop_in_place$LT$bootloader..bootinfo..memory_map..FrameRange$GT$17hbe46a727592d2381E"(ptr %_1) unnamed_addr #0 !dbg !1577 {
start:
  %_1.dbg.spill = alloca ptr, align 8
  store ptr %_1, ptr %_1.dbg.spill, align 8
  call void @llvm.dbg.declare(metadata ptr %_1.dbg.spill, metadata !1582, metadata !DIExpression()), !dbg !1585
  ret void, !dbg !1585
}

; core::ptr::drop_in_place<&bootloader::bootinfo::memory_map::MemoryRegion>
; Function Attrs: inlinehint noredzone nounwind
define internal void @"_ZN4core3ptr71drop_in_place$LT$$RF$bootloader..bootinfo..memory_map..MemoryRegion$GT$17h749af3c141c3b648E"(ptr %_1) unnamed_addr #0 !dbg !1586 {
start:
  %_1.dbg.spill = alloca ptr, align 8
  store ptr %_1, ptr %_1.dbg.spill, align 8
  call void @llvm.dbg.declare(metadata ptr %_1.dbg.spill, metadata !1591, metadata !DIExpression()), !dbg !1592
  ret void, !dbg !1592
}

; core::ptr::drop_in_place<&bootloader::bootinfo::memory_map::MemoryRegionType>
; Function Attrs: inlinehint noredzone nounwind
define internal void @"_ZN4core3ptr75drop_in_place$LT$$RF$bootloader..bootinfo..memory_map..MemoryRegionType$GT$17h00bb43a2928ed5a5E"(ptr %_1) unnamed_addr #0 !dbg !1593 {
start:
  %_1.dbg.spill = alloca ptr, align 8
  store ptr %_1, ptr %_1.dbg.spill, align 8
  call void @llvm.dbg.declare(metadata ptr %_1.dbg.spill, metadata !1598, metadata !DIExpression()), !dbg !1601
  ret void, !dbg !1601
}

; core::ptr::mut_ptr::<impl *mut T>::is_null::runtime_impl
; Function Attrs: inlinehint noredzone nounwind
define internal zeroext i1 @"_ZN4core3ptr7mut_ptr31_$LT$impl$u20$$BP$mut$u20$T$GT$7is_null12runtime_impl17hb93bd9a3be733f0bE"(ptr %ptr) unnamed_addr #0 !dbg !1602 {
start:
  %self.dbg.spill.i1 = alloca ptr, align 8
  %self.dbg.spill.i = alloca ptr, align 8
  %ptr.dbg.spill = alloca ptr, align 8
  store ptr %ptr, ptr %ptr.dbg.spill, align 8
  call void @llvm.dbg.declare(metadata ptr %ptr.dbg.spill, metadata !1607, metadata !DIExpression()), !dbg !1608
  store ptr %ptr, ptr %self.dbg.spill.i, align 8
  call void @llvm.dbg.declare(metadata ptr %self.dbg.spill.i, metadata !1609, metadata !DIExpression()), !dbg !1616
  store ptr %ptr, ptr %self.dbg.spill.i1, align 8
  call void @llvm.dbg.declare(metadata ptr %self.dbg.spill.i1, metadata !1618, metadata !DIExpression()), !dbg !1624
  %0 = ptrtoint ptr %ptr to i64, !dbg !1626
  %1 = icmp eq i64 %0, 0, !dbg !1627
  ret i1 %1, !dbg !1628
}

; core::ptr::mut_ptr::<impl *mut T>::is_null
; Function Attrs: inlinehint noredzone nounwind
define zeroext i1 @"_ZN4core3ptr7mut_ptr31_$LT$impl$u20$$BP$mut$u20$T$GT$7is_null17hd185ac7ae47d39a4E"(ptr %self) unnamed_addr #0 !dbg !1629 {
start:
  %self.dbg.spill = alloca ptr, align 8
  %_2 = alloca ptr, align 8
  store ptr %self, ptr %self.dbg.spill, align 8
  call void @llvm.dbg.declare(metadata ptr %self.dbg.spill, metadata !1633, metadata !DIExpression()), !dbg !1634
  store ptr %self, ptr %_2, align 8, !dbg !1635
  %0 = load ptr, ptr %_2, align 8, !dbg !1636, !noundef !24
; call core::ptr::mut_ptr::<impl *mut T>::is_null::runtime_impl
  %1 = call zeroext i1 @"_ZN4core3ptr7mut_ptr31_$LT$impl$u20$$BP$mut$u20$T$GT$7is_null12runtime_impl17hb93bd9a3be733f0bE"(ptr %0) #10, !dbg !1636
  ret i1 %1, !dbg !1637
}

; core::ptr::metadata::from_raw_parts
; Function Attrs: inlinehint noredzone nounwind
define { ptr, i64 } @_ZN4core3ptr8metadata14from_raw_parts17h4596d8df27de8d45E(ptr %data_address, i64 %metadata) unnamed_addr #0 !dbg !1638 {
start:
  %metadata.dbg.spill = alloca i64, align 8
  %data_address.dbg.spill = alloca ptr, align 8
  %_4 = alloca { ptr, i64 }, align 8
  %_3 = alloca %"core::ptr::metadata::PtrRepr<[bootinfo::memory_map::MemoryRegion]>", align 8
  store ptr %data_address, ptr %data_address.dbg.spill, align 8
  call void @llvm.dbg.declare(metadata ptr %data_address.dbg.spill, metadata !1644, metadata !DIExpression()), !dbg !1646
  store i64 %metadata, ptr %metadata.dbg.spill, align 8
  call void @llvm.dbg.declare(metadata ptr %metadata.dbg.spill, metadata !1645, metadata !DIExpression()), !dbg !1647
  store ptr %data_address, ptr %_4, align 8, !dbg !1648
  %0 = getelementptr inbounds { ptr, i64 }, ptr %_4, i32 0, i32 1, !dbg !1648
  store i64 %metadata, ptr %0, align 8, !dbg !1648
  %1 = getelementptr inbounds { ptr, i64 }, ptr %_4, i32 0, i32 0, !dbg !1649
  %2 = load ptr, ptr %1, align 8, !dbg !1649, !noundef !24
  %3 = getelementptr inbounds { ptr, i64 }, ptr %_4, i32 0, i32 1, !dbg !1649
  %4 = load i64, ptr %3, align 8, !dbg !1649, !noundef !24
  %5 = getelementptr inbounds { ptr, i64 }, ptr %_3, i32 0, i32 0, !dbg !1649
  store ptr %2, ptr %5, align 8, !dbg !1649
  %6 = getelementptr inbounds { ptr, i64 }, ptr %_3, i32 0, i32 1, !dbg !1649
  store i64 %4, ptr %6, align 8, !dbg !1649
  %7 = getelementptr inbounds { ptr, i64 }, ptr %_3, i32 0, i32 0, !dbg !1649
  %8 = load ptr, ptr %7, align 8, !dbg !1649, !noundef !24
  %9 = getelementptr inbounds { ptr, i64 }, ptr %_3, i32 0, i32 1, !dbg !1649
  %10 = load i64, ptr %9, align 8, !dbg !1649, !noundef !24
  %11 = insertvalue { ptr, i64 } poison, ptr %8, 0, !dbg !1650
  %12 = insertvalue { ptr, i64 } %11, i64 %10, 1, !dbg !1650
  ret { ptr, i64 } %12, !dbg !1650
}

; core::ptr::metadata::from_raw_parts
; Function Attrs: inlinehint noredzone nounwind
define ptr @_ZN4core3ptr8metadata14from_raw_parts17h95a0ae0b76194160E(ptr %data_address) unnamed_addr #0 !dbg !1651 {
start:
  %metadata.dbg.spill = alloca {}, align 1
  %data_address.dbg.spill = alloca ptr, align 8
  %_4 = alloca %"core::ptr::metadata::PtrComponents<bootinfo::memory_map::MemoryRegion>", align 8
  %_3 = alloca %"core::ptr::metadata::PtrRepr<bootinfo::memory_map::MemoryRegion>", align 8
  store ptr %data_address, ptr %data_address.dbg.spill, align 8
  call void @llvm.dbg.declare(metadata ptr %data_address.dbg.spill, metadata !1655, metadata !DIExpression()), !dbg !1657
  call void @llvm.dbg.declare(metadata ptr %metadata.dbg.spill, metadata !1656, metadata !DIExpression()), !dbg !1658
  store ptr %data_address, ptr %_4, align 8, !dbg !1659
  call void @llvm.memcpy.p0.p0.i64(ptr align 8 %_3, ptr align 8 %_4, i64 8, i1 false), !dbg !1660
  %0 = load ptr, ptr %_3, align 8, !dbg !1660, !noundef !24
  ret ptr %0, !dbg !1661
}

; core::ptr::metadata::from_raw_parts_mut
; Function Attrs: inlinehint noredzone nounwind
define { ptr, i64 } @_ZN4core3ptr8metadata18from_raw_parts_mut17hd44602cd73005437E(ptr %data_address, i64 %metadata) unnamed_addr #0 !dbg !1662 {
start:
  %metadata.dbg.spill = alloca i64, align 8
  %data_address.dbg.spill = alloca ptr, align 8
  %_4 = alloca { ptr, i64 }, align 8
  %_3 = alloca %"core::ptr::metadata::PtrRepr<[bootinfo::memory_map::MemoryRegion]>", align 8
  store ptr %data_address, ptr %data_address.dbg.spill, align 8
  call void @llvm.dbg.declare(metadata ptr %data_address.dbg.spill, metadata !1666, metadata !DIExpression()), !dbg !1668
  store i64 %metadata, ptr %metadata.dbg.spill, align 8
  call void @llvm.dbg.declare(metadata ptr %metadata.dbg.spill, metadata !1667, metadata !DIExpression()), !dbg !1669
  store ptr %data_address, ptr %_4, align 8, !dbg !1670
  %0 = getelementptr inbounds { ptr, i64 }, ptr %_4, i32 0, i32 1, !dbg !1670
  store i64 %metadata, ptr %0, align 8, !dbg !1670
  %1 = getelementptr inbounds { ptr, i64 }, ptr %_4, i32 0, i32 0, !dbg !1671
  %2 = load ptr, ptr %1, align 8, !dbg !1671, !noundef !24
  %3 = getelementptr inbounds { ptr, i64 }, ptr %_4, i32 0, i32 1, !dbg !1671
  %4 = load i64, ptr %3, align 8, !dbg !1671, !noundef !24
  %5 = getelementptr inbounds { ptr, i64 }, ptr %_3, i32 0, i32 0, !dbg !1671
  store ptr %2, ptr %5, align 8, !dbg !1671
  %6 = getelementptr inbounds { ptr, i64 }, ptr %_3, i32 0, i32 1, !dbg !1671
  store i64 %4, ptr %6, align 8, !dbg !1671
  %7 = getelementptr inbounds { ptr, i64 }, ptr %_3, i32 0, i32 0, !dbg !1671
  %8 = load ptr, ptr %7, align 8, !dbg !1671, !noundef !24
  %9 = getelementptr inbounds { ptr, i64 }, ptr %_3, i32 0, i32 1, !dbg !1671
  %10 = load i64, ptr %9, align 8, !dbg !1671, !noundef !24
  %11 = insertvalue { ptr, i64 } poison, ptr %8, 0, !dbg !1672
  %12 = insertvalue { ptr, i64 } %11, i64 %10, 1, !dbg !1672
  ret { ptr, i64 } %12, !dbg !1672
}

; core::ptr::metadata::metadata
; Function Attrs: inlinehint noredzone nounwind
define i64 @_ZN4core3ptr8metadata8metadata17h4fc945275518d4ceE(ptr %ptr.0, i64 %ptr.1) unnamed_addr #0 !dbg !1673 {
start:
  %ptr.dbg.spill = alloca { ptr, i64 }, align 8
  %_2 = alloca %"core::ptr::metadata::PtrRepr<[bootinfo::memory_map::MemoryRegion]>", align 8
  %0 = getelementptr inbounds { ptr, i64 }, ptr %ptr.dbg.spill, i32 0, i32 0
  store ptr %ptr.0, ptr %0, align 8
  %1 = getelementptr inbounds { ptr, i64 }, ptr %ptr.dbg.spill, i32 0, i32 1
  store i64 %ptr.1, ptr %1, align 8
  call void @llvm.dbg.declare(metadata ptr %ptr.dbg.spill, metadata !1677, metadata !DIExpression()), !dbg !1678
  %2 = getelementptr inbounds { ptr, i64 }, ptr %_2, i32 0, i32 0, !dbg !1679
  store ptr %ptr.0, ptr %2, align 8, !dbg !1679
  %3 = getelementptr inbounds { ptr, i64 }, ptr %_2, i32 0, i32 1, !dbg !1679
  store i64 %ptr.1, ptr %3, align 8, !dbg !1679
  %4 = getelementptr inbounds { ptr, i64 }, ptr %_2, i32 0, i32 1, !dbg !1679
  %5 = load i64, ptr %4, align 8, !dbg !1679, !noundef !24
  ret i64 %5, !dbg !1680
}

; core::ptr::metadata::metadata
; Function Attrs: inlinehint noredzone nounwind
define void @_ZN4core3ptr8metadata8metadata17hfa119b9ee6b727ccE(ptr %ptr) unnamed_addr #0 !dbg !1681 {
start:
  %ptr.dbg.spill = alloca ptr, align 8
  %_2 = alloca %"core::ptr::metadata::PtrRepr<bootinfo::memory_map::MemoryRegion>", align 8
  store ptr %ptr, ptr %ptr.dbg.spill, align 8
  call void @llvm.dbg.declare(metadata ptr %ptr.dbg.spill, metadata !1683, metadata !DIExpression()), !dbg !1684
  store ptr %ptr, ptr %_2, align 8, !dbg !1685
  ret void, !dbg !1686
}

; core::ptr::non_null::NonNull<T>::new_unchecked
; Function Attrs: inlinehint noredzone nounwind
define ptr @"_ZN4core3ptr8non_null16NonNull$LT$T$GT$13new_unchecked17hd2f969f601200b1eE"(ptr %ptr) unnamed_addr #0 !dbg !1687 {
start:
  %ptr.dbg.spill.i = alloca ptr, align 8
  %ptr.dbg.spill = alloca ptr, align 8
  %_4 = alloca ptr, align 8
  %0 = alloca ptr, align 8
  store ptr %ptr, ptr %ptr.dbg.spill, align 8
  call void @llvm.dbg.declare(metadata ptr %ptr.dbg.spill, metadata !1692, metadata !DIExpression()), !dbg !1693
  br i1 true, label %bb1, label %bb2, !dbg !1694

bb2:                                              ; preds = %"_ZN4core3ptr8non_null16NonNull$LT$T$GT$13new_unchecked7runtime17hcc7620fd88e5ec69E.exit", %start
  store ptr %ptr, ptr %0, align 8, !dbg !1695
  %1 = load ptr, ptr %0, align 8, !dbg !1696, !nonnull !24, !noundef !24
  ret ptr %1, !dbg !1696

bb1:                                              ; preds = %start
  store ptr %ptr, ptr %_4, align 8, !dbg !1694
  %2 = load ptr, ptr %_4, align 8, !dbg !1694, !noundef !24
  store ptr %2, ptr %ptr.dbg.spill.i, align 8
  call void @llvm.dbg.declare(metadata ptr %ptr.dbg.spill.i, metadata !1697, metadata !DIExpression()), !dbg !1702
; call core::ptr::mut_ptr::<impl *mut T>::is_null
  %_4.i = call zeroext i1 @"_ZN4core3ptr7mut_ptr31_$LT$impl$u20$$BP$mut$u20$T$GT$7is_null17hd185ac7ae47d39a4E"(ptr %2) #10, !dbg !1704
  %_3.i = xor i1 %_4.i, true, !dbg !1706
  br i1 %_4.i, label %bb2.i, label %"_ZN4core3ptr8non_null16NonNull$LT$T$GT$13new_unchecked7runtime17hcc7620fd88e5ec69E.exit", !dbg !1707

bb2.i:                                            ; preds = %bb1
; call core::panicking::panic_nounwind
  call void @_ZN4core9panicking14panic_nounwind17h4573e3544b1244f5E(ptr align 1 @alloc_20b3d155afd5c58c42e598b7e6d186ef, i64 93) #11, !dbg !1708
  unreachable, !dbg !1708

"_ZN4core3ptr8non_null16NonNull$LT$T$GT$13new_unchecked7runtime17hcc7620fd88e5ec69E.exit": ; preds = %bb1
  br label %bb2, !dbg !1694
}

; core::ptr::const_ptr::<impl *const T>::is_aligned
; Function Attrs: inlinehint noredzone nounwind
define zeroext i1 @"_ZN4core3ptr9const_ptr33_$LT$impl$u20$$BP$const$u20$T$GT$10is_aligned17he1d57f4f8c65cbe0E"(ptr %self) unnamed_addr #0 !dbg !1709 {
start:
  %self.dbg.spill = alloca ptr, align 8
  store ptr %self, ptr %self.dbg.spill, align 8
  call void @llvm.dbg.declare(metadata ptr %self.dbg.spill, metadata !1711, metadata !DIExpression()), !dbg !1712
; call core::ptr::const_ptr::<impl *const T>::is_aligned_to
  %0 = call zeroext i1 @"_ZN4core3ptr9const_ptr33_$LT$impl$u20$$BP$const$u20$T$GT$13is_aligned_to17h13ed7b6c008c09c7E"(ptr %self, i64 8) #10, !dbg !1713
  ret i1 %0, !dbg !1714
}

; core::ptr::const_ptr::<impl *const T>::is_aligned
; Function Attrs: inlinehint noredzone nounwind
define zeroext i1 @"_ZN4core3ptr9const_ptr33_$LT$impl$u20$$BP$const$u20$T$GT$10is_aligned17he2efdc4959409220E"(ptr %self) unnamed_addr #0 !dbg !1715 {
start:
  %self.dbg.spill = alloca ptr, align 8
  store ptr %self, ptr %self.dbg.spill, align 8
  call void @llvm.dbg.declare(metadata ptr %self.dbg.spill, metadata !1717, metadata !DIExpression()), !dbg !1718
; call core::ptr::const_ptr::<impl *const T>::is_aligned_to
  %0 = call zeroext i1 @"_ZN4core3ptr9const_ptr33_$LT$impl$u20$$BP$const$u20$T$GT$13is_aligned_to17h9d0abe44a5b22755E"(ptr %self, i64 8) #10, !dbg !1719
  ret i1 %0, !dbg !1720
}

; core::ptr::const_ptr::<impl *const T>::is_aligned_to::runtime_impl
; Function Attrs: inlinehint noredzone nounwind
define internal zeroext i1 @"_ZN4core3ptr9const_ptr33_$LT$impl$u20$$BP$const$u20$T$GT$13is_aligned_to12runtime_impl17hd1e3d1ebab454cacE"(ptr %ptr, i64 %align) unnamed_addr #0 !dbg !1721 {
start:
  %self.dbg.spill.i1 = alloca ptr, align 8
  %self.dbg.spill.i = alloca ptr, align 8
  %align.dbg.spill = alloca i64, align 8
  %ptr.dbg.spill = alloca ptr, align 8
  store ptr %ptr, ptr %ptr.dbg.spill, align 8
  call void @llvm.dbg.declare(metadata ptr %ptr.dbg.spill, metadata !1726, metadata !DIExpression()), !dbg !1728
  store i64 %align, ptr %align.dbg.spill, align 8
  call void @llvm.dbg.declare(metadata ptr %align.dbg.spill, metadata !1727, metadata !DIExpression()), !dbg !1729
  store ptr %ptr, ptr %self.dbg.spill.i, align 8
  call void @llvm.dbg.declare(metadata ptr %self.dbg.spill.i, metadata !1730, metadata !DIExpression()), !dbg !1736
  store ptr %ptr, ptr %self.dbg.spill.i1, align 8
  call void @llvm.dbg.declare(metadata ptr %self.dbg.spill.i1, metadata !1738, metadata !DIExpression()), !dbg !1744
  %0 = ptrtoint ptr %ptr to i64, !dbg !1746
  %_6.0 = sub i64 %align, 1, !dbg !1747
  %_6.1 = icmp ult i64 %align, 1, !dbg !1747
  %1 = call i1 @llvm.expect.i1(i1 %_6.1, i1 false), !dbg !1747
  br i1 %1, label %panic, label %bb2, !dbg !1747

bb2:                                              ; preds = %start
  %_3 = and i64 %0, %_6.0, !dbg !1748
  %2 = icmp eq i64 %_3, 0, !dbg !1748
  ret i1 %2, !dbg !1749

panic:                                            ; preds = %start
; call core::panicking::panic
  call void @_ZN4core9panicking5panic17h277234a6cd982fe5E(ptr align 1 @str.0, i64 33, ptr align 8 @alloc_62bc2c890ddc30f006544617e59d1e71) #11, !dbg !1747
  unreachable, !dbg !1747
}

; core::ptr::const_ptr::<impl *const T>::is_aligned_to
; Function Attrs: inlinehint noredzone nounwind
define zeroext i1 @"_ZN4core3ptr9const_ptr33_$LT$impl$u20$$BP$const$u20$T$GT$13is_aligned_to17h13ed7b6c008c09c7E"(ptr %self, i64 %align) unnamed_addr #0 !dbg !1750 {
start:
  %self.dbg.spill.i1 = alloca ptr, align 8
  %0 = alloca i64, align 8
  %self.dbg.spill.i.i = alloca i64, align 8
  %self.dbg.spill.i = alloca i64, align 8
  %align.dbg.spill = alloca i64, align 8
  %self.dbg.spill = alloca ptr, align 8
  %_8 = alloca { ptr, i64 }, align 8
  %_6 = alloca %"core::fmt::Arguments<'_>", align 8
  store ptr %self, ptr %self.dbg.spill, align 8
  call void @llvm.dbg.declare(metadata ptr %self.dbg.spill, metadata !1754, metadata !DIExpression()), !dbg !1756
  store i64 %align, ptr %align.dbg.spill, align 8
  call void @llvm.dbg.declare(metadata ptr %align.dbg.spill, metadata !1755, metadata !DIExpression()), !dbg !1757
  store i64 %align, ptr %self.dbg.spill.i, align 8
  call void @llvm.dbg.declare(metadata ptr %self.dbg.spill.i, metadata !1202, metadata !DIExpression()), !dbg !1758
  store i64 %align, ptr %self.dbg.spill.i.i, align 8
  call void @llvm.dbg.declare(metadata ptr %self.dbg.spill.i.i, metadata !1207, metadata !DIExpression()), !dbg !1760
  %1 = call i64 @llvm.ctpop.i64(i64 %align), !dbg !1762
  store i64 %1, ptr %0, align 8, !dbg !1762
  %_2.i.i = load i64, ptr %0, align 8, !dbg !1762, !noundef !24
  %2 = trunc i64 %_2.i.i to i32, !dbg !1762
  %3 = icmp eq i32 %2, 1, !dbg !1763
  %_3 = xor i1 %3, true, !dbg !1764
  br i1 %_3, label %bb2, label %bb4, !dbg !1764

bb4:                                              ; preds = %start
  store ptr %self, ptr %self.dbg.spill.i1, align 8
  call void @llvm.dbg.declare(metadata ptr %self.dbg.spill.i1, metadata !1765, metadata !DIExpression()), !dbg !1771
  store ptr %self, ptr %_8, align 8, !dbg !1773
  %4 = getelementptr inbounds { ptr, i64 }, ptr %_8, i32 0, i32 1, !dbg !1773
  store i64 %align, ptr %4, align 8, !dbg !1773
  %5 = load ptr, ptr %_8, align 8, !dbg !1774, !noundef !24
  %6 = getelementptr inbounds { ptr, i64 }, ptr %_8, i32 0, i32 1, !dbg !1774
  %7 = load i64, ptr %6, align 8, !dbg !1774, !noundef !24
; call core::ptr::const_ptr::<impl *const T>::is_aligned_to::runtime_impl
  %8 = call zeroext i1 @"_ZN4core3ptr9const_ptr33_$LT$impl$u20$$BP$const$u20$T$GT$13is_aligned_to12runtime_impl17hd1e3d1ebab454cacE"(ptr %5, i64 %7) #10, !dbg !1774
  ret i1 %8, !dbg !1775

bb2:                                              ; preds = %start
; call core::fmt::Arguments::new_const
  call void @_ZN4core3fmt9Arguments9new_const17h7d88afe42d22638bE(ptr sret(%"core::fmt::Arguments<'_>") %_6, ptr align 8 @alloc_60ac762d06592b2ab3358175d7a7c295, i64 1) #10, !dbg !1776
; call core::panicking::panic_fmt
  call void @_ZN4core9panicking9panic_fmt17hcab56c0eeadf4812E(ptr %_6, ptr align 8 @alloc_96632254c3ae610e82e64a0469a9df2d) #11, !dbg !1776
  unreachable, !dbg !1776
}

; core::ptr::const_ptr::<impl *const T>::is_aligned_to
; Function Attrs: inlinehint noredzone nounwind
define zeroext i1 @"_ZN4core3ptr9const_ptr33_$LT$impl$u20$$BP$const$u20$T$GT$13is_aligned_to17h9d0abe44a5b22755E"(ptr %self, i64 %align) unnamed_addr #0 !dbg !1777 {
start:
  %self.dbg.spill.i1 = alloca ptr, align 8
  %0 = alloca i64, align 8
  %self.dbg.spill.i.i = alloca i64, align 8
  %self.dbg.spill.i = alloca i64, align 8
  %align.dbg.spill = alloca i64, align 8
  %self.dbg.spill = alloca ptr, align 8
  %_8 = alloca { ptr, i64 }, align 8
  %_6 = alloca %"core::fmt::Arguments<'_>", align 8
  store ptr %self, ptr %self.dbg.spill, align 8
  call void @llvm.dbg.declare(metadata ptr %self.dbg.spill, metadata !1781, metadata !DIExpression()), !dbg !1783
  store i64 %align, ptr %align.dbg.spill, align 8
  call void @llvm.dbg.declare(metadata ptr %align.dbg.spill, metadata !1782, metadata !DIExpression()), !dbg !1784
  store i64 %align, ptr %self.dbg.spill.i, align 8
  call void @llvm.dbg.declare(metadata ptr %self.dbg.spill.i, metadata !1202, metadata !DIExpression()), !dbg !1785
  store i64 %align, ptr %self.dbg.spill.i.i, align 8
  call void @llvm.dbg.declare(metadata ptr %self.dbg.spill.i.i, metadata !1207, metadata !DIExpression()), !dbg !1787
  %1 = call i64 @llvm.ctpop.i64(i64 %align), !dbg !1789
  store i64 %1, ptr %0, align 8, !dbg !1789
  %_2.i.i = load i64, ptr %0, align 8, !dbg !1789, !noundef !24
  %2 = trunc i64 %_2.i.i to i32, !dbg !1789
  %3 = icmp eq i32 %2, 1, !dbg !1790
  %_3 = xor i1 %3, true, !dbg !1791
  br i1 %_3, label %bb2, label %bb4, !dbg !1791

bb4:                                              ; preds = %start
  store ptr %self, ptr %self.dbg.spill.i1, align 8
  call void @llvm.dbg.declare(metadata ptr %self.dbg.spill.i1, metadata !555, metadata !DIExpression()), !dbg !1792
  store ptr %self, ptr %_8, align 8, !dbg !1794
  %4 = getelementptr inbounds { ptr, i64 }, ptr %_8, i32 0, i32 1, !dbg !1794
  store i64 %align, ptr %4, align 8, !dbg !1794
  %5 = load ptr, ptr %_8, align 8, !dbg !1795, !noundef !24
  %6 = getelementptr inbounds { ptr, i64 }, ptr %_8, i32 0, i32 1, !dbg !1795
  %7 = load i64, ptr %6, align 8, !dbg !1795, !noundef !24
; call core::ptr::const_ptr::<impl *const T>::is_aligned_to::runtime_impl
  %8 = call zeroext i1 @"_ZN4core3ptr9const_ptr33_$LT$impl$u20$$BP$const$u20$T$GT$13is_aligned_to12runtime_impl17hd1e3d1ebab454cacE"(ptr %5, i64 %7) #10, !dbg !1795
  ret i1 %8, !dbg !1796

bb2:                                              ; preds = %start
; call core::fmt::Arguments::new_const
  call void @_ZN4core3fmt9Arguments9new_const17h7d88afe42d22638bE(ptr sret(%"core::fmt::Arguments<'_>") %_6, ptr align 8 @alloc_60ac762d06592b2ab3358175d7a7c295, i64 1) #10, !dbg !1797
; call core::panicking::panic_fmt
  call void @_ZN4core9panicking9panic_fmt17hcab56c0eeadf4812E(ptr %_6, ptr align 8 @alloc_96632254c3ae610e82e64a0469a9df2d) #11, !dbg !1797
  unreachable, !dbg !1797
}

; core::ptr::const_ptr::<impl *const T>::with_metadata_of
; Function Attrs: inlinehint noredzone nounwind
define ptr @"_ZN4core3ptr9const_ptr33_$LT$impl$u20$$BP$const$u20$T$GT$16with_metadata_of17h67b5cbd678b7f6cfE"(ptr %self, ptr %meta) unnamed_addr #0 !dbg !1798 {
start:
  %meta.dbg.spill = alloca ptr, align 8
  %self.dbg.spill = alloca ptr, align 8
  store ptr %self, ptr %self.dbg.spill, align 8
  call void @llvm.dbg.declare(metadata ptr %self.dbg.spill, metadata !1803, metadata !DIExpression()), !dbg !1807
  store ptr %meta, ptr %meta.dbg.spill, align 8
  call void @llvm.dbg.declare(metadata ptr %meta.dbg.spill, metadata !1804, metadata !DIExpression()), !dbg !1808
; call core::ptr::metadata::metadata
  call void @_ZN4core3ptr8metadata8metadata17hfa119b9ee6b727ccE(ptr %meta) #10, !dbg !1809
; call core::ptr::metadata::from_raw_parts
  %0 = call ptr @_ZN4core3ptr8metadata14from_raw_parts17h95a0ae0b76194160E(ptr %self) #10, !dbg !1810
  ret ptr %0, !dbg !1811
}

; core::ptr::const_ptr::<impl *const T>::is_null::runtime_impl
; Function Attrs: inlinehint noredzone nounwind
define internal zeroext i1 @"_ZN4core3ptr9const_ptr33_$LT$impl$u20$$BP$const$u20$T$GT$7is_null12runtime_impl17hfdbe35ac5afddf51E"(ptr %ptr) unnamed_addr #0 !dbg !1812 {
start:
  %self.dbg.spill.i1 = alloca ptr, align 8
  %self.dbg.spill.i = alloca ptr, align 8
  %ptr.dbg.spill = alloca ptr, align 8
  store ptr %ptr, ptr %ptr.dbg.spill, align 8
  call void @llvm.dbg.declare(metadata ptr %ptr.dbg.spill, metadata !1817, metadata !DIExpression()), !dbg !1818
  store ptr %ptr, ptr %self.dbg.spill.i, align 8
  call void @llvm.dbg.declare(metadata ptr %self.dbg.spill.i, metadata !1819, metadata !DIExpression()), !dbg !1824
  store ptr %ptr, ptr %self.dbg.spill.i1, align 8
  call void @llvm.dbg.declare(metadata ptr %self.dbg.spill.i1, metadata !1826, metadata !DIExpression()), !dbg !1831
  %0 = ptrtoint ptr %ptr to i64, !dbg !1833
  %1 = icmp eq i64 %0, 0, !dbg !1834
  ret i1 %1, !dbg !1835
}

; core::ptr::const_ptr::<impl *const T>::is_null
; Function Attrs: inlinehint noredzone nounwind
define zeroext i1 @"_ZN4core3ptr9const_ptr33_$LT$impl$u20$$BP$const$u20$T$GT$7is_null17hf52a54f7e512b4a6E"(ptr %self) unnamed_addr #0 !dbg !1836 {
start:
  %self.dbg.spill = alloca ptr, align 8
  %_2 = alloca ptr, align 8
  store ptr %self, ptr %self.dbg.spill, align 8
  call void @llvm.dbg.declare(metadata ptr %self.dbg.spill, metadata !1838, metadata !DIExpression()), !dbg !1839
  store ptr %self, ptr %_2, align 8, !dbg !1840
  %0 = load ptr, ptr %_2, align 8, !dbg !1841, !noundef !24
; call core::ptr::const_ptr::<impl *const T>::is_null::runtime_impl
  %1 = call zeroext i1 @"_ZN4core3ptr9const_ptr33_$LT$impl$u20$$BP$const$u20$T$GT$7is_null12runtime_impl17hfdbe35ac5afddf51E"(ptr %0) #10, !dbg !1841
  ret i1 %1, !dbg !1842
}

; core::ptr::const_ptr::<impl *const T>::is_null
; Function Attrs: inlinehint noredzone nounwind
define zeroext i1 @"_ZN4core3ptr9const_ptr33_$LT$impl$u20$$BP$const$u20$T$GT$7is_null17hfc824951da861796E"(ptr %self) unnamed_addr #0 !dbg !1843 {
start:
  %self.dbg.spill = alloca ptr, align 8
  %_2 = alloca ptr, align 8
  store ptr %self, ptr %self.dbg.spill, align 8
  call void @llvm.dbg.declare(metadata ptr %self.dbg.spill, metadata !1845, metadata !DIExpression()), !dbg !1846
  store ptr %self, ptr %_2, align 8, !dbg !1847
  %0 = load ptr, ptr %_2, align 8, !dbg !1848, !noundef !24
; call core::ptr::const_ptr::<impl *const T>::is_null::runtime_impl
  %1 = call zeroext i1 @"_ZN4core3ptr9const_ptr33_$LT$impl$u20$$BP$const$u20$T$GT$7is_null12runtime_impl17hfdbe35ac5afddf51E"(ptr %0) #10, !dbg !1848
  ret i1 %1, !dbg !1849
}

; core::ptr::const_ptr::<impl *const T>::sub_ptr
; Function Attrs: inlinehint noredzone nounwind
define i64 @"_ZN4core3ptr9const_ptr33_$LT$impl$u20$$BP$const$u20$T$GT$7sub_ptr17h292edb86da6528a0E"(ptr %self, ptr %origin) unnamed_addr #0 !dbg !1850 {
start:
  %origin.dbg.spill.i = alloca ptr, align 8
  %this.dbg.spill.i = alloca ptr, align 8
  %0 = alloca i64, align 8
  %pointee_size.dbg.spill = alloca i64, align 8
  %origin.dbg.spill = alloca ptr, align 8
  %self.dbg.spill = alloca ptr, align 8
  %_8 = alloca i8, align 1
  %_5 = alloca { ptr, ptr }, align 8
  store ptr %self, ptr %self.dbg.spill, align 8
  call void @llvm.dbg.declare(metadata ptr %self.dbg.spill, metadata !1854, metadata !DIExpression()), !dbg !1860
  call void @llvm.dbg.declare(metadata ptr %self.dbg.spill, metadata !1856, metadata !DIExpression()), !dbg !1861
  store ptr %origin, ptr %origin.dbg.spill, align 8
  call void @llvm.dbg.declare(metadata ptr %origin.dbg.spill, metadata !1855, metadata !DIExpression()), !dbg !1862
  br i1 true, label %bb1, label %bb2, !dbg !1863

bb2:                                              ; preds = %"_ZN4core3ptr9const_ptr33_$LT$impl$u20$$BP$const$u20$T$GT$7sub_ptr7runtime17hbc68420aebd61bbfE.exit", %start
  store i64 24, ptr %pointee_size.dbg.spill, align 8, !dbg !1864
  call void @llvm.dbg.declare(metadata ptr %pointee_size.dbg.spill, metadata !1858, metadata !DIExpression()), !dbg !1865
  %_9 = icmp ult i64 0, 24, !dbg !1866
  br i1 %_9, label %bb5, label %bb4, !dbg !1866

bb1:                                              ; preds = %start
  store ptr %self, ptr %_5, align 8, !dbg !1863
  %1 = getelementptr inbounds { ptr, ptr }, ptr %_5, i32 0, i32 1, !dbg !1863
  store ptr %origin, ptr %1, align 8, !dbg !1863
  %2 = load ptr, ptr %_5, align 8, !dbg !1863, !noundef !24
  %3 = getelementptr inbounds { ptr, ptr }, ptr %_5, i32 0, i32 1, !dbg !1863
  %4 = load ptr, ptr %3, align 8, !dbg !1863, !noundef !24
  store ptr %2, ptr %this.dbg.spill.i, align 8
  call void @llvm.dbg.declare(metadata ptr %this.dbg.spill.i, metadata !1867, metadata !DIExpression()), !dbg !1874
  store ptr %4, ptr %origin.dbg.spill.i, align 8
  call void @llvm.dbg.declare(metadata ptr %origin.dbg.spill.i, metadata !1873, metadata !DIExpression()), !dbg !1874
  %_4.i = icmp uge ptr %2, %4, !dbg !1876
  %_3.i = xor i1 %_4.i, true, !dbg !1878
  br i1 %_3.i, label %bb1.i, label %"_ZN4core3ptr9const_ptr33_$LT$impl$u20$$BP$const$u20$T$GT$7sub_ptr7runtime17hbc68420aebd61bbfE.exit", !dbg !1878

bb1.i:                                            ; preds = %bb1
; call core::panicking::panic_nounwind
  call void @_ZN4core9panicking14panic_nounwind17h4573e3544b1244f5E(ptr align 1 @alloc_cb50775363ffdd1238910b6e9573721d, i64 71) #11, !dbg !1879
  unreachable, !dbg !1879

"_ZN4core3ptr9const_ptr33_$LT$impl$u20$$BP$const$u20$T$GT$7sub_ptr7runtime17hbc68420aebd61bbfE.exit": ; preds = %bb1
  br label %bb2, !dbg !1863

bb4:                                              ; preds = %bb2
  store i8 0, ptr %_8, align 1, !dbg !1866
  br label %bb6, !dbg !1866

bb5:                                              ; preds = %bb2
  %_11 = icmp ule i64 24, 9223372036854775807, !dbg !1880
  %5 = zext i1 %_11 to i8, !dbg !1866
  store i8 %5, ptr %_8, align 1, !dbg !1866
  br label %bb6, !dbg !1866

bb6:                                              ; preds = %bb4, %bb5
  %6 = load i8, ptr %_8, align 1, !dbg !1881, !range !242, !noundef !24
  %7 = trunc i8 %6 to i1, !dbg !1881
  %_7 = xor i1 %7, true, !dbg !1881
  br i1 %_7, label %bb7, label %bb8, !dbg !1881

bb8:                                              ; preds = %bb6
  %8 = ptrtoint ptr %self to i64, !dbg !1882
  %9 = ptrtoint ptr %origin to i64, !dbg !1882
  %10 = sub nuw i64 %8, %9, !dbg !1882
  %11 = udiv exact i64 %10, 24, !dbg !1882
  store i64 %11, ptr %0, align 8, !dbg !1882
  %12 = load i64, ptr %0, align 8, !dbg !1882, !noundef !24
  ret i64 %12, !dbg !1883

bb7:                                              ; preds = %bb6
; call core::panicking::panic
  call void @_ZN4core9panicking5panic17h277234a6cd982fe5E(ptr align 1 @alloc_ec595fc0e82ef92fc59bd74f68296eae, i64 73, ptr align 8 @alloc_054967ab02808043e6941783e8d3de80) #11, !dbg !1881
  unreachable, !dbg !1881
}

; core::ptr::const_ptr::<impl *const [T]>::len
; Function Attrs: inlinehint noredzone nounwind
define i64 @"_ZN4core3ptr9const_ptr43_$LT$impl$u20$$BP$const$u20$$u5b$T$u5d$$GT$3len17h350a4060caf8200cE"(ptr %self.0, i64 %self.1) unnamed_addr #0 !dbg !1884 {
start:
  %self.dbg.spill = alloca { ptr, i64 }, align 8
  %0 = getelementptr inbounds { ptr, i64 }, ptr %self.dbg.spill, i32 0, i32 0
  store ptr %self.0, ptr %0, align 8
  %1 = getelementptr inbounds { ptr, i64 }, ptr %self.dbg.spill, i32 0, i32 1
  store i64 %self.1, ptr %1, align 8
  call void @llvm.dbg.declare(metadata ptr %self.dbg.spill, metadata !1887, metadata !DIExpression()), !dbg !1888
; call core::ptr::metadata::metadata
  %2 = call i64 @_ZN4core3ptr8metadata8metadata17h4fc945275518d4ceE(ptr %self.0, i64 %self.1) #10, !dbg !1889
  ret i64 %2, !dbg !1890
}

; core::ptr::const_ptr::<impl *const [T]>::as_ptr
; Function Attrs: inlinehint noredzone nounwind
define ptr @"_ZN4core3ptr9const_ptr43_$LT$impl$u20$$BP$const$u20$$u5b$T$u5d$$GT$6as_ptr17h54c6b9f4248a570dE"(ptr %self.0, i64 %self.1) unnamed_addr #0 !dbg !1891 {
start:
  %self.dbg.spill = alloca { ptr, i64 }, align 8
  %0 = getelementptr inbounds { ptr, i64 }, ptr %self.dbg.spill, i32 0, i32 0
  store ptr %self.0, ptr %0, align 8
  %1 = getelementptr inbounds { ptr, i64 }, ptr %self.dbg.spill, i32 0, i32 1
  store i64 %self.1, ptr %1, align 8
  call void @llvm.dbg.declare(metadata ptr %self.dbg.spill, metadata !1895, metadata !DIExpression()), !dbg !1896
  ret ptr %self.0, !dbg !1897
}

; core::array::<impl core::ops::index::Index<I> for [T; N]>::index
; Function Attrs: inlinehint noredzone nounwind
define { ptr, i64 } @"_ZN4core5array85_$LT$impl$u20$core..ops..index..Index$LT$I$GT$$u20$for$u20$$u5b$T$u3b$$u20$N$u5d$$GT$5index17hc1741b6a9d7e3c4bE"(ptr align 8 %self, i64 %index.0, i64 %index.1, ptr align 8 %0) unnamed_addr #0 !dbg !1898 {
start:
  %index.dbg.spill = alloca { i64, i64 }, align 8
  %self.dbg.spill = alloca ptr, align 8
  store ptr %self, ptr %self.dbg.spill, align 8
  call void @llvm.dbg.declare(metadata ptr %self.dbg.spill, metadata !1906, metadata !DIExpression()), !dbg !1910
  %1 = getelementptr inbounds { i64, i64 }, ptr %index.dbg.spill, i32 0, i32 0
  store i64 %index.0, ptr %1, align 8
  %2 = getelementptr inbounds { i64, i64 }, ptr %index.dbg.spill, i32 0, i32 1
  store i64 %index.1, ptr %2, align 8
  call void @llvm.dbg.declare(metadata ptr %index.dbg.spill, metadata !1907, metadata !DIExpression()), !dbg !1911
; call core::slice::index::<impl core::ops::index::Index<I> for [T]>::index
  %3 = call { ptr, i64 } @"_ZN4core5slice5index74_$LT$impl$u20$core..ops..index..Index$LT$I$GT$$u20$for$u20$$u5b$T$u5d$$GT$5index17hbe1026989b58af50E"(ptr align 8 %self, i64 64, i64 %index.0, i64 %index.1, ptr align 8 %0) #10, !dbg !1912
  %4 = extractvalue { ptr, i64 } %3, 0, !dbg !1912
  %5 = extractvalue { ptr, i64 } %3, 1, !dbg !1912
  %6 = insertvalue { ptr, i64 } poison, ptr %4, 0, !dbg !1913
  %7 = insertvalue { ptr, i64 } %6, i64 %5, 1, !dbg !1913
  ret { ptr, i64 } %7, !dbg !1913
}

; core::array::<impl core::ops::index::IndexMut<I> for [T; N]>::index_mut
; Function Attrs: inlinehint noredzone nounwind
define { ptr, i64 } @"_ZN4core5array88_$LT$impl$u20$core..ops..index..IndexMut$LT$I$GT$$u20$for$u20$$u5b$T$u3b$$u20$N$u5d$$GT$9index_mut17h372658ec52d9075cE"(ptr align 8 %self, i64 %index.0, i64 %index.1, ptr align 8 %0) unnamed_addr #0 !dbg !1914 {
start:
  %index.dbg.spill = alloca { i64, i64 }, align 8
  %self.dbg.spill = alloca ptr, align 8
  store ptr %self, ptr %self.dbg.spill, align 8
  call void @llvm.dbg.declare(metadata ptr %self.dbg.spill, metadata !1920, metadata !DIExpression()), !dbg !1922
  %1 = getelementptr inbounds { i64, i64 }, ptr %index.dbg.spill, i32 0, i32 0
  store i64 %index.0, ptr %1, align 8
  %2 = getelementptr inbounds { i64, i64 }, ptr %index.dbg.spill, i32 0, i32 1
  store i64 %index.1, ptr %2, align 8
  call void @llvm.dbg.declare(metadata ptr %index.dbg.spill, metadata !1921, metadata !DIExpression()), !dbg !1923
; call core::slice::index::<impl core::ops::index::IndexMut<I> for [T]>::index_mut
  %3 = call { ptr, i64 } @"_ZN4core5slice5index77_$LT$impl$u20$core..ops..index..IndexMut$LT$I$GT$$u20$for$u20$$u5b$T$u5d$$GT$9index_mut17h176acecc10d58840E"(ptr align 8 %self, i64 64, i64 %index.0, i64 %index.1, ptr align 8 %0) #10, !dbg !1924
  %_3.0 = extractvalue { ptr, i64 } %3, 0, !dbg !1924
  %_3.1 = extractvalue { ptr, i64 } %3, 1, !dbg !1924
  %4 = insertvalue { ptr, i64 } poison, ptr %_3.0, 0, !dbg !1925
  %5 = insertvalue { ptr, i64 } %4, i64 %_3.1, 1, !dbg !1925
  ret { ptr, i64 } %5, !dbg !1925
}

; core::slice::<impl [T]>::split_at_mut
; Function Attrs: inlinehint noredzone nounwind
define void @"_ZN4core5slice29_$LT$impl$u20$$u5b$T$u5d$$GT$12split_at_mut17h59d0703bd83b67daE"(ptr sret({ { ptr, i64 }, { ptr, i64 } }) %0, ptr align 8 %self.0, i64 %self.1, i64 %mid, ptr align 8 %1) unnamed_addr #0 !dbg !1926 {
start:
  %mid.dbg.spill = alloca i64, align 8
  %self.dbg.spill = alloca { ptr, i64 }, align 8
  %2 = getelementptr inbounds { ptr, i64 }, ptr %self.dbg.spill, i32 0, i32 0
  store ptr %self.0, ptr %2, align 8
  %3 = getelementptr inbounds { ptr, i64 }, ptr %self.dbg.spill, i32 0, i32 1
  store i64 %self.1, ptr %3, align 8
  call void @llvm.dbg.declare(metadata ptr %self.dbg.spill, metadata !1935, metadata !DIExpression()), !dbg !1937
  store i64 %mid, ptr %mid.dbg.spill, align 8
  call void @llvm.dbg.declare(metadata ptr %mid.dbg.spill, metadata !1936, metadata !DIExpression()), !dbg !1938
  %_4 = icmp ule i64 %mid, %self.1, !dbg !1939
  %_3 = xor i1 %_4, true, !dbg !1940
  br i1 %_3, label %bb1, label %bb2, !dbg !1940

bb2:                                              ; preds = %start
; call core::slice::<impl [T]>::split_at_mut_unchecked
  call void @"_ZN4core5slice29_$LT$impl$u20$$u5b$T$u5d$$GT$22split_at_mut_unchecked17h70f505bca652d857E"(ptr sret({ { ptr, i64 }, { ptr, i64 } }) %0, ptr align 8 %self.0, i64 %self.1, i64 %mid) #10, !dbg !1941
  ret void, !dbg !1942

bb1:                                              ; preds = %start
; call core::panicking::panic
  call void @_ZN4core9panicking5panic17h277234a6cd982fe5E(ptr align 1 @alloc_fddaeef1fe1a23c45402ef8f58614acb, i64 35, ptr align 8 %1) #11, !dbg !1940
  unreachable, !dbg !1940
}

; core::slice::<impl [T]>::get_unchecked
; Function Attrs: inlinehint noredzone nounwind
define align 8 ptr @"_ZN4core5slice29_$LT$impl$u20$$u5b$T$u5d$$GT$13get_unchecked17hfabc2732da503c76E"(ptr align 8 %self.0, i64 %self.1, i64 %index) unnamed_addr #0 !dbg !1943 {
start:
  %index.dbg.spill = alloca i64, align 8
  %self.dbg.spill = alloca { ptr, i64 }, align 8
  %0 = getelementptr inbounds { ptr, i64 }, ptr %self.dbg.spill, i32 0, i32 0
  store ptr %self.0, ptr %0, align 8
  %1 = getelementptr inbounds { ptr, i64 }, ptr %self.dbg.spill, i32 0, i32 1
  store i64 %self.1, ptr %1, align 8
  call void @llvm.dbg.declare(metadata ptr %self.dbg.spill, metadata !1947, metadata !DIExpression()), !dbg !1951
  store i64 %index, ptr %index.dbg.spill, align 8
  call void @llvm.dbg.declare(metadata ptr %index.dbg.spill, metadata !1948, metadata !DIExpression()), !dbg !1952
; call <usize as core::slice::index::SliceIndex<[T]>>::get_unchecked
  %_3 = call ptr @"_ZN75_$LT$usize$u20$as$u20$core..slice..index..SliceIndex$LT$$u5b$T$u5d$$GT$$GT$13get_unchecked17h99d4e103d214d05bE"(i64 %index, ptr %self.0, i64 %self.1) #10, !dbg !1953
  ret ptr %_3, !dbg !1954
}

; core::slice::<impl [T]>::as_mut_ptr_range
; Function Attrs: inlinehint noredzone nounwind
define { ptr, ptr } @"_ZN4core5slice29_$LT$impl$u20$$u5b$T$u5d$$GT$16as_mut_ptr_range17h2223e61848f7512aE"(ptr align 8 %self.0, i64 %self.1) unnamed_addr #0 !dbg !1955 {
start:
  %self.dbg.spill.i4 = alloca { ptr, i64 }, align 8
  %0 = alloca ptr, align 8
  %count.dbg.spill.i2 = alloca i64, align 8
  %self.dbg.spill.i3 = alloca ptr, align 8
  %count.dbg.spill.i = alloca i64, align 8
  %self.dbg.spill.i = alloca ptr, align 8
  %end.dbg.spill = alloca ptr, align 8
  %start.dbg.spill = alloca ptr, align 8
  %self.dbg.spill = alloca { ptr, i64 }, align 8
  %1 = alloca { ptr, ptr }, align 8
  %2 = getelementptr inbounds { ptr, i64 }, ptr %self.dbg.spill, i32 0, i32 0
  store ptr %self.0, ptr %2, align 8
  %3 = getelementptr inbounds { ptr, i64 }, ptr %self.dbg.spill, i32 0, i32 1
  store i64 %self.1, ptr %3, align 8
  call void @llvm.dbg.declare(metadata ptr %self.dbg.spill, metadata !1965, metadata !DIExpression()), !dbg !1970
  store ptr %self.0, ptr %self.dbg.spill.i4, align 8
  %4 = getelementptr inbounds { ptr, i64 }, ptr %self.dbg.spill.i4, i32 0, i32 1
  store i64 %self.1, ptr %4, align 8
  call void @llvm.dbg.declare(metadata ptr %self.dbg.spill.i4, metadata !1971, metadata !DIExpression()), !dbg !1976
  store ptr %self.0, ptr %start.dbg.spill, align 8, !dbg !1978
  call void @llvm.dbg.declare(metadata ptr %start.dbg.spill, metadata !1966, metadata !DIExpression()), !dbg !1979
  store ptr %self.0, ptr %self.dbg.spill.i, align 8
  call void @llvm.dbg.declare(metadata ptr %self.dbg.spill.i, metadata !276, metadata !DIExpression()), !dbg !1980
  store i64 %self.1, ptr %count.dbg.spill.i, align 8
  call void @llvm.dbg.declare(metadata ptr %count.dbg.spill.i, metadata !282, metadata !DIExpression()), !dbg !1982
  store ptr %self.0, ptr %self.dbg.spill.i3, align 8
  call void @llvm.dbg.declare(metadata ptr %self.dbg.spill.i3, metadata !286, metadata !DIExpression()), !dbg !1983
  store i64 %self.1, ptr %count.dbg.spill.i2, align 8
  call void @llvm.dbg.declare(metadata ptr %count.dbg.spill.i2, metadata !291, metadata !DIExpression()), !dbg !1985
  %5 = getelementptr inbounds %"bootinfo::memory_map::MemoryRegion", ptr %self.0, i64 %self.1, !dbg !1986
  store ptr %5, ptr %0, align 8, !dbg !1986
  %_3.i = load ptr, ptr %0, align 8, !dbg !1986, !noundef !24
  store ptr %_3.i, ptr %end.dbg.spill, align 8, !dbg !1987
  call void @llvm.dbg.declare(metadata ptr %end.dbg.spill, metadata !1968, metadata !DIExpression()), !dbg !1988
  store ptr %self.0, ptr %1, align 8, !dbg !1989
  %6 = getelementptr inbounds { ptr, ptr }, ptr %1, i32 0, i32 1, !dbg !1989
  store ptr %_3.i, ptr %6, align 8, !dbg !1989
  %7 = getelementptr inbounds { ptr, ptr }, ptr %1, i32 0, i32 0, !dbg !1990
  %8 = load ptr, ptr %7, align 8, !dbg !1990, !noundef !24
  %9 = getelementptr inbounds { ptr, ptr }, ptr %1, i32 0, i32 1, !dbg !1990
  %10 = load ptr, ptr %9, align 8, !dbg !1990, !noundef !24
  %11 = insertvalue { ptr, ptr } poison, ptr %8, 0, !dbg !1990
  %12 = insertvalue { ptr, ptr } %11, ptr %10, 1, !dbg !1990
  ret { ptr, ptr } %12, !dbg !1990
}

; core::slice::<impl [T]>::sort_unstable_by
; Function Attrs: inlinehint noredzone nounwind
define void @"_ZN4core5slice29_$LT$impl$u20$$u5b$T$u5d$$GT$16sort_unstable_by17h79a58ecc265a23b4E"(ptr align 8 %self.0, i64 %self.1) unnamed_addr #0 !dbg !1991 {
start:
  %self.dbg.spill = alloca { ptr, i64 }, align 8
  %_4 = alloca ptr, align 8
  %compare = alloca %"[closure@/Users/yaw/.cargo/registry/src/index.crates.io-6f17d22bba15001f/bootloader-0.9.23/src/bootinfo/memory_map.rs:40:39: 40:47]", align 1
  %0 = getelementptr inbounds { ptr, i64 }, ptr %self.dbg.spill, i32 0, i32 0
  store ptr %self.0, ptr %0, align 8
  %1 = getelementptr inbounds { ptr, i64 }, ptr %self.dbg.spill, i32 0, i32 1
  store i64 %self.1, ptr %1, align 8
  call void @llvm.dbg.declare(metadata ptr %self.dbg.spill, metadata !1995, metadata !DIExpression()), !dbg !1999
  call void @llvm.dbg.declare(metadata ptr %compare, metadata !1996, metadata !DIExpression()), !dbg !2000
  store ptr %compare, ptr %_4, align 8, !dbg !2001
  %2 = load ptr, ptr %_4, align 8, !dbg !2002, !nonnull !24, !align !2003, !noundef !24
; call core::slice::sort::quicksort
  call void @_ZN4core5slice4sort9quicksort17h903c0e9efaa64e95E(ptr align 8 %self.0, i64 %self.1, ptr align 1 %2) #10, !dbg !2002
  ret void, !dbg !2004
}

; core::slice::<impl [T]>::sort_unstable_by::{{closure}}
; Function Attrs: inlinehint noredzone nounwind
define zeroext i1 @"_ZN4core5slice29_$LT$impl$u20$$u5b$T$u5d$$GT$16sort_unstable_by28_$u7b$$u7b$closure$u7d$$u7d$17h72c5253f3a69a3b3E"(ptr align 8 %_1, ptr align 8 %a, ptr align 8 %b) unnamed_addr #0 !dbg !2005 {
start:
  %b.dbg.spill = alloca ptr, align 8
  %a.dbg.spill = alloca ptr, align 8
  %_1.dbg.spill = alloca ptr, align 8
  %_6 = alloca { ptr, ptr }, align 8
  %_5 = alloca i8, align 1
  store ptr %_1, ptr %_1.dbg.spill, align 8
  call void @llvm.dbg.declare(metadata ptr %_1.dbg.spill, metadata !2011, metadata !DIExpression(DW_OP_deref, DW_OP_deref)), !dbg !2012
  store ptr %a, ptr %a.dbg.spill, align 8
  call void @llvm.dbg.declare(metadata ptr %a.dbg.spill, metadata !2009, metadata !DIExpression()), !dbg !2013
  store ptr %b, ptr %b.dbg.spill, align 8
  call void @llvm.dbg.declare(metadata ptr %b.dbg.spill, metadata !2010, metadata !DIExpression()), !dbg !2014
  %_8 = load ptr, ptr %_1, align 8, !dbg !2015, !nonnull !24, !align !2003, !noundef !24
  store ptr %a, ptr %_6, align 8, !dbg !2015
  %0 = getelementptr inbounds { ptr, ptr }, ptr %_6, i32 0, i32 1, !dbg !2015
  store ptr %b, ptr %0, align 8, !dbg !2015
  %1 = getelementptr inbounds { ptr, ptr }, ptr %_6, i32 0, i32 0, !dbg !2015
  %2 = load ptr, ptr %1, align 8, !dbg !2015, !nonnull !24, !align !510, !noundef !24
  %3 = getelementptr inbounds { ptr, ptr }, ptr %_6, i32 0, i32 1, !dbg !2015
  %4 = load ptr, ptr %3, align 8, !dbg !2015, !nonnull !24, !align !510, !noundef !24
; call bootloader::bootinfo::memory_map::MemoryMap::sort::{{closure}}
  %5 = call i8 @"_ZN10bootloader8bootinfo10memory_map9MemoryMap4sort28_$u7b$$u7b$closure$u7d$$u7d$17h6df439cb131128d4E"(ptr align 1 %_8, ptr align 8 %2, ptr align 8 %4) #10, !dbg !2015, !range !745
  store i8 %5, ptr %_5, align 1, !dbg !2015
; call <core::cmp::Ordering as core::cmp::PartialEq>::eq
  %6 = call zeroext i1 @"_ZN60_$LT$core..cmp..Ordering$u20$as$u20$core..cmp..PartialEq$GT$2eq17h29e22795268aad95E"(ptr align 1 %_5, ptr align 1 @alloc_9a72dc1c87ddefcce62e4b5ab68e5150) #10, !dbg !2015
  ret i1 %6, !dbg !2016
}

; core::slice::<impl [T]>::split_at_mut_unchecked
; Function Attrs: inlinehint noredzone nounwind
define void @"_ZN4core5slice29_$LT$impl$u20$$u5b$T$u5d$$GT$22split_at_mut_unchecked17h70f505bca652d857E"(ptr sret({ { ptr, i64 }, { ptr, i64 } }) %0, ptr align 8 %self.0, i64 %self.1, i64 %mid) unnamed_addr #0 !dbg !2017 {
start:
  %len.dbg.spill.i = alloca i64, align 8
  %mid.dbg.spill.i = alloca i64, align 8
  %self.dbg.spill.i3 = alloca { ptr, i64 }, align 8
  %1 = alloca ptr, align 8
  %count.dbg.spill.i1 = alloca i64, align 8
  %self.dbg.spill.i2 = alloca ptr, align 8
  %count.dbg.spill.i = alloca i64, align 8
  %self.dbg.spill.i = alloca ptr, align 8
  %ptr.dbg.spill = alloca ptr, align 8
  %len.dbg.spill = alloca i64, align 8
  %mid.dbg.spill = alloca i64, align 8
  %self.dbg.spill = alloca { ptr, i64 }, align 8
  %_8 = alloca { i64, i64 }, align 8
  %2 = getelementptr inbounds { ptr, i64 }, ptr %self.dbg.spill, i32 0, i32 0
  store ptr %self.0, ptr %2, align 8
  %3 = getelementptr inbounds { ptr, i64 }, ptr %self.dbg.spill, i32 0, i32 1
  store i64 %self.1, ptr %3, align 8
  call void @llvm.dbg.declare(metadata ptr %self.dbg.spill, metadata !2021, metadata !DIExpression()), !dbg !2027
  store i64 %mid, ptr %mid.dbg.spill, align 8
  call void @llvm.dbg.declare(metadata ptr %mid.dbg.spill, metadata !2022, metadata !DIExpression()), !dbg !2028
  store i64 %self.1, ptr %len.dbg.spill, align 8, !dbg !2029
  call void @llvm.dbg.declare(metadata ptr %len.dbg.spill, metadata !2023, metadata !DIExpression()), !dbg !2030
  store ptr %self.0, ptr %self.dbg.spill.i3, align 8
  %4 = getelementptr inbounds { ptr, i64 }, ptr %self.dbg.spill.i3, i32 0, i32 1
  store i64 %self.1, ptr %4, align 8
  call void @llvm.dbg.declare(metadata ptr %self.dbg.spill.i3, metadata !1971, metadata !DIExpression()), !dbg !2031
  store ptr %self.0, ptr %ptr.dbg.spill, align 8, !dbg !2033
  call void @llvm.dbg.declare(metadata ptr %ptr.dbg.spill, metadata !2025, metadata !DIExpression()), !dbg !2034
  br i1 true, label %bb2, label %bb3, !dbg !2035

bb3:                                              ; preds = %"_ZN4core5slice29_$LT$impl$u20$$u5b$T$u5d$$GT$22split_at_mut_unchecked7runtime17h1d933de8fb407671E.exit", %start
; call core::slice::raw::from_raw_parts_mut
  %5 = call { ptr, i64 } @_ZN4core5slice3raw18from_raw_parts_mut17ha4273453c60b0721E(ptr %self.0, i64 %mid) #10, !dbg !2036
  %_10.0 = extractvalue { ptr, i64 } %5, 0, !dbg !2036
  %_10.1 = extractvalue { ptr, i64 } %5, 1, !dbg !2036
  store ptr %self.0, ptr %self.dbg.spill.i, align 8
  call void @llvm.dbg.declare(metadata ptr %self.dbg.spill.i, metadata !276, metadata !DIExpression()), !dbg !2037
  store i64 %mid, ptr %count.dbg.spill.i, align 8
  call void @llvm.dbg.declare(metadata ptr %count.dbg.spill.i, metadata !282, metadata !DIExpression()), !dbg !2039
  store ptr %self.0, ptr %self.dbg.spill.i2, align 8
  call void @llvm.dbg.declare(metadata ptr %self.dbg.spill.i2, metadata !286, metadata !DIExpression()), !dbg !2040
  store i64 %mid, ptr %count.dbg.spill.i1, align 8
  call void @llvm.dbg.declare(metadata ptr %count.dbg.spill.i1, metadata !291, metadata !DIExpression()), !dbg !2042
  %6 = getelementptr inbounds %"bootinfo::memory_map::MemoryRegion", ptr %self.0, i64 %mid, !dbg !2043
  store ptr %6, ptr %1, align 8, !dbg !2043
  %_3.i = load ptr, ptr %1, align 8, !dbg !2043, !noundef !24
  %_17.0 = sub i64 %self.1, %mid, !dbg !2044
  %_17.1 = icmp ult i64 %self.1, %mid, !dbg !2044
  %7 = call i1 @llvm.expect.i1(i1 %_17.1, i1 false), !dbg !2044
  br i1 %7, label %panic, label %bb6, !dbg !2044

bb2:                                              ; preds = %start
  store i64 %mid, ptr %_8, align 8, !dbg !2035
  %8 = getelementptr inbounds { i64, i64 }, ptr %_8, i32 0, i32 1, !dbg !2035
  store i64 %self.1, ptr %8, align 8, !dbg !2035
  %9 = load i64, ptr %_8, align 8, !dbg !2035, !noundef !24
  %10 = getelementptr inbounds { i64, i64 }, ptr %_8, i32 0, i32 1, !dbg !2035
  %11 = load i64, ptr %10, align 8, !dbg !2035, !noundef !24
  store i64 %9, ptr %mid.dbg.spill.i, align 8
  call void @llvm.dbg.declare(metadata ptr %mid.dbg.spill.i, metadata !2045, metadata !DIExpression()), !dbg !2052
  store i64 %11, ptr %len.dbg.spill.i, align 8
  call void @llvm.dbg.declare(metadata ptr %len.dbg.spill.i, metadata !2051, metadata !DIExpression()), !dbg !2052
  %_4.i = icmp ule i64 %9, %11, !dbg !2054
  %_3.i4 = xor i1 %_4.i, true, !dbg !2056
  br i1 %_3.i4, label %bb1.i, label %"_ZN4core5slice29_$LT$impl$u20$$u5b$T$u5d$$GT$22split_at_mut_unchecked7runtime17h1d933de8fb407671E.exit", !dbg !2056

bb1.i:                                            ; preds = %bb2
; call core::panicking::panic_nounwind
  call void @_ZN4core9panicking14panic_nounwind17h4573e3544b1244f5E(ptr align 1 @alloc_3dc073651148de734d2593768efc16e9, i64 104) #11, !dbg !2057
  unreachable, !dbg !2057

"_ZN4core5slice29_$LT$impl$u20$$u5b$T$u5d$$GT$22split_at_mut_unchecked7runtime17h1d933de8fb407671E.exit": ; preds = %bb2
  br label %bb3, !dbg !2035

bb6:                                              ; preds = %bb3
; call core::slice::raw::from_raw_parts_mut
  %12 = call { ptr, i64 } @_ZN4core5slice3raw18from_raw_parts_mut17ha4273453c60b0721E(ptr %_3.i, i64 %_17.0) #10, !dbg !2058
  %_13.0 = extractvalue { ptr, i64 } %12, 0, !dbg !2058
  %_13.1 = extractvalue { ptr, i64 } %12, 1, !dbg !2058
  %13 = getelementptr inbounds { ptr, i64 }, ptr %0, i32 0, i32 0, !dbg !2059
  store ptr %_10.0, ptr %13, align 8, !dbg !2059
  %14 = getelementptr inbounds { ptr, i64 }, ptr %0, i32 0, i32 1, !dbg !2059
  store i64 %_10.1, ptr %14, align 8, !dbg !2059
  %15 = getelementptr inbounds { { ptr, i64 }, { ptr, i64 } }, ptr %0, i32 0, i32 1, !dbg !2059
  %16 = getelementptr inbounds { ptr, i64 }, ptr %15, i32 0, i32 0, !dbg !2059
  store ptr %_13.0, ptr %16, align 8, !dbg !2059
  %17 = getelementptr inbounds { ptr, i64 }, ptr %15, i32 0, i32 1, !dbg !2059
  store i64 %_13.1, ptr %17, align 8, !dbg !2059
  ret void, !dbg !2060

panic:                                            ; preds = %bb3
; call core::panicking::panic
  call void @_ZN4core9panicking5panic17h277234a6cd982fe5E(ptr align 1 @str.0, i64 33, ptr align 8 @alloc_4a6cc2814e9c70d90675aafc22034495) #11, !dbg !2044
  unreachable, !dbg !2044
}

; core::slice::<impl [T]>::iter
; Function Attrs: inlinehint noredzone nounwind
define { ptr, ptr } @"_ZN4core5slice29_$LT$impl$u20$$u5b$T$u5d$$GT$4iter17h2eb88a55d98b1b0cE"(ptr align 8 %self.0, i64 %self.1) unnamed_addr #0 !dbg !2061 {
start:
  %self.dbg.spill = alloca { ptr, i64 }, align 8
  %0 = getelementptr inbounds { ptr, i64 }, ptr %self.dbg.spill, i32 0, i32 0
  store ptr %self.0, ptr %0, align 8
  %1 = getelementptr inbounds { ptr, i64 }, ptr %self.dbg.spill, i32 0, i32 1
  store i64 %self.1, ptr %1, align 8
  call void @llvm.dbg.declare(metadata ptr %self.dbg.spill, metadata !2065, metadata !DIExpression()), !dbg !2066
; call core::slice::iter::Iter<T>::new
  %2 = call { ptr, ptr } @"_ZN4core5slice4iter13Iter$LT$T$GT$3new17h3d8827bb3ebf5aa2E"(ptr align 8 %self.0, i64 %self.1) #10, !dbg !2067
  %3 = extractvalue { ptr, ptr } %2, 0, !dbg !2067
  %4 = extractvalue { ptr, ptr } %2, 1, !dbg !2067
  %5 = insertvalue { ptr, ptr } poison, ptr %3, 0, !dbg !2068
  %6 = insertvalue { ptr, ptr } %5, ptr %4, 1, !dbg !2068
  ret { ptr, ptr } %6, !dbg !2068
}

; core::slice::<impl [T]>::swap
; Function Attrs: inlinehint noredzone nounwind
define void @"_ZN4core5slice29_$LT$impl$u20$$u5b$T$u5d$$GT$4swap17h3698e108c8304892E"(ptr align 8 %self.0, i64 %self.1, i64 %a, i64 %b, ptr align 8 %0) unnamed_addr #0 !dbg !2069 {
start:
  %pb.dbg.spill = alloca ptr, align 8
  %pa.dbg.spill = alloca ptr, align 8
  %b.dbg.spill = alloca i64, align 8
  %a.dbg.spill = alloca i64, align 8
  %self.dbg.spill = alloca { ptr, i64 }, align 8
  %1 = getelementptr inbounds { ptr, i64 }, ptr %self.dbg.spill, i32 0, i32 0
  store ptr %self.0, ptr %1, align 8
  %2 = getelementptr inbounds { ptr, i64 }, ptr %self.dbg.spill, i32 0, i32 1
  store i64 %self.1, ptr %2, align 8
  call void @llvm.dbg.declare(metadata ptr %self.dbg.spill, metadata !2073, metadata !DIExpression()), !dbg !2080
  store i64 %a, ptr %a.dbg.spill, align 8
  call void @llvm.dbg.declare(metadata ptr %a.dbg.spill, metadata !2074, metadata !DIExpression()), !dbg !2081
  store i64 %b, ptr %b.dbg.spill, align 8
  call void @llvm.dbg.declare(metadata ptr %b.dbg.spill, metadata !2075, metadata !DIExpression()), !dbg !2082
  %_6 = icmp ult i64 %a, %self.1, !dbg !2083
  %3 = call i1 @llvm.expect.i1(i1 %_6, i1 true), !dbg !2083
  br i1 %3, label %bb1, label %panic, !dbg !2083

bb1:                                              ; preds = %start
  %pa = getelementptr inbounds [0 x %"bootinfo::memory_map::MemoryRegion"], ptr %self.0, i64 0, i64 %a, !dbg !2084
  store ptr %pa, ptr %pa.dbg.spill, align 8, !dbg !2084
  call void @llvm.dbg.declare(metadata ptr %pa.dbg.spill, metadata !2076, metadata !DIExpression()), !dbg !2085
  %_9 = icmp ult i64 %b, %self.1, !dbg !2086
  %4 = call i1 @llvm.expect.i1(i1 %_9, i1 true), !dbg !2086
  br i1 %4, label %bb2, label %panic1, !dbg !2086

panic:                                            ; preds = %start
; call core::panicking::panic_bounds_check
  call void @_ZN4core9panicking18panic_bounds_check17h19acf4b7d21fbddfE(i64 %a, i64 %self.1, ptr align 8 %0) #11, !dbg !2083
  unreachable, !dbg !2083

bb2:                                              ; preds = %bb1
  %pb = getelementptr inbounds [0 x %"bootinfo::memory_map::MemoryRegion"], ptr %self.0, i64 0, i64 %b, !dbg !2087
  store ptr %pb, ptr %pb.dbg.spill, align 8, !dbg !2087
  call void @llvm.dbg.declare(metadata ptr %pb.dbg.spill, metadata !2078, metadata !DIExpression()), !dbg !2088
; call core::ptr::swap
  call void @_ZN4core3ptr4swap17h8b2f3774968ef06dE(ptr %pa, ptr %pb) #10, !dbg !2089
  ret void, !dbg !2090

panic1:                                           ; preds = %bb1
; call core::panicking::panic_bounds_check
  call void @_ZN4core9panicking18panic_bounds_check17h19acf4b7d21fbddfE(i64 %b, i64 %self.1, ptr align 8 %0) #11, !dbg !2086
  unreachable, !dbg !2086
}

; core::slice::<impl [T]>::reverse
; Function Attrs: inlinehint noredzone nounwind
define void @"_ZN4core5slice29_$LT$impl$u20$$u5b$T$u5d$$GT$7reverse17h877aede61715ec1dE"(ptr align 8 %self.0, i64 %self.1) unnamed_addr #0 !dbg !2091 {
start:
  %0 = alloca ptr, align 8
  %count.dbg.spill.i1 = alloca i64, align 8
  %self.dbg.spill.i2 = alloca ptr, align 8
  %rhs.dbg.spill.i.i = alloca i64, align 8
  %self.dbg.spill.i1.i = alloca i64, align 8
  %self.dbg.spill.i.i = alloca i64, align 8
  %count.dbg.spill.i = alloca i64, align 8
  %self.dbg.spill.i = alloca ptr, align 8
  %back_half.dbg.spill = alloca { ptr, i64 }, align 8
  %front_half.dbg.spill = alloca { ptr, i64 }, align 8
  %end.dbg.spill = alloca ptr, align 8
  %start.dbg.spill = alloca ptr, align 8
  %half_len.dbg.spill = alloca i64, align 8
  %self.dbg.spill = alloca { ptr, i64 }, align 8
  %_11 = alloca { { ptr, i64 }, { ptr, i64 } }, align 8
  %1 = getelementptr inbounds { ptr, i64 }, ptr %self.dbg.spill, i32 0, i32 0
  store ptr %self.0, ptr %1, align 8
  %2 = getelementptr inbounds { ptr, i64 }, ptr %self.dbg.spill, i32 0, i32 1
  store i64 %self.1, ptr %2, align 8
  call void @llvm.dbg.declare(metadata ptr %self.dbg.spill, metadata !2095, metadata !DIExpression()), !dbg !2104
  %half_len = udiv i64 %self.1, 2, !dbg !2105
  store i64 %half_len, ptr %half_len.dbg.spill, align 8, !dbg !2105
  call void @llvm.dbg.declare(metadata ptr %half_len.dbg.spill, metadata !2096, metadata !DIExpression()), !dbg !2106
; call core::slice::<impl [T]>::as_mut_ptr_range
  %3 = call { ptr, ptr } @"_ZN4core5slice29_$LT$impl$u20$$u5b$T$u5d$$GT$16as_mut_ptr_range17h2223e61848f7512aE"(ptr align 8 %self.0, i64 %self.1) #10, !dbg !2107
  %_8.0 = extractvalue { ptr, ptr } %3, 0, !dbg !2107
  %_8.1 = extractvalue { ptr, ptr } %3, 1, !dbg !2107
  store ptr %_8.0, ptr %start.dbg.spill, align 8, !dbg !2108
  call void @llvm.dbg.declare(metadata ptr %start.dbg.spill, metadata !2098, metadata !DIExpression()), !dbg !2109
  store ptr %_8.1, ptr %end.dbg.spill, align 8, !dbg !2110
  call void @llvm.dbg.declare(metadata ptr %end.dbg.spill, metadata !2100, metadata !DIExpression()), !dbg !2111
; call core::slice::raw::from_raw_parts_mut
  %4 = call { ptr, i64 } @_ZN4core5slice3raw18from_raw_parts_mut17ha4273453c60b0721E(ptr %_8.0, i64 %half_len) #10, !dbg !2112
  %_12.0 = extractvalue { ptr, i64 } %4, 0, !dbg !2112
  %_12.1 = extractvalue { ptr, i64 } %4, 1, !dbg !2112
  store ptr %_8.1, ptr %self.dbg.spill.i, align 8
  call void @llvm.dbg.declare(metadata ptr %self.dbg.spill.i, metadata !2113, metadata !DIExpression()), !dbg !2117
  store i64 %half_len, ptr %count.dbg.spill.i, align 8
  call void @llvm.dbg.declare(metadata ptr %count.dbg.spill.i, metadata !2116, metadata !DIExpression()), !dbg !2119
  store i64 %half_len, ptr %self.dbg.spill.i.i, align 8
  call void @llvm.dbg.declare(metadata ptr %self.dbg.spill.i.i, metadata !2120, metadata !DIExpression()), !dbg !2127
  store i64 0, ptr %self.dbg.spill.i1.i, align 8
  call void @llvm.dbg.declare(metadata ptr %self.dbg.spill.i1.i, metadata !2129, metadata !DIExpression()), !dbg !2135
  store i64 %half_len, ptr %rhs.dbg.spill.i.i, align 8
  call void @llvm.dbg.declare(metadata ptr %rhs.dbg.spill.i.i, metadata !2134, metadata !DIExpression()), !dbg !2137
  %5 = sub i64 0, %half_len, !dbg !2138
  store ptr %_8.1, ptr %self.dbg.spill.i2, align 8
  call void @llvm.dbg.declare(metadata ptr %self.dbg.spill.i2, metadata !286, metadata !DIExpression()), !dbg !2139
  store i64 %5, ptr %count.dbg.spill.i1, align 8
  call void @llvm.dbg.declare(metadata ptr %count.dbg.spill.i1, metadata !291, metadata !DIExpression()), !dbg !2141
  %6 = getelementptr inbounds %"bootinfo::memory_map::MemoryRegion", ptr %_8.1, i64 %5, !dbg !2142
  store ptr %6, ptr %0, align 8, !dbg !2142
  %_3.i = load ptr, ptr %0, align 8, !dbg !2142, !noundef !24
; call core::slice::raw::from_raw_parts_mut
  %7 = call { ptr, i64 } @_ZN4core5slice3raw18from_raw_parts_mut17ha4273453c60b0721E(ptr %_3.i, i64 %half_len) #10, !dbg !2143
  %_13.0 = extractvalue { ptr, i64 } %7, 0, !dbg !2143
  %_13.1 = extractvalue { ptr, i64 } %7, 1, !dbg !2143
  %8 = getelementptr inbounds { ptr, i64 }, ptr %_11, i32 0, i32 0, !dbg !2144
  store ptr %_12.0, ptr %8, align 8, !dbg !2144
  %9 = getelementptr inbounds { ptr, i64 }, ptr %_11, i32 0, i32 1, !dbg !2144
  store i64 %_12.1, ptr %9, align 8, !dbg !2144
  %10 = getelementptr inbounds { { ptr, i64 }, { ptr, i64 } }, ptr %_11, i32 0, i32 1, !dbg !2144
  %11 = getelementptr inbounds { ptr, i64 }, ptr %10, i32 0, i32 0, !dbg !2144
  store ptr %_13.0, ptr %11, align 8, !dbg !2144
  %12 = getelementptr inbounds { ptr, i64 }, ptr %10, i32 0, i32 1, !dbg !2144
  store i64 %_13.1, ptr %12, align 8, !dbg !2144
  %13 = getelementptr inbounds { ptr, i64 }, ptr %_11, i32 0, i32 0, !dbg !2145
  %front_half.0 = load ptr, ptr %13, align 8, !dbg !2145, !nonnull !24, !align !510, !noundef !24
  %14 = getelementptr inbounds { ptr, i64 }, ptr %_11, i32 0, i32 1, !dbg !2145
  %front_half.1 = load i64, ptr %14, align 8, !dbg !2145, !noundef !24
  %15 = getelementptr inbounds { ptr, i64 }, ptr %front_half.dbg.spill, i32 0, i32 0, !dbg !2145
  store ptr %front_half.0, ptr %15, align 8, !dbg !2145
  %16 = getelementptr inbounds { ptr, i64 }, ptr %front_half.dbg.spill, i32 0, i32 1, !dbg !2145
  store i64 %front_half.1, ptr %16, align 8, !dbg !2145
  call void @llvm.dbg.declare(metadata ptr %front_half.dbg.spill, metadata !2101, metadata !DIExpression()), !dbg !2146
  %17 = getelementptr inbounds { { ptr, i64 }, { ptr, i64 } }, ptr %_11, i32 0, i32 1, !dbg !2147
  %18 = getelementptr inbounds { ptr, i64 }, ptr %17, i32 0, i32 0, !dbg !2147
  %back_half.0 = load ptr, ptr %18, align 8, !dbg !2147, !nonnull !24, !align !510, !noundef !24
  %19 = getelementptr inbounds { ptr, i64 }, ptr %17, i32 0, i32 1, !dbg !2147
  %back_half.1 = load i64, ptr %19, align 8, !dbg !2147, !noundef !24
  %20 = getelementptr inbounds { ptr, i64 }, ptr %back_half.dbg.spill, i32 0, i32 0, !dbg !2147
  store ptr %back_half.0, ptr %20, align 8, !dbg !2147
  %21 = getelementptr inbounds { ptr, i64 }, ptr %back_half.dbg.spill, i32 0, i32 1, !dbg !2147
  store i64 %back_half.1, ptr %21, align 8, !dbg !2147
  call void @llvm.dbg.declare(metadata ptr %back_half.dbg.spill, metadata !2103, metadata !DIExpression()), !dbg !2148
; call core::slice::<impl [T]>::reverse::revswap
  call void @"_ZN4core5slice29_$LT$impl$u20$$u5b$T$u5d$$GT$7reverse7revswap17h66cc69c3ef79de79E"(ptr align 8 %front_half.0, i64 %front_half.1, ptr align 8 %back_half.0, i64 %back_half.1, i64 %half_len) #10, !dbg !2149
  ret void, !dbg !2150
}

; core::slice::<impl [T]>::reverse::revswap
; Function Attrs: inlinehint noredzone nounwind
define void @"_ZN4core5slice29_$LT$impl$u20$$u5b$T$u5d$$GT$7reverse7revswap17h66cc69c3ef79de79E"(ptr align 8 %a.0, i64 %a.1, ptr align 8 %b.0, i64 %b.1, i64 %n) unnamed_addr #0 !dbg !2151 {
start:
  %b.dbg.spill6 = alloca { ptr, i64 }, align 8
  %a.dbg.spill3 = alloca { ptr, i64 }, align 8
  %n.dbg.spill = alloca i64, align 8
  %b.dbg.spill = alloca { ptr, i64 }, align 8
  %a.dbg.spill = alloca { ptr, i64 }, align 8
  %i = alloca i64, align 8
  %_24 = alloca i64, align 8
  %_21 = alloca i64, align 8
  %_18 = alloca { { ptr, i64 }, { ptr, i64 } }, align 8
  %0 = getelementptr inbounds { ptr, i64 }, ptr %a.dbg.spill, i32 0, i32 0
  store ptr %a.0, ptr %0, align 8
  %1 = getelementptr inbounds { ptr, i64 }, ptr %a.dbg.spill, i32 0, i32 1
  store i64 %a.1, ptr %1, align 8
  call void @llvm.dbg.declare(metadata ptr %a.dbg.spill, metadata !2156, metadata !DIExpression()), !dbg !2164
  %2 = getelementptr inbounds { ptr, i64 }, ptr %b.dbg.spill, i32 0, i32 0
  store ptr %b.0, ptr %2, align 8
  %3 = getelementptr inbounds { ptr, i64 }, ptr %b.dbg.spill, i32 0, i32 1
  store i64 %b.1, ptr %3, align 8
  call void @llvm.dbg.declare(metadata ptr %b.dbg.spill, metadata !2157, metadata !DIExpression()), !dbg !2165
  store i64 %n, ptr %n.dbg.spill, align 8
  call void @llvm.dbg.declare(metadata ptr %n.dbg.spill, metadata !2158, metadata !DIExpression()), !dbg !2166
  call void @llvm.dbg.declare(metadata ptr %i, metadata !2162, metadata !DIExpression()), !dbg !2167
  br i1 true, label %bb1, label %bb3, !dbg !2168

bb3:                                              ; preds = %bb1, %start
  br i1 true, label %bb4, label %bb6, !dbg !2169

bb1:                                              ; preds = %start
  %_6 = icmp eq i64 %a.1, %n, !dbg !2170
  %_5 = xor i1 %_6, true, !dbg !2168
  br i1 %_5, label %bb2, label %bb3, !dbg !2168

bb2:                                              ; preds = %bb1
; call core::panicking::panic
  call void @_ZN4core9panicking5panic17h277234a6cd982fe5E(ptr align 1 @alloc_dd0dc542054f5a3bd5e0287046a20794, i64 30, ptr align 8 @alloc_9bc869464e7f5dcda873bc5fba3167ae) #11, !dbg !2168
  unreachable, !dbg !2168

bb6:                                              ; preds = %bb4, %bb3
  store i64 %n, ptr %_21, align 8, !dbg !2171
  %4 = load i64, ptr %_21, align 8, !dbg !2172, !noundef !24
; call core::slice::index::<impl core::ops::index::IndexMut<I> for [T]>::index_mut
  %5 = call { ptr, i64 } @"_ZN4core5slice5index77_$LT$impl$u20$core..ops..index..IndexMut$LT$I$GT$$u20$for$u20$$u5b$T$u5d$$GT$9index_mut17h52cc5b82e1a95684E"(ptr align 8 %a.0, i64 %a.1, i64 %4, ptr align 8 @alloc_3aa494a7a9b07e5c1a0696cee8170daa) #10, !dbg !2172
  %_20.0 = extractvalue { ptr, i64 } %5, 0, !dbg !2172
  %_20.1 = extractvalue { ptr, i64 } %5, 1, !dbg !2172
  store i64 %n, ptr %_24, align 8, !dbg !2173
  %6 = load i64, ptr %_24, align 8, !dbg !2174, !noundef !24
; call core::slice::index::<impl core::ops::index::IndexMut<I> for [T]>::index_mut
  %7 = call { ptr, i64 } @"_ZN4core5slice5index77_$LT$impl$u20$core..ops..index..IndexMut$LT$I$GT$$u20$for$u20$$u5b$T$u5d$$GT$9index_mut17h52cc5b82e1a95684E"(ptr align 8 %b.0, i64 %b.1, i64 %6, ptr align 8 @alloc_fb8f45380652987d6b5bbea56a8e912e) #10, !dbg !2174
  %_23.0 = extractvalue { ptr, i64 } %7, 0, !dbg !2174
  %_23.1 = extractvalue { ptr, i64 } %7, 1, !dbg !2174
  %8 = getelementptr inbounds { ptr, i64 }, ptr %_18, i32 0, i32 0, !dbg !2175
  store ptr %_20.0, ptr %8, align 8, !dbg !2175
  %9 = getelementptr inbounds { ptr, i64 }, ptr %_18, i32 0, i32 1, !dbg !2175
  store i64 %_20.1, ptr %9, align 8, !dbg !2175
  %10 = getelementptr inbounds { { ptr, i64 }, { ptr, i64 } }, ptr %_18, i32 0, i32 1, !dbg !2175
  %11 = getelementptr inbounds { ptr, i64 }, ptr %10, i32 0, i32 0, !dbg !2175
  store ptr %_23.0, ptr %11, align 8, !dbg !2175
  %12 = getelementptr inbounds { ptr, i64 }, ptr %10, i32 0, i32 1, !dbg !2175
  store i64 %_23.1, ptr %12, align 8, !dbg !2175
  %13 = getelementptr inbounds { ptr, i64 }, ptr %_18, i32 0, i32 0, !dbg !2176
  %a.01 = load ptr, ptr %13, align 8, !dbg !2176, !nonnull !24, !align !510, !noundef !24
  %14 = getelementptr inbounds { ptr, i64 }, ptr %_18, i32 0, i32 1, !dbg !2176
  %a.12 = load i64, ptr %14, align 8, !dbg !2176, !noundef !24
  %15 = getelementptr inbounds { ptr, i64 }, ptr %a.dbg.spill3, i32 0, i32 0, !dbg !2176
  store ptr %a.01, ptr %15, align 8, !dbg !2176
  %16 = getelementptr inbounds { ptr, i64 }, ptr %a.dbg.spill3, i32 0, i32 1, !dbg !2176
  store i64 %a.12, ptr %16, align 8, !dbg !2176
  call void @llvm.dbg.declare(metadata ptr %a.dbg.spill3, metadata !2159, metadata !DIExpression()), !dbg !2177
  %17 = getelementptr inbounds { { ptr, i64 }, { ptr, i64 } }, ptr %_18, i32 0, i32 1, !dbg !2178
  %18 = getelementptr inbounds { ptr, i64 }, ptr %17, i32 0, i32 0, !dbg !2178
  %b.04 = load ptr, ptr %18, align 8, !dbg !2178, !nonnull !24, !align !510, !noundef !24
  %19 = getelementptr inbounds { ptr, i64 }, ptr %17, i32 0, i32 1, !dbg !2178
  %b.15 = load i64, ptr %19, align 8, !dbg !2178, !noundef !24
  %20 = getelementptr inbounds { ptr, i64 }, ptr %b.dbg.spill6, i32 0, i32 0, !dbg !2178
  store ptr %b.04, ptr %20, align 8, !dbg !2178
  %21 = getelementptr inbounds { ptr, i64 }, ptr %b.dbg.spill6, i32 0, i32 1, !dbg !2178
  store i64 %b.15, ptr %21, align 8, !dbg !2178
  call void @llvm.dbg.declare(metadata ptr %b.dbg.spill6, metadata !2161, metadata !DIExpression()), !dbg !2179
  store i64 0, ptr %i, align 8, !dbg !2180
  br label %bb9, !dbg !2181

bb4:                                              ; preds = %bb3
  %_12 = icmp eq i64 %b.1, %n, !dbg !2182
  %_11 = xor i1 %_12, true, !dbg !2169
  br i1 %_11, label %bb5, label %bb6, !dbg !2169

bb5:                                              ; preds = %bb4
; call core::panicking::panic
  call void @_ZN4core9panicking5panic17h277234a6cd982fe5E(ptr align 1 @alloc_deedf7aeab1a7c66b5420b58a4093bcc, i64 30, ptr align 8 @alloc_b8749fb97ee29c7317ad030bd8942a48) #11, !dbg !2169
  unreachable, !dbg !2169

bb9:                                              ; preds = %bb16, %bb6
  %_27 = load i64, ptr %i, align 8, !dbg !2183, !noundef !24
  %_26 = icmp ult i64 %_27, %n, !dbg !2183
  br i1 %_26, label %bb10, label %bb17, !dbg !2183

bb17:                                             ; preds = %bb9
  ret void, !dbg !2184

bb10:                                             ; preds = %bb9
  %_30 = load i64, ptr %i, align 8, !dbg !2185, !noundef !24
  %_32 = icmp ult i64 %_30, %a.12, !dbg !2186
  %22 = call i1 @llvm.expect.i1(i1 %_32, i1 true), !dbg !2186
  br i1 %22, label %bb11, label %panic, !dbg !2186

bb11:                                             ; preds = %bb10
  %_29 = getelementptr inbounds [0 x %"bootinfo::memory_map::MemoryRegion"], ptr %a.01, i64 0, i64 %_30, !dbg !2187
  %_36.0 = sub i64 %n, 1, !dbg !2188
  %_36.1 = icmp ult i64 %n, 1, !dbg !2188
  %23 = call i1 @llvm.expect.i1(i1 %_36.1, i1 false), !dbg !2188
  br i1 %23, label %panic7, label %bb12, !dbg !2188

panic:                                            ; preds = %bb10
; call core::panicking::panic_bounds_check
  call void @_ZN4core9panicking18panic_bounds_check17h19acf4b7d21fbddfE(i64 %_30, i64 %a.12, ptr align 8 @alloc_2d6a2ee37e528966f03d3441dddee676) #11, !dbg !2186
  unreachable, !dbg !2186

bb12:                                             ; preds = %bb11
  %_37 = load i64, ptr %i, align 8, !dbg !2189, !noundef !24
  %_38.0 = sub i64 %_36.0, %_37, !dbg !2188
  %_38.1 = icmp ult i64 %_36.0, %_37, !dbg !2188
  %24 = call i1 @llvm.expect.i1(i1 %_38.1, i1 false), !dbg !2188
  br i1 %24, label %panic8, label %bb13, !dbg !2188

panic7:                                           ; preds = %bb11
; call core::panicking::panic
  call void @_ZN4core9panicking5panic17h277234a6cd982fe5E(ptr align 1 @str.0, i64 33, ptr align 8 @alloc_aa932769fb5b51c12790c6d75b182bf2) #11, !dbg !2188
  unreachable, !dbg !2188

bb13:                                             ; preds = %bb12
  %_40 = icmp ult i64 %_38.0, %b.15, !dbg !2190
  %25 = call i1 @llvm.expect.i1(i1 %_40, i1 true), !dbg !2190
  br i1 %25, label %bb14, label %panic9, !dbg !2190

panic8:                                           ; preds = %bb12
; call core::panicking::panic
