; ModuleID = 'bootloader.b5fc60e9-cgu.0'
source_filename = "bootloader.b5fc60e9-cgu.0"
target datalayout = "e-m:e-i64:64-f80:128-n8:16:32:64-S128"
target triple = "x86_64-obuasi-unknown-none"

%"bootinfo::memory_map::MemoryRegion" = type { { i64, i64 }, i32, [1 x i32] }
%"core::fmt::Arguments<'_>" = type { { ptr, i64 }, { ptr, i64 }, { ptr, i64 } }
%"core::fmt::UnsafeArg" = type { {} }
%"core::mem::maybe_uninit::MaybeUninit<bootinfo::memory_map::MemoryRegion>" = type { [3 x i64] }
%"core::mem::manually_drop::ManuallyDrop<bootinfo::memory_map::MemoryRegion>" = type { %"bootinfo::memory_map::MemoryRegion" }
%"core::mem::manually_drop::ManuallyDrop<core::mem::maybe_uninit::MaybeUninit<bootinfo::memory_map::MemoryRegion>>" = type { %"core::mem::maybe_uninit::MaybeUninit<bootinfo::memory_map::MemoryRegion>" }
%"core::mem::maybe_uninit::MaybeUninit<core::mem::maybe_uninit::MaybeUninit<bootinfo::memory_map::MemoryRegion>>" = type { [3 x i64] }
%"core::ptr::metadata::PtrComponents<bootinfo::memory_map::MemoryRegion>" = type { ptr, {} }
%"core::ptr::metadata::PtrRepr<bootinfo::memory_map::MemoryRegion>" = type { [1 x i64] }
%"core::ptr::metadata::PtrRepr<[bootinfo::memory_map::MemoryRegion]>" = type { [2 x i64] }
%"[closure@/Users/yaw/.cargo/registry/src/github.com-1ecc6299db9ec823/bootloader-0.9.23/src/bootinfo/memory_map.rs:40:39: 40:47]" = type {}
%"[closure@core::slice::sort::choose_pivot<bootinfo::memory_map::MemoryRegion, [closure@core::slice::<impl [bootinfo::memory_map::MemoryRegion]>::sort_unstable_by<[closure@/Users/yaw/.cargo/registry/src/github.com-1ecc6299db9ec823/bootloader-0.9.23/src/bootinfo/memory_map.rs:40:39: 40:47]>::{closure#0}]>::{closure#0}]" = type { { ptr, i64 }, ptr, ptr }
%"core::option::Option<core::fmt::Arguments<'_>>" = type { [2 x i64], ptr, [3 x i64] }
%"bootinfo::TlsTemplate" = type { i64, i64, i64 }
%"core::option::Option<bootinfo::TlsTemplate>::Some" = type { [1 x i64], %"bootinfo::TlsTemplate" }
%"[closure@/Users/yaw/.cargo/registry/src/github.com-1ecc6299db9ec823/bootloader-0.9.23/src/bootinfo/memory_map.rs:58:70: 58:73]" = type {}
%"bootinfo::memory_map::MemoryMap" = type { [64 x %"bootinfo::memory_map::MemoryRegion"], i64 }
%"core::fmt::builders::DebugList<'_, '_>" = type { %"core::fmt::builders::DebugInner<'_, '_>" }
%"core::fmt::builders::DebugInner<'_, '_>" = type { ptr, i8, i8, [6 x i8] }
%"core::fmt::rt::v1::FormatSpec" = type { { i64, i64 }, { i64, i64 }, i32, i32, i8, [7 x i8] }
%"core::fmt::rt::v1::Argument" = type { %"core::fmt::rt::v1::FormatSpec", i64 }
%"bootinfo::memory_map::E820MemoryRegion" = type { i64, i64, i32, i32 }
%"bootinfo::BootInfo" = type { %"bootinfo::memory_map::MemoryMap", %"bootinfo::TlsTemplate", i8, [7 x i8] }
%"core::option::Option<bootinfo::TlsTemplate>" = type { i64, [3 x i64] }

@alloc308 = private unnamed_addr constant <{ [111 x i8] }> <{ [111 x i8] c"/Users/yaw/.rustup/toolchains/nightly-aarch64-apple-darwin/lib/rustlib/src/rust/library/core/src/slice/index.rs" }>, align 1
@alloc306 = private unnamed_addr constant <{ ptr, [16 x i8] }> <{ ptr @alloc308, [16 x i8] c"o\00\00\00\00\00\00\00\82\01\00\00G\00\00\00" }>, align 8
@str.0 = internal constant [33 x i8] c"attempt to subtract with overflow"
@alloc307 = private unnamed_addr constant <{ [97 x i8] }> <{ [97 x i8] c"unsafe precondition(s) violated: slice::get_unchecked requires that the range is within the slice" }>, align 1
@alloc309 = private unnamed_addr constant <{ ptr, [16 x i8] }> <{ ptr @alloc308, [16 x i8] c"o\00\00\00\00\00\00\00\90\01\00\00O\00\00\00" }>, align 8
@alloc310 = private unnamed_addr constant <{ [101 x i8] }> <{ [101 x i8] c"unsafe precondition(s) violated: slice::get_unchecked_mut requires that the range is within the slice" }>, align 1
@alloc315 = private unnamed_addr constant <{ [110 x i8] }> <{ [110 x i8] c"/Users/yaw/.rustup/toolchains/nightly-aarch64-apple-darwin/lib/rustlib/src/rust/library/core/src/intrinsics.rs" }>, align 1
@alloc312 = private unnamed_addr constant <{ ptr, [16 x i8] }> <{ ptr @alloc315, [16 x i8] c"n\00\00\00\00\00\00\00\D0\08\00\007\00\00\00" }>, align 8
@alloc314 = private unnamed_addr constant <{ ptr, [16 x i8] }> <{ ptr @alloc315, [16 x i8] c"n\00\00\00\00\00\00\00\D1\08\00\00+\00\00\00" }>, align 8
@alloc316 = private unnamed_addr constant <{ ptr, [16 x i8] }> <{ ptr @alloc315, [16 x i8] c"n\00\00\00\00\00\00\00\D1\08\00\00J\00\00\00" }>, align 8
@alloc318 = private unnamed_addr constant <{ [166 x i8] }> <{ [166 x i8] c"unsafe precondition(s) violated: ptr::copy_nonoverlapping requires that both pointer arguments are aligned and non-null and the specified memory ranges do not overlap" }>, align 1
@alloc320 = private unnamed_addr constant <{ [112 x i8] }> <{ [112 x i8] c"unsafe precondition(s) violated: ptr::copy requires that both pointer arguments are aligned aligned and non-null" }>, align 1
@vtable.1 = private constant <{ ptr, [16 x i8], ptr }> <{ ptr @"_ZN4core3ptr71drop_in_place$LT$$RF$bootloader..bootinfo..memory_map..MemoryRegion$GT$17h6cd5f1b8115212b0E", [16 x i8] c"\08\00\00\00\00\00\00\00\08\00\00\00\00\00\00\00", ptr @"_ZN42_$LT$$RF$T$u20$as$u20$core..fmt..Debug$GT$3fmt17hed44b9bd8ee3dbdeE" }>, align 8, !dbg !0
@alloc326 = private unnamed_addr constant <{ [107 x i8] }> <{ [107 x i8] c"/Users/yaw/.rustup/toolchains/nightly-aarch64-apple-darwin/lib/rustlib/src/rust/library/core/src/fmt/mod.rs" }>, align 1
@alloc325 = private unnamed_addr constant <{ ptr, [16 x i8] }> <{ ptr @alloc326, [16 x i8] c"k\00\00\00\00\00\00\00\92\01\00\008\00\00\00" }>, align 8
@str.2 = internal constant [28 x i8] c"attempt to add with overflow"
@alloc80 = private unnamed_addr constant <{ [12 x i8] }> <{ [12 x i8] c"invalid args" }>, align 1
@alloc79 = private unnamed_addr constant <{ ptr, [8 x i8] }> <{ ptr @alloc80, [8 x i8] c"\0C\00\00\00\00\00\00\00" }>, align 8
@alloc94 = private unnamed_addr constant <{}> zeroinitializer, align 8
@alloc327 = private unnamed_addr constant <{ ptr, [16 x i8] }> <{ ptr @alloc326, [16 x i8] c"k\00\00\00\00\00\00\00\93\01\00\00\0D\00\00\00" }>, align 8
@alloc328 = private unnamed_addr constant <{ [107 x i8] }> <{ [107 x i8] c"/Users/yaw/.rustup/toolchains/nightly-aarch64-apple-darwin/lib/rustlib/src/rust/library/core/src/mem/mod.rs" }>, align 1
@alloc329 = private unnamed_addr constant <{ ptr, [16 x i8] }> <{ ptr @alloc328, [16 x i8] c"k\00\00\00\00\00\00\00\DE\02\00\00\0C\00\00\00" }>, align 8
@str.3 = internal constant [25 x i8] c"attempt to divide by zero"
@alloc330 = private unnamed_addr constant <{ [107 x i8] }> <{ [107 x i8] c"/Users/yaw/.rustup/toolchains/nightly-aarch64-apple-darwin/lib/rustlib/src/rust/library/core/src/num/mod.rs" }>, align 1
@alloc331 = private unnamed_addr constant <{ ptr, [16 x i8] }> <{ ptr @alloc330, [16 x i8] c"k\00\00\00\00\00\00\00\B9\03\00\00\05\00\00\00" }>, align 8
@str.4 = internal constant [36 x i8] c"attempt to shift right with overflow"
@alloc341 = private unnamed_addr constant <{ [107 x i8] }> <{ [107 x i8] c"/Users/yaw/.rustup/toolchains/nightly-aarch64-apple-darwin/lib/rustlib/src/rust/library/core/src/ptr/mod.rs" }>, align 1
@alloc333 = private unnamed_addr constant <{ ptr, [16 x i8] }> <{ ptr @alloc341, [16 x i8] c"k\00\00\00\00\00\00\00\AC\03\00\00&\00\00\00" }>, align 8
@str.5 = internal constant [33 x i8] c"attempt to multiply with overflow"
@alloc335 = private unnamed_addr constant <{ ptr, [16 x i8] }> <{ ptr @alloc341, [16 x i8] c"k\00\00\00\00\00\00\00\AE\03\00\00\09\00\00\00" }>, align 8
@str.6 = internal constant [57 x i8] c"attempt to calculate the remainder with a divisor of zero"
@alloc337 = private unnamed_addr constant <{ ptr, [16 x i8] }> <{ ptr @alloc341, [16 x i8] c"k\00\00\00\00\00\00\00\AF\03\00\00\09\00\00\00" }>, align 8
@alloc338 = private unnamed_addr constant <{ [166 x i8] }> <{ [166 x i8] c"unsafe precondition(s) violated: ptr::swap_nonoverlapping requires that both pointer arguments are aligned and non-null and the specified memory ranges do not overlap" }>, align 1
@alloc340 = private unnamed_addr constant <{ ptr, [16 x i8] }> <{ ptr @alloc341, [16 x i8] c"k\00\00\00\00\00\00\00\C8\03\00\00\09\00\00\00" }>, align 8
@alloc342 = private unnamed_addr constant <{ ptr, [16 x i8] }> <{ ptr @alloc341, [16 x i8] c"k\00\00\00\00\00\00\00\86\04\00\00\0D\00\00\00" }>, align 8
@alloc344 = private unnamed_addr constant <{ [101 x i8] }> <{ [101 x i8] c"unsafe precondition(s) violated: ptr::read requires that the pointer argument is aligned and non-null" }>, align 1
@alloc346 = private unnamed_addr constant <{ [102 x i8] }> <{ [102 x i8] c"unsafe precondition(s) violated: ptr::write requires that the pointer argument is aligned and non-null" }>, align 1
@alloc347 = private unnamed_addr constant <{ [93 x i8] }> <{ [93 x i8] c"unsafe precondition(s) violated: NonNull::new_unchecked requires that the pointer is non-null" }>, align 1
@alloc353 = private unnamed_addr constant <{ [113 x i8] }> <{ [113 x i8] c"/Users/yaw/.rustup/toolchains/nightly-aarch64-apple-darwin/lib/rustlib/src/rust/library/core/src/ptr/const_ptr.rs" }>, align 1
@alloc349 = private unnamed_addr constant <{ ptr, [16 x i8] }> <{ ptr @alloc353, [16 x i8] c"q\00\00\00\00\00\00\007\06\00\00\1A\00\00\00" }>, align 8
@alloc92 = private unnamed_addr constant <{ [42 x i8] }> <{ [42 x i8] c"is_aligned_to: align is not a power-of-two" }>, align 1
@alloc91 = private unnamed_addr constant <{ ptr, [8 x i8] }> <{ ptr @alloc92, [8 x i8] c"*\00\00\00\00\00\00\00" }>, align 8
@alloc351 = private unnamed_addr constant <{ ptr, [16 x i8] }> <{ ptr @alloc353, [16 x i8] c"q\00\00\00\00\00\00\002\06\00\00\0D\00\00\00" }>, align 8
@alloc352 = private unnamed_addr constant <{ [73 x i8] }> <{ [73 x i8] c"assertion failed: 0 < pointee_size && pointee_size <= isize::MAX as usize" }>, align 1
@alloc354 = private unnamed_addr constant <{ ptr, [16 x i8] }> <{ ptr @alloc353, [16 x i8] c"q\00\00\00\00\00\00\00&\03\00\00\09\00\00\00" }>, align 8
@alloc355 = private unnamed_addr constant <{ [71 x i8] }> <{ [71 x i8] c"unsafe precondition(s) violated: ptr::sub_ptr requires `this >= origin`" }>, align 1
@alloc356 = private unnamed_addr constant <{ [35 x i8] }> <{ [35 x i8] c"assertion failed: mid <= self.len()" }>, align 1
@alloc68 = private unnamed_addr constant <{ [1 x i8] }> <{ [1 x i8] c"\FF" }>, align 1
@alloc376 = private unnamed_addr constant <{ [109 x i8] }> <{ [109 x i8] c"/Users/yaw/.rustup/toolchains/nightly-aarch64-apple-darwin/lib/rustlib/src/rust/library/core/src/slice/mod.rs" }>, align 1
@alloc358 = private unnamed_addr constant <{ ptr, [16 x i8] }> <{ ptr @alloc376, [16 x i8] c"m\00\00\00\00\00\00\00\D7\06\00\00M\00\00\00" }>, align 8
@alloc359 = private unnamed_addr constant <{ [104 x i8] }> <{ [104 x i8] c"unsafe precondition(s) violated: slice::split_at_mut_unchecked requires the index to be within the slice" }>, align 1
@alloc360 = private unnamed_addr constant <{ [30 x i8] }> <{ [30 x i8] c"assertion failed: a.len() == n" }>, align 1
@alloc362 = private unnamed_addr constant <{ ptr, [16 x i8] }> <{ ptr @alloc376, [16 x i8] c"m\00\00\00\00\00\00\00\C3\02\00\00\0D\00\00\00" }>, align 8
@alloc363 = private unnamed_addr constant <{ [30 x i8] }> <{ [30 x i8] c"assertion failed: b.len() == n" }>, align 1
@alloc365 = private unnamed_addr constant <{ ptr, [16 x i8] }> <{ ptr @alloc376, [16 x i8] c"m\00\00\00\00\00\00\00\C4\02\00\00\0D\00\00\00" }>, align 8
@alloc367 = private unnamed_addr constant <{ ptr, [16 x i8] }> <{ ptr @alloc376, [16 x i8] c"m\00\00\00\00\00\00\00\CA\02\00\00 \00\00\00" }>, align 8
@alloc369 = private unnamed_addr constant <{ ptr, [16 x i8] }> <{ ptr @alloc376, [16 x i8] c"m\00\00\00\00\00\00\00\CA\02\00\00-\00\00\00" }>, align 8
@alloc371 = private unnamed_addr constant <{ ptr, [16 x i8] }> <{ ptr @alloc376, [16 x i8] c"m\00\00\00\00\00\00\00\CE\02\00\00 \00\00\00" }>, align 8
@alloc373 = private unnamed_addr constant <{ ptr, [16 x i8] }> <{ ptr @alloc376, [16 x i8] c"m\00\00\00\00\00\00\00\CE\02\00\00-\00\00\00" }>, align 8
@alloc375 = private unnamed_addr constant <{ ptr, [16 x i8] }> <{ ptr @alloc376, [16 x i8] c"m\00\00\00\00\00\00\00\CE\02\00\00+\00\00\00" }>, align 8
@alloc377 = private unnamed_addr constant <{ ptr, [16 x i8] }> <{ ptr @alloc376, [16 x i8] c"m\00\00\00\00\00\00\00\CF\02\00\00\11\00\00\00" }>, align 8
@alloc378 = private unnamed_addr constant <{ [166 x i8] }> <{ [166 x i8] c"unsafe precondition(s) violated: slice::from_raw_parts_mut requires the pointer to be aligned and non-null, and the total size of the slice not to exceed `isize::MAX`" }>, align 1
@alloc541 = private unnamed_addr constant <{ [110 x i8] }> <{ [110 x i8] c"/Users/yaw/.rustup/toolchains/nightly-aarch64-apple-darwin/lib/rustlib/src/rust/library/core/src/slice/sort.rs" }>, align 1
@alloc380 = private unnamed_addr constant <{ ptr, [16 x i8] }> <{ ptr @alloc541, [16 x i8] c"n\00\00\00\00\00\00\00G\00\00\00:\00\00\00" }>, align 8
@alloc382 = private unnamed_addr constant <{ ptr, [16 x i8] }> <{ ptr @alloc541, [16 x i8] c"n\00\00\00\00\00\00\00f\00\00\000\00\00\00" }>, align 8
@alloc384 = private unnamed_addr constant <{ ptr, [16 x i8] }> <{ ptr @alloc541, [16 x i8] c"n\00\00\00\00\00\00\00f\00\00\00J\00\00\00" }>, align 8
@alloc386 = private unnamed_addr constant <{ ptr, [16 x i8] }> <{ ptr @alloc541, [16 x i8] c"n\00\00\00\00\00\00\00j\00\00\00H\00\00\00" }>, align 8
@alloc388 = private unnamed_addr constant <{ ptr, [16 x i8] }> <{ ptr @alloc541, [16 x i8] c"n\00\00\00\00\00\00\00l\00\00\00A\00\00\00" }>, align 8
@alloc390 = private unnamed_addr constant <{ ptr, [16 x i8] }> <{ ptr @alloc541, [16 x i8] c"n\00\00\00\00\00\00\00m\00\00\00,\00\00\00" }>, align 8
@alloc392 = private unnamed_addr constant <{ ptr, [16 x i8] }> <{ ptr @alloc541, [16 x i8] c"n\00\00\00\00\00\00\00m\00\00\00<\00\00\00" }>, align 8
@alloc394 = private unnamed_addr constant <{ ptr, [16 x i8] }> <{ ptr @alloc541, [16 x i8] c"n\00\00\00\00\00\00\00o\00\00\00\1A\00\00\00" }>, align 8
@alloc396 = private unnamed_addr constant <{ ptr, [16 x i8] }> <{ ptr @alloc541, [16 x i8] c"n\00\00\00\00\00\00\00u\00\00\00:\00\00\00" }>, align 8
@alloc398 = private unnamed_addr constant <{ ptr, [16 x i8] }> <{ ptr @alloc541, [16 x i8] c"n\00\00\00\00\00\00\00\9D\02\00\00\11\00\00\00" }>, align 8
@alloc400 = private unnamed_addr constant <{ ptr, [16 x i8] }> <{ ptr @alloc541, [16 x i8] c"n\00\00\00\00\00\00\00\9E\02\00\00\11\00\00\00" }>, align 8
@alloc402 = private unnamed_addr constant <{ ptr, [16 x i8] }> <{ ptr @alloc541, [16 x i8] c"n\00\00\00\00\00\00\00\9F\02\00\00\11\00\00\00" }>, align 8
@alloc404 = private unnamed_addr constant <{ ptr, [16 x i8] }> <{ ptr @alloc541, [16 x i8] c"n\00\00\00\00\00\00\00\D1\02\00\00\0A\00\00\00" }>, align 8
@alloc406 = private unnamed_addr constant <{ ptr, [16 x i8] }> <{ ptr @alloc541, [16 x i8] c"n\00\00\00\00\00\00\00\BE\02\00\00\1C\00\00\00" }>, align 8
@alloc408 = private unnamed_addr constant <{ ptr, [16 x i8] }> <{ ptr @alloc541, [16 x i8] c"n\00\00\00\00\00\00\00\BE\02\00\00/\00\00\00" }>, align 8
@alloc410 = private unnamed_addr constant <{ ptr, [16 x i8] }> <{ ptr @alloc541, [16 x i8] c"n\00\00\00\00\00\00\00\AF\02\00\00\11\00\00\00" }>, align 8
@alloc412 = private unnamed_addr constant <{ ptr, [16 x i8] }> <{ ptr @alloc541, [16 x i8] c"n\00\00\00\00\00\00\00{\02\00\00\13\00\00\00" }>, align 8
@alloc414 = private unnamed_addr constant <{ ptr, [16 x i8] }> <{ ptr @alloc541, [16 x i8] c"n\00\00\00\00\00\00\00\81\02\00\00+\00\00\00" }>, align 8
@alloc416 = private unnamed_addr constant <{ ptr, [16 x i8] }> <{ ptr @alloc541, [16 x i8] c"n\00\00\00\00\00\00\00\85\02\00\00\11\00\00\00" }>, align 8
@alloc418 = private unnamed_addr constant <{ ptr, [16 x i8] }> <{ ptr @alloc541, [16 x i8] c"n\00\00\00\00\00\00\00\88\02\00\00\14\00\00\00" }>, align 8
@alloc420 = private unnamed_addr constant <{ ptr, [16 x i8] }> <{ ptr @alloc541, [16 x i8] c"n\00\00\00\00\00\00\00\88\02\00\00\0F\00\00\00" }>, align 8
@alloc422 = private unnamed_addr constant <{ ptr, [16 x i8] }> <{ ptr @alloc541, [16 x i8] c"n\00\00\00\00\00\00\00\B4\00\00\00\1D\00\00\00" }>, align 8
@alloc424 = private unnamed_addr constant <{ ptr, [16 x i8] }> <{ ptr @alloc541, [16 x i8] c"n\00\00\00\00\00\00\00\B4\00\00\00\19\00\00\00" }>, align 8
@alloc426 = private unnamed_addr constant <{ ptr, [16 x i8] }> <{ ptr @alloc541, [16 x i8] c"n\00\00\00\00\00\00\00.\02\00\00\07\00\00\00" }>, align 8
@alloc428 = private unnamed_addr constant <{ ptr, [16 x i8] }> <{ ptr @alloc541, [16 x i8] c"n\00\00\00\00\00\00\00/\02\00\00\18\00\00\00" }>, align 8
@alloc430 = private unnamed_addr constant <{ ptr, [16 x i8] }> <{ ptr @alloc541, [16 x i8] c"n\00\00\00\00\00\00\000\02\00\00\16\00\00\00" }>, align 8
@alloc432 = private unnamed_addr constant <{ ptr, [16 x i8] }> <{ ptr @alloc541, [16 x i8] c"n\00\00\00\00\00\00\00D\02\00\00\11\00\00\00" }>, align 8
@alloc434 = private unnamed_addr constant <{ ptr, [16 x i8] }> <{ ptr @alloc541, [16 x i8] c"n\00\00\00\00\00\00\00H\02\00\00;\00\00\00" }>, align 8
@alloc436 = private unnamed_addr constant <{ ptr, [16 x i8] }> <{ ptr @alloc541, [16 x i8] c"n\00\00\00\00\00\00\00I\02\00\00\11\00\00\00" }>, align 8
@alloc438 = private unnamed_addr constant <{ ptr, [16 x i8] }> <{ ptr @alloc541, [16 x i8] c"n\00\00\00\00\00\00\00Z\02\00\00\05\00\00\00" }>, align 8
@alloc440 = private unnamed_addr constant <{ ptr, [16 x i8] }> <{ ptr @alloc541, [16 x i8] c"n\00\00\00\00\00\00\00R\02\00\00\0D\00\00\00" }>, align 8
@alloc442 = private unnamed_addr constant <{ ptr, [16 x i8] }> <{ ptr @alloc541, [16 x i8] c"n\00\00\00\00\00\00\00U\02\00\00\0D\00\00\00" }>, align 8
@alloc444 = private unnamed_addr constant <{ ptr, [16 x i8] }> <{ ptr @alloc541, [16 x i8] c"n\00\00\00\00\00\00\00'\01\00\00\11\00\00\00" }>, align 8
@alloc446 = private unnamed_addr constant <{ ptr, [16 x i8] }> <{ ptr @alloc541, [16 x i8] c"n\00\00\00\00\00\00\005\01\00\00\1B\00\00\00" }>, align 8
@alloc447 = private unnamed_addr constant <{ [54 x i8] }> <{ [54 x i8] c"assertion failed: block_l <= BLOCK && block_r <= BLOCK" }>, align 1
@alloc449 = private unnamed_addr constant <{ ptr, [16 x i8] }> <{ ptr @alloc541, [16 x i8] c"n\00\00\00\00\00\00\007\01\00\00\0D\00\00\00" }>, align 8
@alloc451 = private unnamed_addr constant <{ ptr, [16 x i8] }> <{ ptr @alloc541, [16 x i8] c"n\00\00\00\00\00\00\008\01\00\00*\00\00\00" }>, align 8
@alloc452 = private unnamed_addr constant <{ [50 x i8] }> <{ [50 x i8] c"assertion failed: width(l, r) == block_l + block_r" }>, align 1
@alloc454 = private unnamed_addr constant <{ ptr, [16 x i8] }> <{ ptr @alloc541, [16 x i8] c"n\00\00\00\00\00\00\008\01\00\00\0D\00\00\00" }>, align 8
@alloc456 = private unnamed_addr constant <{ ptr, [16 x i8] }> <{ ptr @alloc541, [16 x i8] c"n\00\00\00\00\00\00\00\94\01\00\00*\00\00\00" }>, align 8
@alloc458 = private unnamed_addr constant <{ ptr, [16 x i8] }> <{ ptr @alloc541, [16 x i8] c"n\00\00\00\00\00\00\00\98\01\00\007\00\00\00" }>, align 8
@alloc460 = private unnamed_addr constant <{ ptr, [16 x i8] }> <{ ptr @alloc541, [16 x i8] c"n\00\00\00\00\00\00\00\9A\01\00\00.\00\00\00" }>, align 8
@alloc462 = private unnamed_addr constant <{ ptr, [16 x i8] }> <{ ptr @alloc541, [16 x i8] c"n\00\00\00\00\00\00\00\9D\01\00\000\00\00\00" }>, align 8
@alloc464 = private unnamed_addr constant <{ ptr, [16 x i8] }> <{ ptr @alloc541, [16 x i8] c"n\00\00\00\00\00\00\00\C4\01\00\00\09\00\00\00" }>, align 8
@alloc466 = private unnamed_addr constant <{ ptr, [16 x i8] }> <{ ptr @alloc541, [16 x i8] c"n\00\00\00\00\00\00\00\DB\01\00\00\09\00\00\00" }>, align 8
@alloc468 = private unnamed_addr constant <{ ptr, [16 x i8] }> <{ ptr @alloc541, [16 x i8] c"n\00\00\00\00\00\00\00\E0\01\00\00$\00\00\00" }>, align 8
@alloc474 = private unnamed_addr constant <{ [41 x i8] }> <{ [41 x i8] c"assertion failed: mem::size_of::<T>() > 0" }>, align 1
@alloc471 = private unnamed_addr constant <{ ptr, [16 x i8] }> <{ ptr @alloc541, [16 x i8] c"n\00\00\00\00\00\00\00\18\01\00\00\09\00\00\00" }>, align 8
@alloc473 = private unnamed_addr constant <{ ptr, [16 x i8] }> <{ ptr @alloc541, [16 x i8] c"n\00\00\00\00\00\00\00\1B\01\00\00\09\00\00\00" }>, align 8
@alloc476 = private unnamed_addr constant <{ ptr, [16 x i8] }> <{ ptr @alloc541, [16 x i8] c"n\00\00\00\00\00\00\00\92\00\00\00K\00\00\00" }>, align 8
@alloc478 = private unnamed_addr constant <{ ptr, [16 x i8] }> <{ ptr @alloc541, [16 x i8] c"n\00\00\00\00\00\00\00\93\00\00\00\11\00\00\00" }>, align 8
@alloc480 = private unnamed_addr constant <{ ptr, [16 x i8] }> <{ ptr @alloc541, [16 x i8] c"n\00\00\00\00\00\00\00\A2\00\00\00\10\00\00\00" }>, align 8
@alloc482 = private unnamed_addr constant <{ ptr, [16 x i8] }> <{ ptr @alloc541, [16 x i8] c"n\00\00\00\00\00\00\00\A2\00\00\00\0B\00\00\00" }>, align 8
@alloc484 = private unnamed_addr constant <{ ptr, [16 x i8] }> <{ ptr @alloc541, [16 x i8] c"n\00\00\00\00\00\00\00\A5\00\00\00\19\00\00\00" }>, align 8
@alloc486 = private unnamed_addr constant <{ ptr, [16 x i8] }> <{ ptr @alloc541, [16 x i8] c"n\00\00\00\00\00\00\00\A7\00\00\00\19\00\00\00" }>, align 8
@alloc488 = private unnamed_addr constant <{ ptr, [16 x i8] }> <{ ptr @alloc541, [16 x i8] c"n\00\00\00\00\00\00\00\FB\02\00\00\0D\00\00\00" }>, align 8
@alloc490 = private unnamed_addr constant <{ ptr, [16 x i8] }> <{ ptr @alloc541, [16 x i8] c"n\00\00\00\00\00\00\00\0F\03\00\00\1D\00\00\00" }>, align 8
@alloc492 = private unnamed_addr constant <{ ptr, [16 x i8] }> <{ ptr @alloc541, [16 x i8] c"n\00\00\00\00\00\00\00\13\03\00\00\1A\00\00\00" }>, align 8
@alloc494 = private unnamed_addr constant <{ ptr, [16 x i8] }> <{ ptr @alloc541, [16 x i8] c"n\00\00\00\00\00\00\00\1A\03\00\00&\00\00\00" }>, align 8
@alloc496 = private unnamed_addr constant <{ ptr, [16 x i8] }> <{ ptr @alloc541, [16 x i8] c"n\00\00\00\00\00\00\00\1E\03\00\00\1F\00\00\00" }>, align 8
@alloc498 = private unnamed_addr constant <{ ptr, [16 x i8] }> <{ ptr @alloc541, [16 x i8] c"n\00\00\00\00\00\00\00\1F\03\00\00$\00\00\00" }>, align 8
@alloc500 = private unnamed_addr constant <{ ptr, [16 x i8] }> <{ ptr @alloc541, [16 x i8] c"n\00\00\00\00\00\00\00 \03\00\00\16\00\00\00" }>, align 8
@alloc502 = private unnamed_addr constant <{ ptr, [16 x i8] }> <{ ptr @alloc541, [16 x i8] c"n\00\00\00\00\00\00\00\E2\00\00\00\0B\00\00\00" }>, align 8
@alloc504 = private unnamed_addr constant <{ ptr, [16 x i8] }> <{ ptr @alloc541, [16 x i8] c"n\00\00\00\00\00\00\00\E3\00\00\00\18\00\00\00" }>, align 8
@alloc506 = private unnamed_addr constant <{ ptr, [16 x i8] }> <{ ptr @alloc541, [16 x i8] c"n\00\00\00\00\00\00\00\C3\00\00\00\1D\00\00\00" }>, align 8
@alloc508 = private unnamed_addr constant <{ ptr, [16 x i8] }> <{ ptr @alloc541, [16 x i8] c"n\00\00\00\00\00\00\00\C9\00\00\00\10\00\00\00" }>, align 8
@alloc510 = private unnamed_addr constant <{ ptr, [16 x i8] }> <{ ptr @alloc541, [16 x i8] c"n\00\00\00\00\00\00\00\CD\00\00\00#\00\00\00" }>, align 8
@alloc512 = private unnamed_addr constant <{ ptr, [16 x i8] }> <{ ptr @alloc541, [16 x i8] c"n\00\00\00\00\00\00\00\CD\00\00\000\00\00\00" }>, align 8
@alloc514 = private unnamed_addr constant <{ ptr, [16 x i8] }> <{ ptr @alloc541, [16 x i8] c"n\00\00\00\00\00\00\00\CD\00\00\00.\00\00\00" }>, align 8
@alloc516 = private unnamed_addr constant <{ ptr, [16 x i8] }> <{ ptr @alloc541, [16 x i8] c"n\00\00\00\00\00\00\00\CD\00\00\00\11\00\00\00" }>, align 8
@alloc518 = private unnamed_addr constant <{ ptr, [16 x i8] }> <{ ptr @alloc541, [16 x i8] c"n\00\00\00\00\00\00\00\D1\00\00\00\1A\00\00\00" }>, align 8
@alloc520 = private unnamed_addr constant <{ ptr, [16 x i8] }> <{ ptr @alloc541, [16 x i8] c"n\00\00\00\00\00\00\00\D1\00\00\00$\00\00\00" }>, align 8
@alloc522 = private unnamed_addr constant <{ ptr, [16 x i8] }> <{ ptr @alloc541, [16 x i8] c"n\00\00\00\00\00\00\00\D6\00\00\00\0F\00\00\00" }>, align 8
@alloc524 = private unnamed_addr constant <{ ptr, [16 x i8] }> <{ ptr @alloc541, [16 x i8] c"n\00\00\00\00\00\00\00\F8\01\00\00\0B\00\00\00" }>, align 8
@alloc526 = private unnamed_addr constant <{ ptr, [16 x i8] }> <{ ptr @alloc541, [16 x i8] c"n\00\00\00\00\00\00\00\F9\01\00\00\1C\00\00\00" }>, align 8
@alloc528 = private unnamed_addr constant <{ ptr, [16 x i8] }> <{ ptr @alloc541, [16 x i8] c"n\00\00\00\00\00\00\00\FA\01\00\00\1A\00\00\00" }>, align 8
@alloc530 = private unnamed_addr constant <{ ptr, [16 x i8] }> <{ ptr @alloc541, [16 x i8] c"n\00\00\00\00\00\00\00\0F\02\00\00\11\00\00\00" }>, align 8
@alloc532 = private unnamed_addr constant <{ ptr, [16 x i8] }> <{ ptr @alloc541, [16 x i8] c"n\00\00\00\00\00\00\00\13\02\00\005\00\00\00" }>, align 8
@alloc534 = private unnamed_addr constant <{ ptr, [16 x i8] }> <{ ptr @alloc541, [16 x i8] c"n\00\00\00\00\00\00\00\14\02\00\00\11\00\00\00" }>, align 8
@alloc536 = private unnamed_addr constant <{ ptr, [16 x i8] }> <{ ptr @alloc541, [16 x i8] c"n\00\00\00\00\00\00\00\18\02\00\00'\00\00\00" }>, align 8
@alloc538 = private unnamed_addr constant <{ ptr, [16 x i8] }> <{ ptr @alloc541, [16 x i8] c"n\00\00\00\00\00\00\00\18\02\00\00\0A\00\00\00" }>, align 8
@alloc540 = private unnamed_addr constant <{ ptr, [16 x i8] }> <{ ptr @alloc541, [16 x i8] c"n\00\00\00\00\00\00\00 \02\00\00\07\00\00\00" }>, align 8
@alloc542 = private unnamed_addr constant <{ ptr, [16 x i8] }> <{ ptr @alloc541, [16 x i8] c"n\00\00\00\00\00\00\00;\03\00\00\11\00\00\00" }>, align 8
@alloc543 = private unnamed_addr constant <{ [97 x i8] }> <{ [97 x i8] c"unsafe precondition(s) violated: slice::get_unchecked requires that the index is within the slice" }>, align 1
@alloc544 = private unnamed_addr constant <{ [110 x i8] }> <{ [110 x i8] c"/Users/yaw/.rustup/toolchains/nightly-aarch64-apple-darwin/lib/rustlib/src/rust/library/core/src/slice/iter.rs" }>, align 1
@alloc545 = private unnamed_addr constant <{ ptr, [16 x i8] }> <{ ptr @alloc544, [16 x i8] c"n\00\00\00\00\00\00\00\7F\00\00\00\01\00\00\00" }>, align 8
@alloc546 = private unnamed_addr constant <{ [37 x i8] }> <{ [37 x i8] c"too many memory regions in memory map" }>, align 1
@alloc567 = private unnamed_addr constant <{ [103 x i8] }> <{ [103 x i8] c"/Users/yaw/.cargo/registry/src/github.com-1ecc6299db9ec823/bootloader-0.9.23/src/bootinfo/memory_map.rs" }>, align 1
@alloc548 = private unnamed_addr constant <{ ptr, [16 x i8] }> <{ ptr @alloc567, [16 x i8] c"g\00\00\00\00\00\00\00\1C\00\00\00\09\00\00\00" }>, align 8
@alloc550 = private unnamed_addr constant <{ ptr, [16 x i8] }> <{ ptr @alloc567, [16 x i8] c"g\00\00\00\00\00\00\00 \00\00\00\09\00\00\00" }>, align 8
@alloc552 = private unnamed_addr constant <{ ptr, [16 x i8] }> <{ ptr @alloc567, [16 x i8] c"g\00\00\00\00\00\00\00!\00\00\00\09\00\00\00" }>, align 8
@alloc70 = private unnamed_addr constant <{ [1 x i8] }> zeroinitializer, align 1
@alloc554 = private unnamed_addr constant <{ ptr, [16 x i8] }> <{ ptr @alloc567, [16 x i8] c"g\00\00\00\00\00\00\00H\00\00\00\0A\00\00\00" }>, align 8
@alloc556 = private unnamed_addr constant <{ ptr, [16 x i8] }> <{ ptr @alloc567, [16 x i8] c"g\00\00\00\00\00\00\00O\00\00\00\0E\00\00\00" }>, align 8
@alloc558 = private unnamed_addr constant <{ ptr, [16 x i8] }> <{ ptr @alloc567, [16 x i8] c"g\00\00\00\00\00\00\00\85\00\00\00\19\00\00\00" }>, align 8
@alloc560 = private unnamed_addr constant <{ ptr, [16 x i8] }> <{ ptr @alloc567, [16 x i8] c"g\00\00\00\00\00\00\00\88\00\00\00\1F\00\00\00" }>, align 8
@alloc562 = private unnamed_addr constant <{ ptr, [16 x i8] }> <{ ptr @alloc567, [16 x i8] c"g\00\00\00\00\00\00\00\93\00\00\00\09\00\00\00" }>, align 8
@alloc564 = private unnamed_addr constant <{ ptr, [16 x i8] }> <{ ptr @alloc567, [16 x i8] c"g\00\00\00\00\00\00\00\98\00\00\00\09\00\00\00" }>, align 8
@alloc127 = private unnamed_addr constant <{ [11 x i8] }> <{ [11 x i8] c"FrameRange(" }>, align 1
@alloc128 = private unnamed_addr constant <{ [2 x i8] }> <{ [2 x i8] c".." }>, align 1
@alloc129 = private unnamed_addr constant <{ [1 x i8] }> <{ [1 x i8] c")" }>, align 1
@alloc126 = private unnamed_addr constant <{ ptr, [8 x i8], ptr, [8 x i8], ptr, [8 x i8] }> <{ ptr @alloc127, [8 x i8] c"\0B\00\00\00\00\00\00\00", ptr @alloc128, [8 x i8] c"\02\00\00\00\00\00\00\00", ptr @alloc129, [8 x i8] c"\01\00\00\00\00\00\00\00" }>, align 8
@alloc241 = private unnamed_addr constant <{ [20 x i8] }> <{ [20 x i8] c"invalid region type " }>, align 1
@alloc240 = private unnamed_addr constant <{ ptr, [8 x i8] }> <{ ptr @alloc241, [8 x i8] c"\14\00\00\00\00\00\00\00" }>, align 8
@alloc566 = private unnamed_addr constant <{ ptr, [16 x i8] }> <{ ptr @alloc567, [16 x i8] c"g\00\00\00\00\00\00\00\E1\00\00\00\12\00\00\00" }>, align 8
@alloc568 = private unnamed_addr constant <{ ptr, [16 x i8] }> <{ ptr @alloc567, [16 x i8] c"g\00\00\00\00\00\00\00\E4\00\00\007\00\00\00" }>, align 8
@alloc569 = private unnamed_addr constant <{ [12 x i8] }> <{ [12 x i8] c"MemoryRegion" }>, align 1
@alloc570 = private unnamed_addr constant <{ [5 x i8] }> <{ [5 x i8] c"range" }>, align 1
@vtable.7 = private constant <{ ptr, [16 x i8], ptr }> <{ ptr @"_ZN4core3ptr65drop_in_place$LT$bootloader..bootinfo..memory_map..FrameRange$GT$17hd4ef22c4c84fb4d2E", [16 x i8] c"\10\00\00\00\00\00\00\00\08\00\00\00\00\00\00\00", ptr @"_ZN81_$LT$bootloader..bootinfo..memory_map..FrameRange$u20$as$u20$core..fmt..Debug$GT$3fmt17h61625f50b9b3ba1dE" }>, align 8, !dbg !44
@alloc599 = private unnamed_addr constant <{ [11 x i8] }> <{ [11 x i8] c"region_type" }>, align 1
@vtable.8 = private constant <{ ptr, [16 x i8], ptr }> <{ ptr @"_ZN4core3ptr75drop_in_place$LT$$RF$bootloader..bootinfo..memory_map..MemoryRegionType$GT$17h8f43e2f0a51512a2E", [16 x i8] c"\08\00\00\00\00\00\00\00\08\00\00\00\00\00\00\00", ptr @"_ZN42_$LT$$RF$T$u20$as$u20$core..fmt..Debug$GT$3fmt17h4543de548036e0abE" }>, align 8, !dbg !52
@alloc578 = private unnamed_addr constant <{ [13 x i8] }> <{ [13 x i8] c"NonExhaustive" }>, align 1
@alloc579 = private unnamed_addr constant <{ [7 x i8] }> <{ [7 x i8] c"Package" }>, align 1
@alloc607 = private unnamed_addr constant <{ [8 x i8] }> <{ [8 x i8] c"BootInfo" }>, align 1
@alloc581 = private unnamed_addr constant <{ [5 x i8] }> <{ [5 x i8] c"Empty" }>, align 1
@alloc582 = private unnamed_addr constant <{ [9 x i8] }> <{ [9 x i8] c"FrameZero" }>, align 1
@alloc583 = private unnamed_addr constant <{ [10 x i8] }> <{ [10 x i8] c"Bootloader" }>, align 1
@alloc584 = private unnamed_addr constant <{ [9 x i8] }> <{ [9 x i8] c"PageTable" }>, align 1
@alloc585 = private unnamed_addr constant <{ [11 x i8] }> <{ [11 x i8] c"KernelStack" }>, align 1
@alloc586 = private unnamed_addr constant <{ [6 x i8] }> <{ [6 x i8] c"Kernel" }>, align 1
@alloc587 = private unnamed_addr constant <{ [9 x i8] }> <{ [9 x i8] c"BadMemory" }>, align 1
@alloc588 = private unnamed_addr constant <{ [7 x i8] }> <{ [7 x i8] c"AcpiNvs" }>, align 1
@alloc589 = private unnamed_addr constant <{ [15 x i8] }> <{ [15 x i8] c"AcpiReclaimable" }>, align 1
@alloc590 = private unnamed_addr constant <{ [8 x i8] }> <{ [8 x i8] c"Reserved" }>, align 1
@alloc591 = private unnamed_addr constant <{ [5 x i8] }> <{ [5 x i8] c"InUse" }>, align 1
@alloc592 = private unnamed_addr constant <{ [6 x i8] }> <{ [6 x i8] c"Usable" }>, align 1
@alloc593 = private unnamed_addr constant <{ [16 x i8] }> <{ [16 x i8] c"E820MemoryRegion" }>, align 1
@alloc621 = private unnamed_addr constant <{ [10 x i8] }> <{ [10 x i8] c"start_addr" }>, align 1
@vtable.9 = private constant <{ ptr, [16 x i8], ptr }> <{ ptr @"_ZN4core3ptr24drop_in_place$LT$u64$GT$17h22f0c2a12ea7b996E", [16 x i8] c"\08\00\00\00\00\00\00\00\08\00\00\00\00\00\00\00", ptr @"_ZN4core3fmt3num50_$LT$impl$u20$core..fmt..Debug$u20$for$u20$u64$GT$3fmt17h0d3cb66510b449e7E" }>, align 8, !dbg !61
@alloc598 = private unnamed_addr constant <{ [3 x i8] }> <{ [3 x i8] c"len" }>, align 1
@vtable.a = private constant <{ ptr, [16 x i8], ptr }> <{ ptr @"_ZN4core3ptr24drop_in_place$LT$u32$GT$17h12dd17ec672ade13E", [16 x i8] c"\04\00\00\00\00\00\00\00\04\00\00\00\00\00\00\00", ptr @"_ZN4core3fmt3num50_$LT$impl$u20$core..fmt..Debug$u20$for$u20$u32$GT$3fmt17hf78279371511cc61E" }>, align 8, !dbg !69
@alloc603 = private unnamed_addr constant <{ [24 x i8] }> <{ [24 x i8] c"acpi_extended_attributes" }>, align 1
@vtable.b = private constant <{ ptr, [16 x i8], ptr }> <{ ptr @"_ZN4core3ptr28drop_in_place$LT$$RF$u32$GT$17h9f7c1a9e8f62f865E", [16 x i8] c"\08\00\00\00\00\00\00\00\08\00\00\00\00\00\00\00", ptr @"_ZN42_$LT$$RF$T$u20$as$u20$core..fmt..Debug$GT$3fmt17h3e0c71ce568df75fE" }>, align 8, !dbg !77
@alloc608 = private unnamed_addr constant <{ [10 x i8] }> <{ [10 x i8] c"memory_map" }>, align 1
@vtable.c = private constant <{ ptr, [16 x i8], ptr }> <{ ptr @"_ZN4core3ptr64drop_in_place$LT$bootloader..bootinfo..memory_map..MemoryMap$GT$17had7c3eafdff9034aE", [16 x i8] c"\08\06\00\00\00\00\00\00\08\00\00\00\00\00\00\00", ptr @"_ZN80_$LT$bootloader..bootinfo..memory_map..MemoryMap$u20$as$u20$core..fmt..Debug$GT$3fmt17h81765b018d0a569cE" }>, align 8, !dbg !86
@alloc612 = private unnamed_addr constant <{ [12 x i8] }> <{ [12 x i8] c"tls_template" }>, align 1
@vtable.d = private constant <{ ptr, [16 x i8], ptr }> <{ ptr @"_ZN4core3ptr54drop_in_place$LT$bootloader..bootinfo..TlsTemplate$GT$17hfd5099bb0ed58b64E", [16 x i8] c"\18\00\00\00\00\00\00\00\08\00\00\00\00\00\00\00", ptr @"_ZN70_$LT$bootloader..bootinfo..TlsTemplate$u20$as$u20$core..fmt..Debug$GT$3fmt17h61faf10c14bceba0E" }>, align 8, !dbg !101
@alloc616 = private unnamed_addr constant <{ [15 x i8] }> <{ [15 x i8] c"_non_exhaustive" }>, align 1
@vtable.e = private constant <{ ptr, [16 x i8], ptr }> <{ ptr @"_ZN4core3ptr27drop_in_place$LT$$RF$u8$GT$17h253124f3ff1d568cE", [16 x i8] c"\08\00\00\00\00\00\00\00\08\00\00\00\00\00\00\00", ptr @"_ZN42_$LT$$RF$T$u20$as$u20$core..fmt..Debug$GT$3fmt17hf77cdae7f8abf4f1E" }>, align 8, !dbg !114
@alloc620 = private unnamed_addr constant <{ [11 x i8] }> <{ [11 x i8] c"TlsTemplate" }>, align 1
@alloc622 = private unnamed_addr constant <{ [9 x i8] }> <{ [9 x i8] c"file_size" }>, align 1
@alloc623 = private unnamed_addr constant <{ [8 x i8] }> <{ [8 x i8] c"mem_size" }>, align 1
@vtable.f = private constant <{ ptr, [16 x i8], ptr }> <{ ptr @"_ZN4core3ptr28drop_in_place$LT$$RF$u64$GT$17hbab63698268dabbaE", [16 x i8] c"\08\00\00\00\00\00\00\00\08\00\00\00\00\00\00\00", ptr @"_ZN42_$LT$$RF$T$u20$as$u20$core..fmt..Debug$GT$3fmt17hd1cc16832c22d545E" }>, align 8, !dbg !124

; <core::ops::range::Range<usize> as core::slice::index::SliceIndex<[T]>>::get_unchecked
; Function Attrs: inlinehint noredzone nounwind
define { ptr, i64 } @"_ZN106_$LT$core..ops..range..Range$LT$usize$GT$$u20$as$u20$core..slice..index..SliceIndex$LT$$u5b$T$u5d$$GT$$GT$13get_unchecked17hab03da79861379f0E"(i64 %self.0, i64 %self.1, ptr %slice.0, i64 %slice.1) unnamed_addr #0 !dbg !163 {
start:
  %0 = alloca ptr, align 8
  %count.dbg.spill.i1 = alloca i64, align 8
  %self.dbg.spill.i2 = alloca ptr, align 8
  %count.dbg.spill.i = alloca i64, align 8
  %self.dbg.spill.i = alloca ptr, align 8
  %slice.dbg.spill.i = alloca { ptr, i64 }, align 8
  %this.dbg.spill.i = alloca { i64, i64 }, align 8
  %_4.i = alloca i8, align 1
  %slice.dbg.spill = alloca { ptr, i64 }, align 8
  %self.dbg.spill = alloca { i64, i64 }, align 8
  %_7 = alloca { { i64, i64 }, { ptr, i64 } }, align 8
  %this = alloca { i64, i64 }, align 8
  %1 = getelementptr inbounds { i64, i64 }, ptr %self.dbg.spill, i32 0, i32 0
  store i64 %self.0, ptr %1, align 8
  %2 = getelementptr inbounds { i64, i64 }, ptr %self.dbg.spill, i32 0, i32 1
  store i64 %self.1, ptr %2, align 8
  call void @llvm.dbg.declare(metadata ptr %self.dbg.spill, metadata !184, metadata !DIExpression()), !dbg !190
  %3 = getelementptr inbounds { ptr, i64 }, ptr %slice.dbg.spill, i32 0, i32 0
  store ptr %slice.0, ptr %3, align 8
  %4 = getelementptr inbounds { ptr, i64 }, ptr %slice.dbg.spill, i32 0, i32 1
  store i64 %slice.1, ptr %4, align 8
  call void @llvm.dbg.declare(metadata ptr %slice.dbg.spill, metadata !185, metadata !DIExpression()), !dbg !191
  call void @llvm.dbg.declare(metadata ptr %this, metadata !186, metadata !DIExpression()), !dbg !192
  store i64 %self.0, ptr %this, align 8, !dbg !193
  %5 = getelementptr inbounds { i64, i64 }, ptr %this, i32 0, i32 1, !dbg !193
  store i64 %self.1, ptr %5, align 8, !dbg !193
  %6 = getelementptr inbounds { i64, i64 }, ptr %this, i32 0, i32 0, !dbg !194
  %_8.0 = load i64, ptr %6, align 8, !dbg !194, !noundef !24
  %7 = getelementptr inbounds { i64, i64 }, ptr %this, i32 0, i32 1, !dbg !194
  %_8.1 = load i64, ptr %7, align 8, !dbg !194, !noundef !24
  %8 = getelementptr inbounds { i64, i64 }, ptr %_7, i32 0, i32 0, !dbg !194
  store i64 %_8.0, ptr %8, align 8, !dbg !194
  %9 = getelementptr inbounds { i64, i64 }, ptr %_7, i32 0, i32 1, !dbg !194
  store i64 %_8.1, ptr %9, align 8, !dbg !194
  %10 = getelementptr inbounds { { i64, i64 }, { ptr, i64 } }, ptr %_7, i32 0, i32 1, !dbg !194
  %11 = getelementptr inbounds { ptr, i64 }, ptr %10, i32 0, i32 0, !dbg !194
  store ptr %slice.0, ptr %11, align 8, !dbg !194
  %12 = getelementptr inbounds { ptr, i64 }, ptr %10, i32 0, i32 1, !dbg !194
  store i64 %slice.1, ptr %12, align 8, !dbg !194
  %13 = getelementptr inbounds { i64, i64 }, ptr %_7, i32 0, i32 0, !dbg !194
  %14 = load i64, ptr %13, align 8, !dbg !194, !noundef !24
  %15 = getelementptr inbounds { i64, i64 }, ptr %_7, i32 0, i32 1, !dbg !194
  %16 = load i64, ptr %15, align 8, !dbg !194, !noundef !24
  %17 = getelementptr inbounds { { i64, i64 }, { ptr, i64 } }, ptr %_7, i32 0, i32 1, !dbg !194
  %18 = getelementptr inbounds { ptr, i64 }, ptr %17, i32 0, i32 0, !dbg !194
  %19 = load ptr, ptr %18, align 8, !dbg !194, !noundef !24
  %20 = getelementptr inbounds { ptr, i64 }, ptr %17, i32 0, i32 1, !dbg !194
  %21 = load i64, ptr %20, align 8, !dbg !194, !noundef !24
  store i64 %14, ptr %this.dbg.spill.i, align 8
  %22 = getelementptr inbounds { i64, i64 }, ptr %this.dbg.spill.i, i32 0, i32 1
  store i64 %16, ptr %22, align 8
  call void @llvm.dbg.declare(metadata ptr %this.dbg.spill.i, metadata !195, metadata !DIExpression()), !dbg !203
  store ptr %19, ptr %slice.dbg.spill.i, align 8
  %23 = getelementptr inbounds { ptr, i64 }, ptr %slice.dbg.spill.i, i32 0, i32 1
  store i64 %21, ptr %23, align 8
  call void @llvm.dbg.declare(metadata ptr %slice.dbg.spill.i, metadata !202, metadata !DIExpression()), !dbg !203
  %_5.i = icmp uge i64 %16, %14, !dbg !205
  br i1 %_5.i, label %bb2.i, label %bb1.i, !dbg !205

bb1.i:                                            ; preds = %start
  store i8 0, ptr %_4.i, align 1, !dbg !205
  br label %bb3.i, !dbg !205

bb2.i:                                            ; preds = %start
; call core::ptr::const_ptr::<impl *const [T]>::len
  %_10.i = call i64 @"_ZN4core3ptr9const_ptr43_$LT$impl$u20$$BP$const$u20$$u5b$T$u5d$$GT$3len17he37260d0f00542aeE"(ptr %19, i64 %21) #9, !dbg !207
  %_8.i = icmp ule i64 %16, %_10.i, !dbg !208
  %24 = zext i1 %_8.i to i8, !dbg !205
  store i8 %24, ptr %_4.i, align 1, !dbg !205
  br label %bb3.i, !dbg !205

bb3.i:                                            ; preds = %bb2.i, %bb1.i
  %25 = load i8, ptr %_4.i, align 1, !dbg !209, !range !210, !noundef !24
  %26 = trunc i8 %25 to i1, !dbg !209
  %_3.i = xor i1 %26, true, !dbg !209
  br i1 %_3.i, label %bb5.i, label %"_ZN106_$LT$core..ops..range..Range$LT$usize$GT$$u20$as$u20$core..slice..index..SliceIndex$LT$$u5b$T$u5d$$GT$$GT$13get_unchecked7runtime17h3238d887dd3bdeeeE.exit", !dbg !209

bb5.i:                                            ; preds = %bb3.i
; call core::panicking::panic_nounwind
  call void @_ZN4core9panicking14panic_nounwind17hb8a2b9db753d85a7E(ptr align 1 @alloc307, i64 97) #10, !dbg !211
  unreachable, !dbg !211

"_ZN106_$LT$core..ops..range..Range$LT$usize$GT$$u20$as$u20$core..slice..index..SliceIndex$LT$$u5b$T$u5d$$GT$$GT$13get_unchecked7runtime17h3238d887dd3bdeeeE.exit": ; preds = %bb3.i
; call core::ptr::const_ptr::<impl *const [T]>::as_ptr
  %_11 = call ptr @"_ZN4core3ptr9const_ptr43_$LT$impl$u20$$BP$const$u20$$u5b$T$u5d$$GT$6as_ptr17had070488182137c0E"(ptr %slice.0, i64 %slice.1) #9, !dbg !212
  store ptr %_11, ptr %self.dbg.spill.i, align 8
  call void @llvm.dbg.declare(metadata ptr %self.dbg.spill.i, metadata !213, metadata !DIExpression()), !dbg !224
  store i64 %self.0, ptr %count.dbg.spill.i, align 8
  call void @llvm.dbg.declare(metadata ptr %count.dbg.spill.i, metadata !223, metadata !DIExpression()), !dbg !226
  store ptr %_11, ptr %self.dbg.spill.i2, align 8
  call void @llvm.dbg.declare(metadata ptr %self.dbg.spill.i2, metadata !227, metadata !DIExpression()), !dbg !234
  store i64 %self.0, ptr %count.dbg.spill.i1, align 8
  call void @llvm.dbg.declare(metadata ptr %count.dbg.spill.i1, metadata !233, metadata !DIExpression()), !dbg !236
  %27 = getelementptr inbounds %"bootinfo::memory_map::MemoryRegion", ptr %_11, i64 %self.0, !dbg !237
  store ptr %27, ptr %0, align 8, !dbg !237
  %28 = load ptr, ptr %0, align 8, !dbg !237, !noundef !24
  %_17.0 = sub i64 %self.1, %self.0, !dbg !238
  %_17.1 = icmp ult i64 %self.1, %self.0, !dbg !238
  %29 = call i1 @llvm.expect.i1(i1 %_17.1, i1 false), !dbg !238
  br i1 %29, label %panic, label %bb4, !dbg !238

bb4:                                              ; preds = %"_ZN106_$LT$core..ops..range..Range$LT$usize$GT$$u20$as$u20$core..slice..index..SliceIndex$LT$$u5b$T$u5d$$GT$$GT$13get_unchecked7runtime17h3238d887dd3bdeeeE.exit"
; call core::ptr::slice_from_raw_parts
  %30 = call { ptr, i64 } @_ZN4core3ptr20slice_from_raw_parts17hbaebdf5a5964bf13E(ptr %28, i64 %_17.0) #9, !dbg !239
  %31 = extractvalue { ptr, i64 } %30, 0, !dbg !239
  %32 = extractvalue { ptr, i64 } %30, 1, !dbg !239
  %33 = insertvalue { ptr, i64 } undef, ptr %31, 0, !dbg !240
  %34 = insertvalue { ptr, i64 } %33, i64 %32, 1, !dbg !240
  ret { ptr, i64 } %34, !dbg !240

panic:                                            ; preds = %"_ZN106_$LT$core..ops..range..Range$LT$usize$GT$$u20$as$u20$core..slice..index..SliceIndex$LT$$u5b$T$u5d$$GT$$GT$13get_unchecked7runtime17h3238d887dd3bdeeeE.exit"
; call core::panicking::panic
  call void @_ZN4core9panicking5panic17h1deab6c62a1415a6E(ptr align 1 @str.0, i64 33, ptr align 8 @alloc306) #10, !dbg !238
  unreachable, !dbg !238
}

; <core::ops::range::Range<usize> as core::slice::index::SliceIndex<[T]>>::get_unchecked_mut
; Function Attrs: inlinehint noredzone nounwind
define { ptr, i64 } @"_ZN106_$LT$core..ops..range..Range$LT$usize$GT$$u20$as$u20$core..slice..index..SliceIndex$LT$$u5b$T$u5d$$GT$$GT$17get_unchecked_mut17h0e983f1fc3aad9fbE"(i64 %self.0, i64 %self.1, ptr %slice.0, i64 %slice.1) unnamed_addr #0 !dbg !241 {
start:
  %self.dbg.spill.i5 = alloca { ptr, i64 }, align 8
  %self.dbg.spill.i4 = alloca { ptr, i64 }, align 8
  %0 = alloca ptr, align 8
  %count.dbg.spill.i1 = alloca i64, align 8
  %self.dbg.spill.i2 = alloca ptr, align 8
  %count.dbg.spill.i = alloca i64, align 8
  %self.dbg.spill.i = alloca ptr, align 8
  %slice.dbg.spill.i = alloca { ptr, i64 }, align 8
  %this.dbg.spill.i = alloca { i64, i64 }, align 8
  %_4.i = alloca i8, align 1
  %slice.dbg.spill = alloca { ptr, i64 }, align 8
  %self.dbg.spill = alloca { i64, i64 }, align 8
  %_7 = alloca { { i64, i64 }, { ptr, i64 } }, align 8
  %this = alloca { i64, i64 }, align 8
  %1 = getelementptr inbounds { i64, i64 }, ptr %self.dbg.spill, i32 0, i32 0
  store i64 %self.0, ptr %1, align 8
  %2 = getelementptr inbounds { i64, i64 }, ptr %self.dbg.spill, i32 0, i32 1
  store i64 %self.1, ptr %2, align 8
  call void @llvm.dbg.declare(metadata ptr %self.dbg.spill, metadata !249, metadata !DIExpression()), !dbg !253
  %3 = getelementptr inbounds { ptr, i64 }, ptr %slice.dbg.spill, i32 0, i32 0
  store ptr %slice.0, ptr %3, align 8
  %4 = getelementptr inbounds { ptr, i64 }, ptr %slice.dbg.spill, i32 0, i32 1
  store i64 %slice.1, ptr %4, align 8
  call void @llvm.dbg.declare(metadata ptr %slice.dbg.spill, metadata !250, metadata !DIExpression()), !dbg !254
  call void @llvm.dbg.declare(metadata ptr %this, metadata !251, metadata !DIExpression()), !dbg !255
  store i64 %self.0, ptr %this, align 8, !dbg !256
  %5 = getelementptr inbounds { i64, i64 }, ptr %this, i32 0, i32 1, !dbg !256
  store i64 %self.1, ptr %5, align 8, !dbg !256
  %6 = getelementptr inbounds { i64, i64 }, ptr %this, i32 0, i32 0, !dbg !257
  %_8.0 = load i64, ptr %6, align 8, !dbg !257, !noundef !24
  %7 = getelementptr inbounds { i64, i64 }, ptr %this, i32 0, i32 1, !dbg !257
  %_8.1 = load i64, ptr %7, align 8, !dbg !257, !noundef !24
  %8 = getelementptr inbounds { i64, i64 }, ptr %_7, i32 0, i32 0, !dbg !257
  store i64 %_8.0, ptr %8, align 8, !dbg !257
  %9 = getelementptr inbounds { i64, i64 }, ptr %_7, i32 0, i32 1, !dbg !257
  store i64 %_8.1, ptr %9, align 8, !dbg !257
  %10 = getelementptr inbounds { { i64, i64 }, { ptr, i64 } }, ptr %_7, i32 0, i32 1, !dbg !257
  %11 = getelementptr inbounds { ptr, i64 }, ptr %10, i32 0, i32 0, !dbg !257
  store ptr %slice.0, ptr %11, align 8, !dbg !257
  %12 = getelementptr inbounds { ptr, i64 }, ptr %10, i32 0, i32 1, !dbg !257
  store i64 %slice.1, ptr %12, align 8, !dbg !257
  %13 = getelementptr inbounds { i64, i64 }, ptr %_7, i32 0, i32 0, !dbg !257
  %14 = load i64, ptr %13, align 8, !dbg !257, !noundef !24
  %15 = getelementptr inbounds { i64, i64 }, ptr %_7, i32 0, i32 1, !dbg !257
  %16 = load i64, ptr %15, align 8, !dbg !257, !noundef !24
  %17 = getelementptr inbounds { { i64, i64 }, { ptr, i64 } }, ptr %_7, i32 0, i32 1, !dbg !257
  %18 = getelementptr inbounds { ptr, i64 }, ptr %17, i32 0, i32 0, !dbg !257
  %19 = load ptr, ptr %18, align 8, !dbg !257, !noundef !24
  %20 = getelementptr inbounds { ptr, i64 }, ptr %17, i32 0, i32 1, !dbg !257
  %21 = load i64, ptr %20, align 8, !dbg !257, !noundef !24
  store i64 %14, ptr %this.dbg.spill.i, align 8
  %22 = getelementptr inbounds { i64, i64 }, ptr %this.dbg.spill.i, i32 0, i32 1
  store i64 %16, ptr %22, align 8
  call void @llvm.dbg.declare(metadata ptr %this.dbg.spill.i, metadata !258, metadata !DIExpression()), !dbg !265
  store ptr %19, ptr %slice.dbg.spill.i, align 8
  %23 = getelementptr inbounds { ptr, i64 }, ptr %slice.dbg.spill.i, i32 0, i32 1
  store i64 %21, ptr %23, align 8
  call void @llvm.dbg.declare(metadata ptr %slice.dbg.spill.i, metadata !264, metadata !DIExpression()), !dbg !265
  %_5.i = icmp uge i64 %16, %14, !dbg !267
  br i1 %_5.i, label %bb2.i, label %bb1.i, !dbg !267

bb1.i:                                            ; preds = %start
  store i8 0, ptr %_4.i, align 1, !dbg !267
  br label %bb3.i, !dbg !267

bb2.i:                                            ; preds = %start
  store ptr %19, ptr %self.dbg.spill.i5, align 8
  %24 = getelementptr inbounds { ptr, i64 }, ptr %self.dbg.spill.i5, i32 0, i32 1
  store i64 %21, ptr %24, align 8
  call void @llvm.dbg.declare(metadata ptr %self.dbg.spill.i5, metadata !269, metadata !DIExpression()), !dbg !277
; call core::ptr::metadata::metadata
  %25 = call i64 @_ZN4core3ptr8metadata8metadata17ha6e61aa0e6f1b1cfE(ptr %19, i64 %21) #9, !dbg !279
  %_8.i = icmp ule i64 %16, %25, !dbg !280
  %26 = zext i1 %_8.i to i8, !dbg !267
  store i8 %26, ptr %_4.i, align 1, !dbg !267
  br label %bb3.i, !dbg !267

bb3.i:                                            ; preds = %bb2.i, %bb1.i
  %27 = load i8, ptr %_4.i, align 1, !dbg !281, !range !210, !noundef !24
  %28 = trunc i8 %27 to i1, !dbg !281
  %_3.i = xor i1 %28, true, !dbg !281
  br i1 %_3.i, label %bb5.i, label %"_ZN106_$LT$core..ops..range..Range$LT$usize$GT$$u20$as$u20$core..slice..index..SliceIndex$LT$$u5b$T$u5d$$GT$$GT$17get_unchecked_mut7runtime17h768ad12ded3f796eE.exit", !dbg !281

bb5.i:                                            ; preds = %bb3.i
; call core::panicking::panic_nounwind
  call void @_ZN4core9panicking14panic_nounwind17hb8a2b9db753d85a7E(ptr align 1 @alloc310, i64 101) #10, !dbg !282
  unreachable, !dbg !282

"_ZN106_$LT$core..ops..range..Range$LT$usize$GT$$u20$as$u20$core..slice..index..SliceIndex$LT$$u5b$T$u5d$$GT$$GT$17get_unchecked_mut7runtime17h768ad12ded3f796eE.exit": ; preds = %bb3.i
  store ptr %slice.0, ptr %self.dbg.spill.i4, align 8
  %29 = getelementptr inbounds { ptr, i64 }, ptr %self.dbg.spill.i4, i32 0, i32 1
  store i64 %slice.1, ptr %29, align 8
  call void @llvm.dbg.declare(metadata ptr %self.dbg.spill.i4, metadata !283, metadata !DIExpression()), !dbg !289
  store ptr %slice.0, ptr %self.dbg.spill.i, align 8
  call void @llvm.dbg.declare(metadata ptr %self.dbg.spill.i, metadata !291, metadata !DIExpression()), !dbg !298
  store i64 %self.0, ptr %count.dbg.spill.i, align 8
  call void @llvm.dbg.declare(metadata ptr %count.dbg.spill.i, metadata !297, metadata !DIExpression()), !dbg !300
  store ptr %slice.0, ptr %self.dbg.spill.i2, align 8
  call void @llvm.dbg.declare(metadata ptr %self.dbg.spill.i2, metadata !301, metadata !DIExpression()), !dbg !307
  store i64 %self.0, ptr %count.dbg.spill.i1, align 8
  call void @llvm.dbg.declare(metadata ptr %count.dbg.spill.i1, metadata !306, metadata !DIExpression()), !dbg !309
  %30 = getelementptr inbounds %"bootinfo::memory_map::MemoryRegion", ptr %slice.0, i64 %self.0, !dbg !310
  store ptr %30, ptr %0, align 8, !dbg !310
  %_3.i3 = load ptr, ptr %0, align 8, !dbg !310, !noundef !24
  %_17.0 = sub i64 %self.1, %self.0, !dbg !311
  %_17.1 = icmp ult i64 %self.1, %self.0, !dbg !311
  %31 = call i1 @llvm.expect.i1(i1 %_17.1, i1 false), !dbg !311
  br i1 %31, label %panic, label %bb4, !dbg !311

bb4:                                              ; preds = %"_ZN106_$LT$core..ops..range..Range$LT$usize$GT$$u20$as$u20$core..slice..index..SliceIndex$LT$$u5b$T$u5d$$GT$$GT$17get_unchecked_mut7runtime17h768ad12ded3f796eE.exit"
; call core::ptr::slice_from_raw_parts_mut
  %32 = call { ptr, i64 } @_ZN4core3ptr24slice_from_raw_parts_mut17h398548e65ac58392E(ptr %_3.i3, i64 %_17.0) #9, !dbg !312
  %33 = extractvalue { ptr, i64 } %32, 0, !dbg !312
  %34 = extractvalue { ptr, i64 } %32, 1, !dbg !312
  %35 = insertvalue { ptr, i64 } undef, ptr %33, 0, !dbg !313
  %36 = insertvalue { ptr, i64 } %35, i64 %34, 1, !dbg !313
  ret { ptr, i64 } %36, !dbg !313

panic:                                            ; preds = %"_ZN106_$LT$core..ops..range..Range$LT$usize$GT$$u20$as$u20$core..slice..index..SliceIndex$LT$$u5b$T$u5d$$GT$$GT$17get_unchecked_mut7runtime17h768ad12ded3f796eE.exit"
; call core::panicking::panic
  call void @_ZN4core9panicking5panic17h1deab6c62a1415a6E(ptr align 1 @str.0, i64 33, ptr align 8 @alloc309) #10, !dbg !311
  unreachable, !dbg !311
}

; <core::ops::range::Range<usize> as core::slice::index::SliceIndex<[T]>>::index
; Function Attrs: inlinehint noredzone nounwind
define { ptr, i64 } @"_ZN106_$LT$core..ops..range..Range$LT$usize$GT$$u20$as$u20$core..slice..index..SliceIndex$LT$$u5b$T$u5d$$GT$$GT$5index17h0cb3025d8b848950E"(i64 %self.0, i64 %self.1, ptr align 8 %slice.0, i64 %slice.1, ptr align 8 %0) unnamed_addr #0 !dbg !314 {
start:
  %slice.dbg.spill = alloca { ptr, i64 }, align 8
  %self.dbg.spill = alloca { i64, i64 }, align 8
  %1 = getelementptr inbounds { i64, i64 }, ptr %self.dbg.spill, i32 0, i32 0
  store i64 %self.0, ptr %1, align 8
  %2 = getelementptr inbounds { i64, i64 }, ptr %self.dbg.spill, i32 0, i32 1
  store i64 %self.1, ptr %2, align 8
  call void @llvm.dbg.declare(metadata ptr %self.dbg.spill, metadata !335, metadata !DIExpression()), !dbg !337
  %3 = getelementptr inbounds { ptr, i64 }, ptr %slice.dbg.spill, i32 0, i32 0
  store ptr %slice.0, ptr %3, align 8
  %4 = getelementptr inbounds { ptr, i64 }, ptr %slice.dbg.spill, i32 0, i32 1
  store i64 %slice.1, ptr %4, align 8
  call void @llvm.dbg.declare(metadata ptr %slice.dbg.spill, metadata !336, metadata !DIExpression()), !dbg !338
  %_3 = icmp ugt i64 %self.0, %self.1, !dbg !339
  br i1 %_3, label %bb1, label %bb2, !dbg !339

bb2:                                              ; preds = %start
  %_9 = icmp ugt i64 %self.1, %slice.1, !dbg !340
  br i1 %_9, label %bb3, label %bb4, !dbg !340

bb1:                                              ; preds = %start
; call core::slice::index::slice_index_order_fail
  call void @_ZN4core5slice5index22slice_index_order_fail17h3d370275b62090ffE(i64 %self.0, i64 %self.1, ptr align 8 %0) #10, !dbg !341
  unreachable, !dbg !341

bb4:                                              ; preds = %bb2
; call <core::ops::range::Range<usize> as core::slice::index::SliceIndex<[T]>>::get_unchecked
  %5 = call { ptr, i64 } @"_ZN106_$LT$core..ops..range..Range$LT$usize$GT$$u20$as$u20$core..slice..index..SliceIndex$LT$$u5b$T$u5d$$GT$$GT$13get_unchecked17hab03da79861379f0E"(i64 %self.0, i64 %self.1, ptr %slice.0, i64 %slice.1) #9, !dbg !342
  %_17.0 = extractvalue { ptr, i64 } %5, 0, !dbg !342
  %_17.1 = extractvalue { ptr, i64 } %5, 1, !dbg !342
  %6 = insertvalue { ptr, i64 } undef, ptr %_17.0, 0, !dbg !343
  %7 = insertvalue { ptr, i64 } %6, i64 %_17.1, 1, !dbg !343
  ret { ptr, i64 } %7, !dbg !343

bb3:                                              ; preds = %bb2
; call core::slice::index::slice_end_index_len_fail
  call void @_ZN4core5slice5index24slice_end_index_len_fail17h71508dfa62056978E(i64 %self.1, i64 %slice.1, ptr align 8 %0) #10, !dbg !344
  unreachable, !dbg !344
}

; <core::ops::range::Range<usize> as core::slice::index::SliceIndex<[T]>>::index_mut
; Function Attrs: inlinehint noredzone nounwind
define { ptr, i64 } @"_ZN106_$LT$core..ops..range..Range$LT$usize$GT$$u20$as$u20$core..slice..index..SliceIndex$LT$$u5b$T$u5d$$GT$$GT$9index_mut17hd3f0c326d2e168baE"(i64 %self.0, i64 %self.1, ptr align 8 %slice.0, i64 %slice.1, ptr align 8 %0) unnamed_addr #0 !dbg !345 {
start:
  %slice.dbg.spill = alloca { ptr, i64 }, align 8
  %self.dbg.spill = alloca { i64, i64 }, align 8
  %1 = getelementptr inbounds { i64, i64 }, ptr %self.dbg.spill, i32 0, i32 0
  store i64 %self.0, ptr %1, align 8
  %2 = getelementptr inbounds { i64, i64 }, ptr %self.dbg.spill, i32 0, i32 1
  store i64 %self.1, ptr %2, align 8
  call void @llvm.dbg.declare(metadata ptr %self.dbg.spill, metadata !353, metadata !DIExpression()), !dbg !355
  %3 = getelementptr inbounds { ptr, i64 }, ptr %slice.dbg.spill, i32 0, i32 0
  store ptr %slice.0, ptr %3, align 8
  %4 = getelementptr inbounds { ptr, i64 }, ptr %slice.dbg.spill, i32 0, i32 1
  store i64 %slice.1, ptr %4, align 8
  call void @llvm.dbg.declare(metadata ptr %slice.dbg.spill, metadata !354, metadata !DIExpression()), !dbg !356
  %_4 = icmp ugt i64 %self.0, %self.1, !dbg !357
  br i1 %_4, label %bb1, label %bb2, !dbg !357

bb2:                                              ; preds = %start
  %_10 = icmp ugt i64 %self.1, %slice.1, !dbg !358
  br i1 %_10, label %bb3, label %bb4, !dbg !358

bb1:                                              ; preds = %start
; call core::slice::index::slice_index_order_fail
  call void @_ZN4core5slice5index22slice_index_order_fail17h3d370275b62090ffE(i64 %self.0, i64 %self.1, ptr align 8 %0) #10, !dbg !359
  unreachable, !dbg !359

bb4:                                              ; preds = %bb2
; call <core::ops::range::Range<usize> as core::slice::index::SliceIndex<[T]>>::get_unchecked_mut
  %5 = call { ptr, i64 } @"_ZN106_$LT$core..ops..range..Range$LT$usize$GT$$u20$as$u20$core..slice..index..SliceIndex$LT$$u5b$T$u5d$$GT$$GT$17get_unchecked_mut17h0e983f1fc3aad9fbE"(i64 %self.0, i64 %self.1, ptr %slice.0, i64 %slice.1) #9, !dbg !360
  %_20.0 = extractvalue { ptr, i64 } %5, 0, !dbg !360
  %_20.1 = extractvalue { ptr, i64 } %5, 1, !dbg !360
  %6 = insertvalue { ptr, i64 } undef, ptr %_20.0, 0, !dbg !361
  %7 = insertvalue { ptr, i64 } %6, i64 %_20.1, 1, !dbg !361
  ret { ptr, i64 } %7, !dbg !361

bb3:                                              ; preds = %bb2
; call core::slice::index::slice_end_index_len_fail
  call void @_ZN4core5slice5index24slice_end_index_len_fail17h71508dfa62056978E(i64 %self.1, i64 %slice.1, ptr align 8 %0) #10, !dbg !362
  unreachable, !dbg !362
}

; <core::ops::range::RangeTo<usize> as core::slice::index::SliceIndex<[T]>>::index_mut
; Function Attrs: inlinehint noredzone nounwind
define { ptr, i64 } @"_ZN108_$LT$core..ops..range..RangeTo$LT$usize$GT$$u20$as$u20$core..slice..index..SliceIndex$LT$$u5b$T$u5d$$GT$$GT$9index_mut17he86c827a971faccbE"(i64 %self, ptr align 8 %slice.0, i64 %slice.1, ptr align 8 %0) unnamed_addr #0 !dbg !363 {
start:
  %slice.dbg.spill = alloca { ptr, i64 }, align 8
  %self.dbg.spill = alloca i64, align 8
  %_5 = alloca { i64, i64 }, align 8
  store i64 %self, ptr %self.dbg.spill, align 8
  call void @llvm.dbg.declare(metadata ptr %self.dbg.spill, metadata !371, metadata !DIExpression()), !dbg !373
  %1 = getelementptr inbounds { ptr, i64 }, ptr %slice.dbg.spill, i32 0, i32 0
  store ptr %slice.0, ptr %1, align 8
  %2 = getelementptr inbounds { ptr, i64 }, ptr %slice.dbg.spill, i32 0, i32 1
  store i64 %slice.1, ptr %2, align 8
  call void @llvm.dbg.declare(metadata ptr %slice.dbg.spill, metadata !372, metadata !DIExpression()), !dbg !374
  store i64 0, ptr %_5, align 8, !dbg !375
  %3 = getelementptr inbounds { i64, i64 }, ptr %_5, i32 0, i32 1, !dbg !375
  store i64 %self, ptr %3, align 8, !dbg !375
  %4 = getelementptr inbounds { i64, i64 }, ptr %_5, i32 0, i32 0, !dbg !375
  %5 = load i64, ptr %4, align 8, !dbg !375, !noundef !24
  %6 = getelementptr inbounds { i64, i64 }, ptr %_5, i32 0, i32 1, !dbg !375
  %7 = load i64, ptr %6, align 8, !dbg !375, !noundef !24
; call <core::ops::range::Range<usize> as core::slice::index::SliceIndex<[T]>>::index_mut
  %8 = call { ptr, i64 } @"_ZN106_$LT$core..ops..range..Range$LT$usize$GT$$u20$as$u20$core..slice..index..SliceIndex$LT$$u5b$T$u5d$$GT$$GT$9index_mut17hd3f0c326d2e168baE"(i64 %5, i64 %7, ptr align 8 %slice.0, i64 %slice.1, ptr align 8 %0) #9, !dbg !375
  %_4.0 = extractvalue { ptr, i64 } %8, 0, !dbg !375
  %_4.1 = extractvalue { ptr, i64 } %8, 1, !dbg !375
  %9 = insertvalue { ptr, i64 } undef, ptr %_4.0, 0, !dbg !376
  %10 = insertvalue { ptr, i64 } %9, i64 %_4.1, 1, !dbg !376
  ret { ptr, i64 } %10, !dbg !376
}

; <core::ops::range::RangeFrom<usize> as core::slice::index::SliceIndex<[T]>>::get_unchecked_mut
; Function Attrs: inlinehint noredzone nounwind
define { ptr, i64 } @"_ZN110_$LT$core..ops..range..RangeFrom$LT$usize$GT$$u20$as$u20$core..slice..index..SliceIndex$LT$$u5b$T$u5d$$GT$$GT$17get_unchecked_mut17h1f150b9d5dc91b37E"(i64 %self, ptr %slice.0, i64 %slice.1) unnamed_addr #0 !dbg !377 {
start:
  %self.dbg.spill.i = alloca { ptr, i64 }, align 8
  %slice.dbg.spill = alloca { ptr, i64 }, align 8
  %self.dbg.spill = alloca i64, align 8
  %_3 = alloca { i64, i64 }, align 8
  store i64 %self, ptr %self.dbg.spill, align 8
  call void @llvm.dbg.declare(metadata ptr %self.dbg.spill, metadata !385, metadata !DIExpression()), !dbg !387
  %0 = getelementptr inbounds { ptr, i64 }, ptr %slice.dbg.spill, i32 0, i32 0
  store ptr %slice.0, ptr %0, align 8
  %1 = getelementptr inbounds { ptr, i64 }, ptr %slice.dbg.spill, i32 0, i32 1
  store i64 %slice.1, ptr %1, align 8
  call void @llvm.dbg.declare(metadata ptr %slice.dbg.spill, metadata !386, metadata !DIExpression()), !dbg !388
  store ptr %slice.0, ptr %self.dbg.spill.i, align 8
  %2 = getelementptr inbounds { ptr, i64 }, ptr %self.dbg.spill.i, i32 0, i32 1
  store i64 %slice.1, ptr %2, align 8
  call void @llvm.dbg.declare(metadata ptr %self.dbg.spill.i, metadata !269, metadata !DIExpression()), !dbg !389
; call core::ptr::metadata::metadata
  %3 = call i64 @_ZN4core3ptr8metadata8metadata17ha6e61aa0e6f1b1cfE(ptr %slice.0, i64 %slice.1) #9, !dbg !391
  store i64 %self, ptr %_3, align 8, !dbg !392
  %4 = getelementptr inbounds { i64, i64 }, ptr %_3, i32 0, i32 1, !dbg !392
  store i64 %3, ptr %4, align 8, !dbg !392
  %5 = getelementptr inbounds { i64, i64 }, ptr %_3, i32 0, i32 0, !dbg !392
  %6 = load i64, ptr %5, align 8, !dbg !392, !noundef !24
  %7 = getelementptr inbounds { i64, i64 }, ptr %_3, i32 0, i32 1, !dbg !392
  %8 = load i64, ptr %7, align 8, !dbg !392, !noundef !24
; call <core::ops::range::Range<usize> as core::slice::index::SliceIndex<[T]>>::get_unchecked_mut
  %9 = call { ptr, i64 } @"_ZN106_$LT$core..ops..range..Range$LT$usize$GT$$u20$as$u20$core..slice..index..SliceIndex$LT$$u5b$T$u5d$$GT$$GT$17get_unchecked_mut17h0e983f1fc3aad9fbE"(i64 %6, i64 %8, ptr %slice.0, i64 %slice.1) #9, !dbg !392
  %10 = extractvalue { ptr, i64 } %9, 0, !dbg !392
  %11 = extractvalue { ptr, i64 } %9, 1, !dbg !392
  %12 = insertvalue { ptr, i64 } undef, ptr %10, 0, !dbg !393
  %13 = insertvalue { ptr, i64 } %12, i64 %11, 1, !dbg !393
  ret { ptr, i64 } %13, !dbg !393
}

; <core::ops::range::RangeFrom<usize> as core::slice::index::SliceIndex<[T]>>::index_mut
; Function Attrs: inlinehint noredzone nounwind
define { ptr, i64 } @"_ZN110_$LT$core..ops..range..RangeFrom$LT$usize$GT$$u20$as$u20$core..slice..index..SliceIndex$LT$$u5b$T$u5d$$GT$$GT$9index_mut17h41b75ed56b0f6775E"(i64 %self, ptr align 8 %slice.0, i64 %slice.1, ptr align 8 %0) unnamed_addr #0 !dbg !394 {
start:
  %slice.dbg.spill = alloca { ptr, i64 }, align 8
  %self.dbg.spill = alloca i64, align 8
  store i64 %self, ptr %self.dbg.spill, align 8
  call void @llvm.dbg.declare(metadata ptr %self.dbg.spill, metadata !398, metadata !DIExpression()), !dbg !400
  %1 = getelementptr inbounds { ptr, i64 }, ptr %slice.dbg.spill, i32 0, i32 0
  store ptr %slice.0, ptr %1, align 8
  %2 = getelementptr inbounds { ptr, i64 }, ptr %slice.dbg.spill, i32 0, i32 1
  store i64 %slice.1, ptr %2, align 8
  call void @llvm.dbg.declare(metadata ptr %slice.dbg.spill, metadata !399, metadata !DIExpression()), !dbg !401
  %_4 = icmp ugt i64 %self, %slice.1, !dbg !402
  br i1 %_4, label %bb1, label %bb2, !dbg !402

bb2:                                              ; preds = %start
; call <core::ops::range::RangeFrom<usize> as core::slice::index::SliceIndex<[T]>>::get_unchecked_mut
  %3 = call { ptr, i64 } @"_ZN110_$LT$core..ops..range..RangeFrom$LT$usize$GT$$u20$as$u20$core..slice..index..SliceIndex$LT$$u5b$T$u5d$$GT$$GT$17get_unchecked_mut17h1f150b9d5dc91b37E"(i64 %self, ptr %slice.0, i64 %slice.1) #9, !dbg !403
  %_14.0 = extractvalue { ptr, i64 } %3, 0, !dbg !403
  %_14.1 = extractvalue { ptr, i64 } %3, 1, !dbg !403
  %4 = insertvalue { ptr, i64 } undef, ptr %_14.0, 0, !dbg !404
  %5 = insertvalue { ptr, i64 } %4, i64 %_14.1, 1, !dbg !404
  ret { ptr, i64 } %5, !dbg !404

bb1:                                              ; preds = %start
; call core::slice::index::slice_start_index_len_fail
  call void @_ZN4core5slice5index26slice_start_index_len_fail17hcb1308bb36e73917E(i64 %self, i64 %slice.1, ptr align 8 %0) #10, !dbg !405
  unreachable, !dbg !405
}

; <&T as core::fmt::Debug>::fmt
; Function Attrs: noredzone nounwind
define zeroext i1 @"_ZN42_$LT$$RF$T$u20$as$u20$core..fmt..Debug$GT$3fmt17h4543de548036e0abE"(ptr align 8 %self, ptr align 8 %f) unnamed_addr #1 !dbg !406 {
start:
  %f.dbg.spill = alloca ptr, align 8
  %self.dbg.spill = alloca ptr, align 8
  store ptr %self, ptr %self.dbg.spill, align 8
  call void @llvm.dbg.declare(metadata ptr %self.dbg.spill, metadata !465, metadata !DIExpression()), !dbg !469
  store ptr %f, ptr %f.dbg.spill, align 8
  call void @llvm.dbg.declare(metadata ptr %f.dbg.spill, metadata !466, metadata !DIExpression()), !dbg !470
  %_6 = load ptr, ptr %self, align 8, !dbg !471, !nonnull !24, !align !472, !noundef !24
; call <bootloader::bootinfo::memory_map::MemoryRegionType as core::fmt::Debug>::fmt
  %0 = call zeroext i1 @"_ZN87_$LT$bootloader..bootinfo..memory_map..MemoryRegionType$u20$as$u20$core..fmt..Debug$GT$3fmt17hdf880251c1333f85E"(ptr align 4 %_6, ptr align 8 %f) #9, !dbg !473
  ret i1 %0, !dbg !474
}

; <&T as core::fmt::Debug>::fmt
; Function Attrs: noredzone nounwind
define zeroext i1 @"_ZN42_$LT$$RF$T$u20$as$u20$core..fmt..Debug$GT$3fmt17hed44b9bd8ee3dbdeE"(ptr align 8 %self, ptr align 8 %f) unnamed_addr #1 !dbg !475 {
start:
  %f.dbg.spill = alloca ptr, align 8
  %self.dbg.spill = alloca ptr, align 8
  store ptr %self, ptr %self.dbg.spill, align 8
  call void @llvm.dbg.declare(metadata ptr %self.dbg.spill, metadata !480, metadata !DIExpression()), !dbg !482
  store ptr %f, ptr %f.dbg.spill, align 8
  call void @llvm.dbg.declare(metadata ptr %f.dbg.spill, metadata !481, metadata !DIExpression()), !dbg !483
  %_6 = load ptr, ptr %self, align 8, !dbg !484, !nonnull !24, !align !485, !noundef !24
; call <bootloader::bootinfo::memory_map::MemoryRegion as core::fmt::Debug>::fmt
  %0 = call zeroext i1 @"_ZN83_$LT$bootloader..bootinfo..memory_map..MemoryRegion$u20$as$u20$core..fmt..Debug$GT$3fmt17hd8720b0b0c72df0eE"(ptr align 8 %_6, ptr align 8 %f) #9, !dbg !486
  ret i1 %0, !dbg !487
}

; core::intrinsics::is_nonoverlapping
; Function Attrs: noredzone nounwind
define zeroext i1 @_ZN4core10intrinsics17is_nonoverlapping17h67a70de23783f4c9E(ptr %src, ptr %dst, i64 %count) unnamed_addr #1 !dbg !488 {
start:
  %self.dbg.spill.i5 = alloca ptr, align 8
  %self.dbg.spill.i4 = alloca ptr, align 8
  %0 = alloca i64, align 8
  %self.dbg.spill.i2 = alloca ptr, align 8
  %1 = alloca i64, align 8
  %self.dbg.spill.i = alloca ptr, align 8
  %size.dbg.spill = alloca i64, align 8
  %dst_usize.dbg.spill = alloca i64, align 8
  %src_usize.dbg.spill = alloca i64, align 8
  %count.dbg.spill = alloca i64, align 8
  %dst.dbg.spill = alloca ptr, align 8
  %src.dbg.spill = alloca ptr, align 8
  %diff = alloca i64, align 8
  store ptr %src, ptr %src.dbg.spill, align 8
  call void @llvm.dbg.declare(metadata ptr %src.dbg.spill, metadata !494, metadata !DIExpression()), !dbg !505
  store ptr %dst, ptr %dst.dbg.spill, align 8
  call void @llvm.dbg.declare(metadata ptr %dst.dbg.spill, metadata !495, metadata !DIExpression()), !dbg !506
  store i64 %count, ptr %count.dbg.spill, align 8
  call void @llvm.dbg.declare(metadata ptr %count.dbg.spill, metadata !496, metadata !DIExpression()), !dbg !507
  call void @llvm.dbg.declare(metadata ptr %diff, metadata !503, metadata !DIExpression()), !dbg !508
  store ptr %src, ptr %self.dbg.spill.i2, align 8
  call void @llvm.dbg.declare(metadata ptr %self.dbg.spill.i2, metadata !509, metadata !DIExpression()), !dbg !514
  store ptr %src, ptr %self.dbg.spill.i4, align 8
  call void @llvm.dbg.declare(metadata ptr %self.dbg.spill.i4, metadata !516, metadata !DIExpression()), !dbg !523
  store ptr %src, ptr %0, align 8, !dbg !525
  %2 = load i64, ptr %0, align 8, !dbg !525, !noundef !24
  store i64 %2, ptr %src_usize.dbg.spill, align 8, !dbg !526
  call void @llvm.dbg.declare(metadata ptr %src_usize.dbg.spill, metadata !497, metadata !DIExpression()), !dbg !527
  store ptr %dst, ptr %self.dbg.spill.i, align 8
  call void @llvm.dbg.declare(metadata ptr %self.dbg.spill.i, metadata !509, metadata !DIExpression()), !dbg !528
  store ptr %dst, ptr %self.dbg.spill.i5, align 8
  call void @llvm.dbg.declare(metadata ptr %self.dbg.spill.i5, metadata !516, metadata !DIExpression()), !dbg !530
  store ptr %dst, ptr %1, align 8, !dbg !532
  %3 = load i64, ptr %1, align 8, !dbg !532, !noundef !24
  store i64 %3, ptr %dst_usize.dbg.spill, align 8, !dbg !533
  call void @llvm.dbg.declare(metadata ptr %dst_usize.dbg.spill, metadata !499, metadata !DIExpression()), !dbg !534
; call core::num::<impl usize>::checked_mul
  %4 = call { i64, i64 } @"_ZN4core3num23_$LT$impl$u20$usize$GT$11checked_mul17hc1f85385c153f8faE"(i64 24, i64 %count) #9, !dbg !535
  %_9.0 = extractvalue { i64, i64 } %4, 0, !dbg !535
  %_9.1 = extractvalue { i64, i64 } %4, 1, !dbg !535
; call core::option::Option<T>::unwrap
  %size = call i64 @"_ZN4core6option15Option$LT$T$GT$6unwrap17ha13910668a9ffd3aE"(i64 %_9.0, i64 %_9.1, ptr align 8 @alloc312) #9, !dbg !535
  store i64 %size, ptr %size.dbg.spill, align 8, !dbg !535
  call void @llvm.dbg.declare(metadata ptr %size.dbg.spill, metadata !501, metadata !DIExpression()), !dbg !536
  %_13 = icmp ugt i64 %2, %3, !dbg !537
  br i1 %_13, label %bb6, label %bb8, !dbg !537

bb8:                                              ; preds = %start
  %_21.0 = sub i64 %3, %2, !dbg !538
  %_21.1 = icmp ult i64 %3, %2, !dbg !538
  %5 = call i1 @llvm.expect.i1(i1 %_21.1, i1 false), !dbg !538
  br i1 %5, label %panic1, label %bb9, !dbg !538

bb6:                                              ; preds = %start
  %_18.0 = sub i64 %2, %3, !dbg !539
  %_18.1 = icmp ult i64 %2, %3, !dbg !539
  %6 = call i1 @llvm.expect.i1(i1 %_18.1, i1 false), !dbg !539
  br i1 %6, label %panic, label %bb7, !dbg !539

bb7:                                              ; preds = %bb6
  store i64 %_18.0, ptr %diff, align 8, !dbg !539
  br label %bb10, !dbg !540

panic:                                            ; preds = %bb6
; call core::panicking::panic
  call void @_ZN4core9panicking5panic17h1deab6c62a1415a6E(ptr align 1 @str.0, i64 33, ptr align 8 @alloc314) #10, !dbg !539
  unreachable, !dbg !539

bb10:                                             ; preds = %bb9, %bb7
  %_22 = load i64, ptr %diff, align 8, !dbg !541, !noundef !24
  %7 = icmp uge i64 %_22, %size, !dbg !541
  ret i1 %7, !dbg !542

bb9:                                              ; preds = %bb8
  store i64 %_21.0, ptr %diff, align 8, !dbg !538
  br label %bb10, !dbg !540

panic1:                                           ; preds = %bb8
; call core::panicking::panic
  call void @_ZN4core9panicking5panic17h1deab6c62a1415a6E(ptr align 1 @str.0, i64 33, ptr align 8 @alloc316) #10, !dbg !538
  unreachable, !dbg !538
}

; core::intrinsics::copy_nonoverlapping
; Function Attrs: inlinehint noredzone nounwind
define void @_ZN4core10intrinsics19copy_nonoverlapping17h9ead4453d546b160E(ptr %src, ptr %dst, i64 %count) unnamed_addr #0 !dbg !543 {
start:
  %count.dbg.spill.i = alloca i64, align 8
  %dst.dbg.spill.i = alloca ptr, align 8
  %src.dbg.spill.i = alloca ptr, align 8
  %_6.i = alloca i8, align 1
  %_5.i = alloca i8, align 1
  %count.dbg.spill = alloca i64, align 8
  %dst.dbg.spill = alloca ptr, align 8
  %src.dbg.spill = alloca ptr, align 8
  %_5 = alloca { ptr, ptr, i64 }, align 8
  store ptr %src, ptr %src.dbg.spill, align 8
  call void @llvm.dbg.declare(metadata ptr %src.dbg.spill, metadata !549, metadata !DIExpression()), !dbg !552
  store ptr %dst, ptr %dst.dbg.spill, align 8
  call void @llvm.dbg.declare(metadata ptr %dst.dbg.spill, metadata !550, metadata !DIExpression()), !dbg !553
  store i64 %count, ptr %count.dbg.spill, align 8
  call void @llvm.dbg.declare(metadata ptr %count.dbg.spill, metadata !551, metadata !DIExpression()), !dbg !554
  store ptr %src, ptr %_5, align 8, !dbg !555
  %0 = getelementptr inbounds { ptr, ptr, i64 }, ptr %_5, i32 0, i32 1, !dbg !555
  store ptr %dst, ptr %0, align 8, !dbg !555
  %1 = getelementptr inbounds { ptr, ptr, i64 }, ptr %_5, i32 0, i32 2, !dbg !555
  store i64 %count, ptr %1, align 8, !dbg !555
  %2 = load ptr, ptr %_5, align 8, !dbg !555, !noundef !24
  %3 = getelementptr inbounds { ptr, ptr, i64 }, ptr %_5, i32 0, i32 1, !dbg !555
  %4 = load ptr, ptr %3, align 8, !dbg !555, !noundef !24
  %5 = getelementptr inbounds { ptr, ptr, i64 }, ptr %_5, i32 0, i32 2, !dbg !555
  %6 = load i64, ptr %5, align 8, !dbg !555, !noundef !24
  store ptr %2, ptr %src.dbg.spill.i, align 8
  call void @llvm.dbg.declare(metadata ptr %src.dbg.spill.i, metadata !556, metadata !DIExpression()), !dbg !562
  store ptr %4, ptr %dst.dbg.spill.i, align 8
  call void @llvm.dbg.declare(metadata ptr %dst.dbg.spill.i, metadata !560, metadata !DIExpression()), !dbg !562
  store i64 %6, ptr %count.dbg.spill.i, align 8
  call void @llvm.dbg.declare(metadata ptr %count.dbg.spill.i, metadata !561, metadata !DIExpression()), !dbg !562
; call core::intrinsics::is_aligned_and_not_null
  %_7.i = call zeroext i1 @_ZN4core10intrinsics23is_aligned_and_not_null17had45da6734f21ab3E(ptr %2) #9, !dbg !564
  br i1 %_7.i, label %bb5.i, label %bb4.i, !dbg !564

bb4.i:                                            ; preds = %start
  store i8 0, ptr %_6.i, align 1, !dbg !564
  br label %bb6.i, !dbg !564

bb5.i:                                            ; preds = %start
; call core::intrinsics::is_aligned_and_not_null
  %_9.i = call zeroext i1 @_ZN4core10intrinsics23is_aligned_and_not_null17had45da6734f21ab3E(ptr %4) #9, !dbg !565
  %7 = zext i1 %_9.i to i8, !dbg !564
  store i8 %7, ptr %_6.i, align 1, !dbg !564
  br label %bb6.i, !dbg !564

bb6.i:                                            ; preds = %bb5.i, %bb4.i
  %8 = load i8, ptr %_6.i, align 1, !dbg !564, !range !210, !noundef !24
  %9 = trunc i8 %8 to i1, !dbg !564
  br i1 %9, label %bb2.i, label %bb1.i, !dbg !564

bb1.i:                                            ; preds = %bb6.i
  store i8 0, ptr %_5.i, align 1, !dbg !564
  br label %bb3.i, !dbg !564

bb2.i:                                            ; preds = %bb6.i
; call core::intrinsics::is_nonoverlapping
  %_12.i = call zeroext i1 @_ZN4core10intrinsics17is_nonoverlapping17h04d1ae453e907062E(ptr %2, ptr %4, i64 %6) #9, !dbg !566
  %10 = zext i1 %_12.i to i8, !dbg !564
  store i8 %10, ptr %_5.i, align 1, !dbg !564
  br label %bb3.i, !dbg !564

bb3.i:                                            ; preds = %bb2.i, %bb1.i
  %11 = load i8, ptr %_5.i, align 1, !dbg !567, !range !210, !noundef !24
  %12 = trunc i8 %11 to i1, !dbg !567
  %_4.i = xor i1 %12, true, !dbg !567
  br i1 %_4.i, label %bb10.i, label %_ZN4core10intrinsics19copy_nonoverlapping7runtime17h2a6a5684b595de1cE.exit, !dbg !567

bb10.i:                                           ; preds = %bb3.i
; call core::panicking::panic_nounwind
  call void @_ZN4core9panicking14panic_nounwind17hb8a2b9db753d85a7E(ptr align 1 @alloc318, i64 166) #10, !dbg !568
  unreachable, !dbg !568

_ZN4core10intrinsics19copy_nonoverlapping7runtime17h2a6a5684b595de1cE.exit: ; preds = %bb3.i
  %13 = mul i64 %count, 8, !dbg !569
  call void @llvm.memcpy.p0.p0.i64(ptr align 8 %dst, ptr align 8 %src, i64 %13, i1 false), !dbg !569
  ret void, !dbg !570
}

; core::intrinsics::copy_nonoverlapping
; Function Attrs: inlinehint noredzone nounwind
define void @_ZN4core10intrinsics19copy_nonoverlapping17he223bf532b273cfaE(ptr %src, ptr %dst, i64 %count) unnamed_addr #0 !dbg !571 {
start:
  %count.dbg.spill.i = alloca i64, align 8
  %dst.dbg.spill.i = alloca ptr, align 8
  %src.dbg.spill.i = alloca ptr, align 8
  %_6.i = alloca i8, align 1
  %_5.i = alloca i8, align 1
  %count.dbg.spill = alloca i64, align 8
  %dst.dbg.spill = alloca ptr, align 8
  %src.dbg.spill = alloca ptr, align 8
  %_5 = alloca { ptr, ptr, i64 }, align 8
  store ptr %src, ptr %src.dbg.spill, align 8
  call void @llvm.dbg.declare(metadata ptr %src.dbg.spill, metadata !575, metadata !DIExpression()), !dbg !578
  store ptr %dst, ptr %dst.dbg.spill, align 8
  call void @llvm.dbg.declare(metadata ptr %dst.dbg.spill, metadata !576, metadata !DIExpression()), !dbg !579
  store i64 %count, ptr %count.dbg.spill, align 8
  call void @llvm.dbg.declare(metadata ptr %count.dbg.spill, metadata !577, metadata !DIExpression()), !dbg !580
  store ptr %src, ptr %_5, align 8, !dbg !581
  %0 = getelementptr inbounds { ptr, ptr, i64 }, ptr %_5, i32 0, i32 1, !dbg !581
  store ptr %dst, ptr %0, align 8, !dbg !581
  %1 = getelementptr inbounds { ptr, ptr, i64 }, ptr %_5, i32 0, i32 2, !dbg !581
  store i64 %count, ptr %1, align 8, !dbg !581
  %2 = load ptr, ptr %_5, align 8, !dbg !581, !noundef !24
  %3 = getelementptr inbounds { ptr, ptr, i64 }, ptr %_5, i32 0, i32 1, !dbg !581
  %4 = load ptr, ptr %3, align 8, !dbg !581, !noundef !24
  %5 = getelementptr inbounds { ptr, ptr, i64 }, ptr %_5, i32 0, i32 2, !dbg !581
  %6 = load i64, ptr %5, align 8, !dbg !581, !noundef !24
  store ptr %2, ptr %src.dbg.spill.i, align 8
  call void @llvm.dbg.declare(metadata ptr %src.dbg.spill.i, metadata !582, metadata !DIExpression()), !dbg !587
  store ptr %4, ptr %dst.dbg.spill.i, align 8
  call void @llvm.dbg.declare(metadata ptr %dst.dbg.spill.i, metadata !585, metadata !DIExpression()), !dbg !587
  store i64 %6, ptr %count.dbg.spill.i, align 8
  call void @llvm.dbg.declare(metadata ptr %count.dbg.spill.i, metadata !586, metadata !DIExpression()), !dbg !587
; call core::intrinsics::is_aligned_and_not_null
  %_7.i = call zeroext i1 @_ZN4core10intrinsics23is_aligned_and_not_null17h6d98e974457e292fE(ptr %2) #9, !dbg !589
  br i1 %_7.i, label %bb5.i, label %bb4.i, !dbg !589

bb4.i:                                            ; preds = %start
  store i8 0, ptr %_6.i, align 1, !dbg !589
  br label %bb6.i, !dbg !589

bb5.i:                                            ; preds = %start
; call core::intrinsics::is_aligned_and_not_null
  %_9.i = call zeroext i1 @_ZN4core10intrinsics23is_aligned_and_not_null17h6d98e974457e292fE(ptr %4) #9, !dbg !590
  %7 = zext i1 %_9.i to i8, !dbg !589
  store i8 %7, ptr %_6.i, align 1, !dbg !589
  br label %bb6.i, !dbg !589

bb6.i:                                            ; preds = %bb5.i, %bb4.i
  %8 = load i8, ptr %_6.i, align 1, !dbg !589, !range !210, !noundef !24
  %9 = trunc i8 %8 to i1, !dbg !589
  br i1 %9, label %bb2.i, label %bb1.i, !dbg !589

bb1.i:                                            ; preds = %bb6.i
  store i8 0, ptr %_5.i, align 1, !dbg !589
  br label %bb3.i, !dbg !589

bb2.i:                                            ; preds = %bb6.i
; call core::intrinsics::is_nonoverlapping
  %_12.i = call zeroext i1 @_ZN4core10intrinsics17is_nonoverlapping17h67a70de23783f4c9E(ptr %2, ptr %4, i64 %6) #9, !dbg !591
  %10 = zext i1 %_12.i to i8, !dbg !589
  store i8 %10, ptr %_5.i, align 1, !dbg !589
  br label %bb3.i, !dbg !589

bb3.i:                                            ; preds = %bb2.i, %bb1.i
  %11 = load i8, ptr %_5.i, align 1, !dbg !592, !range !210, !noundef !24
  %12 = trunc i8 %11 to i1, !dbg !592
  %_4.i = xor i1 %12, true, !dbg !592
  br i1 %_4.i, label %bb10.i, label %_ZN4core10intrinsics19copy_nonoverlapping7runtime17h334f7888b614e832E.exit, !dbg !592

bb10.i:                                           ; preds = %bb3.i
; call core::panicking::panic_nounwind
  call void @_ZN4core9panicking14panic_nounwind17hb8a2b9db753d85a7E(ptr align 1 @alloc318, i64 166) #10, !dbg !593
  unreachable, !dbg !593

_ZN4core10intrinsics19copy_nonoverlapping7runtime17h334f7888b614e832E.exit: ; preds = %bb3.i
  %13 = mul i64 %count, 24, !dbg !594
  call void @llvm.memcpy.p0.p0.i64(ptr align 8 %dst, ptr align 8 %src, i64 %13, i1 false), !dbg !594
  ret void, !dbg !595
}

; core::intrinsics::is_aligned_and_not_null
; Function Attrs: noredzone nounwind
define zeroext i1 @_ZN4core10intrinsics23is_aligned_and_not_null17h6d98e974457e292fE(ptr %ptr) unnamed_addr #1 !dbg !596 {
start:
  %ptr.dbg.spill = alloca ptr, align 8
  %0 = alloca i8, align 1
  store ptr %ptr, ptr %ptr.dbg.spill, align 8
  call void @llvm.dbg.declare(metadata ptr %ptr.dbg.spill, metadata !600, metadata !DIExpression()), !dbg !601
; call core::ptr::const_ptr::<impl *const T>::is_null
  %_3 = call zeroext i1 @"_ZN4core3ptr9const_ptr33_$LT$impl$u20$$BP$const$u20$T$GT$7is_null17h3a2b9669f2734d1cE"(ptr %ptr) #9, !dbg !602
  %_2 = xor i1 %_3, true, !dbg !603
  br i1 %_2, label %bb2, label %bb1, !dbg !603

bb1:                                              ; preds = %start
  store i8 0, ptr %0, align 1, !dbg !603
  br label %bb3, !dbg !603

bb2:                                              ; preds = %start
; call core::ptr::const_ptr::<impl *const T>::is_aligned
  %_5 = call zeroext i1 @"_ZN4core3ptr9const_ptr33_$LT$impl$u20$$BP$const$u20$T$GT$10is_aligned17h1d6de02456bd4b8bE"(ptr %ptr) #9, !dbg !604
  %1 = zext i1 %_5 to i8, !dbg !603
  store i8 %1, ptr %0, align 1, !dbg !603
  br label %bb3, !dbg !603

bb3:                                              ; preds = %bb1, %bb2
  %2 = load i8, ptr %0, align 1, !dbg !605, !range !210, !noundef !24
  %3 = trunc i8 %2 to i1, !dbg !605
  ret i1 %3, !dbg !605
}

; core::intrinsics::is_aligned_and_not_null
; Function Attrs: noredzone nounwind
define zeroext i1 @_ZN4core10intrinsics23is_aligned_and_not_null17he9a8a4309f67475aE(ptr %ptr) unnamed_addr #1 !dbg !606 {
start:
  %ptr.dbg.spill = alloca ptr, align 8
  %0 = alloca i8, align 1
  store ptr %ptr, ptr %ptr.dbg.spill, align 8
  call void @llvm.dbg.declare(metadata ptr %ptr.dbg.spill, metadata !621, metadata !DIExpression()), !dbg !624
; call core::ptr::const_ptr::<impl *const T>::is_null
  %_3 = call zeroext i1 @"_ZN4core3ptr9const_ptr33_$LT$impl$u20$$BP$const$u20$T$GT$7is_null17h0a7d9b1ec3d38477E"(ptr %ptr) #9, !dbg !625
  %_2 = xor i1 %_3, true, !dbg !626
  br i1 %_2, label %bb2, label %bb1, !dbg !626

bb1:                                              ; preds = %start
  store i8 0, ptr %0, align 1, !dbg !626
  br label %bb3, !dbg !626

bb2:                                              ; preds = %start
; call core::ptr::const_ptr::<impl *const T>::is_aligned
  %_5 = call zeroext i1 @"_ZN4core3ptr9const_ptr33_$LT$impl$u20$$BP$const$u20$T$GT$10is_aligned17heb9fe0941b72d421E"(ptr %ptr) #9, !dbg !627
  %1 = zext i1 %_5 to i8, !dbg !626
  store i8 %1, ptr %0, align 1, !dbg !626
  br label %bb3, !dbg !626

bb3:                                              ; preds = %bb1, %bb2
  %2 = load i8, ptr %0, align 1, !dbg !628, !range !210, !noundef !24
  %3 = trunc i8 %2 to i1, !dbg !628
  ret i1 %3, !dbg !628
}

; core::intrinsics::is_valid_allocation_size
; Function Attrs: noredzone nounwind
define zeroext i1 @_ZN4core10intrinsics24is_valid_allocation_size17h85946175719219c1E(i64 %len) unnamed_addr #1 !dbg !629 {
start:
  %max_len.dbg.spill = alloca i64, align 8
  %len.dbg.spill = alloca i64, align 8
  store i64 %len, ptr %len.dbg.spill, align 8
  call void @llvm.dbg.declare(metadata ptr %len.dbg.spill, metadata !633, metadata !DIExpression()), !dbg !636
  store i64 384307168202282325, ptr %max_len.dbg.spill, align 8, !dbg !637
  call void @llvm.dbg.declare(metadata ptr %max_len.dbg.spill, metadata !634, metadata !DIExpression()), !dbg !638
  %0 = icmp ule i64 %len, 384307168202282325, !dbg !639
  ret i1 %0, !dbg !640
}

; core::intrinsics::copy
; Function Attrs: inlinehint noredzone nounwind
define void @_ZN4core10intrinsics4copy17h1991c7115bfb052dE(ptr %src, ptr %dst, i64 %count) unnamed_addr #0 !dbg !641 {
start:
  %dst.dbg.spill.i = alloca ptr, align 8
  %src.dbg.spill.i = alloca ptr, align 8
  %_4.i = alloca i8, align 1
  %count.dbg.spill = alloca i64, align 8
  %dst.dbg.spill = alloca ptr, align 8
  %src.dbg.spill = alloca ptr, align 8
  %_5 = alloca { ptr, ptr }, align 8
  store ptr %src, ptr %src.dbg.spill, align 8
  call void @llvm.dbg.declare(metadata ptr %src.dbg.spill, metadata !643, metadata !DIExpression()), !dbg !646
  store ptr %dst, ptr %dst.dbg.spill, align 8
  call void @llvm.dbg.declare(metadata ptr %dst.dbg.spill, metadata !644, metadata !DIExpression()), !dbg !647
  store i64 %count, ptr %count.dbg.spill, align 8
  call void @llvm.dbg.declare(metadata ptr %count.dbg.spill, metadata !645, metadata !DIExpression()), !dbg !648
  store ptr %src, ptr %_5, align 8, !dbg !649
  %0 = getelementptr inbounds { ptr, ptr }, ptr %_5, i32 0, i32 1, !dbg !649
  store ptr %dst, ptr %0, align 8, !dbg !649
  %1 = load ptr, ptr %_5, align 8, !dbg !649, !noundef !24
  %2 = getelementptr inbounds { ptr, ptr }, ptr %_5, i32 0, i32 1, !dbg !649
  %3 = load ptr, ptr %2, align 8, !dbg !649, !noundef !24
  store ptr %1, ptr %src.dbg.spill.i, align 8
  call void @llvm.dbg.declare(metadata ptr %src.dbg.spill.i, metadata !650, metadata !DIExpression()), !dbg !657
  store ptr %3, ptr %dst.dbg.spill.i, align 8
  call void @llvm.dbg.declare(metadata ptr %dst.dbg.spill.i, metadata !656, metadata !DIExpression()), !dbg !657
; call core::intrinsics::is_aligned_and_not_null
  %_5.i = call zeroext i1 @_ZN4core10intrinsics23is_aligned_and_not_null17h6d98e974457e292fE(ptr %1) #9, !dbg !659
  br i1 %_5.i, label %bb2.i, label %bb1.i, !dbg !659

bb1.i:                                            ; preds = %start
  store i8 0, ptr %_4.i, align 1, !dbg !659
  br label %bb3.i, !dbg !659

bb2.i:                                            ; preds = %start
; call core::intrinsics::is_aligned_and_not_null
  %_7.i = call zeroext i1 @_ZN4core10intrinsics23is_aligned_and_not_null17h6d98e974457e292fE(ptr %3) #9, !dbg !660
  %4 = zext i1 %_7.i to i8, !dbg !659
  store i8 %4, ptr %_4.i, align 1, !dbg !659
  br label %bb3.i, !dbg !659

bb3.i:                                            ; preds = %bb2.i, %bb1.i
  %5 = load i8, ptr %_4.i, align 1, !dbg !661, !range !210, !noundef !24
  %6 = trunc i8 %5 to i1, !dbg !661
  %_3.i = xor i1 %6, true, !dbg !661
  br i1 %_3.i, label %bb6.i, label %_ZN4core10intrinsics4copy7runtime17hc51c423a0f6b78b0E.exit, !dbg !661

bb6.i:                                            ; preds = %bb3.i
; call core::panicking::panic_nounwind
  call void @_ZN4core9panicking14panic_nounwind17hb8a2b9db753d85a7E(ptr align 1 @alloc320, i64 112) #10, !dbg !662
  unreachable, !dbg !662

_ZN4core10intrinsics4copy7runtime17hc51c423a0f6b78b0E.exit: ; preds = %bb3.i
  %7 = mul i64 24, %count, !dbg !663
  call void @llvm.memmove.p0.p0.i64(ptr align 8 %dst, ptr align 8 %src, i64 %7, i1 false), !dbg !663
  ret void, !dbg !664
}

; core::intrinsics::copy
; Function Attrs: inlinehint noredzone nounwind
define void @_ZN4core10intrinsics4copy17h80e229bb7edd8b1cE(ptr %src, ptr %dst, i64 %count) unnamed_addr #0 !dbg !665 {
start:
  %dst.dbg.spill.i = alloca ptr, align 8
  %src.dbg.spill.i = alloca ptr, align 8
  %_4.i = alloca i8, align 1
  %count.dbg.spill = alloca i64, align 8
  %dst.dbg.spill = alloca ptr, align 8
  %src.dbg.spill = alloca ptr, align 8
  %_5 = alloca { ptr, ptr }, align 8
  store ptr %src, ptr %src.dbg.spill, align 8
  call void @llvm.dbg.declare(metadata ptr %src.dbg.spill, metadata !667, metadata !DIExpression()), !dbg !670
  store ptr %dst, ptr %dst.dbg.spill, align 8
  call void @llvm.dbg.declare(metadata ptr %dst.dbg.spill, metadata !668, metadata !DIExpression()), !dbg !671
  store i64 %count, ptr %count.dbg.spill, align 8
  call void @llvm.dbg.declare(metadata ptr %count.dbg.spill, metadata !669, metadata !DIExpression()), !dbg !672
  store ptr %src, ptr %_5, align 8, !dbg !673
  %0 = getelementptr inbounds { ptr, ptr }, ptr %_5, i32 0, i32 1, !dbg !673
  store ptr %dst, ptr %0, align 8, !dbg !673
  %1 = load ptr, ptr %_5, align 8, !dbg !673, !noundef !24
  %2 = getelementptr inbounds { ptr, ptr }, ptr %_5, i32 0, i32 1, !dbg !673
  %3 = load ptr, ptr %2, align 8, !dbg !673, !noundef !24
  store ptr %1, ptr %src.dbg.spill.i, align 8
  call void @llvm.dbg.declare(metadata ptr %src.dbg.spill.i, metadata !674, metadata !DIExpression()), !dbg !680
  store ptr %3, ptr %dst.dbg.spill.i, align 8
  call void @llvm.dbg.declare(metadata ptr %dst.dbg.spill.i, metadata !679, metadata !DIExpression()), !dbg !680
; call core::intrinsics::is_aligned_and_not_null
  %_5.i = call zeroext i1 @_ZN4core10intrinsics23is_aligned_and_not_null17had45da6734f21ab3E(ptr %1) #9, !dbg !682
  br i1 %_5.i, label %bb2.i, label %bb1.i, !dbg !682

bb1.i:                                            ; preds = %start
  store i8 0, ptr %_4.i, align 1, !dbg !682
  br label %bb3.i, !dbg !682

bb2.i:                                            ; preds = %start
; call core::intrinsics::is_aligned_and_not_null
  %_7.i = call zeroext i1 @_ZN4core10intrinsics23is_aligned_and_not_null17had45da6734f21ab3E(ptr %3) #9, !dbg !683
  %4 = zext i1 %_7.i to i8, !dbg !682
  store i8 %4, ptr %_4.i, align 1, !dbg !682
  br label %bb3.i, !dbg !682

bb3.i:                                            ; preds = %bb2.i, %bb1.i
  %5 = load i8, ptr %_4.i, align 1, !dbg !684, !range !210, !noundef !24
  %6 = trunc i8 %5 to i1, !dbg !684
  %_3.i = xor i1 %6, true, !dbg !684
  br i1 %_3.i, label %bb6.i, label %_ZN4core10intrinsics4copy7runtime17h5bbf02e52fc312f9E.exit, !dbg !684

bb6.i:                                            ; preds = %bb3.i
; call core::panicking::panic_nounwind
  call void @_ZN4core9panicking14panic_nounwind17hb8a2b9db753d85a7E(ptr align 1 @alloc320, i64 112) #10, !dbg !685
  unreachable, !dbg !685

_ZN4core10intrinsics4copy7runtime17h5bbf02e52fc312f9E.exit: ; preds = %bb3.i
  %7 = mul i64 8, %count, !dbg !686
  call void @llvm.memmove.p0.p0.i64(ptr align 8 %dst, ptr align 8 %src, i64 %7, i1 false), !dbg !686
  ret void, !dbg !687
}

; core::cmp::impls::<impl core::cmp::Ord for u64>::cmp
; Function Attrs: inlinehint noredzone nounwind
define internal i8 @"_ZN4core3cmp5impls48_$LT$impl$u20$core..cmp..Ord$u20$for$u20$u64$GT$3cmp17h7c7142be27ed0ddeE"(ptr align 8 %self, ptr align 8 %other) unnamed_addr #0 !dbg !688 {
start:
  %other.dbg.spill = alloca ptr, align 8
  %self.dbg.spill = alloca ptr, align 8
  %0 = alloca i8, align 1
  store ptr %self, ptr %self.dbg.spill, align 8
  call void @llvm.dbg.declare(metadata ptr %self.dbg.spill, metadata !695, metadata !DIExpression()), !dbg !697
  store ptr %other, ptr %other.dbg.spill, align 8
  call void @llvm.dbg.declare(metadata ptr %other.dbg.spill, metadata !696, metadata !DIExpression()), !dbg !698
  %_4 = load i64, ptr %self, align 8, !dbg !699, !noundef !24
  %_5 = load i64, ptr %other, align 8, !dbg !700, !noundef !24
  %_3 = icmp ult i64 %_4, %_5, !dbg !699
  br i1 %_3, label %bb1, label %bb2, !dbg !699

bb2:                                              ; preds = %start
  %_7 = load i64, ptr %self, align 8, !dbg !701, !noundef !24
  %_8 = load i64, ptr %other, align 8, !dbg !702, !noundef !24
  %_6 = icmp eq i64 %_7, %_8, !dbg !701
  br i1 %_6, label %bb3, label %bb4, !dbg !701

bb1:                                              ; preds = %start
  store i8 -1, ptr %0, align 1, !dbg !703
  br label %bb5, !dbg !704

bb5:                                              ; preds = %bb4, %bb3, %bb1
  %1 = load i8, ptr %0, align 1, !dbg !705, !range !706, !noundef !24
  ret i8 %1, !dbg !705

bb4:                                              ; preds = %bb2
  store i8 1, ptr %0, align 1, !dbg !707
  br label %bb5, !dbg !708

bb3:                                              ; preds = %bb2
  store i8 0, ptr %0, align 1, !dbg !709
  br label %bb5, !dbg !708
}

; core::fmt::ArgumentV1::new_lower_hex
; Function Attrs: inlinehint noredzone nounwind
define { ptr, ptr } @_ZN4core3fmt10ArgumentV113new_lower_hex17h97e11d00abe93197E(ptr align 8 %x) unnamed_addr #0 !dbg !710 {
start:
  %x.dbg.spill = alloca ptr, align 8
  store ptr %x, ptr %x.dbg.spill, align 8
  call void @llvm.dbg.declare(metadata ptr %x.dbg.spill, metadata !724, metadata !DIExpression()), !dbg !727
; call core::fmt::ArgumentV1::new
  %0 = call { ptr, ptr } @_ZN4core3fmt10ArgumentV13new17hd91aae84939f374aE(ptr align 8 %x, ptr @"_ZN4core3fmt3num53_$LT$impl$u20$core..fmt..LowerHex$u20$for$u20$u64$GT$3fmt17hb5d3d03b07b21e1dE") #9, !dbg !728
  %1 = extractvalue { ptr, ptr } %0, 0, !dbg !728
  %2 = extractvalue { ptr, ptr } %0, 1, !dbg !728
  %3 = insertvalue { ptr, ptr } undef, ptr %1, 0, !dbg !729
  %4 = insertvalue { ptr, ptr } %3, ptr %2, 1, !dbg !729
  ret { ptr, ptr } %4, !dbg !729
}

; core::fmt::num::<impl core::fmt::Debug for u32>::fmt
; Function Attrs: inlinehint noredzone nounwind
define internal zeroext i1 @"_ZN4core3fmt3num50_$LT$impl$u20$core..fmt..Debug$u20$for$u20$u32$GT$3fmt17hf78279371511cc61E"(ptr align 4 %self, ptr align 8 %f) unnamed_addr #0 !dbg !730 {
start:
  %f.dbg.spill = alloca ptr, align 8
  %self.dbg.spill = alloca ptr, align 8
  %0 = alloca i8, align 1
  store ptr %self, ptr %self.dbg.spill, align 8
  call void @llvm.dbg.declare(metadata ptr %self.dbg.spill, metadata !737, metadata !DIExpression()), !dbg !739
  store ptr %f, ptr %f.dbg.spill, align 8
  call void @llvm.dbg.declare(metadata ptr %f.dbg.spill, metadata !738, metadata !DIExpression()), !dbg !740
; call core::fmt::Formatter::debug_lower_hex
  %_3 = call zeroext i1 @_ZN4core3fmt9Formatter15debug_lower_hex17hede89826f482f482E(ptr align 8 %f) #9, !dbg !741
  br i1 %_3, label %bb2, label %bb3, !dbg !741

bb3:                                              ; preds = %start
; call core::fmt::Formatter::debug_upper_hex
  %_7 = call zeroext i1 @_ZN4core3fmt9Formatter15debug_upper_hex17h95733e9ce9a21bd8E(ptr align 8 %f) #9, !dbg !742
  br i1 %_7, label %bb5, label %bb6, !dbg !742

bb2:                                              ; preds = %start
; call core::fmt::num::<impl core::fmt::LowerHex for u32>::fmt
  %1 = call zeroext i1 @"_ZN4core3fmt3num53_$LT$impl$u20$core..fmt..LowerHex$u20$for$u20$u32$GT$3fmt17h85f67d37ee19eb88E"(ptr align 4 %self, ptr align 8 %f) #9, !dbg !743
  %2 = zext i1 %1 to i8, !dbg !743
  store i8 %2, ptr %0, align 1, !dbg !743
  br label %bb7, !dbg !743

bb7:                                              ; preds = %bb6, %bb5, %bb2
  %3 = load i8, ptr %0, align 1, !dbg !744, !range !210, !noundef !24
  %4 = trunc i8 %3 to i1, !dbg !744
  ret i1 %4, !dbg !744

bb6:                                              ; preds = %bb3
; call core::fmt::num::imp::<impl core::fmt::Display for u32>::fmt
  %5 = call zeroext i1 @"_ZN4core3fmt3num3imp52_$LT$impl$u20$core..fmt..Display$u20$for$u20$u32$GT$3fmt17hd20c833b71ef8a33E"(ptr align 4 %self, ptr align 8 %f) #9, !dbg !745
  %6 = zext i1 %5 to i8, !dbg !745
  store i8 %6, ptr %0, align 1, !dbg !745
  br label %bb7, !dbg !745

bb5:                                              ; preds = %bb3
; call core::fmt::num::<impl core::fmt::UpperHex for u32>::fmt
  %7 = call zeroext i1 @"_ZN4core3fmt3num53_$LT$impl$u20$core..fmt..UpperHex$u20$for$u20$u32$GT$3fmt17hf2d6035f8203d910E"(ptr align 4 %self, ptr align 8 %f) #9, !dbg !746
  %8 = zext i1 %7 to i8, !dbg !746
  store i8 %8, ptr %0, align 1, !dbg !746
  br label %bb7, !dbg !746
}

; core::fmt::num::<impl core::fmt::Debug for u64>::fmt
; Function Attrs: inlinehint noredzone nounwind
define internal zeroext i1 @"_ZN4core3fmt3num50_$LT$impl$u20$core..fmt..Debug$u20$for$u20$u64$GT$3fmt17h0d3cb66510b449e7E"(ptr align 8 %self, ptr align 8 %f) unnamed_addr #0 !dbg !747 {
start:
  %f.dbg.spill = alloca ptr, align 8
  %self.dbg.spill = alloca ptr, align 8
  %0 = alloca i8, align 1
  store ptr %self, ptr %self.dbg.spill, align 8
  call void @llvm.dbg.declare(metadata ptr %self.dbg.spill, metadata !752, metadata !DIExpression()), !dbg !754
  store ptr %f, ptr %f.dbg.spill, align 8
  call void @llvm.dbg.declare(metadata ptr %f.dbg.spill, metadata !753, metadata !DIExpression()), !dbg !755
; call core::fmt::Formatter::debug_lower_hex
  %_3 = call zeroext i1 @_ZN4core3fmt9Formatter15debug_lower_hex17hede89826f482f482E(ptr align 8 %f) #9, !dbg !756
  br i1 %_3, label %bb2, label %bb3, !dbg !756

bb3:                                              ; preds = %start
; call core::fmt::Formatter::debug_upper_hex
  %_7 = call zeroext i1 @_ZN4core3fmt9Formatter15debug_upper_hex17h95733e9ce9a21bd8E(ptr align 8 %f) #9, !dbg !757
  br i1 %_7, label %bb5, label %bb6, !dbg !757

bb2:                                              ; preds = %start
; call core::fmt::num::<impl core::fmt::LowerHex for u64>::fmt
  %1 = call zeroext i1 @"_ZN4core3fmt3num53_$LT$impl$u20$core..fmt..LowerHex$u20$for$u20$u64$GT$3fmt17hb5d3d03b07b21e1dE"(ptr align 8 %self, ptr align 8 %f) #9, !dbg !758
  %2 = zext i1 %1 to i8, !dbg !758
  store i8 %2, ptr %0, align 1, !dbg !758
  br label %bb7, !dbg !758

bb7:                                              ; preds = %bb6, %bb5, %bb2
  %3 = load i8, ptr %0, align 1, !dbg !759, !range !210, !noundef !24
  %4 = trunc i8 %3 to i1, !dbg !759
  ret i1 %4, !dbg !759

bb6:                                              ; preds = %bb3
; call core::fmt::num::imp::<impl core::fmt::Display for u64>::fmt
  %5 = call zeroext i1 @"_ZN4core3fmt3num3imp52_$LT$impl$u20$core..fmt..Display$u20$for$u20$u64$GT$3fmt17hbb31c9d7f4d2f272E"(ptr align 8 %self, ptr align 8 %f) #9, !dbg !760
  %6 = zext i1 %5 to i8, !dbg !760
  store i8 %6, ptr %0, align 1, !dbg !760
  br label %bb7, !dbg !760

bb5:                                              ; preds = %bb3
; call core::fmt::num::<impl core::fmt::UpperHex for u64>::fmt
  %7 = call zeroext i1 @"_ZN4core3fmt3num53_$LT$impl$u20$core..fmt..UpperHex$u20$for$u20$u64$GT$3fmt17hded790cd4be26981E"(ptr align 8 %self, ptr align 8 %f) #9, !dbg !761
  %8 = zext i1 %7 to i8, !dbg !761
  store i8 %8, ptr %0, align 1, !dbg !761
  br label %bb7, !dbg !761
}

; core::fmt::builders::DebugList::entries
; Function Attrs: noredzone nounwind
define align 8 ptr @_ZN4core3fmt8builders9DebugList7entries17h56f7e9ea079df9daE(ptr align 8 %self, ptr %entries.0, ptr %entries.1) unnamed_addr #1 !dbg !762 {
start:
  %entries.dbg.spill = alloca { ptr, ptr }, align 8
  %self.dbg.spill = alloca ptr, align 8
  %entry = alloca ptr, align 8
  %_7 = alloca ptr, align 8
  %iter = alloca { ptr, ptr }, align 8
  store ptr %self, ptr %self.dbg.spill, align 8
  call void @llvm.dbg.declare(metadata ptr %self.dbg.spill, metadata !791, metadata !DIExpression()), !dbg !800
  %0 = getelementptr inbounds { ptr, ptr }, ptr %entries.dbg.spill, i32 0, i32 0
  store ptr %entries.0, ptr %0, align 8
  %1 = getelementptr inbounds { ptr, ptr }, ptr %entries.dbg.spill, i32 0, i32 1
  store ptr %entries.1, ptr %1, align 8
  call void @llvm.dbg.declare(metadata ptr %entries.dbg.spill, metadata !792, metadata !DIExpression()), !dbg !801
  call void @llvm.dbg.declare(metadata ptr %iter, metadata !793, metadata !DIExpression()), !dbg !802
  call void @llvm.dbg.declare(metadata ptr %entry, metadata !795, metadata !DIExpression()), !dbg !803
; call <I as core::iter::traits::collect::IntoIterator>::into_iter
  %2 = call { ptr, ptr } @"_ZN63_$LT$I$u20$as$u20$core..iter..traits..collect..IntoIterator$GT$9into_iter17hef8478d514d729d1E"(ptr %entries.0, ptr %entries.1) #9, !dbg !804
  %_4.0 = extractvalue { ptr, ptr } %2, 0, !dbg !804
  %_4.1 = extractvalue { ptr, ptr } %2, 1, !dbg !804
  %3 = getelementptr inbounds { ptr, ptr }, ptr %iter, i32 0, i32 0, !dbg !804
  store ptr %_4.0, ptr %3, align 8, !dbg !804
  %4 = getelementptr inbounds { ptr, ptr }, ptr %iter, i32 0, i32 1, !dbg !804
  store ptr %_4.1, ptr %4, align 8, !dbg !804
  br label %bb2, !dbg !805

bb2:                                              ; preds = %bb4, %start
; call <core::slice::iter::Iter<T> as core::iter::traits::iterator::Iterator>::next
  %5 = call align 8 ptr @"_ZN91_$LT$core..slice..iter..Iter$LT$T$GT$$u20$as$u20$core..iter..traits..iterator..Iterator$GT$4next17hfdeaaa0403fde98aE"(ptr align 8 %iter) #9, !dbg !802
  store ptr %5, ptr %_7, align 8, !dbg !802
  %6 = load ptr, ptr %_7, align 8, !dbg !802, !noundef !24
  %7 = ptrtoint ptr %6 to i64, !dbg !802
  %8 = icmp eq i64 %7, 0, !dbg !802
  %_10 = select i1 %8, i64 0, i64 1, !dbg !802
  %9 = icmp eq i64 %_10, 0, !dbg !802
  br i1 %9, label %bb6, label %bb4, !dbg !802

bb6:                                              ; preds = %bb2
  ret ptr %self, !dbg !806

bb4:                                              ; preds = %bb2
  %10 = load ptr, ptr %_7, align 8, !dbg !807, !nonnull !24, !align !485, !noundef !24
  store ptr %10, ptr %entry, align 8, !dbg !807
; call core::fmt::builders::DebugList::entry
  %_12 = call align 8 ptr @_ZN4core3fmt8builders9DebugList5entry17h02b10e57178538a9E(ptr align 8 %self, ptr align 1 %entry, ptr align 8 @vtable.1) #9, !dbg !808
  br label %bb2, !dbg !809

bb5:                                              ; No predecessors!
  unreachable, !dbg !802
}

; core::fmt::Arguments::new_v1_formatted
; Function Attrs: inlinehint noredzone nounwind
define internal void @_ZN4core3fmt9Arguments16new_v1_formatted17h858bc03e28592ca2E(ptr sret(%"core::fmt::Arguments<'_>") %0, ptr align 8 %pieces.0, i64 %pieces.1, ptr align 8 %args.0, i64 %args.1, ptr align 8 %fmt.0, i64 %fmt.1) unnamed_addr #0 !dbg !810 {
start:
  %_unsafe_arg.dbg.spill = alloca %"core::fmt::UnsafeArg", align 1
  %fmt.dbg.spill = alloca { ptr, i64 }, align 8
  %args.dbg.spill = alloca { ptr, i64 }, align 8
  %pieces.dbg.spill = alloca { ptr, i64 }, align 8
  %_6 = alloca { ptr, i64 }, align 8
  %1 = getelementptr inbounds { ptr, i64 }, ptr %pieces.dbg.spill, i32 0, i32 0
  store ptr %pieces.0, ptr %1, align 8
  %2 = getelementptr inbounds { ptr, i64 }, ptr %pieces.dbg.spill, i32 0, i32 1
  store i64 %pieces.1, ptr %2, align 8
  call void @llvm.dbg.declare(metadata ptr %pieces.dbg.spill, metadata !876, metadata !DIExpression()), !dbg !880
  %3 = getelementptr inbounds { ptr, i64 }, ptr %args.dbg.spill, i32 0, i32 0
  store ptr %args.0, ptr %3, align 8
  %4 = getelementptr inbounds { ptr, i64 }, ptr %args.dbg.spill, i32 0, i32 1
  store i64 %args.1, ptr %4, align 8
  call void @llvm.dbg.declare(metadata ptr %args.dbg.spill, metadata !877, metadata !DIExpression()), !dbg !881
  %5 = getelementptr inbounds { ptr, i64 }, ptr %fmt.dbg.spill, i32 0, i32 0
  store ptr %fmt.0, ptr %5, align 8
  %6 = getelementptr inbounds { ptr, i64 }, ptr %fmt.dbg.spill, i32 0, i32 1
  store i64 %fmt.1, ptr %6, align 8
  call void @llvm.dbg.declare(metadata ptr %fmt.dbg.spill, metadata !878, metadata !DIExpression()), !dbg !882
  call void @llvm.dbg.declare(metadata ptr %_unsafe_arg.dbg.spill, metadata !879, metadata !DIExpression()), !dbg !883
  %7 = getelementptr inbounds { ptr, i64 }, ptr %_6, i32 0, i32 0, !dbg !884
  store ptr %fmt.0, ptr %7, align 8, !dbg !884
  %8 = getelementptr inbounds { ptr, i64 }, ptr %_6, i32 0, i32 1, !dbg !884
  store i64 %fmt.1, ptr %8, align 8, !dbg !884
  %9 = getelementptr inbounds %"core::fmt::Arguments<'_>", ptr %0, i32 0, i32 1, !dbg !885
  %10 = getelementptr inbounds { ptr, i64 }, ptr %9, i32 0, i32 0, !dbg !885
  store ptr %pieces.0, ptr %10, align 8, !dbg !885
  %11 = getelementptr inbounds { ptr, i64 }, ptr %9, i32 0, i32 1, !dbg !885
  store i64 %pieces.1, ptr %11, align 8, !dbg !885
  %12 = getelementptr inbounds { ptr, i64 }, ptr %_6, i32 0, i32 0, !dbg !885
  %13 = load ptr, ptr %12, align 8, !dbg !885, !align !485, !noundef !24
  %14 = getelementptr inbounds { ptr, i64 }, ptr %_6, i32 0, i32 1, !dbg !885
  %15 = load i64, ptr %14, align 8, !dbg !885
  %16 = getelementptr inbounds { ptr, i64 }, ptr %0, i32 0, i32 0, !dbg !885
  store ptr %13, ptr %16, align 8, !dbg !885
  %17 = getelementptr inbounds { ptr, i64 }, ptr %0, i32 0, i32 1, !dbg !885
  store i64 %15, ptr %17, align 8, !dbg !885
  %18 = getelementptr inbounds %"core::fmt::Arguments<'_>", ptr %0, i32 0, i32 2, !dbg !885
  %19 = getelementptr inbounds { ptr, i64 }, ptr %18, i32 0, i32 0, !dbg !885
  store ptr %args.0, ptr %19, align 8, !dbg !885
  %20 = getelementptr inbounds { ptr, i64 }, ptr %18, i32 0, i32 1, !dbg !885
  store i64 %args.1, ptr %20, align 8, !dbg !885
  ret void, !dbg !886
}

; core::fmt::Arguments::new_v1
; Function Attrs: inlinehint noredzone nounwind
define internal void @_ZN4core3fmt9Arguments6new_v117h8f458a1f5ca8d89bE(ptr sret(%"core::fmt::Arguments<'_>") %0, ptr align 8 %pieces.0, i64 %pieces.1, ptr align 8 %args.0, i64 %args.1) unnamed_addr #0 !dbg !887 {
start:
  %args.dbg.spill = alloca { ptr, i64 }, align 8
  %pieces.dbg.spill = alloca { ptr, i64 }, align 8
  %_25 = alloca { ptr, i64 }, align 8
  %_17 = alloca %"core::fmt::Arguments<'_>", align 8
  %_3 = alloca i8, align 1
  %1 = getelementptr inbounds { ptr, i64 }, ptr %pieces.dbg.spill, i32 0, i32 0
  store ptr %pieces.0, ptr %1, align 8
  %2 = getelementptr inbounds { ptr, i64 }, ptr %pieces.dbg.spill, i32 0, i32 1
  store i64 %pieces.1, ptr %2, align 8
  call void @llvm.dbg.declare(metadata ptr %pieces.dbg.spill, metadata !891, metadata !DIExpression()), !dbg !893
  %3 = getelementptr inbounds { ptr, i64 }, ptr %args.dbg.spill, i32 0, i32 0
  store ptr %args.0, ptr %3, align 8
  %4 = getelementptr inbounds { ptr, i64 }, ptr %args.dbg.spill, i32 0, i32 1
  store i64 %args.1, ptr %4, align 8
  call void @llvm.dbg.declare(metadata ptr %args.dbg.spill, metadata !892, metadata !DIExpression()), !dbg !894
  %_4 = icmp ult i64 %pieces.1, %args.1, !dbg !895
  br i1 %_4, label %bb1, label %bb2, !dbg !895

bb2:                                              ; preds = %start
  %5 = call { i64, i1 } @llvm.uadd.with.overflow.i64(i64 %args.1, i64 1), !dbg !896
  %_15.0 = extractvalue { i64, i1 } %5, 0, !dbg !896
  %_15.1 = extractvalue { i64, i1 } %5, 1, !dbg !896
  %6 = call i1 @llvm.expect.i1(i1 %_15.1, i1 false), !dbg !896
  br i1 %6, label %panic, label %bb4, !dbg !896

bb1:                                              ; preds = %start
  store i8 1, ptr %_3, align 1, !dbg !895
  br label %bb3, !dbg !895

bb3:                                              ; preds = %bb4, %bb1
  %7 = load i8, ptr %_3, align 1, !dbg !895, !range !210, !noundef !24
  %8 = trunc i8 %7 to i1, !dbg !895
  br i1 %8, label %bb5, label %bb7, !dbg !895

bb4:                                              ; preds = %bb2
  %_9 = icmp ugt i64 %pieces.1, %_15.0, !dbg !897
  %9 = zext i1 %_9 to i8, !dbg !895
  store i8 %9, ptr %_3, align 1, !dbg !895
  br label %bb3, !dbg !895

panic:                                            ; preds = %bb2
; call core::panicking::panic
  call void @_ZN4core9panicking5panic17h1deab6c62a1415a6E(ptr align 1 @str.2, i64 28, ptr align 8 @alloc325) #10, !dbg !896
  unreachable, !dbg !896

bb7:                                              ; preds = %bb3
  store ptr null, ptr %_25, align 8, !dbg !898
  %10 = getelementptr inbounds %"core::fmt::Arguments<'_>", ptr %0, i32 0, i32 1, !dbg !899
  %11 = getelementptr inbounds { ptr, i64 }, ptr %10, i32 0, i32 0, !dbg !899
  store ptr %pieces.0, ptr %11, align 8, !dbg !899
  %12 = getelementptr inbounds { ptr, i64 }, ptr %10, i32 0, i32 1, !dbg !899
  store i64 %pieces.1, ptr %12, align 8, !dbg !899
  %13 = getelementptr inbounds { ptr, i64 }, ptr %_25, i32 0, i32 0, !dbg !899
  %14 = load ptr, ptr %13, align 8, !dbg !899, !align !485, !noundef !24
  %15 = getelementptr inbounds { ptr, i64 }, ptr %_25, i32 0, i32 1, !dbg !899
  %16 = load i64, ptr %15, align 8, !dbg !899
  %17 = getelementptr inbounds { ptr, i64 }, ptr %0, i32 0, i32 0, !dbg !899
  store ptr %14, ptr %17, align 8, !dbg !899
  %18 = getelementptr inbounds { ptr, i64 }, ptr %0, i32 0, i32 1, !dbg !899
  store i64 %16, ptr %18, align 8, !dbg !899
  %19 = getelementptr inbounds %"core::fmt::Arguments<'_>", ptr %0, i32 0, i32 2, !dbg !899
  %20 = getelementptr inbounds { ptr, i64 }, ptr %19, i32 0, i32 0, !dbg !899
  store ptr %args.0, ptr %20, align 8, !dbg !899
  %21 = getelementptr inbounds { ptr, i64 }, ptr %19, i32 0, i32 1, !dbg !899
  store i64 %args.1, ptr %21, align 8, !dbg !899
  ret void, !dbg !900

bb5:                                              ; preds = %bb3
; call core::fmt::Arguments::new_v1
  call void @_ZN4core3fmt9Arguments6new_v117h8f458a1f5ca8d89bE(ptr sret(%"core::fmt::Arguments<'_>") %_17, ptr align 8 @alloc79, i64 1, ptr align 8 @alloc94, i64 0) #9, !dbg !901
; call core::panicking::panic_fmt
  call void @_ZN4core9panicking9panic_fmt17h750b68cc932bb047E(ptr %_17, ptr align 8 @alloc327) #10, !dbg !901
  unreachable, !dbg !901
}

; core::mem::swap_simple
; Function Attrs: inlinehint noredzone nounwind
define void @_ZN4core3mem11swap_simple17h6dee9e3aa4b71bd1E(ptr align 8 %x, ptr align 8 %y) unnamed_addr #0 !dbg !902 {
start:
  %y.dbg.spill = alloca ptr, align 8
  %x.dbg.spill = alloca ptr, align 8
  %_12 = alloca %"core::mem::maybe_uninit::MaybeUninit<bootinfo::memory_map::MemoryRegion>", align 8
  %_9 = alloca %"core::mem::maybe_uninit::MaybeUninit<bootinfo::memory_map::MemoryRegion>", align 8
  %b = alloca %"core::mem::maybe_uninit::MaybeUninit<bootinfo::memory_map::MemoryRegion>", align 8
  %a = alloca %"core::mem::maybe_uninit::MaybeUninit<bootinfo::memory_map::MemoryRegion>", align 8
  store ptr %x, ptr %x.dbg.spill, align 8
  call void @llvm.dbg.declare(metadata ptr %x.dbg.spill, metadata !908, metadata !DIExpression()), !dbg !914
  store ptr %y, ptr %y.dbg.spill, align 8
  call void @llvm.dbg.declare(metadata ptr %y.dbg.spill, metadata !909, metadata !DIExpression()), !dbg !915
  call void @llvm.dbg.declare(metadata ptr %a, metadata !910, metadata !DIExpression()), !dbg !916
  call void @llvm.dbg.declare(metadata ptr %b, metadata !912, metadata !DIExpression()), !dbg !917
; call core::ptr::read
  call void @_ZN4core3ptr4read17hb4b56891f945b4a2E(ptr sret(%"core::mem::maybe_uninit::MaybeUninit<bootinfo::memory_map::MemoryRegion>") %a, ptr %x) #9, !dbg !918
; call core::ptr::read
  call void @_ZN4core3ptr4read17hb4b56891f945b4a2E(ptr sret(%"core::mem::maybe_uninit::MaybeUninit<bootinfo::memory_map::MemoryRegion>") %b, ptr %y) #9, !dbg !919
  call void @llvm.memcpy.p0.p0.i64(ptr align 8 %_9, ptr align 8 %b, i64 24, i1 false), !dbg !920
; call core::ptr::write
  call void @_ZN4core3ptr5write17h6743454b4337d9d7E(ptr %x, ptr %_9) #9, !dbg !921
  call void @llvm.memcpy.p0.p0.i64(ptr align 8 %_12, ptr align 8 %a, i64 24, i1 false), !dbg !922
; call core::ptr::write
  call void @_ZN4core3ptr5write17h6743454b4337d9d7E(ptr %y, ptr %_12) #9, !dbg !923
  ret void, !dbg !924
}

; core::mem::swap_simple
; Function Attrs: inlinehint noredzone nounwind
define void @_ZN4core3mem11swap_simple17heac569bdee2dd6ebE(ptr align 8 %x, ptr align 8 %y) unnamed_addr #0 !dbg !925 {
start:
  %y.dbg.spill = alloca ptr, align 8
  %x.dbg.spill = alloca ptr, align 8
  %_12 = alloca %"bootinfo::memory_map::MemoryRegion", align 8
  %_9 = alloca %"bootinfo::memory_map::MemoryRegion", align 8
  %b = alloca %"bootinfo::memory_map::MemoryRegion", align 8
  %a = alloca %"bootinfo::memory_map::MemoryRegion", align 8
  store ptr %x, ptr %x.dbg.spill, align 8
  call void @llvm.dbg.declare(metadata ptr %x.dbg.spill, metadata !930, metadata !DIExpression()), !dbg !936
  store ptr %y, ptr %y.dbg.spill, align 8
  call void @llvm.dbg.declare(metadata ptr %y.dbg.spill, metadata !931, metadata !DIExpression()), !dbg !937
  call void @llvm.dbg.declare(metadata ptr %a, metadata !932, metadata !DIExpression()), !dbg !938
  call void @llvm.dbg.declare(metadata ptr %b, metadata !934, metadata !DIExpression()), !dbg !939
; call core::ptr::read
  call void @_ZN4core3ptr4read17hb3b15f8990e80d7bE(ptr sret(%"bootinfo::memory_map::MemoryRegion") %a, ptr %x) #9, !dbg !940
; call core::ptr::read
  call void @_ZN4core3ptr4read17hb3b15f8990e80d7bE(ptr sret(%"bootinfo::memory_map::MemoryRegion") %b, ptr %y) #9, !dbg !941
  call void @llvm.memcpy.p0.p0.i64(ptr align 8 %_9, ptr align 8 %b, i64 24, i1 false), !dbg !942
; call core::ptr::write
  call void @_ZN4core3ptr5write17h103d448b06de46fdE(ptr %x, ptr %_9) #9, !dbg !943
  call void @llvm.memcpy.p0.p0.i64(ptr align 8 %_12, ptr align 8 %a, i64 24, i1 false), !dbg !944
; call core::ptr::write
  call void @_ZN4core3ptr5write17h103d448b06de46fdE(ptr %y, ptr %_12) #9, !dbg !945
  ret void, !dbg !946
}

; core::mem::swap
; Function Attrs: inlinehint noredzone nounwind
define void @_ZN4core3mem4swap17hb2be4dcaffb5f0ffE(ptr align 8 %x, ptr align 8 %y) unnamed_addr #0 !dbg !947 {
start:
  %y.dbg.spill = alloca ptr, align 8
  %x.dbg.spill = alloca ptr, align 8
  store ptr %x, ptr %x.dbg.spill, align 8
  call void @llvm.dbg.declare(metadata ptr %x.dbg.spill, metadata !949, metadata !DIExpression()), !dbg !951
  store ptr %y, ptr %y.dbg.spill, align 8
  call void @llvm.dbg.declare(metadata ptr %y.dbg.spill, metadata !950, metadata !DIExpression()), !dbg !952
  %_7 = icmp eq i64 8, 0, !dbg !953
  %0 = call i1 @llvm.expect.i1(i1 %_7, i1 false), !dbg !953
  br i1 %0, label %panic, label %bb3, !dbg !953

bb3:                                              ; preds = %start
  %_4 = udiv i64 24, 8, !dbg !953
  %_3 = icmp ugt i64 %_4, 4, !dbg !953
  br i1 %_3, label %bb4, label %bb5, !dbg !953

panic:                                            ; preds = %start
; call core::panicking::panic
  call void @_ZN4core9panicking5panic17h1deab6c62a1415a6E(ptr align 1 @str.3, i64 25, ptr align 8 @alloc329) #10, !dbg !953
  unreachable, !dbg !953

bb5:                                              ; preds = %bb3
; call core::mem::swap_simple
  call void @_ZN4core3mem11swap_simple17heac569bdee2dd6ebE(ptr align 8 %x, ptr align 8 %y) #9, !dbg !954
  br label %bb6, !dbg !954

bb4:                                              ; preds = %bb3
; call core::ptr::swap_nonoverlapping
  call void @_ZN4core3ptr19swap_nonoverlapping17hd03c37348c6ec371E(ptr %x, ptr %y, i64 1) #9, !dbg !955
  br label %bb6, !dbg !955

bb6:                                              ; preds = %bb5, %bb4
  ret void, !dbg !956
}

; core::mem::forget
; Function Attrs: inlinehint noredzone nounwind
define void @_ZN4core3mem6forget17hfec392ff4fc11a00E(ptr %t) unnamed_addr #0 !dbg !957 {
start:
  %_2.i = alloca %"bootinfo::memory_map::MemoryRegion", align 8
  %_3 = alloca %"bootinfo::memory_map::MemoryRegion", align 8
  %_2 = alloca %"core::mem::manually_drop::ManuallyDrop<bootinfo::memory_map::MemoryRegion>", align 8
  call void @llvm.dbg.declare(metadata ptr %t, metadata !961, metadata !DIExpression()), !dbg !962
  call void @llvm.memcpy.p0.p0.i64(ptr align 8 %_3, ptr align 8 %t, i64 24, i1 false), !dbg !963
  call void @llvm.dbg.declare(metadata ptr %_3, metadata !964, metadata !DIExpression()), !dbg !970
  call void @llvm.memcpy.p0.p0.i64(ptr align 8 %_2.i, ptr align 8 %_3, i64 24, i1 false), !dbg !972
  call void @llvm.memcpy.p0.p0.i64(ptr align 8 %_2, ptr align 8 %_2.i, i64 24, i1 false), !dbg !973
  ret void, !dbg !974
}

; core::num::<impl usize>::checked_mul
; Function Attrs: inlinehint noredzone nounwind
define internal { i64, i64 } @"_ZN4core3num23_$LT$impl$u20$usize$GT$11checked_mul17hc1f85385c153f8faE"(i64 %self, i64 %rhs) unnamed_addr #0 !dbg !975 {
start:
  %b.dbg.spill.i = alloca i8, align 1
  %a.dbg.spill.i = alloca i64, align 8
  %0 = alloca { i64, i8 }, align 8
  %rhs.dbg.spill.i = alloca i64, align 8
  %self.dbg.spill.i = alloca i64, align 8
  %1 = alloca { i64, i8 }, align 8
  %2 = alloca i8, align 1
  %b.dbg.spill = alloca i8, align 1
  %a.dbg.spill = alloca i64, align 8
  %rhs.dbg.spill = alloca i64, align 8
  %self.dbg.spill = alloca i64, align 8
  %3 = alloca { i64, i64 }, align 8
  store i64 %self, ptr %self.dbg.spill, align 8
  call void @llvm.dbg.declare(metadata ptr %self.dbg.spill, metadata !982, metadata !DIExpression()), !dbg !987
  store i64 %rhs, ptr %rhs.dbg.spill, align 8
  call void @llvm.dbg.declare(metadata ptr %rhs.dbg.spill, metadata !983, metadata !DIExpression()), !dbg !988
  store i64 %self, ptr %self.dbg.spill.i, align 8
  call void @llvm.dbg.declare(metadata ptr %self.dbg.spill.i, metadata !989, metadata !DIExpression()), !dbg !1002
  store i64 %rhs, ptr %rhs.dbg.spill.i, align 8
  call void @llvm.dbg.declare(metadata ptr %rhs.dbg.spill.i, metadata !998, metadata !DIExpression()), !dbg !1004
  %4 = call { i64, i1 } @llvm.umul.with.overflow.i64(i64 %self, i64 %rhs), !dbg !1005
  %5 = extractvalue { i64, i1 } %4, 0, !dbg !1005
  %6 = extractvalue { i64, i1 } %4, 1, !dbg !1005
  %7 = zext i1 %6 to i8, !dbg !1005
  store i64 %5, ptr %0, align 8, !dbg !1005
  %8 = getelementptr inbounds { i64, i8 }, ptr %0, i32 0, i32 1, !dbg !1005
  store i8 %7, ptr %8, align 8, !dbg !1005
  %_5.0.i = load i64, ptr %0, align 8, !dbg !1005, !noundef !24
  %9 = getelementptr inbounds { i64, i8 }, ptr %0, i32 0, i32 1, !dbg !1005
  %10 = load i8, ptr %9, align 8, !dbg !1005, !range !210, !noundef !24
  %_5.1.i = trunc i8 %10 to i1, !dbg !1005
  store i64 %_5.0.i, ptr %a.dbg.spill.i, align 8, !dbg !1006
  call void @llvm.dbg.declare(metadata ptr %a.dbg.spill.i, metadata !999, metadata !DIExpression()), !dbg !1007
  %11 = zext i1 %_5.1.i to i8, !dbg !1008
  store i8 %11, ptr %b.dbg.spill.i, align 1, !dbg !1008
  call void @llvm.dbg.declare(metadata ptr %b.dbg.spill.i, metadata !1001, metadata !DIExpression()), !dbg !1009
  store i64 %_5.0.i, ptr %1, align 8, !dbg !1010
  %12 = getelementptr inbounds { i64, i8 }, ptr %1, i32 0, i32 1, !dbg !1010
  %13 = zext i1 %_5.1.i to i8, !dbg !1010
  store i8 %13, ptr %12, align 8, !dbg !1010
  %14 = load i64, ptr %1, align 8, !dbg !1011, !noundef !24
  %15 = getelementptr inbounds { i64, i8 }, ptr %1, i32 0, i32 1, !dbg !1011
  %16 = load i8, ptr %15, align 8, !dbg !1011, !range !210, !noundef !24
  %17 = trunc i8 %16 to i1, !dbg !1011
  %18 = zext i1 %17 to i8, !dbg !1011
  %19 = insertvalue { i64, i8 } undef, i64 %14, 0, !dbg !1011
  %20 = insertvalue { i64, i8 } %19, i8 %18, 1, !dbg !1011
  %_5.0 = extractvalue { i64, i8 } %20, 0, !dbg !1012
  %21 = extractvalue { i64, i8 } %20, 1, !dbg !1012
  %_5.1 = trunc i8 %21 to i1, !dbg !1012
  store i64 %_5.0, ptr %a.dbg.spill, align 8, !dbg !1013
  call void @llvm.dbg.declare(metadata ptr %a.dbg.spill, metadata !984, metadata !DIExpression()), !dbg !1014
  %22 = zext i1 %_5.1 to i8, !dbg !1015
  store i8 %22, ptr %b.dbg.spill, align 1, !dbg !1015
  call void @llvm.dbg.declare(metadata ptr %b.dbg.spill, metadata !986, metadata !DIExpression()), !dbg !1016
  %23 = call i1 @llvm.expect.i1(i1 %_5.1, i1 false), !dbg !1017
  %24 = zext i1 %23 to i8, !dbg !1017
  store i8 %24, ptr %2, align 1, !dbg !1017
  %25 = load i8, ptr %2, align 1, !dbg !1017, !range !210, !noundef !24
  %_8 = trunc i8 %25 to i1, !dbg !1017
  br i1 %_8, label %bb3, label %bb4, !dbg !1017

bb4:                                              ; preds = %start
  %26 = getelementptr inbounds { i64, i64 }, ptr %3, i32 0, i32 1, !dbg !1018
  store i64 %_5.0, ptr %26, align 8, !dbg !1018
  store i64 1, ptr %3, align 8, !dbg !1018
  br label %bb5, !dbg !1019

bb3:                                              ; preds = %start
  store i64 0, ptr %3, align 8, !dbg !1020
  br label %bb5, !dbg !1019

bb5:                                              ; preds = %bb4, %bb3
  %27 = getelementptr inbounds { i64, i64 }, ptr %3, i32 0, i32 0, !dbg !1021
  %28 = load i64, ptr %27, align 8, !dbg !1021, !range !1022, !noundef !24
  %29 = getelementptr inbounds { i64, i64 }, ptr %3, i32 0, i32 1, !dbg !1021
  %30 = load i64, ptr %29, align 8, !dbg !1021
  %31 = insertvalue { i64, i64 } undef, i64 %28, 0, !dbg !1021
  %32 = insertvalue { i64, i64 } %31, i64 %30, 1, !dbg !1021
  ret { i64, i64 } %32, !dbg !1021
}

; core::num::<impl usize>::next_power_of_two
; Function Attrs: inlinehint noredzone nounwind
define internal i64 @"_ZN4core3num23_$LT$impl$u20$usize$GT$17next_power_of_two17hd6961dc7d8bc41d9E"(i64 %self) unnamed_addr #0 !dbg !1023 {
start:
  %self.dbg.spill = alloca i64, align 8
  store i64 %self, ptr %self.dbg.spill, align 8
  call void @llvm.dbg.declare(metadata ptr %self.dbg.spill, metadata !1027, metadata !DIExpression()), !dbg !1028
; call core::num::<impl usize>::one_less_than_next_power_of_two
  %_2 = call i64 @"_ZN4core3num23_$LT$impl$u20$usize$GT$31one_less_than_next_power_of_two17hdb5033648451c355E"(i64 %self) #9, !dbg !1029
  %0 = call { i64, i1 } @llvm.uadd.with.overflow.i64(i64 %_2, i64 1), !dbg !1029
  %_4.0 = extractvalue { i64, i1 } %0, 0, !dbg !1029
  %_4.1 = extractvalue { i64, i1 } %0, 1, !dbg !1029
  %1 = call i1 @llvm.expect.i1(i1 %_4.1, i1 false), !dbg !1029
  br i1 %1, label %panic, label %bb2, !dbg !1029

bb2:                                              ; preds = %start
  ret i64 %_4.0, !dbg !1030

panic:                                            ; preds = %start
; call core::panicking::panic
  call void @_ZN4core9panicking5panic17h1deab6c62a1415a6E(ptr align 1 @str.2, i64 28, ptr align 8 @alloc331) #10, !dbg !1029
  unreachable, !dbg !1029
}

; core::num::<impl usize>::one_less_than_next_power_of_two
; Function Attrs: inlinehint noredzone nounwind
define internal i64 @"_ZN4core3num23_$LT$impl$u20$usize$GT$31one_less_than_next_power_of_two17hdb5033648451c355E"(i64 %self) unnamed_addr #0 !dbg !1031 {
start:
  %z.dbg.spill = alloca i64, align 8
  %0 = alloca i64, align 8
  %p.dbg.spill = alloca i64, align 8
  %self.dbg.spill = alloca i64, align 8
  %1 = alloca i64, align 8
  store i64 %self, ptr %self.dbg.spill, align 8
  call void @llvm.dbg.declare(metadata ptr %self.dbg.spill, metadata !1033, metadata !DIExpression()), !dbg !1038
  %_2 = icmp ule i64 %self, 1, !dbg !1039
  br i1 %_2, label %bb1, label %bb2, !dbg !1039

bb2:                                              ; preds = %start
  %_6.0 = sub i64 %self, 1, !dbg !1040
  %_6.1 = icmp ult i64 %self, 1, !dbg !1040
  %2 = call i1 @llvm.expect.i1(i1 %_6.1, i1 false), !dbg !1040
  br i1 %2, label %panic, label %bb3, !dbg !1040

bb1:                                              ; preds = %start
  store i64 0, ptr %1, align 8, !dbg !1041
  br label %bb6, !dbg !1042

bb6:                                              ; preds = %bb5, %bb1
  %3 = load i64, ptr %1, align 8, !dbg !1042, !noundef !24
  ret i64 %3, !dbg !1042

bb3:                                              ; preds = %bb2
  store i64 %_6.0, ptr %p.dbg.spill, align 8, !dbg !1040
  call void @llvm.dbg.declare(metadata ptr %p.dbg.spill, metadata !1034, metadata !DIExpression()), !dbg !1043
  %4 = call i64 @llvm.ctlz.i64(i64 %_6.0, i1 true), !dbg !1044
  store i64 %4, ptr %0, align 8, !dbg !1044
  %z = load i64, ptr %0, align 8, !dbg !1044, !noundef !24
  store i64 %z, ptr %z.dbg.spill, align 8, !dbg !1044
  call void @llvm.dbg.declare(metadata ptr %z.dbg.spill, metadata !1036, metadata !DIExpression()), !dbg !1045
  %5 = and i64 %z, -64, !dbg !1046
  %_10.1 = icmp ne i64 %5, 0, !dbg !1046
  %6 = and i64 %z, 63, !dbg !1046
  %_10.0 = lshr i64 -1, %6, !dbg !1046
  %7 = call i1 @llvm.expect.i1(i1 %_10.1, i1 false), !dbg !1046
  br i1 %7, label %panic1, label %bb5, !dbg !1046

panic:                                            ; preds = %bb2
; call core::panicking::panic
  call void @_ZN4core9panicking5panic17h1deab6c62a1415a6E(ptr align 1 @str.0, i64 33, ptr align 8 @alloc331) #10, !dbg !1040
  unreachable, !dbg !1040

bb5:                                              ; preds = %bb3
  store i64 %_10.0, ptr %1, align 8, !dbg !1046
  br label %bb6, !dbg !1042

panic1:                                           ; preds = %bb3
; call core::panicking::panic
  call void @_ZN4core9panicking5panic17h1deab6c62a1415a6E(ptr align 1 @str.4, i64 36, ptr align 8 @alloc331) #10, !dbg !1046
  unreachable, !dbg !1046
}

; core::ops::function::impls::<impl core::ops::function::FnMut<A> for &mut F>::call_mut
; Function Attrs: noredzone nounwind
define zeroext i1 @"_ZN4core3ops8function5impls79_$LT$impl$u20$core..ops..function..FnMut$LT$A$GT$$u20$for$u20$$RF$mut$u20$F$GT$8call_mut17h83e23c34646acadeE"(ptr align 8 %self, ptr align 8 %0, ptr align 8 %1) unnamed_addr #1 !dbg !1047 {
start:
  %self.dbg.spill = alloca ptr, align 8
  %args = alloca { ptr, ptr }, align 8
  store ptr %0, ptr %args, align 8
  %2 = getelementptr inbounds { ptr, ptr }, ptr %args, i32 0, i32 1
  store ptr %1, ptr %2, align 8
  store ptr %self, ptr %self.dbg.spill, align 8
  call void @llvm.dbg.declare(metadata ptr %self.dbg.spill, metadata !1066, metadata !DIExpression()), !dbg !1075
  call void @llvm.dbg.declare(metadata ptr %args, metadata !1067, metadata !DIExpression()), !dbg !1076
  %_5 = load ptr, ptr %self, align 8, !dbg !1077, !nonnull !24, !align !485, !noundef !24
  %3 = getelementptr inbounds { ptr, ptr }, ptr %args, i32 0, i32 0, !dbg !1078
  %_4.0 = load ptr, ptr %3, align 8, !dbg !1078, !nonnull !24, !align !485, !noundef !24
  %4 = getelementptr inbounds { ptr, ptr }, ptr %args, i32 0, i32 1, !dbg !1078
  %_4.1 = load ptr, ptr %4, align 8, !dbg !1078, !nonnull !24, !align !485, !noundef !24
; call core::slice::<impl [T]>::sort_unstable_by::{{closure}}
  %5 = call zeroext i1 @"_ZN4core5slice29_$LT$impl$u20$$u5b$T$u5d$$GT$16sort_unstable_by28_$u7b$$u7b$closure$u7d$$u7d$17h3e6034f2b6ac7389E"(ptr align 8 %_5, ptr align 8 %_4.0, ptr align 8 %_4.1) #9, !dbg !1077
  ret i1 %5, !dbg !1079
}

; core::ptr::drop_in_place<core::slice::sort::CopyOnDrop<bootloader::bootinfo::memory_map::MemoryRegion>>
; Function Attrs: noredzone nounwind
define void @"_ZN4core3ptr104drop_in_place$LT$core..slice..sort..CopyOnDrop$LT$bootloader..bootinfo..memory_map..MemoryRegion$GT$$GT$17h7d3a4ad9f21bd5ecE"(ptr %_1) unnamed_addr #1 !dbg !1080 {
start:
  %_1.dbg.spill = alloca ptr, align 8
  store ptr %_1, ptr %_1.dbg.spill, align 8
  call void @llvm.dbg.declare(metadata ptr %_1.dbg.spill, metadata !1091, metadata !DIExpression()), !dbg !1094
; call <core::slice::sort::CopyOnDrop<T> as core::ops::drop::Drop>::drop
  call void @"_ZN80_$LT$core..slice..sort..CopyOnDrop$LT$T$GT$$u20$as$u20$core..ops..drop..Drop$GT$4drop17h326cfab8ff8ee712E"(ptr align 8 %_1) #9, !dbg !1094
  ret void, !dbg !1094
}

; core::ptr::swap_nonoverlapping
; Function Attrs: inlinehint noredzone nounwind
define void @_ZN4core3ptr19swap_nonoverlapping17hd03c37348c6ec371E(ptr %x, ptr %y, i64 %count) unnamed_addr #0 !dbg !1095 {
start:
  %self.dbg.spill.i20 = alloca ptr, align 8
  %self.dbg.spill.i19 = alloca ptr, align 8
  %self.dbg.spill.i18 = alloca ptr, align 8
  %self.dbg.spill.i17 = alloca ptr, align 8
  %count.dbg.spill.i = alloca i64, align 8
  %y.dbg.spill.i = alloca ptr, align 8
  %x.dbg.spill.i = alloca ptr, align 8
  %_6.i = alloca i8, align 1
  %_5.i = alloca i8, align 1
  %0 = alloca i64, align 8
  %self.dbg.spill.i.i = alloca i64, align 8
  %self.dbg.spill.i = alloca i64, align 8
  %count.dbg.spill16 = alloca i64, align 8
  %y.dbg.spill13 = alloca ptr, align 8
  %x.dbg.spill11 = alloca ptr, align 8
  %count.dbg.spill8 = alloca i64, align 8
  %y.dbg.spill5 = alloca ptr, align 8
  %x.dbg.spill3 = alloca ptr, align 8
  %count.dbg.spill = alloca i64, align 8
  %y.dbg.spill = alloca ptr, align 8
  %x.dbg.spill = alloca ptr, align 8
  %_45 = alloca i8, align 1
  %_22 = alloca i8, align 1
  %_13 = alloca i8, align 1
  %_9 = alloca i8, align 1
  %_5 = alloca { ptr, ptr, i64 }, align 8
  store ptr %x, ptr %x.dbg.spill, align 8
  call void @llvm.dbg.declare(metadata ptr %x.dbg.spill, metadata !1099, metadata !DIExpression()), !dbg !1115
  store ptr %y, ptr %y.dbg.spill, align 8
  call void @llvm.dbg.declare(metadata ptr %y.dbg.spill, metadata !1100, metadata !DIExpression()), !dbg !1116
  store i64 %count, ptr %count.dbg.spill, align 8
  call void @llvm.dbg.declare(metadata ptr %count.dbg.spill, metadata !1101, metadata !DIExpression()), !dbg !1117
  store ptr %x, ptr %_5, align 8, !dbg !1118
  %1 = getelementptr inbounds { ptr, ptr, i64 }, ptr %_5, i32 0, i32 1, !dbg !1118
  store ptr %y, ptr %1, align 8, !dbg !1118
  %2 = getelementptr inbounds { ptr, ptr, i64 }, ptr %_5, i32 0, i32 2, !dbg !1118
  store i64 %count, ptr %2, align 8, !dbg !1118
  %3 = load ptr, ptr %_5, align 8, !dbg !1118, !noundef !24
  %4 = getelementptr inbounds { ptr, ptr, i64 }, ptr %_5, i32 0, i32 1, !dbg !1118
  %5 = load ptr, ptr %4, align 8, !dbg !1118, !noundef !24
  %6 = getelementptr inbounds { ptr, ptr, i64 }, ptr %_5, i32 0, i32 2, !dbg !1118
  %7 = load i64, ptr %6, align 8, !dbg !1118, !noundef !24
  store ptr %3, ptr %x.dbg.spill.i, align 8
  call void @llvm.dbg.declare(metadata ptr %x.dbg.spill.i, metadata !1119, metadata !DIExpression()), !dbg !1125
  store ptr %5, ptr %y.dbg.spill.i, align 8
  call void @llvm.dbg.declare(metadata ptr %y.dbg.spill.i, metadata !1123, metadata !DIExpression()), !dbg !1125
  store i64 %7, ptr %count.dbg.spill.i, align 8
  call void @llvm.dbg.declare(metadata ptr %count.dbg.spill.i, metadata !1124, metadata !DIExpression()), !dbg !1125
; call core::intrinsics::is_aligned_and_not_null
  %_7.i = call zeroext i1 @_ZN4core10intrinsics23is_aligned_and_not_null17h6d98e974457e292fE(ptr %3) #9, !dbg !1127
  br i1 %_7.i, label %bb5.i, label %bb4.i, !dbg !1127

bb4.i:                                            ; preds = %start
  store i8 0, ptr %_6.i, align 1, !dbg !1127
  br label %bb6.i, !dbg !1127

bb5.i:                                            ; preds = %start
; call core::intrinsics::is_aligned_and_not_null
  %_10.i = call zeroext i1 @_ZN4core10intrinsics23is_aligned_and_not_null17h6d98e974457e292fE(ptr %5) #9, !dbg !1129
  %8 = zext i1 %_10.i to i8, !dbg !1127
  store i8 %8, ptr %_6.i, align 1, !dbg !1127
  br label %bb6.i, !dbg !1127

bb6.i:                                            ; preds = %bb5.i, %bb4.i
  %9 = load i8, ptr %_6.i, align 1, !dbg !1127, !range !210, !noundef !24
  %10 = trunc i8 %9 to i1, !dbg !1127
  br i1 %10, label %bb2.i, label %bb1.i, !dbg !1127

bb1.i:                                            ; preds = %bb6.i
  store i8 0, ptr %_5.i, align 1, !dbg !1127
  br label %bb3.i, !dbg !1127

bb2.i:                                            ; preds = %bb6.i
; call core::intrinsics::is_nonoverlapping
  %_13.i = call zeroext i1 @_ZN4core10intrinsics17is_nonoverlapping17h67a70de23783f4c9E(ptr %3, ptr %5, i64 %7) #9, !dbg !1130
  %11 = zext i1 %_13.i to i8, !dbg !1127
  store i8 %11, ptr %_5.i, align 1, !dbg !1127
  br label %bb3.i, !dbg !1127

bb3.i:                                            ; preds = %bb2.i, %bb1.i
  %12 = load i8, ptr %_5.i, align 1, !dbg !1131, !range !210, !noundef !24
  %13 = trunc i8 %12 to i1, !dbg !1131
  %_4.i = xor i1 %13, true, !dbg !1131
  br i1 %_4.i, label %bb10.i, label %_ZN4core3ptr19swap_nonoverlapping7runtime17hc95b102a41d26582E.exit, !dbg !1131

bb10.i:                                           ; preds = %bb3.i
; call core::panicking::panic_nounwind
  call void @_ZN4core9panicking14panic_nounwind17hb8a2b9db753d85a7E(ptr align 1 @alloc338, i64 166) #10, !dbg !1132
  unreachable, !dbg !1132

_ZN4core3ptr19swap_nonoverlapping7runtime17hc95b102a41d26582E.exit: ; preds = %bb3.i
  %_10 = icmp ule i64 8, 8, !dbg !1133
  br i1 %_10, label %bb3, label %bb2, !dbg !1133

bb2:                                              ; preds = %_ZN4core3ptr19swap_nonoverlapping7runtime17hc95b102a41d26582E.exit
  store i8 0, ptr %_9, align 1, !dbg !1133
  br label %bb4, !dbg !1133

bb3:                                              ; preds = %_ZN4core3ptr19swap_nonoverlapping7runtime17hc95b102a41d26582E.exit
  store i64 24, ptr %self.dbg.spill.i, align 8
  call void @llvm.dbg.declare(metadata ptr %self.dbg.spill.i, metadata !1134, metadata !DIExpression()), !dbg !1137
  store i64 24, ptr %self.dbg.spill.i.i, align 8
  call void @llvm.dbg.declare(metadata ptr %self.dbg.spill.i.i, metadata !1139, metadata !DIExpression()), !dbg !1144
  store i64 2, ptr %0, align 8, !dbg !1146
  %_2.i.i = load i64, ptr %0, align 8, !dbg !1146, !noundef !24
  %14 = trunc i64 %_2.i.i to i32, !dbg !1146
  %15 = icmp eq i32 %14, 1, !dbg !1147
  %_14 = xor i1 %15, true, !dbg !1148
  br i1 %_14, label %bb7, label %bb8, !dbg !1149

bb8:                                              ; preds = %bb3
  %16 = call { i64, i1 } @llvm.umul.with.overflow.i64(i64 8, i64 2), !dbg !1150
  %_21.0 = extractvalue { i64, i1 } %16, 0, !dbg !1150
  %_21.1 = extractvalue { i64, i1 } %16, 1, !dbg !1150
  %17 = call i1 @llvm.expect.i1(i1 %_21.1, i1 false), !dbg !1150
  br i1 %17, label %panic, label %bb14, !dbg !1150

bb7:                                              ; preds = %bb3
  store i8 1, ptr %_13, align 1, !dbg !1149
  br label %bb9, !dbg !1149

bb9:                                              ; preds = %bb14, %bb7
  %18 = load i8, ptr %_13, align 1, !dbg !1133, !range !210, !noundef !24
  %19 = trunc i8 %18 to i1, !dbg !1133
  %20 = zext i1 %19 to i8, !dbg !1133
  store i8 %20, ptr %_9, align 1, !dbg !1133
  br label %bb4, !dbg !1133

bb14:                                             ; preds = %bb8
  %_17 = icmp ugt i64 24, %_21.0, !dbg !1151
  %21 = zext i1 %_17 to i8, !dbg !1149
  store i8 %21, ptr %_13, align 1, !dbg !1149
  br label %bb9, !dbg !1149

panic:                                            ; preds = %bb8
; call core::panicking::panic
  call void @_ZN4core9panicking5panic17h1deab6c62a1415a6E(ptr align 1 @str.5, i64 33, ptr align 8 @alloc333) #10, !dbg !1150
  unreachable, !dbg !1150

bb4:                                              ; preds = %bb2, %bb9
  %22 = load i8, ptr %_9, align 1, !dbg !1133, !range !210, !noundef !24
  %23 = trunc i8 %22 to i1, !dbg !1133
  br i1 %23, label %bb15, label %bb47, !dbg !1133

bb47:                                             ; preds = %bb34, %bb4
; call core::ptr::swap_nonoverlapping_simple_untyped
  call void @_ZN4core3ptr34swap_nonoverlapping_simple_untyped17h969d29a7978c7163E(ptr %x, ptr %y, i64 %count) #9, !dbg !1152
  br label %bb48, !dbg !1152

bb15:                                             ; preds = %bb4
  %_23 = icmp uge i64 8, 8, !dbg !1153
  br i1 %_23, label %bb17, label %bb16, !dbg !1153

bb16:                                             ; preds = %bb15
  store i8 0, ptr %_22, align 1, !dbg !1153
  br label %bb18, !dbg !1153

bb17:                                             ; preds = %bb15
  %_30 = icmp eq i64 8, 0, !dbg !1153
  %24 = call i1 @llvm.expect.i1(i1 %_30, i1 false), !dbg !1153
  br i1 %24, label %panic1, label %bb23, !dbg !1153

bb23:                                             ; preds = %bb17
  %_27 = urem i64 24, 8, !dbg !1153
  %_26 = icmp eq i64 %_27, 0, !dbg !1153
  %25 = zext i1 %_26 to i8, !dbg !1153
  store i8 %25, ptr %_22, align 1, !dbg !1153
  br label %bb18, !dbg !1153

panic1:                                           ; preds = %bb17
; call core::panicking::panic
  call void @_ZN4core9panicking5panic17h1deab6c62a1415a6E(ptr align 1 @str.6, i64 57, ptr align 8 @alloc335) #10, !dbg !1153
  unreachable, !dbg !1153

bb18:                                             ; preds = %bb16, %bb23
  %26 = load i8, ptr %_22, align 1, !dbg !1153, !range !210, !noundef !24
  %27 = trunc i8 %26 to i1, !dbg !1153
  br i1 %27, label %bb24, label %bb31, !dbg !1153

bb31:                                             ; preds = %bb18
  %_46 = icmp uge i64 8, 1, !dbg !1154
  br i1 %_46, label %bb33, label %bb32, !dbg !1154

bb24:                                             ; preds = %bb18
  store ptr %x, ptr %self.dbg.spill.i20, align 8
  call void @llvm.dbg.declare(metadata ptr %self.dbg.spill.i20, metadata !1155, metadata !DIExpression()), !dbg !1162
  store ptr %x, ptr %x.dbg.spill3, align 8, !dbg !1153
  call void @llvm.dbg.declare(metadata ptr %x.dbg.spill3, metadata !1102, metadata !DIExpression()), !dbg !1164
  store ptr %y, ptr %self.dbg.spill.i19, align 8
  call void @llvm.dbg.declare(metadata ptr %self.dbg.spill.i19, metadata !1155, metadata !DIExpression()), !dbg !1165
  store ptr %y, ptr %y.dbg.spill5, align 8, !dbg !1164
  call void @llvm.dbg.declare(metadata ptr %y.dbg.spill5, metadata !1104, metadata !DIExpression()), !dbg !1167
  %_40 = icmp eq i64 8, 0, !dbg !1167
  %28 = call i1 @llvm.expect.i1(i1 %_40, i1 false), !dbg !1167
  br i1 %28, label %panic6, label %bb29, !dbg !1167

bb29:                                             ; preds = %bb24
  %_37 = udiv i64 24, 8, !dbg !1167
  %29 = call { i64, i1 } @llvm.umul.with.overflow.i64(i64 %count, i64 %_37), !dbg !1167
  %_41.0 = extractvalue { i64, i1 } %29, 0, !dbg !1167
  %_41.1 = extractvalue { i64, i1 } %29, 1, !dbg !1167
  %30 = call i1 @llvm.expect.i1(i1 %_41.1, i1 false), !dbg !1167
  br i1 %30, label %panic7, label %bb30, !dbg !1167

panic6:                                           ; preds = %bb24
; call core::panicking::panic
  call void @_ZN4core9panicking5panic17h1deab6c62a1415a6E(ptr align 1 @str.3, i64 25, ptr align 8 @alloc335) #10, !dbg !1167
  unreachable, !dbg !1167

bb30:                                             ; preds = %bb29
  store i64 %_41.0, ptr %count.dbg.spill8, align 8, !dbg !1167
  call void @llvm.dbg.declare(metadata ptr %count.dbg.spill8, metadata !1106, metadata !DIExpression()), !dbg !1168
; call core::ptr::swap_nonoverlapping_simple_untyped
  call void @_ZN4core3ptr34swap_nonoverlapping_simple_untyped17h24810de7f8fd0841E(ptr %x, ptr %y, i64 %_41.0) #9, !dbg !1168
  br label %bb48, !dbg !1168

panic7:                                           ; preds = %bb29
; call core::panicking::panic
  call void @_ZN4core9panicking5panic17h1deab6c62a1415a6E(ptr align 1 @str.5, i64 33, ptr align 8 @alloc335) #10, !dbg !1167
  unreachable, !dbg !1167

bb48:                                             ; preds = %bb47, %bb46, %bb30
  ret void, !dbg !1169

bb32:                                             ; preds = %bb31
  store i8 0, ptr %_45, align 1, !dbg !1154
  br label %bb34, !dbg !1154

bb33:                                             ; preds = %bb31
  %_53 = icmp eq i64 1, 0, !dbg !1154
  %31 = call i1 @llvm.expect.i1(i1 %_53, i1 false), !dbg !1154
  br i1 %31, label %panic9, label %bb39, !dbg !1154

bb39:                                             ; preds = %bb33
  %_50 = urem i64 24, 1, !dbg !1154
  %_49 = icmp eq i64 %_50, 0, !dbg !1154
  %32 = zext i1 %_49 to i8, !dbg !1154
  store i8 %32, ptr %_45, align 1, !dbg !1154
  br label %bb34, !dbg !1154

panic9:                                           ; preds = %bb33
; call core::panicking::panic
  call void @_ZN4core9panicking5panic17h1deab6c62a1415a6E(ptr align 1 @str.6, i64 57, ptr align 8 @alloc337) #10, !dbg !1154
  unreachable, !dbg !1154

bb34:                                             ; preds = %bb32, %bb39
  %33 = load i8, ptr %_45, align 1, !dbg !1154, !range !210, !noundef !24
  %34 = trunc i8 %33 to i1, !dbg !1154
  br i1 %34, label %bb40, label %bb47, !dbg !1154

bb40:                                             ; preds = %bb34
  store ptr %x, ptr %self.dbg.spill.i18, align 8
  call void @llvm.dbg.declare(metadata ptr %self.dbg.spill.i18, metadata !1170, metadata !DIExpression()), !dbg !1177
  store ptr %x, ptr %x.dbg.spill11, align 8, !dbg !1154
  call void @llvm.dbg.declare(metadata ptr %x.dbg.spill11, metadata !1108, metadata !DIExpression()), !dbg !1179
  store ptr %y, ptr %self.dbg.spill.i17, align 8
  call void @llvm.dbg.declare(metadata ptr %self.dbg.spill.i17, metadata !1170, metadata !DIExpression()), !dbg !1180
  store ptr %y, ptr %y.dbg.spill13, align 8, !dbg !1179
  call void @llvm.dbg.declare(metadata ptr %y.dbg.spill13, metadata !1111, metadata !DIExpression()), !dbg !1182
  %_63 = icmp eq i64 1, 0, !dbg !1182
  %35 = call i1 @llvm.expect.i1(i1 %_63, i1 false), !dbg !1182
  br i1 %35, label %panic14, label %bb45, !dbg !1182

bb45:                                             ; preds = %bb40
  %_60 = udiv i64 24, 1, !dbg !1182
  %36 = call { i64, i1 } @llvm.umul.with.overflow.i64(i64 %count, i64 %_60), !dbg !1182
  %_64.0 = extractvalue { i64, i1 } %36, 0, !dbg !1182
  %_64.1 = extractvalue { i64, i1 } %36, 1, !dbg !1182
  %37 = call i1 @llvm.expect.i1(i1 %_64.1, i1 false), !dbg !1182
  br i1 %37, label %panic15, label %bb46, !dbg !1182

panic14:                                          ; preds = %bb40
; call core::panicking::panic
  call void @_ZN4core9panicking5panic17h1deab6c62a1415a6E(ptr align 1 @str.3, i64 25, ptr align 8 @alloc337) #10, !dbg !1182
  unreachable, !dbg !1182

bb46:                                             ; preds = %bb45
  store i64 %_64.0, ptr %count.dbg.spill16, align 8, !dbg !1182
  call void @llvm.dbg.declare(metadata ptr %count.dbg.spill16, metadata !1113, metadata !DIExpression()), !dbg !1183
; call core::ptr::swap_nonoverlapping_simple_untyped
  call void @_ZN4core3ptr34swap_nonoverlapping_simple_untyped17h08c4e84a4ff0c1c7E(ptr %x, ptr %y, i64 %_64.0) #9, !dbg !1183
  br label %bb48, !dbg !1183

panic15:                                          ; preds = %bb45
; call core::panicking::panic
  call void @_ZN4core9panicking5panic17h1deab6c62a1415a6E(ptr align 1 @str.5, i64 33, ptr align 8 @alloc337) #10, !dbg !1182
  unreachable, !dbg !1182
}

; core::ptr::slice_from_raw_parts
; Function Attrs: inlinehint noredzone nounwind
define { ptr, i64 } @_ZN4core3ptr20slice_from_raw_parts17hbaebdf5a5964bf13E(ptr %data, i64 %len) unnamed_addr #0 !dbg !1184 {
start:
  %self.dbg.spill.i = alloca ptr, align 8
  %len.dbg.spill = alloca i64, align 8
  %data.dbg.spill = alloca ptr, align 8
  store ptr %data, ptr %data.dbg.spill, align 8
  call void @llvm.dbg.declare(metadata ptr %data.dbg.spill, metadata !1188, metadata !DIExpression()), !dbg !1190
  store i64 %len, ptr %len.dbg.spill, align 8
  call void @llvm.dbg.declare(metadata ptr %len.dbg.spill, metadata !1189, metadata !DIExpression()), !dbg !1191
  store ptr %data, ptr %self.dbg.spill.i, align 8
  call void @llvm.dbg.declare(metadata ptr %self.dbg.spill.i, metadata !516, metadata !DIExpression()), !dbg !1192
; call core::ptr::metadata::from_raw_parts
  %0 = call { ptr, i64 } @_ZN4core3ptr8metadata14from_raw_parts17hcc45dab7c02a6bceE(ptr %data, i64 %len) #9, !dbg !1194
  %1 = extractvalue { ptr, i64 } %0, 0, !dbg !1194
  %2 = extractvalue { ptr, i64 } %0, 1, !dbg !1194
  %3 = insertvalue { ptr, i64 } undef, ptr %1, 0, !dbg !1195
  %4 = insertvalue { ptr, i64 } %3, i64 %2, 1, !dbg !1195
  ret { ptr, i64 } %4, !dbg !1195
}

; core::ptr::drop_in_place<u32>
; Function Attrs: inlinehint noredzone nounwind
define internal void @"_ZN4core3ptr24drop_in_place$LT$u32$GT$17h12dd17ec672ade13E"(ptr %_1) unnamed_addr #0 !dbg !1196 {
start:
  %_1.dbg.spill = alloca ptr, align 8
  store ptr %_1, ptr %_1.dbg.spill, align 8
  call void @llvm.dbg.declare(metadata ptr %_1.dbg.spill, metadata !1201, metadata !DIExpression()), !dbg !1204
  ret void, !dbg !1204
}

; core::ptr::drop_in_place<u64>
; Function Attrs: inlinehint noredzone nounwind
define internal void @"_ZN4core3ptr24drop_in_place$LT$u64$GT$17h22f0c2a12ea7b996E"(ptr %_1) unnamed_addr #0 !dbg !1205 {
start:
  %_1.dbg.spill = alloca ptr, align 8
  store ptr %_1, ptr %_1.dbg.spill, align 8
  call void @llvm.dbg.declare(metadata ptr %_1.dbg.spill, metadata !1210, metadata !DIExpression()), !dbg !1211
  ret void, !dbg !1211
}

; core::ptr::slice_from_raw_parts_mut
; Function Attrs: inlinehint noredzone nounwind
define { ptr, i64 } @_ZN4core3ptr24slice_from_raw_parts_mut17h398548e65ac58392E(ptr %data, i64 %len) unnamed_addr #0 !dbg !1212 {
start:
  %self.dbg.spill.i = alloca ptr, align 8
  %len.dbg.spill = alloca i64, align 8
  %data.dbg.spill = alloca ptr, align 8
  store ptr %data, ptr %data.dbg.spill, align 8
  call void @llvm.dbg.declare(metadata ptr %data.dbg.spill, metadata !1216, metadata !DIExpression()), !dbg !1218
  store i64 %len, ptr %len.dbg.spill, align 8
  call void @llvm.dbg.declare(metadata ptr %len.dbg.spill, metadata !1217, metadata !DIExpression()), !dbg !1219
  store ptr %data, ptr %self.dbg.spill.i, align 8
  call void @llvm.dbg.declare(metadata ptr %self.dbg.spill.i, metadata !1220, metadata !DIExpression()), !dbg !1226
; call core::ptr::metadata::from_raw_parts_mut
  %0 = call { ptr, i64 } @_ZN4core3ptr8metadata18from_raw_parts_mut17h4ebcde8efbc0866fE(ptr %data, i64 %len) #9, !dbg !1228
  %1 = extractvalue { ptr, i64 } %0, 0, !dbg !1228
  %2 = extractvalue { ptr, i64 } %0, 1, !dbg !1228
  %3 = insertvalue { ptr, i64 } undef, ptr %1, 0, !dbg !1229
  %4 = insertvalue { ptr, i64 } %3, i64 %2, 1, !dbg !1229
  ret { ptr, i64 } %4, !dbg !1229
}

; core::ptr::drop_in_place<&u8>
; Function Attrs: inlinehint noredzone nounwind
define internal void @"_ZN4core3ptr27drop_in_place$LT$$RF$u8$GT$17h253124f3ff1d568cE"(ptr %_1) unnamed_addr #0 !dbg !1230 {
start:
  %_1.dbg.spill = alloca ptr, align 8
  store ptr %_1, ptr %_1.dbg.spill, align 8
  call void @llvm.dbg.declare(metadata ptr %_1.dbg.spill, metadata !1235, metadata !DIExpression()), !dbg !1238
  ret void, !dbg !1238
}

; core::ptr::drop_in_place<&u32>
; Function Attrs: inlinehint noredzone nounwind
define internal void @"_ZN4core3ptr28drop_in_place$LT$$RF$u32$GT$17h9f7c1a9e8f62f865E"(ptr %_1) unnamed_addr #0 !dbg !1239 {
start:
  %_1.dbg.spill = alloca ptr, align 8
  store ptr %_1, ptr %_1.dbg.spill, align 8
  call void @llvm.dbg.declare(metadata ptr %_1.dbg.spill, metadata !1244, metadata !DIExpression()), !dbg !1247
  ret void, !dbg !1247
}

; core::ptr::drop_in_place<&u64>
; Function Attrs: inlinehint noredzone nounwind
define internal void @"_ZN4core3ptr28drop_in_place$LT$$RF$u64$GT$17hbab63698268dabbaE"(ptr %_1) unnamed_addr #0 !dbg !1248 {
start:
  %_1.dbg.spill = alloca ptr, align 8
  store ptr %_1, ptr %_1.dbg.spill, align 8
  call void @llvm.dbg.declare(metadata ptr %_1.dbg.spill, metadata !1253, metadata !DIExpression()), !dbg !1256
  ret void, !dbg !1256
}

; core::ptr::swap_nonoverlapping_simple_untyped
; Function Attrs: inlinehint noredzone nounwind
define void @_ZN4core3ptr34swap_nonoverlapping_simple_untyped17h969d29a7978c7163E(ptr %x, ptr %y, i64 %count) unnamed_addr #0 !dbg !1257 {
start:
  %0 = alloca ptr, align 8
  %count.dbg.spill.i13 = alloca i64, align 8
  %self.dbg.spill.i14 = alloca ptr, align 8
  %1 = alloca ptr, align 8
  %count.dbg.spill.i11 = alloca i64, align 8
  %self.dbg.spill.i12 = alloca ptr, align 8
  %self.dbg.spill.i10 = alloca ptr, align 8
  %self.dbg.spill.i9 = alloca ptr, align 8
  %count.dbg.spill.i7 = alloca i64, align 8
  %self.dbg.spill.i8 = alloca ptr, align 8
  %count.dbg.spill.i = alloca i64, align 8
  %self.dbg.spill.i = alloca ptr, align 8
  %y.dbg.spill6 = alloca ptr, align 8
  %x.dbg.spill5 = alloca ptr, align 8
  %y.dbg.spill4 = alloca ptr, align 8
  %x.dbg.spill2 = alloca ptr, align 8
  %count.dbg.spill = alloca i64, align 8
  %y.dbg.spill = alloca ptr, align 8
  %x.dbg.spill = alloca ptr, align 8
  %i = alloca i64, align 8
  store ptr %x, ptr %x.dbg.spill, align 8
  call void @llvm.dbg.declare(metadata ptr %x.dbg.spill, metadata !1259, metadata !DIExpression()), !dbg !1273
  store ptr %y, ptr %y.dbg.spill, align 8
  call void @llvm.dbg.declare(metadata ptr %y.dbg.spill, metadata !1260, metadata !DIExpression()), !dbg !1274
  store i64 %count, ptr %count.dbg.spill, align 8
  call void @llvm.dbg.declare(metadata ptr %count.dbg.spill, metadata !1261, metadata !DIExpression()), !dbg !1275
  call void @llvm.dbg.declare(metadata ptr %i, metadata !1267, metadata !DIExpression()), !dbg !1276
  store ptr %x, ptr %self.dbg.spill.i10, align 8
  call void @llvm.dbg.declare(metadata ptr %self.dbg.spill.i10, metadata !1277, metadata !DIExpression()), !dbg !1284
  store ptr %x, ptr %x.dbg.spill2, align 8, !dbg !1286
  call void @llvm.dbg.declare(metadata ptr %x.dbg.spill2, metadata !1262, metadata !DIExpression()), !dbg !1287
  store ptr %y, ptr %self.dbg.spill.i9, align 8
  call void @llvm.dbg.declare(metadata ptr %self.dbg.spill.i9, metadata !1277, metadata !DIExpression()), !dbg !1288
  store ptr %y, ptr %y.dbg.spill4, align 8, !dbg !1290
  call void @llvm.dbg.declare(metadata ptr %y.dbg.spill4, metadata !1265, metadata !DIExpression()), !dbg !1291
  store i64 0, ptr %i, align 8, !dbg !1292
  br label %bb3, !dbg !1293

bb3:                                              ; preds = %bb8, %start
  %_10 = load i64, ptr %i, align 8, !dbg !1294, !noundef !24
  %_9 = icmp ult i64 %_10, %count, !dbg !1294
  br i1 %_9, label %bb4, label %bb9, !dbg !1294

bb9:                                              ; preds = %bb3
  ret void, !dbg !1295

bb4:                                              ; preds = %bb3
  %_16 = load i64, ptr %i, align 8, !dbg !1296, !noundef !24
  store ptr %x, ptr %self.dbg.spill.i8, align 8
  call void @llvm.dbg.declare(metadata ptr %self.dbg.spill.i8, metadata !1297, metadata !DIExpression()), !dbg !1303
  store i64 %_16, ptr %count.dbg.spill.i7, align 8
  call void @llvm.dbg.declare(metadata ptr %count.dbg.spill.i7, metadata !1302, metadata !DIExpression()), !dbg !1305
  store ptr %x, ptr %self.dbg.spill.i12, align 8
  call void @llvm.dbg.declare(metadata ptr %self.dbg.spill.i12, metadata !1306, metadata !DIExpression()), !dbg !1312
  store i64 %_16, ptr %count.dbg.spill.i11, align 8
  call void @llvm.dbg.declare(metadata ptr %count.dbg.spill.i11, metadata !1311, metadata !DIExpression()), !dbg !1314
  %2 = getelementptr inbounds %"core::mem::maybe_uninit::MaybeUninit<bootinfo::memory_map::MemoryRegion>", ptr %x, i64 %_16, !dbg !1315
  store ptr %2, ptr %1, align 8, !dbg !1315
  %_3.i = load ptr, ptr %1, align 8, !dbg !1315, !noundef !24
  store ptr %_3.i, ptr %x.dbg.spill5, align 8, !dbg !1316
  call void @llvm.dbg.declare(metadata ptr %x.dbg.spill5, metadata !1269, metadata !DIExpression()), !dbg !1317
  %_21 = load i64, ptr %i, align 8, !dbg !1318, !noundef !24
  store ptr %y, ptr %self.dbg.spill.i, align 8
  call void @llvm.dbg.declare(metadata ptr %self.dbg.spill.i, metadata !1297, metadata !DIExpression()), !dbg !1319
  store i64 %_21, ptr %count.dbg.spill.i, align 8
  call void @llvm.dbg.declare(metadata ptr %count.dbg.spill.i, metadata !1302, metadata !DIExpression()), !dbg !1321
  store ptr %y, ptr %self.dbg.spill.i14, align 8
  call void @llvm.dbg.declare(metadata ptr %self.dbg.spill.i14, metadata !1306, metadata !DIExpression()), !dbg !1322
  store i64 %_21, ptr %count.dbg.spill.i13, align 8
  call void @llvm.dbg.declare(metadata ptr %count.dbg.spill.i13, metadata !1311, metadata !DIExpression()), !dbg !1324
  %3 = getelementptr inbounds %"core::mem::maybe_uninit::MaybeUninit<bootinfo::memory_map::MemoryRegion>", ptr %y, i64 %_21, !dbg !1325
  store ptr %3, ptr %0, align 8, !dbg !1325
  %_3.i15 = load ptr, ptr %0, align 8, !dbg !1325, !noundef !24
  store ptr %_3.i15, ptr %y.dbg.spill6, align 8, !dbg !1326
  call void @llvm.dbg.declare(metadata ptr %y.dbg.spill6, metadata !1271, metadata !DIExpression()), !dbg !1327
; call core::mem::swap_simple
  call void @_ZN4core3mem11swap_simple17h6dee9e3aa4b71bd1E(ptr align 8 %_3.i, ptr align 8 %_3.i15) #9, !dbg !1328
  %4 = load i64, ptr %i, align 8, !dbg !1329, !noundef !24
  %5 = call { i64, i1 } @llvm.uadd.with.overflow.i64(i64 %4, i64 1), !dbg !1329
  %_25.0 = extractvalue { i64, i1 } %5, 0, !dbg !1329
  %_25.1 = extractvalue { i64, i1 } %5, 1, !dbg !1329
  %6 = call i1 @llvm.expect.i1(i1 %_25.1, i1 false), !dbg !1329
  br i1 %6, label %panic, label %bb8, !dbg !1329

bb8:                                              ; preds = %bb4
  store i64 %_25.0, ptr %i, align 8, !dbg !1329
  br label %bb3, !dbg !1293

panic:                                            ; preds = %bb4
; call core::panicking::panic
  call void @_ZN4core9panicking5panic17h1deab6c62a1415a6E(ptr align 1 @str.2, i64 28, ptr align 8 @alloc340) #10, !dbg !1329
  unreachable, !dbg !1329
}

; core::ptr::read
; Function Attrs: inlinehint noredzone nounwind
define void @_ZN4core3ptr4read17hb3b15f8990e80d7bE(ptr sret(%"bootinfo::memory_map::MemoryRegion") %0, ptr %src) unnamed_addr #0 !dbg !1330 {
start:
  %src.dbg.spill.i = alloca ptr, align 8
  %_3.i = alloca %"core::mem::manually_drop::ManuallyDrop<bootinfo::memory_map::MemoryRegion>", align 8
  %self.dbg.spill.i = alloca ptr, align 8
  %src.dbg.spill = alloca ptr, align 8
  %_9 = alloca %"core::mem::maybe_uninit::MaybeUninit<bootinfo::memory_map::MemoryRegion>", align 8
  %_4 = alloca ptr, align 8
  %tmp = alloca %"core::mem::maybe_uninit::MaybeUninit<bootinfo::memory_map::MemoryRegion>", align 8
  store ptr %src, ptr %src.dbg.spill, align 8
  call void @llvm.dbg.declare(metadata ptr %src.dbg.spill, metadata !1334, metadata !DIExpression()), !dbg !1337
  call void @llvm.dbg.declare(metadata ptr %tmp, metadata !1335, metadata !DIExpression()), !dbg !1338
  store ptr %src, ptr %_4, align 8, !dbg !1339
  %1 = load ptr, ptr %_4, align 8, !dbg !1339, !noundef !24
  store ptr %1, ptr %src.dbg.spill.i, align 8
  call void @llvm.dbg.declare(metadata ptr %src.dbg.spill.i, metadata !1340, metadata !DIExpression()), !dbg !1346
; call core::intrinsics::is_aligned_and_not_null
  %_3.i1 = call zeroext i1 @_ZN4core10intrinsics23is_aligned_and_not_null17h6d98e974457e292fE(ptr %1) #9, !dbg !1348
  %_2.i = xor i1 %_3.i1, true, !dbg !1350
  br i1 %_2.i, label %bb2.i, label %_ZN4core3ptr4read7runtime17hd443d74a394ef256E.exit, !dbg !1350

bb2.i:                                            ; preds = %start
; call core::panicking::panic_nounwind
  call void @_ZN4core9panicking14panic_nounwind17hb8a2b9db753d85a7E(ptr align 1 @alloc344, i64 101) #10, !dbg !1351
  unreachable, !dbg !1351

_ZN4core3ptr4read7runtime17hd443d74a394ef256E.exit: ; preds = %start
  store ptr %tmp, ptr %self.dbg.spill.i, align 8
  call void @llvm.dbg.declare(metadata ptr %self.dbg.spill.i, metadata !1352, metadata !DIExpression()), !dbg !1358
  call void @llvm.memcpy.p0.p0.i64(ptr align 8 %tmp, ptr align 8 %src, i64 24, i1 false), !dbg !1360
  call void @llvm.memcpy.p0.p0.i64(ptr align 8 %_9, ptr align 8 %tmp, i64 24, i1 false), !dbg !1361
  call void @llvm.dbg.declare(metadata ptr %_9, metadata !1362, metadata !DIExpression()), !dbg !1367
  call void @llvm.memcpy.p0.p0.i64(ptr align 8 %_3.i, ptr align 8 %_9, i64 24, i1 false), !dbg !1369
  call void @llvm.dbg.declare(metadata ptr %_3.i, metadata !1370, metadata !DIExpression()), !dbg !1375
  call void @llvm.memcpy.p0.p0.i64(ptr align 8 %0, ptr align 8 %_3.i, i64 24, i1 false), !dbg !1377
  ret void, !dbg !1378
}

; core::ptr::read
; Function Attrs: inlinehint noredzone nounwind
define void @_ZN4core3ptr4read17hb4b56891f945b4a2E(ptr sret(%"core::mem::maybe_uninit::MaybeUninit<bootinfo::memory_map::MemoryRegion>") %0, ptr %src) unnamed_addr #0 !dbg !1379 {
start:
  %src.dbg.spill.i = alloca ptr, align 8
  %_3.i = alloca %"core::mem::manually_drop::ManuallyDrop<core::mem::maybe_uninit::MaybeUninit<bootinfo::memory_map::MemoryRegion>>", align 8
  %self.dbg.spill.i = alloca ptr, align 8
  %src.dbg.spill = alloca ptr, align 8
  %_9 = alloca %"core::mem::maybe_uninit::MaybeUninit<core::mem::maybe_uninit::MaybeUninit<bootinfo::memory_map::MemoryRegion>>", align 8
  %_4 = alloca ptr, align 8
  %tmp = alloca %"core::mem::maybe_uninit::MaybeUninit<core::mem::maybe_uninit::MaybeUninit<bootinfo::memory_map::MemoryRegion>>", align 8
  store ptr %src, ptr %src.dbg.spill, align 8
  call void @llvm.dbg.declare(metadata ptr %src.dbg.spill, metadata !1383, metadata !DIExpression()), !dbg !1393
  call void @llvm.dbg.declare(metadata ptr %tmp, metadata !1384, metadata !DIExpression()), !dbg !1394
  store ptr %src, ptr %_4, align 8, !dbg !1395
  %1 = load ptr, ptr %_4, align 8, !dbg !1395, !noundef !24
  store ptr %1, ptr %src.dbg.spill.i, align 8
  call void @llvm.dbg.declare(metadata ptr %src.dbg.spill.i, metadata !1396, metadata !DIExpression()), !dbg !1401
; call core::intrinsics::is_aligned_and_not_null
  %_3.i1 = call zeroext i1 @_ZN4core10intrinsics23is_aligned_and_not_null17he9a8a4309f67475aE(ptr %1) #9, !dbg !1403
  %_2.i = xor i1 %_3.i1, true, !dbg !1405
  br i1 %_2.i, label %bb2.i, label %_ZN4core3ptr4read7runtime17h63fe8ff664df1f06E.exit, !dbg !1405

bb2.i:                                            ; preds = %start
; call core::panicking::panic_nounwind
  call void @_ZN4core9panicking14panic_nounwind17hb8a2b9db753d85a7E(ptr align 1 @alloc344, i64 101) #10, !dbg !1406
  unreachable, !dbg !1406

_ZN4core3ptr4read7runtime17h63fe8ff664df1f06E.exit: ; preds = %start
  store ptr %tmp, ptr %self.dbg.spill.i, align 8
  call void @llvm.dbg.declare(metadata ptr %self.dbg.spill.i, metadata !1407, metadata !DIExpression()), !dbg !1413
  call void @llvm.memcpy.p0.p0.i64(ptr align 8 %tmp, ptr align 8 %src, i64 24, i1 false), !dbg !1415
  call void @llvm.memcpy.p0.p0.i64(ptr align 8 %_9, ptr align 8 %tmp, i64 24, i1 false), !dbg !1416
  call void @llvm.dbg.declare(metadata ptr %_9, metadata !1417, metadata !DIExpression()), !dbg !1422
  call void @llvm.memcpy.p0.p0.i64(ptr align 8 %_3.i, ptr align 8 %_9, i64 24, i1 false), !dbg !1424
  call void @llvm.dbg.declare(metadata ptr %_3.i, metadata !1425, metadata !DIExpression()), !dbg !1430
  call void @llvm.memcpy.p0.p0.i64(ptr align 8 %0, ptr align 8 %_3.i, i64 24, i1 false), !dbg !1432
  ret void, !dbg !1433
}

; core::ptr::swap
; Function Attrs: inlinehint noredzone nounwind
define void @_ZN4core3ptr4swap17h2060b437f4c78b75E(ptr %x, ptr %y) unnamed_addr #0 !dbg !1434 {
start:
  %0 = alloca i64, align 8
  %self.dbg.spill.i1 = alloca ptr, align 8
  %self.dbg.spill.i = alloca ptr, align 8
  %y.dbg.spill = alloca ptr, align 8
  %x.dbg.spill = alloca ptr, align 8
  %tmp = alloca i64, align 8
  store ptr %x, ptr %x.dbg.spill, align 8
  call void @llvm.dbg.declare(metadata ptr %x.dbg.spill, metadata !1438, metadata !DIExpression()), !dbg !1449
  store ptr %y, ptr %y.dbg.spill, align 8
  call void @llvm.dbg.declare(metadata ptr %y.dbg.spill, metadata !1439, metadata !DIExpression()), !dbg !1450
  call void @llvm.dbg.declare(metadata ptr %tmp, metadata !1440, metadata !DIExpression()), !dbg !1451
  %1 = load i64, ptr %0, align 8, !dbg !1452
  store i64 %1, ptr %tmp, align 8, !dbg !1457
  store ptr %tmp, ptr %self.dbg.spill.i, align 8
  call void @llvm.dbg.declare(metadata ptr %self.dbg.spill.i, metadata !1458, metadata !DIExpression()), !dbg !1464
; call core::intrinsics::copy_nonoverlapping
  call void @_ZN4core10intrinsics19copy_nonoverlapping17h9ead4453d546b160E(ptr %x, ptr %tmp, i64 1) #9, !dbg !1466
; call core::intrinsics::copy
  call void @_ZN4core10intrinsics4copy17h80e229bb7edd8b1cE(ptr %y, ptr %x, i64 1) #9, !dbg !1467
  store ptr %tmp, ptr %self.dbg.spill.i1, align 8
  call void @llvm.dbg.declare(metadata ptr %self.dbg.spill.i1, metadata !1468, metadata !DIExpression()), !dbg !1474
; call core::intrinsics::copy_nonoverlapping
  call void @_ZN4core10intrinsics19copy_nonoverlapping17h9ead4453d546b160E(ptr %tmp, ptr %y, i64 1) #9, !dbg !1476
  ret void, !dbg !1477
}

; core::ptr::swap
; Function Attrs: inlinehint noredzone nounwind
define void @_ZN4core3ptr4swap17h2b261b7da5ae0ab4E(ptr %x, ptr %y) unnamed_addr #0 !dbg !1478 {
start:
  %self.dbg.spill.i1 = alloca ptr, align 8
  %self.dbg.spill.i = alloca ptr, align 8
  %y.dbg.spill = alloca ptr, align 8
  %x.dbg.spill = alloca ptr, align 8
  %tmp = alloca %"core::mem::maybe_uninit::MaybeUninit<bootinfo::memory_map::MemoryRegion>", align 8
  store ptr %x, ptr %x.dbg.spill, align 8
  call void @llvm.dbg.declare(metadata ptr %x.dbg.spill, metadata !1482, metadata !DIExpression()), !dbg !1486
  store ptr %y, ptr %y.dbg.spill, align 8
  call void @llvm.dbg.declare(metadata ptr %y.dbg.spill, metadata !1483, metadata !DIExpression()), !dbg !1487
  call void @llvm.dbg.declare(metadata ptr %tmp, metadata !1484, metadata !DIExpression()), !dbg !1488
  store ptr %tmp, ptr %self.dbg.spill.i, align 8
  call void @llvm.dbg.declare(metadata ptr %self.dbg.spill.i, metadata !1352, metadata !DIExpression()), !dbg !1489
; call core::intrinsics::copy_nonoverlapping
  call void @_ZN4core10intrinsics19copy_nonoverlapping17he223bf532b273cfaE(ptr %x, ptr %tmp, i64 1) #9, !dbg !1491
; call core::intrinsics::copy
  call void @_ZN4core10intrinsics4copy17h1991c7115bfb052dE(ptr %y, ptr %x, i64 1) #9, !dbg !1492
  store ptr %tmp, ptr %self.dbg.spill.i1, align 8
  call void @llvm.dbg.declare(metadata ptr %self.dbg.spill.i1, metadata !1493, metadata !DIExpression()), !dbg !1499
; call core::intrinsics::copy_nonoverlapping
  call void @_ZN4core10intrinsics19copy_nonoverlapping17he223bf532b273cfaE(ptr %tmp, ptr %y, i64 1) #9, !dbg !1501
  ret void, !dbg !1502
}

; core::ptr::drop_in_place<bootloader::bootinfo::TlsTemplate>
; Function Attrs: inlinehint noredzone nounwind
define internal void @"_ZN4core3ptr54drop_in_place$LT$bootloader..bootinfo..TlsTemplate$GT$17hfd5099bb0ed58b64E"(ptr %_1) unnamed_addr #0 !dbg !1503 {
start:
  %_1.dbg.spill = alloca ptr, align 8
  store ptr %_1, ptr %_1.dbg.spill, align 8
  call void @llvm.dbg.declare(metadata ptr %_1.dbg.spill, metadata !1508, metadata !DIExpression()), !dbg !1511
  ret void, !dbg !1511
}

; core::ptr::write
; Function Attrs: inlinehint noredzone nounwind
define void @_ZN4core3ptr5write17h103d448b06de46fdE(ptr %dst, ptr %src) unnamed_addr #0 !dbg !1512 {
start:
  %dst.dbg.spill.i = alloca ptr, align 8
  %dst.dbg.spill = alloca ptr, align 8
  %_4 = alloca ptr, align 8
  store ptr %dst, ptr %dst.dbg.spill, align 8
  call void @llvm.dbg.declare(metadata ptr %dst.dbg.spill, metadata !1516, metadata !DIExpression()), !dbg !1518
  call void @llvm.dbg.declare(metadata ptr %src, metadata !1517, metadata !DIExpression()), !dbg !1519
  store ptr %dst, ptr %_4, align 8, !dbg !1520
  %0 = load ptr, ptr %_4, align 8, !dbg !1520, !noundef !24
  store ptr %0, ptr %dst.dbg.spill.i, align 8
  call void @llvm.dbg.declare(metadata ptr %dst.dbg.spill.i, metadata !1521, metadata !DIExpression()), !dbg !1527
; call core::intrinsics::is_aligned_and_not_null
  %_3.i = call zeroext i1 @_ZN4core10intrinsics23is_aligned_and_not_null17h6d98e974457e292fE(ptr %0) #9, !dbg !1529
  %_2.i = xor i1 %_3.i, true, !dbg !1531
  br i1 %_2.i, label %bb2.i, label %_ZN4core3ptr5write7runtime17h1d5ee408a110bfebE.exit, !dbg !1531

bb2.i:                                            ; preds = %start
; call core::panicking::panic_nounwind
  call void @_ZN4core9panicking14panic_nounwind17hb8a2b9db753d85a7E(ptr align 1 @alloc346, i64 102) #10, !dbg !1532
  unreachable, !dbg !1532

_ZN4core3ptr5write7runtime17h1d5ee408a110bfebE.exit: ; preds = %start
  call void @llvm.memcpy.p0.p0.i64(ptr align 8 %dst, ptr align 8 %src, i64 24, i1 false), !dbg !1533
  ret void, !dbg !1534
}

; core::ptr::write
; Function Attrs: inlinehint noredzone nounwind
define void @_ZN4core3ptr5write17h6743454b4337d9d7E(ptr %dst, ptr %src) unnamed_addr #0 !dbg !1535 {
start:
  %dst.dbg.spill.i = alloca ptr, align 8
  %dst.dbg.spill = alloca ptr, align 8
  %_4 = alloca ptr, align 8
  store ptr %dst, ptr %dst.dbg.spill, align 8
  call void @llvm.dbg.declare(metadata ptr %dst.dbg.spill, metadata !1539, metadata !DIExpression()), !dbg !1541
  call void @llvm.dbg.declare(metadata ptr %src, metadata !1540, metadata !DIExpression()), !dbg !1542
  store ptr %dst, ptr %_4, align 8, !dbg !1543
  %0 = load ptr, ptr %_4, align 8, !dbg !1543, !noundef !24
  store ptr %0, ptr %dst.dbg.spill.i, align 8
  call void @llvm.dbg.declare(metadata ptr %dst.dbg.spill.i, metadata !1544, metadata !DIExpression()), !dbg !1549
; call core::intrinsics::is_aligned_and_not_null
  %_3.i = call zeroext i1 @_ZN4core10intrinsics23is_aligned_and_not_null17he9a8a4309f67475aE(ptr %0) #9, !dbg !1551
  %_2.i = xor i1 %_3.i, true, !dbg !1553
  br i1 %_2.i, label %bb2.i, label %_ZN4core3ptr5write7runtime17h52fbb6d77d41d527E.exit, !dbg !1553

bb2.i:                                            ; preds = %start
; call core::panicking::panic_nounwind
  call void @_ZN4core9panicking14panic_nounwind17hb8a2b9db753d85a7E(ptr align 1 @alloc346, i64 102) #10, !dbg !1554
  unreachable, !dbg !1554

_ZN4core3ptr5write7runtime17h52fbb6d77d41d527E.exit: ; preds = %start
  call void @llvm.memcpy.p0.p0.i64(ptr align 8 %dst, ptr align 8 %src, i64 24, i1 false), !dbg !1555
  ret void, !dbg !1556
}

; core::ptr::drop_in_place<bootloader::bootinfo::memory_map::MemoryMap>
; Function Attrs: inlinehint noredzone nounwind
define internal void @"_ZN4core3ptr64drop_in_place$LT$bootloader..bootinfo..memory_map..MemoryMap$GT$17had7c3eafdff9034aE"(ptr %_1) unnamed_addr #0 !dbg !1557 {
start:
  %_1.dbg.spill = alloca ptr, align 8
  store ptr %_1, ptr %_1.dbg.spill, align 8
  call void @llvm.dbg.declare(metadata ptr %_1.dbg.spill, metadata !1562, metadata !DIExpression()), !dbg !1565
  ret void, !dbg !1565
}

; core::ptr::drop_in_place<bootloader::bootinfo::memory_map::FrameRange>
; Function Attrs: inlinehint noredzone nounwind
define internal void @"_ZN4core3ptr65drop_in_place$LT$bootloader..bootinfo..memory_map..FrameRange$GT$17hd4ef22c4c84fb4d2E"(ptr %_1) unnamed_addr #0 !dbg !1566 {
start:
  %_1.dbg.spill = alloca ptr, align 8
  store ptr %_1, ptr %_1.dbg.spill, align 8
  call void @llvm.dbg.declare(metadata ptr %_1.dbg.spill, metadata !1571, metadata !DIExpression()), !dbg !1574
  ret void, !dbg !1574
}

; core::ptr::drop_in_place<&bootloader::bootinfo::memory_map::MemoryRegion>
; Function Attrs: inlinehint noredzone nounwind
define internal void @"_ZN4core3ptr71drop_in_place$LT$$RF$bootloader..bootinfo..memory_map..MemoryRegion$GT$17h6cd5f1b8115212b0E"(ptr %_1) unnamed_addr #0 !dbg !1575 {
start:
  %_1.dbg.spill = alloca ptr, align 8
  store ptr %_1, ptr %_1.dbg.spill, align 8
  call void @llvm.dbg.declare(metadata ptr %_1.dbg.spill, metadata !1580, metadata !DIExpression()), !dbg !1581
  ret void, !dbg !1581
}

; core::ptr::drop_in_place<&bootloader::bootinfo::memory_map::MemoryRegionType>
; Function Attrs: inlinehint noredzone nounwind
define internal void @"_ZN4core3ptr75drop_in_place$LT$$RF$bootloader..bootinfo..memory_map..MemoryRegionType$GT$17h8f43e2f0a51512a2E"(ptr %_1) unnamed_addr #0 !dbg !1582 {
start:
  %_1.dbg.spill = alloca ptr, align 8
  store ptr %_1, ptr %_1.dbg.spill, align 8
  call void @llvm.dbg.declare(metadata ptr %_1.dbg.spill, metadata !1587, metadata !DIExpression()), !dbg !1590
  ret void, !dbg !1590
}

; core::ptr::mut_ptr::<impl *mut T>::is_null::runtime_impl
; Function Attrs: inlinehint noredzone nounwind
define internal zeroext i1 @"_ZN4core3ptr7mut_ptr31_$LT$impl$u20$$BP$mut$u20$T$GT$7is_null12runtime_impl17h75025cda94687326E"(ptr %ptr) unnamed_addr #0 !dbg !1591 {
start:
  %self.dbg.spill.i1 = alloca ptr, align 8
  %0 = alloca i64, align 8
  %self.dbg.spill.i = alloca ptr, align 8
  %ptr.dbg.spill = alloca ptr, align 8
  store ptr %ptr, ptr %ptr.dbg.spill, align 8
  call void @llvm.dbg.declare(metadata ptr %ptr.dbg.spill, metadata !1596, metadata !DIExpression()), !dbg !1597
  store ptr %ptr, ptr %self.dbg.spill.i, align 8
  call void @llvm.dbg.declare(metadata ptr %self.dbg.spill.i, metadata !1598, metadata !DIExpression()), !dbg !1605
  store ptr %ptr, ptr %self.dbg.spill.i1, align 8
  call void @llvm.dbg.declare(metadata ptr %self.dbg.spill.i1, metadata !1607, metadata !DIExpression()), !dbg !1613
  store ptr %ptr, ptr %0, align 8, !dbg !1615
  %1 = load i64, ptr %0, align 8, !dbg !1615, !noundef !24
  %2 = icmp eq i64 %1, 0, !dbg !1616
  ret i1 %2, !dbg !1617
}

; core::ptr::mut_ptr::<impl *mut T>::is_null
; Function Attrs: inlinehint noredzone nounwind
define zeroext i1 @"_ZN4core3ptr7mut_ptr31_$LT$impl$u20$$BP$mut$u20$T$GT$7is_null17hf71df01788256b36E"(ptr %self) unnamed_addr #0 !dbg !1618 {
start:
  %self.dbg.spill = alloca ptr, align 8
  %_2 = alloca ptr, align 8
  store ptr %self, ptr %self.dbg.spill, align 8
  call void @llvm.dbg.declare(metadata ptr %self.dbg.spill, metadata !1622, metadata !DIExpression()), !dbg !1623
  store ptr %self, ptr %_2, align 8, !dbg !1624
  %0 = load ptr, ptr %_2, align 8, !dbg !1625, !noundef !24
; call core::ptr::mut_ptr::<impl *mut T>::is_null::runtime_impl
  %1 = call zeroext i1 @"_ZN4core3ptr7mut_ptr31_$LT$impl$u20$$BP$mut$u20$T$GT$7is_null12runtime_impl17h75025cda94687326E"(ptr %0) #9, !dbg !1625
  ret i1 %1, !dbg !1626
}

; core::ptr::metadata::from_raw_parts
; Function Attrs: inlinehint noredzone nounwind
define ptr @_ZN4core3ptr8metadata14from_raw_parts17h393f60194f5a5dffE(ptr %data_address) unnamed_addr #0 !dbg !1627 {
start:
  %metadata.dbg.spill = alloca {}, align 1
  %data_address.dbg.spill = alloca ptr, align 8
  %_4 = alloca %"core::ptr::metadata::PtrComponents<bootinfo::memory_map::MemoryRegion>", align 8
  %_3 = alloca %"core::ptr::metadata::PtrRepr<bootinfo::memory_map::MemoryRegion>", align 8
  store ptr %data_address, ptr %data_address.dbg.spill, align 8
  call void @llvm.dbg.declare(metadata ptr %data_address.dbg.spill, metadata !1633, metadata !DIExpression()), !dbg !1635
  call void @llvm.dbg.declare(metadata ptr %metadata.dbg.spill, metadata !1634, metadata !DIExpression()), !dbg !1636
  store ptr %data_address, ptr %_4, align 8, !dbg !1637
  call void @llvm.memcpy.p0.p0.i64(ptr align 8 %_3, ptr align 8 %_4, i64 8, i1 false), !dbg !1638
  %0 = load ptr, ptr %_3, align 8, !dbg !1638, !noundef !24
  ret ptr %0, !dbg !1639
}

; core::ptr::metadata::from_raw_parts
; Function Attrs: inlinehint noredzone nounwind
define { ptr, i64 } @_ZN4core3ptr8metadata14from_raw_parts17hcc45dab7c02a6bceE(ptr %data_address, i64 %metadata) unnamed_addr #0 !dbg !1640 {
start:
  %metadata.dbg.spill = alloca i64, align 8
  %data_address.dbg.spill = alloca ptr, align 8
  %_4 = alloca { ptr, i64 }, align 8
  %_3 = alloca %"core::ptr::metadata::PtrRepr<[bootinfo::memory_map::MemoryRegion]>", align 8
  store ptr %data_address, ptr %data_address.dbg.spill, align 8
  call void @llvm.dbg.declare(metadata ptr %data_address.dbg.spill, metadata !1644, metadata !DIExpression()), !dbg !1646
  store i64 %metadata, ptr %metadata.dbg.spill, align 8
  call void @llvm.dbg.declare(metadata ptr %metadata.dbg.spill, metadata !1645, metadata !DIExpression()), !dbg !1647
  store ptr %data_address, ptr %_4, align 8, !dbg !1648
  %0 = getelementptr inbounds { ptr, i64 }, ptr %_4, i32 0, i32 1, !dbg !1648
  store i64 %metadata, ptr %0, align 8, !dbg !1648
  %1 = getelementptr inbounds { ptr, i64 }, ptr %_4, i32 0, i32 0, !dbg !1649
  %2 = load ptr, ptr %1, align 8, !dbg !1649, !noundef !24
  %3 = getelementptr inbounds { ptr, i64 }, ptr %_4, i32 0, i32 1, !dbg !1649
  %4 = load i64, ptr %3, align 8, !dbg !1649, !noundef !24
  %5 = getelementptr inbounds { ptr, i64 }, ptr %_3, i32 0, i32 0, !dbg !1649
  store ptr %2, ptr %5, align 8, !dbg !1649
  %6 = getelementptr inbounds { ptr, i64 }, ptr %_3, i32 0, i32 1, !dbg !1649
  store i64 %4, ptr %6, align 8, !dbg !1649
  %7 = getelementptr inbounds { ptr, i64 }, ptr %_3, i32 0, i32 0, !dbg !1649
  %8 = load ptr, ptr %7, align 8, !dbg !1649, !noundef !24
  %9 = getelementptr inbounds { ptr, i64 }, ptr %_3, i32 0, i32 1, !dbg !1649
  %10 = load i64, ptr %9, align 8, !dbg !1649, !noundef !24
  %11 = insertvalue { ptr, i64 } undef, ptr %8, 0, !dbg !1650
  %12 = insertvalue { ptr, i64 } %11, i64 %10, 1, !dbg !1650
  ret { ptr, i64 } %12, !dbg !1650
}

; core::ptr::metadata::from_raw_parts_mut
; Function Attrs: inlinehint noredzone nounwind
define { ptr, i64 } @_ZN4core3ptr8metadata18from_raw_parts_mut17h4ebcde8efbc0866fE(ptr %data_address, i64 %metadata) unnamed_addr #0 !dbg !1651 {
start:
  %metadata.dbg.spill = alloca i64, align 8
  %data_address.dbg.spill = alloca ptr, align 8
  %_4 = alloca { ptr, i64 }, align 8
  %_3 = alloca %"core::ptr::metadata::PtrRepr<[bootinfo::memory_map::MemoryRegion]>", align 8
  store ptr %data_address, ptr %data_address.dbg.spill, align 8
  call void @llvm.dbg.declare(metadata ptr %data_address.dbg.spill, metadata !1655, metadata !DIExpression()), !dbg !1657
  store i64 %metadata, ptr %metadata.dbg.spill, align 8
  call void @llvm.dbg.declare(metadata ptr %metadata.dbg.spill, metadata !1656, metadata !DIExpression()), !dbg !1658
  store ptr %data_address, ptr %_4, align 8, !dbg !1659
  %0 = getelementptr inbounds { ptr, i64 }, ptr %_4, i32 0, i32 1, !dbg !1659
  store i64 %metadata, ptr %0, align 8, !dbg !1659
  %1 = getelementptr inbounds { ptr, i64 }, ptr %_4, i32 0, i32 0, !dbg !1660
  %2 = load ptr, ptr %1, align 8, !dbg !1660, !noundef !24
  %3 = getelementptr inbounds { ptr, i64 }, ptr %_4, i32 0, i32 1, !dbg !1660
  %4 = load i64, ptr %3, align 8, !dbg !1660, !noundef !24
  %5 = getelementptr inbounds { ptr, i64 }, ptr %_3, i32 0, i32 0, !dbg !1660
  store ptr %2, ptr %5, align 8, !dbg !1660
  %6 = getelementptr inbounds { ptr, i64 }, ptr %_3, i32 0, i32 1, !dbg !1660
  store i64 %4, ptr %6, align 8, !dbg !1660
  %7 = getelementptr inbounds { ptr, i64 }, ptr %_3, i32 0, i32 0, !dbg !1660
  %8 = load ptr, ptr %7, align 8, !dbg !1660, !noundef !24
  %9 = getelementptr inbounds { ptr, i64 }, ptr %_3, i32 0, i32 1, !dbg !1660
  %10 = load i64, ptr %9, align 8, !dbg !1660, !noundef !24
  %11 = insertvalue { ptr, i64 } undef, ptr %8, 0, !dbg !1661
  %12 = insertvalue { ptr, i64 } %11, i64 %10, 1, !dbg !1661
  ret { ptr, i64 } %12, !dbg !1661
}

; core::ptr::metadata::metadata
; Function Attrs: inlinehint noredzone nounwind
define void @_ZN4core3ptr8metadata8metadata17h2edb0a698278e849E(ptr %ptr) unnamed_addr #0 !dbg !1662 {
start:
  %ptr.dbg.spill = alloca ptr, align 8
  %_2 = alloca %"core::ptr::metadata::PtrRepr<bootinfo::memory_map::MemoryRegion>", align 8
  store ptr %ptr, ptr %ptr.dbg.spill, align 8
  call void @llvm.dbg.declare(metadata ptr %ptr.dbg.spill, metadata !1664, metadata !DIExpression()), !dbg !1665
  store ptr %ptr, ptr %_2, align 8, !dbg !1666
  ret void, !dbg !1667
}

; core::ptr::metadata::metadata
; Function Attrs: inlinehint noredzone nounwind
define i64 @_ZN4core3ptr8metadata8metadata17ha6e61aa0e6f1b1cfE(ptr %ptr.0, i64 %ptr.1) unnamed_addr #0 !dbg !1668 {
start:
  %ptr.dbg.spill = alloca { ptr, i64 }, align 8
  %_2 = alloca %"core::ptr::metadata::PtrRepr<[bootinfo::memory_map::MemoryRegion]>", align 8
  %0 = getelementptr inbounds { ptr, i64 }, ptr %ptr.dbg.spill, i32 0, i32 0
  store ptr %ptr.0, ptr %0, align 8
  %1 = getelementptr inbounds { ptr, i64 }, ptr %ptr.dbg.spill, i32 0, i32 1
  store i64 %ptr.1, ptr %1, align 8
  call void @llvm.dbg.declare(metadata ptr %ptr.dbg.spill, metadata !1672, metadata !DIExpression()), !dbg !1673
  %2 = getelementptr inbounds { ptr, i64 }, ptr %_2, i32 0, i32 0, !dbg !1674
  store ptr %ptr.0, ptr %2, align 8, !dbg !1674
  %3 = getelementptr inbounds { ptr, i64 }, ptr %_2, i32 0, i32 1, !dbg !1674
  store i64 %ptr.1, ptr %3, align 8, !dbg !1674
  %4 = getelementptr inbounds { ptr, i64 }, ptr %_2, i32 0, i32 1, !dbg !1674
  %5 = load i64, ptr %4, align 8, !dbg !1674, !noundef !24
  ret i64 %5, !dbg !1675
}

; core::ptr::non_null::NonNull<T>::new_unchecked
; Function Attrs: inlinehint noredzone nounwind
define ptr @"_ZN4core3ptr8non_null16NonNull$LT$T$GT$13new_unchecked17h8231aeee433b7653E"(ptr %ptr) unnamed_addr #0 !dbg !1676 {
start:
  %ptr.dbg.spill.i = alloca ptr, align 8
  %ptr.dbg.spill = alloca ptr, align 8
  %_3 = alloca ptr, align 8
  %0 = alloca ptr, align 8
  store ptr %ptr, ptr %ptr.dbg.spill, align 8
  call void @llvm.dbg.declare(metadata ptr %ptr.dbg.spill, metadata !1681, metadata !DIExpression()), !dbg !1682
  store ptr %ptr, ptr %_3, align 8, !dbg !1683
  %1 = load ptr, ptr %_3, align 8, !dbg !1683, !noundef !24
  store ptr %1, ptr %ptr.dbg.spill.i, align 8
  call void @llvm.dbg.declare(metadata ptr %ptr.dbg.spill.i, metadata !1684, metadata !DIExpression()), !dbg !1689
; call core::ptr::mut_ptr::<impl *mut T>::is_null
  %_4.i = call zeroext i1 @"_ZN4core3ptr7mut_ptr31_$LT$impl$u20$$BP$mut$u20$T$GT$7is_null17hf71df01788256b36E"(ptr %1) #9, !dbg !1691
  %_3.i = xor i1 %_4.i, true, !dbg !1693
  br i1 %_4.i, label %bb2.i, label %"_ZN4core3ptr8non_null16NonNull$LT$T$GT$13new_unchecked7runtime17h3879153776a2968dE.exit", !dbg !1694

bb2.i:                                            ; preds = %start
; call core::panicking::panic_nounwind
  call void @_ZN4core9panicking14panic_nounwind17hb8a2b9db753d85a7E(ptr align 1 @alloc347, i64 93) #10, !dbg !1695
  unreachable, !dbg !1695

"_ZN4core3ptr8non_null16NonNull$LT$T$GT$13new_unchecked7runtime17h3879153776a2968dE.exit": ; preds = %start
  store ptr %ptr, ptr %0, align 8, !dbg !1696
  %2 = load ptr, ptr %0, align 8, !dbg !1697, !nonnull !24, !noundef !24
  ret ptr %2, !dbg !1697
}

; core::ptr::const_ptr::<impl *const T>::is_aligned
; Function Attrs: inlinehint noredzone nounwind
define zeroext i1 @"_ZN4core3ptr9const_ptr33_$LT$impl$u20$$BP$const$u20$T$GT$10is_aligned17h1d6de02456bd4b8bE"(ptr %self) unnamed_addr #0 !dbg !1698 {
start:
  %self.dbg.spill = alloca ptr, align 8
  store ptr %self, ptr %self.dbg.spill, align 8
  call void @llvm.dbg.declare(metadata ptr %self.dbg.spill, metadata !1700, metadata !DIExpression()), !dbg !1701
; call core::ptr::const_ptr::<impl *const T>::is_aligned_to
  %0 = call zeroext i1 @"_ZN4core3ptr9const_ptr33_$LT$impl$u20$$BP$const$u20$T$GT$13is_aligned_to17h1f1f9c94c3442f42E"(ptr %self, i64 8) #9, !dbg !1702
  ret i1 %0, !dbg !1703
}

; core::ptr::const_ptr::<impl *const T>::is_aligned
; Function Attrs: inlinehint noredzone nounwind
define zeroext i1 @"_ZN4core3ptr9const_ptr33_$LT$impl$u20$$BP$const$u20$T$GT$10is_aligned17heb9fe0941b72d421E"(ptr %self) unnamed_addr #0 !dbg !1704 {
start:
  %self.dbg.spill = alloca ptr, align 8
  store ptr %self, ptr %self.dbg.spill, align 8
  call void @llvm.dbg.declare(metadata ptr %self.dbg.spill, metadata !1706, metadata !DIExpression()), !dbg !1707
; call core::ptr::const_ptr::<impl *const T>::is_aligned_to
  %0 = call zeroext i1 @"_ZN4core3ptr9const_ptr33_$LT$impl$u20$$BP$const$u20$T$GT$13is_aligned_to17hb388329e7c45bd68E"(ptr %self, i64 8) #9, !dbg !1708
  ret i1 %0, !dbg !1709
}

; core::ptr::const_ptr::<impl *const T>::is_aligned_to::runtime_impl
; Function Attrs: inlinehint noredzone nounwind
define internal zeroext i1 @"_ZN4core3ptr9const_ptr33_$LT$impl$u20$$BP$const$u20$T$GT$13is_aligned_to12runtime_impl17hf4d9121b9c678c28E"(ptr %ptr, i64 %align) unnamed_addr #0 !dbg !1710 {
start:
  %self.dbg.spill.i1 = alloca ptr, align 8
  %0 = alloca i64, align 8
  %self.dbg.spill.i = alloca ptr, align 8
  %align.dbg.spill = alloca i64, align 8
  %ptr.dbg.spill = alloca ptr, align 8
  store ptr %ptr, ptr %ptr.dbg.spill, align 8
  call void @llvm.dbg.declare(metadata ptr %ptr.dbg.spill, metadata !1715, metadata !DIExpression()), !dbg !1717
  store i64 %align, ptr %align.dbg.spill, align 8
  call void @llvm.dbg.declare(metadata ptr %align.dbg.spill, metadata !1716, metadata !DIExpression()), !dbg !1718
  store ptr %ptr, ptr %self.dbg.spill.i, align 8
  call void @llvm.dbg.declare(metadata ptr %self.dbg.spill.i, metadata !1719, metadata !DIExpression()), !dbg !1725
  store ptr %ptr, ptr %self.dbg.spill.i1, align 8
  call void @llvm.dbg.declare(metadata ptr %self.dbg.spill.i1, metadata !1727, metadata !DIExpression()), !dbg !1733
  store ptr %ptr, ptr %0, align 8, !dbg !1735
  %1 = load i64, ptr %0, align 8, !dbg !1735, !noundef !24
  %_8.0 = sub i64 %align, 1, !dbg !1736
  %_8.1 = icmp ult i64 %align, 1, !dbg !1736
  %2 = call i1 @llvm.expect.i1(i1 %_8.1, i1 false), !dbg !1736
  br i1 %2, label %panic, label %bb2, !dbg !1736

bb2:                                              ; preds = %start
  %_3 = and i64 %1, %_8.0, !dbg !1737
  %3 = icmp eq i64 %_3, 0, !dbg !1737
  ret i1 %3, !dbg !1738

panic:                                            ; preds = %start
; call core::panicking::panic
  call void @_ZN4core9panicking5panic17h1deab6c62a1415a6E(ptr align 1 @str.0, i64 33, ptr align 8 @alloc349) #10, !dbg !1736
  unreachable, !dbg !1736
}

; core::ptr::const_ptr::<impl *const T>::is_aligned_to
; Function Attrs: inlinehint noredzone nounwind
define zeroext i1 @"_ZN4core3ptr9const_ptr33_$LT$impl$u20$$BP$const$u20$T$GT$13is_aligned_to17h1f1f9c94c3442f42E"(ptr %self, i64 %align) unnamed_addr #0 !dbg !1739 {
start:
  %self.dbg.spill.i1 = alloca ptr, align 8
  %0 = alloca i64, align 8
  %self.dbg.spill.i.i = alloca i64, align 8
  %self.dbg.spill.i = alloca i64, align 8
  %align.dbg.spill = alloca i64, align 8
  %self.dbg.spill = alloca ptr, align 8
  %_14 = alloca { ptr, i64 }, align 8
  %_7 = alloca %"core::fmt::Arguments<'_>", align 8
  store ptr %self, ptr %self.dbg.spill, align 8
  call void @llvm.dbg.declare(metadata ptr %self.dbg.spill, metadata !1743, metadata !DIExpression()), !dbg !1745
  store i64 %align, ptr %align.dbg.spill, align 8
  call void @llvm.dbg.declare(metadata ptr %align.dbg.spill, metadata !1744, metadata !DIExpression()), !dbg !1746
  store i64 %align, ptr %self.dbg.spill.i, align 8
  call void @llvm.dbg.declare(metadata ptr %self.dbg.spill.i, metadata !1134, metadata !DIExpression()), !dbg !1747
  store i64 %align, ptr %self.dbg.spill.i.i, align 8
  call void @llvm.dbg.declare(metadata ptr %self.dbg.spill.i.i, metadata !1139, metadata !DIExpression()), !dbg !1749
  %1 = call i64 @llvm.ctpop.i64(i64 %align), !dbg !1751
  store i64 %1, ptr %0, align 8, !dbg !1751
  %_2.i.i = load i64, ptr %0, align 8, !dbg !1751, !noundef !24
  %2 = trunc i64 %_2.i.i to i32, !dbg !1751
  %3 = icmp eq i32 %2, 1, !dbg !1752
  %_3 = xor i1 %3, true, !dbg !1753
  br i1 %_3, label %bb2, label %bb4, !dbg !1753

bb4:                                              ; preds = %start
  store ptr %self, ptr %self.dbg.spill.i1, align 8
  call void @llvm.dbg.declare(metadata ptr %self.dbg.spill.i1, metadata !516, metadata !DIExpression()), !dbg !1754
  store ptr %self, ptr %_14, align 8, !dbg !1756
  %4 = getelementptr inbounds { ptr, i64 }, ptr %_14, i32 0, i32 1, !dbg !1756
  store i64 %align, ptr %4, align 8, !dbg !1756
  %5 = load ptr, ptr %_14, align 8, !dbg !1757, !noundef !24
  %6 = getelementptr inbounds { ptr, i64 }, ptr %_14, i32 0, i32 1, !dbg !1757
  %7 = load i64, ptr %6, align 8, !dbg !1757, !noundef !24
; call core::ptr::const_ptr::<impl *const T>::is_aligned_to::runtime_impl
  %8 = call zeroext i1 @"_ZN4core3ptr9const_ptr33_$LT$impl$u20$$BP$const$u20$T$GT$13is_aligned_to12runtime_impl17hf4d9121b9c678c28E"(ptr %5, i64 %7) #9, !dbg !1757
  ret i1 %8, !dbg !1758

bb2:                                              ; preds = %start
; call core::fmt::Arguments::new_v1
  call void @_ZN4core3fmt9Arguments6new_v117h8f458a1f5ca8d89bE(ptr sret(%"core::fmt::Arguments<'_>") %_7, ptr align 8 @alloc91, i64 1, ptr align 8 @alloc94, i64 0) #9, !dbg !1759
; call core::panicking::panic_fmt
  call void @_ZN4core9panicking9panic_fmt17h750b68cc932bb047E(ptr %_7, ptr align 8 @alloc351) #10, !dbg !1759
  unreachable, !dbg !1759
}

; core::ptr::const_ptr::<impl *const T>::is_aligned_to
; Function Attrs: inlinehint noredzone nounwind
define zeroext i1 @"_ZN4core3ptr9const_ptr33_$LT$impl$u20$$BP$const$u20$T$GT$13is_aligned_to17hb388329e7c45bd68E"(ptr %self, i64 %align) unnamed_addr #0 !dbg !1760 {
start:
  %self.dbg.spill.i1 = alloca ptr, align 8
  %0 = alloca i64, align 8
  %self.dbg.spill.i.i = alloca i64, align 8
  %self.dbg.spill.i = alloca i64, align 8
  %align.dbg.spill = alloca i64, align 8
  %self.dbg.spill = alloca ptr, align 8
  %_14 = alloca { ptr, i64 }, align 8
  %_7 = alloca %"core::fmt::Arguments<'_>", align 8
  store ptr %self, ptr %self.dbg.spill, align 8
  call void @llvm.dbg.declare(metadata ptr %self.dbg.spill, metadata !1764, metadata !DIExpression()), !dbg !1766
  store i64 %align, ptr %align.dbg.spill, align 8
  call void @llvm.dbg.declare(metadata ptr %align.dbg.spill, metadata !1765, metadata !DIExpression()), !dbg !1767
  store i64 %align, ptr %self.dbg.spill.i, align 8
  call void @llvm.dbg.declare(metadata ptr %self.dbg.spill.i, metadata !1134, metadata !DIExpression()), !dbg !1768
  store i64 %align, ptr %self.dbg.spill.i.i, align 8
  call void @llvm.dbg.declare(metadata ptr %self.dbg.spill.i.i, metadata !1139, metadata !DIExpression()), !dbg !1770
  %1 = call i64 @llvm.ctpop.i64(i64 %align), !dbg !1772
  store i64 %1, ptr %0, align 8, !dbg !1772
  %_2.i.i = load i64, ptr %0, align 8, !dbg !1772, !noundef !24
  %2 = trunc i64 %_2.i.i to i32, !dbg !1772
  %3 = icmp eq i32 %2, 1, !dbg !1773
  %_3 = xor i1 %3, true, !dbg !1774
  br i1 %_3, label %bb2, label %bb4, !dbg !1774

bb4:                                              ; preds = %start
  store ptr %self, ptr %self.dbg.spill.i1, align 8
  call void @llvm.dbg.declare(metadata ptr %self.dbg.spill.i1, metadata !1775, metadata !DIExpression()), !dbg !1781
  store ptr %self, ptr %_14, align 8, !dbg !1783
  %4 = getelementptr inbounds { ptr, i64 }, ptr %_14, i32 0, i32 1, !dbg !1783
  store i64 %align, ptr %4, align 8, !dbg !1783
  %5 = load ptr, ptr %_14, align 8, !dbg !1784, !noundef !24
  %6 = getelementptr inbounds { ptr, i64 }, ptr %_14, i32 0, i32 1, !dbg !1784
  %7 = load i64, ptr %6, align 8, !dbg !1784, !noundef !24
; call core::ptr::const_ptr::<impl *const T>::is_aligned_to::runtime_impl
  %8 = call zeroext i1 @"_ZN4core3ptr9const_ptr33_$LT$impl$u20$$BP$const$u20$T$GT$13is_aligned_to12runtime_impl17hf4d9121b9c678c28E"(ptr %5, i64 %7) #9, !dbg !1784
  ret i1 %8, !dbg !1785

bb2:                                              ; preds = %start
; call core::fmt::Arguments::new_v1
  call void @_ZN4core3fmt9Arguments6new_v117h8f458a1f5ca8d89bE(ptr sret(%"core::fmt::Arguments<'_>") %_7, ptr align 8 @alloc91, i64 1, ptr align 8 @alloc94, i64 0) #9, !dbg !1786
; call core::panicking::panic_fmt
  call void @_ZN4core9panicking9panic_fmt17h750b68cc932bb047E(ptr %_7, ptr align 8 @alloc351) #10, !dbg !1786
  unreachable, !dbg !1786
}

; core::ptr::const_ptr::<impl *const T>::with_metadata_of
; Function Attrs: inlinehint noredzone nounwind
define ptr @"_ZN4core3ptr9const_ptr33_$LT$impl$u20$$BP$const$u20$T$GT$16with_metadata_of17hdb16d2b720a6456aE"(ptr %self, ptr %meta) unnamed_addr #0 !dbg !1787 {
start:
  %meta.dbg.spill = alloca ptr, align 8
  %self.dbg.spill = alloca ptr, align 8
  store ptr %self, ptr %self.dbg.spill, align 8
  call void @llvm.dbg.declare(metadata ptr %self.dbg.spill, metadata !1792, metadata !DIExpression()), !dbg !1796
  store ptr %meta, ptr %meta.dbg.spill, align 8
  call void @llvm.dbg.declare(metadata ptr %meta.dbg.spill, metadata !1793, metadata !DIExpression()), !dbg !1797
; call core::ptr::metadata::metadata
  call void @_ZN4core3ptr8metadata8metadata17h2edb0a698278e849E(ptr %meta) #9, !dbg !1798
; call core::ptr::metadata::from_raw_parts
  %0 = call ptr @_ZN4core3ptr8metadata14from_raw_parts17h393f60194f5a5dffE(ptr %self) #9, !dbg !1799
  ret ptr %0, !dbg !1800
}

; core::ptr::const_ptr::<impl *const T>::is_null::runtime_impl
; Function Attrs: inlinehint noredzone nounwind
define internal zeroext i1 @"_ZN4core3ptr9const_ptr33_$LT$impl$u20$$BP$const$u20$T$GT$7is_null12runtime_impl17hb72450709b77a419E"(ptr %ptr) unnamed_addr #0 !dbg !1801 {
start:
  %self.dbg.spill.i1 = alloca ptr, align 8
  %0 = alloca i64, align 8
  %self.dbg.spill.i = alloca ptr, align 8
  %ptr.dbg.spill = alloca ptr, align 8
  store ptr %ptr, ptr %ptr.dbg.spill, align 8
  call void @llvm.dbg.declare(metadata ptr %ptr.dbg.spill, metadata !1806, metadata !DIExpression()), !dbg !1807
  store ptr %ptr, ptr %self.dbg.spill.i, align 8
  call void @llvm.dbg.declare(metadata ptr %self.dbg.spill.i, metadata !1808, metadata !DIExpression()), !dbg !1813
  store ptr %ptr, ptr %self.dbg.spill.i1, align 8
  call void @llvm.dbg.declare(metadata ptr %self.dbg.spill.i1, metadata !1815, metadata !DIExpression()), !dbg !1820
  store ptr %ptr, ptr %0, align 8, !dbg !1822
  %1 = load i64, ptr %0, align 8, !dbg !1822, !noundef !24
  %2 = icmp eq i64 %1, 0, !dbg !1823
  ret i1 %2, !dbg !1824
}

; core::ptr::const_ptr::<impl *const T>::is_null
; Function Attrs: inlinehint noredzone nounwind
define zeroext i1 @"_ZN4core3ptr9const_ptr33_$LT$impl$u20$$BP$const$u20$T$GT$7is_null17h0a7d9b1ec3d38477E"(ptr %self) unnamed_addr #0 !dbg !1825 {
start:
  %self.dbg.spill = alloca ptr, align 8
  %_2 = alloca ptr, align 8
  store ptr %self, ptr %self.dbg.spill, align 8
  call void @llvm.dbg.declare(metadata ptr %self.dbg.spill, metadata !1827, metadata !DIExpression()), !dbg !1828
  store ptr %self, ptr %_2, align 8, !dbg !1829
  %0 = load ptr, ptr %_2, align 8, !dbg !1830, !noundef !24
; call core::ptr::const_ptr::<impl *const T>::is_null::runtime_impl
  %1 = call zeroext i1 @"_ZN4core3ptr9const_ptr33_$LT$impl$u20$$BP$const$u20$T$GT$7is_null12runtime_impl17hb72450709b77a419E"(ptr %0) #9, !dbg !1830
  ret i1 %1, !dbg !1831
}

; core::ptr::const_ptr::<impl *const T>::is_null
; Function Attrs: inlinehint noredzone nounwind
define zeroext i1 @"_ZN4core3ptr9const_ptr33_$LT$impl$u20$$BP$const$u20$T$GT$7is_null17h3a2b9669f2734d1cE"(ptr %self) unnamed_addr #0 !dbg !1832 {
start:
  %self.dbg.spill = alloca ptr, align 8
  %_2 = alloca ptr, align 8
  store ptr %self, ptr %self.dbg.spill, align 8
  call void @llvm.dbg.declare(metadata ptr %self.dbg.spill, metadata !1834, metadata !DIExpression()), !dbg !1835
  store ptr %self, ptr %_2, align 8, !dbg !1836
  %0 = load ptr, ptr %_2, align 8, !dbg !1837, !noundef !24
; call core::ptr::const_ptr::<impl *const T>::is_null::runtime_impl
  %1 = call zeroext i1 @"_ZN4core3ptr9const_ptr33_$LT$impl$u20$$BP$const$u20$T$GT$7is_null12runtime_impl17hb72450709b77a419E"(ptr %0) #9, !dbg !1837
  ret i1 %1, !dbg !1838
}

; core::ptr::const_ptr::<impl *const T>::sub_ptr
; Function Attrs: inlinehint noredzone nounwind
define i64 @"_ZN4core3ptr9const_ptr33_$LT$impl$u20$$BP$const$u20$T$GT$7sub_ptr17h34232e02f32e3771E"(ptr %self, ptr %origin) unnamed_addr #0 !dbg !1839 {
start:
  %origin.dbg.spill.i = alloca ptr, align 8
  %this.dbg.spill.i = alloca ptr, align 8
  %0 = alloca i64, align 8
  %pointee_size.dbg.spill = alloca i64, align 8
  %this.dbg.spill = alloca ptr, align 8
  %origin.dbg.spill = alloca ptr, align 8
  %self.dbg.spill = alloca ptr, align 8
  %_10 = alloca i8, align 1
  %_5 = alloca { ptr, ptr }, align 8
  store ptr %self, ptr %self.dbg.spill, align 8
  call void @llvm.dbg.declare(metadata ptr %self.dbg.spill, metadata !1843, metadata !DIExpression()), !dbg !1849
  store ptr %origin, ptr %origin.dbg.spill, align 8
  call void @llvm.dbg.declare(metadata ptr %origin.dbg.spill, metadata !1844, metadata !DIExpression()), !dbg !1850
  store ptr %self, ptr %this.dbg.spill, align 8, !dbg !1851
  call void @llvm.dbg.declare(metadata ptr %this.dbg.spill, metadata !1845, metadata !DIExpression()), !dbg !1852
  store ptr %self, ptr %_5, align 8, !dbg !1853
  %1 = getelementptr inbounds { ptr, ptr }, ptr %_5, i32 0, i32 1, !dbg !1853
  store ptr %origin, ptr %1, align 8, !dbg !1853
  %2 = load ptr, ptr %_5, align 8, !dbg !1853, !noundef !24
  %3 = getelementptr inbounds { ptr, ptr }, ptr %_5, i32 0, i32 1, !dbg !1853
  %4 = load ptr, ptr %3, align 8, !dbg !1853, !noundef !24
  store ptr %2, ptr %this.dbg.spill.i, align 8
  call void @llvm.dbg.declare(metadata ptr %this.dbg.spill.i, metadata !1854, metadata !DIExpression()), !dbg !1861
  store ptr %4, ptr %origin.dbg.spill.i, align 8
  call void @llvm.dbg.declare(metadata ptr %origin.dbg.spill.i, metadata !1860, metadata !DIExpression()), !dbg !1861
  %_4.i = icmp uge ptr %2, %4, !dbg !1863
  %_3.i = xor i1 %_4.i, true, !dbg !1865
  br i1 %_3.i, label %bb1.i, label %"_ZN4core3ptr9const_ptr33_$LT$impl$u20$$BP$const$u20$T$GT$7sub_ptr7runtime17h532d521b0b9757dfE.exit", !dbg !1865

bb1.i:                                            ; preds = %start
; call core::panicking::panic_nounwind
  call void @_ZN4core9panicking14panic_nounwind17hb8a2b9db753d85a7E(ptr align 1 @alloc355, i64 71) #10, !dbg !1866
  unreachable, !dbg !1866

"_ZN4core3ptr9const_ptr33_$LT$impl$u20$$BP$const$u20$T$GT$7sub_ptr7runtime17h532d521b0b9757dfE.exit": ; preds = %start
  store i64 24, ptr %pointee_size.dbg.spill, align 8, !dbg !1867
  call void @llvm.dbg.declare(metadata ptr %pointee_size.dbg.spill, metadata !1847, metadata !DIExpression()), !dbg !1868
  %_11 = icmp ult i64 0, 24, !dbg !1869
  br i1 %_11, label %bb4, label %bb3, !dbg !1869

bb3:                                              ; preds = %"_ZN4core3ptr9const_ptr33_$LT$impl$u20$$BP$const$u20$T$GT$7sub_ptr7runtime17h532d521b0b9757dfE.exit"
  store i8 0, ptr %_10, align 1, !dbg !1869
  br label %bb5, !dbg !1869

bb4:                                              ; preds = %"_ZN4core3ptr9const_ptr33_$LT$impl$u20$$BP$const$u20$T$GT$7sub_ptr7runtime17h532d521b0b9757dfE.exit"
  %_13 = icmp ule i64 24, 9223372036854775807, !dbg !1870
  %5 = zext i1 %_13 to i8, !dbg !1869
  store i8 %5, ptr %_10, align 1, !dbg !1869
  br label %bb5, !dbg !1869

bb5:                                              ; preds = %bb3, %bb4
  %6 = load i8, ptr %_10, align 1, !dbg !1871, !range !210, !noundef !24
  %7 = trunc i8 %6 to i1, !dbg !1871
  %_9 = xor i1 %7, true, !dbg !1871
  br i1 %_9, label %bb6, label %bb7, !dbg !1871

bb7:                                              ; preds = %bb5
  %8 = ptrtoint ptr %self to i64, !dbg !1872
  %9 = ptrtoint ptr %origin to i64, !dbg !1872
  %10 = sub nuw i64 %8, %9, !dbg !1872
  %11 = udiv exact i64 %10, 24, !dbg !1872
  store i64 %11, ptr %0, align 8, !dbg !1872
  %12 = load i64, ptr %0, align 8, !dbg !1872, !noundef !24
  ret i64 %12, !dbg !1873

bb6:                                              ; preds = %bb5
; call core::panicking::panic
  call void @_ZN4core9panicking5panic17h1deab6c62a1415a6E(ptr align 1 @alloc352, i64 73, ptr align 8 @alloc354) #10, !dbg !1871
  unreachable, !dbg !1871
}

; core::ptr::const_ptr::<impl *const [T]>::len
; Function Attrs: inlinehint noredzone nounwind
define i64 @"_ZN4core3ptr9const_ptr43_$LT$impl$u20$$BP$const$u20$$u5b$T$u5d$$GT$3len17he37260d0f00542aeE"(ptr %self.0, i64 %self.1) unnamed_addr #0 !dbg !1874 {
start:
  %self.dbg.spill = alloca { ptr, i64 }, align 8
  %0 = getelementptr inbounds { ptr, i64 }, ptr %self.dbg.spill, i32 0, i32 0
  store ptr %self.0, ptr %0, align 8
  %1 = getelementptr inbounds { ptr, i64 }, ptr %self.dbg.spill, i32 0, i32 1
  store i64 %self.1, ptr %1, align 8
  call void @llvm.dbg.declare(metadata ptr %self.dbg.spill, metadata !1877, metadata !DIExpression()), !dbg !1878
; call core::ptr::metadata::metadata
  %2 = call i64 @_ZN4core3ptr8metadata8metadata17ha6e61aa0e6f1b1cfE(ptr %self.0, i64 %self.1) #9, !dbg !1879
  ret i64 %2, !dbg !1880
}

; core::ptr::const_ptr::<impl *const [T]>::as_ptr
; Function Attrs: inlinehint noredzone nounwind
define ptr @"_ZN4core3ptr9const_ptr43_$LT$impl$u20$$BP$const$u20$$u5b$T$u5d$$GT$6as_ptr17had070488182137c0E"(ptr %self.0, i64 %self.1) unnamed_addr #0 !dbg !1881 {
start:
  %self.dbg.spill = alloca { ptr, i64 }, align 8
  %0 = getelementptr inbounds { ptr, i64 }, ptr %self.dbg.spill, i32 0, i32 0
  store ptr %self.0, ptr %0, align 8
  %1 = getelementptr inbounds { ptr, i64 }, ptr %self.dbg.spill, i32 0, i32 1
  store i64 %self.1, ptr %1, align 8
  call void @llvm.dbg.declare(metadata ptr %self.dbg.spill, metadata !1885, metadata !DIExpression()), !dbg !1886
  ret ptr %self.0, !dbg !1887
}

; core::array::<impl core::ops::index::Index<I> for [T; N]>::index
; Function Attrs: inlinehint noredzone nounwind
define { ptr, i64 } @"_ZN4core5array85_$LT$impl$u20$core..ops..index..Index$LT$I$GT$$u20$for$u20$$u5b$T$u3b$$u20$N$u5d$$GT$5index17ha83ee45bdf389267E"(ptr align 8 %self, i64 %index.0, i64 %index.1, ptr align 8 %0) unnamed_addr #0 !dbg !1888 {
start:
  %index.dbg.spill = alloca { i64, i64 }, align 8
  %self.dbg.spill = alloca ptr, align 8
  store ptr %self, ptr %self.dbg.spill, align 8
  call void @llvm.dbg.declare(metadata ptr %self.dbg.spill, metadata !1896, metadata !DIExpression()), !dbg !1900
  %1 = getelementptr inbounds { i64, i64 }, ptr %index.dbg.spill, i32 0, i32 0
  store i64 %index.0, ptr %1, align 8
  %2 = getelementptr inbounds { i64, i64 }, ptr %index.dbg.spill, i32 0, i32 1
  store i64 %index.1, ptr %2, align 8
  call void @llvm.dbg.declare(metadata ptr %index.dbg.spill, metadata !1897, metadata !DIExpression()), !dbg !1901
; call core::slice::index::<impl core::ops::index::Index<I> for [T]>::index
  %3 = call { ptr, i64 } @"_ZN4core5slice5index74_$LT$impl$u20$core..ops..index..Index$LT$I$GT$$u20$for$u20$$u5b$T$u5d$$GT$5index17hb9a53b12c389a50cE"(ptr align 8 %self, i64 64, i64 %index.0, i64 %index.1, ptr align 8 %0) #9, !dbg !1902
  %4 = extractvalue { ptr, i64 } %3, 0, !dbg !1902
  %5 = extractvalue { ptr, i64 } %3, 1, !dbg !1902
  %6 = insertvalue { ptr, i64 } undef, ptr %4, 0, !dbg !1903
  %7 = insertvalue { ptr, i64 } %6, i64 %5, 1, !dbg !1903
  ret { ptr, i64 } %7, !dbg !1903
}

; core::array::<impl core::ops::index::IndexMut<I> for [T; N]>::index_mut
; Function Attrs: inlinehint noredzone nounwind
define { ptr, i64 } @"_ZN4core5array88_$LT$impl$u20$core..ops..index..IndexMut$LT$I$GT$$u20$for$u20$$u5b$T$u3b$$u20$N$u5d$$GT$9index_mut17he981fe34bdb9d4b3E"(ptr align 8 %self, i64 %index.0, i64 %index.1, ptr align 8 %0) unnamed_addr #0 !dbg !1904 {
start:
  %index.dbg.spill = alloca { i64, i64 }, align 8
  %self.dbg.spill = alloca ptr, align 8
  store ptr %self, ptr %self.dbg.spill, align 8
  call void @llvm.dbg.declare(metadata ptr %self.dbg.spill, metadata !1910, metadata !DIExpression()), !dbg !1912
  %1 = getelementptr inbounds { i64, i64 }, ptr %index.dbg.spill, i32 0, i32 0
  store i64 %index.0, ptr %1, align 8
  %2 = getelementptr inbounds { i64, i64 }, ptr %index.dbg.spill, i32 0, i32 1
  store i64 %index.1, ptr %2, align 8
  call void @llvm.dbg.declare(metadata ptr %index.dbg.spill, metadata !1911, metadata !DIExpression()), !dbg !1913
; call core::slice::index::<impl core::ops::index::IndexMut<I> for [T]>::index_mut
  %3 = call { ptr, i64 } @"_ZN4core5slice5index77_$LT$impl$u20$core..ops..index..IndexMut$LT$I$GT$$u20$for$u20$$u5b$T$u5d$$GT$9index_mut17h51d51483995be89dE"(ptr align 8 %self, i64 64, i64 %index.0, i64 %index.1, ptr align 8 %0) #9, !dbg !1914
  %_4.0 = extractvalue { ptr, i64 } %3, 0, !dbg !1914
  %_4.1 = extractvalue { ptr, i64 } %3, 1, !dbg !1914
  %4 = insertvalue { ptr, i64 } undef, ptr %_4.0, 0, !dbg !1915
  %5 = insertvalue { ptr, i64 } %4, i64 %_4.1, 1, !dbg !1915
  ret { ptr, i64 } %5, !dbg !1915
}

; core::slice::<impl [T]>::split_at_mut
; Function Attrs: inlinehint noredzone nounwind
define void @"_ZN4core5slice29_$LT$impl$u20$$u5b$T$u5d$$GT$12split_at_mut17hdec5ae495559f740E"(ptr sret({ { ptr, i64 }, { ptr, i64 } }) %0, ptr align 8 %self.0, i64 %self.1, i64 %mid, ptr align 8 %1) unnamed_addr #0 !dbg !1916 {
start:
  %mid.dbg.spill = alloca i64, align 8
  %self.dbg.spill = alloca { ptr, i64 }, align 8
  %2 = getelementptr inbounds { ptr, i64 }, ptr %self.dbg.spill, i32 0, i32 0
  store ptr %self.0, ptr %2, align 8
  %3 = getelementptr inbounds { ptr, i64 }, ptr %self.dbg.spill, i32 0, i32 1
  store i64 %self.1, ptr %3, align 8
  call void @llvm.dbg.declare(metadata ptr %self.dbg.spill, metadata !1925, metadata !DIExpression()), !dbg !1927
  store i64 %mid, ptr %mid.dbg.spill, align 8
  call void @llvm.dbg.declare(metadata ptr %mid.dbg.spill, metadata !1926, metadata !DIExpression()), !dbg !1928
  %_4 = icmp ule i64 %mid, %self.1, !dbg !1929
  %_3 = xor i1 %_4, true, !dbg !1930
  br i1 %_3, label %bb1, label %bb2, !dbg !1930

bb2:                                              ; preds = %start
; call core::slice::<impl [T]>::split_at_mut_unchecked
  call void @"_ZN4core5slice29_$LT$impl$u20$$u5b$T$u5d$$GT$22split_at_mut_unchecked17had4a8272d883fd47E"(ptr sret({ { ptr, i64 }, { ptr, i64 } }) %0, ptr align 8 %self.0, i64 %self.1, i64 %mid) #9, !dbg !1931
  ret void, !dbg !1932

bb1:                                              ; preds = %start
; call core::panicking::panic
  call void @_ZN4core9panicking5panic17h1deab6c62a1415a6E(ptr align 1 @alloc356, i64 35, ptr align 8 %1) #10, !dbg !1930
  unreachable, !dbg !1930
}

; core::slice::<impl [T]>::get_unchecked
; Function Attrs: inlinehint noredzone nounwind
define align 8 ptr @"_ZN4core5slice29_$LT$impl$u20$$u5b$T$u5d$$GT$13get_unchecked17hc1f599dcc5e61400E"(ptr align 8 %self.0, i64 %self.1, i64 %index) unnamed_addr #0 !dbg !1933 {
start:
  %index.dbg.spill = alloca i64, align 8
  %self.dbg.spill = alloca { ptr, i64 }, align 8
  %0 = getelementptr inbounds { ptr, i64 }, ptr %self.dbg.spill, i32 0, i32 0
  store ptr %self.0, ptr %0, align 8
  %1 = getelementptr inbounds { ptr, i64 }, ptr %self.dbg.spill, i32 0, i32 1
  store i64 %self.1, ptr %1, align 8
  call void @llvm.dbg.declare(metadata ptr %self.dbg.spill, metadata !1937, metadata !DIExpression()), !dbg !1941
  store i64 %index, ptr %index.dbg.spill, align 8
  call void @llvm.dbg.declare(metadata ptr %index.dbg.spill, metadata !1938, metadata !DIExpression()), !dbg !1942
; call <usize as core::slice::index::SliceIndex<[T]>>::get_unchecked
  %_3 = call ptr @"_ZN75_$LT$usize$u20$as$u20$core..slice..index..SliceIndex$LT$$u5b$T$u5d$$GT$$GT$13get_unchecked17hdac25bf6f933a657E"(i64 %index, ptr %self.0, i64 %self.1) #9, !dbg !1943
  ret ptr %_3, !dbg !1944
}

; core::slice::<impl [T]>::as_mut_ptr_range
; Function Attrs: inlinehint noredzone nounwind
define { ptr, ptr } @"_ZN4core5slice29_$LT$impl$u20$$u5b$T$u5d$$GT$16as_mut_ptr_range17ha26ce9e4d9d5ed25E"(ptr align 8 %self.0, i64 %self.1) unnamed_addr #0 !dbg !1945 {
start:
  %self.dbg.spill.i4 = alloca { ptr, i64 }, align 8
  %0 = alloca ptr, align 8
  %count.dbg.spill.i2 = alloca i64, align 8
  %self.dbg.spill.i3 = alloca ptr, align 8
  %count.dbg.spill.i = alloca i64, align 8
  %self.dbg.spill.i = alloca ptr, align 8
  %end.dbg.spill = alloca ptr, align 8
  %start.dbg.spill = alloca ptr, align 8
  %self.dbg.spill = alloca { ptr, i64 }, align 8
  %1 = alloca { ptr, ptr }, align 8
  %2 = getelementptr inbounds { ptr, i64 }, ptr %self.dbg.spill, i32 0, i32 0
  store ptr %self.0, ptr %2, align 8
  %3 = getelementptr inbounds { ptr, i64 }, ptr %self.dbg.spill, i32 0, i32 1
  store i64 %self.1, ptr %3, align 8
  call void @llvm.dbg.declare(metadata ptr %self.dbg.spill, metadata !1955, metadata !DIExpression()), !dbg !1960
  store ptr %self.0, ptr %self.dbg.spill.i4, align 8
  %4 = getelementptr inbounds { ptr, i64 }, ptr %self.dbg.spill.i4, i32 0, i32 1
  store i64 %self.1, ptr %4, align 8
  call void @llvm.dbg.declare(metadata ptr %self.dbg.spill.i4, metadata !1961, metadata !DIExpression()), !dbg !1966
  store ptr %self.0, ptr %start.dbg.spill, align 8, !dbg !1968
  call void @llvm.dbg.declare(metadata ptr %start.dbg.spill, metadata !1956, metadata !DIExpression()), !dbg !1969
  store ptr %self.0, ptr %self.dbg.spill.i, align 8
  call void @llvm.dbg.declare(metadata ptr %self.dbg.spill.i, metadata !291, metadata !DIExpression()), !dbg !1970
  store i64 %self.1, ptr %count.dbg.spill.i, align 8
  call void @llvm.dbg.declare(metadata ptr %count.dbg.spill.i, metadata !297, metadata !DIExpression()), !dbg !1972
  store ptr %self.0, ptr %self.dbg.spill.i3, align 8
  call void @llvm.dbg.declare(metadata ptr %self.dbg.spill.i3, metadata !301, metadata !DIExpression()), !dbg !1973
  store i64 %self.1, ptr %count.dbg.spill.i2, align 8
  call void @llvm.dbg.declare(metadata ptr %count.dbg.spill.i2, metadata !306, metadata !DIExpression()), !dbg !1975
  %5 = getelementptr inbounds %"bootinfo::memory_map::MemoryRegion", ptr %self.0, i64 %self.1, !dbg !1976
  store ptr %5, ptr %0, align 8, !dbg !1976
  %_3.i = load ptr, ptr %0, align 8, !dbg !1976, !noundef !24
  store ptr %_3.i, ptr %end.dbg.spill, align 8, !dbg !1977
  call void @llvm.dbg.declare(metadata ptr %end.dbg.spill, metadata !1958, metadata !DIExpression()), !dbg !1978
  store ptr %self.0, ptr %1, align 8, !dbg !1979
  %6 = getelementptr inbounds { ptr, ptr }, ptr %1, i32 0, i32 1, !dbg !1979
  store ptr %_3.i, ptr %6, align 8, !dbg !1979
  %7 = getelementptr inbounds { ptr, ptr }, ptr %1, i32 0, i32 0, !dbg !1980
  %8 = load ptr, ptr %7, align 8, !dbg !1980, !noundef !24
  %9 = getelementptr inbounds { ptr, ptr }, ptr %1, i32 0, i32 1, !dbg !1980
  %10 = load ptr, ptr %9, align 8, !dbg !1980, !noundef !24
  %11 = insertvalue { ptr, ptr } undef, ptr %8, 0, !dbg !1980
  %12 = insertvalue { ptr, ptr } %11, ptr %10, 1, !dbg !1980
  ret { ptr, ptr } %12, !dbg !1980
}

; core::slice::<impl [T]>::sort_unstable_by
; Function Attrs: inlinehint noredzone nounwind
define void @"_ZN4core5slice29_$LT$impl$u20$$u5b$T$u5d$$GT$16sort_unstable_by17hfe0499dc7ab71f58E"(ptr align 8 %self.0, i64 %self.1) unnamed_addr #0 !dbg !1981 {
start:
  %self.dbg.spill = alloca { ptr, i64 }, align 8
  %_5 = alloca ptr, align 8
  %compare = alloca %"[closure@/Users/yaw/.cargo/registry/src/github.com-1ecc6299db9ec823/bootloader-0.9.23/src/bootinfo/memory_map.rs:40:39: 40:47]", align 1
  %0 = getelementptr inbounds { ptr, i64 }, ptr %self.dbg.spill, i32 0, i32 0
  store ptr %self.0, ptr %0, align 8
  %1 = getelementptr inbounds { ptr, i64 }, ptr %self.dbg.spill, i32 0, i32 1
  store i64 %self.1, ptr %1, align 8
  call void @llvm.dbg.declare(metadata ptr %self.dbg.spill, metadata !1985, metadata !DIExpression()), !dbg !1989
  call void @llvm.dbg.declare(metadata ptr %compare, metadata !1986, metadata !DIExpression()), !dbg !1990
  store ptr %compare, ptr %_5, align 8, !dbg !1991
  %2 = load ptr, ptr %_5, align 8, !dbg !1992, !nonnull !24, !align !1993, !noundef !24
; call core::slice::sort::quicksort
  call void @_ZN4core5slice4sort9quicksort17hdc36c44ebc5f74e9E(ptr align 8 %self.0, i64 %self.1, ptr align 1 %2) #9, !dbg !1992
  ret void, !dbg !1994
}

; core::slice::<impl [T]>::sort_unstable_by::{{closure}}
; Function Attrs: inlinehint noredzone nounwind
define zeroext i1 @"_ZN4core5slice29_$LT$impl$u20$$u5b$T$u5d$$GT$16sort_unstable_by28_$u7b$$u7b$closure$u7d$$u7d$17h3e6034f2b6ac7389E"(ptr align 8 %_1, ptr align 8 %a, ptr align 8 %b) unnamed_addr #0 !dbg !1995 {
start:
  %b.dbg.spill = alloca ptr, align 8
  %a.dbg.spill = alloca ptr, align 8
  %_1.dbg.spill = alloca ptr, align 8
  %_7 = alloca { ptr, ptr }, align 8
  %_5 = alloca i8, align 1
  store ptr %_1, ptr %_1.dbg.spill, align 8
  call void @llvm.dbg.declare(metadata ptr %_1.dbg.spill, metadata !2001, metadata !DIExpression(DW_OP_deref, DW_OP_deref)), !dbg !2002
  store ptr %a, ptr %a.dbg.spill, align 8
  call void @llvm.dbg.declare(metadata ptr %a.dbg.spill, metadata !1999, metadata !DIExpression()), !dbg !2003
  store ptr %b, ptr %b.dbg.spill, align 8
  call void @llvm.dbg.declare(metadata ptr %b.dbg.spill, metadata !2000, metadata !DIExpression()), !dbg !2004
  %_12 = load ptr, ptr %_1, align 8, !dbg !2005, !nonnull !24, !align !1993, !noundef !24
  store ptr %a, ptr %_7, align 8, !dbg !2005
  %0 = getelementptr inbounds { ptr, ptr }, ptr %_7, i32 0, i32 1, !dbg !2005
  store ptr %b, ptr %0, align 8, !dbg !2005
  %1 = getelementptr inbounds { ptr, ptr }, ptr %_7, i32 0, i32 0, !dbg !2005
  %2 = load ptr, ptr %1, align 8, !dbg !2005, !nonnull !24, !align !485, !noundef !24
  %3 = getelementptr inbounds { ptr, ptr }, ptr %_7, i32 0, i32 1, !dbg !2005
  %4 = load ptr, ptr %3, align 8, !dbg !2005, !nonnull !24, !align !485, !noundef !24
; call bootloader::bootinfo::memory_map::MemoryMap::sort::{{closure}}
  %5 = call i8 @"_ZN10bootloader8bootinfo10memory_map9MemoryMap4sort28_$u7b$$u7b$closure$u7d$$u7d$17h46e98f6839206c5aE"(ptr align 1 %_12, ptr align 8 %2, ptr align 8 %4) #9, !dbg !2005, !range !706
  store i8 %5, ptr %_5, align 1, !dbg !2005
; call <core::cmp::Ordering as core::cmp::PartialEq>::eq
  %6 = call zeroext i1 @"_ZN60_$LT$core..cmp..Ordering$u20$as$u20$core..cmp..PartialEq$GT$2eq17hcf8aedafcbc7434aE"(ptr align 1 %_5, ptr align 1 @alloc68) #9, !dbg !2005
  ret i1 %6, !dbg !2006
}

; core::slice::<impl [T]>::split_at_mut_unchecked
; Function Attrs: inlinehint noredzone nounwind
define void @"_ZN4core5slice29_$LT$impl$u20$$u5b$T$u5d$$GT$22split_at_mut_unchecked17had4a8272d883fd47E"(ptr sret({ { ptr, i64 }, { ptr, i64 } }) %0, ptr align 8 %self.0, i64 %self.1, i64 %mid) unnamed_addr #0 !dbg !2007 {
start:
  %len.dbg.spill.i = alloca i64, align 8
  %mid.dbg.spill.i = alloca i64, align 8
  %self.dbg.spill.i3 = alloca { ptr, i64 }, align 8
  %1 = alloca ptr, align 8
  %count.dbg.spill.i1 = alloca i64, align 8
  %self.dbg.spill.i2 = alloca ptr, align 8
  %count.dbg.spill.i = alloca i64, align 8
  %self.dbg.spill.i = alloca ptr, align 8
  %ptr.dbg.spill = alloca ptr, align 8
  %len.dbg.spill = alloca i64, align 8
  %mid.dbg.spill = alloca i64, align 8
  %self.dbg.spill = alloca { ptr, i64 }, align 8
  %_8 = alloca { i64, i64 }, align 8
  %2 = getelementptr inbounds { ptr, i64 }, ptr %self.dbg.spill, i32 0, i32 0
  store ptr %self.0, ptr %2, align 8
  %3 = getelementptr inbounds { ptr, i64 }, ptr %self.dbg.spill, i32 0, i32 1
  store i64 %self.1, ptr %3, align 8
  call void @llvm.dbg.declare(metadata ptr %self.dbg.spill, metadata !2011, metadata !DIExpression()), !dbg !2017
  store i64 %mid, ptr %mid.dbg.spill, align 8
  call void @llvm.dbg.declare(metadata ptr %mid.dbg.spill, metadata !2012, metadata !DIExpression()), !dbg !2018
  store i64 %self.1, ptr %len.dbg.spill, align 8, !dbg !2019
  call void @llvm.dbg.declare(metadata ptr %len.dbg.spill, metadata !2013, metadata !DIExpression()), !dbg !2020
  store ptr %self.0, ptr %self.dbg.spill.i3, align 8
  %4 = getelementptr inbounds { ptr, i64 }, ptr %self.dbg.spill.i3, i32 0, i32 1
  store i64 %self.1, ptr %4, align 8
  call void @llvm.dbg.declare(metadata ptr %self.dbg.spill.i3, metadata !1961, metadata !DIExpression()), !dbg !2021
  store ptr %self.0, ptr %ptr.dbg.spill, align 8, !dbg !2023
  call void @llvm.dbg.declare(metadata ptr %ptr.dbg.spill, metadata !2015, metadata !DIExpression()), !dbg !2024
  store i64 %mid, ptr %_8, align 8, !dbg !2025
  %5 = getelementptr inbounds { i64, i64 }, ptr %_8, i32 0, i32 1, !dbg !2025
  store i64 %self.1, ptr %5, align 8, !dbg !2025
  %6 = load i64, ptr %_8, align 8, !dbg !2025, !noundef !24
  %7 = getelementptr inbounds { i64, i64 }, ptr %_8, i32 0, i32 1, !dbg !2025
  %8 = load i64, ptr %7, align 8, !dbg !2025, !noundef !24
  store i64 %6, ptr %mid.dbg.spill.i, align 8
  call void @llvm.dbg.declare(metadata ptr %mid.dbg.spill.i, metadata !2026, metadata !DIExpression()), !dbg !2033
  store i64 %8, ptr %len.dbg.spill.i, align 8
  call void @llvm.dbg.declare(metadata ptr %len.dbg.spill.i, metadata !2032, metadata !DIExpression()), !dbg !2033
  %_4.i = icmp ule i64 %6, %8, !dbg !2035
  %_3.i4 = xor i1 %_4.i, true, !dbg !2037
  br i1 %_3.i4, label %bb1.i, label %"_ZN4core5slice29_$LT$impl$u20$$u5b$T$u5d$$GT$22split_at_mut_unchecked7runtime17hd210ff5398e8540cE.exit", !dbg !2037

bb1.i:                                            ; preds = %start
; call core::panicking::panic_nounwind
  call void @_ZN4core9panicking14panic_nounwind17hb8a2b9db753d85a7E(ptr align 1 @alloc359, i64 104) #10, !dbg !2038
  unreachable, !dbg !2038

"_ZN4core5slice29_$LT$impl$u20$$u5b$T$u5d$$GT$22split_at_mut_unchecked7runtime17hd210ff5398e8540cE.exit": ; preds = %start
; call core::slice::raw::from_raw_parts_mut
  %9 = call { ptr, i64 } @_ZN4core5slice3raw18from_raw_parts_mut17h6cd13e9dac53e424E(ptr %self.0, i64 %mid) #9, !dbg !2039
  %_12.0 = extractvalue { ptr, i64 } %9, 0, !dbg !2039
  %_12.1 = extractvalue { ptr, i64 } %9, 1, !dbg !2039
  store ptr %self.0, ptr %self.dbg.spill.i, align 8
  call void @llvm.dbg.declare(metadata ptr %self.dbg.spill.i, metadata !291, metadata !DIExpression()), !dbg !2040
  store i64 %mid, ptr %count.dbg.spill.i, align 8
  call void @llvm.dbg.declare(metadata ptr %count.dbg.spill.i, metadata !297, metadata !DIExpression()), !dbg !2042
  store ptr %self.0, ptr %self.dbg.spill.i2, align 8
  call void @llvm.dbg.declare(metadata ptr %self.dbg.spill.i2, metadata !301, metadata !DIExpression()), !dbg !2043
  store i64 %mid, ptr %count.dbg.spill.i1, align 8
  call void @llvm.dbg.declare(metadata ptr %count.dbg.spill.i1, metadata !306, metadata !DIExpression()), !dbg !2045
  %10 = getelementptr inbounds %"bootinfo::memory_map::MemoryRegion", ptr %self.0, i64 %mid, !dbg !2046
  store ptr %10, ptr %1, align 8, !dbg !2046
  %_3.i = load ptr, ptr %1, align 8, !dbg !2046, !noundef !24
  %_23.0 = sub i64 %self.1, %mid, !dbg !2047
  %_23.1 = icmp ult i64 %self.1, %mid, !dbg !2047
  %11 = call i1 @llvm.expect.i1(i1 %_23.1, i1 false), !dbg !2047
  br i1 %11, label %panic, label %bb5, !dbg !2047

bb5:                                              ; preds = %"_ZN4core5slice29_$LT$impl$u20$$u5b$T$u5d$$GT$22split_at_mut_unchecked7runtime17hd210ff5398e8540cE.exit"
; call core::slice::raw::from_raw_parts_mut
  %12 = call { ptr, i64 } @_ZN4core5slice3raw18from_raw_parts_mut17h6cd13e9dac53e424E(ptr %_3.i, i64 %_23.0) #9, !dbg !2048
  %_16.0 = extractvalue { ptr, i64 } %12, 0, !dbg !2048
  %_16.1 = extractvalue { ptr, i64 } %12, 1, !dbg !2048
  %13 = getelementptr inbounds { ptr, i64 }, ptr %0, i32 0, i32 0, !dbg !2049
  store ptr %_12.0, ptr %13, align 8, !dbg !2049
  %14 = getelementptr inbounds { ptr, i64 }, ptr %0, i32 0, i32 1, !dbg !2049
  store i64 %_12.1, ptr %14, align 8, !dbg !2049
  %15 = getelementptr inbounds { { ptr, i64 }, { ptr, i64 } }, ptr %0, i32 0, i32 1, !dbg !2049
  %16 = getelementptr inbounds { ptr, i64 }, ptr %15, i32 0, i32 0, !dbg !2049
  store ptr %_16.0, ptr %16, align 8, !dbg !2049
  %17 = getelementptr inbounds { ptr, i64 }, ptr %15, i32 0, i32 1, !dbg !2049
  store i64 %_16.1, ptr %17, align 8, !dbg !2049
  ret void, !dbg !2050

panic:                                            ; preds = %"_ZN4core5slice29_$LT$impl$u20$$u5b$T$u5d$$GT$22split_at_mut_unchecked7runtime17hd210ff5398e8540cE.exit"
; call core::panicking::panic
  call void @_ZN4core9panicking5panic17h1deab6c62a1415a6E(ptr align 1 @str.0, i64 33, ptr align 8 @alloc358) #10, !dbg !2047
  unreachable, !dbg !2047
}

; core::slice::<impl [T]>::iter
; Function Attrs: inlinehint noredzone nounwind
define { ptr, ptr } @"_ZN4core5slice29_$LT$impl$u20$$u5b$T$u5d$$GT$4iter17hd0f69d9ba1b97d1dE"(ptr align 8 %self.0, i64 %self.1) unnamed_addr #0 !dbg !2051 {
start:
  %self.dbg.spill = alloca { ptr, i64 }, align 8
  %0 = getelementptr inbounds { ptr, i64 }, ptr %self.dbg.spill, i32 0, i32 0
  store ptr %self.0, ptr %0, align 8
  %1 = getelementptr inbounds { ptr, i64 }, ptr %self.dbg.spill, i32 0, i32 1
  store i64 %self.1, ptr %1, align 8
  call void @llvm.dbg.declare(metadata ptr %self.dbg.spill, metadata !2055, metadata !DIExpression()), !dbg !2056
; call core::slice::iter::Iter<T>::new
  %2 = call { ptr, ptr } @"_ZN4core5slice4iter13Iter$LT$T$GT$3new17hdbccf37fe503d13dE"(ptr align 8 %self.0, i64 %self.1) #9, !dbg !2057
  %3 = extractvalue { ptr, ptr } %2, 0, !dbg !2057
  %4 = extractvalue { ptr, ptr } %2, 1, !dbg !2057
  %5 = insertvalue { ptr, ptr } undef, ptr %3, 0, !dbg !2058
  %6 = insertvalue { ptr, ptr } %5, ptr %4, 1, !dbg !2058
  ret { ptr, ptr } %6, !dbg !2058
}

; core::slice::<impl [T]>::swap
; Function Attrs: inlinehint noredzone nounwind
define void @"_ZN4core5slice29_$LT$impl$u20$$u5b$T$u5d$$GT$4swap17h08935bc4ebcded6eE"(ptr align 8 %self.0, i64 %self.1, i64 %a, i64 %b, ptr align 8 %0) unnamed_addr #0 !dbg !2059 {
start:
  %pb.dbg.spill = alloca ptr, align 8
  %pa.dbg.spill = alloca ptr, align 8
  %b.dbg.spill = alloca i64, align 8
  %a.dbg.spill = alloca i64, align 8
  %self.dbg.spill = alloca { ptr, i64 }, align 8
  %1 = getelementptr inbounds { ptr, i64 }, ptr %self.dbg.spill, i32 0, i32 0
  store ptr %self.0, ptr %1, align 8
  %2 = getelementptr inbounds { ptr, i64 }, ptr %self.dbg.spill, i32 0, i32 1
  store i64 %self.1, ptr %2, align 8
  call void @llvm.dbg.declare(metadata ptr %self.dbg.spill, metadata !2063, metadata !DIExpression()), !dbg !2070
  store i64 %a, ptr %a.dbg.spill, align 8
  call void @llvm.dbg.declare(metadata ptr %a.dbg.spill, metadata !2064, metadata !DIExpression()), !dbg !2071
  store i64 %b, ptr %b.dbg.spill, align 8
  call void @llvm.dbg.declare(metadata ptr %b.dbg.spill, metadata !2065, metadata !DIExpression()), !dbg !2072
  %_7 = icmp ult i64 %a, %self.1, !dbg !2073
  %3 = call i1 @llvm.expect.i1(i1 %_7, i1 true), !dbg !2073
  br i1 %3, label %bb1, label %panic, !dbg !2073

bb1:                                              ; preds = %start
  %pa = getelementptr inbounds [0 x %"bootinfo::memory_map::MemoryRegion"], ptr %self.0, i64 0, i64 %a, !dbg !2074
  store ptr %pa, ptr %pa.dbg.spill, align 8, !dbg !2074
  call void @llvm.dbg.declare(metadata ptr %pa.dbg.spill, metadata !2066, metadata !DIExpression()), !dbg !2075
  %_11 = icmp ult i64 %b, %self.1, !dbg !2076
  %4 = call i1 @llvm.expect.i1(i1 %_11, i1 true), !dbg !2076
  br i1 %4, label %bb2, label %panic1, !dbg !2076

panic:                                            ; preds = %start
; call core::panicking::panic_bounds_check
  call void @_ZN4core9panicking18panic_bounds_check17hd8e6bec6122123e6E(i64 %a, i64 %self.1, ptr align 8 %0) #10, !dbg !2073
  unreachable, !dbg !2073

bb2:                                              ; preds = %bb1
  %pb = getelementptr inbounds [0 x %"bootinfo::memory_map::MemoryRegion"], ptr %self.0, i64 0, i64 %b, !dbg !2077
  store ptr %pb, ptr %pb.dbg.spill, align 8, !dbg !2077
  call void @llvm.dbg.declare(metadata ptr %pb.dbg.spill, metadata !2068, metadata !DIExpression()), !dbg !2078
; call core::ptr::swap
  call void @_ZN4core3ptr4swap17h2b261b7da5ae0ab4E(ptr %pa, ptr %pb) #9, !dbg !2079
  ret void, !dbg !2080

panic1:                                           ; preds = %bb1
; call core::panicking::panic_bounds_check
  call void @_ZN4core9panicking18panic_bounds_check17hd8e6bec6122123e6E(i64 %b, i64 %self.1, ptr align 8 %0) #10, !dbg !2076
  unreachable, !dbg !2076
}

; core::slice::<impl [T]>::reverse
; Function Attrs: inlinehint noredzone nounwind
define void @"_ZN4core5slice29_$LT$impl$u20$$u5b$T$u5d$$GT$7reverse17hc16f3c54714fff80E"(ptr align 8 %self.0, i64 %self.1) unnamed_addr #0 !dbg !2081 {
start:
  %0 = alloca ptr, align 8
  %count.dbg.spill.i1 = alloca i64, align 8
  %self.dbg.spill.i2 = alloca ptr, align 8
  %rhs.dbg.spill.i.i = alloca i64, align 8
  %self.dbg.spill.i1.i = alloca i64, align 8
  %self.dbg.spill.i.i = alloca i64, align 8
  %count.dbg.spill.i = alloca i64, align 8
  %self.dbg.spill.i = alloca ptr, align 8
  %back_half.dbg.spill = alloca { ptr, i64 }, align 8
  %front_half.dbg.spill = alloca { ptr, i64 }, align 8
  %end.dbg.spill = alloca ptr, align 8
  %start.dbg.spill = alloca ptr, align 8
  %half_len.dbg.spill = alloca i64, align 8
  %self.dbg.spill = alloca { ptr, i64 }, align 8
  %_11 = alloca { { ptr, i64 }, { ptr, i64 } }, align 8
  %1 = getelementptr inbounds { ptr, i64 }, ptr %self.dbg.spill, i32 0, i32 0
  store ptr %self.0, ptr %1, align 8
  %2 = getelementptr inbounds { ptr, i64 }, ptr %self.dbg.spill, i32 0, i32 1
  store i64 %self.1, ptr %2, align 8
  call void @llvm.dbg.declare(metadata ptr %self.dbg.spill, metadata !2085, metadata !DIExpression()), !dbg !2094
  %half_len = udiv i64 %self.1, 2, !dbg !2095
  store i64 %half_len, ptr %half_len.dbg.spill, align 8, !dbg !2095
  call void @llvm.dbg.declare(metadata ptr %half_len.dbg.spill, metadata !2086, metadata !DIExpression()), !dbg !2096
; call core::slice::<impl [T]>::as_mut_ptr_range
  %3 = call { ptr, ptr } @"_ZN4core5slice29_$LT$impl$u20$$u5b$T$u5d$$GT$16as_mut_ptr_range17ha26ce9e4d9d5ed25E"(ptr align 8 %self.0, i64 %self.1) #9, !dbg !2097
  %_7.0 = extractvalue { ptr, ptr } %3, 0, !dbg !2097
  %_7.1 = extractvalue { ptr, ptr } %3, 1, !dbg !2097
  store ptr %_7.0, ptr %start.dbg.spill, align 8, !dbg !2098
  call void @llvm.dbg.declare(metadata ptr %start.dbg.spill, metadata !2088, metadata !DIExpression()), !dbg !2099
  store ptr %_7.1, ptr %end.dbg.spill, align 8, !dbg !2100
  call void @llvm.dbg.declare(metadata ptr %end.dbg.spill, metadata !2090, metadata !DIExpression()), !dbg !2101
; call core::slice::raw::from_raw_parts_mut
  %4 = call { ptr, i64 } @_ZN4core5slice3raw18from_raw_parts_mut17h6cd13e9dac53e424E(ptr %_7.0, i64 %half_len) #9, !dbg !2102
  %_12.0 = extractvalue { ptr, i64 } %4, 0, !dbg !2102
  %_12.1 = extractvalue { ptr, i64 } %4, 1, !dbg !2102
  store ptr %_7.1, ptr %self.dbg.spill.i, align 8
  call void @llvm.dbg.declare(metadata ptr %self.dbg.spill.i, metadata !2103, metadata !DIExpression()), !dbg !2107
  store i64 %half_len, ptr %count.dbg.spill.i, align 8
  call void @llvm.dbg.declare(metadata ptr %count.dbg.spill.i, metadata !2106, metadata !DIExpression()), !dbg !2109
  store i64 %half_len, ptr %self.dbg.spill.i.i, align 8
  call void @llvm.dbg.declare(metadata ptr %self.dbg.spill.i.i, metadata !2110, metadata !DIExpression()), !dbg !2117
  store i64 0, ptr %self.dbg.spill.i1.i, align 8
  call void @llvm.dbg.declare(metadata ptr %self.dbg.spill.i1.i, metadata !2119, metadata !DIExpression()), !dbg !2125
  store i64 %half_len, ptr %rhs.dbg.spill.i.i, align 8
  call void @llvm.dbg.declare(metadata ptr %rhs.dbg.spill.i.i, metadata !2124, metadata !DIExpression()), !dbg !2127
  %5 = sub i64 0, %half_len, !dbg !2128
  store ptr %_7.1, ptr %self.dbg.spill.i2, align 8
  call void @llvm.dbg.declare(metadata ptr %self.dbg.spill.i2, metadata !301, metadata !DIExpression()), !dbg !2129
  store i64 %5, ptr %count.dbg.spill.i1, align 8
  call void @llvm.dbg.declare(metadata ptr %count.dbg.spill.i1, metadata !306, metadata !DIExpression()), !dbg !2131
  %6 = getelementptr inbounds %"bootinfo::memory_map::MemoryRegion", ptr %_7.1, i64 %5, !dbg !2132
  store ptr %6, ptr %0, align 8, !dbg !2132
  %_3.i = load ptr, ptr %0, align 8, !dbg !2132, !noundef !24
; call core::slice::raw::from_raw_parts_mut
  %7 = call { ptr, i64 } @_ZN4core5slice3raw18from_raw_parts_mut17h6cd13e9dac53e424E(ptr %_3.i, i64 %half_len) #9, !dbg !2133
  %_15.0 = extractvalue { ptr, i64 } %7, 0, !dbg !2133
  %_15.1 = extractvalue { ptr, i64 } %7, 1, !dbg !2133
  %8 = getelementptr inbounds { ptr, i64 }, ptr %_11, i32 0, i32 0, !dbg !2134
  store ptr %_12.0, ptr %8, align 8, !dbg !2134
  %9 = getelementptr inbounds { ptr, i64 }, ptr %_11, i32 0, i32 1, !dbg !2134
  store i64 %_12.1, ptr %9, align 8, !dbg !2134
  %10 = getelementptr inbounds { { ptr, i64 }, { ptr, i64 } }, ptr %_11, i32 0, i32 1, !dbg !2134
  %11 = getelementptr inbounds { ptr, i64 }, ptr %10, i32 0, i32 0, !dbg !2134
  store ptr %_15.0, ptr %11, align 8, !dbg !2134
  %12 = getelementptr inbounds { ptr, i64 }, ptr %10, i32 0, i32 1, !dbg !2134
  store i64 %_15.1, ptr %12, align 8, !dbg !2134
  %13 = getelementptr inbounds { ptr, i64 }, ptr %_11, i32 0, i32 0, !dbg !2135
  %front_half.0 = load ptr, ptr %13, align 8, !dbg !2135, !nonnull !24, !align !485, !noundef !24
  %14 = getelementptr inbounds { ptr, i64 }, ptr %_11, i32 0, i32 1, !dbg !2135
  %front_half.1 = load i64, ptr %14, align 8, !dbg !2135, !noundef !24
  %15 = getelementptr inbounds { ptr, i64 }, ptr %front_half.dbg.spill, i32 0, i32 0, !dbg !2135
  store ptr %front_half.0, ptr %15, align 8, !dbg !2135
  %16 = getelementptr inbounds { ptr, i64 }, ptr %front_half.dbg.spill, i32 0, i32 1, !dbg !2135
  store i64 %front_half.1, ptr %16, align 8, !dbg !2135
  call void @llvm.dbg.declare(metadata ptr %front_half.dbg.spill, metadata !2091, metadata !DIExpression()), !dbg !2136
  %17 = getelementptr inbounds { { ptr, i64 }, { ptr, i64 } }, ptr %_11, i32 0, i32 1, !dbg !2137
  %18 = getelementptr inbounds { ptr, i64 }, ptr %17, i32 0, i32 0, !dbg !2137
  %back_half.0 = load ptr, ptr %18, align 8, !dbg !2137, !nonnull !24, !align !485, !noundef !24
  %19 = getelementptr inbounds { ptr, i64 }, ptr %17, i32 0, i32 1, !dbg !2137
  %back_half.1 = load i64, ptr %19, align 8, !dbg !2137, !noundef !24
  %20 = getelementptr inbounds { ptr, i64 }, ptr %back_half.dbg.spill, i32 0, i32 0, !dbg !2137
  store ptr %back_half.0, ptr %20, align 8, !dbg !2137
  %21 = getelementptr inbounds { ptr, i64 }, ptr %back_half.dbg.spill, i32 0, i32 1, !dbg !2137
  store i64 %back_half.1, ptr %21, align 8, !dbg !2137
  call void @llvm.dbg.declare(metadata ptr %back_half.dbg.spill, metadata !2093, metadata !DIExpression()), !dbg !2138
; call core::slice::<impl [T]>::reverse::revswap
  call void @"_ZN4core5slice29_$LT$impl$u20$$u5b$T$u5d$$GT$7reverse7revswap17h09a04b0557bca9a4E"(ptr align 8 %front_half.0, i64 %front_half.1, ptr align 8 %back_half.0, i64 %back_half.1, i64 %half_len) #9, !dbg !2139
  ret void, !dbg !2140
}

; core::slice::<impl [T]>::reverse::revswap
; Function Attrs: inlinehint noredzone nounwind
define void @"_ZN4core5slice29_$LT$impl$u20$$u5b$T$u5d$$GT$7reverse7revswap17h09a04b0557bca9a4E"(ptr align 8 %a.0, i64 %a.1, ptr align 8 %b.0, i64 %b.1, i64 %n) unnamed_addr #0 !dbg !2141 {
start:
  %b.dbg.spill6 = alloca { ptr, i64 }, align 8
  %a.dbg.spill3 = alloca { ptr, i64 }, align 8
  %n.dbg.spill = alloca i64, align 8
  %b.dbg.spill = alloca { ptr, i64 }, align 8
  %a.dbg.spill = alloca { ptr, i64 }, align 8
  %i = alloca i64, align 8
  %_27 = alloca i64, align 8
  %_22 = alloca i64, align 8
  %_18 = alloca { { ptr, i64 }, { ptr, i64 } }, align 8
  %0 = getelementptr inbounds { ptr, i64 }, ptr %a.dbg.spill, i32 0, i32 0
  store ptr %a.0, ptr %0, align 8
  %1 = getelementptr inbounds { ptr, i64 }, ptr %a.dbg.spill, i32 0, i32 1
  store i64 %a.1, ptr %1, align 8
  call void @llvm.dbg.declare(metadata ptr %a.dbg.spill, metadata !2146, metadata !DIExpression()), !dbg !2154
  %2 = getelementptr inbounds { ptr, i64 }, ptr %b.dbg.spill, i32 0, i32 0
  store ptr %b.0, ptr %2, align 8
  %3 = getelementptr inbounds { ptr, i64 }, ptr %b.dbg.spill, i32 0, i32 1
  store i64 %b.1, ptr %3, align 8
  call void @llvm.dbg.declare(metadata ptr %b.dbg.spill, metadata !2147, metadata !DIExpression()), !dbg !2155
  store i64 %n, ptr %n.dbg.spill, align 8
  call void @llvm.dbg.declare(metadata ptr %n.dbg.spill, metadata !2148, metadata !DIExpression()), !dbg !2156
  call void @llvm.dbg.declare(metadata ptr %i, metadata !2152, metadata !DIExpression()), !dbg !2157
  %_5 = icmp eq i64 %a.1, %n, !dbg !2158
  %_4 = xor i1 %_5, true, !dbg !2159
  br i1 %_4, label %bb1, label %bb2, !dbg !2159

bb2:                                              ; preds = %start
  %_11 = icmp eq i64 %b.1, %n, !dbg !2160
  %_10 = xor i1 %_11, true, !dbg !2161
  br i1 %_10, label %bb3, label %bb4, !dbg !2161

bb1:                                              ; preds = %start
; call core::panicking::panic
  call void @_ZN4core9panicking5panic17h1deab6c62a1415a6E(ptr align 1 @alloc360, i64 30, ptr align 8 @alloc362) #10, !dbg !2159
  unreachable, !dbg !2159

bb4:                                              ; preds = %bb2
  store i64 %n, ptr %_22, align 8, !dbg !2162
  %4 = load i64, ptr %_22, align 8, !dbg !2163, !noundef !24
; call core::slice::index::<impl core::ops::index::IndexMut<I> for [T]>::index_mut
  %5 = call { ptr, i64 } @"_ZN4core5slice5index77_$LT$impl$u20$core..ops..index..IndexMut$LT$I$GT$$u20$for$u20$$u5b$T$u5d$$GT$9index_mut17h56784a6a73012d95E"(ptr align 8 %a.0, i64 %a.1, i64 %4, ptr align 8 @alloc367) #9, !dbg !2163
  %_20.0 = extractvalue { ptr, i64 } %5, 0, !dbg !2163
  %_20.1 = extractvalue { ptr, i64 } %5, 1, !dbg !2163
  store i64 %n, ptr %_27, align 8, !dbg !2164
  %6 = load i64, ptr %_27, align 8, !dbg !2165, !noundef !24
; call core::slice::index::<impl core::ops::index::IndexMut<I> for [T]>::index_mut
  %7 = call { ptr, i64 } @"_ZN4core5slice5index77_$LT$impl$u20$core..ops..index..IndexMut$LT$I$GT$$u20$for$u20$$u5b$T$u5d$$GT$9index_mut17h56784a6a73012d95E"(ptr align 8 %b.0, i64 %b.1, i64 %6, ptr align 8 @alloc369) #9, !dbg !2165
  %_25.0 = extractvalue { ptr, i64 } %7, 0, !dbg !2165
  %_25.1 = extractvalue { ptr, i64 } %7, 1, !dbg !2165
  %8 = getelementptr inbounds { ptr, i64 }, ptr %_18, i32 0, i32 0, !dbg !2166
  store ptr %_20.0, ptr %8, align 8, !dbg !2166
  %9 = getelementptr inbounds { ptr, i64 }, ptr %_18, i32 0, i32 1, !dbg !2166
  store i64 %_20.1, ptr %9, align 8, !dbg !2166
  %10 = getelementptr inbounds { { ptr, i64 }, { ptr, i64 } }, ptr %_18, i32 0, i32 1, !dbg !2166
  %11 = getelementptr inbounds { ptr, i64 }, ptr %10, i32 0, i32 0, !dbg !2166
  store ptr %_25.0, ptr %11, align 8, !dbg !2166
  %12 = getelementptr inbounds { ptr, i64 }, ptr %10, i32 0, i32 1, !dbg !2166
  store i64 %_25.1, ptr %12, align 8, !dbg !2166
  %13 = getelementptr inbounds { ptr, i64 }, ptr %_18, i32 0, i32 0, !dbg !2167
  %a.01 = load ptr, ptr %13, align 8, !dbg !2167, !nonnull !24, !align !485, !noundef !24
  %14 = getelementptr inbounds { ptr, i64 }, ptr %_18, i32 0, i32 1, !dbg !2167
  %a.12 = load i64, ptr %14, align 8, !dbg !2167, !noundef !24
  %15 = getelementptr inbounds { ptr, i64 }, ptr %a.dbg.spill3, i32 0, i32 0, !dbg !2167
  store ptr %a.01, ptr %15, align 8, !dbg !2167
  %16 = getelementptr inbounds { ptr, i64 }, ptr %a.dbg.spill3, i32 0, i32 1, !dbg !2167
  store i64 %a.12, ptr %16, align 8, !dbg !2167
  call void @llvm.dbg.declare(metadata ptr %a.dbg.spill3, metadata !2149, metadata !DIExpression()), !dbg !2168
  %17 = getelementptr inbounds { { ptr, i64 }, { ptr, i64 } }, ptr %_18, i32 0, i32 1, !dbg !2169
  %18 = getelementptr inbounds { ptr, i64 }, ptr %17, i32 0, i32 0, !dbg !2169
  %b.04 = load ptr, ptr %18, align 8, !dbg !2169, !nonnull !24, !align !485, !noundef !24
  %19 = getelementptr inbounds { ptr, i64 }, ptr %17, i32 0, i32 1, !dbg !2169
  %b.15 = load i64, ptr %19, align 8, !dbg !2169, !noundef !24
  %20 = getelementptr inbounds { ptr, i64 }, ptr %b.dbg.spill6, i32 0, i32 0, !dbg !2169
  store ptr %b.04, ptr %20, align 8, !dbg !2169
  %21 = getelementptr inbounds { ptr, i64 }, ptr %b.dbg.spill6, i32 0, i32 1, !dbg !2169
  store i64 %b.15, ptr %21, align 8, !dbg !2169
  call void @llvm.dbg.declare(metadata ptr %b.dbg.spill6, metadata !2151, metadata !DIExpression()), !dbg !2170
  store i64 0, ptr %i, align 8, !dbg !2171
  br label %bb7, !dbg !2172

bb3:                                              ; preds = %bb2
; call core::panicking::panic
  call void @_ZN4core9panicking5panic17h1deab6c62a1415a6E(ptr align 1 @alloc363, i64 30, ptr align 8 @alloc365) #10, !dbg !2161
  unreachable, !dbg !2161

bb7:                                              ; preds = %bb14, %bb4
  %_31 = load i64, ptr %i, align 8, !dbg !2173, !noundef !24
  %_30 = icmp ult i64 %_31, %n, !dbg !2173
  br i1 %_30, label %bb8, label %bb15, !dbg !2173

bb15:                                             ; preds = %bb7
  ret void, !dbg !2174

bb8:                                              ; preds = %bb7
  %_36 = load i64, ptr %i, align 8, !dbg !2175, !noundef !24
  %_38 = icmp ult i64 %_36, %a.12, !dbg !2176
  %22 = call i1 @llvm.expect.i1(i1 %_38, i1 true), !dbg !2176
  br i1 %22, label %bb9, label %panic, !dbg !2176

bb9:                                              ; preds = %bb8
  %_35 = getelementptr inbounds [0 x %"bootinfo::memory_map::MemoryRegion"], ptr %a.01, i64 0, i64 %_36, !dbg !2177
  %_44.0 = sub i64 %n, 1, !dbg !2178
  %_44.1 = icmp ult i64 %n, 1, !dbg !2178
  %23 = call i1 @llvm.expect.i1(i1 %_44.1, i1 false), !dbg !2178
  br i1 %23, label %panic7, label %bb10, !dbg !2178

panic:                                            ; preds = %bb8
; call core::panicking::panic_bounds_check
  call void @_ZN4core9panicking18panic_bounds_check17hd8e6bec6122123e6E(i64 %_36, i64 %a.12, ptr align 8 @alloc371) #10, !dbg !2176
  unreachable, !dbg !2176

bb10:                                             ; preds = %bb9
  %_45 = load i64, ptr %i, align 8, !dbg !2179, !noundef !24
  %_46.0 = sub i64 %_44.0, %_45, !dbg !2178
  %_46.1 = icmp ult i64 %_44.0, %_45, !dbg !2178
  %24 = call i1 @llvm.expect.i1(i1 %_46.1, i1 false), !dbg !2178
  br i1 %24, label %panic8, label %bb11, !dbg !2178

panic7:                                           ; preds = %bb9
; call core::panicking::panic
  call void @_ZN4core9panicking5panic17h1deab6c62a1415a6E(ptr align 1 @str.0, i64 33, ptr align 8 @alloc373) #10, !dbg !2178
  unreachable, !dbg !2178

bb11:                                             ; preds = %bb10
  %_48 = icmp ult i64 %_46.0, %b.15, !dbg !2180
  %25 = call i1 @llvm.expect.i1(i1 %_48, i1 true), !dbg !2180
  br i1 %25, label %bb12, label %panic9, !dbg !2180

panic8:                                           ; preds = %bb10
; call core::panicking::panic
  call void @_ZN4core9panicking5panic17h1deab6c62a1415a6E(ptr align 1 @str.0, i64 33, ptr align 8 @alloc373) #10, !dbg !2178
  unreachable, !dbg !2178

bb12:                                             ; preds = %bb11
  %_40 = getelementptr inbounds [0 x %"bootinfo::memory_map::MemoryRegion"], ptr %b.04, i64 0, i64 %_46.0, !dbg !2181
; call core::mem::swap
  call void @_ZN4core3mem4swap17hb2be4dcaffb5f0ffE(ptr align 8 %_35, ptr align 8 %_40) #9, !dbg !2182
  %26 = load i64, ptr %i, align 8, !dbg !2183, !noundef !24
  %27 = call { i64, i1 } @llvm.uadd.with.overflow.i64(i64 %26, i64 1), !dbg !2183
  %_49.0 = extractvalue { i64, i1 } %27, 0, !dbg !2183
  %_49.1 = extractvalue { i64, i1 } %27, 1, !dbg !2183
  %28 = call i1 @llvm.expect.i1(i1 %_49.1, i1 false), !dbg !2183
  br i1 %28, label %panic10, label %bb14, !dbg !2183

panic9:                                           ; preds = %bb11
; call core::panicking::panic_bounds_check
  call void @_ZN4core9panicking18panic_bounds_check17hd8e6bec6122123e6E(i64 %_46.0, i64 %b.15, ptr align 8 @alloc375) #10, !dbg !2180
  unreachable, !dbg !2180

bb14:                                             ; preds = %bb12
  store i64 %_49.0, ptr %i, align 8, !dbg !2183
  br label %bb7, !dbg !2172

panic10:                                          ; preds = %bb12
; call core::panicking::panic
  call void @_ZN4core9panicking5panic17h1deab6c62a1415a6E(ptr align 1 @str.2, i64 28, ptr align 8 @alloc377) #10, !dbg !2183
  unreachable, !dbg !2183
}

; core::slice::raw::from_raw_parts_mut
; Function Attrs: inlinehint noredzone nounwind
define { ptr, i64 } @_ZN4core5slice3raw18from_raw_parts_mut17h6cd13e9dac53e424E(ptr %data, i64 %len) unnamed_addr #0 !dbg !2184 {
start:
  %len.dbg.spill.i = alloca i64, align 8
  %data.dbg.spill.i = alloca ptr, align 8
  %_4.i = alloca i8, align 1
  %len.dbg.spill = alloca i64, align 8
  %data.dbg.spill = alloca ptr, align 8
  %_6 = alloca { ptr, i64 }, align 8
  store ptr %data, ptr %data.dbg.spill, align 8
  call void @llvm.dbg.declare(metadata ptr %data.dbg.spill, metadata !2190, metadata !DIExpression()), !dbg !2192
  store i64 %len, ptr %len.dbg.spill, align 8
  call void @llvm.dbg.declare(metadata ptr %len.dbg.spill, metadata !2191, metadata !DIExpression()), !dbg !2193
  store ptr %data, ptr %_6, align 8, !dbg !2194
  %0 = getelementptr inbounds { ptr, i64 }, ptr %_6, i32 0, i32 1, !dbg !2194
  store i64 %len, ptr %0, align 8, !dbg !2194
  %1 = load ptr, ptr %_6, align 8, !dbg !2194, !noundef !24
  %2 = getelementptr inbounds { ptr, i64 }, ptr %_6, i32 0, i32 1, !dbg !2194
  %3 = load i64, ptr %2, align 8, !dbg !2194, !noundef !24
  store ptr %1, ptr %data.dbg.spill.i, align 8
  call void @llvm.dbg.declare(metadata ptr %data.dbg.spill.i, metadata !2195, metadata !DIExpression()), !dbg !2202
  store i64 %3, ptr %len.dbg.spill.i, align 8
  call void @llvm.dbg.declare(metadata ptr %len.dbg.spill.i, metadata !2201, metadata !DIExpression()), !dbg !2202
; call core::intrinsics::is_aligned_and_not_null
  %_5.i = call zeroext i1 @_ZN4core10intrinsics23is_aligned_and_not_null17h6d98e974457e292fE(ptr %1) #9, !dbg !2204
  br i1 %_5.i, label %bb2.i, label %bb1.i, !dbg !2204

bb1.i:                                            ; preds = %start
  store i8 0, ptr %_4.i, align 1, !dbg !2204
  br label %bb3.i, !dbg !2204

bb2.i:                                            ; preds = %start
; call core::intrinsics::is_valid_allocation_size
  %_8.i = call zeroext i1 @_ZN4core10intrinsics24is_valid_allocation_size17h85946175719219c1E(i64 %3) #9, !dbg !2206
  %4 = zext i1 %_8.i to i8, !dbg !2204
  store i8 %4, ptr %_4.i, align 1, !dbg !2204
  br label %bb3.i, !dbg !2204

bb3.i:                                            ; preds = %bb2.i, %bb1.i
  %5 = load i8, ptr %_4.i, align 1, !dbg !2207, !range !210, !noundef !24
  %6 = trunc i8 %5 to i1, !dbg !2207
  %_3.i = xor i1 %6, true, !dbg !2207
  br i1 %_3.i, label %bb6.i, label %_ZN4core5slice3raw18from_raw_parts_mut7runtime17h77ad42f6dcabea26E.exit, !dbg !2207

bb6.i:                                            ; preds = %bb3.i
; call core::panicking::panic_nounwind
  call void @_ZN4core9panicking14panic_nounwind17hb8a2b9db753d85a7E(ptr align 1 @alloc378, i64 166) #10, !dbg !2208
  unreachable, !dbg !2208

_ZN4core5slice3raw18from_raw_parts_mut7runtime17h77ad42f6dcabea26E.exit: ; preds = %bb3.i
; call core::ptr::slice_from_raw_parts_mut
  %7 = call { ptr, i64 } @_ZN4core3ptr24slice_from_raw_parts_mut17h398548e65ac58392E(ptr %data, i64 %len) #9, !dbg !2209
  %_10.0 = extractvalue { ptr, i64 } %7, 0, !dbg !2209
  %_10.1 = extractvalue { ptr, i64 } %7, 1, !dbg !2209
  %8 = insertvalue { ptr, i64 } undef, ptr %_10.0, 0, !dbg !2210
  %9 = insertvalue { ptr, i64 } %8, i64 %_10.1, 1, !dbg !2210
  ret { ptr, i64 } %9, !dbg !2210
}

; core::slice::iter::Iter<T>::new
; Function Attrs: inlinehint noredzone nounwind
define { ptr, ptr } @"_ZN4core5slice4iter13Iter$LT$T$GT$3new17hdbccf37fe503d13dE"(ptr align 8 %slice.0, i64 %slice.1) unnamed_addr #0 !dbg !2211 {
start:
  %self.dbg.spill.i6 = alloca { ptr, i64 }, align 8
  %0 = alloca ptr, align 8
  %count.dbg.spill.i4 = alloca i64, align 8
  %self.dbg.spill.i5 = alloca ptr, align 8
  %self.dbg.spill.i3 = alloca ptr, align 8
  %count.dbg.spill.i1 = alloca i64, align 8
  %self.dbg.spill.i2 = alloca ptr, align 8
  %1 = alloca ptr, align 8
  %count.dbg.spill.i1.i = alloca i64, align 8
  %self.dbg.spill.i2.i = alloca ptr, align 8
  %count.dbg.spill.i.i = alloca i64, align 8
  %self.dbg.spill.i.i = alloca ptr, align 8
  %count.dbg.spill.i = alloca i64, align 8
  %self.dbg.spill.i = alloca ptr, align 8
  %ptr.dbg.spill = alloca ptr, align 8
  %slice.dbg.spill = alloca { ptr, i64 }, align 8
  %end = alloca ptr, align 8
  %2 = alloca { ptr, ptr }, align 8
  %3 = getelementptr inbounds { ptr, i64 }, ptr %slice.dbg.spill, i32 0, i32 0
  store ptr %slice.0, ptr %3, align 8
  %4 = getelementptr inbounds { ptr, i64 }, ptr %slice.dbg.spill, i32 0, i32 1
  store i64 %slice.1, ptr %4, align 8
  call void @llvm.dbg.declare(metadata ptr %slice.dbg.spill, metadata !2214, metadata !DIExpression()), !dbg !2219
  call void @llvm.dbg.declare(metadata ptr %end, metadata !2217, metadata !DIExpression()), !dbg !2220
  store ptr %slice.0, ptr %self.dbg.spill.i6, align 8
  %5 = getelementptr inbounds { ptr, i64 }, ptr %self.dbg.spill.i6, i32 0, i32 1
  store i64 %slice.1, ptr %5, align 8
  call void @llvm.dbg.declare(metadata ptr %self.dbg.spill.i6, metadata !2221, metadata !DIExpression()), !dbg !2226
  store ptr %slice.0, ptr %ptr.dbg.spill, align 8, !dbg !2228
  call void @llvm.dbg.declare(metadata ptr %ptr.dbg.spill, metadata !2215, metadata !DIExpression()), !dbg !2229
; call core::ptr::const_ptr::<impl *const T>::is_null
  %_5 = call zeroext i1 @"_ZN4core3ptr9const_ptr33_$LT$impl$u20$$BP$const$u20$T$GT$7is_null17h3a2b9669f2734d1cE"(ptr %slice.0) #9, !dbg !2230
  %_4 = xor i1 %_5, true, !dbg !2231
  call void @llvm.assume(i1 %_4), !dbg !2232
  br i1 false, label %bb3, label %bb4, !dbg !2233

bb4:                                              ; preds = %start
  store ptr %slice.0, ptr %self.dbg.spill.i2, align 8
  call void @llvm.dbg.declare(metadata ptr %self.dbg.spill.i2, metadata !213, metadata !DIExpression()), !dbg !2234
  store i64 %slice.1, ptr %count.dbg.spill.i1, align 8
  call void @llvm.dbg.declare(metadata ptr %count.dbg.spill.i1, metadata !223, metadata !DIExpression()), !dbg !2236
  store ptr %slice.0, ptr %self.dbg.spill.i5, align 8
  call void @llvm.dbg.declare(metadata ptr %self.dbg.spill.i5, metadata !227, metadata !DIExpression()), !dbg !2237
  store i64 %slice.1, ptr %count.dbg.spill.i4, align 8
  call void @llvm.dbg.declare(metadata ptr %count.dbg.spill.i4, metadata !233, metadata !DIExpression()), !dbg !2239
  %6 = getelementptr inbounds %"bootinfo::memory_map::MemoryRegion", ptr %slice.0, i64 %slice.1, !dbg !2240
  store ptr %6, ptr %0, align 8, !dbg !2240
  %7 = load ptr, ptr %0, align 8, !dbg !2240, !noundef !24
  store ptr %7, ptr %end, align 8, !dbg !2241
  br label %bb5, !dbg !2241

bb3:                                              ; preds = %start
  store ptr %slice.0, ptr %self.dbg.spill.i, align 8
  call void @llvm.dbg.declare(metadata ptr %self.dbg.spill.i, metadata !2242, metadata !DIExpression()), !dbg !2246
  store i64 %slice.1, ptr %count.dbg.spill.i, align 8
  call void @llvm.dbg.declare(metadata ptr %count.dbg.spill.i, metadata !2245, metadata !DIExpression()), !dbg !2248
  store ptr %slice.0, ptr %self.dbg.spill.i3, align 8
  call void @llvm.dbg.declare(metadata ptr %self.dbg.spill.i3, metadata !2249, metadata !DIExpression()), !dbg !2254
  store ptr %slice.0, ptr %self.dbg.spill.i.i, align 8
  call void @llvm.dbg.declare(metadata ptr %self.dbg.spill.i.i, metadata !2256, metadata !DIExpression()), !dbg !2262
  store i64 %slice.1, ptr %count.dbg.spill.i.i, align 8
  call void @llvm.dbg.declare(metadata ptr %count.dbg.spill.i.i, metadata !2261, metadata !DIExpression()), !dbg !2264
  store ptr %slice.0, ptr %self.dbg.spill.i2.i, align 8
  call void @llvm.dbg.declare(metadata ptr %self.dbg.spill.i2.i, metadata !2265, metadata !DIExpression()), !dbg !2271
  store i64 %slice.1, ptr %count.dbg.spill.i1.i, align 8
  call void @llvm.dbg.declare(metadata ptr %count.dbg.spill.i1.i, metadata !2270, metadata !DIExpression()), !dbg !2273
  %8 = getelementptr i8, ptr %slice.0, i64 %slice.1, !dbg !2274
  store ptr %8, ptr %1, align 8, !dbg !2274
  %9 = load ptr, ptr %1, align 8, !dbg !2274, !noundef !24
; call core::ptr::const_ptr::<impl *const T>::with_metadata_of
  %10 = call ptr @"_ZN4core3ptr9const_ptr33_$LT$impl$u20$$BP$const$u20$T$GT$16with_metadata_of17hdb16d2b720a6456aE"(ptr %9, ptr %slice.0) #9, !dbg !2275
  store ptr %10, ptr %end, align 8, !dbg !2276
  br label %bb5, !dbg !2276

bb5:                                              ; preds = %bb4, %bb3
; call core::ptr::non_null::NonNull<T>::new_unchecked
  %_15 = call ptr @"_ZN4core3ptr8non_null16NonNull$LT$T$GT$13new_unchecked17h8231aeee433b7653E"(ptr %slice.0) #9, !dbg !2277
  %_18 = load ptr, ptr %end, align 8, !dbg !2278, !noundef !24
  %11 = getelementptr inbounds { ptr, ptr }, ptr %2, i32 0, i32 1, !dbg !2279
  store ptr %_15, ptr %11, align 8, !dbg !2279
  store ptr %_18, ptr %2, align 8, !dbg !2279
  %12 = getelementptr inbounds { ptr, ptr }, ptr %2, i32 0, i32 0, !dbg !2280
  %13 = load ptr, ptr %12, align 8, !dbg !2280, !noundef !24
  %14 = getelementptr inbounds { ptr, ptr }, ptr %2, i32 0, i32 1, !dbg !2280
  %15 = load ptr, ptr %14, align 8, !dbg !2280, !nonnull !24, !noundef !24
  %16 = insertvalue { ptr, ptr } undef, ptr %13, 0, !dbg !2280
  %17 = insertvalue { ptr, ptr } %16, ptr %15, 1, !dbg !2280
  ret { ptr, ptr } %17, !dbg !2280
}

; core::slice::sort::shift_head
; Function Attrs: noredzone nounwind
define void @_ZN4core5slice4sort10shift_head17hd7415b3522e2b17dE(ptr align 8 %v.0, i64 %v.1, ptr align 8 %is_less) unnamed_addr #1 !dbg !2281 {
start:
  %self.dbg.spill.i36 = alloca ptr, align 8
  %self.dbg.spill.i35 = alloca ptr, align 8
  %self.dbg.spill.i34 = alloca { ptr, i64 }, align 8
  %0 = alloca ptr, align 8
  %count.dbg.spill.i31 = alloca i64, align 8
  %self.dbg.spill.i32 = alloca ptr, align 8
  %1 = alloca ptr, align 8
  %count.dbg.spill.i28 = alloca i64, align 8
  %self.dbg.spill.i29 = alloca ptr, align 8
  %2 = alloca ptr, align 8
  %count.dbg.spill.i25 = alloca i64, align 8
  %self.dbg.spill.i26 = alloca ptr, align 8
  %3 = alloca ptr, align 8
  %count.dbg.spill.i22 = alloca i64, align 8
  %self.dbg.spill.i23 = alloca ptr, align 8
  %4 = alloca ptr, align 8
  %count.dbg.spill.i19 = alloca i64, align 8
  %self.dbg.spill.i20 = alloca ptr, align 8
  %5 = alloca ptr, align 8
  %count.dbg.spill.i16 = alloca i64, align 8
  %self.dbg.spill.i17 = alloca ptr, align 8
  %6 = alloca ptr, align 8
  %count.dbg.spill.i14 = alloca i64, align 8
  %self.dbg.spill.i15 = alloca ptr, align 8
  %count.dbg.spill.i12 = alloca i64, align 8
  %self.dbg.spill.i13 = alloca ptr, align 8
  %count.dbg.spill.i10 = alloca i64, align 8
  %self.dbg.spill.i11 = alloca ptr, align 8
  %count.dbg.spill.i8 = alloca i64, align 8
  %self.dbg.spill.i9 = alloca ptr, align 8
  %count.dbg.spill.i6 = alloca i64, align 8
  %self.dbg.spill.i7 = alloca ptr, align 8
  %count.dbg.spill.i4 = alloca i64, align 8
  %self.dbg.spill.i5 = alloca ptr, align 8
  %count.dbg.spill.i2 = alloca i64, align 8
  %self.dbg.spill.i3 = alloca ptr, align 8
  %count.dbg.spill.i = alloca i64, align 8
  %self.dbg.spill.i = alloca ptr, align 8
  %_2.i = alloca %"bootinfo::memory_map::MemoryRegion", align 8
  %i.dbg.spill = alloca i64, align 8
  %v.dbg.spill1 = alloca ptr, align 8
  %len.dbg.spill = alloca i64, align 8
  %is_less.dbg.spill = alloca ptr, align 8
  %v.dbg.spill = alloca { ptr, i64 }, align 8
  %_49 = alloca { ptr, ptr }, align 8
  %_41 = alloca { i64, i64 }, align 8
  %iter = alloca { i64, i64 }, align 8
  %_38 = alloca { i64, i64 }, align 8
  %hole = alloca { ptr, ptr }, align 8
  %_18 = alloca %"bootinfo::memory_map::MemoryRegion", align 8
  %tmp = alloca %"core::mem::manually_drop::ManuallyDrop<bootinfo::memory_map::MemoryRegion>", align 8
  %_10 = alloca { ptr, ptr }, align 8
  %_5 = alloca i8, align 1
  %7 = getelementptr inbounds { ptr, i64 }, ptr %v.dbg.spill, i32 0, i32 0
  store ptr %v.0, ptr %7, align 8
  %8 = getelementptr inbounds { ptr, i64 }, ptr %v.dbg.spill, i32 0, i32 1
  store i64 %v.1, ptr %8, align 8
  call void @llvm.dbg.declare(metadata ptr %v.dbg.spill, metadata !2286, metadata !DIExpression()), !dbg !2301
  store ptr %is_less, ptr %is_less.dbg.spill, align 8
  call void @llvm.dbg.declare(metadata ptr %is_less.dbg.spill, metadata !2287, metadata !DIExpression()), !dbg !2302
  call void @llvm.dbg.declare(metadata ptr %tmp, metadata !2290, metadata !DIExpression()), !dbg !2303
  call void @llvm.dbg.declare(metadata ptr %hole, metadata !2294, metadata !DIExpression()), !dbg !2304
  call void @llvm.dbg.declare(metadata ptr %iter, metadata !2296, metadata !DIExpression()), !dbg !2305
  store i64 %v.1, ptr %len.dbg.spill, align 8, !dbg !2306
  call void @llvm.dbg.declare(metadata ptr %len.dbg.spill, metadata !2288, metadata !DIExpression()), !dbg !2307
  %_6 = icmp uge i64 %v.1, 2, !dbg !2308
  br i1 %_6, label %bb2, label %bb1, !dbg !2308

bb1:                                              ; preds = %start
  store i8 0, ptr %_5, align 1, !dbg !2308
  br label %bb3, !dbg !2308

bb2:                                              ; preds = %start
; call core::slice::<impl [T]>::get_unchecked
  %_12 = call align 8 ptr @"_ZN4core5slice29_$LT$impl$u20$$u5b$T$u5d$$GT$13get_unchecked17hc1f599dcc5e61400E"(ptr align 8 %v.0, i64 %v.1, i64 1) #9, !dbg !2309
; call core::slice::<impl [T]>::get_unchecked
  %_15 = call align 8 ptr @"_ZN4core5slice29_$LT$impl$u20$$u5b$T$u5d$$GT$13get_unchecked17hc1f599dcc5e61400E"(ptr align 8 %v.0, i64 %v.1, i64 0) #9, !dbg !2310
  store ptr %_12, ptr %_10, align 8, !dbg !2311
  %9 = getelementptr inbounds { ptr, ptr }, ptr %_10, i32 0, i32 1, !dbg !2311
  store ptr %_15, ptr %9, align 8, !dbg !2311
  %10 = getelementptr inbounds { ptr, ptr }, ptr %_10, i32 0, i32 0, !dbg !2311
  %11 = load ptr, ptr %10, align 8, !dbg !2311, !nonnull !24, !align !485, !noundef !24
  %12 = getelementptr inbounds { ptr, ptr }, ptr %_10, i32 0, i32 1, !dbg !2311
  %13 = load ptr, ptr %12, align 8, !dbg !2311, !nonnull !24, !align !485, !noundef !24
; call core::slice::<impl [T]>::sort_unstable_by::{{closure}}
  %_8 = call zeroext i1 @"_ZN4core5slice29_$LT$impl$u20$$u5b$T$u5d$$GT$16sort_unstable_by28_$u7b$$u7b$closure$u7d$$u7d$17h3e6034f2b6ac7389E"(ptr align 8 %is_less, ptr align 8 %11, ptr align 8 %13) #9, !dbg !2311
  %14 = zext i1 %_8 to i8, !dbg !2308
  store i8 %14, ptr %_5, align 1, !dbg !2308
  br label %bb3, !dbg !2308

bb3:                                              ; preds = %bb1, %bb2
  %15 = load i8, ptr %_5, align 1, !dbg !2308, !range !210, !noundef !24
  %16 = trunc i8 %15 to i1, !dbg !2308
  br i1 %16, label %bb7, label %bb32, !dbg !2308

bb32:                                             ; preds = %bb31, %bb3
  ret void, !dbg !2312

bb7:                                              ; preds = %bb3
; call core::slice::<impl [T]>::get_unchecked
  %_20 = call align 8 ptr @"_ZN4core5slice29_$LT$impl$u20$$u5b$T$u5d$$GT$13get_unchecked17hc1f599dcc5e61400E"(ptr align 8 %v.0, i64 %v.1, i64 0) #9, !dbg !2313
; call core::ptr::read
  call void @_ZN4core3ptr4read17hb3b15f8990e80d7bE(ptr sret(%"bootinfo::memory_map::MemoryRegion") %_18, ptr %_20) #9, !dbg !2314
  call void @llvm.dbg.declare(metadata ptr %_18, metadata !964, metadata !DIExpression()), !dbg !2315
  call void @llvm.memcpy.p0.p0.i64(ptr align 8 %_2.i, ptr align 8 %_18, i64 24, i1 false), !dbg !2317
  call void @llvm.memcpy.p0.p0.i64(ptr align 8 %tmp, ptr align 8 %_2.i, i64 24, i1 false), !dbg !2318
  store ptr %v.0, ptr %self.dbg.spill.i34, align 8
  %17 = getelementptr inbounds { ptr, i64 }, ptr %self.dbg.spill.i34, i32 0, i32 1
  store i64 %v.1, ptr %17, align 8
  call void @llvm.dbg.declare(metadata ptr %self.dbg.spill.i34, metadata !1961, metadata !DIExpression()), !dbg !2319
  store ptr %v.0, ptr %v.dbg.spill1, align 8, !dbg !2321
  call void @llvm.dbg.declare(metadata ptr %v.dbg.spill1, metadata !2292, metadata !DIExpression()), !dbg !2322
  store ptr %tmp, ptr %self.dbg.spill.i36, align 8
  call void @llvm.dbg.declare(metadata ptr %self.dbg.spill.i36, metadata !2323, metadata !DIExpression()), !dbg !2330
  store ptr %v.0, ptr %self.dbg.spill.i13, align 8
  call void @llvm.dbg.declare(metadata ptr %self.dbg.spill.i13, metadata !291, metadata !DIExpression()), !dbg !2332
  store i64 1, ptr %count.dbg.spill.i12, align 8
  call void @llvm.dbg.declare(metadata ptr %count.dbg.spill.i12, metadata !297, metadata !DIExpression()), !dbg !2334
  store ptr %v.0, ptr %self.dbg.spill.i15, align 8
  call void @llvm.dbg.declare(metadata ptr %self.dbg.spill.i15, metadata !301, metadata !DIExpression()), !dbg !2335
  store i64 1, ptr %count.dbg.spill.i14, align 8
  call void @llvm.dbg.declare(metadata ptr %count.dbg.spill.i14, metadata !306, metadata !DIExpression()), !dbg !2337
  %18 = getelementptr inbounds %"bootinfo::memory_map::MemoryRegion", ptr %v.0, i64 1, !dbg !2338
  store ptr %18, ptr %6, align 8, !dbg !2338
  %_3.i = load ptr, ptr %6, align 8, !dbg !2338, !noundef !24
  store ptr %tmp, ptr %hole, align 8, !dbg !2339
  %19 = getelementptr inbounds { ptr, ptr }, ptr %hole, i32 0, i32 1, !dbg !2339
  store ptr %_3.i, ptr %19, align 8, !dbg !2339
  store ptr %v.0, ptr %self.dbg.spill.i11, align 8
  call void @llvm.dbg.declare(metadata ptr %self.dbg.spill.i11, metadata !291, metadata !DIExpression()), !dbg !2340
  store i64 1, ptr %count.dbg.spill.i10, align 8
  call void @llvm.dbg.declare(metadata ptr %count.dbg.spill.i10, metadata !297, metadata !DIExpression()), !dbg !2342
  store ptr %v.0, ptr %self.dbg.spill.i17, align 8
  call void @llvm.dbg.declare(metadata ptr %self.dbg.spill.i17, metadata !301, metadata !DIExpression()), !dbg !2343
  store i64 1, ptr %count.dbg.spill.i16, align 8
  call void @llvm.dbg.declare(metadata ptr %count.dbg.spill.i16, metadata !306, metadata !DIExpression()), !dbg !2345
  %20 = getelementptr inbounds %"bootinfo::memory_map::MemoryRegion", ptr %v.0, i64 1, !dbg !2346
  store ptr %20, ptr %5, align 8, !dbg !2346
  %_3.i18 = load ptr, ptr %5, align 8, !dbg !2346, !noundef !24
  store ptr %v.0, ptr %self.dbg.spill.i9, align 8
  call void @llvm.dbg.declare(metadata ptr %self.dbg.spill.i9, metadata !291, metadata !DIExpression()), !dbg !2347
  store i64 0, ptr %count.dbg.spill.i8, align 8
  call void @llvm.dbg.declare(metadata ptr %count.dbg.spill.i8, metadata !297, metadata !DIExpression()), !dbg !2349
  store ptr %v.0, ptr %self.dbg.spill.i20, align 8
  call void @llvm.dbg.declare(metadata ptr %self.dbg.spill.i20, metadata !301, metadata !DIExpression()), !dbg !2350
  store i64 0, ptr %count.dbg.spill.i19, align 8
  call void @llvm.dbg.declare(metadata ptr %count.dbg.spill.i19, metadata !306, metadata !DIExpression()), !dbg !2352
  store ptr %v.0, ptr %4, align 8, !dbg !2353
  %_3.i21 = load ptr, ptr %4, align 8, !dbg !2353, !noundef !24
; call core::intrinsics::copy_nonoverlapping
  call void @_ZN4core10intrinsics19copy_nonoverlapping17he223bf532b273cfaE(ptr %_3.i18, ptr %_3.i21, i64 1) #9, !dbg !2354
  store i64 2, ptr %_38, align 8, !dbg !2355
  %21 = getelementptr inbounds { i64, i64 }, ptr %_38, i32 0, i32 1, !dbg !2355
