; ModuleID = 'bootloader.1d7037a3-cgu.0'
source_filename = "bootloader.1d7037a3-cgu.0"
target datalayout = "e-m:e-i64:64-f80:128-n8:16:32:64-S128"
target triple = "x86_64-obuasi-unknown-none"

%"bootinfo::memory_map::MemoryRegion" = type { { i64, i64 }, i32, [1 x i32] }
%"core::ops::range::RangeInclusive<usize>" = type { i64, i64, i8, [7 x i8] }
%"core::fmt::Arguments<'_>" = type { { ptr, i64 }, { ptr, i64 }, { ptr, i64 } }
%"core::fmt::UnsafeArg" = type { {} }
%"core::mem::maybe_uninit::MaybeUninit<bootinfo::memory_map::MemoryRegion>" = type { [3 x i64] }
%"core::mem::manually_drop::ManuallyDrop<bootinfo::memory_map::MemoryRegion>" = type { %"bootinfo::memory_map::MemoryRegion" }
%"core::mem::manually_drop::ManuallyDrop<core::mem::maybe_uninit::MaybeUninit<bootinfo::memory_map::MemoryRegion>>" = type { %"core::mem::maybe_uninit::MaybeUninit<bootinfo::memory_map::MemoryRegion>" }
%"core::mem::maybe_uninit::MaybeUninit<core::mem::maybe_uninit::MaybeUninit<bootinfo::memory_map::MemoryRegion>>" = type { [3 x i64] }
%"core::ptr::metadata::PtrRepr<[bootinfo::memory_map::MemoryRegion]>" = type { [2 x i64] }
%"core::ptr::metadata::PtrComponents<bootinfo::memory_map::MemoryRegion>" = type { ptr, {} }
%"core::ptr::metadata::PtrRepr<bootinfo::memory_map::MemoryRegion>" = type { [1 x i64] }
%"[closure@/Users/yaw/.cargo/registry/src/github.com-1ecc6299db9ec823/bootloader-0.9.23/src/bootinfo/memory_map.rs:40:39: 40:47]" = type {}
%"[closure@core::slice::sort::choose_pivot<bootinfo::memory_map::MemoryRegion, [closure@core::slice::<impl [bootinfo::memory_map::MemoryRegion]>::sort_unstable_by<[closure@/Users/yaw/.cargo/registry/src/github.com-1ecc6299db9ec823/bootloader-0.9.23/src/bootinfo/memory_map.rs:40:39: 40:47]>::{closure#0}]>::{closure#0}]" = type { { ptr, i64 }, ptr, ptr }
%"core::option::Option<core::fmt::Arguments<'_>>" = type { [2 x i64], ptr, [3 x i64] }
%"bootinfo::TlsTemplate" = type { i64, i64, i64 }
%"core::option::Option<bootinfo::TlsTemplate>::Some" = type { [1 x i64], %"bootinfo::TlsTemplate" }
%"[closure@/Users/yaw/.cargo/registry/src/github.com-1ecc6299db9ec823/bootloader-0.9.23/src/bootinfo/memory_map.rs:58:70: 58:73]" = type {}
%"bootinfo::memory_map::MemoryMap" = type { [64 x %"bootinfo::memory_map::MemoryRegion"], i64 }
%"core::fmt::builders::DebugList<'_, '_>" = type { %"core::fmt::builders::DebugInner<'_, '_>" }
%"core::fmt::builders::DebugInner<'_, '_>" = type { ptr, i8, i8, [6 x i8] }
%"core::fmt::rt::v1::FormatSpec" = type { { i64, i64 }, { i64, i64 }, i32, i32, i8, [7 x i8] }
%"core::fmt::rt::v1::Argument" = type { %"core::fmt::rt::v1::FormatSpec", i64 }
%"bootinfo::memory_map::E820MemoryRegion" = type { i64, i64, i32, i32 }
%"bootinfo::BootInfo" = type { %"bootinfo::memory_map::MemoryMap", %"bootinfo::TlsTemplate", i8, [7 x i8] }
%"core::option::Option<bootinfo::TlsTemplate>" = type { i64, [3 x i64] }

@alloc308 = private unnamed_addr constant <{ [111 x i8] }> <{ [111 x i8] c"/Users/yaw/.rustup/toolchains/nightly-aarch64-apple-darwin/lib/rustlib/src/rust/library/core/src/slice/index.rs" }>, align 1
@alloc306 = private unnamed_addr constant <{ ptr, [16 x i8] }> <{ ptr @alloc308, [16 x i8] c"o\00\00\00\00\00\00\00\82\01\00\00G\00\00\00" }>, align 8
@str.0 = internal constant [33 x i8] c"attempt to subtract with overflow"
@alloc307 = private unnamed_addr constant <{ [97 x i8] }> <{ [97 x i8] c"unsafe precondition(s) violated: slice::get_unchecked requires that the range is within the slice" }>, align 1
@alloc309 = private unnamed_addr constant <{ ptr, [16 x i8] }> <{ ptr @alloc308, [16 x i8] c"o\00\00\00\00\00\00\00\90\01\00\00O\00\00\00" }>, align 8
@alloc310 = private unnamed_addr constant <{ [101 x i8] }> <{ [101 x i8] c"unsafe precondition(s) violated: slice::get_unchecked_mut requires that the range is within the slice" }>, align 1
@alloc315 = private unnamed_addr constant <{ [110 x i8] }> <{ [110 x i8] c"/Users/yaw/.rustup/toolchains/nightly-aarch64-apple-darwin/lib/rustlib/src/rust/library/core/src/intrinsics.rs" }>, align 1
@alloc312 = private unnamed_addr constant <{ ptr, [16 x i8] }> <{ ptr @alloc315, [16 x i8] c"n\00\00\00\00\00\00\00\D0\08\00\007\00\00\00" }>, align 8
@alloc314 = private unnamed_addr constant <{ ptr, [16 x i8] }> <{ ptr @alloc315, [16 x i8] c"n\00\00\00\00\00\00\00\D1\08\00\00+\00\00\00" }>, align 8
@alloc316 = private unnamed_addr constant <{ ptr, [16 x i8] }> <{ ptr @alloc315, [16 x i8] c"n\00\00\00\00\00\00\00\D1\08\00\00J\00\00\00" }>, align 8
@alloc318 = private unnamed_addr constant <{ [166 x i8] }> <{ [166 x i8] c"unsafe precondition(s) violated: ptr::copy_nonoverlapping requires that both pointer arguments are aligned and non-null and the specified memory ranges do not overlap" }>, align 1
@alloc320 = private unnamed_addr constant <{ [112 x i8] }> <{ [112 x i8] c"unsafe precondition(s) violated: ptr::copy requires that both pointer arguments are aligned aligned and non-null" }>, align 1
@vtable.1 = private constant <{ ptr, [16 x i8], ptr }> <{ ptr @"_ZN4core3ptr71drop_in_place$LT$$RF$bootloader..bootinfo..memory_map..MemoryRegion$GT$17hf778883e36c7f693E", [16 x i8] c"\08\00\00\00\00\00\00\00\08\00\00\00\00\00\00\00", ptr @"_ZN42_$LT$$RF$T$u20$as$u20$core..fmt..Debug$GT$3fmt17h6021ca7e6427facaE" }>, align 8, !dbg !0
@alloc326 = private unnamed_addr constant <{ [107 x i8] }> <{ [107 x i8] c"/Users/yaw/.rustup/toolchains/nightly-aarch64-apple-darwin/lib/rustlib/src/rust/library/core/src/fmt/mod.rs" }>, align 1
@alloc325 = private unnamed_addr constant <{ ptr, [16 x i8] }> <{ ptr @alloc326, [16 x i8] c"k\00\00\00\00\00\00\00\92\01\00\008\00\00\00" }>, align 8
@str.2 = internal constant [28 x i8] c"attempt to add with overflow"
@alloc81 = private unnamed_addr constant <{ [12 x i8] }> <{ [12 x i8] c"invalid args" }>, align 1
@alloc80 = private unnamed_addr constant <{ ptr, [8 x i8] }> <{ ptr @alloc81, [8 x i8] c"\0C\00\00\00\00\00\00\00" }>, align 8
@alloc78 = private unnamed_addr constant <{}> zeroinitializer, align 8
@alloc327 = private unnamed_addr constant <{ ptr, [16 x i8] }> <{ ptr @alloc326, [16 x i8] c"k\00\00\00\00\00\00\00\93\01\00\00\0D\00\00\00" }>, align 8
@alloc328 = private unnamed_addr constant <{ [107 x i8] }> <{ [107 x i8] c"/Users/yaw/.rustup/toolchains/nightly-aarch64-apple-darwin/lib/rustlib/src/rust/library/core/src/mem/mod.rs" }>, align 1
@alloc329 = private unnamed_addr constant <{ ptr, [16 x i8] }> <{ ptr @alloc328, [16 x i8] c"k\00\00\00\00\00\00\00\DE\02\00\00\0C\00\00\00" }>, align 8
@str.3 = internal constant [25 x i8] c"attempt to divide by zero"
@alloc330 = private unnamed_addr constant <{ [107 x i8] }> <{ [107 x i8] c"/Users/yaw/.rustup/toolchains/nightly-aarch64-apple-darwin/lib/rustlib/src/rust/library/core/src/num/mod.rs" }>, align 1
@alloc331 = private unnamed_addr constant <{ ptr, [16 x i8] }> <{ ptr @alloc330, [16 x i8] c"k\00\00\00\00\00\00\00\A6\04\00\00\05\00\00\00" }>, align 8
@str.4 = internal constant [36 x i8] c"attempt to shift right with overflow"
@alloc332 = private unnamed_addr constant <{ [109 x i8] }> <{ [109 x i8] c"/Users/yaw/.rustup/toolchains/nightly-aarch64-apple-darwin/lib/rustlib/src/rust/library/core/src/ops/range.rs" }>, align 1
@alloc333 = private unnamed_addr constant <{ ptr, [16 x i8] }> <{ ptr @alloc332, [16 x i8] c"m\00\00\00\00\00\00\00\CA\01\00\00\1D\00\00\00" }>, align 8
@alloc343 = private unnamed_addr constant <{ [107 x i8] }> <{ [107 x i8] c"/Users/yaw/.rustup/toolchains/nightly-aarch64-apple-darwin/lib/rustlib/src/rust/library/core/src/ptr/mod.rs" }>, align 1
@alloc335 = private unnamed_addr constant <{ ptr, [16 x i8] }> <{ ptr @alloc343, [16 x i8] c"k\00\00\00\00\00\00\00\AC\03\00\00&\00\00\00" }>, align 8
@str.5 = internal constant [33 x i8] c"attempt to multiply with overflow"
@alloc337 = private unnamed_addr constant <{ ptr, [16 x i8] }> <{ ptr @alloc343, [16 x i8] c"k\00\00\00\00\00\00\00\AE\03\00\00\09\00\00\00" }>, align 8
@str.6 = internal constant [57 x i8] c"attempt to calculate the remainder with a divisor of zero"
@alloc339 = private unnamed_addr constant <{ ptr, [16 x i8] }> <{ ptr @alloc343, [16 x i8] c"k\00\00\00\00\00\00\00\AF\03\00\00\09\00\00\00" }>, align 8
@alloc340 = private unnamed_addr constant <{ [166 x i8] }> <{ [166 x i8] c"unsafe precondition(s) violated: ptr::swap_nonoverlapping requires that both pointer arguments are aligned and non-null and the specified memory ranges do not overlap" }>, align 1
@alloc342 = private unnamed_addr constant <{ ptr, [16 x i8] }> <{ ptr @alloc343, [16 x i8] c"k\00\00\00\00\00\00\00\C8\03\00\00\09\00\00\00" }>, align 8
@alloc344 = private unnamed_addr constant <{ ptr, [16 x i8] }> <{ ptr @alloc343, [16 x i8] c"k\00\00\00\00\00\00\00\86\04\00\00\0D\00\00\00" }>, align 8
@alloc346 = private unnamed_addr constant <{ [101 x i8] }> <{ [101 x i8] c"unsafe precondition(s) violated: ptr::read requires that the pointer argument is aligned and non-null" }>, align 1
@alloc348 = private unnamed_addr constant <{ [102 x i8] }> <{ [102 x i8] c"unsafe precondition(s) violated: ptr::write requires that the pointer argument is aligned and non-null" }>, align 1
@alloc349 = private unnamed_addr constant <{ [93 x i8] }> <{ [93 x i8] c"unsafe precondition(s) violated: NonNull::new_unchecked requires that the pointer is non-null" }>, align 1
@alloc355 = private unnamed_addr constant <{ [113 x i8] }> <{ [113 x i8] c"/Users/yaw/.rustup/toolchains/nightly-aarch64-apple-darwin/lib/rustlib/src/rust/library/core/src/ptr/const_ptr.rs" }>, align 1
@alloc351 = private unnamed_addr constant <{ ptr, [16 x i8] }> <{ ptr @alloc355, [16 x i8] c"q\00\00\00\00\00\00\00#\06\00\00\1A\00\00\00" }>, align 8
@alloc76 = private unnamed_addr constant <{ [42 x i8] }> <{ [42 x i8] c"is_aligned_to: align is not a power-of-two" }>, align 1
@alloc75 = private unnamed_addr constant <{ ptr, [8 x i8] }> <{ ptr @alloc76, [8 x i8] c"*\00\00\00\00\00\00\00" }>, align 8
@alloc353 = private unnamed_addr constant <{ ptr, [16 x i8] }> <{ ptr @alloc355, [16 x i8] c"q\00\00\00\00\00\00\00\1E\06\00\00\0D\00\00\00" }>, align 8
@alloc354 = private unnamed_addr constant <{ [73 x i8] }> <{ [73 x i8] c"assertion failed: 0 < pointee_size && pointee_size <= isize::MAX as usize" }>, align 1
@alloc356 = private unnamed_addr constant <{ ptr, [16 x i8] }> <{ ptr @alloc355, [16 x i8] c"q\00\00\00\00\00\00\00\1C\03\00\00\09\00\00\00" }>, align 8
@alloc357 = private unnamed_addr constant <{ [71 x i8] }> <{ [71 x i8] c"unsafe precondition(s) violated: ptr::sub_ptr requires `this >= origin`" }>, align 1
@alloc358 = private unnamed_addr constant <{ [35 x i8] }> <{ [35 x i8] c"assertion failed: mid <= self.len()" }>, align 1
@alloc69 = private unnamed_addr constant <{ [1 x i8] }> <{ [1 x i8] c"\FF" }>, align 1
@alloc378 = private unnamed_addr constant <{ [109 x i8] }> <{ [109 x i8] c"/Users/yaw/.rustup/toolchains/nightly-aarch64-apple-darwin/lib/rustlib/src/rust/library/core/src/slice/mod.rs" }>, align 1
@alloc360 = private unnamed_addr constant <{ ptr, [16 x i8] }> <{ ptr @alloc378, [16 x i8] c"m\00\00\00\00\00\00\00\D7\06\00\00M\00\00\00" }>, align 8
@alloc361 = private unnamed_addr constant <{ [104 x i8] }> <{ [104 x i8] c"unsafe precondition(s) violated: slice::split_at_mut_unchecked requires the index to be within the slice" }>, align 1
@alloc362 = private unnamed_addr constant <{ [30 x i8] }> <{ [30 x i8] c"assertion failed: a.len() == n" }>, align 1
@alloc364 = private unnamed_addr constant <{ ptr, [16 x i8] }> <{ ptr @alloc378, [16 x i8] c"m\00\00\00\00\00\00\00\C3\02\00\00\0D\00\00\00" }>, align 8
@alloc365 = private unnamed_addr constant <{ [30 x i8] }> <{ [30 x i8] c"assertion failed: b.len() == n" }>, align 1
@alloc367 = private unnamed_addr constant <{ ptr, [16 x i8] }> <{ ptr @alloc378, [16 x i8] c"m\00\00\00\00\00\00\00\C4\02\00\00\0D\00\00\00" }>, align 8
@alloc369 = private unnamed_addr constant <{ ptr, [16 x i8] }> <{ ptr @alloc378, [16 x i8] c"m\00\00\00\00\00\00\00\CA\02\00\00 \00\00\00" }>, align 8
@alloc371 = private unnamed_addr constant <{ ptr, [16 x i8] }> <{ ptr @alloc378, [16 x i8] c"m\00\00\00\00\00\00\00\CA\02\00\00-\00\00\00" }>, align 8
@alloc373 = private unnamed_addr constant <{ ptr, [16 x i8] }> <{ ptr @alloc378, [16 x i8] c"m\00\00\00\00\00\00\00\CE\02\00\00 \00\00\00" }>, align 8
@alloc375 = private unnamed_addr constant <{ ptr, [16 x i8] }> <{ ptr @alloc378, [16 x i8] c"m\00\00\00\00\00\00\00\CE\02\00\00-\00\00\00" }>, align 8
@alloc377 = private unnamed_addr constant <{ ptr, [16 x i8] }> <{ ptr @alloc378, [16 x i8] c"m\00\00\00\00\00\00\00\CE\02\00\00+\00\00\00" }>, align 8
@alloc379 = private unnamed_addr constant <{ ptr, [16 x i8] }> <{ ptr @alloc378, [16 x i8] c"m\00\00\00\00\00\00\00\CF\02\00\00\11\00\00\00" }>, align 8
@alloc380 = private unnamed_addr constant <{ [166 x i8] }> <{ [166 x i8] c"unsafe precondition(s) violated: slice::from_raw_parts_mut requires the pointer to be aligned and non-null, and the total size of the slice not to exceed `isize::MAX`" }>, align 1
@alloc386 = private unnamed_addr constant <{ [30 x i8] }> <{ [30 x i8] c"assertion failed: v.len() >= 2" }>, align 1
@alloc545 = private unnamed_addr constant <{ [110 x i8] }> <{ [110 x i8] c"/Users/yaw/.rustup/toolchains/nightly-aarch64-apple-darwin/lib/rustlib/src/rust/library/core/src/slice/sort.rs" }>, align 1
@alloc383 = private unnamed_addr constant <{ ptr, [16 x i8] }> <{ ptr @alloc545, [16 x i8] c"n\00\00\00\00\00\00\00\\\00\00\00\05\00\00\00" }>, align 8
@alloc385 = private unnamed_addr constant <{ ptr, [16 x i8] }> <{ ptr @alloc545, [16 x i8] c"n\00\00\00\00\00\00\00\87\00\00\00F\00\00\00" }>, align 8
@alloc388 = private unnamed_addr constant <{ ptr, [16 x i8] }> <{ ptr @alloc545, [16 x i8] c"n\00\00\00\00\00\00\00'\00\00\00\05\00\00\00" }>, align 8
@alloc390 = private unnamed_addr constant <{ ptr, [16 x i8] }> <{ ptr @alloc545, [16 x i8] c"n\00\00\00\00\00\00\00*\00\00\00\0D\00\00\00" }>, align 8
@alloc392 = private unnamed_addr constant <{ ptr, [16 x i8] }> <{ ptr @alloc545, [16 x i8] c"n\00\00\00\00\00\00\00G\00\00\00\1A\00\00\00" }>, align 8
@alloc394 = private unnamed_addr constant <{ ptr, [16 x i8] }> <{ ptr @alloc545, [16 x i8] c"n\00\00\00\00\00\00\00\DB\02\00\00\11\00\00\00" }>, align 8
@alloc396 = private unnamed_addr constant <{ ptr, [16 x i8] }> <{ ptr @alloc545, [16 x i8] c"n\00\00\00\00\00\00\00\DC\02\00\00\11\00\00\00" }>, align 8
@alloc398 = private unnamed_addr constant <{ ptr, [16 x i8] }> <{ ptr @alloc545, [16 x i8] c"n\00\00\00\00\00\00\00\DD\02\00\00\11\00\00\00" }>, align 8
@alloc400 = private unnamed_addr constant <{ ptr, [16 x i8] }> <{ ptr @alloc545, [16 x i8] c"n\00\00\00\00\00\00\00\0F\03\00\00\0A\00\00\00" }>, align 8
@alloc402 = private unnamed_addr constant <{ ptr, [16 x i8] }> <{ ptr @alloc545, [16 x i8] c"n\00\00\00\00\00\00\00\ED\02\00\00\11\00\00\00" }>, align 8
@alloc404 = private unnamed_addr constant <{ ptr, [16 x i8] }> <{ ptr @alloc545, [16 x i8] c"n\00\00\00\00\00\00\00\FC\02\00\00\1C\00\00\00" }>, align 8
@alloc406 = private unnamed_addr constant <{ ptr, [16 x i8] }> <{ ptr @alloc545, [16 x i8] c"n\00\00\00\00\00\00\00\FC\02\00\00/\00\00\00" }>, align 8
@alloc408 = private unnamed_addr constant <{ ptr, [16 x i8] }> <{ ptr @alloc545, [16 x i8] c"n\00\00\00\00\00\00\00\B9\02\00\00\13\00\00\00" }>, align 8
@alloc410 = private unnamed_addr constant <{ ptr, [16 x i8] }> <{ ptr @alloc545, [16 x i8] c"n\00\00\00\00\00\00\00\BF\02\00\00+\00\00\00" }>, align 8
@alloc412 = private unnamed_addr constant <{ ptr, [16 x i8] }> <{ ptr @alloc545, [16 x i8] c"n\00\00\00\00\00\00\00\C3\02\00\00\11\00\00\00" }>, align 8
@alloc414 = private unnamed_addr constant <{ ptr, [16 x i8] }> <{ ptr @alloc545, [16 x i8] c"n\00\00\00\00\00\00\00\C6\02\00\00\14\00\00\00" }>, align 8
@alloc416 = private unnamed_addr constant <{ ptr, [16 x i8] }> <{ ptr @alloc545, [16 x i8] c"n\00\00\00\00\00\00\00\C6\02\00\00\0F\00\00\00" }>, align 8
@alloc418 = private unnamed_addr constant <{ ptr, [16 x i8] }> <{ ptr @alloc545, [16 x i8] c"n\00\00\00\00\00\00\00l\02\00\00\07\00\00\00" }>, align 8
@alloc420 = private unnamed_addr constant <{ ptr, [16 x i8] }> <{ ptr @alloc545, [16 x i8] c"n\00\00\00\00\00\00\00m\02\00\00\18\00\00\00" }>, align 8
@alloc422 = private unnamed_addr constant <{ ptr, [16 x i8] }> <{ ptr @alloc545, [16 x i8] c"n\00\00\00\00\00\00\00n\02\00\00\16\00\00\00" }>, align 8
@alloc424 = private unnamed_addr constant <{ ptr, [16 x i8] }> <{ ptr @alloc545, [16 x i8] c"n\00\00\00\00\00\00\00\82\02\00\00\11\00\00\00" }>, align 8
@alloc426 = private unnamed_addr constant <{ ptr, [16 x i8] }> <{ ptr @alloc545, [16 x i8] c"n\00\00\00\00\00\00\00\86\02\00\00;\00\00\00" }>, align 8
@alloc428 = private unnamed_addr constant <{ ptr, [16 x i8] }> <{ ptr @alloc545, [16 x i8] c"n\00\00\00\00\00\00\00\87\02\00\00\11\00\00\00" }>, align 8
@alloc430 = private unnamed_addr constant <{ ptr, [16 x i8] }> <{ ptr @alloc545, [16 x i8] c"n\00\00\00\00\00\00\00\98\02\00\00\05\00\00\00" }>, align 8
@alloc432 = private unnamed_addr constant <{ ptr, [16 x i8] }> <{ ptr @alloc545, [16 x i8] c"n\00\00\00\00\00\00\00\90\02\00\00\0D\00\00\00" }>, align 8
@alloc434 = private unnamed_addr constant <{ ptr, [16 x i8] }> <{ ptr @alloc545, [16 x i8] c"n\00\00\00\00\00\00\00\93\02\00\00\0D\00\00\00" }>, align 8
@alloc436 = private unnamed_addr constant <{ ptr, [16 x i8] }> <{ ptr @alloc545, [16 x i8] c"n\00\00\00\00\00\00\00e\01\00\00\11\00\00\00" }>, align 8
@alloc438 = private unnamed_addr constant <{ ptr, [16 x i8] }> <{ ptr @alloc545, [16 x i8] c"n\00\00\00\00\00\00\00s\01\00\00\1B\00\00\00" }>, align 8
@alloc439 = private unnamed_addr constant <{ [54 x i8] }> <{ [54 x i8] c"assertion failed: block_l <= BLOCK && block_r <= BLOCK" }>, align 1
@alloc441 = private unnamed_addr constant <{ ptr, [16 x i8] }> <{ ptr @alloc545, [16 x i8] c"n\00\00\00\00\00\00\00u\01\00\00\0D\00\00\00" }>, align 8
@alloc443 = private unnamed_addr constant <{ ptr, [16 x i8] }> <{ ptr @alloc545, [16 x i8] c"n\00\00\00\00\00\00\00v\01\00\00*\00\00\00" }>, align 8
@alloc444 = private unnamed_addr constant <{ [50 x i8] }> <{ [50 x i8] c"assertion failed: width(l, r) == block_l + block_r" }>, align 1
@alloc446 = private unnamed_addr constant <{ ptr, [16 x i8] }> <{ ptr @alloc545, [16 x i8] c"n\00\00\00\00\00\00\00v\01\00\00\0D\00\00\00" }>, align 8
@alloc448 = private unnamed_addr constant <{ ptr, [16 x i8] }> <{ ptr @alloc545, [16 x i8] c"n\00\00\00\00\00\00\00\D2\01\00\00*\00\00\00" }>, align 8
@alloc450 = private unnamed_addr constant <{ ptr, [16 x i8] }> <{ ptr @alloc545, [16 x i8] c"n\00\00\00\00\00\00\00\D6\01\00\007\00\00\00" }>, align 8
@alloc452 = private unnamed_addr constant <{ ptr, [16 x i8] }> <{ ptr @alloc545, [16 x i8] c"n\00\00\00\00\00\00\00\D8\01\00\00.\00\00\00" }>, align 8
@alloc454 = private unnamed_addr constant <{ ptr, [16 x i8] }> <{ ptr @alloc545, [16 x i8] c"n\00\00\00\00\00\00\00\DB\01\00\000\00\00\00" }>, align 8
@alloc456 = private unnamed_addr constant <{ ptr, [16 x i8] }> <{ ptr @alloc545, [16 x i8] c"n\00\00\00\00\00\00\00\02\02\00\00\09\00\00\00" }>, align 8
@alloc458 = private unnamed_addr constant <{ ptr, [16 x i8] }> <{ ptr @alloc545, [16 x i8] c"n\00\00\00\00\00\00\00\19\02\00\00\09\00\00\00" }>, align 8
@alloc460 = private unnamed_addr constant <{ ptr, [16 x i8] }> <{ ptr @alloc545, [16 x i8] c"n\00\00\00\00\00\00\00\1E\02\00\00$\00\00\00" }>, align 8
@alloc466 = private unnamed_addr constant <{ [41 x i8] }> <{ [41 x i8] c"assertion failed: mem::size_of::<T>() > 0" }>, align 1
@alloc463 = private unnamed_addr constant <{ ptr, [16 x i8] }> <{ ptr @alloc545, [16 x i8] c"n\00\00\00\00\00\00\00V\01\00\00\09\00\00\00" }>, align 8
@alloc465 = private unnamed_addr constant <{ ptr, [16 x i8] }> <{ ptr @alloc545, [16 x i8] c"n\00\00\00\00\00\00\00Y\01\00\00\09\00\00\00" }>, align 8
@alloc468 = private unnamed_addr constant <{ ptr, [16 x i8] }> <{ ptr @alloc545, [16 x i8] c"n\00\00\00\00\00\00\00\D7\00\00\00K\00\00\00" }>, align 8
@alloc470 = private unnamed_addr constant <{ ptr, [16 x i8] }> <{ ptr @alloc545, [16 x i8] c"n\00\00\00\00\00\00\00\D8\00\00\00\11\00\00\00" }>, align 8
@alloc472 = private unnamed_addr constant <{ ptr, [16 x i8] }> <{ ptr @alloc545, [16 x i8] c"n\00\00\00\00\00\00\00\E7\00\00\00\10\00\00\00" }>, align 8
@alloc474 = private unnamed_addr constant <{ ptr, [16 x i8] }> <{ ptr @alloc545, [16 x i8] c"n\00\00\00\00\00\00\00\E7\00\00\00\0B\00\00\00" }>, align 8
@alloc476 = private unnamed_addr constant <{ ptr, [16 x i8] }> <{ ptr @alloc545, [16 x i8] c"n\00\00\00\00\00\00\00\EB\00\00\00,\00\00\00" }>, align 8
@alloc478 = private unnamed_addr constant <{ ptr, [16 x i8] }> <{ ptr @alloc545, [16 x i8] c"n\00\00\00\00\00\00\00\EB\00\00\004\00\00\00" }>, align 8
@alloc480 = private unnamed_addr constant <{ ptr, [16 x i8] }> <{ ptr @alloc545, [16 x i8] c"n\00\00\00\00\00\00\00\EE\00\00\00-\00\00\00" }>, align 8
@alloc481 = private unnamed_addr constant <{ [46 x i8] }> <{ [46 x i8] c"assertion failed: offset != 0 && offset <= len" }>, align 1
@alloc483 = private unnamed_addr constant <{ ptr, [16 x i8] }> <{ ptr @alloc545, [16 x i8] c"n\00\00\00\00\00\00\00\9B\00\00\00\05\00\00\00" }>, align 8
@alloc485 = private unnamed_addr constant <{ ptr, [16 x i8] }> <{ ptr @alloc545, [16 x i8] c"n\00\00\00\00\00\00\00\A3\00\00\00\1E\00\00\00" }>, align 8
@alloc486 = private unnamed_addr constant <{ [58 x i8] }> <{ [58 x i8] c"assertion failed: offset != 0 && offset <= len && len >= 2" }>, align 1
@alloc488 = private unnamed_addr constant <{ ptr, [16 x i8] }> <{ ptr @alloc545, [16 x i8] c"n\00\00\00\00\00\00\00\B4\00\00\00\05\00\00\00" }>, align 8
@alloc490 = private unnamed_addr constant <{ ptr, [16 x i8] }> <{ ptr @alloc545, [16 x i8] c"n\00\00\00\00\00\00\00\BD\00\00\00\1E\00\00\00" }>, align 8
@alloc492 = private unnamed_addr constant <{ ptr, [16 x i8] }> <{ ptr @alloc545, [16 x i8] c"n\00\00\00\00\00\00\00;\03\00\00\0D\00\00\00" }>, align 8
@alloc494 = private unnamed_addr constant <{ ptr, [16 x i8] }> <{ ptr @alloc545, [16 x i8] c"n\00\00\00\00\00\00\00O\03\00\00\1D\00\00\00" }>, align 8
@alloc496 = private unnamed_addr constant <{ ptr, [16 x i8] }> <{ ptr @alloc545, [16 x i8] c"n\00\00\00\00\00\00\00S\03\00\00\1A\00\00\00" }>, align 8
@alloc498 = private unnamed_addr constant <{ ptr, [16 x i8] }> <{ ptr @alloc545, [16 x i8] c"n\00\00\00\00\00\00\00Z\03\00\00&\00\00\00" }>, align 8
@alloc500 = private unnamed_addr constant <{ ptr, [16 x i8] }> <{ ptr @alloc545, [16 x i8] c"n\00\00\00\00\00\00\00^\03\00\00\1F\00\00\00" }>, align 8
@alloc502 = private unnamed_addr constant <{ ptr, [16 x i8] }> <{ ptr @alloc545, [16 x i8] c"n\00\00\00\00\00\00\00_\03\00\00$\00\00\00" }>, align 8
@alloc504 = private unnamed_addr constant <{ ptr, [16 x i8] }> <{ ptr @alloc545, [16 x i8] c"n\00\00\00\00\00\00\00`\03\00\00\16\00\00\00" }>, align 8
@alloc506 = private unnamed_addr constant <{ ptr, [16 x i8] }> <{ ptr @alloc545, [16 x i8] c"n\00\00\00\00\00\00\00 \01\00\00\0B\00\00\00" }>, align 8
@alloc508 = private unnamed_addr constant <{ ptr, [16 x i8] }> <{ ptr @alloc545, [16 x i8] c"n\00\00\00\00\00\00\00!\01\00\00\18\00\00\00" }>, align 8
@alloc510 = private unnamed_addr constant <{ ptr, [16 x i8] }> <{ ptr @alloc545, [16 x i8] c"n\00\00\00\00\00\00\00\01\01\00\00\1D\00\00\00" }>, align 8
@alloc512 = private unnamed_addr constant <{ ptr, [16 x i8] }> <{ ptr @alloc545, [16 x i8] c"n\00\00\00\00\00\00\00\07\01\00\00\10\00\00\00" }>, align 8
@alloc514 = private unnamed_addr constant <{ ptr, [16 x i8] }> <{ ptr @alloc545, [16 x i8] c"n\00\00\00\00\00\00\00\0B\01\00\00#\00\00\00" }>, align 8
@alloc516 = private unnamed_addr constant <{ ptr, [16 x i8] }> <{ ptr @alloc545, [16 x i8] c"n\00\00\00\00\00\00\00\0B\01\00\000\00\00\00" }>, align 8
@alloc518 = private unnamed_addr constant <{ ptr, [16 x i8] }> <{ ptr @alloc545, [16 x i8] c"n\00\00\00\00\00\00\00\0B\01\00\00.\00\00\00" }>, align 8
@alloc520 = private unnamed_addr constant <{ ptr, [16 x i8] }> <{ ptr @alloc545, [16 x i8] c"n\00\00\00\00\00\00\00\0B\01\00\00\11\00\00\00" }>, align 8
@alloc522 = private unnamed_addr constant <{ ptr, [16 x i8] }> <{ ptr @alloc545, [16 x i8] c"n\00\00\00\00\00\00\00\0F\01\00\00\1A\00\00\00" }>, align 8
@alloc524 = private unnamed_addr constant <{ ptr, [16 x i8] }> <{ ptr @alloc545, [16 x i8] c"n\00\00\00\00\00\00\00\0F\01\00\00$\00\00\00" }>, align 8
@alloc526 = private unnamed_addr constant <{ ptr, [16 x i8] }> <{ ptr @alloc545, [16 x i8] c"n\00\00\00\00\00\00\00\14\01\00\00\0F\00\00\00" }>, align 8
@alloc528 = private unnamed_addr constant <{ ptr, [16 x i8] }> <{ ptr @alloc545, [16 x i8] c"n\00\00\00\00\00\00\006\02\00\00\0B\00\00\00" }>, align 8
@alloc530 = private unnamed_addr constant <{ ptr, [16 x i8] }> <{ ptr @alloc545, [16 x i8] c"n\00\00\00\00\00\00\007\02\00\00\1C\00\00\00" }>, align 8
@alloc532 = private unnamed_addr constant <{ ptr, [16 x i8] }> <{ ptr @alloc545, [16 x i8] c"n\00\00\00\00\00\00\008\02\00\00\1A\00\00\00" }>, align 8
@alloc534 = private unnamed_addr constant <{ ptr, [16 x i8] }> <{ ptr @alloc545, [16 x i8] c"n\00\00\00\00\00\00\00M\02\00\00\11\00\00\00" }>, align 8
@alloc536 = private unnamed_addr constant <{ ptr, [16 x i8] }> <{ ptr @alloc545, [16 x i8] c"n\00\00\00\00\00\00\00Q\02\00\005\00\00\00" }>, align 8
@alloc538 = private unnamed_addr constant <{ ptr, [16 x i8] }> <{ ptr @alloc545, [16 x i8] c"n\00\00\00\00\00\00\00R\02\00\00\11\00\00\00" }>, align 8
@alloc540 = private unnamed_addr constant <{ ptr, [16 x i8] }> <{ ptr @alloc545, [16 x i8] c"n\00\00\00\00\00\00\00V\02\00\00'\00\00\00" }>, align 8
@alloc542 = private unnamed_addr constant <{ ptr, [16 x i8] }> <{ ptr @alloc545, [16 x i8] c"n\00\00\00\00\00\00\00V\02\00\00\0A\00\00\00" }>, align 8
@alloc544 = private unnamed_addr constant <{ ptr, [16 x i8] }> <{ ptr @alloc545, [16 x i8] c"n\00\00\00\00\00\00\00^\02\00\00\07\00\00\00" }>, align 8
@alloc546 = private unnamed_addr constant <{ ptr, [16 x i8] }> <{ ptr @alloc545, [16 x i8] c"n\00\00\00\00\00\00\00{\03\00\00\11\00\00\00" }>, align 8
@alloc547 = private unnamed_addr constant <{ [97 x i8] }> <{ [97 x i8] c"unsafe precondition(s) violated: slice::get_unchecked requires that the index is within the slice" }>, align 1
@alloc548 = private unnamed_addr constant <{ [110 x i8] }> <{ [110 x i8] c"/Users/yaw/.rustup/toolchains/nightly-aarch64-apple-darwin/lib/rustlib/src/rust/library/core/src/slice/iter.rs" }>, align 1
@alloc549 = private unnamed_addr constant <{ ptr, [16 x i8] }> <{ ptr @alloc548, [16 x i8] c"n\00\00\00\00\00\00\00\81\00\00\00\01\00\00\00" }>, align 8
@alloc550 = private unnamed_addr constant <{ [37 x i8] }> <{ [37 x i8] c"too many memory regions in memory map" }>, align 1
@alloc571 = private unnamed_addr constant <{ [103 x i8] }> <{ [103 x i8] c"/Users/yaw/.cargo/registry/src/github.com-1ecc6299db9ec823/bootloader-0.9.23/src/bootinfo/memory_map.rs" }>, align 1
@alloc552 = private unnamed_addr constant <{ ptr, [16 x i8] }> <{ ptr @alloc571, [16 x i8] c"g\00\00\00\00\00\00\00\1C\00\00\00\09\00\00\00" }>, align 8
@alloc554 = private unnamed_addr constant <{ ptr, [16 x i8] }> <{ ptr @alloc571, [16 x i8] c"g\00\00\00\00\00\00\00 \00\00\00\09\00\00\00" }>, align 8
@alloc556 = private unnamed_addr constant <{ ptr, [16 x i8] }> <{ ptr @alloc571, [16 x i8] c"g\00\00\00\00\00\00\00!\00\00\00\09\00\00\00" }>, align 8
@alloc71 = private unnamed_addr constant <{ [1 x i8] }> zeroinitializer, align 1
@alloc558 = private unnamed_addr constant <{ ptr, [16 x i8] }> <{ ptr @alloc571, [16 x i8] c"g\00\00\00\00\00\00\00H\00\00\00\0A\00\00\00" }>, align 8
@alloc560 = private unnamed_addr constant <{ ptr, [16 x i8] }> <{ ptr @alloc571, [16 x i8] c"g\00\00\00\00\00\00\00O\00\00\00\0E\00\00\00" }>, align 8
@alloc562 = private unnamed_addr constant <{ ptr, [16 x i8] }> <{ ptr @alloc571, [16 x i8] c"g\00\00\00\00\00\00\00\85\00\00\00\19\00\00\00" }>, align 8
@alloc564 = private unnamed_addr constant <{ ptr, [16 x i8] }> <{ ptr @alloc571, [16 x i8] c"g\00\00\00\00\00\00\00\88\00\00\00\1F\00\00\00" }>, align 8
@alloc566 = private unnamed_addr constant <{ ptr, [16 x i8] }> <{ ptr @alloc571, [16 x i8] c"g\00\00\00\00\00\00\00\93\00\00\00\09\00\00\00" }>, align 8
@alloc568 = private unnamed_addr constant <{ ptr, [16 x i8] }> <{ ptr @alloc571, [16 x i8] c"g\00\00\00\00\00\00\00\98\00\00\00\09\00\00\00" }>, align 8
@alloc127 = private unnamed_addr constant <{ [11 x i8] }> <{ [11 x i8] c"FrameRange(" }>, align 1
@alloc128 = private unnamed_addr constant <{ [2 x i8] }> <{ [2 x i8] c".." }>, align 1
@alloc129 = private unnamed_addr constant <{ [1 x i8] }> <{ [1 x i8] c")" }>, align 1
@alloc126 = private unnamed_addr constant <{ ptr, [8 x i8], ptr, [8 x i8], ptr, [8 x i8] }> <{ ptr @alloc127, [8 x i8] c"\0B\00\00\00\00\00\00\00", ptr @alloc128, [8 x i8] c"\02\00\00\00\00\00\00\00", ptr @alloc129, [8 x i8] c"\01\00\00\00\00\00\00\00" }>, align 8
@alloc241 = private unnamed_addr constant <{ [20 x i8] }> <{ [20 x i8] c"invalid region type " }>, align 1
@alloc240 = private unnamed_addr constant <{ ptr, [8 x i8] }> <{ ptr @alloc241, [8 x i8] c"\14\00\00\00\00\00\00\00" }>, align 8
@alloc570 = private unnamed_addr constant <{ ptr, [16 x i8] }> <{ ptr @alloc571, [16 x i8] c"g\00\00\00\00\00\00\00\E1\00\00\00\12\00\00\00" }>, align 8
@alloc572 = private unnamed_addr constant <{ ptr, [16 x i8] }> <{ ptr @alloc571, [16 x i8] c"g\00\00\00\00\00\00\00\E4\00\00\007\00\00\00" }>, align 8
@alloc573 = private unnamed_addr constant <{ [12 x i8] }> <{ [12 x i8] c"MemoryRegion" }>, align 1
@alloc574 = private unnamed_addr constant <{ [5 x i8] }> <{ [5 x i8] c"range" }>, align 1
@vtable.7 = private constant <{ ptr, [16 x i8], ptr }> <{ ptr @"_ZN4core3ptr65drop_in_place$LT$bootloader..bootinfo..memory_map..FrameRange$GT$17h62b29fe4400e8c9eE", [16 x i8] c"\10\00\00\00\00\00\00\00\08\00\00\00\00\00\00\00", ptr @"_ZN81_$LT$bootloader..bootinfo..memory_map..FrameRange$u20$as$u20$core..fmt..Debug$GT$3fmt17h5c9a52575bd523d7E" }>, align 8, !dbg !44
@alloc603 = private unnamed_addr constant <{ [11 x i8] }> <{ [11 x i8] c"region_type" }>, align 1
@vtable.8 = private constant <{ ptr, [16 x i8], ptr }> <{ ptr @"_ZN4core3ptr75drop_in_place$LT$$RF$bootloader..bootinfo..memory_map..MemoryRegionType$GT$17h2deb57f46a4a201eE", [16 x i8] c"\08\00\00\00\00\00\00\00\08\00\00\00\00\00\00\00", ptr @"_ZN42_$LT$$RF$T$u20$as$u20$core..fmt..Debug$GT$3fmt17hb740925c6eb3f5d4E" }>, align 8, !dbg !52
@alloc582 = private unnamed_addr constant <{ [13 x i8] }> <{ [13 x i8] c"NonExhaustive" }>, align 1
@alloc583 = private unnamed_addr constant <{ [7 x i8] }> <{ [7 x i8] c"Package" }>, align 1
@alloc611 = private unnamed_addr constant <{ [8 x i8] }> <{ [8 x i8] c"BootInfo" }>, align 1
@alloc585 = private unnamed_addr constant <{ [5 x i8] }> <{ [5 x i8] c"Empty" }>, align 1
@alloc586 = private unnamed_addr constant <{ [9 x i8] }> <{ [9 x i8] c"FrameZero" }>, align 1
@alloc587 = private unnamed_addr constant <{ [10 x i8] }> <{ [10 x i8] c"Bootloader" }>, align 1
@alloc588 = private unnamed_addr constant <{ [9 x i8] }> <{ [9 x i8] c"PageTable" }>, align 1
@alloc589 = private unnamed_addr constant <{ [11 x i8] }> <{ [11 x i8] c"KernelStack" }>, align 1
@alloc590 = private unnamed_addr constant <{ [6 x i8] }> <{ [6 x i8] c"Kernel" }>, align 1
@alloc591 = private unnamed_addr constant <{ [9 x i8] }> <{ [9 x i8] c"BadMemory" }>, align 1
@alloc592 = private unnamed_addr constant <{ [7 x i8] }> <{ [7 x i8] c"AcpiNvs" }>, align 1
@alloc593 = private unnamed_addr constant <{ [15 x i8] }> <{ [15 x i8] c"AcpiReclaimable" }>, align 1
@alloc594 = private unnamed_addr constant <{ [8 x i8] }> <{ [8 x i8] c"Reserved" }>, align 1
@alloc595 = private unnamed_addr constant <{ [5 x i8] }> <{ [5 x i8] c"InUse" }>, align 1
@alloc596 = private unnamed_addr constant <{ [6 x i8] }> <{ [6 x i8] c"Usable" }>, align 1
@alloc597 = private unnamed_addr constant <{ [16 x i8] }> <{ [16 x i8] c"E820MemoryRegion" }>, align 1
@alloc625 = private unnamed_addr constant <{ [10 x i8] }> <{ [10 x i8] c"start_addr" }>, align 1
@vtable.9 = private constant <{ ptr, [16 x i8], ptr }> <{ ptr @"_ZN4core3ptr24drop_in_place$LT$u64$GT$17h707625e6c97aabb3E", [16 x i8] c"\08\00\00\00\00\00\00\00\08\00\00\00\00\00\00\00", ptr @"_ZN4core3fmt3num50_$LT$impl$u20$core..fmt..Debug$u20$for$u20$u64$GT$3fmt17hb863c40d86c7fdd5E" }>, align 8, !dbg !61
@alloc602 = private unnamed_addr constant <{ [3 x i8] }> <{ [3 x i8] c"len" }>, align 1
@vtable.a = private constant <{ ptr, [16 x i8], ptr }> <{ ptr @"_ZN4core3ptr24drop_in_place$LT$u32$GT$17h3ddda93f5d2fc92fE", [16 x i8] c"\04\00\00\00\00\00\00\00\04\00\00\00\00\00\00\00", ptr @"_ZN4core3fmt3num50_$LT$impl$u20$core..fmt..Debug$u20$for$u20$u32$GT$3fmt17h5b1a2ebb45fc8c47E" }>, align 8, !dbg !69
@alloc607 = private unnamed_addr constant <{ [24 x i8] }> <{ [24 x i8] c"acpi_extended_attributes" }>, align 1
@vtable.b = private constant <{ ptr, [16 x i8], ptr }> <{ ptr @"_ZN4core3ptr28drop_in_place$LT$$RF$u32$GT$17h9f4315a52c3a60e0E", [16 x i8] c"\08\00\00\00\00\00\00\00\08\00\00\00\00\00\00\00", ptr @"_ZN42_$LT$$RF$T$u20$as$u20$core..fmt..Debug$GT$3fmt17h7f8fe1f5d6bf54ddE" }>, align 8, !dbg !77
@alloc612 = private unnamed_addr constant <{ [10 x i8] }> <{ [10 x i8] c"memory_map" }>, align 1
@vtable.c = private constant <{ ptr, [16 x i8], ptr }> <{ ptr @"_ZN4core3ptr64drop_in_place$LT$bootloader..bootinfo..memory_map..MemoryMap$GT$17hf1197bdd632281c1E", [16 x i8] c"\08\06\00\00\00\00\00\00\08\00\00\00\00\00\00\00", ptr @"_ZN80_$LT$bootloader..bootinfo..memory_map..MemoryMap$u20$as$u20$core..fmt..Debug$GT$3fmt17haef581e8293cb4faE" }>, align 8, !dbg !86
@alloc616 = private unnamed_addr constant <{ [12 x i8] }> <{ [12 x i8] c"tls_template" }>, align 1
@vtable.d = private constant <{ ptr, [16 x i8], ptr }> <{ ptr @"_ZN4core3ptr54drop_in_place$LT$bootloader..bootinfo..TlsTemplate$GT$17h283cfac31f5bb3e5E", [16 x i8] c"\18\00\00\00\00\00\00\00\08\00\00\00\00\00\00\00", ptr @"_ZN70_$LT$bootloader..bootinfo..TlsTemplate$u20$as$u20$core..fmt..Debug$GT$3fmt17h3e156cacff61ac68E" }>, align 8, !dbg !101
@alloc620 = private unnamed_addr constant <{ [15 x i8] }> <{ [15 x i8] c"_non_exhaustive" }>, align 1
@vtable.e = private constant <{ ptr, [16 x i8], ptr }> <{ ptr @"_ZN4core3ptr27drop_in_place$LT$$RF$u8$GT$17hece34ee525e599f5E", [16 x i8] c"\08\00\00\00\00\00\00\00\08\00\00\00\00\00\00\00", ptr @"_ZN42_$LT$$RF$T$u20$as$u20$core..fmt..Debug$GT$3fmt17he93ca6f7cd20c366E" }>, align 8, !dbg !114
@alloc624 = private unnamed_addr constant <{ [11 x i8] }> <{ [11 x i8] c"TlsTemplate" }>, align 1
@alloc626 = private unnamed_addr constant <{ [9 x i8] }> <{ [9 x i8] c"file_size" }>, align 1
@alloc627 = private unnamed_addr constant <{ [8 x i8] }> <{ [8 x i8] c"mem_size" }>, align 1
@vtable.f = private constant <{ ptr, [16 x i8], ptr }> <{ ptr @"_ZN4core3ptr28drop_in_place$LT$$RF$u64$GT$17ha705ee9fc1ef02fcE", [16 x i8] c"\08\00\00\00\00\00\00\00\08\00\00\00\00\00\00\00", ptr @"_ZN42_$LT$$RF$T$u20$as$u20$core..fmt..Debug$GT$3fmt17h344f5f5bec46977eE" }>, align 8, !dbg !124

; <core::ops::range::Range<usize> as core::slice::index::SliceIndex<[T]>>::get_unchecked
; Function Attrs: inlinehint noredzone nounwind
define { ptr, i64 } @"_ZN106_$LT$core..ops..range..Range$LT$usize$GT$$u20$as$u20$core..slice..index..SliceIndex$LT$$u5b$T$u5d$$GT$$GT$13get_unchecked17hb8f234a53d6bfd06E"(i64 %self.0, i64 %self.1, ptr %slice.0, i64 %slice.1) unnamed_addr #0 !dbg !163 {
start:
  %0 = alloca ptr, align 8
  %count.dbg.spill.i1 = alloca i64, align 8
  %self.dbg.spill.i2 = alloca ptr, align 8
  %count.dbg.spill.i = alloca i64, align 8
  %self.dbg.spill.i = alloca ptr, align 8
  %slice.dbg.spill.i = alloca { ptr, i64 }, align 8
  %this.dbg.spill.i = alloca { i64, i64 }, align 8
  %_4.i = alloca i8, align 1
  %slice.dbg.spill = alloca { ptr, i64 }, align 8
  %self.dbg.spill = alloca { i64, i64 }, align 8
  %_7 = alloca { { i64, i64 }, { ptr, i64 } }, align 8
  %this = alloca { i64, i64 }, align 8
  %1 = getelementptr inbounds { i64, i64 }, ptr %self.dbg.spill, i32 0, i32 0
  store i64 %self.0, ptr %1, align 8
  %2 = getelementptr inbounds { i64, i64 }, ptr %self.dbg.spill, i32 0, i32 1
  store i64 %self.1, ptr %2, align 8
  call void @llvm.dbg.declare(metadata ptr %self.dbg.spill, metadata !184, metadata !DIExpression()), !dbg !190
  %3 = getelementptr inbounds { ptr, i64 }, ptr %slice.dbg.spill, i32 0, i32 0
  store ptr %slice.0, ptr %3, align 8
  %4 = getelementptr inbounds { ptr, i64 }, ptr %slice.dbg.spill, i32 0, i32 1
  store i64 %slice.1, ptr %4, align 8
  call void @llvm.dbg.declare(metadata ptr %slice.dbg.spill, metadata !185, metadata !DIExpression()), !dbg !191
  call void @llvm.dbg.declare(metadata ptr %this, metadata !186, metadata !DIExpression()), !dbg !192
  store i64 %self.0, ptr %this, align 8, !dbg !193
  %5 = getelementptr inbounds { i64, i64 }, ptr %this, i32 0, i32 1, !dbg !193
  store i64 %self.1, ptr %5, align 8, !dbg !193
  %6 = getelementptr inbounds { i64, i64 }, ptr %this, i32 0, i32 0, !dbg !194
  %7 = load i64, ptr %6, align 8, !dbg !194, !noundef !24
  %8 = getelementptr inbounds { i64, i64 }, ptr %this, i32 0, i32 1, !dbg !194
  %9 = load i64, ptr %8, align 8, !dbg !194, !noundef !24
  %10 = getelementptr inbounds { i64, i64 }, ptr %_7, i32 0, i32 0, !dbg !194
  store i64 %7, ptr %10, align 8, !dbg !194
  %11 = getelementptr inbounds { i64, i64 }, ptr %_7, i32 0, i32 1, !dbg !194
  store i64 %9, ptr %11, align 8, !dbg !194
  %12 = getelementptr inbounds { { i64, i64 }, { ptr, i64 } }, ptr %_7, i32 0, i32 1, !dbg !194
  %13 = getelementptr inbounds { ptr, i64 }, ptr %12, i32 0, i32 0, !dbg !194
  store ptr %slice.0, ptr %13, align 8, !dbg !194
  %14 = getelementptr inbounds { ptr, i64 }, ptr %12, i32 0, i32 1, !dbg !194
  store i64 %slice.1, ptr %14, align 8, !dbg !194
  %15 = getelementptr inbounds { i64, i64 }, ptr %_7, i32 0, i32 0, !dbg !194
  %16 = load i64, ptr %15, align 8, !dbg !194, !noundef !24
  %17 = getelementptr inbounds { i64, i64 }, ptr %_7, i32 0, i32 1, !dbg !194
  %18 = load i64, ptr %17, align 8, !dbg !194, !noundef !24
  %19 = getelementptr inbounds { { i64, i64 }, { ptr, i64 } }, ptr %_7, i32 0, i32 1, !dbg !194
  %20 = getelementptr inbounds { ptr, i64 }, ptr %19, i32 0, i32 0, !dbg !194
  %21 = load ptr, ptr %20, align 8, !dbg !194, !noundef !24
  %22 = getelementptr inbounds { ptr, i64 }, ptr %19, i32 0, i32 1, !dbg !194
  %23 = load i64, ptr %22, align 8, !dbg !194, !noundef !24
  store i64 %16, ptr %this.dbg.spill.i, align 8
  %24 = getelementptr inbounds { i64, i64 }, ptr %this.dbg.spill.i, i32 0, i32 1
  store i64 %18, ptr %24, align 8
  call void @llvm.dbg.declare(metadata ptr %this.dbg.spill.i, metadata !195, metadata !DIExpression()), !dbg !203
  store ptr %21, ptr %slice.dbg.spill.i, align 8
  %25 = getelementptr inbounds { ptr, i64 }, ptr %slice.dbg.spill.i, i32 0, i32 1
  store i64 %23, ptr %25, align 8
  call void @llvm.dbg.declare(metadata ptr %slice.dbg.spill.i, metadata !202, metadata !DIExpression()), !dbg !203
  %_5.i = icmp uge i64 %18, %16, !dbg !205
  br i1 %_5.i, label %bb2.i, label %bb1.i, !dbg !205

bb1.i:                                            ; preds = %start
  store i8 0, ptr %_4.i, align 1, !dbg !205
  br label %bb3.i, !dbg !205

bb2.i:                                            ; preds = %start
; call core::ptr::const_ptr::<impl *const [T]>::len
  %_10.i = call i64 @"_ZN4core3ptr9const_ptr43_$LT$impl$u20$$BP$const$u20$$u5b$T$u5d$$GT$3len17h1865381c5371083cE"(ptr %21, i64 %23) #10, !dbg !207
  %_8.i = icmp ule i64 %18, %_10.i, !dbg !208
  %26 = zext i1 %_8.i to i8, !dbg !205
  store i8 %26, ptr %_4.i, align 1, !dbg !205
  br label %bb3.i, !dbg !205

bb3.i:                                            ; preds = %bb2.i, %bb1.i
  %27 = load i8, ptr %_4.i, align 1, !dbg !209, !range !210, !noundef !24
  %28 = trunc i8 %27 to i1, !dbg !209
  %_3.i = xor i1 %28, true, !dbg !209
  br i1 %_3.i, label %bb5.i, label %"_ZN106_$LT$core..ops..range..Range$LT$usize$GT$$u20$as$u20$core..slice..index..SliceIndex$LT$$u5b$T$u5d$$GT$$GT$13get_unchecked7runtime17hd10520e92da969e3E.exit", !dbg !209

bb5.i:                                            ; preds = %bb3.i
; call core::panicking::panic_nounwind
  call void @_ZN4core9panicking14panic_nounwind17h2659e8ef56e187b0E(ptr align 1 @alloc307, i64 97) #11, !dbg !211
  unreachable, !dbg !211

"_ZN106_$LT$core..ops..range..Range$LT$usize$GT$$u20$as$u20$core..slice..index..SliceIndex$LT$$u5b$T$u5d$$GT$$GT$13get_unchecked7runtime17hd10520e92da969e3E.exit": ; preds = %bb3.i
; call core::ptr::const_ptr::<impl *const [T]>::as_ptr
  %_9 = call ptr @"_ZN4core3ptr9const_ptr43_$LT$impl$u20$$BP$const$u20$$u5b$T$u5d$$GT$6as_ptr17haa644275dcb538efE"(ptr %slice.0, i64 %slice.1) #10, !dbg !212
  store ptr %_9, ptr %self.dbg.spill.i, align 8
  call void @llvm.dbg.declare(metadata ptr %self.dbg.spill.i, metadata !213, metadata !DIExpression()), !dbg !224
  store i64 %self.0, ptr %count.dbg.spill.i, align 8
  call void @llvm.dbg.declare(metadata ptr %count.dbg.spill.i, metadata !223, metadata !DIExpression()), !dbg !226
  store ptr %_9, ptr %self.dbg.spill.i2, align 8
  call void @llvm.dbg.declare(metadata ptr %self.dbg.spill.i2, metadata !227, metadata !DIExpression()), !dbg !234
  store i64 %self.0, ptr %count.dbg.spill.i1, align 8
  call void @llvm.dbg.declare(metadata ptr %count.dbg.spill.i1, metadata !233, metadata !DIExpression()), !dbg !236
  %29 = getelementptr inbounds %"bootinfo::memory_map::MemoryRegion", ptr %_9, i64 %self.0, !dbg !237
  store ptr %29, ptr %0, align 8, !dbg !237
  %30 = load ptr, ptr %0, align 8, !dbg !237, !noundef !24
  %_14.0 = sub i64 %self.1, %self.0, !dbg !238
  %_14.1 = icmp ult i64 %self.1, %self.0, !dbg !238
  %31 = call i1 @llvm.expect.i1(i1 %_14.1, i1 false), !dbg !238
  br i1 %31, label %panic, label %bb4, !dbg !238

bb4:                                              ; preds = %"_ZN106_$LT$core..ops..range..Range$LT$usize$GT$$u20$as$u20$core..slice..index..SliceIndex$LT$$u5b$T$u5d$$GT$$GT$13get_unchecked7runtime17hd10520e92da969e3E.exit"
; call core::ptr::slice_from_raw_parts
  %32 = call { ptr, i64 } @_ZN4core3ptr20slice_from_raw_parts17h81e5ec8f89303343E(ptr %30, i64 %_14.0) #10, !dbg !239
  %33 = extractvalue { ptr, i64 } %32, 0, !dbg !239
  %34 = extractvalue { ptr, i64 } %32, 1, !dbg !239
  %35 = insertvalue { ptr, i64 } undef, ptr %33, 0, !dbg !240
  %36 = insertvalue { ptr, i64 } %35, i64 %34, 1, !dbg !240
  ret { ptr, i64 } %36, !dbg !240

panic:                                            ; preds = %"_ZN106_$LT$core..ops..range..Range$LT$usize$GT$$u20$as$u20$core..slice..index..SliceIndex$LT$$u5b$T$u5d$$GT$$GT$13get_unchecked7runtime17hd10520e92da969e3E.exit"
; call core::panicking::panic
  call void @_ZN4core9panicking5panic17h2341ccf462e0c328E(ptr align 1 @str.0, i64 33, ptr align 8 @alloc306) #11, !dbg !238
  unreachable, !dbg !238
}

; <core::ops::range::Range<usize> as core::slice::index::SliceIndex<[T]>>::get_unchecked_mut
; Function Attrs: inlinehint noredzone nounwind
define { ptr, i64 } @"_ZN106_$LT$core..ops..range..Range$LT$usize$GT$$u20$as$u20$core..slice..index..SliceIndex$LT$$u5b$T$u5d$$GT$$GT$17get_unchecked_mut17h15f541329c45e716E"(i64 %self.0, i64 %self.1, ptr %slice.0, i64 %slice.1) unnamed_addr #0 !dbg !241 {
start:
  %self.dbg.spill.i5 = alloca { ptr, i64 }, align 8
  %self.dbg.spill.i4 = alloca { ptr, i64 }, align 8
  %0 = alloca ptr, align 8
  %count.dbg.spill.i1 = alloca i64, align 8
  %self.dbg.spill.i2 = alloca ptr, align 8
  %count.dbg.spill.i = alloca i64, align 8
  %self.dbg.spill.i = alloca ptr, align 8
  %slice.dbg.spill.i = alloca { ptr, i64 }, align 8
  %this.dbg.spill.i = alloca { i64, i64 }, align 8
  %_4.i = alloca i8, align 1
  %slice.dbg.spill = alloca { ptr, i64 }, align 8
  %self.dbg.spill = alloca { i64, i64 }, align 8
  %_7 = alloca { { i64, i64 }, { ptr, i64 } }, align 8
  %this = alloca { i64, i64 }, align 8
  %1 = getelementptr inbounds { i64, i64 }, ptr %self.dbg.spill, i32 0, i32 0
  store i64 %self.0, ptr %1, align 8
  %2 = getelementptr inbounds { i64, i64 }, ptr %self.dbg.spill, i32 0, i32 1
  store i64 %self.1, ptr %2, align 8
  call void @llvm.dbg.declare(metadata ptr %self.dbg.spill, metadata !249, metadata !DIExpression()), !dbg !253
  %3 = getelementptr inbounds { ptr, i64 }, ptr %slice.dbg.spill, i32 0, i32 0
  store ptr %slice.0, ptr %3, align 8
  %4 = getelementptr inbounds { ptr, i64 }, ptr %slice.dbg.spill, i32 0, i32 1
  store i64 %slice.1, ptr %4, align 8
  call void @llvm.dbg.declare(metadata ptr %slice.dbg.spill, metadata !250, metadata !DIExpression()), !dbg !254
  call void @llvm.dbg.declare(metadata ptr %this, metadata !251, metadata !DIExpression()), !dbg !255
  store i64 %self.0, ptr %this, align 8, !dbg !256
  %5 = getelementptr inbounds { i64, i64 }, ptr %this, i32 0, i32 1, !dbg !256
  store i64 %self.1, ptr %5, align 8, !dbg !256
  %6 = getelementptr inbounds { i64, i64 }, ptr %this, i32 0, i32 0, !dbg !257
  %7 = load i64, ptr %6, align 8, !dbg !257, !noundef !24
  %8 = getelementptr inbounds { i64, i64 }, ptr %this, i32 0, i32 1, !dbg !257
  %9 = load i64, ptr %8, align 8, !dbg !257, !noundef !24
  %10 = getelementptr inbounds { i64, i64 }, ptr %_7, i32 0, i32 0, !dbg !257
  store i64 %7, ptr %10, align 8, !dbg !257
  %11 = getelementptr inbounds { i64, i64 }, ptr %_7, i32 0, i32 1, !dbg !257
  store i64 %9, ptr %11, align 8, !dbg !257
  %12 = getelementptr inbounds { { i64, i64 }, { ptr, i64 } }, ptr %_7, i32 0, i32 1, !dbg !257
  %13 = getelementptr inbounds { ptr, i64 }, ptr %12, i32 0, i32 0, !dbg !257
  store ptr %slice.0, ptr %13, align 8, !dbg !257
  %14 = getelementptr inbounds { ptr, i64 }, ptr %12, i32 0, i32 1, !dbg !257
  store i64 %slice.1, ptr %14, align 8, !dbg !257
  %15 = getelementptr inbounds { i64, i64 }, ptr %_7, i32 0, i32 0, !dbg !257
  %16 = load i64, ptr %15, align 8, !dbg !257, !noundef !24
  %17 = getelementptr inbounds { i64, i64 }, ptr %_7, i32 0, i32 1, !dbg !257
  %18 = load i64, ptr %17, align 8, !dbg !257, !noundef !24
  %19 = getelementptr inbounds { { i64, i64 }, { ptr, i64 } }, ptr %_7, i32 0, i32 1, !dbg !257
  %20 = getelementptr inbounds { ptr, i64 }, ptr %19, i32 0, i32 0, !dbg !257
  %21 = load ptr, ptr %20, align 8, !dbg !257, !noundef !24
  %22 = getelementptr inbounds { ptr, i64 }, ptr %19, i32 0, i32 1, !dbg !257
  %23 = load i64, ptr %22, align 8, !dbg !257, !noundef !24
  store i64 %16, ptr %this.dbg.spill.i, align 8
  %24 = getelementptr inbounds { i64, i64 }, ptr %this.dbg.spill.i, i32 0, i32 1
  store i64 %18, ptr %24, align 8
  call void @llvm.dbg.declare(metadata ptr %this.dbg.spill.i, metadata !258, metadata !DIExpression()), !dbg !265
  store ptr %21, ptr %slice.dbg.spill.i, align 8
  %25 = getelementptr inbounds { ptr, i64 }, ptr %slice.dbg.spill.i, i32 0, i32 1
  store i64 %23, ptr %25, align 8
  call void @llvm.dbg.declare(metadata ptr %slice.dbg.spill.i, metadata !264, metadata !DIExpression()), !dbg !265
  %_5.i = icmp uge i64 %18, %16, !dbg !267
  br i1 %_5.i, label %bb2.i, label %bb1.i, !dbg !267

bb1.i:                                            ; preds = %start
  store i8 0, ptr %_4.i, align 1, !dbg !267
  br label %bb3.i, !dbg !267

bb2.i:                                            ; preds = %start
  store ptr %21, ptr %self.dbg.spill.i5, align 8
  %26 = getelementptr inbounds { ptr, i64 }, ptr %self.dbg.spill.i5, i32 0, i32 1
  store i64 %23, ptr %26, align 8
  call void @llvm.dbg.declare(metadata ptr %self.dbg.spill.i5, metadata !269, metadata !DIExpression()), !dbg !277
; call core::ptr::metadata::metadata
  %27 = call i64 @_ZN4core3ptr8metadata8metadata17h28e9a44b1a4defa6E(ptr %21, i64 %23) #10, !dbg !279
  %_8.i = icmp ule i64 %18, %27, !dbg !280
  %28 = zext i1 %_8.i to i8, !dbg !267
  store i8 %28, ptr %_4.i, align 1, !dbg !267
  br label %bb3.i, !dbg !267

bb3.i:                                            ; preds = %bb2.i, %bb1.i
  %29 = load i8, ptr %_4.i, align 1, !dbg !281, !range !210, !noundef !24
  %30 = trunc i8 %29 to i1, !dbg !281
  %_3.i = xor i1 %30, true, !dbg !281
  br i1 %_3.i, label %bb5.i, label %"_ZN106_$LT$core..ops..range..Range$LT$usize$GT$$u20$as$u20$core..slice..index..SliceIndex$LT$$u5b$T$u5d$$GT$$GT$17get_unchecked_mut7runtime17h98ec7ac4b28f8648E.exit", !dbg !281

bb5.i:                                            ; preds = %bb3.i
; call core::panicking::panic_nounwind
  call void @_ZN4core9panicking14panic_nounwind17h2659e8ef56e187b0E(ptr align 1 @alloc310, i64 101) #11, !dbg !282
  unreachable, !dbg !282

"_ZN106_$LT$core..ops..range..Range$LT$usize$GT$$u20$as$u20$core..slice..index..SliceIndex$LT$$u5b$T$u5d$$GT$$GT$17get_unchecked_mut7runtime17h98ec7ac4b28f8648E.exit": ; preds = %bb3.i
  store ptr %slice.0, ptr %self.dbg.spill.i4, align 8
  %31 = getelementptr inbounds { ptr, i64 }, ptr %self.dbg.spill.i4, i32 0, i32 1
  store i64 %slice.1, ptr %31, align 8
  call void @llvm.dbg.declare(metadata ptr %self.dbg.spill.i4, metadata !283, metadata !DIExpression()), !dbg !289
  store ptr %slice.0, ptr %self.dbg.spill.i, align 8
  call void @llvm.dbg.declare(metadata ptr %self.dbg.spill.i, metadata !291, metadata !DIExpression()), !dbg !298
  store i64 %self.0, ptr %count.dbg.spill.i, align 8
  call void @llvm.dbg.declare(metadata ptr %count.dbg.spill.i, metadata !297, metadata !DIExpression()), !dbg !300
  store ptr %slice.0, ptr %self.dbg.spill.i2, align 8
  call void @llvm.dbg.declare(metadata ptr %self.dbg.spill.i2, metadata !301, metadata !DIExpression()), !dbg !307
  store i64 %self.0, ptr %count.dbg.spill.i1, align 8
  call void @llvm.dbg.declare(metadata ptr %count.dbg.spill.i1, metadata !306, metadata !DIExpression()), !dbg !309
  %32 = getelementptr inbounds %"bootinfo::memory_map::MemoryRegion", ptr %slice.0, i64 %self.0, !dbg !310
  store ptr %32, ptr %0, align 8, !dbg !310
  %_3.i3 = load ptr, ptr %0, align 8, !dbg !310, !noundef !24
  %_14.0 = sub i64 %self.1, %self.0, !dbg !311
  %_14.1 = icmp ult i64 %self.1, %self.0, !dbg !311
  %33 = call i1 @llvm.expect.i1(i1 %_14.1, i1 false), !dbg !311
  br i1 %33, label %panic, label %bb4, !dbg !311

bb4:                                              ; preds = %"_ZN106_$LT$core..ops..range..Range$LT$usize$GT$$u20$as$u20$core..slice..index..SliceIndex$LT$$u5b$T$u5d$$GT$$GT$17get_unchecked_mut7runtime17h98ec7ac4b28f8648E.exit"
; call core::ptr::slice_from_raw_parts_mut
  %34 = call { ptr, i64 } @_ZN4core3ptr24slice_from_raw_parts_mut17h4f44642fed623530E(ptr %_3.i3, i64 %_14.0) #10, !dbg !312
  %35 = extractvalue { ptr, i64 } %34, 0, !dbg !312
  %36 = extractvalue { ptr, i64 } %34, 1, !dbg !312
  %37 = insertvalue { ptr, i64 } undef, ptr %35, 0, !dbg !313
  %38 = insertvalue { ptr, i64 } %37, i64 %36, 1, !dbg !313
  ret { ptr, i64 } %38, !dbg !313

panic:                                            ; preds = %"_ZN106_$LT$core..ops..range..Range$LT$usize$GT$$u20$as$u20$core..slice..index..SliceIndex$LT$$u5b$T$u5d$$GT$$GT$17get_unchecked_mut7runtime17h98ec7ac4b28f8648E.exit"
; call core::panicking::panic
  call void @_ZN4core9panicking5panic17h2341ccf462e0c328E(ptr align 1 @str.0, i64 33, ptr align 8 @alloc309) #11, !dbg !311
  unreachable, !dbg !311
}

; <core::ops::range::Range<usize> as core::slice::index::SliceIndex<[T]>>::index
; Function Attrs: inlinehint noredzone nounwind
define { ptr, i64 } @"_ZN106_$LT$core..ops..range..Range$LT$usize$GT$$u20$as$u20$core..slice..index..SliceIndex$LT$$u5b$T$u5d$$GT$$GT$5index17h287b66d601df05f8E"(i64 %self.0, i64 %self.1, ptr align 8 %slice.0, i64 %slice.1, ptr align 8 %0) unnamed_addr #0 !dbg !314 {
start:
  %slice.dbg.spill = alloca { ptr, i64 }, align 8
  %self.dbg.spill = alloca { i64, i64 }, align 8
  %1 = getelementptr inbounds { i64, i64 }, ptr %self.dbg.spill, i32 0, i32 0
  store i64 %self.0, ptr %1, align 8
  %2 = getelementptr inbounds { i64, i64 }, ptr %self.dbg.spill, i32 0, i32 1
  store i64 %self.1, ptr %2, align 8
  call void @llvm.dbg.declare(metadata ptr %self.dbg.spill, metadata !335, metadata !DIExpression()), !dbg !337
  %3 = getelementptr inbounds { ptr, i64 }, ptr %slice.dbg.spill, i32 0, i32 0
  store ptr %slice.0, ptr %3, align 8
  %4 = getelementptr inbounds { ptr, i64 }, ptr %slice.dbg.spill, i32 0, i32 1
  store i64 %slice.1, ptr %4, align 8
  call void @llvm.dbg.declare(metadata ptr %slice.dbg.spill, metadata !336, metadata !DIExpression()), !dbg !338
  %_3 = icmp ugt i64 %self.0, %self.1, !dbg !339
  br i1 %_3, label %bb1, label %bb2, !dbg !339

bb2:                                              ; preds = %start
  %_9 = icmp ugt i64 %self.1, %slice.1, !dbg !340
  br i1 %_9, label %bb3, label %bb4, !dbg !340

bb1:                                              ; preds = %start
; call core::slice::index::slice_index_order_fail
  call void @_ZN4core5slice5index22slice_index_order_fail17ha8d155eada135263E(i64 %self.0, i64 %self.1, ptr align 8 %0) #11, !dbg !341
  unreachable, !dbg !341

bb4:                                              ; preds = %bb2
; call <core::ops::range::Range<usize> as core::slice::index::SliceIndex<[T]>>::get_unchecked
  %5 = call { ptr, i64 } @"_ZN106_$LT$core..ops..range..Range$LT$usize$GT$$u20$as$u20$core..slice..index..SliceIndex$LT$$u5b$T$u5d$$GT$$GT$13get_unchecked17hb8f234a53d6bfd06E"(i64 %self.0, i64 %self.1, ptr %slice.0, i64 %slice.1) #10, !dbg !342
  %_15.0 = extractvalue { ptr, i64 } %5, 0, !dbg !342
  %_15.1 = extractvalue { ptr, i64 } %5, 1, !dbg !342
  %6 = insertvalue { ptr, i64 } undef, ptr %_15.0, 0, !dbg !343
  %7 = insertvalue { ptr, i64 } %6, i64 %_15.1, 1, !dbg !343
  ret { ptr, i64 } %7, !dbg !343

bb3:                                              ; preds = %bb2
; call core::slice::index::slice_end_index_len_fail
  call void @_ZN4core5slice5index24slice_end_index_len_fail17hd239870e8b428734E(i64 %self.1, i64 %slice.1, ptr align 8 %0) #11, !dbg !344
  unreachable, !dbg !344
}

; <core::ops::range::Range<usize> as core::slice::index::SliceIndex<[T]>>::index_mut
; Function Attrs: inlinehint noredzone nounwind
define { ptr, i64 } @"_ZN106_$LT$core..ops..range..Range$LT$usize$GT$$u20$as$u20$core..slice..index..SliceIndex$LT$$u5b$T$u5d$$GT$$GT$9index_mut17h997e6282d5db556bE"(i64 %self.0, i64 %self.1, ptr align 8 %slice.0, i64 %slice.1, ptr align 8 %0) unnamed_addr #0 !dbg !345 {
start:
  %slice.dbg.spill = alloca { ptr, i64 }, align 8
  %self.dbg.spill = alloca { i64, i64 }, align 8
  %1 = getelementptr inbounds { i64, i64 }, ptr %self.dbg.spill, i32 0, i32 0
  store i64 %self.0, ptr %1, align 8
  %2 = getelementptr inbounds { i64, i64 }, ptr %self.dbg.spill, i32 0, i32 1
  store i64 %self.1, ptr %2, align 8
  call void @llvm.dbg.declare(metadata ptr %self.dbg.spill, metadata !353, metadata !DIExpression()), !dbg !355
  %3 = getelementptr inbounds { ptr, i64 }, ptr %slice.dbg.spill, i32 0, i32 0
  store ptr %slice.0, ptr %3, align 8
  %4 = getelementptr inbounds { ptr, i64 }, ptr %slice.dbg.spill, i32 0, i32 1
  store i64 %slice.1, ptr %4, align 8
  call void @llvm.dbg.declare(metadata ptr %slice.dbg.spill, metadata !354, metadata !DIExpression()), !dbg !356
  %_3 = icmp ugt i64 %self.0, %self.1, !dbg !357
  br i1 %_3, label %bb1, label %bb2, !dbg !357

bb2:                                              ; preds = %start
  %_9 = icmp ugt i64 %self.1, %slice.1, !dbg !358
  br i1 %_9, label %bb3, label %bb4, !dbg !358

bb1:                                              ; preds = %start
; call core::slice::index::slice_index_order_fail
  call void @_ZN4core5slice5index22slice_index_order_fail17ha8d155eada135263E(i64 %self.0, i64 %self.1, ptr align 8 %0) #11, !dbg !359
  unreachable, !dbg !359

bb4:                                              ; preds = %bb2
; call <core::ops::range::Range<usize> as core::slice::index::SliceIndex<[T]>>::get_unchecked_mut
  %5 = call { ptr, i64 } @"_ZN106_$LT$core..ops..range..Range$LT$usize$GT$$u20$as$u20$core..slice..index..SliceIndex$LT$$u5b$T$u5d$$GT$$GT$17get_unchecked_mut17h15f541329c45e716E"(i64 %self.0, i64 %self.1, ptr %slice.0, i64 %slice.1) #10, !dbg !360
  %_17.0 = extractvalue { ptr, i64 } %5, 0, !dbg !360
  %_17.1 = extractvalue { ptr, i64 } %5, 1, !dbg !360
  %6 = insertvalue { ptr, i64 } undef, ptr %_17.0, 0, !dbg !361
  %7 = insertvalue { ptr, i64 } %6, i64 %_17.1, 1, !dbg !361
  ret { ptr, i64 } %7, !dbg !361

bb3:                                              ; preds = %bb2
; call core::slice::index::slice_end_index_len_fail
  call void @_ZN4core5slice5index24slice_end_index_len_fail17hd239870e8b428734E(i64 %self.1, i64 %slice.1, ptr align 8 %0) #11, !dbg !362
  unreachable, !dbg !362
}

; <core::ops::range::RangeTo<usize> as core::slice::index::SliceIndex<[T]>>::index_mut
; Function Attrs: inlinehint noredzone nounwind
define { ptr, i64 } @"_ZN108_$LT$core..ops..range..RangeTo$LT$usize$GT$$u20$as$u20$core..slice..index..SliceIndex$LT$$u5b$T$u5d$$GT$$GT$9index_mut17h5412c5f9bbbd53aeE"(i64 %self, ptr align 8 %slice.0, i64 %slice.1, ptr align 8 %0) unnamed_addr #0 !dbg !363 {
start:
  %slice.dbg.spill = alloca { ptr, i64 }, align 8
  %self.dbg.spill = alloca i64, align 8
  %_4 = alloca { i64, i64 }, align 8
  store i64 %self, ptr %self.dbg.spill, align 8
  call void @llvm.dbg.declare(metadata ptr %self.dbg.spill, metadata !371, metadata !DIExpression()), !dbg !373
  %1 = getelementptr inbounds { ptr, i64 }, ptr %slice.dbg.spill, i32 0, i32 0
  store ptr %slice.0, ptr %1, align 8
  %2 = getelementptr inbounds { ptr, i64 }, ptr %slice.dbg.spill, i32 0, i32 1
  store i64 %slice.1, ptr %2, align 8
  call void @llvm.dbg.declare(metadata ptr %slice.dbg.spill, metadata !372, metadata !DIExpression()), !dbg !374
  store i64 0, ptr %_4, align 8, !dbg !375
  %3 = getelementptr inbounds { i64, i64 }, ptr %_4, i32 0, i32 1, !dbg !375
  store i64 %self, ptr %3, align 8, !dbg !375
  %4 = getelementptr inbounds { i64, i64 }, ptr %_4, i32 0, i32 0, !dbg !375
  %5 = load i64, ptr %4, align 8, !dbg !375, !noundef !24
  %6 = getelementptr inbounds { i64, i64 }, ptr %_4, i32 0, i32 1, !dbg !375
  %7 = load i64, ptr %6, align 8, !dbg !375, !noundef !24
; call <core::ops::range::Range<usize> as core::slice::index::SliceIndex<[T]>>::index_mut
  %8 = call { ptr, i64 } @"_ZN106_$LT$core..ops..range..Range$LT$usize$GT$$u20$as$u20$core..slice..index..SliceIndex$LT$$u5b$T$u5d$$GT$$GT$9index_mut17h997e6282d5db556bE"(i64 %5, i64 %7, ptr align 8 %slice.0, i64 %slice.1, ptr align 8 %0) #10, !dbg !375
  %_3.0 = extractvalue { ptr, i64 } %8, 0, !dbg !375
  %_3.1 = extractvalue { ptr, i64 } %8, 1, !dbg !375
  %9 = insertvalue { ptr, i64 } undef, ptr %_3.0, 0, !dbg !376
  %10 = insertvalue { ptr, i64 } %9, i64 %_3.1, 1, !dbg !376
  ret { ptr, i64 } %10, !dbg !376
}

; <core::ops::range::RangeFrom<usize> as core::slice::index::SliceIndex<[T]>>::get_unchecked_mut
; Function Attrs: inlinehint noredzone nounwind
define { ptr, i64 } @"_ZN110_$LT$core..ops..range..RangeFrom$LT$usize$GT$$u20$as$u20$core..slice..index..SliceIndex$LT$$u5b$T$u5d$$GT$$GT$17get_unchecked_mut17h4d6bf24801eca16eE"(i64 %self, ptr %slice.0, i64 %slice.1) unnamed_addr #0 !dbg !377 {
start:
  %self.dbg.spill.i = alloca { ptr, i64 }, align 8
  %slice.dbg.spill = alloca { ptr, i64 }, align 8
  %self.dbg.spill = alloca i64, align 8
  %_3 = alloca { i64, i64 }, align 8
  store i64 %self, ptr %self.dbg.spill, align 8
  call void @llvm.dbg.declare(metadata ptr %self.dbg.spill, metadata !385, metadata !DIExpression()), !dbg !387
  %0 = getelementptr inbounds { ptr, i64 }, ptr %slice.dbg.spill, i32 0, i32 0
  store ptr %slice.0, ptr %0, align 8
  %1 = getelementptr inbounds { ptr, i64 }, ptr %slice.dbg.spill, i32 0, i32 1
  store i64 %slice.1, ptr %1, align 8
  call void @llvm.dbg.declare(metadata ptr %slice.dbg.spill, metadata !386, metadata !DIExpression()), !dbg !388
  store ptr %slice.0, ptr %self.dbg.spill.i, align 8
  %2 = getelementptr inbounds { ptr, i64 }, ptr %self.dbg.spill.i, i32 0, i32 1
  store i64 %slice.1, ptr %2, align 8
  call void @llvm.dbg.declare(metadata ptr %self.dbg.spill.i, metadata !269, metadata !DIExpression()), !dbg !389
; call core::ptr::metadata::metadata
  %3 = call i64 @_ZN4core3ptr8metadata8metadata17h28e9a44b1a4defa6E(ptr %slice.0, i64 %slice.1) #10, !dbg !391
  store i64 %self, ptr %_3, align 8, !dbg !392
  %4 = getelementptr inbounds { i64, i64 }, ptr %_3, i32 0, i32 1, !dbg !392
  store i64 %3, ptr %4, align 8, !dbg !392
  %5 = getelementptr inbounds { i64, i64 }, ptr %_3, i32 0, i32 0, !dbg !392
  %6 = load i64, ptr %5, align 8, !dbg !392, !noundef !24
  %7 = getelementptr inbounds { i64, i64 }, ptr %_3, i32 0, i32 1, !dbg !392
  %8 = load i64, ptr %7, align 8, !dbg !392, !noundef !24
; call <core::ops::range::Range<usize> as core::slice::index::SliceIndex<[T]>>::get_unchecked_mut
  %9 = call { ptr, i64 } @"_ZN106_$LT$core..ops..range..Range$LT$usize$GT$$u20$as$u20$core..slice..index..SliceIndex$LT$$u5b$T$u5d$$GT$$GT$17get_unchecked_mut17h15f541329c45e716E"(i64 %6, i64 %8, ptr %slice.0, i64 %slice.1) #10, !dbg !392
  %10 = extractvalue { ptr, i64 } %9, 0, !dbg !392
  %11 = extractvalue { ptr, i64 } %9, 1, !dbg !392
  %12 = insertvalue { ptr, i64 } undef, ptr %10, 0, !dbg !393
  %13 = insertvalue { ptr, i64 } %12, i64 %11, 1, !dbg !393
  ret { ptr, i64 } %13, !dbg !393
}

; <core::ops::range::RangeFrom<usize> as core::slice::index::SliceIndex<[T]>>::index_mut
; Function Attrs: inlinehint noredzone nounwind
define { ptr, i64 } @"_ZN110_$LT$core..ops..range..RangeFrom$LT$usize$GT$$u20$as$u20$core..slice..index..SliceIndex$LT$$u5b$T$u5d$$GT$$GT$9index_mut17h228b6d3bd03ce9c7E"(i64 %self, ptr align 8 %slice.0, i64 %slice.1, ptr align 8 %0) unnamed_addr #0 !dbg !394 {
start:
  %slice.dbg.spill = alloca { ptr, i64 }, align 8
  %self.dbg.spill = alloca i64, align 8
  store i64 %self, ptr %self.dbg.spill, align 8
  call void @llvm.dbg.declare(metadata ptr %self.dbg.spill, metadata !398, metadata !DIExpression()), !dbg !400
  %1 = getelementptr inbounds { ptr, i64 }, ptr %slice.dbg.spill, i32 0, i32 0
  store ptr %slice.0, ptr %1, align 8
  %2 = getelementptr inbounds { ptr, i64 }, ptr %slice.dbg.spill, i32 0, i32 1
  store i64 %slice.1, ptr %2, align 8
  call void @llvm.dbg.declare(metadata ptr %slice.dbg.spill, metadata !399, metadata !DIExpression()), !dbg !401
  %_3 = icmp ugt i64 %self, %slice.1, !dbg !402
  br i1 %_3, label %bb1, label %bb2, !dbg !402

bb2:                                              ; preds = %start
; call <core::ops::range::RangeFrom<usize> as core::slice::index::SliceIndex<[T]>>::get_unchecked_mut
  %3 = call { ptr, i64 } @"_ZN110_$LT$core..ops..range..RangeFrom$LT$usize$GT$$u20$as$u20$core..slice..index..SliceIndex$LT$$u5b$T$u5d$$GT$$GT$17get_unchecked_mut17h4d6bf24801eca16eE"(i64 %self, ptr %slice.0, i64 %slice.1) #10, !dbg !403
  %_11.0 = extractvalue { ptr, i64 } %3, 0, !dbg !403
  %_11.1 = extractvalue { ptr, i64 } %3, 1, !dbg !403
  %4 = insertvalue { ptr, i64 } undef, ptr %_11.0, 0, !dbg !404
  %5 = insertvalue { ptr, i64 } %4, i64 %_11.1, 1, !dbg !404
  ret { ptr, i64 } %5, !dbg !404

bb1:                                              ; preds = %start
; call core::slice::index::slice_start_index_len_fail
  call void @_ZN4core5slice5index26slice_start_index_len_fail17he99f38bedb4c6ea0E(i64 %self, i64 %slice.1, ptr align 8 %0) #11, !dbg !405
  unreachable, !dbg !405
}

; <core::ops::range::RangeInclusive<usize> as core::slice::index::SliceIndex<[T]>>::index_mut
; Function Attrs: inlinehint noredzone nounwind
define { ptr, i64 } @"_ZN115_$LT$core..ops..range..RangeInclusive$LT$usize$GT$$u20$as$u20$core..slice..index..SliceIndex$LT$$u5b$T$u5d$$GT$$GT$9index_mut17h9378c84f89e88f47E"(ptr %self, ptr align 8 %slice.0, i64 %slice.1, ptr align 8 %0) unnamed_addr #0 !dbg !406 {
start:
  %slice.dbg.spill = alloca { ptr, i64 }, align 8, !dbg !419
  call void @llvm.dbg.declare(metadata ptr %self, metadata !417, metadata !DIExpression()), !dbg !419
  %1 = getelementptr inbounds { ptr, i64 }, ptr %slice.dbg.spill, i32 0, i32 0
  store ptr %slice.0, ptr %1, align 8
  %2 = getelementptr inbounds { ptr, i64 }, ptr %slice.dbg.spill, i32 0, i32 1
  store i64 %slice.1, ptr %2, align 8
  call void @llvm.dbg.declare(metadata ptr %slice.dbg.spill, metadata !418, metadata !DIExpression()), !dbg !420
; call core::ops::range::RangeInclusive<Idx>::end
  %_5 = call align 8 ptr @"_ZN4core3ops5range25RangeInclusive$LT$Idx$GT$3end17h2a5a6aea613c6daaE"(ptr align 8 %self) #10, !dbg !421
  %_4 = load i64, ptr %_5, align 8, !dbg !422, !noundef !24
  %_3 = icmp eq i64 %_4, -1, !dbg !422
  br i1 %_3, label %bb2, label %bb3, !dbg !422

bb3:                                              ; preds = %start
; call core::ops::range::RangeInclusive<usize>::into_slice_range
  %3 = call { i64, i64 } @"_ZN4core3ops5range27RangeInclusive$LT$usize$GT$16into_slice_range17hac9cc18aac0fdaffE"(ptr %self) #10, !dbg !423
  %_9.0 = extractvalue { i64, i64 } %3, 0, !dbg !423
  %_9.1 = extractvalue { i64, i64 } %3, 1, !dbg !423
; call <core::ops::range::Range<usize> as core::slice::index::SliceIndex<[T]>>::index_mut
  %4 = call { ptr, i64 } @"_ZN106_$LT$core..ops..range..Range$LT$usize$GT$$u20$as$u20$core..slice..index..SliceIndex$LT$$u5b$T$u5d$$GT$$GT$9index_mut17h997e6282d5db556bE"(i64 %_9.0, i64 %_9.1, ptr align 8 %slice.0, i64 %slice.1, ptr align 8 %0) #10, !dbg !423
  %_8.0 = extractvalue { ptr, i64 } %4, 0, !dbg !423
  %_8.1 = extractvalue { ptr, i64 } %4, 1, !dbg !423
  %5 = insertvalue { ptr, i64 } undef, ptr %_8.0, 0, !dbg !424
  %6 = insertvalue { ptr, i64 } %5, i64 %_8.1, 1, !dbg !424
  ret { ptr, i64 } %6, !dbg !424

bb2:                                              ; preds = %start
; call core::slice::index::slice_end_index_overflow_fail
  call void @_ZN4core5slice5index29slice_end_index_overflow_fail17h991e77de43ce5040E(ptr align 8 %0) #11, !dbg !425
  unreachable, !dbg !425
}

; <core::ops::range::RangeToInclusive<usize> as core::slice::index::SliceIndex<[T]>>::index_mut
; Function Attrs: inlinehint noredzone nounwind
define { ptr, i64 } @"_ZN117_$LT$core..ops..range..RangeToInclusive$LT$usize$GT$$u20$as$u20$core..slice..index..SliceIndex$LT$$u5b$T$u5d$$GT$$GT$9index_mut17heb0f1984c841e2a1E"(i64 %self, ptr align 8 %slice.0, i64 %slice.1, ptr align 8 %0) unnamed_addr #0 !dbg !426 {
start:
  %slice.dbg.spill = alloca { ptr, i64 }, align 8
  %self.dbg.spill = alloca i64, align 8
  %_4 = alloca %"core::ops::range::RangeInclusive<usize>", align 8
  store i64 %self, ptr %self.dbg.spill, align 8
  call void @llvm.dbg.declare(metadata ptr %self.dbg.spill, metadata !434, metadata !DIExpression()), !dbg !436
  %1 = getelementptr inbounds { ptr, i64 }, ptr %slice.dbg.spill, i32 0, i32 0
  store ptr %slice.0, ptr %1, align 8
  %2 = getelementptr inbounds { ptr, i64 }, ptr %slice.dbg.spill, i32 0, i32 1
  store i64 %slice.1, ptr %2, align 8
  call void @llvm.dbg.declare(metadata ptr %slice.dbg.spill, metadata !435, metadata !DIExpression()), !dbg !437
; call core::ops::range::RangeInclusive<Idx>::new
  call void @"_ZN4core3ops5range25RangeInclusive$LT$Idx$GT$3new17h6649209037e05de7E"(ptr sret(%"core::ops::range::RangeInclusive<usize>") %_4, i64 0, i64 %self) #10, !dbg !438
; call <core::ops::range::RangeInclusive<usize> as core::slice::index::SliceIndex<[T]>>::index_mut
  %3 = call { ptr, i64 } @"_ZN115_$LT$core..ops..range..RangeInclusive$LT$usize$GT$$u20$as$u20$core..slice..index..SliceIndex$LT$$u5b$T$u5d$$GT$$GT$9index_mut17h9378c84f89e88f47E"(ptr %_4, ptr align 8 %slice.0, i64 %slice.1, ptr align 8 %0) #10, !dbg !438
  %_3.0 = extractvalue { ptr, i64 } %3, 0, !dbg !438
  %_3.1 = extractvalue { ptr, i64 } %3, 1, !dbg !438
  %4 = insertvalue { ptr, i64 } undef, ptr %_3.0, 0, !dbg !439
  %5 = insertvalue { ptr, i64 } %4, i64 %_3.1, 1, !dbg !439
  ret { ptr, i64 } %5, !dbg !439
}

; <&T as core::fmt::Debug>::fmt
; Function Attrs: noredzone nounwind
define zeroext i1 @"_ZN42_$LT$$RF$T$u20$as$u20$core..fmt..Debug$GT$3fmt17h6021ca7e6427facaE"(ptr align 8 %self, ptr align 8 %f) unnamed_addr #1 !dbg !440 {
start:
  %f.dbg.spill = alloca ptr, align 8
  %self.dbg.spill = alloca ptr, align 8
  store ptr %self, ptr %self.dbg.spill, align 8
  call void @llvm.dbg.declare(metadata ptr %self.dbg.spill, metadata !499, metadata !DIExpression()), !dbg !501
  store ptr %f, ptr %f.dbg.spill, align 8
  call void @llvm.dbg.declare(metadata ptr %f.dbg.spill, metadata !500, metadata !DIExpression()), !dbg !502
  %_3 = load ptr, ptr %self, align 8, !dbg !503, !nonnull !24, !align !504, !noundef !24
; call <bootloader::bootinfo::memory_map::MemoryRegion as core::fmt::Debug>::fmt
  %0 = call zeroext i1 @"_ZN83_$LT$bootloader..bootinfo..memory_map..MemoryRegion$u20$as$u20$core..fmt..Debug$GT$3fmt17h6cda603356b72d76E"(ptr align 8 %_3, ptr align 8 %f) #10, !dbg !505
  ret i1 %0, !dbg !506
}

; <&T as core::fmt::Debug>::fmt
; Function Attrs: noredzone nounwind
define zeroext i1 @"_ZN42_$LT$$RF$T$u20$as$u20$core..fmt..Debug$GT$3fmt17hb740925c6eb3f5d4E"(ptr align 8 %self, ptr align 8 %f) unnamed_addr #1 !dbg !507 {
start:
  %f.dbg.spill = alloca ptr, align 8
  %self.dbg.spill = alloca ptr, align 8
  store ptr %self, ptr %self.dbg.spill, align 8
  call void @llvm.dbg.declare(metadata ptr %self.dbg.spill, metadata !512, metadata !DIExpression()), !dbg !516
  store ptr %f, ptr %f.dbg.spill, align 8
  call void @llvm.dbg.declare(metadata ptr %f.dbg.spill, metadata !513, metadata !DIExpression()), !dbg !517
  %_3 = load ptr, ptr %self, align 8, !dbg !518, !nonnull !24, !align !519, !noundef !24
; call <bootloader::bootinfo::memory_map::MemoryRegionType as core::fmt::Debug>::fmt
  %0 = call zeroext i1 @"_ZN87_$LT$bootloader..bootinfo..memory_map..MemoryRegionType$u20$as$u20$core..fmt..Debug$GT$3fmt17hb288a4d2801ef922E"(ptr align 4 %_3, ptr align 8 %f) #10, !dbg !520
  ret i1 %0, !dbg !521
}

; core::intrinsics::is_nonoverlapping
; Function Attrs: noredzone nounwind
define zeroext i1 @_ZN4core10intrinsics17is_nonoverlapping17hadd98891bdebc46aE(ptr %src, ptr %dst, i64 %count) unnamed_addr #1 !dbg !522 {
start:
  %self.dbg.spill.i5 = alloca ptr, align 8
  %self.dbg.spill.i4 = alloca ptr, align 8
  %0 = alloca i64, align 8
  %self.dbg.spill.i2 = alloca ptr, align 8
  %1 = alloca i64, align 8
  %self.dbg.spill.i = alloca ptr, align 8
  %size.dbg.spill = alloca i64, align 8
  %dst_usize.dbg.spill = alloca i64, align 8
  %src_usize.dbg.spill = alloca i64, align 8
  %count.dbg.spill = alloca i64, align 8
  %dst.dbg.spill = alloca ptr, align 8
  %src.dbg.spill = alloca ptr, align 8
  %diff = alloca i64, align 8
  store ptr %src, ptr %src.dbg.spill, align 8
  call void @llvm.dbg.declare(metadata ptr %src.dbg.spill, metadata !527, metadata !DIExpression()), !dbg !538
  store ptr %dst, ptr %dst.dbg.spill, align 8
  call void @llvm.dbg.declare(metadata ptr %dst.dbg.spill, metadata !528, metadata !DIExpression()), !dbg !539
  store i64 %count, ptr %count.dbg.spill, align 8
  call void @llvm.dbg.declare(metadata ptr %count.dbg.spill, metadata !529, metadata !DIExpression()), !dbg !540
  call void @llvm.dbg.declare(metadata ptr %diff, metadata !536, metadata !DIExpression()), !dbg !541
  store ptr %src, ptr %self.dbg.spill.i2, align 8
  call void @llvm.dbg.declare(metadata ptr %self.dbg.spill.i2, metadata !542, metadata !DIExpression()), !dbg !547
  store ptr %src, ptr %self.dbg.spill.i4, align 8
  call void @llvm.dbg.declare(metadata ptr %self.dbg.spill.i4, metadata !549, metadata !DIExpression()), !dbg !556
  store ptr %src, ptr %0, align 8, !dbg !558
  %2 = load i64, ptr %0, align 8, !dbg !558, !noundef !24
  store i64 %2, ptr %src_usize.dbg.spill, align 8, !dbg !559
  call void @llvm.dbg.declare(metadata ptr %src_usize.dbg.spill, metadata !530, metadata !DIExpression()), !dbg !560
  store ptr %dst, ptr %self.dbg.spill.i, align 8
  call void @llvm.dbg.declare(metadata ptr %self.dbg.spill.i, metadata !542, metadata !DIExpression()), !dbg !561
  store ptr %dst, ptr %self.dbg.spill.i5, align 8
  call void @llvm.dbg.declare(metadata ptr %self.dbg.spill.i5, metadata !549, metadata !DIExpression()), !dbg !563
  store ptr %dst, ptr %1, align 8, !dbg !565
  %3 = load i64, ptr %1, align 8, !dbg !565, !noundef !24
  store i64 %3, ptr %dst_usize.dbg.spill, align 8, !dbg !566
  call void @llvm.dbg.declare(metadata ptr %dst_usize.dbg.spill, metadata !532, metadata !DIExpression()), !dbg !567
; call core::num::<impl usize>::checked_mul
  %4 = call { i64, i64 } @"_ZN4core3num23_$LT$impl$u20$usize$GT$11checked_mul17h72c30a1e2370563bE"(i64 24, i64 %count) #10, !dbg !568
  %_7.0 = extractvalue { i64, i64 } %4, 0, !dbg !568
  %_7.1 = extractvalue { i64, i64 } %4, 1, !dbg !568
; call core::option::Option<T>::unwrap
  %size = call i64 @"_ZN4core6option15Option$LT$T$GT$6unwrap17hd77e6df17bcce7e4E"(i64 %_7.0, i64 %_7.1, ptr align 8 @alloc312) #10, !dbg !568
  store i64 %size, ptr %size.dbg.spill, align 8, !dbg !568
  call void @llvm.dbg.declare(metadata ptr %size.dbg.spill, metadata !534, metadata !DIExpression()), !dbg !569
  %_10 = icmp ugt i64 %2, %3, !dbg !570
  br i1 %_10, label %bb6, label %bb8, !dbg !570

bb8:                                              ; preds = %start
  %_18.0 = sub i64 %3, %2, !dbg !571
  %_18.1 = icmp ult i64 %3, %2, !dbg !571
  %5 = call i1 @llvm.expect.i1(i1 %_18.1, i1 false), !dbg !571
  br i1 %5, label %panic1, label %bb9, !dbg !571

bb6:                                              ; preds = %start
  %_15.0 = sub i64 %2, %3, !dbg !572
  %_15.1 = icmp ult i64 %2, %3, !dbg !572
  %6 = call i1 @llvm.expect.i1(i1 %_15.1, i1 false), !dbg !572
  br i1 %6, label %panic, label %bb7, !dbg !572

bb7:                                              ; preds = %bb6
  store i64 %_15.0, ptr %diff, align 8, !dbg !572
  br label %bb10, !dbg !573

panic:                                            ; preds = %bb6
; call core::panicking::panic
  call void @_ZN4core9panicking5panic17h2341ccf462e0c328E(ptr align 1 @str.0, i64 33, ptr align 8 @alloc314) #11, !dbg !572
  unreachable, !dbg !572

bb10:                                             ; preds = %bb9, %bb7
  %_19 = load i64, ptr %diff, align 8, !dbg !574, !noundef !24
  %7 = icmp uge i64 %_19, %size, !dbg !574
  ret i1 %7, !dbg !575

bb9:                                              ; preds = %bb8
  store i64 %_18.0, ptr %diff, align 8, !dbg !571
  br label %bb10, !dbg !573

panic1:                                           ; preds = %bb8
; call core::panicking::panic
  call void @_ZN4core9panicking5panic17h2341ccf462e0c328E(ptr align 1 @str.0, i64 33, ptr align 8 @alloc316) #11, !dbg !571
  unreachable, !dbg !571
}

; core::intrinsics::copy_nonoverlapping
; Function Attrs: inlinehint noredzone nounwind
define void @_ZN4core10intrinsics19copy_nonoverlapping17hb745d534b1a3fc84E(ptr %src, ptr %dst, i64 %count) unnamed_addr #0 !dbg !576 {
start:
  %count.dbg.spill.i = alloca i64, align 8
  %dst.dbg.spill.i = alloca ptr, align 8
  %src.dbg.spill.i = alloca ptr, align 8
  %_6.i = alloca i8, align 1
  %_5.i = alloca i8, align 1
  %count.dbg.spill = alloca i64, align 8
  %dst.dbg.spill = alloca ptr, align 8
  %src.dbg.spill = alloca ptr, align 8
  %_5 = alloca { ptr, ptr, i64 }, align 8
  store ptr %src, ptr %src.dbg.spill, align 8
  call void @llvm.dbg.declare(metadata ptr %src.dbg.spill, metadata !580, metadata !DIExpression()), !dbg !583
  store ptr %dst, ptr %dst.dbg.spill, align 8
  call void @llvm.dbg.declare(metadata ptr %dst.dbg.spill, metadata !581, metadata !DIExpression()), !dbg !584
  store i64 %count, ptr %count.dbg.spill, align 8
  call void @llvm.dbg.declare(metadata ptr %count.dbg.spill, metadata !582, metadata !DIExpression()), !dbg !585
  store ptr %src, ptr %_5, align 8, !dbg !586
  %0 = getelementptr inbounds { ptr, ptr, i64 }, ptr %_5, i32 0, i32 1, !dbg !586
  store ptr %dst, ptr %0, align 8, !dbg !586
  %1 = getelementptr inbounds { ptr, ptr, i64 }, ptr %_5, i32 0, i32 2, !dbg !586
  store i64 %count, ptr %1, align 8, !dbg !586
  %2 = load ptr, ptr %_5, align 8, !dbg !586, !noundef !24
  %3 = getelementptr inbounds { ptr, ptr, i64 }, ptr %_5, i32 0, i32 1, !dbg !586
  %4 = load ptr, ptr %3, align 8, !dbg !586, !noundef !24
  %5 = getelementptr inbounds { ptr, ptr, i64 }, ptr %_5, i32 0, i32 2, !dbg !586
  %6 = load i64, ptr %5, align 8, !dbg !586, !noundef !24
  store ptr %2, ptr %src.dbg.spill.i, align 8
  call void @llvm.dbg.declare(metadata ptr %src.dbg.spill.i, metadata !587, metadata !DIExpression()), !dbg !593
  store ptr %4, ptr %dst.dbg.spill.i, align 8
  call void @llvm.dbg.declare(metadata ptr %dst.dbg.spill.i, metadata !591, metadata !DIExpression()), !dbg !593
  store i64 %6, ptr %count.dbg.spill.i, align 8
  call void @llvm.dbg.declare(metadata ptr %count.dbg.spill.i, metadata !592, metadata !DIExpression()), !dbg !593
; call core::intrinsics::is_aligned_and_not_null
  %_7.i = call zeroext i1 @_ZN4core10intrinsics23is_aligned_and_not_null17h6a60c6b4bab249b8E(ptr %2) #10, !dbg !595
  br i1 %_7.i, label %bb5.i, label %bb4.i, !dbg !595

bb4.i:                                            ; preds = %start
  store i8 0, ptr %_6.i, align 1, !dbg !595
  br label %bb6.i, !dbg !595

bb5.i:                                            ; preds = %start
; call core::intrinsics::is_aligned_and_not_null
  %_8.i = call zeroext i1 @_ZN4core10intrinsics23is_aligned_and_not_null17h6a60c6b4bab249b8E(ptr %4) #10, !dbg !596
  %7 = zext i1 %_8.i to i8, !dbg !595
  store i8 %7, ptr %_6.i, align 1, !dbg !595
  br label %bb6.i, !dbg !595

bb6.i:                                            ; preds = %bb5.i, %bb4.i
  %8 = load i8, ptr %_6.i, align 1, !dbg !595, !range !210, !noundef !24
  %9 = trunc i8 %8 to i1, !dbg !595
  br i1 %9, label %bb2.i, label %bb1.i, !dbg !595

bb1.i:                                            ; preds = %bb6.i
  store i8 0, ptr %_5.i, align 1, !dbg !595
  br label %bb3.i, !dbg !595

bb2.i:                                            ; preds = %bb6.i
; call core::intrinsics::is_nonoverlapping
  %_10.i = call zeroext i1 @_ZN4core10intrinsics17is_nonoverlapping17hadd98891bdebc46aE(ptr %2, ptr %4, i64 %6) #10, !dbg !597
  %10 = zext i1 %_10.i to i8, !dbg !595
  store i8 %10, ptr %_5.i, align 1, !dbg !595
  br label %bb3.i, !dbg !595

bb3.i:                                            ; preds = %bb2.i, %bb1.i
  %11 = load i8, ptr %_5.i, align 1, !dbg !598, !range !210, !noundef !24
  %12 = trunc i8 %11 to i1, !dbg !598
  %_4.i = xor i1 %12, true, !dbg !598
  br i1 %_4.i, label %bb10.i, label %_ZN4core10intrinsics19copy_nonoverlapping7runtime17h72501f1547f5aaeaE.exit, !dbg !598

bb10.i:                                           ; preds = %bb3.i
; call core::panicking::panic_nounwind
  call void @_ZN4core9panicking14panic_nounwind17h2659e8ef56e187b0E(ptr align 1 @alloc318, i64 166) #11, !dbg !599
  unreachable, !dbg !599

_ZN4core10intrinsics19copy_nonoverlapping7runtime17h72501f1547f5aaeaE.exit: ; preds = %bb3.i
  %13 = mul i64 %count, 24, !dbg !600
  call void @llvm.memcpy.p0.p0.i64(ptr align 8 %dst, ptr align 8 %src, i64 %13, i1 false), !dbg !600
  ret void, !dbg !601
}

; core::intrinsics::copy_nonoverlapping
; Function Attrs: inlinehint noredzone nounwind
define void @_ZN4core10intrinsics19copy_nonoverlapping17he6b556ffae8c6245E(ptr %src, ptr %dst, i64 %count) unnamed_addr #0 !dbg !602 {
start:
  %count.dbg.spill.i = alloca i64, align 8
  %dst.dbg.spill.i = alloca ptr, align 8
  %src.dbg.spill.i = alloca ptr, align 8
  %_6.i = alloca i8, align 1
  %_5.i = alloca i8, align 1
  %count.dbg.spill = alloca i64, align 8
  %dst.dbg.spill = alloca ptr, align 8
  %src.dbg.spill = alloca ptr, align 8
  %_5 = alloca { ptr, ptr, i64 }, align 8
  store ptr %src, ptr %src.dbg.spill, align 8
  call void @llvm.dbg.declare(metadata ptr %src.dbg.spill, metadata !608, metadata !DIExpression()), !dbg !611
  store ptr %dst, ptr %dst.dbg.spill, align 8
  call void @llvm.dbg.declare(metadata ptr %dst.dbg.spill, metadata !609, metadata !DIExpression()), !dbg !612
  store i64 %count, ptr %count.dbg.spill, align 8
  call void @llvm.dbg.declare(metadata ptr %count.dbg.spill, metadata !610, metadata !DIExpression()), !dbg !613
  store ptr %src, ptr %_5, align 8, !dbg !614
  %0 = getelementptr inbounds { ptr, ptr, i64 }, ptr %_5, i32 0, i32 1, !dbg !614
  store ptr %dst, ptr %0, align 8, !dbg !614
  %1 = getelementptr inbounds { ptr, ptr, i64 }, ptr %_5, i32 0, i32 2, !dbg !614
  store i64 %count, ptr %1, align 8, !dbg !614
  %2 = load ptr, ptr %_5, align 8, !dbg !614, !noundef !24
  %3 = getelementptr inbounds { ptr, ptr, i64 }, ptr %_5, i32 0, i32 1, !dbg !614
  %4 = load ptr, ptr %3, align 8, !dbg !614, !noundef !24
  %5 = getelementptr inbounds { ptr, ptr, i64 }, ptr %_5, i32 0, i32 2, !dbg !614
  %6 = load i64, ptr %5, align 8, !dbg !614, !noundef !24
  store ptr %2, ptr %src.dbg.spill.i, align 8
  call void @llvm.dbg.declare(metadata ptr %src.dbg.spill.i, metadata !615, metadata !DIExpression()), !dbg !620
  store ptr %4, ptr %dst.dbg.spill.i, align 8
  call void @llvm.dbg.declare(metadata ptr %dst.dbg.spill.i, metadata !618, metadata !DIExpression()), !dbg !620
  store i64 %6, ptr %count.dbg.spill.i, align 8
  call void @llvm.dbg.declare(metadata ptr %count.dbg.spill.i, metadata !619, metadata !DIExpression()), !dbg !620
; call core::intrinsics::is_aligned_and_not_null
  %_7.i = call zeroext i1 @_ZN4core10intrinsics23is_aligned_and_not_null17h9aaa14f864d28c75E(ptr %2) #10, !dbg !622
  br i1 %_7.i, label %bb5.i, label %bb4.i, !dbg !622

bb4.i:                                            ; preds = %start
  store i8 0, ptr %_6.i, align 1, !dbg !622
  br label %bb6.i, !dbg !622

bb5.i:                                            ; preds = %start
; call core::intrinsics::is_aligned_and_not_null
  %_8.i = call zeroext i1 @_ZN4core10intrinsics23is_aligned_and_not_null17h9aaa14f864d28c75E(ptr %4) #10, !dbg !623
  %7 = zext i1 %_8.i to i8, !dbg !622
  store i8 %7, ptr %_6.i, align 1, !dbg !622
  br label %bb6.i, !dbg !622

bb6.i:                                            ; preds = %bb5.i, %bb4.i
  %8 = load i8, ptr %_6.i, align 1, !dbg !622, !range !210, !noundef !24
  %9 = trunc i8 %8 to i1, !dbg !622
  br i1 %9, label %bb2.i, label %bb1.i, !dbg !622

bb1.i:                                            ; preds = %bb6.i
  store i8 0, ptr %_5.i, align 1, !dbg !622
  br label %bb3.i, !dbg !622

bb2.i:                                            ; preds = %bb6.i
; call core::intrinsics::is_nonoverlapping
  %_10.i = call zeroext i1 @_ZN4core10intrinsics17is_nonoverlapping17h58ef1f83be411d9fE(ptr %2, ptr %4, i64 %6) #10, !dbg !624
  %10 = zext i1 %_10.i to i8, !dbg !622
  store i8 %10, ptr %_5.i, align 1, !dbg !622
  br label %bb3.i, !dbg !622

bb3.i:                                            ; preds = %bb2.i, %bb1.i
  %11 = load i8, ptr %_5.i, align 1, !dbg !625, !range !210, !noundef !24
  %12 = trunc i8 %11 to i1, !dbg !625
  %_4.i = xor i1 %12, true, !dbg !625
  br i1 %_4.i, label %bb10.i, label %_ZN4core10intrinsics19copy_nonoverlapping7runtime17h5f2075035140fd79E.exit, !dbg !625

bb10.i:                                           ; preds = %bb3.i
; call core::panicking::panic_nounwind
  call void @_ZN4core9panicking14panic_nounwind17h2659e8ef56e187b0E(ptr align 1 @alloc318, i64 166) #11, !dbg !626
  unreachable, !dbg !626

_ZN4core10intrinsics19copy_nonoverlapping7runtime17h5f2075035140fd79E.exit: ; preds = %bb3.i
  %13 = mul i64 %count, 8, !dbg !627
  call void @llvm.memcpy.p0.p0.i64(ptr align 8 %dst, ptr align 8 %src, i64 %13, i1 false), !dbg !627
  ret void, !dbg !628
}

; core::intrinsics::is_aligned_and_not_null
; Function Attrs: noredzone nounwind
define zeroext i1 @_ZN4core10intrinsics23is_aligned_and_not_null17h6a60c6b4bab249b8E(ptr %ptr) unnamed_addr #1 !dbg !629 {
start:
  %ptr.dbg.spill = alloca ptr, align 8
  %0 = alloca i8, align 1
  store ptr %ptr, ptr %ptr.dbg.spill, align 8
  call void @llvm.dbg.declare(metadata ptr %ptr.dbg.spill, metadata !633, metadata !DIExpression()), !dbg !634
; call core::ptr::const_ptr::<impl *const T>::is_null
  %_3 = call zeroext i1 @"_ZN4core3ptr9const_ptr33_$LT$impl$u20$$BP$const$u20$T$GT$7is_null17h0ffc917f38722119E"(ptr %ptr) #10, !dbg !635
  %_2 = xor i1 %_3, true, !dbg !636
  br i1 %_2, label %bb2, label %bb1, !dbg !636

bb1:                                              ; preds = %start
  store i8 0, ptr %0, align 1, !dbg !636
  br label %bb3, !dbg !636

bb2:                                              ; preds = %start
; call core::ptr::const_ptr::<impl *const T>::is_aligned
  %_4 = call zeroext i1 @"_ZN4core3ptr9const_ptr33_$LT$impl$u20$$BP$const$u20$T$GT$10is_aligned17h012921aa164287ceE"(ptr %ptr) #10, !dbg !637
  %1 = zext i1 %_4 to i8, !dbg !636
  store i8 %1, ptr %0, align 1, !dbg !636
  br label %bb3, !dbg !636

bb3:                                              ; preds = %bb1, %bb2
  %2 = load i8, ptr %0, align 1, !dbg !638, !range !210, !noundef !24
  %3 = trunc i8 %2 to i1, !dbg !638
  ret i1 %3, !dbg !638
}

; core::intrinsics::is_aligned_and_not_null
; Function Attrs: noredzone nounwind
define zeroext i1 @_ZN4core10intrinsics23is_aligned_and_not_null17h826fcd3d06ba96b4E(ptr %ptr) unnamed_addr #1 !dbg !639 {
start:
  %ptr.dbg.spill = alloca ptr, align 8
  %0 = alloca i8, align 1
  store ptr %ptr, ptr %ptr.dbg.spill, align 8
  call void @llvm.dbg.declare(metadata ptr %ptr.dbg.spill, metadata !654, metadata !DIExpression()), !dbg !657
; call core::ptr::const_ptr::<impl *const T>::is_null
  %_3 = call zeroext i1 @"_ZN4core3ptr9const_ptr33_$LT$impl$u20$$BP$const$u20$T$GT$7is_null17h39beab9ca460943bE"(ptr %ptr) #10, !dbg !658
  %_2 = xor i1 %_3, true, !dbg !659
  br i1 %_2, label %bb2, label %bb1, !dbg !659

bb1:                                              ; preds = %start
  store i8 0, ptr %0, align 1, !dbg !659
  br label %bb3, !dbg !659

bb2:                                              ; preds = %start
; call core::ptr::const_ptr::<impl *const T>::is_aligned
  %_4 = call zeroext i1 @"_ZN4core3ptr9const_ptr33_$LT$impl$u20$$BP$const$u20$T$GT$10is_aligned17hcef368e9ddc423d6E"(ptr %ptr) #10, !dbg !660
  %1 = zext i1 %_4 to i8, !dbg !659
  store i8 %1, ptr %0, align 1, !dbg !659
  br label %bb3, !dbg !659

bb3:                                              ; preds = %bb1, %bb2
  %2 = load i8, ptr %0, align 1, !dbg !661, !range !210, !noundef !24
  %3 = trunc i8 %2 to i1, !dbg !661
  ret i1 %3, !dbg !661
}

; core::intrinsics::is_valid_allocation_size
; Function Attrs: noredzone nounwind
define zeroext i1 @_ZN4core10intrinsics24is_valid_allocation_size17hf4c172ba13be3f02E(i64 %len) unnamed_addr #1 !dbg !662 {
start:
  %max_len.dbg.spill = alloca i64, align 8
  %len.dbg.spill = alloca i64, align 8
  store i64 %len, ptr %len.dbg.spill, align 8
  call void @llvm.dbg.declare(metadata ptr %len.dbg.spill, metadata !666, metadata !DIExpression()), !dbg !669
  store i64 384307168202282325, ptr %max_len.dbg.spill, align 8, !dbg !670
  call void @llvm.dbg.declare(metadata ptr %max_len.dbg.spill, metadata !667, metadata !DIExpression()), !dbg !671
  %0 = icmp ule i64 %len, 384307168202282325, !dbg !672
  ret i1 %0, !dbg !673
}

; core::intrinsics::copy
; Function Attrs: inlinehint noredzone nounwind
define void @_ZN4core10intrinsics4copy17h9831803a7b3cada9E(ptr %src, ptr %dst, i64 %count) unnamed_addr #0 !dbg !674 {
start:
  %dst.dbg.spill.i = alloca ptr, align 8
  %src.dbg.spill.i = alloca ptr, align 8
  %_4.i = alloca i8, align 1
  %count.dbg.spill = alloca i64, align 8
  %dst.dbg.spill = alloca ptr, align 8
  %src.dbg.spill = alloca ptr, align 8
  %_5 = alloca { ptr, ptr }, align 8
  store ptr %src, ptr %src.dbg.spill, align 8
  call void @llvm.dbg.declare(metadata ptr %src.dbg.spill, metadata !676, metadata !DIExpression()), !dbg !679
  store ptr %dst, ptr %dst.dbg.spill, align 8
  call void @llvm.dbg.declare(metadata ptr %dst.dbg.spill, metadata !677, metadata !DIExpression()), !dbg !680
  store i64 %count, ptr %count.dbg.spill, align 8
  call void @llvm.dbg.declare(metadata ptr %count.dbg.spill, metadata !678, metadata !DIExpression()), !dbg !681
  store ptr %src, ptr %_5, align 8, !dbg !682
  %0 = getelementptr inbounds { ptr, ptr }, ptr %_5, i32 0, i32 1, !dbg !682
  store ptr %dst, ptr %0, align 8, !dbg !682
  %1 = load ptr, ptr %_5, align 8, !dbg !682, !noundef !24
  %2 = getelementptr inbounds { ptr, ptr }, ptr %_5, i32 0, i32 1, !dbg !682
  %3 = load ptr, ptr %2, align 8, !dbg !682, !noundef !24
  store ptr %1, ptr %src.dbg.spill.i, align 8
  call void @llvm.dbg.declare(metadata ptr %src.dbg.spill.i, metadata !683, metadata !DIExpression()), !dbg !690
  store ptr %3, ptr %dst.dbg.spill.i, align 8
  call void @llvm.dbg.declare(metadata ptr %dst.dbg.spill.i, metadata !689, metadata !DIExpression()), !dbg !690
; call core::intrinsics::is_aligned_and_not_null
  %_5.i = call zeroext i1 @_ZN4core10intrinsics23is_aligned_and_not_null17h9aaa14f864d28c75E(ptr %1) #10, !dbg !692
  br i1 %_5.i, label %bb2.i, label %bb1.i, !dbg !692

bb1.i:                                            ; preds = %start
  store i8 0, ptr %_4.i, align 1, !dbg !692
  br label %bb3.i, !dbg !692

bb2.i:                                            ; preds = %start
; call core::intrinsics::is_aligned_and_not_null
  %_6.i = call zeroext i1 @_ZN4core10intrinsics23is_aligned_and_not_null17h9aaa14f864d28c75E(ptr %3) #10, !dbg !693
  %4 = zext i1 %_6.i to i8, !dbg !692
  store i8 %4, ptr %_4.i, align 1, !dbg !692
  br label %bb3.i, !dbg !692

bb3.i:                                            ; preds = %bb2.i, %bb1.i
  %5 = load i8, ptr %_4.i, align 1, !dbg !694, !range !210, !noundef !24
  %6 = trunc i8 %5 to i1, !dbg !694
  %_3.i = xor i1 %6, true, !dbg !694
  br i1 %_3.i, label %bb6.i, label %_ZN4core10intrinsics4copy7runtime17ha701b94fc6bd3866E.exit, !dbg !694

bb6.i:                                            ; preds = %bb3.i
; call core::panicking::panic_nounwind
  call void @_ZN4core9panicking14panic_nounwind17h2659e8ef56e187b0E(ptr align 1 @alloc320, i64 112) #11, !dbg !695
  unreachable, !dbg !695

_ZN4core10intrinsics4copy7runtime17ha701b94fc6bd3866E.exit: ; preds = %bb3.i
  %7 = mul i64 8, %count, !dbg !696
  call void @llvm.memmove.p0.p0.i64(ptr align 8 %dst, ptr align 8 %src, i64 %7, i1 false), !dbg !696
  ret void, !dbg !697
}

; core::intrinsics::copy
; Function Attrs: inlinehint noredzone nounwind
define void @_ZN4core10intrinsics4copy17hc5335cd0346ba533E(ptr %src, ptr %dst, i64 %count) unnamed_addr #0 !dbg !698 {
start:
  %dst.dbg.spill.i = alloca ptr, align 8
  %src.dbg.spill.i = alloca ptr, align 8
  %_4.i = alloca i8, align 1
  %count.dbg.spill = alloca i64, align 8
  %dst.dbg.spill = alloca ptr, align 8
  %src.dbg.spill = alloca ptr, align 8
  %_5 = alloca { ptr, ptr }, align 8
  store ptr %src, ptr %src.dbg.spill, align 8
  call void @llvm.dbg.declare(metadata ptr %src.dbg.spill, metadata !700, metadata !DIExpression()), !dbg !703
  store ptr %dst, ptr %dst.dbg.spill, align 8
  call void @llvm.dbg.declare(metadata ptr %dst.dbg.spill, metadata !701, metadata !DIExpression()), !dbg !704
  store i64 %count, ptr %count.dbg.spill, align 8
  call void @llvm.dbg.declare(metadata ptr %count.dbg.spill, metadata !702, metadata !DIExpression()), !dbg !705
  store ptr %src, ptr %_5, align 8, !dbg !706
  %0 = getelementptr inbounds { ptr, ptr }, ptr %_5, i32 0, i32 1, !dbg !706
  store ptr %dst, ptr %0, align 8, !dbg !706
  %1 = load ptr, ptr %_5, align 8, !dbg !706, !noundef !24
  %2 = getelementptr inbounds { ptr, ptr }, ptr %_5, i32 0, i32 1, !dbg !706
  %3 = load ptr, ptr %2, align 8, !dbg !706, !noundef !24
  store ptr %1, ptr %src.dbg.spill.i, align 8
  call void @llvm.dbg.declare(metadata ptr %src.dbg.spill.i, metadata !707, metadata !DIExpression()), !dbg !713
  store ptr %3, ptr %dst.dbg.spill.i, align 8
  call void @llvm.dbg.declare(metadata ptr %dst.dbg.spill.i, metadata !712, metadata !DIExpression()), !dbg !713
; call core::intrinsics::is_aligned_and_not_null
  %_5.i = call zeroext i1 @_ZN4core10intrinsics23is_aligned_and_not_null17h6a60c6b4bab249b8E(ptr %1) #10, !dbg !715
  br i1 %_5.i, label %bb2.i, label %bb1.i, !dbg !715

bb1.i:                                            ; preds = %start
  store i8 0, ptr %_4.i, align 1, !dbg !715
  br label %bb3.i, !dbg !715

bb2.i:                                            ; preds = %start
; call core::intrinsics::is_aligned_and_not_null
  %_6.i = call zeroext i1 @_ZN4core10intrinsics23is_aligned_and_not_null17h6a60c6b4bab249b8E(ptr %3) #10, !dbg !716
  %4 = zext i1 %_6.i to i8, !dbg !715
  store i8 %4, ptr %_4.i, align 1, !dbg !715
  br label %bb3.i, !dbg !715

bb3.i:                                            ; preds = %bb2.i, %bb1.i
  %5 = load i8, ptr %_4.i, align 1, !dbg !717, !range !210, !noundef !24
  %6 = trunc i8 %5 to i1, !dbg !717
  %_3.i = xor i1 %6, true, !dbg !717
  br i1 %_3.i, label %bb6.i, label %_ZN4core10intrinsics4copy7runtime17h76ee47e5dba4e515E.exit, !dbg !717

bb6.i:                                            ; preds = %bb3.i
; call core::panicking::panic_nounwind
  call void @_ZN4core9panicking14panic_nounwind17h2659e8ef56e187b0E(ptr align 1 @alloc320, i64 112) #11, !dbg !718
  unreachable, !dbg !718

_ZN4core10intrinsics4copy7runtime17h76ee47e5dba4e515E.exit: ; preds = %bb3.i
  %7 = mul i64 24, %count, !dbg !719
  call void @llvm.memmove.p0.p0.i64(ptr align 8 %dst, ptr align 8 %src, i64 %7, i1 false), !dbg !719
  ret void, !dbg !720
}

; core::cmp::impls::<impl core::cmp::Ord for u64>::cmp
; Function Attrs: inlinehint noredzone nounwind
define internal i8 @"_ZN4core3cmp5impls48_$LT$impl$u20$core..cmp..Ord$u20$for$u20$u64$GT$3cmp17h20daabefeafea6fcE"(ptr align 8 %self, ptr align 8 %other) unnamed_addr #0 !dbg !721 {
start:
  %other.dbg.spill = alloca ptr, align 8
  %self.dbg.spill = alloca ptr, align 8
  %0 = alloca i8, align 1
  store ptr %self, ptr %self.dbg.spill, align 8
  call void @llvm.dbg.declare(metadata ptr %self.dbg.spill, metadata !728, metadata !DIExpression()), !dbg !730
  store ptr %other, ptr %other.dbg.spill, align 8
  call void @llvm.dbg.declare(metadata ptr %other.dbg.spill, metadata !729, metadata !DIExpression()), !dbg !731
  %_4 = load i64, ptr %self, align 8, !dbg !732, !noundef !24
  %_5 = load i64, ptr %other, align 8, !dbg !733, !noundef !24
  %_3 = icmp ult i64 %_4, %_5, !dbg !732
  br i1 %_3, label %bb1, label %bb2, !dbg !732

bb2:                                              ; preds = %start
  %_7 = load i64, ptr %self, align 8, !dbg !734, !noundef !24
  %_8 = load i64, ptr %other, align 8, !dbg !735, !noundef !24
  %_6 = icmp eq i64 %_7, %_8, !dbg !734
  br i1 %_6, label %bb3, label %bb4, !dbg !734

bb1:                                              ; preds = %start
  store i8 -1, ptr %0, align 1, !dbg !736
  br label %bb5, !dbg !737

bb5:                                              ; preds = %bb4, %bb3, %bb1
  %1 = load i8, ptr %0, align 1, !dbg !738, !range !739, !noundef !24
  ret i8 %1, !dbg !738

bb4:                                              ; preds = %bb2
  store i8 1, ptr %0, align 1, !dbg !740
  br label %bb5, !dbg !741

bb3:                                              ; preds = %bb2
  store i8 0, ptr %0, align 1, !dbg !742
  br label %bb5, !dbg !741
}

; core::fmt::ArgumentV1::new_lower_hex
; Function Attrs: inlinehint noredzone nounwind
define { ptr, ptr } @_ZN4core3fmt10ArgumentV113new_lower_hex17h433ba05b4d707d9bE(ptr align 8 %x) unnamed_addr #0 !dbg !743 {
start:
  %x.dbg.spill = alloca ptr, align 8
  store ptr %x, ptr %x.dbg.spill, align 8
  call void @llvm.dbg.declare(metadata ptr %x.dbg.spill, metadata !757, metadata !DIExpression()), !dbg !760
; call core::fmt::ArgumentV1::new
  %0 = call { ptr, ptr } @_ZN4core3fmt10ArgumentV13new17he5efe772e33215bdE(ptr align 8 %x, ptr @"_ZN4core3fmt3num53_$LT$impl$u20$core..fmt..LowerHex$u20$for$u20$u64$GT$3fmt17hbc14bafef08aa5b6E") #10, !dbg !761
  %1 = extractvalue { ptr, ptr } %0, 0, !dbg !761
  %2 = extractvalue { ptr, ptr } %0, 1, !dbg !761
  %3 = insertvalue { ptr, ptr } undef, ptr %1, 0, !dbg !762
  %4 = insertvalue { ptr, ptr } %3, ptr %2, 1, !dbg !762
  ret { ptr, ptr } %4, !dbg !762
}

; core::fmt::num::<impl core::fmt::Debug for u32>::fmt
; Function Attrs: inlinehint noredzone nounwind
define internal zeroext i1 @"_ZN4core3fmt3num50_$LT$impl$u20$core..fmt..Debug$u20$for$u20$u32$GT$3fmt17h5b1a2ebb45fc8c47E"(ptr align 4 %self, ptr align 8 %f) unnamed_addr #0 !dbg !763 {
start:
  %f.dbg.spill = alloca ptr, align 8
  %self.dbg.spill = alloca ptr, align 8
  %0 = alloca i8, align 1
  store ptr %self, ptr %self.dbg.spill, align 8
  call void @llvm.dbg.declare(metadata ptr %self.dbg.spill, metadata !770, metadata !DIExpression()), !dbg !772
  store ptr %f, ptr %f.dbg.spill, align 8
  call void @llvm.dbg.declare(metadata ptr %f.dbg.spill, metadata !771, metadata !DIExpression()), !dbg !773
; call core::fmt::Formatter::debug_lower_hex
  %_3 = call zeroext i1 @_ZN4core3fmt9Formatter15debug_lower_hex17h72a5cea0ccf13146E(ptr align 8 %f) #10, !dbg !774
  br i1 %_3, label %bb2, label %bb3, !dbg !774

bb3:                                              ; preds = %start
; call core::fmt::Formatter::debug_upper_hex
  %_5 = call zeroext i1 @_ZN4core3fmt9Formatter15debug_upper_hex17h9a19d6967cce92e6E(ptr align 8 %f) #10, !dbg !775
  br i1 %_5, label %bb5, label %bb6, !dbg !775

bb2:                                              ; preds = %start
; call core::fmt::num::<impl core::fmt::LowerHex for u32>::fmt
  %1 = call zeroext i1 @"_ZN4core3fmt3num53_$LT$impl$u20$core..fmt..LowerHex$u20$for$u20$u32$GT$3fmt17h7320ebe70fc26996E"(ptr align 4 %self, ptr align 8 %f) #10, !dbg !776
  %2 = zext i1 %1 to i8, !dbg !776
  store i8 %2, ptr %0, align 1, !dbg !776
  br label %bb7, !dbg !776

bb7:                                              ; preds = %bb6, %bb5, %bb2
  %3 = load i8, ptr %0, align 1, !dbg !777, !range !210, !noundef !24
  %4 = trunc i8 %3 to i1, !dbg !777
  ret i1 %4, !dbg !777

bb6:                                              ; preds = %bb3
; call core::fmt::num::imp::<impl core::fmt::Display for u32>::fmt
  %5 = call zeroext i1 @"_ZN4core3fmt3num3imp52_$LT$impl$u20$core..fmt..Display$u20$for$u20$u32$GT$3fmt17h5b7faf12be3a5f79E"(ptr align 4 %self, ptr align 8 %f) #10, !dbg !778
  %6 = zext i1 %5 to i8, !dbg !778
  store i8 %6, ptr %0, align 1, !dbg !778
  br label %bb7, !dbg !778

bb5:                                              ; preds = %bb3
; call core::fmt::num::<impl core::fmt::UpperHex for u32>::fmt
  %7 = call zeroext i1 @"_ZN4core3fmt3num53_$LT$impl$u20$core..fmt..UpperHex$u20$for$u20$u32$GT$3fmt17h1980389e98a5a39dE"(ptr align 4 %self, ptr align 8 %f) #10, !dbg !779
  %8 = zext i1 %7 to i8, !dbg !779
  store i8 %8, ptr %0, align 1, !dbg !779
  br label %bb7, !dbg !779
}

; core::fmt::num::<impl core::fmt::Debug for u64>::fmt
; Function Attrs: inlinehint noredzone nounwind
define internal zeroext i1 @"_ZN4core3fmt3num50_$LT$impl$u20$core..fmt..Debug$u20$for$u20$u64$GT$3fmt17hb863c40d86c7fdd5E"(ptr align 8 %self, ptr align 8 %f) unnamed_addr #0 !dbg !780 {
start:
  %f.dbg.spill = alloca ptr, align 8
  %self.dbg.spill = alloca ptr, align 8
  %0 = alloca i8, align 1
  store ptr %self, ptr %self.dbg.spill, align 8
  call void @llvm.dbg.declare(metadata ptr %self.dbg.spill, metadata !785, metadata !DIExpression()), !dbg !787
  store ptr %f, ptr %f.dbg.spill, align 8
  call void @llvm.dbg.declare(metadata ptr %f.dbg.spill, metadata !786, metadata !DIExpression()), !dbg !788
; call core::fmt::Formatter::debug_lower_hex
  %_3 = call zeroext i1 @_ZN4core3fmt9Formatter15debug_lower_hex17h72a5cea0ccf13146E(ptr align 8 %f) #10, !dbg !789
  br i1 %_3, label %bb2, label %bb3, !dbg !789

bb3:                                              ; preds = %start
; call core::fmt::Formatter::debug_upper_hex
  %_5 = call zeroext i1 @_ZN4core3fmt9Formatter15debug_upper_hex17h9a19d6967cce92e6E(ptr align 8 %f) #10, !dbg !790
  br i1 %_5, label %bb5, label %bb6, !dbg !790

bb2:                                              ; preds = %start
; call core::fmt::num::<impl core::fmt::LowerHex for u64>::fmt
  %1 = call zeroext i1 @"_ZN4core3fmt3num53_$LT$impl$u20$core..fmt..LowerHex$u20$for$u20$u64$GT$3fmt17hbc14bafef08aa5b6E"(ptr align 8 %self, ptr align 8 %f) #10, !dbg !791
  %2 = zext i1 %1 to i8, !dbg !791
  store i8 %2, ptr %0, align 1, !dbg !791
  br label %bb7, !dbg !791

bb7:                                              ; preds = %bb6, %bb5, %bb2
  %3 = load i8, ptr %0, align 1, !dbg !792, !range !210, !noundef !24
  %4 = trunc i8 %3 to i1, !dbg !792
  ret i1 %4, !dbg !792

bb6:                                              ; preds = %bb3
; call core::fmt::num::imp::<impl core::fmt::Display for u64>::fmt
  %5 = call zeroext i1 @"_ZN4core3fmt3num3imp52_$LT$impl$u20$core..fmt..Display$u20$for$u20$u64$GT$3fmt17h0343eb9916347eb4E"(ptr align 8 %self, ptr align 8 %f) #10, !dbg !793
  %6 = zext i1 %5 to i8, !dbg !793
  store i8 %6, ptr %0, align 1, !dbg !793
  br label %bb7, !dbg !793

bb5:                                              ; preds = %bb3
; call core::fmt::num::<impl core::fmt::UpperHex for u64>::fmt
  %7 = call zeroext i1 @"_ZN4core3fmt3num53_$LT$impl$u20$core..fmt..UpperHex$u20$for$u20$u64$GT$3fmt17h9e931a554398795cE"(ptr align 8 %self, ptr align 8 %f) #10, !dbg !794
  %8 = zext i1 %7 to i8, !dbg !794
  store i8 %8, ptr %0, align 1, !dbg !794
  br label %bb7, !dbg !794
}

; core::fmt::builders::DebugList::entries
; Function Attrs: noredzone nounwind
define align 8 ptr @_ZN4core3fmt8builders9DebugList7entries17h3b408f9ace557e17E(ptr align 8 %self, ptr %entries.0, ptr %entries.1) unnamed_addr #1 !dbg !795 {
start:
  %entries.dbg.spill = alloca { ptr, ptr }, align 8
  %self.dbg.spill = alloca ptr, align 8
  %entry = alloca ptr, align 8
  %_5 = alloca ptr, align 8
  %iter = alloca { ptr, ptr }, align 8
  store ptr %self, ptr %self.dbg.spill, align 8
  call void @llvm.dbg.declare(metadata ptr %self.dbg.spill, metadata !824, metadata !DIExpression()), !dbg !833
  %0 = getelementptr inbounds { ptr, ptr }, ptr %entries.dbg.spill, i32 0, i32 0
  store ptr %entries.0, ptr %0, align 8
  %1 = getelementptr inbounds { ptr, ptr }, ptr %entries.dbg.spill, i32 0, i32 1
  store ptr %entries.1, ptr %1, align 8
  call void @llvm.dbg.declare(metadata ptr %entries.dbg.spill, metadata !825, metadata !DIExpression()), !dbg !834
  call void @llvm.dbg.declare(metadata ptr %iter, metadata !826, metadata !DIExpression()), !dbg !835
  call void @llvm.dbg.declare(metadata ptr %entry, metadata !828, metadata !DIExpression()), !dbg !836
; call <I as core::iter::traits::collect::IntoIterator>::into_iter
  %2 = call { ptr, ptr } @"_ZN63_$LT$I$u20$as$u20$core..iter..traits..collect..IntoIterator$GT$9into_iter17h68016ab3f09a4ae3E"(ptr %entries.0, ptr %entries.1) #10, !dbg !837
  %_3.0 = extractvalue { ptr, ptr } %2, 0, !dbg !837
  %_3.1 = extractvalue { ptr, ptr } %2, 1, !dbg !837
  %3 = getelementptr inbounds { ptr, ptr }, ptr %iter, i32 0, i32 0, !dbg !837
  store ptr %_3.0, ptr %3, align 8, !dbg !837
  %4 = getelementptr inbounds { ptr, ptr }, ptr %iter, i32 0, i32 1, !dbg !837
  store ptr %_3.1, ptr %4, align 8, !dbg !837
  br label %bb2, !dbg !838

bb2:                                              ; preds = %bb4, %start
; call <core::slice::iter::Iter<T> as core::iter::traits::iterator::Iterator>::next
  %5 = call align 8 ptr @"_ZN91_$LT$core..slice..iter..Iter$LT$T$GT$$u20$as$u20$core..iter..traits..iterator..Iterator$GT$4next17h20e1df60141b61e8E"(ptr align 8 %iter) #10, !dbg !835
  store ptr %5, ptr %_5, align 8, !dbg !835
  %6 = load ptr, ptr %_5, align 8, !dbg !835, !noundef !24
  %7 = ptrtoint ptr %6 to i64, !dbg !835
  %8 = icmp eq i64 %7, 0, !dbg !835
  %_7 = select i1 %8, i64 0, i64 1, !dbg !835
  %9 = icmp eq i64 %_7, 0, !dbg !835
  br i1 %9, label %bb6, label %bb4, !dbg !835

bb6:                                              ; preds = %bb2
  ret ptr %self, !dbg !839

bb4:                                              ; preds = %bb2
  %10 = load ptr, ptr %_5, align 8, !dbg !840, !nonnull !24, !align !504, !noundef !24
  store ptr %10, ptr %entry, align 8, !dbg !840
; call core::fmt::builders::DebugList::entry
  %_9 = call align 8 ptr @_ZN4core3fmt8builders9DebugList5entry17h9a76c3bde925a24eE(ptr align 8 %self, ptr align 1 %entry, ptr align 8 @vtable.1) #10, !dbg !841
  br label %bb2, !dbg !842

bb5:                                              ; No predecessors!
  unreachable, !dbg !835
}

; core::fmt::Arguments::new_v1_formatted
; Function Attrs: inlinehint noredzone nounwind
define internal void @_ZN4core3fmt9Arguments16new_v1_formatted17h34d6d65ca81cd693E(ptr sret(%"core::fmt::Arguments<'_>") %0, ptr align 8 %pieces.0, i64 %pieces.1, ptr align 8 %args.0, i64 %args.1, ptr align 8 %fmt.0, i64 %fmt.1) unnamed_addr #0 !dbg !843 {
start:
  %_unsafe_arg.dbg.spill = alloca %"core::fmt::UnsafeArg", align 1
  %fmt.dbg.spill = alloca { ptr, i64 }, align 8
  %args.dbg.spill = alloca { ptr, i64 }, align 8
  %pieces.dbg.spill = alloca { ptr, i64 }, align 8
  %_5 = alloca { ptr, i64 }, align 8
  %1 = getelementptr inbounds { ptr, i64 }, ptr %pieces.dbg.spill, i32 0, i32 0
  store ptr %pieces.0, ptr %1, align 8
  %2 = getelementptr inbounds { ptr, i64 }, ptr %pieces.dbg.spill, i32 0, i32 1
  store i64 %pieces.1, ptr %2, align 8
  call void @llvm.dbg.declare(metadata ptr %pieces.dbg.spill, metadata !909, metadata !DIExpression()), !dbg !913
  %3 = getelementptr inbounds { ptr, i64 }, ptr %args.dbg.spill, i32 0, i32 0
  store ptr %args.0, ptr %3, align 8
  %4 = getelementptr inbounds { ptr, i64 }, ptr %args.dbg.spill, i32 0, i32 1
  store i64 %args.1, ptr %4, align 8
  call void @llvm.dbg.declare(metadata ptr %args.dbg.spill, metadata !910, metadata !DIExpression()), !dbg !914
  %5 = getelementptr inbounds { ptr, i64 }, ptr %fmt.dbg.spill, i32 0, i32 0
  store ptr %fmt.0, ptr %5, align 8
  %6 = getelementptr inbounds { ptr, i64 }, ptr %fmt.dbg.spill, i32 0, i32 1
  store i64 %fmt.1, ptr %6, align 8
  call void @llvm.dbg.declare(metadata ptr %fmt.dbg.spill, metadata !911, metadata !DIExpression()), !dbg !915
  call void @llvm.dbg.declare(metadata ptr %_unsafe_arg.dbg.spill, metadata !912, metadata !DIExpression()), !dbg !916
  %7 = getelementptr inbounds { ptr, i64 }, ptr %_5, i32 0, i32 0, !dbg !917
  store ptr %fmt.0, ptr %7, align 8, !dbg !917
  %8 = getelementptr inbounds { ptr, i64 }, ptr %_5, i32 0, i32 1, !dbg !917
  store i64 %fmt.1, ptr %8, align 8, !dbg !917
  %9 = getelementptr inbounds %"core::fmt::Arguments<'_>", ptr %0, i32 0, i32 1, !dbg !918
  %10 = getelementptr inbounds { ptr, i64 }, ptr %9, i32 0, i32 0, !dbg !918
  store ptr %pieces.0, ptr %10, align 8, !dbg !918
  %11 = getelementptr inbounds { ptr, i64 }, ptr %9, i32 0, i32 1, !dbg !918
  store i64 %pieces.1, ptr %11, align 8, !dbg !918
  %12 = getelementptr inbounds { ptr, i64 }, ptr %_5, i32 0, i32 0, !dbg !918
  %13 = load ptr, ptr %12, align 8, !dbg !918, !align !504, !noundef !24
  %14 = getelementptr inbounds { ptr, i64 }, ptr %_5, i32 0, i32 1, !dbg !918
  %15 = load i64, ptr %14, align 8, !dbg !918
  %16 = getelementptr inbounds { ptr, i64 }, ptr %0, i32 0, i32 0, !dbg !918
  store ptr %13, ptr %16, align 8, !dbg !918
  %17 = getelementptr inbounds { ptr, i64 }, ptr %0, i32 0, i32 1, !dbg !918
  store i64 %15, ptr %17, align 8, !dbg !918
  %18 = getelementptr inbounds %"core::fmt::Arguments<'_>", ptr %0, i32 0, i32 2, !dbg !918
  %19 = getelementptr inbounds { ptr, i64 }, ptr %18, i32 0, i32 0, !dbg !918
  store ptr %args.0, ptr %19, align 8, !dbg !918
  %20 = getelementptr inbounds { ptr, i64 }, ptr %18, i32 0, i32 1, !dbg !918
  store i64 %args.1, ptr %20, align 8, !dbg !918
  ret void, !dbg !919
}

; core::fmt::Arguments::new_v1
; Function Attrs: inlinehint noredzone nounwind
define internal void @_ZN4core3fmt9Arguments6new_v117h30dac65f16f7140aE(ptr sret(%"core::fmt::Arguments<'_>") %0, ptr align 8 %pieces.0, i64 %pieces.1, ptr align 8 %args.0, i64 %args.1) unnamed_addr #0 !dbg !920 {
start:
  %args.dbg.spill = alloca { ptr, i64 }, align 8
  %pieces.dbg.spill = alloca { ptr, i64 }, align 8
  %_16 = alloca { ptr, i64 }, align 8
  %_13 = alloca %"core::fmt::Arguments<'_>", align 8
  %_3 = alloca i8, align 1
  %1 = getelementptr inbounds { ptr, i64 }, ptr %pieces.dbg.spill, i32 0, i32 0
  store ptr %pieces.0, ptr %1, align 8
  %2 = getelementptr inbounds { ptr, i64 }, ptr %pieces.dbg.spill, i32 0, i32 1
  store i64 %pieces.1, ptr %2, align 8
  call void @llvm.dbg.declare(metadata ptr %pieces.dbg.spill, metadata !924, metadata !DIExpression()), !dbg !926
  %3 = getelementptr inbounds { ptr, i64 }, ptr %args.dbg.spill, i32 0, i32 0
  store ptr %args.0, ptr %3, align 8
  %4 = getelementptr inbounds { ptr, i64 }, ptr %args.dbg.spill, i32 0, i32 1
  store i64 %args.1, ptr %4, align 8
  call void @llvm.dbg.declare(metadata ptr %args.dbg.spill, metadata !925, metadata !DIExpression()), !dbg !927
  %_4 = icmp ult i64 %pieces.1, %args.1, !dbg !928
  br i1 %_4, label %bb1, label %bb2, !dbg !928

bb2:                                              ; preds = %start
  %5 = call { i64, i1 } @llvm.uadd.with.overflow.i64(i64 %args.1, i64 1), !dbg !929
  %_11.0 = extractvalue { i64, i1 } %5, 0, !dbg !929
  %_11.1 = extractvalue { i64, i1 } %5, 1, !dbg !929
  %6 = call i1 @llvm.expect.i1(i1 %_11.1, i1 false), !dbg !929
  br i1 %6, label %panic, label %bb4, !dbg !929

bb1:                                              ; preds = %start
  store i8 1, ptr %_3, align 1, !dbg !928
  br label %bb3, !dbg !928

bb3:                                              ; preds = %bb4, %bb1
  %7 = load i8, ptr %_3, align 1, !dbg !928, !range !210, !noundef !24
  %8 = trunc i8 %7 to i1, !dbg !928
  br i1 %8, label %bb5, label %bb7, !dbg !928

bb4:                                              ; preds = %bb2
  %_7 = icmp ugt i64 %pieces.1, %_11.0, !dbg !930
  %9 = zext i1 %_7 to i8, !dbg !928
  store i8 %9, ptr %_3, align 1, !dbg !928
  br label %bb3, !dbg !928

panic:                                            ; preds = %bb2
; call core::panicking::panic
  call void @_ZN4core9panicking5panic17h2341ccf462e0c328E(ptr align 1 @str.2, i64 28, ptr align 8 @alloc325) #11, !dbg !929
  unreachable, !dbg !929

bb7:                                              ; preds = %bb3
  store ptr null, ptr %_16, align 8, !dbg !931
  %10 = getelementptr inbounds %"core::fmt::Arguments<'_>", ptr %0, i32 0, i32 1, !dbg !932
  %11 = getelementptr inbounds { ptr, i64 }, ptr %10, i32 0, i32 0, !dbg !932
  store ptr %pieces.0, ptr %11, align 8, !dbg !932
  %12 = getelementptr inbounds { ptr, i64 }, ptr %10, i32 0, i32 1, !dbg !932
  store i64 %pieces.1, ptr %12, align 8, !dbg !932
  %13 = getelementptr inbounds { ptr, i64 }, ptr %_16, i32 0, i32 0, !dbg !932
  %14 = load ptr, ptr %13, align 8, !dbg !932, !align !504, !noundef !24
  %15 = getelementptr inbounds { ptr, i64 }, ptr %_16, i32 0, i32 1, !dbg !932
  %16 = load i64, ptr %15, align 8, !dbg !932
  %17 = getelementptr inbounds { ptr, i64 }, ptr %0, i32 0, i32 0, !dbg !932
  store ptr %14, ptr %17, align 8, !dbg !932
  %18 = getelementptr inbounds { ptr, i64 }, ptr %0, i32 0, i32 1, !dbg !932
  store i64 %16, ptr %18, align 8, !dbg !932
  %19 = getelementptr inbounds %"core::fmt::Arguments<'_>", ptr %0, i32 0, i32 2, !dbg !932
  %20 = getelementptr inbounds { ptr, i64 }, ptr %19, i32 0, i32 0, !dbg !932
  store ptr %args.0, ptr %20, align 8, !dbg !932
  %21 = getelementptr inbounds { ptr, i64 }, ptr %19, i32 0, i32 1, !dbg !932
  store i64 %args.1, ptr %21, align 8, !dbg !932
  ret void, !dbg !933

bb5:                                              ; preds = %bb3
; call core::fmt::Arguments::new_v1
  call void @_ZN4core3fmt9Arguments6new_v117h30dac65f16f7140aE(ptr sret(%"core::fmt::Arguments<'_>") %_13, ptr align 8 @alloc80, i64 1, ptr align 8 @alloc78, i64 0) #10, !dbg !934
; call core::panicking::panic_fmt
  call void @_ZN4core9panicking9panic_fmt17h0c6ec1399a51edb5E(ptr %_13, ptr align 8 @alloc327) #11, !dbg !934
  unreachable, !dbg !934
}

; core::mem::swap_simple
; Function Attrs: inlinehint noredzone nounwind
define void @_ZN4core3mem11swap_simple17hb5406f0a3506dab5E(ptr align 8 %x, ptr align 8 %y) unnamed_addr #0 !dbg !935 {
start:
  %y.dbg.spill = alloca ptr, align 8
  %x.dbg.spill = alloca ptr, align 8
  %_12 = alloca %"bootinfo::memory_map::MemoryRegion", align 8
  %_9 = alloca %"bootinfo::memory_map::MemoryRegion", align 8
  %b = alloca %"bootinfo::memory_map::MemoryRegion", align 8
  %a = alloca %"bootinfo::memory_map::MemoryRegion", align 8
  store ptr %x, ptr %x.dbg.spill, align 8
  call void @llvm.dbg.declare(metadata ptr %x.dbg.spill, metadata !941, metadata !DIExpression()), !dbg !947
  store ptr %y, ptr %y.dbg.spill, align 8
  call void @llvm.dbg.declare(metadata ptr %y.dbg.spill, metadata !942, metadata !DIExpression()), !dbg !948
  call void @llvm.dbg.declare(metadata ptr %a, metadata !943, metadata !DIExpression()), !dbg !949
  call void @llvm.dbg.declare(metadata ptr %b, metadata !945, metadata !DIExpression()), !dbg !950
; call core::ptr::read
  call void @_ZN4core3ptr4read17hc4a3b4e001a11806E(ptr sret(%"bootinfo::memory_map::MemoryRegion") %a, ptr %x) #10, !dbg !951
; call core::ptr::read
  call void @_ZN4core3ptr4read17hc4a3b4e001a11806E(ptr sret(%"bootinfo::memory_map::MemoryRegion") %b, ptr %y) #10, !dbg !952
  call void @llvm.memcpy.p0.p0.i64(ptr align 8 %_9, ptr align 8 %b, i64 24, i1 false), !dbg !953
; call core::ptr::write
  call void @_ZN4core3ptr5write17h13f342a0963792bfE(ptr %x, ptr %_9) #10, !dbg !954
  call void @llvm.memcpy.p0.p0.i64(ptr align 8 %_12, ptr align 8 %a, i64 24, i1 false), !dbg !955
; call core::ptr::write
  call void @_ZN4core3ptr5write17h13f342a0963792bfE(ptr %y, ptr %_12) #10, !dbg !956
  ret void, !dbg !957
}

; core::mem::swap_simple
; Function Attrs: inlinehint noredzone nounwind
define void @_ZN4core3mem11swap_simple17hede3dff591370c1cE(ptr align 8 %x, ptr align 8 %y) unnamed_addr #0 !dbg !958 {
start:
  %y.dbg.spill = alloca ptr, align 8
  %x.dbg.spill = alloca ptr, align 8
  %_12 = alloca %"core::mem::maybe_uninit::MaybeUninit<bootinfo::memory_map::MemoryRegion>", align 8
  %_9 = alloca %"core::mem::maybe_uninit::MaybeUninit<bootinfo::memory_map::MemoryRegion>", align 8
  %b = alloca %"core::mem::maybe_uninit::MaybeUninit<bootinfo::memory_map::MemoryRegion>", align 8
  %a = alloca %"core::mem::maybe_uninit::MaybeUninit<bootinfo::memory_map::MemoryRegion>", align 8
  store ptr %x, ptr %x.dbg.spill, align 8
  call void @llvm.dbg.declare(metadata ptr %x.dbg.spill, metadata !963, metadata !DIExpression()), !dbg !969
  store ptr %y, ptr %y.dbg.spill, align 8
  call void @llvm.dbg.declare(metadata ptr %y.dbg.spill, metadata !964, metadata !DIExpression()), !dbg !970
  call void @llvm.dbg.declare(metadata ptr %a, metadata !965, metadata !DIExpression()), !dbg !971
  call void @llvm.dbg.declare(metadata ptr %b, metadata !967, metadata !DIExpression()), !dbg !972
; call core::ptr::read
  call void @_ZN4core3ptr4read17h7e887ee07bcfebe1E(ptr sret(%"core::mem::maybe_uninit::MaybeUninit<bootinfo::memory_map::MemoryRegion>") %a, ptr %x) #10, !dbg !973
; call core::ptr::read
  call void @_ZN4core3ptr4read17h7e887ee07bcfebe1E(ptr sret(%"core::mem::maybe_uninit::MaybeUninit<bootinfo::memory_map::MemoryRegion>") %b, ptr %y) #10, !dbg !974
  call void @llvm.memcpy.p0.p0.i64(ptr align 8 %_9, ptr align 8 %b, i64 24, i1 false), !dbg !975
; call core::ptr::write
  call void @_ZN4core3ptr5write17h78e37c5b1bec47a4E(ptr %x, ptr %_9) #10, !dbg !976
  call void @llvm.memcpy.p0.p0.i64(ptr align 8 %_12, ptr align 8 %a, i64 24, i1 false), !dbg !977
; call core::ptr::write
  call void @_ZN4core3ptr5write17h78e37c5b1bec47a4E(ptr %y, ptr %_12) #10, !dbg !978
  ret void, !dbg !979
}

; core::mem::swap
; Function Attrs: inlinehint noredzone nounwind
define void @_ZN4core3mem4swap17hdd0820cc94f081c7E(ptr align 8 %x, ptr align 8 %y) unnamed_addr #0 !dbg !980 {
start:
  %y.dbg.spill = alloca ptr, align 8
  %x.dbg.spill = alloca ptr, align 8
  store ptr %x, ptr %x.dbg.spill, align 8
  call void @llvm.dbg.declare(metadata ptr %x.dbg.spill, metadata !982, metadata !DIExpression()), !dbg !984
  store ptr %y, ptr %y.dbg.spill, align 8
  call void @llvm.dbg.declare(metadata ptr %y.dbg.spill, metadata !983, metadata !DIExpression()), !dbg !985
  %_7 = icmp eq i64 8, 0, !dbg !986
  %0 = call i1 @llvm.expect.i1(i1 %_7, i1 false), !dbg !986
  br i1 %0, label %panic, label %bb3, !dbg !986

bb3:                                              ; preds = %start
  %_4 = udiv i64 24, 8, !dbg !986
  %_3 = icmp ugt i64 %_4, 4, !dbg !986
  br i1 %_3, label %bb4, label %bb5, !dbg !986

panic:                                            ; preds = %start
; call core::panicking::panic
  call void @_ZN4core9panicking5panic17h2341ccf462e0c328E(ptr align 1 @str.3, i64 25, ptr align 8 @alloc329) #11, !dbg !986
  unreachable, !dbg !986

bb5:                                              ; preds = %bb3
; call core::mem::swap_simple
  call void @_ZN4core3mem11swap_simple17hb5406f0a3506dab5E(ptr align 8 %x, ptr align 8 %y) #10, !dbg !987
  br label %bb6, !dbg !987

bb4:                                              ; preds = %bb3
; call core::ptr::swap_nonoverlapping
  call void @_ZN4core3ptr19swap_nonoverlapping17ha6d4e483251a8236E(ptr %x, ptr %y, i64 1) #10, !dbg !988
  br label %bb6, !dbg !988

bb6:                                              ; preds = %bb5, %bb4
  ret void, !dbg !989
}

; core::mem::forget
; Function Attrs: inlinehint noredzone nounwind
define void @_ZN4core3mem6forget17h17e565d642337995E(ptr %t) unnamed_addr #0 !dbg !990 {
start:
  %_2 = alloca %"core::mem::manually_drop::ManuallyDrop<bootinfo::memory_map::MemoryRegion>", align 8
  call void @llvm.dbg.declare(metadata ptr %t, metadata !994, metadata !DIExpression()), !dbg !995
  call void @llvm.dbg.declare(metadata ptr %t, metadata !996, metadata !DIExpression()), !dbg !1002
  call void @llvm.memcpy.p0.p0.i64(ptr align 8 %_2, ptr align 8 %t, i64 24, i1 false), !dbg !1004
  ret void, !dbg !1005
}

; core::num::<impl usize>::checked_mul
; Function Attrs: inlinehint noredzone nounwind
define internal { i64, i64 } @"_ZN4core3num23_$LT$impl$u20$usize$GT$11checked_mul17h72c30a1e2370563bE"(i64 %self, i64 %rhs) unnamed_addr #0 !dbg !1006 {
start:
  %b.dbg.spill.i = alloca i8, align 1
  %a.dbg.spill.i = alloca i64, align 8
  %rhs.dbg.spill.i = alloca i64, align 8
  %self.dbg.spill.i = alloca i64, align 8
  %0 = alloca { i64, i8 }, align 8
  %1 = alloca i8, align 1
  %b.dbg.spill = alloca i8, align 1
  %a.dbg.spill = alloca i64, align 8
  %rhs.dbg.spill = alloca i64, align 8
  %self.dbg.spill = alloca i64, align 8
  %2 = alloca { i64, i64 }, align 8
  store i64 %self, ptr %self.dbg.spill, align 8
  call void @llvm.dbg.declare(metadata ptr %self.dbg.spill, metadata !1013, metadata !DIExpression()), !dbg !1018
  store i64 %rhs, ptr %rhs.dbg.spill, align 8
  call void @llvm.dbg.declare(metadata ptr %rhs.dbg.spill, metadata !1014, metadata !DIExpression()), !dbg !1019
  store i64 %self, ptr %self.dbg.spill.i, align 8
  call void @llvm.dbg.declare(metadata ptr %self.dbg.spill.i, metadata !1020, metadata !DIExpression()), !dbg !1033
  store i64 %rhs, ptr %rhs.dbg.spill.i, align 8
  call void @llvm.dbg.declare(metadata ptr %rhs.dbg.spill.i, metadata !1029, metadata !DIExpression()), !dbg !1035
  %3 = call { i64, i1 } @llvm.umul.with.overflow.i64(i64 %self, i64 %rhs), !dbg !1036
  %_5.0.i = extractvalue { i64, i1 } %3, 0, !dbg !1036
  %_5.1.i = extractvalue { i64, i1 } %3, 1, !dbg !1036
  store i64 %_5.0.i, ptr %a.dbg.spill.i, align 8, !dbg !1037
  call void @llvm.dbg.declare(metadata ptr %a.dbg.spill.i, metadata !1030, metadata !DIExpression()), !dbg !1038
  %4 = zext i1 %_5.1.i to i8, !dbg !1039
  store i8 %4, ptr %b.dbg.spill.i, align 1, !dbg !1039
  call void @llvm.dbg.declare(metadata ptr %b.dbg.spill.i, metadata !1032, metadata !DIExpression()), !dbg !1040
  store i64 %_5.0.i, ptr %0, align 8, !dbg !1041
  %5 = getelementptr inbounds { i64, i8 }, ptr %0, i32 0, i32 1, !dbg !1041
  %6 = zext i1 %_5.1.i to i8, !dbg !1041
  store i8 %6, ptr %5, align 8, !dbg !1041
  %7 = load i64, ptr %0, align 8, !dbg !1042, !noundef !24
  %8 = getelementptr inbounds { i64, i8 }, ptr %0, i32 0, i32 1, !dbg !1042
  %9 = load i8, ptr %8, align 8, !dbg !1042, !range !210, !noundef !24
  %10 = trunc i8 %9 to i1, !dbg !1042
  %11 = zext i1 %10 to i8, !dbg !1042
  %12 = insertvalue { i64, i8 } undef, i64 %7, 0, !dbg !1042
  %13 = insertvalue { i64, i8 } %12, i8 %11, 1, !dbg !1042
  %_5.0 = extractvalue { i64, i8 } %13, 0, !dbg !1043
  %14 = extractvalue { i64, i8 } %13, 1, !dbg !1043
  %_5.1 = trunc i8 %14 to i1, !dbg !1043
  store i64 %_5.0, ptr %a.dbg.spill, align 8, !dbg !1044
  call void @llvm.dbg.declare(metadata ptr %a.dbg.spill, metadata !1015, metadata !DIExpression()), !dbg !1045
  %15 = zext i1 %_5.1 to i8, !dbg !1046
  store i8 %15, ptr %b.dbg.spill, align 1, !dbg !1046
  call void @llvm.dbg.declare(metadata ptr %b.dbg.spill, metadata !1017, metadata !DIExpression()), !dbg !1047
  %16 = call i1 @llvm.expect.i1(i1 %_5.1, i1 false), !dbg !1048
  %17 = zext i1 %16 to i8, !dbg !1048
  store i8 %17, ptr %1, align 1, !dbg !1048
  %18 = load i8, ptr %1, align 1, !dbg !1048, !range !210, !noundef !24
  %_6 = trunc i8 %18 to i1, !dbg !1048
  br i1 %_6, label %bb3, label %bb4, !dbg !1048

bb4:                                              ; preds = %start
  %19 = getelementptr inbounds { i64, i64 }, ptr %2, i32 0, i32 1, !dbg !1049
  store i64 %_5.0, ptr %19, align 8, !dbg !1049
  store i64 1, ptr %2, align 8, !dbg !1049
  br label %bb5, !dbg !1050

bb3:                                              ; preds = %start
  store i64 0, ptr %2, align 8, !dbg !1051
  br label %bb5, !dbg !1050

bb5:                                              ; preds = %bb4, %bb3
  %20 = getelementptr inbounds { i64, i64 }, ptr %2, i32 0, i32 0, !dbg !1052
  %21 = load i64, ptr %20, align 8, !dbg !1052, !range !1053, !noundef !24
  %22 = getelementptr inbounds { i64, i64 }, ptr %2, i32 0, i32 1, !dbg !1052
  %23 = load i64, ptr %22, align 8, !dbg !1052
  %24 = insertvalue { i64, i64 } undef, i64 %21, 0, !dbg !1052
  %25 = insertvalue { i64, i64 } %24, i64 %23, 1, !dbg !1052
  ret { i64, i64 } %25, !dbg !1052
}

; core::num::<impl usize>::next_power_of_two
; Function Attrs: inlinehint noredzone nounwind
define internal i64 @"_ZN4core3num23_$LT$impl$u20$usize$GT$17next_power_of_two17h19b99a59f73778e5E"(i64 %self) unnamed_addr #0 !dbg !1054 {
start:
  %self.dbg.spill = alloca i64, align 8
  store i64 %self, ptr %self.dbg.spill, align 8
  call void @llvm.dbg.declare(metadata ptr %self.dbg.spill, metadata !1058, metadata !DIExpression()), !dbg !1059
; call core::num::<impl usize>::one_less_than_next_power_of_two
  %_2 = call i64 @"_ZN4core3num23_$LT$impl$u20$usize$GT$31one_less_than_next_power_of_two17haf8dbd097bc2d15dE"(i64 %self) #10, !dbg !1060
  %0 = call { i64, i1 } @llvm.uadd.with.overflow.i64(i64 %_2, i64 1), !dbg !1060
  %_3.0 = extractvalue { i64, i1 } %0, 0, !dbg !1060
  %_3.1 = extractvalue { i64, i1 } %0, 1, !dbg !1060
  %1 = call i1 @llvm.expect.i1(i1 %_3.1, i1 false), !dbg !1060
  br i1 %1, label %panic, label %bb2, !dbg !1060

bb2:                                              ; preds = %start
  ret i64 %_3.0, !dbg !1061

panic:                                            ; preds = %start
; call core::panicking::panic
  call void @_ZN4core9panicking5panic17h2341ccf462e0c328E(ptr align 1 @str.2, i64 28, ptr align 8 @alloc331) #11, !dbg !1060
  unreachable, !dbg !1060
}

; core::num::<impl usize>::one_less_than_next_power_of_two
; Function Attrs: inlinehint noredzone nounwind
define internal i64 @"_ZN4core3num23_$LT$impl$u20$usize$GT$31one_less_than_next_power_of_two17haf8dbd097bc2d15dE"(i64 %self) unnamed_addr #0 !dbg !1062 {
start:
  %z.dbg.spill = alloca i64, align 8
  %0 = alloca i64, align 8
  %p.dbg.spill = alloca i64, align 8
  %self.dbg.spill = alloca i64, align 8
  %1 = alloca i64, align 8
  store i64 %self, ptr %self.dbg.spill, align 8
  call void @llvm.dbg.declare(metadata ptr %self.dbg.spill, metadata !1064, metadata !DIExpression()), !dbg !1069
  %_2 = icmp ule i64 %self, 1, !dbg !1070
  br i1 %_2, label %bb1, label %bb2, !dbg !1070

bb2:                                              ; preds = %start
  %_4.0 = sub i64 %self, 1, !dbg !1071
  %_4.1 = icmp ult i64 %self, 1, !dbg !1071
  %2 = call i1 @llvm.expect.i1(i1 %_4.1, i1 false), !dbg !1071
  br i1 %2, label %panic, label %bb3, !dbg !1071

bb1:                                              ; preds = %start
  store i64 0, ptr %1, align 8, !dbg !1072
  br label %bb6, !dbg !1073

bb6:                                              ; preds = %bb5, %bb1
  %3 = load i64, ptr %1, align 8, !dbg !1073, !noundef !24
  ret i64 %3, !dbg !1073

bb3:                                              ; preds = %bb2
  store i64 %_4.0, ptr %p.dbg.spill, align 8, !dbg !1071
  call void @llvm.dbg.declare(metadata ptr %p.dbg.spill, metadata !1065, metadata !DIExpression()), !dbg !1074
  %4 = call i64 @llvm.ctlz.i64(i64 %_4.0, i1 true), !dbg !1075
  store i64 %4, ptr %0, align 8, !dbg !1075
  %z = load i64, ptr %0, align 8, !dbg !1075, !noundef !24
  store i64 %z, ptr %z.dbg.spill, align 8, !dbg !1075
  call void @llvm.dbg.declare(metadata ptr %z.dbg.spill, metadata !1067, metadata !DIExpression()), !dbg !1076
  %5 = and i64 %z, -64, !dbg !1077
  %_7.1 = icmp ne i64 %5, 0, !dbg !1077
  %6 = and i64 %z, 63, !dbg !1077
  %_7.0 = lshr i64 -1, %6, !dbg !1077
  %7 = call i1 @llvm.expect.i1(i1 %_7.1, i1 false), !dbg !1077
  br i1 %7, label %panic1, label %bb5, !dbg !1077

panic:                                            ; preds = %bb2
; call core::panicking::panic
  call void @_ZN4core9panicking5panic17h2341ccf462e0c328E(ptr align 1 @str.0, i64 33, ptr align 8 @alloc331) #11, !dbg !1071
  unreachable, !dbg !1071

bb5:                                              ; preds = %bb3
  store i64 %_7.0, ptr %1, align 8, !dbg !1077
  br label %bb6, !dbg !1073

panic1:                                           ; preds = %bb3
; call core::panicking::panic
  call void @_ZN4core9panicking5panic17h2341ccf462e0c328E(ptr align 1 @str.4, i64 36, ptr align 8 @alloc331) #11, !dbg !1077
  unreachable, !dbg !1077
}

; core::ops::range::RangeInclusive<usize>::into_slice_range
; Function Attrs: inlinehint noredzone nounwind
define internal { i64, i64 } @"_ZN4core3ops5range27RangeInclusive$LT$usize$GT$16into_slice_range17hac9cc18aac0fdaffE"(ptr %self) unnamed_addr #0 !dbg !1078 {
start:
  %exclusive_end.dbg.spill = alloca i64, align 8
  %start1 = alloca i64, align 8
  %0 = alloca { i64, i64 }, align 8
  call void @llvm.dbg.declare(metadata ptr %self, metadata !1083, metadata !DIExpression()), !dbg !1088
  call void @llvm.dbg.declare(metadata ptr %start1, metadata !1086, metadata !DIExpression()), !dbg !1089
  %1 = getelementptr inbounds %"core::ops::range::RangeInclusive<usize>", ptr %self, i32 0, i32 1, !dbg !1090
  %_3 = load i64, ptr %1, align 8, !dbg !1090, !noundef !24
  %2 = call { i64, i1 } @llvm.uadd.with.overflow.i64(i64 %_3, i64 1), !dbg !1090
  %_4.0 = extractvalue { i64, i1 } %2, 0, !dbg !1090
  %_4.1 = extractvalue { i64, i1 } %2, 1, !dbg !1090
  %3 = call i1 @llvm.expect.i1(i1 %_4.1, i1 false), !dbg !1090
  br i1 %3, label %panic, label %bb1, !dbg !1090

bb1:                                              ; preds = %start
  store i64 %_4.0, ptr %exclusive_end.dbg.spill, align 8, !dbg !1090
  call void @llvm.dbg.declare(metadata ptr %exclusive_end.dbg.spill, metadata !1084, metadata !DIExpression()), !dbg !1091
  %4 = getelementptr inbounds %"core::ops::range::RangeInclusive<usize>", ptr %self, i32 0, i32 2, !dbg !1092
  %5 = load i8, ptr %4, align 8, !dbg !1092, !range !210, !noundef !24
  %_6 = trunc i8 %5 to i1, !dbg !1092
  br i1 %_6, label %bb2, label %bb3, !dbg !1092

panic:                                            ; preds = %start
; call core::panicking::panic
  call void @_ZN4core9panicking5panic17h2341ccf462e0c328E(ptr align 1 @str.2, i64 28, ptr align 8 @alloc333) #11, !dbg !1090
  unreachable, !dbg !1090

bb3:                                              ; preds = %bb1
  %6 = load i64, ptr %self, align 8, !dbg !1093, !noundef !24
  store i64 %6, ptr %start1, align 8, !dbg !1093
  br label %bb4, !dbg !1094

bb2:                                              ; preds = %bb1
  store i64 %_4.0, ptr %start1, align 8, !dbg !1095
  br label %bb4, !dbg !1094

bb4:                                              ; preds = %bb3, %bb2
  %_7 = load i64, ptr %start1, align 8, !dbg !1096, !noundef !24
  store i64 %_7, ptr %0, align 8, !dbg !1096
  %7 = getelementptr inbounds { i64, i64 }, ptr %0, i32 0, i32 1, !dbg !1096
  store i64 %_4.0, ptr %7, align 8, !dbg !1096
  %8 = getelementptr inbounds { i64, i64 }, ptr %0, i32 0, i32 0, !dbg !1097
  %9 = load i64, ptr %8, align 8, !dbg !1097, !noundef !24
  %10 = getelementptr inbounds { i64, i64 }, ptr %0, i32 0, i32 1, !dbg !1097
  %11 = load i64, ptr %10, align 8, !dbg !1097, !noundef !24
  %12 = insertvalue { i64, i64 } undef, i64 %9, 0, !dbg !1097
  %13 = insertvalue { i64, i64 } %12, i64 %11, 1, !dbg !1097
  ret { i64, i64 } %13, !dbg !1097
}

; core::ops::function::impls::<impl core::ops::function::FnMut<A> for &mut F>::call_mut
; Function Attrs: noredzone nounwind
define zeroext i1 @"_ZN4core3ops8function5impls79_$LT$impl$u20$core..ops..function..FnMut$LT$A$GT$$u20$for$u20$$RF$mut$u20$F$GT$8call_mut17he490ed33b6ccf2c8E"(ptr align 8 %self, ptr align 8 %0, ptr align 8 %1) unnamed_addr #1 !dbg !1098 {
start:
  %self.dbg.spill = alloca ptr, align 8
  %args = alloca { ptr, ptr }, align 8
  store ptr %0, ptr %args, align 8
  %2 = getelementptr inbounds { ptr, ptr }, ptr %args, i32 0, i32 1
  store ptr %1, ptr %2, align 8
  store ptr %self, ptr %self.dbg.spill, align 8
  call void @llvm.dbg.declare(metadata ptr %self.dbg.spill, metadata !1117, metadata !DIExpression()), !dbg !1126
  call void @llvm.dbg.declare(metadata ptr %args, metadata !1118, metadata !DIExpression()), !dbg !1127
  %_3 = load ptr, ptr %self, align 8, !dbg !1128, !nonnull !24, !align !504, !noundef !24
  %3 = getelementptr inbounds { ptr, ptr }, ptr %args, i32 0, i32 0, !dbg !1128
  %4 = load ptr, ptr %3, align 8, !dbg !1128, !nonnull !24, !align !504, !noundef !24
  %5 = getelementptr inbounds { ptr, ptr }, ptr %args, i32 0, i32 1, !dbg !1128
  %6 = load ptr, ptr %5, align 8, !dbg !1128, !nonnull !24, !align !504, !noundef !24
; call core::slice::<impl [T]>::sort_unstable_by::{{closure}}
  %7 = call zeroext i1 @"_ZN4core5slice29_$LT$impl$u20$$u5b$T$u5d$$GT$16sort_unstable_by28_$u7b$$u7b$closure$u7d$$u7d$17h3af58e2d91edbac6E"(ptr align 8 %_3, ptr align 8 %4, ptr align 8 %6) #10, !dbg !1128
  ret i1 %7, !dbg !1129
}

; core::ptr::drop_in_place<core::slice::sort::InsertionHole<bootloader::bootinfo::memory_map::MemoryRegion>>
; Function Attrs: noredzone nounwind
define void @"_ZN4core3ptr107drop_in_place$LT$core..slice..sort..InsertionHole$LT$bootloader..bootinfo..memory_map..MemoryRegion$GT$$GT$17h3d495b159b1f4552E"(ptr %_1) unnamed_addr #1 !dbg !1130 {
start:
  %_1.dbg.spill = alloca ptr, align 8
  store ptr %_1, ptr %_1.dbg.spill, align 8
  call void @llvm.dbg.declare(metadata ptr %_1.dbg.spill, metadata !1141, metadata !DIExpression()), !dbg !1144
; call <core::slice::sort::InsertionHole<T> as core::ops::drop::Drop>::drop
  call void @"_ZN83_$LT$core..slice..sort..InsertionHole$LT$T$GT$$u20$as$u20$core..ops..drop..Drop$GT$4drop17h9a4d3fa01a0e4ce4E"(ptr align 8 %_1) #10, !dbg !1144
  ret void, !dbg !1144
}

; core::ptr::swap_nonoverlapping
; Function Attrs: inlinehint noredzone nounwind
define void @_ZN4core3ptr19swap_nonoverlapping17ha6d4e483251a8236E(ptr %x, ptr %y, i64 %count) unnamed_addr #0 !dbg !1145 {
start:
  %self.dbg.spill.i20 = alloca ptr, align 8
  %self.dbg.spill.i19 = alloca ptr, align 8
  %self.dbg.spill.i18 = alloca ptr, align 8
  %self.dbg.spill.i17 = alloca ptr, align 8
  %count.dbg.spill.i = alloca i64, align 8
  %y.dbg.spill.i = alloca ptr, align 8
  %x.dbg.spill.i = alloca ptr, align 8
  %_6.i = alloca i8, align 1
  %_5.i = alloca i8, align 1
  %0 = alloca i64, align 8
  %self.dbg.spill.i.i = alloca i64, align 8
  %self.dbg.spill.i = alloca i64, align 8
  %count.dbg.spill16 = alloca i64, align 8
  %y.dbg.spill13 = alloca ptr, align 8
  %x.dbg.spill11 = alloca ptr, align 8
  %count.dbg.spill8 = alloca i64, align 8
  %y.dbg.spill5 = alloca ptr, align 8
  %x.dbg.spill3 = alloca ptr, align 8
  %count.dbg.spill = alloca i64, align 8
  %y.dbg.spill = alloca ptr, align 8
  %x.dbg.spill = alloca ptr, align 8
  %_38 = alloca i8, align 1
  %_19 = alloca i8, align 1
  %_10 = alloca i8, align 1
  %_6 = alloca i8, align 1
  %_5 = alloca { ptr, ptr, i64 }, align 8
  store ptr %x, ptr %x.dbg.spill, align 8
  call void @llvm.dbg.declare(metadata ptr %x.dbg.spill, metadata !1149, metadata !DIExpression()), !dbg !1165
  store ptr %y, ptr %y.dbg.spill, align 8
  call void @llvm.dbg.declare(metadata ptr %y.dbg.spill, metadata !1150, metadata !DIExpression()), !dbg !1166
  store i64 %count, ptr %count.dbg.spill, align 8
  call void @llvm.dbg.declare(metadata ptr %count.dbg.spill, metadata !1151, metadata !DIExpression()), !dbg !1167
  store ptr %x, ptr %_5, align 8, !dbg !1168
  %1 = getelementptr inbounds { ptr, ptr, i64 }, ptr %_5, i32 0, i32 1, !dbg !1168
  store ptr %y, ptr %1, align 8, !dbg !1168
  %2 = getelementptr inbounds { ptr, ptr, i64 }, ptr %_5, i32 0, i32 2, !dbg !1168
  store i64 %count, ptr %2, align 8, !dbg !1168
  %3 = load ptr, ptr %_5, align 8, !dbg !1168, !noundef !24
  %4 = getelementptr inbounds { ptr, ptr, i64 }, ptr %_5, i32 0, i32 1, !dbg !1168
  %5 = load ptr, ptr %4, align 8, !dbg !1168, !noundef !24
  %6 = getelementptr inbounds { ptr, ptr, i64 }, ptr %_5, i32 0, i32 2, !dbg !1168
  %7 = load i64, ptr %6, align 8, !dbg !1168, !noundef !24
  store ptr %3, ptr %x.dbg.spill.i, align 8
  call void @llvm.dbg.declare(metadata ptr %x.dbg.spill.i, metadata !1169, metadata !DIExpression()), !dbg !1175
  store ptr %5, ptr %y.dbg.spill.i, align 8
  call void @llvm.dbg.declare(metadata ptr %y.dbg.spill.i, metadata !1173, metadata !DIExpression()), !dbg !1175
  store i64 %7, ptr %count.dbg.spill.i, align 8
  call void @llvm.dbg.declare(metadata ptr %count.dbg.spill.i, metadata !1174, metadata !DIExpression()), !dbg !1175
; call core::intrinsics::is_aligned_and_not_null
  %_7.i = call zeroext i1 @_ZN4core10intrinsics23is_aligned_and_not_null17h6a60c6b4bab249b8E(ptr %3) #10, !dbg !1177
  br i1 %_7.i, label %bb5.i, label %bb4.i, !dbg !1177

bb4.i:                                            ; preds = %start
  store i8 0, ptr %_6.i, align 1, !dbg !1177
  br label %bb6.i, !dbg !1177

bb5.i:                                            ; preds = %start
; call core::intrinsics::is_aligned_and_not_null
  %_9.i = call zeroext i1 @_ZN4core10intrinsics23is_aligned_and_not_null17h6a60c6b4bab249b8E(ptr %5) #10, !dbg !1179
  %8 = zext i1 %_9.i to i8, !dbg !1177
  store i8 %8, ptr %_6.i, align 1, !dbg !1177
  br label %bb6.i, !dbg !1177

bb6.i:                                            ; preds = %bb5.i, %bb4.i
  %9 = load i8, ptr %_6.i, align 1, !dbg !1177, !range !210, !noundef !24
  %10 = trunc i8 %9 to i1, !dbg !1177
  br i1 %10, label %bb2.i, label %bb1.i, !dbg !1177

bb1.i:                                            ; preds = %bb6.i
  store i8 0, ptr %_5.i, align 1, !dbg !1177
  br label %bb3.i, !dbg !1177

bb2.i:                                            ; preds = %bb6.i
; call core::intrinsics::is_nonoverlapping
  %_11.i = call zeroext i1 @_ZN4core10intrinsics17is_nonoverlapping17hadd98891bdebc46aE(ptr %3, ptr %5, i64 %7) #10, !dbg !1180
  %11 = zext i1 %_11.i to i8, !dbg !1177
  store i8 %11, ptr %_5.i, align 1, !dbg !1177
  br label %bb3.i, !dbg !1177

bb3.i:                                            ; preds = %bb2.i, %bb1.i
  %12 = load i8, ptr %_5.i, align 1, !dbg !1181, !range !210, !noundef !24
  %13 = trunc i8 %12 to i1, !dbg !1181
  %_4.i = xor i1 %13, true, !dbg !1181
  br i1 %_4.i, label %bb10.i, label %_ZN4core3ptr19swap_nonoverlapping7runtime17hdaef8e0485d97d91E.exit, !dbg !1181

bb10.i:                                           ; preds = %bb3.i
; call core::panicking::panic_nounwind
  call void @_ZN4core9panicking14panic_nounwind17h2659e8ef56e187b0E(ptr align 1 @alloc340, i64 166) #11, !dbg !1182
  unreachable, !dbg !1182

_ZN4core3ptr19swap_nonoverlapping7runtime17hdaef8e0485d97d91E.exit: ; preds = %bb3.i
  %_7 = icmp ule i64 8, 8, !dbg !1183
  br i1 %_7, label %bb3, label %bb2, !dbg !1183

bb2:                                              ; preds = %_ZN4core3ptr19swap_nonoverlapping7runtime17hdaef8e0485d97d91E.exit
  store i8 0, ptr %_6, align 1, !dbg !1183
  br label %bb4, !dbg !1183

bb3:                                              ; preds = %_ZN4core3ptr19swap_nonoverlapping7runtime17hdaef8e0485d97d91E.exit
  store i64 24, ptr %self.dbg.spill.i, align 8
  call void @llvm.dbg.declare(metadata ptr %self.dbg.spill.i, metadata !1184, metadata !DIExpression()), !dbg !1187
  store i64 24, ptr %self.dbg.spill.i.i, align 8
  call void @llvm.dbg.declare(metadata ptr %self.dbg.spill.i.i, metadata !1189, metadata !DIExpression()), !dbg !1194
  store i64 2, ptr %0, align 8, !dbg !1196
  %_2.i.i = load i64, ptr %0, align 8, !dbg !1196, !noundef !24
  %14 = trunc i64 %_2.i.i to i32, !dbg !1196
  %15 = icmp eq i32 %14, 1, !dbg !1197
  %_11 = xor i1 %15, true, !dbg !1198
  br i1 %_11, label %bb7, label %bb8, !dbg !1199

bb8:                                              ; preds = %bb3
  %16 = call { i64, i1 } @llvm.umul.with.overflow.i64(i64 8, i64 2), !dbg !1200
  %_18.0 = extractvalue { i64, i1 } %16, 0, !dbg !1200
  %_18.1 = extractvalue { i64, i1 } %16, 1, !dbg !1200
  %17 = call i1 @llvm.expect.i1(i1 %_18.1, i1 false), !dbg !1200
  br i1 %17, label %panic, label %bb14, !dbg !1200

bb7:                                              ; preds = %bb3
  store i8 1, ptr %_10, align 1, !dbg !1199
  br label %bb9, !dbg !1199

bb9:                                              ; preds = %bb14, %bb7
  %18 = load i8, ptr %_10, align 1, !dbg !1183, !range !210, !noundef !24
  %19 = trunc i8 %18 to i1, !dbg !1183
  %20 = zext i1 %19 to i8, !dbg !1183
  store i8 %20, ptr %_6, align 1, !dbg !1183
  br label %bb4, !dbg !1183

bb14:                                             ; preds = %bb8
  %_14 = icmp ugt i64 24, %_18.0, !dbg !1201
  %21 = zext i1 %_14 to i8, !dbg !1199
  store i8 %21, ptr %_10, align 1, !dbg !1199
  br label %bb9, !dbg !1199

panic:                                            ; preds = %bb8
; call core::panicking::panic
  call void @_ZN4core9panicking5panic17h2341ccf462e0c328E(ptr align 1 @str.5, i64 33, ptr align 8 @alloc335) #11, !dbg !1200
  unreachable, !dbg !1200

bb4:                                              ; preds = %bb2, %bb9
  %22 = load i8, ptr %_6, align 1, !dbg !1183, !range !210, !noundef !24
  %23 = trunc i8 %22 to i1, !dbg !1183
  br i1 %23, label %bb15, label %bb47, !dbg !1183

bb47:                                             ; preds = %bb34, %bb4
; call core::ptr::swap_nonoverlapping_simple_untyped
  call void @_ZN4core3ptr34swap_nonoverlapping_simple_untyped17hf6f1df5e8875f92fE(ptr %x, ptr %y, i64 %count) #10, !dbg !1202
  br label %bb48, !dbg !1202

bb15:                                             ; preds = %bb4
  %_20 = icmp uge i64 8, 8, !dbg !1203
  br i1 %_20, label %bb17, label %bb16, !dbg !1203

bb16:                                             ; preds = %bb15
  store i8 0, ptr %_19, align 1, !dbg !1203
  br label %bb18, !dbg !1203

bb17:                                             ; preds = %bb15
  %_27 = icmp eq i64 8, 0, !dbg !1203
  %24 = call i1 @llvm.expect.i1(i1 %_27, i1 false), !dbg !1203
  br i1 %24, label %panic1, label %bb23, !dbg !1203

bb23:                                             ; preds = %bb17
  %_24 = urem i64 24, 8, !dbg !1203
  %_23 = icmp eq i64 %_24, 0, !dbg !1203
  %25 = zext i1 %_23 to i8, !dbg !1203
  store i8 %25, ptr %_19, align 1, !dbg !1203
  br label %bb18, !dbg !1203

panic1:                                           ; preds = %bb17
; call core::panicking::panic
  call void @_ZN4core9panicking5panic17h2341ccf462e0c328E(ptr align 1 @str.6, i64 57, ptr align 8 @alloc337) #11, !dbg !1203
  unreachable, !dbg !1203

bb18:                                             ; preds = %bb16, %bb23
  %26 = load i8, ptr %_19, align 1, !dbg !1203, !range !210, !noundef !24
  %27 = trunc i8 %26 to i1, !dbg !1203
  br i1 %27, label %bb24, label %bb31, !dbg !1203

bb31:                                             ; preds = %bb18
  %_39 = icmp uge i64 8, 1, !dbg !1204
  br i1 %_39, label %bb33, label %bb32, !dbg !1204

bb24:                                             ; preds = %bb18
  store ptr %x, ptr %self.dbg.spill.i18, align 8
  call void @llvm.dbg.declare(metadata ptr %self.dbg.spill.i18, metadata !1205, metadata !DIExpression()), !dbg !1212
  store ptr %x, ptr %x.dbg.spill3, align 8, !dbg !1203
  call void @llvm.dbg.declare(metadata ptr %x.dbg.spill3, metadata !1152, metadata !DIExpression()), !dbg !1214
  store ptr %y, ptr %self.dbg.spill.i17, align 8
  call void @llvm.dbg.declare(metadata ptr %self.dbg.spill.i17, metadata !1205, metadata !DIExpression()), !dbg !1215
  store ptr %y, ptr %y.dbg.spill5, align 8, !dbg !1214
  call void @llvm.dbg.declare(metadata ptr %y.dbg.spill5, metadata !1154, metadata !DIExpression()), !dbg !1217
  %_34 = icmp eq i64 8, 0, !dbg !1217
  %28 = call i1 @llvm.expect.i1(i1 %_34, i1 false), !dbg !1217
  br i1 %28, label %panic6, label %bb29, !dbg !1217

bb29:                                             ; preds = %bb24
  %_31 = udiv i64 24, 8, !dbg !1217
  %29 = call { i64, i1 } @llvm.umul.with.overflow.i64(i64 %count, i64 %_31), !dbg !1217
  %_35.0 = extractvalue { i64, i1 } %29, 0, !dbg !1217
  %_35.1 = extractvalue { i64, i1 } %29, 1, !dbg !1217
  %30 = call i1 @llvm.expect.i1(i1 %_35.1, i1 false), !dbg !1217
  br i1 %30, label %panic7, label %bb30, !dbg !1217

panic6:                                           ; preds = %bb24
; call core::panicking::panic
  call void @_ZN4core9panicking5panic17h2341ccf462e0c328E(ptr align 1 @str.3, i64 25, ptr align 8 @alloc337) #11, !dbg !1217
  unreachable, !dbg !1217

bb30:                                             ; preds = %bb29
  store i64 %_35.0, ptr %count.dbg.spill8, align 8, !dbg !1217
  call void @llvm.dbg.declare(metadata ptr %count.dbg.spill8, metadata !1156, metadata !DIExpression()), !dbg !1218
; call core::ptr::swap_nonoverlapping_simple_untyped
  call void @_ZN4core3ptr34swap_nonoverlapping_simple_untyped17hd773e796fbac3215E(ptr %x, ptr %y, i64 %_35.0) #10, !dbg !1218
  br label %bb48, !dbg !1218

panic7:                                           ; preds = %bb29
; call core::panicking::panic
  call void @_ZN4core9panicking5panic17h2341ccf462e0c328E(ptr align 1 @str.5, i64 33, ptr align 8 @alloc337) #11, !dbg !1217
  unreachable, !dbg !1217

bb48:                                             ; preds = %bb47, %bb46, %bb30
  ret void, !dbg !1219

bb32:                                             ; preds = %bb31
  store i8 0, ptr %_38, align 1, !dbg !1204
  br label %bb34, !dbg !1204

bb33:                                             ; preds = %bb31
  %_46 = icmp eq i64 1, 0, !dbg !1204
  %31 = call i1 @llvm.expect.i1(i1 %_46, i1 false), !dbg !1204
  br i1 %31, label %panic9, label %bb39, !dbg !1204

bb39:                                             ; preds = %bb33
  %_43 = urem i64 24, 1, !dbg !1204
  %_42 = icmp eq i64 %_43, 0, !dbg !1204
  %32 = zext i1 %_42 to i8, !dbg !1204
  store i8 %32, ptr %_38, align 1, !dbg !1204
  br label %bb34, !dbg !1204

panic9:                                           ; preds = %bb33
; call core::panicking::panic
  call void @_ZN4core9panicking5panic17h2341ccf462e0c328E(ptr align 1 @str.6, i64 57, ptr align 8 @alloc339) #11, !dbg !1204
  unreachable, !dbg !1204

bb34:                                             ; preds = %bb32, %bb39
  %33 = load i8, ptr %_38, align 1, !dbg !1204, !range !210, !noundef !24
  %34 = trunc i8 %33 to i1, !dbg !1204
  br i1 %34, label %bb40, label %bb47, !dbg !1204

bb40:                                             ; preds = %bb34
  store ptr %x, ptr %self.dbg.spill.i20, align 8
  call void @llvm.dbg.declare(metadata ptr %self.dbg.spill.i20, metadata !1220, metadata !DIExpression()), !dbg !1227
  store ptr %x, ptr %x.dbg.spill11, align 8, !dbg !1204
  call void @llvm.dbg.declare(metadata ptr %x.dbg.spill11, metadata !1158, metadata !DIExpression()), !dbg !1229
  store ptr %y, ptr %self.dbg.spill.i19, align 8
  call void @llvm.dbg.declare(metadata ptr %self.dbg.spill.i19, metadata !1220, metadata !DIExpression()), !dbg !1230
  store ptr %y, ptr %y.dbg.spill13, align 8, !dbg !1229
  call void @llvm.dbg.declare(metadata ptr %y.dbg.spill13, metadata !1161, metadata !DIExpression()), !dbg !1232
  %_53 = icmp eq i64 1, 0, !dbg !1232
  %35 = call i1 @llvm.expect.i1(i1 %_53, i1 false), !dbg !1232
  br i1 %35, label %panic14, label %bb45, !dbg !1232

bb45:                                             ; preds = %bb40
  %_50 = udiv i64 24, 1, !dbg !1232
  %36 = call { i64, i1 } @llvm.umul.with.overflow.i64(i64 %count, i64 %_50), !dbg !1232
  %_54.0 = extractvalue { i64, i1 } %36, 0, !dbg !1232
  %_54.1 = extractvalue { i64, i1 } %36, 1, !dbg !1232
  %37 = call i1 @llvm.expect.i1(i1 %_54.1, i1 false), !dbg !1232
  br i1 %37, label %panic15, label %bb46, !dbg !1232

panic14:                                          ; preds = %bb40
; call core::panicking::panic
  call void @_ZN4core9panicking5panic17h2341ccf462e0c328E(ptr align 1 @str.3, i64 25, ptr align 8 @alloc339) #11, !dbg !1232
  unreachable, !dbg !1232

bb46:                                             ; preds = %bb45
  store i64 %_54.0, ptr %count.dbg.spill16, align 8, !dbg !1232
  call void @llvm.dbg.declare(metadata ptr %count.dbg.spill16, metadata !1163, metadata !DIExpression()), !dbg !1233
; call core::ptr::swap_nonoverlapping_simple_untyped
  call void @_ZN4core3ptr34swap_nonoverlapping_simple_untyped17h776e339449f18e87E(ptr %x, ptr %y, i64 %_54.0) #10, !dbg !1233
  br label %bb48, !dbg !1233

panic15:                                          ; preds = %bb45
; call core::panicking::panic
  call void @_ZN4core9panicking5panic17h2341ccf462e0c328E(ptr align 1 @str.5, i64 33, ptr align 8 @alloc339) #11, !dbg !1232
  unreachable, !dbg !1232
}

; core::ptr::slice_from_raw_parts
; Function Attrs: inlinehint noredzone nounwind
define { ptr, i64 } @_ZN4core3ptr20slice_from_raw_parts17h81e5ec8f89303343E(ptr %data, i64 %len) unnamed_addr #0 !dbg !1234 {
start:
  %self.dbg.spill.i = alloca ptr, align 8
  %len.dbg.spill = alloca i64, align 8
  %data.dbg.spill = alloca ptr, align 8
  store ptr %data, ptr %data.dbg.spill, align 8
  call void @llvm.dbg.declare(metadata ptr %data.dbg.spill, metadata !1238, metadata !DIExpression()), !dbg !1240
  store i64 %len, ptr %len.dbg.spill, align 8
  call void @llvm.dbg.declare(metadata ptr %len.dbg.spill, metadata !1239, metadata !DIExpression()), !dbg !1241
  store ptr %data, ptr %self.dbg.spill.i, align 8
  call void @llvm.dbg.declare(metadata ptr %self.dbg.spill.i, metadata !549, metadata !DIExpression()), !dbg !1242
; call core::ptr::metadata::from_raw_parts
  %0 = call { ptr, i64 } @_ZN4core3ptr8metadata14from_raw_parts17h96779705a0853e12E(ptr %data, i64 %len) #10, !dbg !1244
  %1 = extractvalue { ptr, i64 } %0, 0, !dbg !1244
  %2 = extractvalue { ptr, i64 } %0, 1, !dbg !1244
  %3 = insertvalue { ptr, i64 } undef, ptr %1, 0, !dbg !1245
  %4 = insertvalue { ptr, i64 } %3, i64 %2, 1, !dbg !1245
  ret { ptr, i64 } %4, !dbg !1245
}

; core::ptr::drop_in_place<u32>
; Function Attrs: inlinehint noredzone nounwind
define internal void @"_ZN4core3ptr24drop_in_place$LT$u32$GT$17h3ddda93f5d2fc92fE"(ptr %_1) unnamed_addr #0 !dbg !1246 {
start:
  %_1.dbg.spill = alloca ptr, align 8
  store ptr %_1, ptr %_1.dbg.spill, align 8
  call void @llvm.dbg.declare(metadata ptr %_1.dbg.spill, metadata !1251, metadata !DIExpression()), !dbg !1254
  ret void, !dbg !1254
}

; core::ptr::drop_in_place<u64>
; Function Attrs: inlinehint noredzone nounwind
define internal void @"_ZN4core3ptr24drop_in_place$LT$u64$GT$17h707625e6c97aabb3E"(ptr %_1) unnamed_addr #0 !dbg !1255 {
start:
  %_1.dbg.spill = alloca ptr, align 8
  store ptr %_1, ptr %_1.dbg.spill, align 8
  call void @llvm.dbg.declare(metadata ptr %_1.dbg.spill, metadata !1260, metadata !DIExpression()), !dbg !1261
  ret void, !dbg !1261
}

; core::ptr::slice_from_raw_parts_mut
; Function Attrs: inlinehint noredzone nounwind
define { ptr, i64 } @_ZN4core3ptr24slice_from_raw_parts_mut17h4f44642fed623530E(ptr %data, i64 %len) unnamed_addr #0 !dbg !1262 {
start:
  %self.dbg.spill.i = alloca ptr, align 8
  %len.dbg.spill = alloca i64, align 8
  %data.dbg.spill = alloca ptr, align 8
  store ptr %data, ptr %data.dbg.spill, align 8
  call void @llvm.dbg.declare(metadata ptr %data.dbg.spill, metadata !1266, metadata !DIExpression()), !dbg !1268
  store i64 %len, ptr %len.dbg.spill, align 8
  call void @llvm.dbg.declare(metadata ptr %len.dbg.spill, metadata !1267, metadata !DIExpression()), !dbg !1269
  store ptr %data, ptr %self.dbg.spill.i, align 8
  call void @llvm.dbg.declare(metadata ptr %self.dbg.spill.i, metadata !1270, metadata !DIExpression()), !dbg !1276
; call core::ptr::metadata::from_raw_parts_mut
  %0 = call { ptr, i64 } @_ZN4core3ptr8metadata18from_raw_parts_mut17hb72e76dc781b31a6E(ptr %data, i64 %len) #10, !dbg !1278
  %1 = extractvalue { ptr, i64 } %0, 0, !dbg !1278
  %2 = extractvalue { ptr, i64 } %0, 1, !dbg !1278
  %3 = insertvalue { ptr, i64 } undef, ptr %1, 0, !dbg !1279
  %4 = insertvalue { ptr, i64 } %3, i64 %2, 1, !dbg !1279
  ret { ptr, i64 } %4, !dbg !1279
}

; core::ptr::drop_in_place<&u8>
; Function Attrs: inlinehint noredzone nounwind
define internal void @"_ZN4core3ptr27drop_in_place$LT$$RF$u8$GT$17hece34ee525e599f5E"(ptr %_1) unnamed_addr #0 !dbg !1280 {
start:
  %_1.dbg.spill = alloca ptr, align 8
  store ptr %_1, ptr %_1.dbg.spill, align 8
  call void @llvm.dbg.declare(metadata ptr %_1.dbg.spill, metadata !1285, metadata !DIExpression()), !dbg !1288
  ret void, !dbg !1288
}

; core::ptr::drop_in_place<&u32>
; Function Attrs: inlinehint noredzone nounwind
define internal void @"_ZN4core3ptr28drop_in_place$LT$$RF$u32$GT$17h9f4315a52c3a60e0E"(ptr %_1) unnamed_addr #0 !dbg !1289 {
start:
  %_1.dbg.spill = alloca ptr, align 8
  store ptr %_1, ptr %_1.dbg.spill, align 8
  call void @llvm.dbg.declare(metadata ptr %_1.dbg.spill, metadata !1294, metadata !DIExpression()), !dbg !1297
  ret void, !dbg !1297
}

; core::ptr::drop_in_place<&u64>
; Function Attrs: inlinehint noredzone nounwind
define internal void @"_ZN4core3ptr28drop_in_place$LT$$RF$u64$GT$17ha705ee9fc1ef02fcE"(ptr %_1) unnamed_addr #0 !dbg !1298 {
start:
  %_1.dbg.spill = alloca ptr, align 8
  store ptr %_1, ptr %_1.dbg.spill, align 8
  call void @llvm.dbg.declare(metadata ptr %_1.dbg.spill, metadata !1303, metadata !DIExpression()), !dbg !1306
  ret void, !dbg !1306
}

; core::ptr::swap_nonoverlapping_simple_untyped
; Function Attrs: inlinehint noredzone nounwind
define void @_ZN4core3ptr34swap_nonoverlapping_simple_untyped17hf6f1df5e8875f92fE(ptr %x, ptr %y, i64 %count) unnamed_addr #0 !dbg !1307 {
start:
  %0 = alloca ptr, align 8
  %count.dbg.spill.i13 = alloca i64, align 8
  %self.dbg.spill.i14 = alloca ptr, align 8
  %1 = alloca ptr, align 8
  %count.dbg.spill.i11 = alloca i64, align 8
  %self.dbg.spill.i12 = alloca ptr, align 8
  %self.dbg.spill.i10 = alloca ptr, align 8
  %self.dbg.spill.i9 = alloca ptr, align 8
  %count.dbg.spill.i7 = alloca i64, align 8
  %self.dbg.spill.i8 = alloca ptr, align 8
  %count.dbg.spill.i = alloca i64, align 8
  %self.dbg.spill.i = alloca ptr, align 8
  %y.dbg.spill6 = alloca ptr, align 8
  %x.dbg.spill5 = alloca ptr, align 8
  %y.dbg.spill4 = alloca ptr, align 8
  %x.dbg.spill2 = alloca ptr, align 8
  %count.dbg.spill = alloca i64, align 8
  %y.dbg.spill = alloca ptr, align 8
  %x.dbg.spill = alloca ptr, align 8
  %i = alloca i64, align 8
  store ptr %x, ptr %x.dbg.spill, align 8
  call void @llvm.dbg.declare(metadata ptr %x.dbg.spill, metadata !1309, metadata !DIExpression()), !dbg !1323
  store ptr %y, ptr %y.dbg.spill, align 8
  call void @llvm.dbg.declare(metadata ptr %y.dbg.spill, metadata !1310, metadata !DIExpression()), !dbg !1324
  store i64 %count, ptr %count.dbg.spill, align 8
  call void @llvm.dbg.declare(metadata ptr %count.dbg.spill, metadata !1311, metadata !DIExpression()), !dbg !1325
  call void @llvm.dbg.declare(metadata ptr %i, metadata !1317, metadata !DIExpression()), !dbg !1326
  store ptr %x, ptr %self.dbg.spill.i10, align 8
  call void @llvm.dbg.declare(metadata ptr %self.dbg.spill.i10, metadata !1327, metadata !DIExpression()), !dbg !1334
  store ptr %x, ptr %x.dbg.spill2, align 8, !dbg !1336
  call void @llvm.dbg.declare(metadata ptr %x.dbg.spill2, metadata !1312, metadata !DIExpression()), !dbg !1337
  store ptr %y, ptr %self.dbg.spill.i9, align 8
  call void @llvm.dbg.declare(metadata ptr %self.dbg.spill.i9, metadata !1327, metadata !DIExpression()), !dbg !1338
  store ptr %y, ptr %y.dbg.spill4, align 8, !dbg !1340
  call void @llvm.dbg.declare(metadata ptr %y.dbg.spill4, metadata !1315, metadata !DIExpression()), !dbg !1341
  store i64 0, ptr %i, align 8, !dbg !1342
  br label %bb3, !dbg !1343

bb3:                                              ; preds = %bb8, %start
  %_8 = load i64, ptr %i, align 8, !dbg !1344, !noundef !24
  %_7 = icmp ult i64 %_8, %count, !dbg !1344
  br i1 %_7, label %bb4, label %bb9, !dbg !1344

bb9:                                              ; preds = %bb3
  ret void, !dbg !1345

bb4:                                              ; preds = %bb3
  %_12 = load i64, ptr %i, align 8, !dbg !1346, !noundef !24
  store ptr %x, ptr %self.dbg.spill.i8, align 8
  call void @llvm.dbg.declare(metadata ptr %self.dbg.spill.i8, metadata !1347, metadata !DIExpression()), !dbg !1353
  store i64 %_12, ptr %count.dbg.spill.i7, align 8
  call void @llvm.dbg.declare(metadata ptr %count.dbg.spill.i7, metadata !1352, metadata !DIExpression()), !dbg !1355
  store ptr %x, ptr %self.dbg.spill.i12, align 8
  call void @llvm.dbg.declare(metadata ptr %self.dbg.spill.i12, metadata !1356, metadata !DIExpression()), !dbg !1362
  store i64 %_12, ptr %count.dbg.spill.i11, align 8
  call void @llvm.dbg.declare(metadata ptr %count.dbg.spill.i11, metadata !1361, metadata !DIExpression()), !dbg !1364
  %2 = getelementptr inbounds %"core::mem::maybe_uninit::MaybeUninit<bootinfo::memory_map::MemoryRegion>", ptr %x, i64 %_12, !dbg !1365
  store ptr %2, ptr %1, align 8, !dbg !1365
  %_3.i = load ptr, ptr %1, align 8, !dbg !1365, !noundef !24
  store ptr %_3.i, ptr %x.dbg.spill5, align 8, !dbg !1366
  call void @llvm.dbg.declare(metadata ptr %x.dbg.spill5, metadata !1319, metadata !DIExpression()), !dbg !1367
  %_16 = load i64, ptr %i, align 8, !dbg !1368, !noundef !24
  store ptr %y, ptr %self.dbg.spill.i, align 8
  call void @llvm.dbg.declare(metadata ptr %self.dbg.spill.i, metadata !1347, metadata !DIExpression()), !dbg !1369
  store i64 %_16, ptr %count.dbg.spill.i, align 8
  call void @llvm.dbg.declare(metadata ptr %count.dbg.spill.i, metadata !1352, metadata !DIExpression()), !dbg !1371
  store ptr %y, ptr %self.dbg.spill.i14, align 8
  call void @llvm.dbg.declare(metadata ptr %self.dbg.spill.i14, metadata !1356, metadata !DIExpression()), !dbg !1372
  store i64 %_16, ptr %count.dbg.spill.i13, align 8
  call void @llvm.dbg.declare(metadata ptr %count.dbg.spill.i13, metadata !1361, metadata !DIExpression()), !dbg !1374
  %3 = getelementptr inbounds %"core::mem::maybe_uninit::MaybeUninit<bootinfo::memory_map::MemoryRegion>", ptr %y, i64 %_16, !dbg !1375
  store ptr %3, ptr %0, align 8, !dbg !1375
  %_3.i15 = load ptr, ptr %0, align 8, !dbg !1375, !noundef !24
  store ptr %_3.i15, ptr %y.dbg.spill6, align 8, !dbg !1376
  call void @llvm.dbg.declare(metadata ptr %y.dbg.spill6, metadata !1321, metadata !DIExpression()), !dbg !1377
; call core::mem::swap_simple
  call void @_ZN4core3mem11swap_simple17hede3dff591370c1cE(ptr align 8 %_3.i, ptr align 8 %_3.i15) #10, !dbg !1378
  %4 = load i64, ptr %i, align 8, !dbg !1379, !noundef !24
  %5 = call { i64, i1 } @llvm.uadd.with.overflow.i64(i64 %4, i64 1), !dbg !1379
  %_18.0 = extractvalue { i64, i1 } %5, 0, !dbg !1379
  %_18.1 = extractvalue { i64, i1 } %5, 1, !dbg !1379
  %6 = call i1 @llvm.expect.i1(i1 %_18.1, i1 false), !dbg !1379
  br i1 %6, label %panic, label %bb8, !dbg !1379

bb8:                                              ; preds = %bb4
  store i64 %_18.0, ptr %i, align 8, !dbg !1379
  br label %bb3, !dbg !1343

panic:                                            ; preds = %bb4
; call core::panicking::panic
  call void @_ZN4core9panicking5panic17h2341ccf462e0c328E(ptr align 1 @str.2, i64 28, ptr align 8 @alloc342) #11, !dbg !1379
  unreachable, !dbg !1379
}

; core::ptr::read
; Function Attrs: inlinehint noredzone nounwind
define void @_ZN4core3ptr4read17h7e887ee07bcfebe1E(ptr sret(%"core::mem::maybe_uninit::MaybeUninit<bootinfo::memory_map::MemoryRegion>") %0, ptr %src) unnamed_addr #0 !dbg !1380 {
start:
  %src.dbg.spill.i = alloca ptr, align 8
  %_3.i = alloca %"core::mem::manually_drop::ManuallyDrop<core::mem::maybe_uninit::MaybeUninit<bootinfo::memory_map::MemoryRegion>>", align 8
  %self.dbg.spill.i = alloca ptr, align 8
  %src.dbg.spill = alloca ptr, align 8
  %_7 = alloca %"core::mem::maybe_uninit::MaybeUninit<core::mem::maybe_uninit::MaybeUninit<bootinfo::memory_map::MemoryRegion>>", align 8
  %_4 = alloca ptr, align 8
  %tmp = alloca %"core::mem::maybe_uninit::MaybeUninit<core::mem::maybe_uninit::MaybeUninit<bootinfo::memory_map::MemoryRegion>>", align 8
  store ptr %src, ptr %src.dbg.spill, align 8
  call void @llvm.dbg.declare(metadata ptr %src.dbg.spill, metadata !1384, metadata !DIExpression()), !dbg !1394
  call void @llvm.dbg.declare(metadata ptr %tmp, metadata !1385, metadata !DIExpression()), !dbg !1395
  store ptr %src, ptr %_4, align 8, !dbg !1396
  %1 = load ptr, ptr %_4, align 8, !dbg !1396, !noundef !24
  store ptr %1, ptr %src.dbg.spill.i, align 8
  call void @llvm.dbg.declare(metadata ptr %src.dbg.spill.i, metadata !1397, metadata !DIExpression()), !dbg !1403
; call core::intrinsics::is_aligned_and_not_null
  %_3.i1 = call zeroext i1 @_ZN4core10intrinsics23is_aligned_and_not_null17h826fcd3d06ba96b4E(ptr %1) #10, !dbg !1405
  %_2.i = xor i1 %_3.i1, true, !dbg !1407
  br i1 %_2.i, label %bb2.i, label %_ZN4core3ptr4read7runtime17h2e6cf6bc438ff033E.exit, !dbg !1407

bb2.i:                                            ; preds = %start
; call core::panicking::panic_nounwind
  call void @_ZN4core9panicking14panic_nounwind17h2659e8ef56e187b0E(ptr align 1 @alloc346, i64 101) #11, !dbg !1408
  unreachable, !dbg !1408

_ZN4core3ptr4read7runtime17h2e6cf6bc438ff033E.exit: ; preds = %start
  store ptr %tmp, ptr %self.dbg.spill.i, align 8
  call void @llvm.dbg.declare(metadata ptr %self.dbg.spill.i, metadata !1409, metadata !DIExpression()), !dbg !1416
  call void @llvm.memcpy.p0.p0.i64(ptr align 8 %tmp, ptr align 8 %src, i64 24, i1 false), !dbg !1418
  call void @llvm.memcpy.p0.p0.i64(ptr align 8 %_7, ptr align 8 %tmp, i64 24, i1 false), !dbg !1419
  call void @llvm.dbg.declare(metadata ptr %_7, metadata !1420, metadata !DIExpression()), !dbg !1425
  call void @llvm.memcpy.p0.p0.i64(ptr align 8 %_3.i, ptr align 8 %_7, i64 24, i1 false), !dbg !1427
  call void @llvm.dbg.declare(metadata ptr %_3.i, metadata !1428, metadata !DIExpression()), !dbg !1433
  call void @llvm.memcpy.p0.p0.i64(ptr align 8 %0, ptr align 8 %_3.i, i64 24, i1 false), !dbg !1435
  ret void, !dbg !1436
}

; core::ptr::read
; Function Attrs: inlinehint noredzone nounwind
define void @_ZN4core3ptr4read17hc4a3b4e001a11806E(ptr sret(%"bootinfo::memory_map::MemoryRegion") %0, ptr %src) unnamed_addr #0 !dbg !1437 {
start:
  %src.dbg.spill.i = alloca ptr, align 8
  %_3.i = alloca %"core::mem::manually_drop::ManuallyDrop<bootinfo::memory_map::MemoryRegion>", align 8
  %self.dbg.spill.i = alloca ptr, align 8
  %src.dbg.spill = alloca ptr, align 8
  %_7 = alloca %"core::mem::maybe_uninit::MaybeUninit<bootinfo::memory_map::MemoryRegion>", align 8
  %_4 = alloca ptr, align 8
  %tmp = alloca %"core::mem::maybe_uninit::MaybeUninit<bootinfo::memory_map::MemoryRegion>", align 8
  store ptr %src, ptr %src.dbg.spill, align 8
  call void @llvm.dbg.declare(metadata ptr %src.dbg.spill, metadata !1441, metadata !DIExpression()), !dbg !1444
  call void @llvm.dbg.declare(metadata ptr %tmp, metadata !1442, metadata !DIExpression()), !dbg !1445
  store ptr %src, ptr %_4, align 8, !dbg !1446
  %1 = load ptr, ptr %_4, align 8, !dbg !1446, !noundef !24
  store ptr %1, ptr %src.dbg.spill.i, align 8
  call void @llvm.dbg.declare(metadata ptr %src.dbg.spill.i, metadata !1447, metadata !DIExpression()), !dbg !1452
; call core::intrinsics::is_aligned_and_not_null
  %_3.i1 = call zeroext i1 @_ZN4core10intrinsics23is_aligned_and_not_null17h6a60c6b4bab249b8E(ptr %1) #10, !dbg !1454
  %_2.i = xor i1 %_3.i1, true, !dbg !1456
  br i1 %_2.i, label %bb2.i, label %_ZN4core3ptr4read7runtime17hd50a912ea7f502c4E.exit, !dbg !1456

bb2.i:                                            ; preds = %start
; call core::panicking::panic_nounwind
  call void @_ZN4core9panicking14panic_nounwind17h2659e8ef56e187b0E(ptr align 1 @alloc346, i64 101) #11, !dbg !1457
  unreachable, !dbg !1457

_ZN4core3ptr4read7runtime17hd50a912ea7f502c4E.exit: ; preds = %start
  store ptr %tmp, ptr %self.dbg.spill.i, align 8
  call void @llvm.dbg.declare(metadata ptr %self.dbg.spill.i, metadata !1458, metadata !DIExpression()), !dbg !1463
  call void @llvm.memcpy.p0.p0.i64(ptr align 8 %tmp, ptr align 8 %src, i64 24, i1 false), !dbg !1465
  call void @llvm.memcpy.p0.p0.i64(ptr align 8 %_7, ptr align 8 %tmp, i64 24, i1 false), !dbg !1466
  call void @llvm.dbg.declare(metadata ptr %_7, metadata !1467, metadata !DIExpression()), !dbg !1472
  call void @llvm.memcpy.p0.p0.i64(ptr align 8 %_3.i, ptr align 8 %_7, i64 24, i1 false), !dbg !1474
  call void @llvm.dbg.declare(metadata ptr %_3.i, metadata !1475, metadata !DIExpression()), !dbg !1480
  call void @llvm.memcpy.p0.p0.i64(ptr align 8 %0, ptr align 8 %_3.i, i64 24, i1 false), !dbg !1482
  ret void, !dbg !1483
}

; core::ptr::swap
; Function Attrs: inlinehint noredzone nounwind
define void @_ZN4core3ptr4swap17h59951b18b0ba78c3E(ptr %x, ptr %y) unnamed_addr #0 !dbg !1484 {
start:
  %self.dbg.spill.i1 = alloca ptr, align 8
  %self.dbg.spill.i = alloca ptr, align 8
  %y.dbg.spill = alloca ptr, align 8
  %x.dbg.spill = alloca ptr, align 8
  %tmp = alloca %"core::mem::maybe_uninit::MaybeUninit<bootinfo::memory_map::MemoryRegion>", align 8
  store ptr %x, ptr %x.dbg.spill, align 8
  call void @llvm.dbg.declare(metadata ptr %x.dbg.spill, metadata !1488, metadata !DIExpression()), !dbg !1492
  store ptr %y, ptr %y.dbg.spill, align 8
  call void @llvm.dbg.declare(metadata ptr %y.dbg.spill, metadata !1489, metadata !DIExpression()), !dbg !1493
  call void @llvm.dbg.declare(metadata ptr %tmp, metadata !1490, metadata !DIExpression()), !dbg !1494
  store ptr %tmp, ptr %self.dbg.spill.i, align 8
  call void @llvm.dbg.declare(metadata ptr %self.dbg.spill.i, metadata !1458, metadata !DIExpression()), !dbg !1495
; call core::intrinsics::copy_nonoverlapping
  call void @_ZN4core10intrinsics19copy_nonoverlapping17hb745d534b1a3fc84E(ptr %x, ptr %tmp, i64 1) #10, !dbg !1497
; call core::intrinsics::copy
  call void @_ZN4core10intrinsics4copy17hc5335cd0346ba533E(ptr %y, ptr %x, i64 1) #10, !dbg !1498
  store ptr %tmp, ptr %self.dbg.spill.i1, align 8
  call void @llvm.dbg.declare(metadata ptr %self.dbg.spill.i1, metadata !1499, metadata !DIExpression()), !dbg !1505
; call core::intrinsics::copy_nonoverlapping
  call void @_ZN4core10intrinsics19copy_nonoverlapping17hb745d534b1a3fc84E(ptr %tmp, ptr %y, i64 1) #10, !dbg !1507
  ret void, !dbg !1508
}

; core::ptr::swap
; Function Attrs: inlinehint noredzone nounwind
define void @_ZN4core3ptr4swap17h5e214ee24fa407efE(ptr %x, ptr %y) unnamed_addr #0 !dbg !1509 {
start:
  %0 = alloca i64, align 8
  %self.dbg.spill.i1 = alloca ptr, align 8
  %self.dbg.spill.i = alloca ptr, align 8
  %y.dbg.spill = alloca ptr, align 8
  %x.dbg.spill = alloca ptr, align 8
  %tmp = alloca i64, align 8
  store ptr %x, ptr %x.dbg.spill, align 8
  call void @llvm.dbg.declare(metadata ptr %x.dbg.spill, metadata !1513, metadata !DIExpression()), !dbg !1524
  store ptr %y, ptr %y.dbg.spill, align 8
  call void @llvm.dbg.declare(metadata ptr %y.dbg.spill, metadata !1514, metadata !DIExpression()), !dbg !1525
  call void @llvm.dbg.declare(metadata ptr %tmp, metadata !1515, metadata !DIExpression()), !dbg !1526
  %1 = load i64, ptr %0, align 8, !dbg !1527
  store i64 %1, ptr %tmp, align 8, !dbg !1532
  store ptr %tmp, ptr %self.dbg.spill.i, align 8
  call void @llvm.dbg.declare(metadata ptr %self.dbg.spill.i, metadata !1533, metadata !DIExpression()), !dbg !1539
; call core::intrinsics::copy_nonoverlapping
  call void @_ZN4core10intrinsics19copy_nonoverlapping17he6b556ffae8c6245E(ptr %x, ptr %tmp, i64 1) #10, !dbg !1541
; call core::intrinsics::copy
  call void @_ZN4core10intrinsics4copy17h9831803a7b3cada9E(ptr %y, ptr %x, i64 1) #10, !dbg !1542
  store ptr %tmp, ptr %self.dbg.spill.i1, align 8
  call void @llvm.dbg.declare(metadata ptr %self.dbg.spill.i1, metadata !1543, metadata !DIExpression()), !dbg !1549
; call core::intrinsics::copy_nonoverlapping
  call void @_ZN4core10intrinsics19copy_nonoverlapping17he6b556ffae8c6245E(ptr %tmp, ptr %y, i64 1) #10, !dbg !1551
  ret void, !dbg !1552
}

; core::ptr::drop_in_place<bootloader::bootinfo::TlsTemplate>
; Function Attrs: inlinehint noredzone nounwind
define internal void @"_ZN4core3ptr54drop_in_place$LT$bootloader..bootinfo..TlsTemplate$GT$17h283cfac31f5bb3e5E"(ptr %_1) unnamed_addr #0 !dbg !1553 {
start:
  %_1.dbg.spill = alloca ptr, align 8
  store ptr %_1, ptr %_1.dbg.spill, align 8
  call void @llvm.dbg.declare(metadata ptr %_1.dbg.spill, metadata !1558, metadata !DIExpression()), !dbg !1561
  ret void, !dbg !1561
}

; core::ptr::write
; Function Attrs: inlinehint noredzone nounwind
define void @_ZN4core3ptr5write17h13f342a0963792bfE(ptr %dst, ptr %src) unnamed_addr #0 !dbg !1562 {
start:
  %dst.dbg.spill.i = alloca ptr, align 8
  %dst.dbg.spill = alloca ptr, align 8
  %_4 = alloca ptr, align 8
  store ptr %dst, ptr %dst.dbg.spill, align 8
  call void @llvm.dbg.declare(metadata ptr %dst.dbg.spill, metadata !1566, metadata !DIExpression()), !dbg !1568
  call void @llvm.dbg.declare(metadata ptr %src, metadata !1567, metadata !DIExpression()), !dbg !1569
  store ptr %dst, ptr %_4, align 8, !dbg !1570
  %0 = load ptr, ptr %_4, align 8, !dbg !1570, !noundef !24
  store ptr %0, ptr %dst.dbg.spill.i, align 8
  call void @llvm.dbg.declare(metadata ptr %dst.dbg.spill.i, metadata !1571, metadata !DIExpression()), !dbg !1577
; call core::intrinsics::is_aligned_and_not_null
  %_3.i = call zeroext i1 @_ZN4core10intrinsics23is_aligned_and_not_null17h6a60c6b4bab249b8E(ptr %0) #10, !dbg !1579
  %_2.i = xor i1 %_3.i, true, !dbg !1581
  br i1 %_2.i, label %bb2.i, label %_ZN4core3ptr5write7runtime17h63a19ca64089740aE.exit, !dbg !1581

bb2.i:                                            ; preds = %start
; call core::panicking::panic_nounwind
  call void @_ZN4core9panicking14panic_nounwind17h2659e8ef56e187b0E(ptr align 1 @alloc348, i64 102) #11, !dbg !1582
  unreachable, !dbg !1582

_ZN4core3ptr5write7runtime17h63a19ca64089740aE.exit: ; preds = %start
  call void @llvm.memcpy.p0.p0.i64(ptr align 8 %dst, ptr align 8 %src, i64 24, i1 false), !dbg !1583
  ret void, !dbg !1584
}

; core::ptr::write
; Function Attrs: inlinehint noredzone nounwind
define void @_ZN4core3ptr5write17h78e37c5b1bec47a4E(ptr %dst, ptr %src) unnamed_addr #0 !dbg !1585 {
start:
  %dst.dbg.spill.i = alloca ptr, align 8
  %dst.dbg.spill = alloca ptr, align 8
  %_4 = alloca ptr, align 8
  store ptr %dst, ptr %dst.dbg.spill, align 8
  call void @llvm.dbg.declare(metadata ptr %dst.dbg.spill, metadata !1589, metadata !DIExpression()), !dbg !1591
  call void @llvm.dbg.declare(metadata ptr %src, metadata !1590, metadata !DIExpression()), !dbg !1592
  store ptr %dst, ptr %_4, align 8, !dbg !1593
  %0 = load ptr, ptr %_4, align 8, !dbg !1593, !noundef !24
  store ptr %0, ptr %dst.dbg.spill.i, align 8
  call void @llvm.dbg.declare(metadata ptr %dst.dbg.spill.i, metadata !1594, metadata !DIExpression()), !dbg !1599
; call core::intrinsics::is_aligned_and_not_null
  %_3.i = call zeroext i1 @_ZN4core10intrinsics23is_aligned_and_not_null17h826fcd3d06ba96b4E(ptr %0) #10, !dbg !1601
  %_2.i = xor i1 %_3.i, true, !dbg !1603
  br i1 %_2.i, label %bb2.i, label %_ZN4core3ptr5write7runtime17h838a6b99bc5e95b2E.exit, !dbg !1603

bb2.i:                                            ; preds = %start
; call core::panicking::panic_nounwind
  call void @_ZN4core9panicking14panic_nounwind17h2659e8ef56e187b0E(ptr align 1 @alloc348, i64 102) #11, !dbg !1604
  unreachable, !dbg !1604

_ZN4core3ptr5write7runtime17h838a6b99bc5e95b2E.exit: ; preds = %start
  call void @llvm.memcpy.p0.p0.i64(ptr align 8 %dst, ptr align 8 %src, i64 24, i1 false), !dbg !1605
  ret void, !dbg !1606
}

; core::ptr::drop_in_place<bootloader::bootinfo::memory_map::MemoryMap>
; Function Attrs: inlinehint noredzone nounwind
define internal void @"_ZN4core3ptr64drop_in_place$LT$bootloader..bootinfo..memory_map..MemoryMap$GT$17hf1197bdd632281c1E"(ptr %_1) unnamed_addr #0 !dbg !1607 {
start:
  %_1.dbg.spill = alloca ptr, align 8
  store ptr %_1, ptr %_1.dbg.spill, align 8
  call void @llvm.dbg.declare(metadata ptr %_1.dbg.spill, metadata !1612, metadata !DIExpression()), !dbg !1615
  ret void, !dbg !1615
}

; core::ptr::drop_in_place<bootloader::bootinfo::memory_map::FrameRange>
; Function Attrs: inlinehint noredzone nounwind
define internal void @"_ZN4core3ptr65drop_in_place$LT$bootloader..bootinfo..memory_map..FrameRange$GT$17h62b29fe4400e8c9eE"(ptr %_1) unnamed_addr #0 !dbg !1616 {
start:
  %_1.dbg.spill = alloca ptr, align 8
  store ptr %_1, ptr %_1.dbg.spill, align 8
  call void @llvm.dbg.declare(metadata ptr %_1.dbg.spill, metadata !1621, metadata !DIExpression()), !dbg !1624
  ret void, !dbg !1624
}

; core::ptr::drop_in_place<&bootloader::bootinfo::memory_map::MemoryRegion>
; Function Attrs: inlinehint noredzone nounwind
define internal void @"_ZN4core3ptr71drop_in_place$LT$$RF$bootloader..bootinfo..memory_map..MemoryRegion$GT$17hf778883e36c7f693E"(ptr %_1) unnamed_addr #0 !dbg !1625 {
start:
  %_1.dbg.spill = alloca ptr, align 8
  store ptr %_1, ptr %_1.dbg.spill, align 8
  call void @llvm.dbg.declare(metadata ptr %_1.dbg.spill, metadata !1630, metadata !DIExpression()), !dbg !1631
  ret void, !dbg !1631
}

; core::ptr::drop_in_place<&bootloader::bootinfo::memory_map::MemoryRegionType>
; Function Attrs: inlinehint noredzone nounwind
define internal void @"_ZN4core3ptr75drop_in_place$LT$$RF$bootloader..bootinfo..memory_map..MemoryRegionType$GT$17h2deb57f46a4a201eE"(ptr %_1) unnamed_addr #0 !dbg !1632 {
start:
  %_1.dbg.spill = alloca ptr, align 8
  store ptr %_1, ptr %_1.dbg.spill, align 8
  call void @llvm.dbg.declare(metadata ptr %_1.dbg.spill, metadata !1637, metadata !DIExpression()), !dbg !1640
  ret void, !dbg !1640
}

; core::ptr::mut_ptr::<impl *mut T>::is_null::runtime_impl
; Function Attrs: inlinehint noredzone nounwind
define internal zeroext i1 @"_ZN4core3ptr7mut_ptr31_$LT$impl$u20$$BP$mut$u20$T$GT$7is_null12runtime_impl17hbdfbfef6ad685b7cE"(ptr %ptr) unnamed_addr #0 !dbg !1641 {
start:
  %self.dbg.spill.i1 = alloca ptr, align 8
  %0 = alloca i64, align 8
  %self.dbg.spill.i = alloca ptr, align 8
  %ptr.dbg.spill = alloca ptr, align 8
  store ptr %ptr, ptr %ptr.dbg.spill, align 8
  call void @llvm.dbg.declare(metadata ptr %ptr.dbg.spill, metadata !1646, metadata !DIExpression()), !dbg !1647
  store ptr %ptr, ptr %self.dbg.spill.i, align 8
  call void @llvm.dbg.declare(metadata ptr %self.dbg.spill.i, metadata !1648, metadata !DIExpression()), !dbg !1655
  store ptr %ptr, ptr %self.dbg.spill.i1, align 8
  call void @llvm.dbg.declare(metadata ptr %self.dbg.spill.i1, metadata !1657, metadata !DIExpression()), !dbg !1663
  store ptr %ptr, ptr %0, align 8, !dbg !1665
  %1 = load i64, ptr %0, align 8, !dbg !1665, !noundef !24
  %2 = icmp eq i64 %1, 0, !dbg !1666
  ret i1 %2, !dbg !1667
}

; core::ptr::mut_ptr::<impl *mut T>::is_null
; Function Attrs: inlinehint noredzone nounwind
define zeroext i1 @"_ZN4core3ptr7mut_ptr31_$LT$impl$u20$$BP$mut$u20$T$GT$7is_null17h532880c291436c84E"(ptr %self) unnamed_addr #0 !dbg !1668 {
start:
  %self.dbg.spill = alloca ptr, align 8
  %_2 = alloca ptr, align 8
  store ptr %self, ptr %self.dbg.spill, align 8
  call void @llvm.dbg.declare(metadata ptr %self.dbg.spill, metadata !1672, metadata !DIExpression()), !dbg !1673
  store ptr %self, ptr %_2, align 8, !dbg !1674
  %0 = load ptr, ptr %_2, align 8, !dbg !1675, !noundef !24
; call core::ptr::mut_ptr::<impl *mut T>::is_null::runtime_impl
  %1 = call zeroext i1 @"_ZN4core3ptr7mut_ptr31_$LT$impl$u20$$BP$mut$u20$T$GT$7is_null12runtime_impl17hbdfbfef6ad685b7cE"(ptr %0) #10, !dbg !1675
  ret i1 %1, !dbg !1676
}

; core::ptr::metadata::from_raw_parts
; Function Attrs: inlinehint noredzone nounwind
define { ptr, i64 } @_ZN4core3ptr8metadata14from_raw_parts17h96779705a0853e12E(ptr %data_address, i64 %metadata) unnamed_addr #0 !dbg !1677 {
start:
  %metadata.dbg.spill = alloca i64, align 8
  %data_address.dbg.spill = alloca ptr, align 8
  %_4 = alloca { ptr, i64 }, align 8
  %_3 = alloca %"core::ptr::metadata::PtrRepr<[bootinfo::memory_map::MemoryRegion]>", align 8
  store ptr %data_address, ptr %data_address.dbg.spill, align 8
  call void @llvm.dbg.declare(metadata ptr %data_address.dbg.spill, metadata !1683, metadata !DIExpression()), !dbg !1685
  store i64 %metadata, ptr %metadata.dbg.spill, align 8
  call void @llvm.dbg.declare(metadata ptr %metadata.dbg.spill, metadata !1684, metadata !DIExpression()), !dbg !1686
  store ptr %data_address, ptr %_4, align 8, !dbg !1687
  %0 = getelementptr inbounds { ptr, i64 }, ptr %_4, i32 0, i32 1, !dbg !1687
  store i64 %metadata, ptr %0, align 8, !dbg !1687
  %1 = getelementptr inbounds { ptr, i64 }, ptr %_4, i32 0, i32 0, !dbg !1688
  %2 = load ptr, ptr %1, align 8, !dbg !1688, !noundef !24
  %3 = getelementptr inbounds { ptr, i64 }, ptr %_4, i32 0, i32 1, !dbg !1688
  %4 = load i64, ptr %3, align 8, !dbg !1688, !noundef !24
  %5 = getelementptr inbounds { ptr, i64 }, ptr %_3, i32 0, i32 0, !dbg !1688
  store ptr %2, ptr %5, align 8, !dbg !1688
  %6 = getelementptr inbounds { ptr, i64 }, ptr %_3, i32 0, i32 1, !dbg !1688
  store i64 %4, ptr %6, align 8, !dbg !1688
  %7 = getelementptr inbounds { ptr, i64 }, ptr %_3, i32 0, i32 0, !dbg !1688
  %8 = load ptr, ptr %7, align 8, !dbg !1688, !noundef !24
  %9 = getelementptr inbounds { ptr, i64 }, ptr %_3, i32 0, i32 1, !dbg !1688
  %10 = load i64, ptr %9, align 8, !dbg !1688, !noundef !24
  %11 = insertvalue { ptr, i64 } undef, ptr %8, 0, !dbg !1689
  %12 = insertvalue { ptr, i64 } %11, i64 %10, 1, !dbg !1689
  ret { ptr, i64 } %12, !dbg !1689
}

; core::ptr::metadata::from_raw_parts
; Function Attrs: inlinehint noredzone nounwind
define ptr @_ZN4core3ptr8metadata14from_raw_parts17hdf5128deb57a5081E(ptr %data_address) unnamed_addr #0 !dbg !1690 {
start:
  %metadata.dbg.spill = alloca {}, align 1
  %data_address.dbg.spill = alloca ptr, align 8
  %_4 = alloca %"core::ptr::metadata::PtrComponents<bootinfo::memory_map::MemoryRegion>", align 8
  %_3 = alloca %"core::ptr::metadata::PtrRepr<bootinfo::memory_map::MemoryRegion>", align 8
  store ptr %data_address, ptr %data_address.dbg.spill, align 8
  call void @llvm.dbg.declare(metadata ptr %data_address.dbg.spill, metadata !1694, metadata !DIExpression()), !dbg !1696
  call void @llvm.dbg.declare(metadata ptr %metadata.dbg.spill, metadata !1695, metadata !DIExpression()), !dbg !1697
  store ptr %data_address, ptr %_4, align 8, !dbg !1698
  call void @llvm.memcpy.p0.p0.i64(ptr align 8 %_3, ptr align 8 %_4, i64 8, i1 false), !dbg !1699
  %0 = load ptr, ptr %_3, align 8, !dbg !1699, !noundef !24
  ret ptr %0, !dbg !1700
}

; core::ptr::metadata::from_raw_parts_mut
; Function Attrs: inlinehint noredzone nounwind
define { ptr, i64 } @_ZN4core3ptr8metadata18from_raw_parts_mut17hb72e76dc781b31a6E(ptr %data_address, i64 %metadata) unnamed_addr #0 !dbg !1701 {
start:
  %metadata.dbg.spill = alloca i64, align 8
  %data_address.dbg.spill = alloca ptr, align 8
  %_4 = alloca { ptr, i64 }, align 8
  %_3 = alloca %"core::ptr::metadata::PtrRepr<[bootinfo::memory_map::MemoryRegion]>", align 8
  store ptr %data_address, ptr %data_address.dbg.spill, align 8
  call void @llvm.dbg.declare(metadata ptr %data_address.dbg.spill, metadata !1705, metadata !DIExpression()), !dbg !1707
  store i64 %metadata, ptr %metadata.dbg.spill, align 8
  call void @llvm.dbg.declare(metadata ptr %metadata.dbg.spill, metadata !1706, metadata !DIExpression()), !dbg !1708
  store ptr %data_address, ptr %_4, align 8, !dbg !1709
  %0 = getelementptr inbounds { ptr, i64 }, ptr %_4, i32 0, i32 1, !dbg !1709
  store i64 %metadata, ptr %0, align 8, !dbg !1709
  %1 = getelementptr inbounds { ptr, i64 }, ptr %_4, i32 0, i32 0, !dbg !1710
  %2 = load ptr, ptr %1, align 8, !dbg !1710, !noundef !24
  %3 = getelementptr inbounds { ptr, i64 }, ptr %_4, i32 0, i32 1, !dbg !1710
  %4 = load i64, ptr %3, align 8, !dbg !1710, !noundef !24
  %5 = getelementptr inbounds { ptr, i64 }, ptr %_3, i32 0, i32 0, !dbg !1710
  store ptr %2, ptr %5, align 8, !dbg !1710
  %6 = getelementptr inbounds { ptr, i64 }, ptr %_3, i32 0, i32 1, !dbg !1710
  store i64 %4, ptr %6, align 8, !dbg !1710
  %7 = getelementptr inbounds { ptr, i64 }, ptr %_3, i32 0, i32 0, !dbg !1710
  %8 = load ptr, ptr %7, align 8, !dbg !1710, !noundef !24
  %9 = getelementptr inbounds { ptr, i64 }, ptr %_3, i32 0, i32 1, !dbg !1710
  %10 = load i64, ptr %9, align 8, !dbg !1710, !noundef !24
  %11 = insertvalue { ptr, i64 } undef, ptr %8, 0, !dbg !1711
  %12 = insertvalue { ptr, i64 } %11, i64 %10, 1, !dbg !1711
  ret { ptr, i64 } %12, !dbg !1711
}

; core::ptr::metadata::metadata
; Function Attrs: inlinehint noredzone nounwind
define void @_ZN4core3ptr8metadata8metadata17h163e40077ca65461E(ptr %ptr) unnamed_addr #0 !dbg !1712 {
start:
  %ptr.dbg.spill = alloca ptr, align 8
  %_2 = alloca %"core::ptr::metadata::PtrRepr<bootinfo::memory_map::MemoryRegion>", align 8
  store ptr %ptr, ptr %ptr.dbg.spill, align 8
  call void @llvm.dbg.declare(metadata ptr %ptr.dbg.spill, metadata !1714, metadata !DIExpression()), !dbg !1715
  store ptr %ptr, ptr %_2, align 8, !dbg !1716
  ret void, !dbg !1717
}

; core::ptr::metadata::metadata
; Function Attrs: inlinehint noredzone nounwind
define i64 @_ZN4core3ptr8metadata8metadata17h28e9a44b1a4defa6E(ptr %ptr.0, i64 %ptr.1) unnamed_addr #0 !dbg !1718 {
start:
  %ptr.dbg.spill = alloca { ptr, i64 }, align 8
  %_2 = alloca %"core::ptr::metadata::PtrRepr<[bootinfo::memory_map::MemoryRegion]>", align 8
  %0 = getelementptr inbounds { ptr, i64 }, ptr %ptr.dbg.spill, i32 0, i32 0
  store ptr %ptr.0, ptr %0, align 8
  %1 = getelementptr inbounds { ptr, i64 }, ptr %ptr.dbg.spill, i32 0, i32 1
  store i64 %ptr.1, ptr %1, align 8
  call void @llvm.dbg.declare(metadata ptr %ptr.dbg.spill, metadata !1722, metadata !DIExpression()), !dbg !1723
  %2 = getelementptr inbounds { ptr, i64 }, ptr %_2, i32 0, i32 0, !dbg !1724
  store ptr %ptr.0, ptr %2, align 8, !dbg !1724
  %3 = getelementptr inbounds { ptr, i64 }, ptr %_2, i32 0, i32 1, !dbg !1724
  store i64 %ptr.1, ptr %3, align 8, !dbg !1724
  %4 = getelementptr inbounds { ptr, i64 }, ptr %_2, i32 0, i32 1, !dbg !1724
  %5 = load i64, ptr %4, align 8, !dbg !1724, !noundef !24
  ret i64 %5, !dbg !1725
}

; core::ptr::non_null::NonNull<T>::new_unchecked
; Function Attrs: inlinehint noredzone nounwind
define ptr @"_ZN4core3ptr8non_null16NonNull$LT$T$GT$13new_unchecked17h18bc62e0621d126cE"(ptr %ptr) unnamed_addr #0 !dbg !1726 {
start:
  %ptr.dbg.spill.i = alloca ptr, align 8
  %ptr.dbg.spill = alloca ptr, align 8
  %_3 = alloca ptr, align 8
  %0 = alloca ptr, align 8
  store ptr %ptr, ptr %ptr.dbg.spill, align 8
  call void @llvm.dbg.declare(metadata ptr %ptr.dbg.spill, metadata !1731, metadata !DIExpression()), !dbg !1732
  store ptr %ptr, ptr %_3, align 8, !dbg !1733
  %1 = load ptr, ptr %_3, align 8, !dbg !1733, !noundef !24
  store ptr %1, ptr %ptr.dbg.spill.i, align 8
  call void @llvm.dbg.declare(metadata ptr %ptr.dbg.spill.i, metadata !1734, metadata !DIExpression()), !dbg !1739
; call core::ptr::mut_ptr::<impl *mut T>::is_null
  %_4.i = call zeroext i1 @"_ZN4core3ptr7mut_ptr31_$LT$impl$u20$$BP$mut$u20$T$GT$7is_null17h532880c291436c84E"(ptr %1) #10, !dbg !1741
  %_3.i = xor i1 %_4.i, true, !dbg !1743
  br i1 %_4.i, label %bb2.i, label %"_ZN4core3ptr8non_null16NonNull$LT$T$GT$13new_unchecked7runtime17h9f337dc199006af8E.exit", !dbg !1744

bb2.i:                                            ; preds = %start
; call core::panicking::panic_nounwind
  call void @_ZN4core9panicking14panic_nounwind17h2659e8ef56e187b0E(ptr align 1 @alloc349, i64 93) #11, !dbg !1745
  unreachable, !dbg !1745

"_ZN4core3ptr8non_null16NonNull$LT$T$GT$13new_unchecked7runtime17h9f337dc199006af8E.exit": ; preds = %start
  store ptr %ptr, ptr %0, align 8, !dbg !1746
  %2 = load ptr, ptr %0, align 8, !dbg !1747, !nonnull !24, !noundef !24
  ret ptr %2, !dbg !1747
}

; core::ptr::const_ptr::<impl *const T>::is_aligned
; Function Attrs: inlinehint noredzone nounwind
define zeroext i1 @"_ZN4core3ptr9const_ptr33_$LT$impl$u20$$BP$const$u20$T$GT$10is_aligned17h012921aa164287ceE"(ptr %self) unnamed_addr #0 !dbg !1748 {
start:
  %self.dbg.spill = alloca ptr, align 8
  store ptr %self, ptr %self.dbg.spill, align 8
  call void @llvm.dbg.declare(metadata ptr %self.dbg.spill, metadata !1750, metadata !DIExpression()), !dbg !1751
; call core::ptr::const_ptr::<impl *const T>::is_aligned_to
  %0 = call zeroext i1 @"_ZN4core3ptr9const_ptr33_$LT$impl$u20$$BP$const$u20$T$GT$13is_aligned_to17h68029eeaec8c3569E"(ptr %self, i64 8) #10, !dbg !1752
  ret i1 %0, !dbg !1753
}

; core::ptr::const_ptr::<impl *const T>::is_aligned
; Function Attrs: inlinehint noredzone nounwind
define zeroext i1 @"_ZN4core3ptr9const_ptr33_$LT$impl$u20$$BP$const$u20$T$GT$10is_aligned17hcef368e9ddc423d6E"(ptr %self) unnamed_addr #0 !dbg !1754 {
start:
  %self.dbg.spill = alloca ptr, align 8
  store ptr %self, ptr %self.dbg.spill, align 8
  call void @llvm.dbg.declare(metadata ptr %self.dbg.spill, metadata !1756, metadata !DIExpression()), !dbg !1757
; call core::ptr::const_ptr::<impl *const T>::is_aligned_to
  %0 = call zeroext i1 @"_ZN4core3ptr9const_ptr33_$LT$impl$u20$$BP$const$u20$T$GT$13is_aligned_to17h536385641514af47E"(ptr %self, i64 8) #10, !dbg !1758
  ret i1 %0, !dbg !1759
}

; core::ptr::const_ptr::<impl *const T>::is_aligned_to::runtime_impl
; Function Attrs: inlinehint noredzone nounwind
define internal zeroext i1 @"_ZN4core3ptr9const_ptr33_$LT$impl$u20$$BP$const$u20$T$GT$13is_aligned_to12runtime_impl17hde7ff9a91eb95225E"(ptr %ptr, i64 %align) unnamed_addr #0 !dbg !1760 {
start:
  %self.dbg.spill.i1 = alloca ptr, align 8
  %0 = alloca i64, align 8
  %self.dbg.spill.i = alloca ptr, align 8
  %align.dbg.spill = alloca i64, align 8
  %ptr.dbg.spill = alloca ptr, align 8
  store ptr %ptr, ptr %ptr.dbg.spill, align 8
  call void @llvm.dbg.declare(metadata ptr %ptr.dbg.spill, metadata !1765, metadata !DIExpression()), !dbg !1767
  store i64 %align, ptr %align.dbg.spill, align 8
  call void @llvm.dbg.declare(metadata ptr %align.dbg.spill, metadata !1766, metadata !DIExpression()), !dbg !1768
  store ptr %ptr, ptr %self.dbg.spill.i, align 8
  call void @llvm.dbg.declare(metadata ptr %self.dbg.spill.i, metadata !1769, metadata !DIExpression()), !dbg !1775
  store ptr %ptr, ptr %self.dbg.spill.i1, align 8
  call void @llvm.dbg.declare(metadata ptr %self.dbg.spill.i1, metadata !1777, metadata !DIExpression()), !dbg !1783
  store ptr %ptr, ptr %0, align 8, !dbg !1785
  %1 = load i64, ptr %0, align 8, !dbg !1785, !noundef !24
  %_6.0 = sub i64 %align, 1, !dbg !1786
  %_6.1 = icmp ult i64 %align, 1, !dbg !1786
  %2 = call i1 @llvm.expect.i1(i1 %_6.1, i1 false), !dbg !1786
  br i1 %2, label %panic, label %bb2, !dbg !1786

bb2:                                              ; preds = %start
  %_3 = and i64 %1, %_6.0, !dbg !1787
  %3 = icmp eq i64 %_3, 0, !dbg !1787
  ret i1 %3, !dbg !1788

panic:                                            ; preds = %start
; call core::panicking::panic
  call void @_ZN4core9panicking5panic17h2341ccf462e0c328E(ptr align 1 @str.0, i64 33, ptr align 8 @alloc351) #11, !dbg !1786
  unreachable, !dbg !1786
}

; core::ptr::const_ptr::<impl *const T>::is_aligned_to
; Function Attrs: inlinehint noredzone nounwind
define zeroext i1 @"_ZN4core3ptr9const_ptr33_$LT$impl$u20$$BP$const$u20$T$GT$13is_aligned_to17h536385641514af47E"(ptr %self, i64 %align) unnamed_addr #0 !dbg !1789 {
start:
  %self.dbg.spill.i1 = alloca ptr, align 8
  %0 = alloca i64, align 8
  %self.dbg.spill.i.i = alloca i64, align 8
  %self.dbg.spill.i = alloca i64, align 8
  %align.dbg.spill = alloca i64, align 8
  %self.dbg.spill = alloca ptr, align 8
  %_9 = alloca { ptr, i64 }, align 8
  %_6 = alloca %"core::fmt::Arguments<'_>", align 8
  store ptr %self, ptr %self.dbg.spill, align 8
  call void @llvm.dbg.declare(metadata ptr %self.dbg.spill, metadata !1793, metadata !DIExpression()), !dbg !1795
  store i64 %align, ptr %align.dbg.spill, align 8
  call void @llvm.dbg.declare(metadata ptr %align.dbg.spill, metadata !1794, metadata !DIExpression()), !dbg !1796
  store i64 %align, ptr %self.dbg.spill.i, align 8
  call void @llvm.dbg.declare(metadata ptr %self.dbg.spill.i, metadata !1184, metadata !DIExpression()), !dbg !1797
  store i64 %align, ptr %self.dbg.spill.i.i, align 8
  call void @llvm.dbg.declare(metadata ptr %self.dbg.spill.i.i, metadata !1189, metadata !DIExpression()), !dbg !1799
  %1 = call i64 @llvm.ctpop.i64(i64 %align), !dbg !1801
  store i64 %1, ptr %0, align 8, !dbg !1801
  %_2.i.i = load i64, ptr %0, align 8, !dbg !1801, !noundef !24
  %2 = trunc i64 %_2.i.i to i32, !dbg !1801
  %3 = icmp eq i32 %2, 1, !dbg !1802
  %_3 = xor i1 %3, true, !dbg !1803
  br i1 %_3, label %bb2, label %bb4, !dbg !1803

bb4:                                              ; preds = %start
  store ptr %self, ptr %self.dbg.spill.i1, align 8
  call void @llvm.dbg.declare(metadata ptr %self.dbg.spill.i1, metadata !1804, metadata !DIExpression()), !dbg !1810
  store ptr %self, ptr %_9, align 8, !dbg !1812
  %4 = getelementptr inbounds { ptr, i64 }, ptr %_9, i32 0, i32 1, !dbg !1812
  store i64 %align, ptr %4, align 8, !dbg !1812
  %5 = load ptr, ptr %_9, align 8, !dbg !1813, !noundef !24
  %6 = getelementptr inbounds { ptr, i64 }, ptr %_9, i32 0, i32 1, !dbg !1813
  %7 = load i64, ptr %6, align 8, !dbg !1813, !noundef !24
; call core::ptr::const_ptr::<impl *const T>::is_aligned_to::runtime_impl
  %8 = call zeroext i1 @"_ZN4core3ptr9const_ptr33_$LT$impl$u20$$BP$const$u20$T$GT$13is_aligned_to12runtime_impl17hde7ff9a91eb95225E"(ptr %5, i64 %7) #10, !dbg !1813
  ret i1 %8, !dbg !1814

bb2:                                              ; preds = %start
; call core::fmt::Arguments::new_v1
  call void @_ZN4core3fmt9Arguments6new_v117h30dac65f16f7140aE(ptr sret(%"core::fmt::Arguments<'_>") %_6, ptr align 8 @alloc75, i64 1, ptr align 8 @alloc78, i64 0) #10, !dbg !1815
; call core::panicking::panic_fmt
  call void @_ZN4core9panicking9panic_fmt17h0c6ec1399a51edb5E(ptr %_6, ptr align 8 @alloc353) #11, !dbg !1815
  unreachable, !dbg !1815
}

; core::ptr::const_ptr::<impl *const T>::is_aligned_to
; Function Attrs: inlinehint noredzone nounwind
define zeroext i1 @"_ZN4core3ptr9const_ptr33_$LT$impl$u20$$BP$const$u20$T$GT$13is_aligned_to17h68029eeaec8c3569E"(ptr %self, i64 %align) unnamed_addr #0 !dbg !1816 {
start:
  %self.dbg.spill.i1 = alloca ptr, align 8
  %0 = alloca i64, align 8
  %self.dbg.spill.i.i = alloca i64, align 8
  %self.dbg.spill.i = alloca i64, align 8
  %align.dbg.spill = alloca i64, align 8
  %self.dbg.spill = alloca ptr, align 8
  %_9 = alloca { ptr, i64 }, align 8
  %_6 = alloca %"core::fmt::Arguments<'_>", align 8
  store ptr %self, ptr %self.dbg.spill, align 8
  call void @llvm.dbg.declare(metadata ptr %self.dbg.spill, metadata !1820, metadata !DIExpression()), !dbg !1822
  store i64 %align, ptr %align.dbg.spill, align 8
  call void @llvm.dbg.declare(metadata ptr %align.dbg.spill, metadata !1821, metadata !DIExpression()), !dbg !1823
  store i64 %align, ptr %self.dbg.spill.i, align 8
  call void @llvm.dbg.declare(metadata ptr %self.dbg.spill.i, metadata !1184, metadata !DIExpression()), !dbg !1824
  store i64 %align, ptr %self.dbg.spill.i.i, align 8
  call void @llvm.dbg.declare(metadata ptr %self.dbg.spill.i.i, metadata !1189, metadata !DIExpression()), !dbg !1826
  %1 = call i64 @llvm.ctpop.i64(i64 %align), !dbg !1828
  store i64 %1, ptr %0, align 8, !dbg !1828
  %_2.i.i = load i64, ptr %0, align 8, !dbg !1828, !noundef !24
  %2 = trunc i64 %_2.i.i to i32, !dbg !1828
  %3 = icmp eq i32 %2, 1, !dbg !1829
  %_3 = xor i1 %3, true, !dbg !1830
  br i1 %_3, label %bb2, label %bb4, !dbg !1830

bb4:                                              ; preds = %start
  store ptr %self, ptr %self.dbg.spill.i1, align 8
  call void @llvm.dbg.declare(metadata ptr %self.dbg.spill.i1, metadata !549, metadata !DIExpression()), !dbg !1831
  store ptr %self, ptr %_9, align 8, !dbg !1833
  %4 = getelementptr inbounds { ptr, i64 }, ptr %_9, i32 0, i32 1, !dbg !1833
  store i64 %align, ptr %4, align 8, !dbg !1833
  %5 = load ptr, ptr %_9, align 8, !dbg !1834, !noundef !24
  %6 = getelementptr inbounds { ptr, i64 }, ptr %_9, i32 0, i32 1, !dbg !1834
  %7 = load i64, ptr %6, align 8, !dbg !1834, !noundef !24
; call core::ptr::const_ptr::<impl *const T>::is_aligned_to::runtime_impl
  %8 = call zeroext i1 @"_ZN4core3ptr9const_ptr33_$LT$impl$u20$$BP$const$u20$T$GT$13is_aligned_to12runtime_impl17hde7ff9a91eb95225E"(ptr %5, i64 %7) #10, !dbg !1834
  ret i1 %8, !dbg !1835

bb2:                                              ; preds = %start
; call core::fmt::Arguments::new_v1
  call void @_ZN4core3fmt9Arguments6new_v117h30dac65f16f7140aE(ptr sret(%"core::fmt::Arguments<'_>") %_6, ptr align 8 @alloc75, i64 1, ptr align 8 @alloc78, i64 0) #10, !dbg !1836
; call core::panicking::panic_fmt
  call void @_ZN4core9panicking9panic_fmt17h0c6ec1399a51edb5E(ptr %_6, ptr align 8 @alloc353) #11, !dbg !1836
  unreachable, !dbg !1836
}

; core::ptr::const_ptr::<impl *const T>::with_metadata_of
; Function Attrs: inlinehint noredzone nounwind
define ptr @"_ZN4core3ptr9const_ptr33_$LT$impl$u20$$BP$const$u20$T$GT$16with_metadata_of17h18ca5e21f2ab0970E"(ptr %self, ptr %meta) unnamed_addr #0 !dbg !1837 {
start:
  %meta.dbg.spill = alloca ptr, align 8
  %self.dbg.spill = alloca ptr, align 8
  store ptr %self, ptr %self.dbg.spill, align 8
  call void @llvm.dbg.declare(metadata ptr %self.dbg.spill, metadata !1842, metadata !DIExpression()), !dbg !1846
  store ptr %meta, ptr %meta.dbg.spill, align 8
  call void @llvm.dbg.declare(metadata ptr %meta.dbg.spill, metadata !1843, metadata !DIExpression()), !dbg !1847
; call core::ptr::metadata::metadata
  call void @_ZN4core3ptr8metadata8metadata17h163e40077ca65461E(ptr %meta) #10, !dbg !1848
; call core::ptr::metadata::from_raw_parts
  %0 = call ptr @_ZN4core3ptr8metadata14from_raw_parts17hdf5128deb57a5081E(ptr %self) #10, !dbg !1849
  ret ptr %0, !dbg !1850
}

; core::ptr::const_ptr::<impl *const T>::is_null::runtime_impl
; Function Attrs: inlinehint noredzone nounwind
define internal zeroext i1 @"_ZN4core3ptr9const_ptr33_$LT$impl$u20$$BP$const$u20$T$GT$7is_null12runtime_impl17h2b1072a734c73bb2E"(ptr %ptr) unnamed_addr #0 !dbg !1851 {
start:
  %self.dbg.spill.i1 = alloca ptr, align 8
  %0 = alloca i64, align 8
  %self.dbg.spill.i = alloca ptr, align 8
  %ptr.dbg.spill = alloca ptr, align 8
  store ptr %ptr, ptr %ptr.dbg.spill, align 8
  call void @llvm.dbg.declare(metadata ptr %ptr.dbg.spill, metadata !1856, metadata !DIExpression()), !dbg !1857
  store ptr %ptr, ptr %self.dbg.spill.i, align 8
  call void @llvm.dbg.declare(metadata ptr %self.dbg.spill.i, metadata !1858, metadata !DIExpression()), !dbg !1863
  store ptr %ptr, ptr %self.dbg.spill.i1, align 8
  call void @llvm.dbg.declare(metadata ptr %self.dbg.spill.i1, metadata !1865, metadata !DIExpression()), !dbg !1870
  store ptr %ptr, ptr %0, align 8, !dbg !1872
  %1 = load i64, ptr %0, align 8, !dbg !1872, !noundef !24
  %2 = icmp eq i64 %1, 0, !dbg !1873
  ret i1 %2, !dbg !1874
}

; core::ptr::const_ptr::<impl *const T>::is_null
; Function Attrs: inlinehint noredzone nounwind
define zeroext i1 @"_ZN4core3ptr9const_ptr33_$LT$impl$u20$$BP$const$u20$T$GT$7is_null17h0ffc917f38722119E"(ptr %self) unnamed_addr #0 !dbg !1875 {
start:
  %self.dbg.spill = alloca ptr, align 8
  %_2 = alloca ptr, align 8
  store ptr %self, ptr %self.dbg.spill, align 8
  call void @llvm.dbg.declare(metadata ptr %self.dbg.spill, metadata !1877, metadata !DIExpression()), !dbg !1878
  store ptr %self, ptr %_2, align 8, !dbg !1879
  %0 = load ptr, ptr %_2, align 8, !dbg !1880, !noundef !24
; call core::ptr::const_ptr::<impl *const T>::is_null::runtime_impl
  %1 = call zeroext i1 @"_ZN4core3ptr9const_ptr33_$LT$impl$u20$$BP$const$u20$T$GT$7is_null12runtime_impl17h2b1072a734c73bb2E"(ptr %0) #10, !dbg !1880
  ret i1 %1, !dbg !1881
}

; core::ptr::const_ptr::<impl *const T>::is_null
; Function Attrs: inlinehint noredzone nounwind
define zeroext i1 @"_ZN4core3ptr9const_ptr33_$LT$impl$u20$$BP$const$u20$T$GT$7is_null17h39beab9ca460943bE"(ptr %self) unnamed_addr #0 !dbg !1882 {
start:
  %self.dbg.spill = alloca ptr, align 8
  %_2 = alloca ptr, align 8
  store ptr %self, ptr %self.dbg.spill, align 8
  call void @llvm.dbg.declare(metadata ptr %self.dbg.spill, metadata !1884, metadata !DIExpression()), !dbg !1885
  store ptr %self, ptr %_2, align 8, !dbg !1886
  %0 = load ptr, ptr %_2, align 8, !dbg !1887, !noundef !24
; call core::ptr::const_ptr::<impl *const T>::is_null::runtime_impl
  %1 = call zeroext i1 @"_ZN4core3ptr9const_ptr33_$LT$impl$u20$$BP$const$u20$T$GT$7is_null12runtime_impl17h2b1072a734c73bb2E"(ptr %0) #10, !dbg !1887
  ret i1 %1, !dbg !1888
}

; core::ptr::const_ptr::<impl *const T>::sub_ptr
; Function Attrs: inlinehint noredzone nounwind
define i64 @"_ZN4core3ptr9const_ptr33_$LT$impl$u20$$BP$const$u20$T$GT$7sub_ptr17h8c59d9ec96e33016E"(ptr %self, ptr %origin) unnamed_addr #0 !dbg !1889 {
start:
  %origin.dbg.spill.i = alloca ptr, align 8
  %this.dbg.spill.i = alloca ptr, align 8
  %0 = alloca i64, align 8
  %pointee_size.dbg.spill = alloca i64, align 8
  %origin.dbg.spill = alloca ptr, align 8
  %self.dbg.spill = alloca ptr, align 8
  %_7 = alloca i8, align 1
  %_4 = alloca { ptr, ptr }, align 8
  store ptr %self, ptr %self.dbg.spill, align 8
  call void @llvm.dbg.declare(metadata ptr %self.dbg.spill, metadata !1893, metadata !DIExpression()), !dbg !1899
  call void @llvm.dbg.declare(metadata ptr %self.dbg.spill, metadata !1895, metadata !DIExpression()), !dbg !1900
  store ptr %origin, ptr %origin.dbg.spill, align 8
  call void @llvm.dbg.declare(metadata ptr %origin.dbg.spill, metadata !1894, metadata !DIExpression()), !dbg !1901
  store ptr %self, ptr %_4, align 8, !dbg !1902
  %1 = getelementptr inbounds { ptr, ptr }, ptr %_4, i32 0, i32 1, !dbg !1902
  store ptr %origin, ptr %1, align 8, !dbg !1902
  %2 = load ptr, ptr %_4, align 8, !dbg !1902, !noundef !24
  %3 = getelementptr inbounds { ptr, ptr }, ptr %_4, i32 0, i32 1, !dbg !1902
  %4 = load ptr, ptr %3, align 8, !dbg !1902, !noundef !24
  store ptr %2, ptr %this.dbg.spill.i, align 8
  call void @llvm.dbg.declare(metadata ptr %this.dbg.spill.i, metadata !1903, metadata !DIExpression()), !dbg !1910
  store ptr %4, ptr %origin.dbg.spill.i, align 8
  call void @llvm.dbg.declare(metadata ptr %origin.dbg.spill.i, metadata !1909, metadata !DIExpression()), !dbg !1910
  %_4.i = icmp uge ptr %2, %4, !dbg !1912
  %_3.i = xor i1 %_4.i, true, !dbg !1914
  br i1 %_3.i, label %bb1.i, label %"_ZN4core3ptr9const_ptr33_$LT$impl$u20$$BP$const$u20$T$GT$7sub_ptr7runtime17h74470608b1fc274eE.exit", !dbg !1914

bb1.i:                                            ; preds = %start
; call core::panicking::panic_nounwind
  call void @_ZN4core9panicking14panic_nounwind17h2659e8ef56e187b0E(ptr align 1 @alloc357, i64 71) #11, !dbg !1915
  unreachable, !dbg !1915

"_ZN4core3ptr9const_ptr33_$LT$impl$u20$$BP$const$u20$T$GT$7sub_ptr7runtime17h74470608b1fc274eE.exit": ; preds = %start
  store i64 24, ptr %pointee_size.dbg.spill, align 8, !dbg !1916
  call void @llvm.dbg.declare(metadata ptr %pointee_size.dbg.spill, metadata !1897, metadata !DIExpression()), !dbg !1917
  %_8 = icmp ult i64 0, 24, !dbg !1918
  br i1 %_8, label %bb4, label %bb3, !dbg !1918

bb3:                                              ; preds = %"_ZN4core3ptr9const_ptr33_$LT$impl$u20$$BP$const$u20$T$GT$7sub_ptr7runtime17h74470608b1fc274eE.exit"
  store i8 0, ptr %_7, align 1, !dbg !1918
  br label %bb5, !dbg !1918

bb4:                                              ; preds = %"_ZN4core3ptr9const_ptr33_$LT$impl$u20$$BP$const$u20$T$GT$7sub_ptr7runtime17h74470608b1fc274eE.exit"
  %_10 = icmp ule i64 24, 9223372036854775807, !dbg !1919
  %5 = zext i1 %_10 to i8, !dbg !1918
  store i8 %5, ptr %_7, align 1, !dbg !1918
  br label %bb5, !dbg !1918

bb5:                                              ; preds = %bb3, %bb4
  %6 = load i8, ptr %_7, align 1, !dbg !1920, !range !210, !noundef !24
  %7 = trunc i8 %6 to i1, !dbg !1920
  %_6 = xor i1 %7, true, !dbg !1920
  br i1 %_6, label %bb6, label %bb7, !dbg !1920

bb7:                                              ; preds = %bb5
  %8 = ptrtoint ptr %self to i64, !dbg !1921
  %9 = ptrtoint ptr %origin to i64, !dbg !1921
  %10 = sub nuw i64 %8, %9, !dbg !1921
  %11 = udiv exact i64 %10, 24, !dbg !1921
  store i64 %11, ptr %0, align 8, !dbg !1921
  %12 = load i64, ptr %0, align 8, !dbg !1921, !noundef !24
  ret i64 %12, !dbg !1922

bb6:                                              ; preds = %bb5
; call core::panicking::panic
  call void @_ZN4core9panicking5panic17h2341ccf462e0c328E(ptr align 1 @alloc354, i64 73, ptr align 8 @alloc356) #11, !dbg !1920
  unreachable, !dbg !1920
}

; core::ptr::const_ptr::<impl *const [T]>::len
; Function Attrs: inlinehint noredzone nounwind
define i64 @"_ZN4core3ptr9const_ptr43_$LT$impl$u20$$BP$const$u20$$u5b$T$u5d$$GT$3len17h1865381c5371083cE"(ptr %self.0, i64 %self.1) unnamed_addr #0 !dbg !1923 {
start:
  %self.dbg.spill = alloca { ptr, i64 }, align 8
  %0 = getelementptr inbounds { ptr, i64 }, ptr %self.dbg.spill, i32 0, i32 0
  store ptr %self.0, ptr %0, align 8
  %1 = getelementptr inbounds { ptr, i64 }, ptr %self.dbg.spill, i32 0, i32 1
  store i64 %self.1, ptr %1, align 8
  call void @llvm.dbg.declare(metadata ptr %self.dbg.spill, metadata !1926, metadata !DIExpression()), !dbg !1927
; call core::ptr::metadata::metadata
  %2 = call i64 @_ZN4core3ptr8metadata8metadata17h28e9a44b1a4defa6E(ptr %self.0, i64 %self.1) #10, !dbg !1928
  ret i64 %2, !dbg !1929
}

; core::ptr::const_ptr::<impl *const [T]>::as_ptr
; Function Attrs: inlinehint noredzone nounwind
define ptr @"_ZN4core3ptr9const_ptr43_$LT$impl$u20$$BP$const$u20$$u5b$T$u5d$$GT$6as_ptr17haa644275dcb538efE"(ptr %self.0, i64 %self.1) unnamed_addr #0 !dbg !1930 {
start:
  %self.dbg.spill = alloca { ptr, i64 }, align 8
  %0 = getelementptr inbounds { ptr, i64 }, ptr %self.dbg.spill, i32 0, i32 0
  store ptr %self.0, ptr %0, align 8
  %1 = getelementptr inbounds { ptr, i64 }, ptr %self.dbg.spill, i32 0, i32 1
  store i64 %self.1, ptr %1, align 8
  call void @llvm.dbg.declare(metadata ptr %self.dbg.spill, metadata !1934, metadata !DIExpression()), !dbg !1935
  ret ptr %self.0, !dbg !1936
}

; core::array::<impl core::ops::index::Index<I> for [T; N]>::index
; Function Attrs: inlinehint noredzone nounwind
define { ptr, i64 } @"_ZN4core5array85_$LT$impl$u20$core..ops..index..Index$LT$I$GT$$u20$for$u20$$u5b$T$u3b$$u20$N$u5d$$GT$5index17hf82c206c24146943E"(ptr align 8 %self, i64 %index.0, i64 %index.1, ptr align 8 %0) unnamed_addr #0 !dbg !1937 {
start:
  %index.dbg.spill = alloca { i64, i64 }, align 8
  %self.dbg.spill = alloca ptr, align 8
  store ptr %self, ptr %self.dbg.spill, align 8
  call void @llvm.dbg.declare(metadata ptr %self.dbg.spill, metadata !1945, metadata !DIExpression()), !dbg !1949
  %1 = getelementptr inbounds { i64, i64 }, ptr %index.dbg.spill, i32 0, i32 0
  store i64 %index.0, ptr %1, align 8
  %2 = getelementptr inbounds { i64, i64 }, ptr %index.dbg.spill, i32 0, i32 1
  store i64 %index.1, ptr %2, align 8
  call void @llvm.dbg.declare(metadata ptr %index.dbg.spill, metadata !1946, metadata !DIExpression()), !dbg !1950
; call core::slice::index::<impl core::ops::index::Index<I> for [T]>::index
  %3 = call { ptr, i64 } @"_ZN4core5slice5index74_$LT$impl$u20$core..ops..index..Index$LT$I$GT$$u20$for$u20$$u5b$T$u5d$$GT$5index17hc7d1bbe173cff432E"(ptr align 8 %self, i64 64, i64 %index.0, i64 %index.1, ptr align 8 %0) #10, !dbg !1951
  %4 = extractvalue { ptr, i64 } %3, 0, !dbg !1951
  %5 = extractvalue { ptr, i64 } %3, 1, !dbg !1951
  %6 = insertvalue { ptr, i64 } undef, ptr %4, 0, !dbg !1952
  %7 = insertvalue { ptr, i64 } %6, i64 %5, 1, !dbg !1952
  ret { ptr, i64 } %7, !dbg !1952
}

; core::array::<impl core::ops::index::IndexMut<I> for [T; N]>::index_mut
; Function Attrs: inlinehint noredzone nounwind
define { ptr, i64 } @"_ZN4core5array88_$LT$impl$u20$core..ops..index..IndexMut$LT$I$GT$$u20$for$u20$$u5b$T$u3b$$u20$N$u5d$$GT$9index_mut17ha5ddd80e808f2e45E"(ptr align 8 %self, i64 %index.0, i64 %index.1, ptr align 8 %0) unnamed_addr #0 !dbg !1953 {
start:
  %index.dbg.spill = alloca { i64, i64 }, align 8
  %self.dbg.spill = alloca ptr, align 8
  store ptr %self, ptr %self.dbg.spill, align 8
  call void @llvm.dbg.declare(metadata ptr %self.dbg.spill, metadata !1959, metadata !DIExpression()), !dbg !1961
  %1 = getelementptr inbounds { i64, i64 }, ptr %index.dbg.spill, i32 0, i32 0
  store i64 %index.0, ptr %1, align 8
  %2 = getelementptr inbounds { i64, i64 }, ptr %index.dbg.spill, i32 0, i32 1
  store i64 %index.1, ptr %2, align 8
  call void @llvm.dbg.declare(metadata ptr %index.dbg.spill, metadata !1960, metadata !DIExpression()), !dbg !1962
; call core::slice::index::<impl core::ops::index::IndexMut<I> for [T]>::index_mut
  %3 = call { ptr, i64 } @"_ZN4core5slice5index77_$LT$impl$u20$core..ops..index..IndexMut$LT$I$GT$$u20$for$u20$$u5b$T$u5d$$GT$9index_mut17h817a1d02df95443aE"(ptr align 8 %self, i64 64, i64 %index.0, i64 %index.1, ptr align 8 %0) #10, !dbg !1963
  %_3.0 = extractvalue { ptr, i64 } %3, 0, !dbg !1963
  %_3.1 = extractvalue { ptr, i64 } %3, 1, !dbg !1963
  %4 = insertvalue { ptr, i64 } undef, ptr %_3.0, 0, !dbg !1964
  %5 = insertvalue { ptr, i64 } %4, i64 %_3.1, 1, !dbg !1964
  ret { ptr, i64 } %5, !dbg !1964
}

; core::slice::<impl [T]>::split_at_mut
; Function Attrs: inlinehint noredzone nounwind
define void @"_ZN4core5slice29_$LT$impl$u20$$u5b$T$u5d$$GT$12split_at_mut17haac3e8b4c0f9643eE"(ptr sret({ { ptr, i64 }, { ptr, i64 } }) %0, ptr align 8 %self.0, i64 %self.1, i64 %mid, ptr align 8 %1) unnamed_addr #0 !dbg !1965 {
start:
  %mid.dbg.spill = alloca i64, align 8
  %self.dbg.spill = alloca { ptr, i64 }, align 8
  %2 = getelementptr inbounds { ptr, i64 }, ptr %self.dbg.spill, i32 0, i32 0
  store ptr %self.0, ptr %2, align 8
  %3 = getelementptr inbounds { ptr, i64 }, ptr %self.dbg.spill, i32 0, i32 1
  store i64 %self.1, ptr %3, align 8
  call void @llvm.dbg.declare(metadata ptr %self.dbg.spill, metadata !1974, metadata !DIExpression()), !dbg !1976
  store i64 %mid, ptr %mid.dbg.spill, align 8
  call void @llvm.dbg.declare(metadata ptr %mid.dbg.spill, metadata !1975, metadata !DIExpression()), !dbg !1977
  %_4 = icmp ule i64 %mid, %self.1, !dbg !1978
  %_3 = xor i1 %_4, true, !dbg !1979
  br i1 %_3, label %bb1, label %bb2, !dbg !1979

bb2:                                              ; preds = %start
; call core::slice::<impl [T]>::split_at_mut_unchecked
  call void @"_ZN4core5slice29_$LT$impl$u20$$u5b$T$u5d$$GT$22split_at_mut_unchecked17h062c2d5e463458f8E"(ptr sret({ { ptr, i64 }, { ptr, i64 } }) %0, ptr align 8 %self.0, i64 %self.1, i64 %mid) #10, !dbg !1980
  ret void, !dbg !1981

bb1:                                              ; preds = %start
; call core::panicking::panic
  call void @_ZN4core9panicking5panic17h2341ccf462e0c328E(ptr align 1 @alloc358, i64 35, ptr align 8 %1) #11, !dbg !1979
  unreachable, !dbg !1979
}

; core::slice::<impl [T]>::get_unchecked
; Function Attrs: inlinehint noredzone nounwind
define align 8 ptr @"_ZN4core5slice29_$LT$impl$u20$$u5b$T$u5d$$GT$13get_unchecked17ha2c59c6478c7bca0E"(ptr align 8 %self.0, i64 %self.1, i64 %index) unnamed_addr #0 !dbg !1982 {
start:
  %index.dbg.spill = alloca i64, align 8
  %self.dbg.spill = alloca { ptr, i64 }, align 8
  %0 = getelementptr inbounds { ptr, i64 }, ptr %self.dbg.spill, i32 0, i32 0
  store ptr %self.0, ptr %0, align 8
  %1 = getelementptr inbounds { ptr, i64 }, ptr %self.dbg.spill, i32 0, i32 1
  store i64 %self.1, ptr %1, align 8
  call void @llvm.dbg.declare(metadata ptr %self.dbg.spill, metadata !1986, metadata !DIExpression()), !dbg !1990
  store i64 %index, ptr %index.dbg.spill, align 8
  call void @llvm.dbg.declare(metadata ptr %index.dbg.spill, metadata !1987, metadata !DIExpression()), !dbg !1991
; call <usize as core::slice::index::SliceIndex<[T]>>::get_unchecked
  %_3 = call ptr @"_ZN75_$LT$usize$u20$as$u20$core..slice..index..SliceIndex$LT$$u5b$T$u5d$$GT$$GT$13get_unchecked17h6b7de9994ee6e0bcE"(i64 %index, ptr %self.0, i64 %self.1) #10, !dbg !1992
  ret ptr %_3, !dbg !1993
}

; core::slice::<impl [T]>::as_mut_ptr_range
; Function Attrs: inlinehint noredzone nounwind
define { ptr, ptr } @"_ZN4core5slice29_$LT$impl$u20$$u5b$T$u5d$$GT$16as_mut_ptr_range17h91cdc4b7d36f798dE"(ptr align 8 %self.0, i64 %self.1) unnamed_addr #0 !dbg !1994 {
start:
  %self.dbg.spill.i4 = alloca { ptr, i64 }, align 8
  %0 = alloca ptr, align 8
  %count.dbg.spill.i2 = alloca i64, align 8
  %self.dbg.spill.i3 = alloca ptr, align 8
  %count.dbg.spill.i = alloca i64, align 8
  %self.dbg.spill.i = alloca ptr, align 8
  %end.dbg.spill = alloca ptr, align 8
  %start.dbg.spill = alloca ptr, align 8
  %self.dbg.spill = alloca { ptr, i64 }, align 8
  %1 = alloca { ptr, ptr }, align 8
  %2 = getelementptr inbounds { ptr, i64 }, ptr %self.dbg.spill, i32 0, i32 0
  store ptr %self.0, ptr %2, align 8
  %3 = getelementptr inbounds { ptr, i64 }, ptr %self.dbg.spill, i32 0, i32 1
  store i64 %self.1, ptr %3, align 8
  call void @llvm.dbg.declare(metadata ptr %self.dbg.spill, metadata !2004, metadata !DIExpression()), !dbg !2009
  store ptr %self.0, ptr %self.dbg.spill.i4, align 8
  %4 = getelementptr inbounds { ptr, i64 }, ptr %self.dbg.spill.i4, i32 0, i32 1
  store i64 %self.1, ptr %4, align 8
  call void @llvm.dbg.declare(metadata ptr %self.dbg.spill.i4, metadata !2010, metadata !DIExpression()), !dbg !2015
  store ptr %self.0, ptr %start.dbg.spill, align 8, !dbg !2017
  call void @llvm.dbg.declare(metadata ptr %start.dbg.spill, metadata !2005, metadata !DIExpression()), !dbg !2018
  store ptr %self.0, ptr %self.dbg.spill.i, align 8
  call void @llvm.dbg.declare(metadata ptr %self.dbg.spill.i, metadata !291, metadata !DIExpression()), !dbg !2019
  store i64 %self.1, ptr %count.dbg.spill.i, align 8
  call void @llvm.dbg.declare(metadata ptr %count.dbg.spill.i, metadata !297, metadata !DIExpression()), !dbg !2021
  store ptr %self.0, ptr %self.dbg.spill.i3, align 8
  call void @llvm.dbg.declare(metadata ptr %self.dbg.spill.i3, metadata !301, metadata !DIExpression()), !dbg !2022
  store i64 %self.1, ptr %count.dbg.spill.i2, align 8
  call void @llvm.dbg.declare(metadata ptr %count.dbg.spill.i2, metadata !306, metadata !DIExpression()), !dbg !2024
  %5 = getelementptr inbounds %"bootinfo::memory_map::MemoryRegion", ptr %self.0, i64 %self.1, !dbg !2025
  store ptr %5, ptr %0, align 8, !dbg !2025
  %_3.i = load ptr, ptr %0, align 8, !dbg !2025, !noundef !24
  store ptr %_3.i, ptr %end.dbg.spill, align 8, !dbg !2026
  call void @llvm.dbg.declare(metadata ptr %end.dbg.spill, metadata !2007, metadata !DIExpression()), !dbg !2027
  store ptr %self.0, ptr %1, align 8, !dbg !2028
  %6 = getelementptr inbounds { ptr, ptr }, ptr %1, i32 0, i32 1, !dbg !2028
  store ptr %_3.i, ptr %6, align 8, !dbg !2028
  %7 = getelementptr inbounds { ptr, ptr }, ptr %1, i32 0, i32 0, !dbg !2029
  %8 = load ptr, ptr %7, align 8, !dbg !2029, !noundef !24
  %9 = getelementptr inbounds { ptr, ptr }, ptr %1, i32 0, i32 1, !dbg !2029
  %10 = load ptr, ptr %9, align 8, !dbg !2029, !noundef !24
  %11 = insertvalue { ptr, ptr } undef, ptr %8, 0, !dbg !2029
  %12 = insertvalue { ptr, ptr } %11, ptr %10, 1, !dbg !2029
  ret { ptr, ptr } %12, !dbg !2029
}

; core::slice::<impl [T]>::sort_unstable_by
; Function Attrs: inlinehint noredzone nounwind
define void @"_ZN4core5slice29_$LT$impl$u20$$u5b$T$u5d$$GT$16sort_unstable_by17h28a1a9a5f6304447E"(ptr align 8 %self.0, i64 %self.1) unnamed_addr #0 !dbg !2030 {
start:
  %self.dbg.spill = alloca { ptr, i64 }, align 8
  %_4 = alloca ptr, align 8
  %compare = alloca %"[closure@/Users/yaw/.cargo/registry/src/github.com-1ecc6299db9ec823/bootloader-0.9.23/src/bootinfo/memory_map.rs:40:39: 40:47]", align 1
  %0 = getelementptr inbounds { ptr, i64 }, ptr %self.dbg.spill, i32 0, i32 0
  store ptr %self.0, ptr %0, align 8
  %1 = getelementptr inbounds { ptr, i64 }, ptr %self.dbg.spill, i32 0, i32 1
  store i64 %self.1, ptr %1, align 8
  call void @llvm.dbg.declare(metadata ptr %self.dbg.spill, metadata !2034, metadata !DIExpression()), !dbg !2038
  call void @llvm.dbg.declare(metadata ptr %compare, metadata !2035, metadata !DIExpression()), !dbg !2039
  store ptr %compare, ptr %_4, align 8, !dbg !2040
  %2 = load ptr, ptr %_4, align 8, !dbg !2041, !nonnull !24, !align !2042, !noundef !24
; call core::slice::sort::quicksort
  call void @_ZN4core5slice4sort9quicksort17h65d58888f6b725fcE(ptr align 8 %self.0, i64 %self.1, ptr align 1 %2) #10, !dbg !2041
  ret void, !dbg !2043
}

; core::slice::<impl [T]>::sort_unstable_by::{{closure}}
; Function Attrs: inlinehint noredzone nounwind
define zeroext i1 @"_ZN4core5slice29_$LT$impl$u20$$u5b$T$u5d$$GT$16sort_unstable_by28_$u7b$$u7b$closure$u7d$$u7d$17h3af58e2d91edbac6E"(ptr align 8 %_1, ptr align 8 %a, ptr align 8 %b) unnamed_addr #0 !dbg !2044 {
start:
  %b.dbg.spill = alloca ptr, align 8
  %a.dbg.spill = alloca ptr, align 8
  %_1.dbg.spill = alloca ptr, align 8
  %_6 = alloca { ptr, ptr }, align 8
  %_5 = alloca i8, align 1
  store ptr %_1, ptr %_1.dbg.spill, align 8
  call void @llvm.dbg.declare(metadata ptr %_1.dbg.spill, metadata !2050, metadata !DIExpression(DW_OP_deref, DW_OP_deref)), !dbg !2051
  store ptr %a, ptr %a.dbg.spill, align 8
  call void @llvm.dbg.declare(metadata ptr %a.dbg.spill, metadata !2048, metadata !DIExpression()), !dbg !2052
  store ptr %b, ptr %b.dbg.spill, align 8
  call void @llvm.dbg.declare(metadata ptr %b.dbg.spill, metadata !2049, metadata !DIExpression()), !dbg !2053
  %_8 = load ptr, ptr %_1, align 8, !dbg !2054, !nonnull !24, !align !2042, !noundef !24
  store ptr %a, ptr %_6, align 8, !dbg !2054
  %0 = getelementptr inbounds { ptr, ptr }, ptr %_6, i32 0, i32 1, !dbg !2054
  store ptr %b, ptr %0, align 8, !dbg !2054
  %1 = getelementptr inbounds { ptr, ptr }, ptr %_6, i32 0, i32 0, !dbg !2054
  %2 = load ptr, ptr %1, align 8, !dbg !2054, !nonnull !24, !align !504, !noundef !24
  %3 = getelementptr inbounds { ptr, ptr }, ptr %_6, i32 0, i32 1, !dbg !2054
  %4 = load ptr, ptr %3, align 8, !dbg !2054, !nonnull !24, !align !504, !noundef !24
; call bootloader::bootinfo::memory_map::MemoryMap::sort::{{closure}}
  %5 = call i8 @"_ZN10bootloader8bootinfo10memory_map9MemoryMap4sort28_$u7b$$u7b$closure$u7d$$u7d$17h395a9740f6ec9df5E"(ptr align 1 %_8, ptr align 8 %2, ptr align 8 %4) #10, !dbg !2054, !range !739
  store i8 %5, ptr %_5, align 1, !dbg !2054
; call <core::cmp::Ordering as core::cmp::PartialEq>::eq
  %6 = call zeroext i1 @"_ZN60_$LT$core..cmp..Ordering$u20$as$u20$core..cmp..PartialEq$GT$2eq17h08b9696236dc6075E"(ptr align 1 %_5, ptr align 1 @alloc69) #10, !dbg !2054
  ret i1 %6, !dbg !2055
}

; core::slice::<impl [T]>::split_at_mut_unchecked
; Function Attrs: inlinehint noredzone nounwind
define void @"_ZN4core5slice29_$LT$impl$u20$$u5b$T$u5d$$GT$22split_at_mut_unchecked17h062c2d5e463458f8E"(ptr sret({ { ptr, i64 }, { ptr, i64 } }) %0, ptr align 8 %self.0, i64 %self.1, i64 %mid) unnamed_addr #0 !dbg !2056 {
start:
  %len.dbg.spill.i = alloca i64, align 8
  %mid.dbg.spill.i = alloca i64, align 8
  %self.dbg.spill.i3 = alloca { ptr, i64 }, align 8
  %1 = alloca ptr, align 8
  %count.dbg.spill.i1 = alloca i64, align 8
  %self.dbg.spill.i2 = alloca ptr, align 8
  %count.dbg.spill.i = alloca i64, align 8
  %self.dbg.spill.i = alloca ptr, align 8
  %ptr.dbg.spill = alloca ptr, align 8
  %len.dbg.spill = alloca i64, align 8
  %mid.dbg.spill = alloca i64, align 8
  %self.dbg.spill = alloca { ptr, i64 }, align 8
  %_7 = alloca { i64, i64 }, align 8
  %2 = getelementptr inbounds { ptr, i64 }, ptr %self.dbg.spill, i32 0, i32 0
  store ptr %self.0, ptr %2, align 8
  %3 = getelementptr inbounds { ptr, i64 }, ptr %self.dbg.spill, i32 0, i32 1
  store i64 %self.1, ptr %3, align 8
  call void @llvm.dbg.declare(metadata ptr %self.dbg.spill, metadata !2060, metadata !DIExpression()), !dbg !2066
  store i64 %mid, ptr %mid.dbg.spill, align 8
  call void @llvm.dbg.declare(metadata ptr %mid.dbg.spill, metadata !2061, metadata !DIExpression()), !dbg !2067
  store i64 %self.1, ptr %len.dbg.spill, align 8, !dbg !2068
  call void @llvm.dbg.declare(metadata ptr %len.dbg.spill, metadata !2062, metadata !DIExpression()), !dbg !2069
  store ptr %self.0, ptr %self.dbg.spill.i3, align 8
  %4 = getelementptr inbounds { ptr, i64 }, ptr %self.dbg.spill.i3, i32 0, i32 1
  store i64 %self.1, ptr %4, align 8
  call void @llvm.dbg.declare(metadata ptr %self.dbg.spill.i3, metadata !2010, metadata !DIExpression()), !dbg !2070
  store ptr %self.0, ptr %ptr.dbg.spill, align 8, !dbg !2072
  call void @llvm.dbg.declare(metadata ptr %ptr.dbg.spill, metadata !2064, metadata !DIExpression()), !dbg !2073
  store i64 %mid, ptr %_7, align 8, !dbg !2074
  %5 = getelementptr inbounds { i64, i64 }, ptr %_7, i32 0, i32 1, !dbg !2074
  store i64 %self.1, ptr %5, align 8, !dbg !2074
  %6 = load i64, ptr %_7, align 8, !dbg !2074, !noundef !24
  %7 = getelementptr inbounds { i64, i64 }, ptr %_7, i32 0, i32 1, !dbg !2074
  %8 = load i64, ptr %7, align 8, !dbg !2074, !noundef !24
  store i64 %6, ptr %mid.dbg.spill.i, align 8
  call void @llvm.dbg.declare(metadata ptr %mid.dbg.spill.i, metadata !2075, metadata !DIExpression()), !dbg !2082
  store i64 %8, ptr %len.dbg.spill.i, align 8
  call void @llvm.dbg.declare(metadata ptr %len.dbg.spill.i, metadata !2081, metadata !DIExpression()), !dbg !2082
  %_4.i = icmp ule i64 %6, %8, !dbg !2084
  %_3.i4 = xor i1 %_4.i, true, !dbg !2086
  br i1 %_3.i4, label %bb1.i, label %"_ZN4core5slice29_$LT$impl$u20$$u5b$T$u5d$$GT$22split_at_mut_unchecked7runtime17hef2e30e888fa4944E.exit", !dbg !2086

bb1.i:                                            ; preds = %start
; call core::panicking::panic_nounwind
  call void @_ZN4core9panicking14panic_nounwind17h2659e8ef56e187b0E(ptr align 1 @alloc361, i64 104) #11, !dbg !2087
  unreachable, !dbg !2087

"_ZN4core5slice29_$LT$impl$u20$$u5b$T$u5d$$GT$22split_at_mut_unchecked7runtime17hef2e30e888fa4944E.exit": ; preds = %start
; call core::slice::raw::from_raw_parts_mut
  %9 = call { ptr, i64 } @_ZN4core5slice3raw18from_raw_parts_mut17h02aca73b149d318eE(ptr %self.0, i64 %mid) #10, !dbg !2088
  %_9.0 = extractvalue { ptr, i64 } %9, 0, !dbg !2088
  %_9.1 = extractvalue { ptr, i64 } %9, 1, !dbg !2088
  store ptr %self.0, ptr %self.dbg.spill.i, align 8
  call void @llvm.dbg.declare(metadata ptr %self.dbg.spill.i, metadata !291, metadata !DIExpression()), !dbg !2089
  store i64 %mid, ptr %count.dbg.spill.i, align 8
  call void @llvm.dbg.declare(metadata ptr %count.dbg.spill.i, metadata !297, metadata !DIExpression()), !dbg !2091
  store ptr %self.0, ptr %self.dbg.spill.i2, align 8
  call void @llvm.dbg.declare(metadata ptr %self.dbg.spill.i2, metadata !301, metadata !DIExpression()), !dbg !2092
  store i64 %mid, ptr %count.dbg.spill.i1, align 8
  call void @llvm.dbg.declare(metadata ptr %count.dbg.spill.i1, metadata !306, metadata !DIExpression()), !dbg !2094
  %10 = getelementptr inbounds %"bootinfo::memory_map::MemoryRegion", ptr %self.0, i64 %mid, !dbg !2095
  store ptr %10, ptr %1, align 8, !dbg !2095
  %_3.i = load ptr, ptr %1, align 8, !dbg !2095, !noundef !24
  %_16.0 = sub i64 %self.1, %mid, !dbg !2096
  %_16.1 = icmp ult i64 %self.1, %mid, !dbg !2096
  %11 = call i1 @llvm.expect.i1(i1 %_16.1, i1 false), !dbg !2096
  br i1 %11, label %panic, label %bb5, !dbg !2096

bb5:                                              ; preds = %"_ZN4core5slice29_$LT$impl$u20$$u5b$T$u5d$$GT$22split_at_mut_unchecked7runtime17hef2e30e888fa4944E.exit"
; call core::slice::raw::from_raw_parts_mut
  %12 = call { ptr, i64 } @_ZN4core5slice3raw18from_raw_parts_mut17h02aca73b149d318eE(ptr %_3.i, i64 %_16.0) #10, !dbg !2097
  %_12.0 = extractvalue { ptr, i64 } %12, 0, !dbg !2097
  %_12.1 = extractvalue { ptr, i64 } %12, 1, !dbg !2097
  %13 = getelementptr inbounds { ptr, i64 }, ptr %0, i32 0, i32 0, !dbg !2098
  store ptr %_9.0, ptr %13, align 8, !dbg !2098
  %14 = getelementptr inbounds { ptr, i64 }, ptr %0, i32 0, i32 1, !dbg !2098
  store i64 %_9.1, ptr %14, align 8, !dbg !2098
  %15 = getelementptr inbounds { { ptr, i64 }, { ptr, i64 } }, ptr %0, i32 0, i32 1, !dbg !2098
  %16 = getelementptr inbounds { ptr, i64 }, ptr %15, i32 0, i32 0, !dbg !2098
  store ptr %_12.0, ptr %16, align 8, !dbg !2098
  %17 = getelementptr inbounds { ptr, i64 }, ptr %15, i32 0, i32 1, !dbg !2098
  store i64 %_12.1, ptr %17, align 8, !dbg !2098
  ret void, !dbg !2099

panic:                                            ; preds = %"_ZN4core5slice29_$LT$impl$u20$$u5b$T$u5d$$GT$22split_at_mut_unchecked7runtime17hef2e30e888fa4944E.exit"
; call core::panicking::panic
  call void @_ZN4core9panicking5panic17h2341ccf462e0c328E(ptr align 1 @str.0, i64 33, ptr align 8 @alloc360) #11, !dbg !2096
  unreachable, !dbg !2096
}

; core::slice::<impl [T]>::iter
; Function Attrs: inlinehint noredzone nounwind
define { ptr, ptr } @"_ZN4core5slice29_$LT$impl$u20$$u5b$T$u5d$$GT$4iter17hba14cdcfec7012a6E"(ptr align 8 %self.0, i64 %self.1) unnamed_addr #0 !dbg !2100 {
start:
  %self.dbg.spill = alloca { ptr, i64 }, align 8
  %0 = getelementptr inbounds { ptr, i64 }, ptr %self.dbg.spill, i32 0, i32 0
  store ptr %self.0, ptr %0, align 8
  %1 = getelementptr inbounds { ptr, i64 }, ptr %self.dbg.spill, i32 0, i32 1
  store i64 %self.1, ptr %1, align 8
  call void @llvm.dbg.declare(metadata ptr %self.dbg.spill, metadata !2104, metadata !DIExpression()), !dbg !2105
; call core::slice::iter::Iter<T>::new
  %2 = call { ptr, ptr } @"_ZN4core5slice4iter13Iter$LT$T$GT$3new17h54ac29da1684dc08E"(ptr align 8 %self.0, i64 %self.1) #10, !dbg !2106
  %3 = extractvalue { ptr, ptr } %2, 0, !dbg !2106
  %4 = extractvalue { ptr, ptr } %2, 1, !dbg !2106
  %5 = insertvalue { ptr, ptr } undef, ptr %3, 0, !dbg !2107
  %6 = insertvalue { ptr, ptr } %5, ptr %4, 1, !dbg !2107
  ret { ptr, ptr } %6, !dbg !2107
}

; core::slice::<impl [T]>::swap
; Function Attrs: inlinehint noredzone nounwind
define void @"_ZN4core5slice29_$LT$impl$u20$$u5b$T$u5d$$GT$4swap17heada400949a61ab0E"(ptr align 8 %self.0, i64 %self.1, i64 %a, i64 %b, ptr align 8 %0) unnamed_addr #0 !dbg !2108 {
start:
  %pb.dbg.spill = alloca ptr, align 8
  %pa.dbg.spill = alloca ptr, align 8
  %b.dbg.spill = alloca i64, align 8
  %a.dbg.spill = alloca i64, align 8
  %self.dbg.spill = alloca { ptr, i64 }, align 8
  %1 = getelementptr inbounds { ptr, i64 }, ptr %self.dbg.spill, i32 0, i32 0
  store ptr %self.0, ptr %1, align 8
  %2 = getelementptr inbounds { ptr, i64 }, ptr %self.dbg.spill, i32 0, i32 1
  store i64 %self.1, ptr %2, align 8
  call void @llvm.dbg.declare(metadata ptr %self.dbg.spill, metadata !2112, metadata !DIExpression()), !dbg !2119
  store i64 %a, ptr %a.dbg.spill, align 8
  call void @llvm.dbg.declare(metadata ptr %a.dbg.spill, metadata !2113, metadata !DIExpression()), !dbg !2120
  store i64 %b, ptr %b.dbg.spill, align 8
  call void @llvm.dbg.declare(metadata ptr %b.dbg.spill, metadata !2114, metadata !DIExpression()), !dbg !2121
  %_6 = icmp ult i64 %a, %self.1, !dbg !2122
  %3 = call i1 @llvm.expect.i1(i1 %_6, i1 true), !dbg !2122
  br i1 %3, label %bb1, label %panic, !dbg !2122

bb1:                                              ; preds = %start
  %pa = getelementptr inbounds [0 x %"bootinfo::memory_map::MemoryRegion"], ptr %self.0, i64 0, i64 %a, !dbg !2123
  store ptr %pa, ptr %pa.dbg.spill, align 8, !dbg !2123
  call void @llvm.dbg.declare(metadata ptr %pa.dbg.spill, metadata !2115, metadata !DIExpression()), !dbg !2124
  %_9 = icmp ult i64 %b, %self.1, !dbg !2125
  %4 = call i1 @llvm.expect.i1(i1 %_9, i1 true), !dbg !2125
  br i1 %4, label %bb2, label %panic1, !dbg !2125

panic:                                            ; preds = %start
; call core::panicking::panic_bounds_check
  call void @_ZN4core9panicking18panic_bounds_check17h213baf498ad437b9E(i64 %a, i64 %self.1, ptr align 8 %0) #11, !dbg !2122
  unreachable, !dbg !2122

bb2:                                              ; preds = %bb1
  %pb = getelementptr inbounds [0 x %"bootinfo::memory_map::MemoryRegion"], ptr %self.0, i64 0, i64 %b, !dbg !2126
  store ptr %pb, ptr %pb.dbg.spill, align 8, !dbg !2126
  call void @llvm.dbg.declare(metadata ptr %pb.dbg.spill, metadata !2117, metadata !DIExpression()), !dbg !2127
; call core::ptr::swap
  call void @_ZN4core3ptr4swap17h59951b18b0ba78c3E(ptr %pa, ptr %pb) #10, !dbg !2128
  ret void, !dbg !2129

panic1:                                           ; preds = %bb1
; call core::panicking::panic_bounds_check
  call void @_ZN4core9panicking18panic_bounds_check17h213baf498ad437b9E(i64 %b, i64 %self.1, ptr align 8 %0) #11, !dbg !2125
  unreachable, !dbg !2125
}

; core::slice::<impl [T]>::reverse
; Function Attrs: inlinehint noredzone nounwind
define void @"_ZN4core5slice29_$LT$impl$u20$$u5b$T$u5d$$GT$7reverse17hb56fb59b8f5db9d2E"(ptr align 8 %self.0, i64 %self.1) unnamed_addr #0 !dbg !2130 {
start:
  %0 = alloca ptr, align 8
  %count.dbg.spill.i1 = alloca i64, align 8
  %self.dbg.spill.i2 = alloca ptr, align 8
  %rhs.dbg.spill.i.i = alloca i64, align 8
  %self.dbg.spill.i1.i = alloca i64, align 8
  %self.dbg.spill.i.i = alloca i64, align 8
  %count.dbg.spill.i = alloca i64, align 8
  %self.dbg.spill.i = alloca ptr, align 8
  %back_half.dbg.spill = alloca { ptr, i64 }, align 8
  %front_half.dbg.spill = alloca { ptr, i64 }, align 8
  %end.dbg.spill = alloca ptr, align 8
  %start.dbg.spill = alloca ptr, align 8
  %half_len.dbg.spill = alloca i64, align 8
  %self.dbg.spill = alloca { ptr, i64 }, align 8
  %_10 = alloca { { ptr, i64 }, { ptr, i64 } }, align 8
  %1 = getelementptr inbounds { ptr, i64 }, ptr %self.dbg.spill, i32 0, i32 0
  store ptr %self.0, ptr %1, align 8
  %2 = getelementptr inbounds { ptr, i64 }, ptr %self.dbg.spill, i32 0, i32 1
  store i64 %self.1, ptr %2, align 8
  call void @llvm.dbg.declare(metadata ptr %self.dbg.spill, metadata !2134, metadata !DIExpression()), !dbg !2143
  %half_len = udiv i64 %self.1, 2, !dbg !2144
  store i64 %half_len, ptr %half_len.dbg.spill, align 8, !dbg !2144
  call void @llvm.dbg.declare(metadata ptr %half_len.dbg.spill, metadata !2135, metadata !DIExpression()), !dbg !2145
; call core::slice::<impl [T]>::as_mut_ptr_range
  %3 = call { ptr, ptr } @"_ZN4core5slice29_$LT$impl$u20$$u5b$T$u5d$$GT$16as_mut_ptr_range17h91cdc4b7d36f798dE"(ptr align 8 %self.0, i64 %self.1) #10, !dbg !2146
  %_7.0 = extractvalue { ptr, ptr } %3, 0, !dbg !2146
  %_7.1 = extractvalue { ptr, ptr } %3, 1, !dbg !2146
  store ptr %_7.0, ptr %start.dbg.spill, align 8, !dbg !2147
  call void @llvm.dbg.declare(metadata ptr %start.dbg.spill, metadata !2137, metadata !DIExpression()), !dbg !2148
  store ptr %_7.1, ptr %end.dbg.spill, align 8, !dbg !2149
  call void @llvm.dbg.declare(metadata ptr %end.dbg.spill, metadata !2139, metadata !DIExpression()), !dbg !2150
; call core::slice::raw::from_raw_parts_mut
  %4 = call { ptr, i64 } @_ZN4core5slice3raw18from_raw_parts_mut17h02aca73b149d318eE(ptr %_7.0, i64 %half_len) #10, !dbg !2151
  %_11.0 = extractvalue { ptr, i64 } %4, 0, !dbg !2151
  %_11.1 = extractvalue { ptr, i64 } %4, 1, !dbg !2151
  store ptr %_7.1, ptr %self.dbg.spill.i, align 8
  call void @llvm.dbg.declare(metadata ptr %self.dbg.spill.i, metadata !2152, metadata !DIExpression()), !dbg !2156
  store i64 %half_len, ptr %count.dbg.spill.i, align 8
  call void @llvm.dbg.declare(metadata ptr %count.dbg.spill.i, metadata !2155, metadata !DIExpression()), !dbg !2158
  store i64 %half_len, ptr %self.dbg.spill.i.i, align 8
  call void @llvm.dbg.declare(metadata ptr %self.dbg.spill.i.i, metadata !2159, metadata !DIExpression()), !dbg !2166
  store i64 0, ptr %self.dbg.spill.i1.i, align 8
  call void @llvm.dbg.declare(metadata ptr %self.dbg.spill.i1.i, metadata !2168, metadata !DIExpression()), !dbg !2174
  store i64 %half_len, ptr %rhs.dbg.spill.i.i, align 8
  call void @llvm.dbg.declare(metadata ptr %rhs.dbg.spill.i.i, metadata !2173, metadata !DIExpression()), !dbg !2176
  %5 = sub i64 0, %half_len, !dbg !2177
  store ptr %_7.1, ptr %self.dbg.spill.i2, align 8
  call void @llvm.dbg.declare(metadata ptr %self.dbg.spill.i2, metadata !301, metadata !DIExpression()), !dbg !2178
  store i64 %5, ptr %count.dbg.spill.i1, align 8
  call void @llvm.dbg.declare(metadata ptr %count.dbg.spill.i1, metadata !306, metadata !DIExpression()), !dbg !2180
  %6 = getelementptr inbounds %"bootinfo::memory_map::MemoryRegion", ptr %_7.1, i64 %5, !dbg !2181
  store ptr %6, ptr %0, align 8, !dbg !2181
  %_3.i = load ptr, ptr %0, align 8, !dbg !2181, !noundef !24
; call core::slice::raw::from_raw_parts_mut
  %7 = call { ptr, i64 } @_ZN4core5slice3raw18from_raw_parts_mut17h02aca73b149d318eE(ptr %_3.i, i64 %half_len) #10, !dbg !2182
  %_12.0 = extractvalue { ptr, i64 } %7, 0, !dbg !2182
  %_12.1 = extractvalue { ptr, i64 } %7, 1, !dbg !2182
  %8 = getelementptr inbounds { ptr, i64 }, ptr %_10, i32 0, i32 0, !dbg !2183
  store ptr %_11.0, ptr %8, align 8, !dbg !2183
  %9 = getelementptr inbounds { ptr, i64 }, ptr %_10, i32 0, i32 1, !dbg !2183
  store i64 %_11.1, ptr %9, align 8, !dbg !2183
  %10 = getelementptr inbounds { { ptr, i64 }, { ptr, i64 } }, ptr %_10, i32 0, i32 1, !dbg !2183
  %11 = getelementptr inbounds { ptr, i64 }, ptr %10, i32 0, i32 0, !dbg !2183
  store ptr %_12.0, ptr %11, align 8, !dbg !2183
  %12 = getelementptr inbounds { ptr, i64 }, ptr %10, i32 0, i32 1, !dbg !2183
  store i64 %_12.1, ptr %12, align 8, !dbg !2183
  %13 = getelementptr inbounds { ptr, i64 }, ptr %_10, i32 0, i32 0, !dbg !2184
  %front_half.0 = load ptr, ptr %13, align 8, !dbg !2184, !nonnull !24, !align !504, !noundef !24
  %14 = getelementptr inbounds { ptr, i64 }, ptr %_10, i32 0, i32 1, !dbg !2184
  %front_half.1 = load i64, ptr %14, align 8, !dbg !2184, !noundef !24
  %15 = getelementptr inbounds { ptr, i64 }, ptr %front_half.dbg.spill, i32 0, i32 0, !dbg !2184
  store ptr %front_half.0, ptr %15, align 8, !dbg !2184
  %16 = getelementptr inbounds { ptr, i64 }, ptr %front_half.dbg.spill, i32 0, i32 1, !dbg !2184
  store i64 %front_half.1, ptr %16, align 8, !dbg !2184
  call void @llvm.dbg.declare(metadata ptr %front_half.dbg.spill, metadata !2140, metadata !DIExpression()), !dbg !2185
  %17 = getelementptr inbounds { { ptr, i64 }, { ptr, i64 } }, ptr %_10, i32 0, i32 1, !dbg !2186
  %18 = getelementptr inbounds { ptr, i64 }, ptr %17, i32 0, i32 0, !dbg !2186
  %back_half.0 = load ptr, ptr %18, align 8, !dbg !2186, !nonnull !24, !align !504, !noundef !24
  %19 = getelementptr inbounds { ptr, i64 }, ptr %17, i32 0, i32 1, !dbg !2186
  %back_half.1 = load i64, ptr %19, align 8, !dbg !2186, !noundef !24
  %20 = getelementptr inbounds { ptr, i64 }, ptr %back_half.dbg.spill, i32 0, i32 0, !dbg !2186
  store ptr %back_half.0, ptr %20, align 8, !dbg !2186
  %21 = getelementptr inbounds { ptr, i64 }, ptr %back_half.dbg.spill, i32 0, i32 1, !dbg !2186
  store i64 %back_half.1, ptr %21, align 8, !dbg !2186
  call void @llvm.dbg.declare(metadata ptr %back_half.dbg.spill, metadata !2142, metadata !DIExpression()), !dbg !2187
; call core::slice::<impl [T]>::reverse::revswap
  call void @"_ZN4core5slice29_$LT$impl$u20$$u5b$T$u5d$$GT$7reverse7revswap17hee0f1f2ec0d20bd8E"(ptr align 8 %front_half.0, i64 %front_half.1, ptr align 8 %back_half.0, i64 %back_half.1, i64 %half_len) #10, !dbg !2188
  ret void, !dbg !2189
}

; core::slice::<impl [T]>::reverse::revswap
; Function Attrs: inlinehint noredzone nounwind
define void @"_ZN4core5slice29_$LT$impl$u20$$u5b$T$u5d$$GT$7reverse7revswap17hee0f1f2ec0d20bd8E"(ptr align 8 %a.0, i64 %a.1, ptr align 8 %b.0, i64 %b.1, i64 %n) unnamed_addr #0 !dbg !2190 {
start:
  %b.dbg.spill6 = alloca { ptr, i64 }, align 8
  %a.dbg.spill3 = alloca { ptr, i64 }, align 8
  %n.dbg.spill = alloca i64, align 8
  %b.dbg.spill = alloca { ptr, i64 }, align 8
  %a.dbg.spill = alloca { ptr, i64 }, align 8
  %i = alloca i64, align 8
  %_22 = alloca i64, align 8
  %_19 = alloca i64, align 8
  %_16 = alloca { { ptr, i64 }, { ptr, i64 } }, align 8
  %0 = getelementptr inbounds { ptr, i64 }, ptr %a.dbg.spill, i32 0, i32 0
  store ptr %a.0, ptr %0, align 8
  %1 = getelementptr inbounds { ptr, i64 }, ptr %a.dbg.spill, i32 0, i32 1
  store i64 %a.1, ptr %1, align 8
  call void @llvm.dbg.declare(metadata ptr %a.dbg.spill, metadata !2195, metadata !DIExpression()), !dbg !2203
  %2 = getelementptr inbounds { ptr, i64 }, ptr %b.dbg.spill, i32 0, i32 0
  store ptr %b.0, ptr %2, align 8
  %3 = getelementptr inbounds { ptr, i64 }, ptr %b.dbg.spill, i32 0, i32 1
  store i64 %b.1, ptr %3, align 8
  call void @llvm.dbg.declare(metadata ptr %b.dbg.spill, metadata !2196, metadata !DIExpression()), !dbg !2204
  store i64 %n, ptr %n.dbg.spill, align 8
  call void @llvm.dbg.declare(metadata ptr %n.dbg.spill, metadata !2197, metadata !DIExpression()), !dbg !2205
  call void @llvm.dbg.declare(metadata ptr %i, metadata !2201, metadata !DIExpression()), !dbg !2206
  %_5 = icmp eq i64 %a.1, %n, !dbg !2207
  %_4 = xor i1 %_5, true, !dbg !2208
  br i1 %_4, label %bb1, label %bb2, !dbg !2208

bb2:                                              ; preds = %start
  %_10 = icmp eq i64 %b.1, %n, !dbg !2209
  %_9 = xor i1 %_10, true, !dbg !2210
  br i1 %_9, label %bb3, label %bb4, !dbg !2210

bb1:                                              ; preds = %start
; call core::panicking::panic
  call void @_ZN4core9panicking5panic17h2341ccf462e0c328E(ptr align 1 @alloc362, i64 30, ptr align 8 @alloc364) #11, !dbg !2208
  unreachable, !dbg !2208

bb4:                                              ; preds = %bb2
  store i64 %n, ptr %_19, align 8, !dbg !2211
  %4 = load i64, ptr %_19, align 8, !dbg !2212, !noundef !24
; call core::slice::index::<impl core::ops::index::IndexMut<I> for [T]>::index_mut
  %5 = call { ptr, i64 } @"_ZN4core5slice5index77_$LT$impl$u20$core..ops..index..IndexMut$LT$I$GT$$u20$for$u20$$u5b$T$u5d$$GT$9index_mut17h99932268dd4a9ac3E"(ptr align 8 %a.0, i64 %a.1, i64 %4, ptr align 8 @alloc369) #10, !dbg !2212
  %_18.0 = extractvalue { ptr, i64 } %5, 0, !dbg !2212
  %_18.1 = extractvalue { ptr, i64 } %5, 1, !dbg !2212
  store i64 %n, ptr %_22, align 8, !dbg !2213
  %6 = load i64, ptr %_22, align 8, !dbg !2214, !noundef !24
; call core::slice::index::<impl core::ops::index::IndexMut<I> for [T]>::index_mut
  %7 = call { ptr, i64 } @"_ZN4core5slice5index77_$LT$impl$u20$core..ops..index..IndexMut$LT$I$GT$$u20$for$u20$$u5b$T$u5d$$GT$9index_mut17h99932268dd4a9ac3E"(ptr align 8 %b.0, i64 %b.1, i64 %6, ptr align 8 @alloc371) #10, !dbg !2214
  %_21.0 = extractvalue { ptr, i64 } %7, 0, !dbg !2214
  %_21.1 = extractvalue { ptr, i64 } %7, 1, !dbg !2214
  %8 = getelementptr inbounds { ptr, i64 }, ptr %_16, i32 0, i32 0, !dbg !2215
  store ptr %_18.0, ptr %8, align 8, !dbg !2215
  %9 = getelementptr inbounds { ptr, i64 }, ptr %_16, i32 0, i32 1, !dbg !2215
  store i64 %_18.1, ptr %9, align 8, !dbg !2215
  %10 = getelementptr inbounds { { ptr, i64 }, { ptr, i64 } }, ptr %_16, i32 0, i32 1, !dbg !2215
  %11 = getelementptr inbounds { ptr, i64 }, ptr %10, i32 0, i32 0, !dbg !2215
  store ptr %_21.0, ptr %11, align 8, !dbg !2215
  %12 = getelementptr inbounds { ptr, i64 }, ptr %10, i32 0, i32 1, !dbg !2215
  store i64 %_21.1, ptr %12, align 8, !dbg !2215
  %13 = getelementptr inbounds { ptr, i64 }, ptr %_16, i32 0, i32 0, !dbg !2216
  %a.01 = load ptr, ptr %13, align 8, !dbg !2216, !nonnull !24, !align !504, !noundef !24
  %14 = getelementptr inbounds { ptr, i64 }, ptr %_16, i32 0, i32 1, !dbg !2216
  %a.12 = load i64, ptr %14, align 8, !dbg !2216, !noundef !24
  %15 = getelementptr inbounds { ptr, i64 }, ptr %a.dbg.spill3, i32 0, i32 0, !dbg !2216
  store ptr %a.01, ptr %15, align 8, !dbg !2216
  %16 = getelementptr inbounds { ptr, i64 }, ptr %a.dbg.spill3, i32 0, i32 1, !dbg !2216
  store i64 %a.12, ptr %16, align 8, !dbg !2216
  call void @llvm.dbg.declare(metadata ptr %a.dbg.spill3, metadata !2198, metadata !DIExpression()), !dbg !2217
  %17 = getelementptr inbounds { { ptr, i64 }, { ptr, i64 } }, ptr %_16, i32 0, i32 1, !dbg !2218
  %18 = getelementptr inbounds { ptr, i64 }, ptr %17, i32 0, i32 0, !dbg !2218
  %b.04 = load ptr, ptr %18, align 8, !dbg !2218, !nonnull !24, !align !504, !noundef !24
  %19 = getelementptr inbounds { ptr, i64 }, ptr %17, i32 0, i32 1, !dbg !2218
  %b.15 = load i64, ptr %19, align 8, !dbg !2218, !noundef !24
  %20 = getelementptr inbounds { ptr, i64 }, ptr %b.dbg.spill6, i32 0, i32 0, !dbg !2218
  store ptr %b.04, ptr %20, align 8, !dbg !2218
  %21 = getelementptr inbounds { ptr, i64 }, ptr %b.dbg.spill6, i32 0, i32 1, !dbg !2218
  store i64 %b.15, ptr %21, align 8, !dbg !2218
  call void @llvm.dbg.declare(metadata ptr %b.dbg.spill6, metadata !2200, metadata !DIExpression()), !dbg !2219
  store i64 0, ptr %i, align 8, !dbg !2220
  br label %bb7, !dbg !2221

bb3:                                              ; preds = %bb2
; call core::panicking::panic
  call void @_ZN4core9panicking5panic17h2341ccf462e0c328E(ptr align 1 @alloc365, i64 30, ptr align 8 @alloc367) #11, !dbg !2210
  unreachable, !dbg !2210

bb7:                                              ; preds = %bb14, %bb4
  %_25 = load i64, ptr %i, align 8, !dbg !2222, !noundef !24
  %_24 = icmp ult i64 %_25, %n, !dbg !2222
  br i1 %_24, label %bb8, label %bb15, !dbg !2222

bb15:                                             ; preds = %bb7
  ret void, !dbg !2223

bb8:                                              ; preds = %bb7
  %_28 = load i64, ptr %i, align 8, !dbg !2224, !noundef !24
  %_30 = icmp ult i64 %_28, %a.12, !dbg !2225
  %22 = call i1 @llvm.expect.i1(i1 %_30, i1 true), !dbg !2225
  br i1 %22, label %bb9, label %panic, !dbg !2225

bb9:                                              ; preds = %bb8
  %_27 = getelementptr inbounds [0 x %"bootinfo::memory_map::MemoryRegion"], ptr %a.01, i64 0, i64 %_28, !dbg !2226
  %_34.0 = sub i64 %n, 1, !dbg !2227
  %_34.1 = icmp ult i64 %n, 1, !dbg !2227
  %23 = call i1 @llvm.expect.i1(i1 %_34.1, i1 false), !dbg !2227
  br i1 %23, label %panic7, label %bb10, !dbg !2227

panic:                                            ; preds = %bb8
; call core::panicking::panic_bounds_check
  call void @_ZN4core9panicking18panic_bounds_check17h213baf498ad437b9E(i64 %_28, i64 %a.12, ptr align 8 @alloc373) #11, !dbg !2225
  unreachable, !dbg !2225

bb10:                                             ; preds = %bb9
  %_35 = load i64, ptr %i, align 8, !dbg !2228, !noundef !24
  %_36.0 = sub i64 %_34.0, %_35, !dbg !2227
  %_36.1 = icmp ult i64 %_34.0, %_35, !dbg !2227
  %24 = call i1 @llvm.expect.i1(i1 %_36.1, i1 false), !dbg !2227
  br i1 %24, label %panic8, label %bb11, !dbg !2227

panic7:                                           ; preds = %bb9
; call core::panicking::panic
  call void @_ZN4core9panicking5panic17h2341ccf462e0c328E(ptr align 1 @str.0, i64 33, ptr align 8 @alloc375) #11, !dbg !2227
  unreachable, !dbg !2227

bb11:                                             ; preds = %bb10
  %_38 = icmp ult i64 %_36.0, %b.15, !dbg !2229
  %25 = call i1 @llvm.expect.i1(i1 %_38, i1 true), !dbg !2229
  br i1 %25, label %bb12, label %panic9, !dbg !2229

panic8:                                           ; preds = %bb10
; call core::panicking::panic
  call void @_ZN4core9panicking5panic17h2341ccf462e0c328E(ptr align 1 @str.0, i64 33, ptr align 8 @alloc375) #11, !dbg !2227
  unreachable, !dbg !2227

bb12:                                             ; preds = %bb11
  %_31 = getelementptr inbounds [0 x %"bootinfo::memory_map::MemoryRegion"], ptr %b.04, i64 0, i64 %_36.0, !dbg !2230
; call core::mem::swap
  call void @_ZN4core3mem4swap17hdd0820cc94f081c7E(ptr align 8 %_27, ptr align 8 %_31) #10, !dbg !2231
  %26 = load i64, ptr %i, align 8, !dbg !2232, !noundef !24
  %27 = call { i64, i1 } @llvm.uadd.with.overflow.i64(i64 %26, i64 1), !dbg !2232
  %_39.0 = extractvalue { i64, i1 } %27, 0, !dbg !2232
  %_39.1 = extractvalue { i64, i1 } %27, 1, !dbg !2232
  %28 = call i1 @llvm.expect.i1(i1 %_39.1, i1 false), !dbg !2232
  br i1 %28, label %panic10, label %bb14, !dbg !2232

panic9:                                           ; preds = %bb11
; call core::panicking::panic_bounds_check
  call void @_ZN4core9panicking18panic_bounds_check17h213baf498ad437b9E(i64 %_36.0, i64 %b.15, ptr align 8 @alloc377) #11, !dbg !2229
  unreachable, !dbg !2229

bb14:                                             ; preds = %bb12
  store i64 %_39.0, ptr %i, align 8, !dbg !2232
  br label %bb7, !dbg !2221

panic10:                                          ; preds = %bb12
; call core::panicking::panic
  call void @_ZN4core9panicking5panic17h2341ccf462e0c328E(ptr align 1 @str.2, i64 28, ptr align 8 @alloc379) #11, !dbg !2232
  unreachable, !dbg !2232
}

; core::slice::raw::from_raw_parts_mut
; Function Attrs: inlinehint noredzone nounwind
define { ptr, i64 } @_ZN4core5slice3raw18from_raw_parts_mut17h02aca73b149d318eE(ptr %data, i64 %len) unnamed_addr #0 !dbg !2233 {
start:
  %len.dbg.spill.i = alloca i64, align 8
  %data.dbg.spill.i = alloca ptr, align 8
  %_4.i = alloca i8, align 1
  %len.dbg.spill = alloca i64, align 8
  %data.dbg.spill = alloca ptr, align 8
  %_4 = alloca { ptr, i64 }, align 8
  store ptr %data, ptr %data.dbg.spill, align 8
  call void @llvm.dbg.declare(metadata ptr %data.dbg.spill, metadata !2239, metadata !DIExpression()), !dbg !2241
  store i64 %len, ptr %len.dbg.spill, align 8
  call void @llvm.dbg.declare(metadata ptr %len.dbg.spill, metadata !2240, metadata !DIExpression()), !dbg !2242
  store ptr %data, ptr %_4, align 8, !dbg !2243
  %0 = getelementptr inbounds { ptr, i64 }, ptr %_4, i32 0, i32 1, !dbg !2243
  store i64 %len, ptr %0, align 8, !dbg !2243
  %1 = load ptr, ptr %_4, align 8, !dbg !2243, !noundef !24
  %2 = getelementptr inbounds { ptr, i64 }, ptr %_4, i32 0, i32 1, !dbg !2243
  %3 = load i64, ptr %2, align 8, !dbg !2243, !noundef !24
  store ptr %1, ptr %data.dbg.spill.i, align 8
  call void @llvm.dbg.declare(metadata ptr %data.dbg.spill.i, metadata !2244, metadata !DIExpression()), !dbg !2251
  store i64 %3, ptr %len.dbg.spill.i, align 8
  call void @llvm.dbg.declare(metadata ptr %len.dbg.spill.i, metadata !2250, metadata !DIExpression()), !dbg !2251
; call core::intrinsics::is_aligned_and_not_null
  %_5.i = call zeroext i1 @_ZN4core10intrinsics23is_aligned_and_not_null17h6a60c6b4bab249b8E(ptr %1) #10, !dbg !2253
  br i1 %_5.i, label %bb2.i, label %bb1.i, !dbg !2253

bb1.i:                                            ; preds = %start
  store i8 0, ptr %_4.i, align 1, !dbg !2253
  br label %bb3.i, !dbg !2253

bb2.i:                                            ; preds = %start
; call core::intrinsics::is_valid_allocation_size
  %_7.i = call zeroext i1 @_ZN4core10intrinsics24is_valid_allocation_size17hf4c172ba13be3f02E(i64 %3) #10, !dbg !2255
  %4 = zext i1 %_7.i to i8, !dbg !2253
  store i8 %4, ptr %_4.i, align 1, !dbg !2253
  br label %bb3.i, !dbg !2253

bb3.i:                                            ; preds = %bb2.i, %bb1.i
  %5 = load i8, ptr %_4.i, align 1, !dbg !2256, !range !210, !noundef !24
  %6 = trunc i8 %5 to i1, !dbg !2256
  %_3.i = xor i1 %6, true, !dbg !2256
  br i1 %_3.i, label %bb6.i, label %_ZN4core5slice3raw18from_raw_parts_mut7runtime17hff2b627985c6b074E.exit, !dbg !2256

bb6.i:                                            ; preds = %bb3.i
; call core::panicking::panic_nounwind
  call void @_ZN4core9panicking14panic_nounwind17h2659e8ef56e187b0E(ptr align 1 @alloc380, i64 166) #11, !dbg !2257
  unreachable, !dbg !2257

_ZN4core5slice3raw18from_raw_parts_mut7runtime17hff2b627985c6b074E.exit: ; preds = %bb3.i
; call core::ptr::slice_from_raw_parts_mut
  %7 = call { ptr, i64 } @_ZN4core3ptr24slice_from_raw_parts_mut17h4f44642fed623530E(ptr %data, i64 %len) #10, !dbg !2258
  %_5.0 = extractvalue { ptr, i64 } %7, 0, !dbg !2258
  %_5.1 = extractvalue { ptr, i64 } %7, 1, !dbg !2258
  %8 = insertvalue { ptr, i64 } undef, ptr %_5.0, 0, !dbg !2259
  %9 = insertvalue { ptr, i64 } %8, i64 %_5.1, 1, !dbg !2259
  ret { ptr, i64 } %9, !dbg !2259
}

; core::slice::iter::Iter<T>::new
; Function Attrs: inlinehint noredzone nounwind
define { ptr, ptr } @"_ZN4core5slice4iter13Iter$LT$T$GT$3new17h54ac29da1684dc08E"(ptr align 8 %slice.0, i64 %slice.1) unnamed_addr #0 !dbg !2260 {
start:
  %self.dbg.spill.i6 = alloca { ptr, i64 }, align 8
  %0 = alloca ptr, align 8
  %count.dbg.spill.i4 = alloca i64, align 8
  %self.dbg.spill.i5 = alloca ptr, align 8
  %self.dbg.spill.i3 = alloca ptr, align 8
  %count.dbg.spill.i1 = alloca i64, align 8
  %self.dbg.spill.i2 = alloca ptr, align 8
  %1 = alloca ptr, align 8
  %count.dbg.spill.i1.i = alloca i64, align 8
  %self.dbg.spill.i2.i = alloca ptr, align 8
  %count.dbg.spill.i.i = alloca i64, align 8
  %self.dbg.spill.i.i = alloca ptr, align 8
  %count.dbg.spill.i = alloca i64, align 8
  %self.dbg.spill.i = alloca ptr, align 8
  %ptr.dbg.spill = alloca ptr, align 8
  %slice.dbg.spill = alloca { ptr, i64 }, align 8
  %end = alloca ptr, align 8
  %2 = alloca { ptr, ptr }, align 8
  %3 = getelementptr inbounds { ptr, i64 }, ptr %slice.dbg.spill, i32 0, i32 0
  store ptr %slice.0, ptr %3, align 8
  %4 = getelementptr inbounds { ptr, i64 }, ptr %slice.dbg.spill, i32 0, i32 1
  store i64 %slice.1, ptr %4, align 8
  call void @llvm.dbg.declare(metadata ptr %slice.dbg.spill, metadata !2263, metadata !DIExpression()), !dbg !2268
  call void @llvm.dbg.declare(metadata ptr %end, metadata !2266, metadata !DIExpression()), !dbg !2269
  store ptr %slice.0, ptr %self.dbg.spill.i6, align 8
  %5 = getelementptr inbounds { ptr, i64 }, ptr %self.dbg.spill.i6, i32 0, i32 1
  store i64 %slice.1, ptr %5, align 8
  call void @llvm.dbg.declare(metadata ptr %self.dbg.spill.i6, metadata !2270, metadata !DIExpression()), !dbg !2275
  store ptr %slice.0, ptr %ptr.dbg.spill, align 8, !dbg !2277
  call void @llvm.dbg.declare(metadata ptr %ptr.dbg.spill, metadata !2264, metadata !DIExpression()), !dbg !2278
; call core::ptr::const_ptr::<impl *const T>::is_null
  %_4 = call zeroext i1 @"_ZN4core3ptr9const_ptr33_$LT$impl$u20$$BP$const$u20$T$GT$7is_null17h0ffc917f38722119E"(ptr %slice.0) #10, !dbg !2279
  %_3 = xor i1 %_4, true, !dbg !2280
  call void @llvm.assume(i1 %_3), !dbg !2281
  br i1 false, label %bb3, label %bb4, !dbg !2282

bb4:                                              ; preds = %start
  store ptr %slice.0, ptr %self.dbg.spill.i2, align 8
  call void @llvm.dbg.declare(metadata ptr %self.dbg.spill.i2, metadata !213, metadata !DIExpression()), !dbg !2283
  store i64 %slice.1, ptr %count.dbg.spill.i1, align 8
  call void @llvm.dbg.declare(metadata ptr %count.dbg.spill.i1, metadata !223, metadata !DIExpression()), !dbg !2285
  store ptr %slice.0, ptr %self.dbg.spill.i5, align 8
  call void @llvm.dbg.declare(metadata ptr %self.dbg.spill.i5, metadata !227, metadata !DIExpression()), !dbg !2286
  store i64 %slice.1, ptr %count.dbg.spill.i4, align 8
  call void @llvm.dbg.declare(metadata ptr %count.dbg.spill.i4, metadata !233, metadata !DIExpression()), !dbg !2288
  %6 = getelementptr inbounds %"bootinfo::memory_map::MemoryRegion", ptr %slice.0, i64 %slice.1, !dbg !2289
  store ptr %6, ptr %0, align 8, !dbg !2289
  %7 = load ptr, ptr %0, align 8, !dbg !2289, !noundef !24
  store ptr %7, ptr %end, align 8, !dbg !2290
  br label %bb5, !dbg !2290

bb3:                                              ; preds = %start
  store ptr %slice.0, ptr %self.dbg.spill.i, align 8
  call void @llvm.dbg.declare(metadata ptr %self.dbg.spill.i, metadata !2291, metadata !DIExpression()), !dbg !2295
  store i64 %slice.1, ptr %count.dbg.spill.i, align 8
  call void @llvm.dbg.declare(metadata ptr %count.dbg.spill.i, metadata !2294, metadata !DIExpression()), !dbg !2297
  store ptr %slice.0, ptr %self.dbg.spill.i3, align 8
  call void @llvm.dbg.declare(metadata ptr %self.dbg.spill.i3, metadata !2298, metadata !DIExpression()), !dbg !2303
  store ptr %slice.0, ptr %self.dbg.spill.i.i, align 8
  call void @llvm.dbg.declare(metadata ptr %self.dbg.spill.i.i, metadata !2305, metadata !DIExpression()), !dbg !2311
  store i64 %slice.1, ptr %count.dbg.spill.i.i, align 8
  call void @llvm.dbg.declare(metadata ptr %count.dbg.spill.i.i, metadata !2310, metadata !DIExpression()), !dbg !2313
  store ptr %slice.0, ptr %self.dbg.spill.i2.i, align 8
  call void @llvm.dbg.declare(metadata ptr %self.dbg.spill.i2.i, metadata !2314, metadata !DIExpression()), !dbg !2320
  store i64 %slice.1, ptr %count.dbg.spill.i1.i, align 8
  call void @llvm.dbg.declare(metadata ptr %count.dbg.spill.i1.i, metadata !2319, metadata !DIExpression()), !dbg !2322
  %8 = getelementptr i8, ptr %slice.0, i64 %slice.1, !dbg !2323
  store ptr %8, ptr %1, align 8, !dbg !2323
  %9 = load ptr, ptr %1, align 8, !dbg !2323, !noundef !24
; call core::ptr::const_ptr::<impl *const T>::with_metadata_of
  %10 = call ptr @"_ZN4core3ptr9const_ptr33_$LT$impl$u20$$BP$const$u20$T$GT$16with_metadata_of17h18ca5e21f2ab0970E"(ptr %9, ptr %slice.0) #10, !dbg !2324
  store ptr %10, ptr %end, align 8, !dbg !2325
  br label %bb5, !dbg !2325

bb5:                                              ; preds = %bb4, %bb3
; call core::ptr::non_null::NonNull<T>::new_unchecked
  %_12 = call ptr @"_ZN4core3ptr8non_null16NonNull$LT$T$GT$13new_unchecked17h18bc62e0621d126cE"(ptr %slice.0) #10, !dbg !2326
  %_15 = load ptr, ptr %end, align 8, !dbg !2327, !noundef !24
  %11 = getelementptr inbounds { ptr, ptr }, ptr %2, i32 0, i32 1, !dbg !2328
  store ptr %_12, ptr %11, align 8, !dbg !2328
  store ptr %_15, ptr %2, align 8, !dbg !2328
  %12 = getelementptr inbounds { ptr, ptr }, ptr %2, i32 0, i32 0, !dbg !2329
  %13 = load ptr, ptr %12, align 8, !dbg !2329, !noundef !24
  %14 = getelementptr inbounds { ptr, ptr }, ptr %2, i32 0, i32 1, !dbg !2329
  %15 = load ptr, ptr %14, align 8, !dbg !2329, !nonnull !24, !noundef !24
  %16 = insertvalue { ptr, ptr } undef, ptr %13, 0, !dbg !2329
  %17 = insertvalue { ptr, ptr } %16, ptr %15, 1, !dbg !2329
  ret { ptr, ptr } %17, !dbg !2329
}

; core::slice::sort::insert_head
; Function Attrs: noredzone nounwind
define void @_ZN4core5slice4sort11insert_head17hc2222a955449100bE(ptr align 8 %v.0, i64 %v.1, ptr align 8 %is_less) unnamed_addr #1 !dbg !2330 {
start:
  %self.dbg.spill.i30 = alloca ptr, align 8
  %self.dbg.spill.i29 = alloca ptr, align 8
  %self.dbg.spill.i28 = alloca { ptr, i64 }, align 8
  %0 = alloca ptr, align 8
  %count.dbg.spill.i25 = alloca i64, align 8
  %self.dbg.spill.i26 = alloca ptr, align 8
  %1 = alloca ptr, align 8
  %count.dbg.spill.i22 = alloca i64, align 8
  %self.dbg.spill.i23 = alloca ptr, align 8
  %2 = alloca ptr, align 8
  %count.dbg.spill.i19 = alloca i64, align 8
  %self.dbg.spill.i20 = alloca ptr, align 8
  %3 = alloca ptr, align 8
  %count.dbg.spill.i16 = alloca i64, align 8
  %self.dbg.spill.i17 = alloca ptr, align 8
  %4 = alloca ptr, align 8
  %count.dbg.spill.i13 = alloca i64, align 8
  %self.dbg.spill.i14 = alloca ptr, align 8
  %5 = alloca ptr, align 8
  %count.dbg.spill.i11 = alloca i64, align 8
  %self.dbg.spill.i12 = alloca ptr, align 8
  %count.dbg.spill.i9 = alloca i64, align 8
  %self.dbg.spill.i10 = alloca ptr, align 8
  %count.dbg.spill.i7 = alloca i64, align 8
  %self.dbg.spill.i8 = alloca ptr, align 8
  %count.dbg.spill.i5 = alloca i64, align 8
  %self.dbg.spill.i6 = alloca ptr, align 8
  %count.dbg.spill.i3 = alloca i64, align 8
  %self.dbg.spill.i4 = alloca ptr, align 8
  %count.dbg.spill.i1 = alloca i64, align 8
  %self.dbg.spill.i2 = alloca ptr, align 8
  %count.dbg.spill.i = alloca i64, align 8
  %self.dbg.spill.i = alloca ptr, align 8
  %i.dbg.spill = alloca i64, align 8
  %arr_ptr.dbg.spill = alloca ptr, align 8
  %is_less.dbg.spill = alloca ptr, align 8
  %v.dbg.spill = alloca { ptr, i64 }, align 8
  %_47 = alloca ptr, align 8
  %_45 = alloca { ptr, ptr }, align 8
  %_39 = alloca { i64, i64 }, align 8
  %iter = alloca { i64, i64 }, align 8
  %_35 = alloca { i64, i64 }, align 8
  %hole = alloca { ptr, ptr }, align 8
  %_18 = alloca %"bootinfo::memory_map::MemoryRegion", align 8
  %tmp = alloca %"core::mem::manually_drop::ManuallyDrop<bootinfo::memory_map::MemoryRegion>", align 8
  %_9 = alloca { ptr, ptr }, align 8
  %6 = getelementptr inbounds { ptr, i64 }, ptr %v.dbg.spill, i32 0, i32 0
  store ptr %v.0, ptr %6, align 8
  %7 = getelementptr inbounds { ptr, i64 }, ptr %v.dbg.spill, i32 0, i32 1
  store i64 %v.1, ptr %7, align 8
  call void @llvm.dbg.declare(metadata ptr %v.dbg.spill, metadata !2335, metadata !DIExpression()), !dbg !2348
  store ptr %is_less, ptr %is_less.dbg.spill, align 8
