; ModuleID = 'compiler_builtins.66005aaa-cgu.0'
source_filename = "compiler_builtins.66005aaa-cgu.0"
target datalayout = "e-m:e-i64:64-f80:128-n8:16:32:64-S128"
target triple = "x86_64-obuasi-unknown-none"

module asm ""
module asm "            .pushsection .text.__rust_probestack"
module asm "            .globl __rust_probestack"
module asm "            .type  __rust_probestack, @function"
module asm "            .hidden __rust_probestack"
module asm "        __rust_probestack:"
module asm "            "
module asm "    .cfi_startproc"
module asm "    pushq  %rbp"
module asm "    .cfi_adjust_cfa_offset 8"
module asm "    .cfi_offset %rbp, -16"
module asm "    movq   %rsp, %rbp"
module asm "    .cfi_def_cfa_register %rbp"
module asm ""
module asm "    mov    %rax,%r11        // duplicate %rax as we're clobbering %r11"
module asm ""
module asm "    // Main loop, taken in one page increments. We're decrementing rsp by"
module asm "    // a page each time until there's less than a page remaining. We're"
module asm "    // guaranteed that this function isn't called unless there's more than a"
module asm "    // page needed."
module asm "    //"
module asm "    // Note that we're also testing against `8(%rsp)` to account for the 8"
module asm "    // bytes pushed on the stack orginally with our return address. Using"
module asm "    // `8(%rsp)` simulates us testing the stack pointer in the caller's"
module asm "    // context."
module asm ""
module asm "    // It's usually called when %rax >= 0x1000, but that's not always true."
module asm "    // Dynamic stack allocation, which is needed to implement unsized"
module asm "    // rvalues, triggers stackprobe even if %rax < 0x1000."
module asm "    // Thus we have to check %r11 first to avoid segfault."
module asm "    cmp    $0x1000,%r11"
module asm "    jna    3f"
module asm "2:"
module asm "    sub    $0x1000,%rsp"
module asm "    test   %rsp,8(%rsp)"
module asm "    sub    $0x1000,%r11"
module asm "    cmp    $0x1000,%r11"
module asm "    ja     2b"
module asm ""
module asm "3:"
module asm "    // Finish up the last remaining stack space requested, getting the last"
module asm "    // bits out of r11"
module asm "    sub    %r11,%rsp"
module asm "    test   %rsp,8(%rsp)"
module asm ""
module asm "    // Restore the stack pointer to what it previously was when entering"
module asm "    // this function. The caller will readjust the stack pointer after we"
module asm "    // return."
module asm "    add    %rax,%rsp"
module asm ""
module asm "    leave"
module asm "    .cfi_def_cfa_register %rsp"
module asm "    .cfi_adjust_cfa_offset -8"
module asm "    ret"
module asm "    .cfi_endproc"
module asm "    "
module asm "            .size __rust_probestack, . - __rust_probestack"
module asm "            .popsection"
module asm "            "

%"[closure@/Users/yaw/.cargo/registry/src/index.crates.io-6f17d22bba15001f/compiler_builtins-0.1.91/src/mem/x86_64.rs:159:14: 159:53]" = type {}
%"core::num::error::TryFromIntError" = type { {} }
%"core::convert::Infallible" = type { [0 x i8] }

@alloc_5cd8622137be1559b8631213ff66a276 = private unnamed_addr constant <{ [107 x i8] }> <{ [107 x i8] c"/Users/yaw/.rustup/toolchains/nightly-aarch64-apple-darwin/lib/rustlib/src/rust/library/core/src/ops/bit.rs" }>, align 1
@alloc_0fded4d8d8e6bbd9c8c16895ebaa736f = private unnamed_addr constant <{ ptr, [16 x i8] }> <{ ptr @alloc_5cd8622137be1559b8631213ff66a276, [16 x i8] c"k\00\00\00\00\00\00\00\FB\01\00\00\01\00\00\00" }>, align 8
@str.0 = internal constant [35 x i8] c"attempt to shift left with overflow"
@alloc_2b4de3d987e5e10473ab9ad6d39dd80a = private unnamed_addr constant <{ ptr, [16 x i8] }> <{ ptr @alloc_5cd8622137be1559b8631213ff66a276, [16 x i8] c"k\00\00\00\00\00\00\00s\02\00\00\01\00\00\00" }>, align 8
@str.1 = internal constant [36 x i8] c"attempt to shift right with overflow"
@alloc_0694161b0e3b1b4d0917e73ee060a51b = private unnamed_addr constant <{ [109 x i8] }> <{ [109 x i8] c"/Users/yaw/.rustup/toolchains/nightly-aarch64-apple-darwin/lib/rustlib/src/rust/library/core/src/ops/arith.rs" }>, align 1
@alloc_52ae69683ffdaf9e9b3e18d588029bbc = private unnamed_addr constant <{ ptr, [16 x i8] }> <{ ptr @alloc_0694161b0e3b1b4d0917e73ee060a51b, [16 x i8] c"m\00\00\00\00\00\00\00\DD\00\00\00\01\00\00\00" }>, align 8
@str.2 = internal constant [33 x i8] c"attempt to subtract with overflow"
@alloc_dcb00abf057bf3a126f5d228d8e98222 = private unnamed_addr constant <{ ptr, [16 x i8] }> <{ ptr @alloc_5cd8622137be1559b8631213ff66a276, [16 x i8] c"k\00\00\00\00\00\00\00\1F\04\00\00\01\00\00\00" }>, align 8
@alloc_8b72e65625de3e221368553edb4591ff = private unnamed_addr constant <{ [107 x i8] }> <{ [107 x i8] c"/Users/yaw/.rustup/toolchains/nightly-aarch64-apple-darwin/lib/rustlib/src/rust/library/core/src/num/mod.rs" }>, align 1
@alloc_745612f82ac93cedda5b6a4c58410895 = private unnamed_addr constant <{ ptr, [16 x i8] }> <{ ptr @alloc_8b72e65625de3e221368553edb4591ff, [16 x i8] c"k\00\00\00\00\00\00\00\E5\00\00\00\05\00\00\00" }>, align 8
@alloc_92a8d12f20930301b9b5d6f374979a5d = private unnamed_addr constant <{ ptr, [16 x i8] }> <{ ptr @alloc_8b72e65625de3e221368553edb4591ff, [16 x i8] c"k\00\00\00\00\00\00\00\A5\01\00\00\05\00\00\00" }>, align 8
@alloc_7fbe7faad08eb4cb991ae8d0cb9464c4 = private unnamed_addr constant <{ ptr, [16 x i8] }> <{ ptr @alloc_8b72e65625de3e221368553edb4591ff, [16 x i8] c"k\00\00\00\00\00\00\00\FC\00\00\00\05\00\00\00" }>, align 8
@alloc_d87b94900510b469cf0cf6a9c6328553 = private unnamed_addr constant <{ ptr, [16 x i8] }> <{ ptr @alloc_8b72e65625de3e221368553edb4591ff, [16 x i8] c"k\00\00\00\00\00\00\00\13\01\00\00\05\00\00\00" }>, align 8
@alloc_cbd683c74bcf480e46590c4c8a7ba64a = private unnamed_addr constant <{ ptr, [16 x i8] }> <{ ptr @alloc_8b72e65625de3e221368553edb4591ff, [16 x i8] c"k\00\00\00\00\00\00\00*\01\00\00\05\00\00\00" }>, align 8
@alloc_2b9f575132b74900f3b04847c4a63b54 = private unnamed_addr constant <{ ptr, [16 x i8] }> <{ ptr @alloc_8b72e65625de3e221368553edb4591ff, [16 x i8] c"k\00\00\00\00\00\00\00\FF\03\00\00\05\00\00\00" }>, align 8
@alloc_57137f5a881ed0c6dcebdb6ed30a7489 = private unnamed_addr constant <{ ptr, [16 x i8] }> <{ ptr @alloc_8b72e65625de3e221368553edb4591ff, [16 x i8] c"k\00\00\00\00\00\00\00/\04\00\00\05\00\00\00" }>, align 8
@alloc_4dc9b1e8ba929382a4f82ada21b6caa7 = private unnamed_addr constant <{ ptr, [16 x i8] }> <{ ptr @alloc_8b72e65625de3e221368553edb4591ff, [16 x i8] c"k\00\00\00\00\00\00\00F\04\00\00\05\00\00\00" }>, align 8
@alloc_1630564b04c9a01cccf73e18f4e59e25 = private unnamed_addr constant <{ ptr, [16 x i8] }> <{ ptr @alloc_8b72e65625de3e221368553edb4591ff, [16 x i8] c"k\00\00\00\00\00\00\00A\01\00\00\05\00\00\00" }>, align 8
@alloc_1aa3619d0b965a24ee0a399070d9bf0e = private unnamed_addr constant <{ ptr, [16 x i8] }> <{ ptr @alloc_8b72e65625de3e221368553edb4591ff, [16 x i8] c"k\00\00\00\00\00\00\00]\04\00\00\05\00\00\00" }>, align 8
@alloc_4a628e369b3a6a3fb0bfa4dc7bac4343 = private unnamed_addr constant <{ ptr, [16 x i8] }> <{ ptr @alloc_8b72e65625de3e221368553edb4591ff, [16 x i8] c"k\00\00\00\00\00\00\00\8B\01\00\00\05\00\00\00" }>, align 8
@alloc_82a295533409787c3e504fb0ce3831ff = private unnamed_addr constant <{ ptr, [16 x i8] }> <{ ptr @alloc_8b72e65625de3e221368553edb4591ff, [16 x i8] c"k\00\00\00\00\00\00\00\A6\04\00\00\05\00\00\00" }>, align 8
@alloc_29f87e6ac6e7e4317253d26531c5c81c = private unnamed_addr constant <{ [107 x i8] }> <{ [107 x i8] c"/Users/yaw/.rustup/toolchains/nightly-aarch64-apple-darwin/lib/rustlib/src/rust/library/core/src/ptr/mod.rs" }>, align 1
@alloc_2b0ba7ab63a66cc8fee4f412e2e59e95 = private unnamed_addr constant <{ ptr, [16 x i8] }> <{ ptr @alloc_29f87e6ac6e7e4317253d26531c5c81c, [16 x i8] c"k\00\00\00\00\00\00\00\02\05\00\00\0D\00\00\00" }>, align 8
@alloc_1eb6f53a157dccb32488e066ad957e6d = private unnamed_addr constant <{ [82 x i8] }> <{ [82 x i8] c"unsafe precondition(s) violated: hint::unreachable_unchecked must never be reached" }>, align 1
@alloc_8a80f09a0a7e5419e3640441b1682996 = private unnamed_addr constant <{ [32 x i8] }> <{ [32 x i8] c"assertion failed: self.is_some()" }>, align 1
@alloc_ad54643a37df9c74607a3553535fcb8f = private unnamed_addr constant <{ ptr, [16 x i8] }> <{ ptr @alloc_0694161b0e3b1b4d0917e73ee060a51b, [16 x i8] c"m\00\00\00\00\00\00\00\08\03\00\00\01\00\00\00" }>, align 8
@str.3 = internal constant [28 x i8] c"attempt to add with overflow"
@alloc_5f14afd35d94d650c98c9d1e1db404d9 = private unnamed_addr constant <{ ptr, [16 x i8] }> <{ ptr @alloc_5cd8622137be1559b8631213ff66a276, [16 x i8] c"k\00\00\00\00\00\00\00\CB\03\00\00\01\00\00\00" }>, align 8
@alloc_b228d08f231d433dccd7fc8a834791dd = private unnamed_addr constant <{ [105 x i8] }> <{ [105 x i8] c"/Users/yaw/.cargo/registry/src/index.crates.io-6f17d22bba15001f/compiler_builtins-0.1.91/src/float/add.rs" }>, align 1
@alloc_7e0a84c8fed5e9a42caab40bf04a495e = private unnamed_addr constant <{ ptr, [16 x i8] }> <{ ptr @alloc_b228d08f231d433dccd7fc8a834791dd, [16 x i8] c"i\00\00\00\00\00\00\00\88\00\00\00\11\00\00\00" }>, align 8
@alloc_f191b2713523783795b06c57da827054 = private unnamed_addr constant <{ ptr, [16 x i8] }> <{ ptr @alloc_b228d08f231d433dccd7fc8a834791dd, [16 x i8] c"i\00\00\00\00\00\00\00\8A\00\00\00\0D\00\00\00" }>, align 8
@alloc_a56d2402bdbb004aeac5a11f170c454a = private unnamed_addr constant <{ ptr, [16 x i8] }> <{ ptr @alloc_b228d08f231d433dccd7fc8a834791dd, [16 x i8] c"i\00\00\00\00\00\00\00\95\00\00\00\0D\00\00\00" }>, align 8
@alloc_d493f689354064f17c6a65464dd2b14a = private unnamed_addr constant <{ ptr, [16 x i8] }> <{ ptr @alloc_b228d08f231d433dccd7fc8a834791dd, [16 x i8] c"i\00\00\00\00\00\00\00\A1\00\00\00\15\00\00\00" }>, align 8
@alloc_f92af4da719a0d18020e7c3499b0a575 = private unnamed_addr constant <{ [106 x i8] }> <{ [106 x i8] c"/Users/yaw/.cargo/registry/src/index.crates.io-6f17d22bba15001f/compiler_builtins-0.1.91/src/float/conv.rs" }>, align 1
@alloc_62baeba2cb0d3835a83cc58a3b1d29a2 = private unnamed_addr constant <{ ptr, [16 x i8] }> <{ ptr @alloc_f92af4da719a0d18020e7c3499b0a575, [16 x i8] c"j\00\00\00\00\00\00\00\0D\00\00\00\11\00\00\00" }>, align 8
@alloc_b477b0a98d6f0a740093b150e9a30759 = private unnamed_addr constant <{ ptr, [16 x i8] }> <{ ptr @alloc_f92af4da719a0d18020e7c3499b0a575, [16 x i8] c"j\00\00\00\00\00\00\00\0E\00\00\00\11\00\00\00" }>, align 8
@alloc_648df1cd8221ba0013d0b4cc7727bfe7 = private unnamed_addr constant <{ ptr, [16 x i8] }> <{ ptr @alloc_f92af4da719a0d18020e7c3499b0a575, [16 x i8] c"j\00\00\00\00\00\00\00\0F\00\00\00\16\00\00\00" }>, align 8
@alloc_0f1dbfd16b893f70abd02bd1e1e96938 = private unnamed_addr constant <{ ptr, [16 x i8] }> <{ ptr @alloc_f92af4da719a0d18020e7c3499b0a575, [16 x i8] c"j\00\00\00\00\00\00\00\0F\00\00\00\11\00\00\00" }>, align 8
@alloc_d890fa92fa813ecbd6c646ed0eebacbc = private unnamed_addr constant <{ ptr, [16 x i8] }> <{ ptr @alloc_f92af4da719a0d18020e7c3499b0a575, [16 x i8] c"j\00\00\00\00\00\00\00\10\00\00\00\11\00\00\00" }>, align 8
@alloc_0b2b2b393c955b82a0e6abd0ad2e8e4e = private unnamed_addr constant <{ ptr, [16 x i8] }> <{ ptr @alloc_f92af4da719a0d18020e7c3499b0a575, [16 x i8] c"j\00\00\00\00\00\00\00\11\00\00\00\09\00\00\00" }>, align 8
@alloc_c85681b3a5df0444b9ce978abebba273 = private unnamed_addr constant <{ ptr, [16 x i8] }> <{ ptr @alloc_f92af4da719a0d18020e7c3499b0a575, [16 x i8] c"j\00\00\00\00\00\00\00\19\00\00\00\1F\00\00\00" }>, align 8
@alloc_3294c5a0b6af6a475cdf21fa2e6eef7d = private unnamed_addr constant <{ ptr, [16 x i8] }> <{ ptr @alloc_f92af4da719a0d18020e7c3499b0a575, [16 x i8] c"j\00\00\00\00\00\00\00\19\00\00\00\11\00\00\00" }>, align 8
@alloc_c12968c362b475350bdb95d9d79e890f = private unnamed_addr constant <{ ptr, [16 x i8] }> <{ ptr @alloc_f92af4da719a0d18020e7c3499b0a575, [16 x i8] c"j\00\00\00\00\00\00\00\1A\00\00\00\11\00\00\00" }>, align 8
@alloc_096db02469499b5d759a6df7426dc763 = private unnamed_addr constant <{ ptr, [16 x i8] }> <{ ptr @alloc_f92af4da719a0d18020e7c3499b0a575, [16 x i8] c"j\00\00\00\00\00\00\00\1B\00\00\00\09\00\00\00" }>, align 8
@alloc_ad3ff6a380a751ddfe7c84c6de155e7c = private unnamed_addr constant <{ ptr, [16 x i8] }> <{ ptr @alloc_f92af4da719a0d18020e7c3499b0a575, [16 x i8] c"j\00\00\00\00\00\00\00#\00\00\00\16\00\00\00" }>, align 8
@alloc_e1311852fbb7f7d38a4560cbb53407ba = private unnamed_addr constant <{ ptr, [16 x i8] }> <{ ptr @alloc_f92af4da719a0d18020e7c3499b0a575, [16 x i8] c"j\00\00\00\00\00\00\00#\00\00\00\11\00\00\00" }>, align 8
@alloc_011b4e942577a56cdb186a43ddac2bf4 = private unnamed_addr constant <{ ptr, [16 x i8] }> <{ ptr @alloc_f92af4da719a0d18020e7c3499b0a575, [16 x i8] c"j\00\00\00\00\00\00\00$\00\00\00(\00\00\00" }>, align 8
@alloc_c9866c1ee5f3c96462b637fe49e8dfab = private unnamed_addr constant <{ ptr, [16 x i8] }> <{ ptr @alloc_f92af4da719a0d18020e7c3499b0a575, [16 x i8] c"j\00\00\00\00\00\00\00%\00\00\00\09\00\00\00" }>, align 8
@alloc_77c5ca02bf2d67a599f95924ec6a24c3 = private unnamed_addr constant <{ ptr, [16 x i8] }> <{ ptr @alloc_f92af4da719a0d18020e7c3499b0a575, [16 x i8] c"j\00\00\00\00\00\00\00-\00\00\00\11\00\00\00" }>, align 8
@alloc_a28df74fe38465fc7212f3913ded2b41 = private unnamed_addr constant <{ ptr, [16 x i8] }> <{ ptr @alloc_f92af4da719a0d18020e7c3499b0a575, [16 x i8] c"j\00\00\00\00\00\00\00.\00\00\00\11\00\00\00" }>, align 8
@alloc_502368749a0f8abe11d68a3f18050151 = private unnamed_addr constant <{ ptr, [16 x i8] }> <{ ptr @alloc_f92af4da719a0d18020e7c3499b0a575, [16 x i8] c"j\00\00\00\00\00\00\00/\00\00\00\16\00\00\00" }>, align 8
@alloc_51dbf705c3445519bb4ff7838be88533 = private unnamed_addr constant <{ ptr, [16 x i8] }> <{ ptr @alloc_f92af4da719a0d18020e7c3499b0a575, [16 x i8] c"j\00\00\00\00\00\00\00/\00\00\00\11\00\00\00" }>, align 8
@alloc_c3f92d4c741edb33abbcce2afe585ce1 = private unnamed_addr constant <{ ptr, [16 x i8] }> <{ ptr @alloc_f92af4da719a0d18020e7c3499b0a575, [16 x i8] c"j\00\00\00\00\00\00\000\00\00\00\11\00\00\00" }>, align 8
@alloc_0dd10ee4a6979c59383d369182b5971e = private unnamed_addr constant <{ ptr, [16 x i8] }> <{ ptr @alloc_f92af4da719a0d18020e7c3499b0a575, [16 x i8] c"j\00\00\00\00\00\00\001\00\00\00\09\00\00\00" }>, align 8
@alloc_8cf2329faa275b28c91699ee1e1458e6 = private unnamed_addr constant <{ ptr, [16 x i8] }> <{ ptr @alloc_f92af4da719a0d18020e7c3499b0a575, [16 x i8] c"j\00\00\00\00\00\00\009\00\00\00\16\00\00\00" }>, align 8
@alloc_2ea6ccad659897d21182bf470e1116a4 = private unnamed_addr constant <{ ptr, [16 x i8] }> <{ ptr @alloc_f92af4da719a0d18020e7c3499b0a575, [16 x i8] c"j\00\00\00\00\00\00\009\00\00\00\11\00\00\00" }>, align 8
@alloc_dac3b11e7525c682409e53c892bd7831 = private unnamed_addr constant <{ ptr, [16 x i8] }> <{ ptr @alloc_f92af4da719a0d18020e7c3499b0a575, [16 x i8] c"j\00\00\00\00\00\00\00:\00\00\00(\00\00\00" }>, align 8
@alloc_76d14c220cedde917a08508c17f43cc3 = private unnamed_addr constant <{ ptr, [16 x i8] }> <{ ptr @alloc_f92af4da719a0d18020e7c3499b0a575, [16 x i8] c"j\00\00\00\00\00\00\00;\00\00\00\09\00\00\00" }>, align 8
@alloc_19e01f86629128d35bf1c3b3621d1062 = private unnamed_addr constant <{ ptr, [16 x i8] }> <{ ptr @alloc_f92af4da719a0d18020e7c3499b0a575, [16 x i8] c"j\00\00\00\00\00\00\00C\00\00\00\16\00\00\00" }>, align 8
@alloc_82f45c71b649615cfe5987556d5700c3 = private unnamed_addr constant <{ ptr, [16 x i8] }> <{ ptr @alloc_f92af4da719a0d18020e7c3499b0a575, [16 x i8] c"j\00\00\00\00\00\00\00C\00\00\00\11\00\00\00" }>, align 8
@alloc_f706a9bd89296c8d763e088265485f9f = private unnamed_addr constant <{ ptr, [16 x i8] }> <{ ptr @alloc_f92af4da719a0d18020e7c3499b0a575, [16 x i8] c"j\00\00\00\00\00\00\00D\00\00\00(\00\00\00" }>, align 8
@alloc_72bf10bdbee1b0a9797ff78285b3d00c = private unnamed_addr constant <{ ptr, [16 x i8] }> <{ ptr @alloc_f92af4da719a0d18020e7c3499b0a575, [16 x i8] c"j\00\00\00\00\00\00\00E\00\00\00\09\00\00\00" }>, align 8
@alloc_7fd5b0412f9303c82ff79344ce3c6dc3 = private unnamed_addr constant <{ [105 x i8] }> <{ [105 x i8] c"/Users/yaw/.cargo/registry/src/index.crates.io-6f17d22bba15001f/compiler_builtins-0.1.91/src/float/div.rs" }>, align 1
@alloc_3b8232979297d9730e3a76dadbfe7573 = private unnamed_addr constant <{ ptr, [16 x i8] }> <{ ptr @alloc_7fd5b0412f9303c82ff79344ce3c6dc3, [16 x i8] c"i\00\00\00\00\00\00\00e\00\00\00\0D\00\00\00" }>, align 8
@alloc_0c6282bf43303c90563badcd5f580add = private unnamed_addr constant <{ ptr, [16 x i8] }> <{ ptr @alloc_7fd5b0412f9303c82ff79344ce3c6dc3, [16 x i8] c"i\00\00\00\00\00\00\00k\00\00\00\0D\00\00\00" }>, align 8
@alloc_93f3c3fbfb805926e522440f97365b0b = private unnamed_addr constant <{ ptr, [16 x i8] }> <{ ptr @alloc_7fd5b0412f9303c82ff79344ce3c6dc3, [16 x i8] c"i\00\00\00\00\00\00\00\B5\00\00\00\1B\00\00\00" }>, align 8
@alloc_02ee0b9f1f316f908f9c2e5ac4b81124 = private unnamed_addr constant <{ ptr, [16 x i8] }> <{ ptr @alloc_7fd5b0412f9303c82ff79344ce3c6dc3, [16 x i8] c"i\00\00\00\00\00\00\008\01\00\00\0D\00\00\00" }>, align 8
@alloc_979fa179d666290a2134811924e7bba3 = private unnamed_addr constant <{ ptr, [16 x i8] }> <{ ptr @alloc_7fd5b0412f9303c82ff79344ce3c6dc3, [16 x i8] c"i\00\00\00\00\00\00\00>\01\00\00\0D\00\00\00" }>, align 8
@alloc_beebe82c61d526113714f42fdf45c20a = private unnamed_addr constant <{ ptr, [16 x i8] }> <{ ptr @alloc_7fd5b0412f9303c82ff79344ce3c6dc3, [16 x i8] c"i\00\00\00\00\00\00\00\A3\01\00\00\1B\00\00\00" }>, align 8
@alloc_b49fc9420d5fcc4e5ba122a349717dab = private unnamed_addr constant <{ [108 x i8] }> <{ [108 x i8] c"/Users/yaw/.cargo/registry/src/index.crates.io-6f17d22bba15001f/compiler_builtins-0.1.91/src/float/extend.rs" }>, align 1
@alloc_968ffe63964c3f42a9f1000bb093b155 = private unnamed_addr constant <{ ptr, [16 x i8] }> <{ ptr @alloc_b49fc9420d5fcc4e5ba122a349717dab, [16 x i8] c"l\00\00\00\00\00\00\00=\00\00\00\15\00\00\00" }>, align 8
@alloc_a884df7e9ded7195c914b9d6b1282d2b = private unnamed_addr constant <{ ptr, [16 x i8] }> <{ ptr @alloc_b49fc9420d5fcc4e5ba122a349717dab, [16 x i8] c"l\00\00\00\00\00\00\00?\00\00\00!\00\00\00" }>, align 8
@alloc_4adfef6a48df65df37354fa163dfd78a = private unnamed_addr constant <{ ptr, [16 x i8] }> <{ ptr @alloc_b49fc9420d5fcc4e5ba122a349717dab, [16 x i8] c"l\00\00\00\00\00\00\00?\00\00\00 \00\00\00" }>, align 8
@alloc_ed8f88f6dbf78a2fbaeb3b95888f63c6 = private unnamed_addr constant <{ ptr, [16 x i8] }> <{ ptr @alloc_b49fc9420d5fcc4e5ba122a349717dab, [16 x i8] c"l\00\00\00\00\00\00\00@\00\00\00+\00\00\00" }>, align 8
@alloc_fed490cdb137f9c4a18d884e5bb89089 = private unnamed_addr constant <{ [105 x i8] }> <{ [105 x i8] c"/Users/yaw/.cargo/registry/src/index.crates.io-6f17d22bba15001f/compiler_builtins-0.1.91/src/float/mul.rs" }>, align 1
@alloc_6019393656ff9811ab669831f6c311a2 = private unnamed_addr constant <{ ptr, [16 x i8] }> <{ ptr @alloc_fed490cdb137f9c4a18d884e5bb89089, [16 x i8] c"i\00\00\00\00\00\00\00]\00\00\00\0D\00\00\00" }>, align 8
@alloc_0cb6714ffd1be3d455ac7d55993e686d = private unnamed_addr constant <{ ptr, [16 x i8] }> <{ ptr @alloc_fed490cdb137f9c4a18d884e5bb89089, [16 x i8] c"i\00\00\00\00\00\00\00c\00\00\00\0D\00\00\00" }>, align 8
@alloc_d16e68df686b7d7b4d3d7262e62a8096 = private unnamed_addr constant <{ ptr, [16 x i8] }> <{ ptr @alloc_fed490cdb137f9c4a18d884e5bb89089, [16 x i8] c"i\00\00\00\00\00\00\00\9A\00\00\00)\00\00\00" }>, align 8
@alloc_c5fa57ec96b9c4a359c444db429338ea = private unnamed_addr constant <{ ptr, [16 x i8] }> <{ ptr @alloc_fed490cdb137f9c4a18d884e5bb89089, [16 x i8] c"i\00\00\00\00\00\00\00\9B\00\00\00+\00\00\00" }>, align 8
@alloc_50b4e06472299ec49ad812f7e910d5aa = private unnamed_addr constant <{ ptr, [16 x i8] }> <{ ptr @alloc_fed490cdb137f9c4a18d884e5bb89089, [16 x i8] c"i\00\00\00\00\00\00\00\9D\00\00\00\1B\00\00\00" }>, align 8
@str.4 = internal constant [33 x i8] c"attempt to multiply with overflow"
@alloc_5f3fda8a84db070037ff07483a68222e = private unnamed_addr constant <{ ptr, [16 x i8] }> <{ ptr @alloc_fed490cdb137f9c4a18d884e5bb89089, [16 x i8] c"i\00\00\00\00\00\00\00\9E\00\00\00+\00\00\00" }>, align 8
@alloc_b2f026484521c51f7a67047f118a5879 = private unnamed_addr constant <{ ptr, [16 x i8] }> <{ ptr @alloc_fed490cdb137f9c4a18d884e5bb89089, [16 x i8] c"i\00\00\00\00\00\00\00\9E\00\00\00*\00\00\00" }>, align 8
@alloc_5fa8716b462e4f9a9f5089c4d5134775 = private unnamed_addr constant <{ ptr, [16 x i8] }> <{ ptr @alloc_fed490cdb137f9c4a18d884e5bb89089, [16 x i8] c"i\00\00\00\00\00\00\00\9F\00\00\00+\00\00\00" }>, align 8
@alloc_a4d2a61f377310c2e1cfcd01b2d75403 = private unnamed_addr constant <{ [107 x i8] }> <{ [107 x i8] c"/Users/yaw/.cargo/registry/src/index.crates.io-6f17d22bba15001f/compiler_builtins-0.1.91/src/float/trunc.rs" }>, align 1
@alloc_99d061d2c13f04ae1674734faacd93f5 = private unnamed_addr constant <{ ptr, [16 x i8] }> <{ ptr @alloc_a4d2a61f377310c2e1cfcd01b2d75403, [16 x i8] c"k\00\00\00\00\00\00\00$\00\00\00'\00\00\00" }>, align 8
@alloc_07054705662bc40b7fbbd15fc41458d7 = private unnamed_addr constant <{ ptr, [16 x i8] }> <{ ptr @alloc_a4d2a61f377310c2e1cfcd01b2d75403, [16 x i8] c"k\00\00\00\00\00\00\00$\00\00\00&\00\00\00" }>, align 8
@alloc_289f2eb54f4fae8dfe667537bec3fdfd = private unnamed_addr constant <{ ptr, [16 x i8] }> <{ ptr @alloc_a4d2a61f377310c2e1cfcd01b2d75403, [16 x i8] c"k\00\00\00\00\00\00\00%\00\00\00&\00\00\00" }>, align 8
@alloc_75d9586e118f9df39271803be6b24216 = private unnamed_addr constant <{ ptr, [16 x i8] }> <{ ptr @alloc_a4d2a61f377310c2e1cfcd01b2d75403, [16 x i8] c"k\00\00\00\00\00\00\00%\00\00\00%\00\00\00" }>, align 8
@alloc_179f69b473fe58b1bfb25fbb19c0d9f3 = private unnamed_addr constant <{ ptr, [16 x i8] }> <{ ptr @alloc_a4d2a61f377310c2e1cfcd01b2d75403, [16 x i8] c"k\00\00\00\00\00\00\00R\00\00\00\15\00\00\00" }>, align 8
@alloc_d5fcad1edac15fe16319cc7534b551f8 = private unnamed_addr constant <{ ptr, [16 x i8] }> <{ ptr @alloc_a4d2a61f377310c2e1cfcd01b2d75403, [16 x i8] c"k\00\00\00\00\00\00\00Z\00\00\00-\00\00\00" }>, align 8
@alloc_03f2727108c0a3b2aa69938d76de01e3 = private unnamed_addr constant <{ [105 x i8] }> <{ [105 x i8] c"/Users/yaw/.cargo/registry/src/index.crates.io-6f17d22bba15001f/compiler_builtins-0.1.91/src/int/shift.rs" }>, align 1
@alloc_a372ac6db7480661949ce9dc171276e0 = private unnamed_addr constant <{ ptr, [16 x i8] }> <{ ptr @alloc_03f2727108c0a3b2aa69938d76de01e3, [16 x i8] c"i\00\00\00\00\00\00\00\09\00\00\00$\00\00\00" }>, align 8
@alloc_203cf8d4c260398ae17885b7751ce3b4 = private unnamed_addr constant <{ ptr, [16 x i8] }> <{ ptr @alloc_03f2727108c0a3b2aa69938d76de01e3, [16 x i8] c"i\00\00\00\00\00\00\00\1F\00\00\00(\00\00\00" }>, align 8
@alloc_2a8b31dd2b6939c5fe33e667a17c9930 = private unnamed_addr constant <{ ptr, [16 x i8] }> <{ ptr @alloc_03f2727108c0a3b2aa69938d76de01e3, [16 x i8] c"i\00\00\00\00\00\00\007\00\00\00#\00\00\00" }>, align 8
@_ZN17compiler_builtins4math4libm4exp23TBL17hbb6670d0ba37f378E = internal constant <{ [4096 x i8] }> <{ [4096 x i8] c"]=\7Ff\9E\A0\E6?\00\00\00\00\00\889=D\17u\FAR\B0\E6?\00\00\00\00\00\00\D8<\FE\D9\0Bu\12\C0\E6?\00\00\00\00\00x(\BD\BFv\D4\DD\DC\CF\E6?\00\00\00\00\00\C0\1E=)\1Ae<\B2\DF\E6?\00\00\00\00\00\00\D8\BC\E3:Y\98\92\EF\E6?\00\00\00\00\00\00\BC\BC\86\93Q\F9}\FF\E6?\00\00\00\00\00\D8/\BD\A3-\F4ft\0F\E7?\00\00\00\00\00\88,\BD\C3_\EC\E8u\1F\E7?\00\00\00\00\00\C0\13=\05\CF\EA\86\82/\E7?\00\00\00\00\0008\BDR\81\A5H\9A?\E7?\00\00\00\00\00\C0\00\BD\FC\CC\D75\BDO\E7?\00\00\00\00\00\88/=\F1gBV\EB_\E7?\00\00\00\00\00\E0\03=Hm\AB\B1$p\E7?\00\00\00\00\00\D0'\BD8]\DEOi\80\E7?\00\00\00\00\00\00\DD\BC\00\1D\AC8\B9\90\E7?\00\00\00\00\00\00\E3<x\01\EBs\14\A1\E7?\00\00\00\00\00\00\ED\BC`\D0v\09{\B1\E7?\00\00\00\00\00@ =3\C10\01\ED\C1\E7?\00\00\00\00\00\00\A0<6\86\FFbj\D2\E7?\00\00\00\00\00\90&\BD;N\CF6\F3\E2\E7?\00\00\00\00\00\E0\02\BD\E8\C3\91\84\87\F3\E7?\00\00\00\00\00X$\BDN\1B>T'\04\E8?\00\00\00\00\00\003=\1A\07\D1\AD\D2\14\E8?\00\00\00\00\00\00\0F=~\CDL\99\89%\E8?\00\00\00\00\00\C0!\BD\D0B\B9\1EL6\E8?\00\00\00\00\00\D0)=\B5\CA#F\1AG\E8?\00\00\00\00\00\10G=\BC[\9F\17\F4W\E8?\00\00\00\00\00`\22=\AF\91D\9B\D9h\E8?\00\00\00\00\00\C42\BD\95\A31\D9\CAy\E8?\00\00\00\00\00\00#\BD\B8e\8A\D9\C7\8A\E8?\00\00\00\00\00\80*\BD\00Xx\A4\D0\9B\E8?\00\00\00\00\00\00\ED\BC#\A2*B\E5\AC\E8?\00\00\00\00\00(3=\FA\19\D6\BA\05\BE\E8?\00\00\00\00\00\B4B=\83C\B5\162\CF\E8?\00\00\00\00\00\D0.\BDLf\08^j\E0\E8?\00\00\00\00\00P \BD\07x\15\99\AE\F1\E8?\00\00\00\00\00((=\0E,(\D0\FE\02\E9?\00\00\00\00\00\B0\1C\BD\96\FF\91\0B[\14\E9?\00\00\00\00\00\E0\05\BD\F9/\AAS\C3%\E9?\00\00\00\00\00@\F5<J\C6\CD\B077\E9?\00\00\00\00\00 \17=\AE\98_+\B8H\E9?\00\00\00\00\00\00\09\BD\CBR\C8\CBDZ\E9?\00\00\00\00\00h%=!ov\9A\DDk\E9?\00\00\00\00\00\D06\BD*N\DE\9F\82}\E9?\00\00\00\00\00\00\01\BD\A3#z\E43\8F\E9?\00\00\00\00\00\00-=\04\06\CAp\F1\A0\E9?\00\00\00\00\00\A48\BD\89\FFSM\BB\B2\E9?\00\00\00\00\00\\5=[\F1\A3\82\91\C4\E9?\00\00\00\00\00\B8&=\C5\B8K\19t\D6\E9?\00\00\00\00\00\00\EC\BC\8E#\E3\19c\E8\E9?\00\00\00\00\00\D0\17=\02\F3\07\8D^\FA\E9?\00\00\00\00\00@\16=M\E5]{f\0C\EA?\00\00\00\00\00\00\F5\BC\F6\B8\8E\EDz\1E\EA?\00\00\00\00\00\E0\09='.J\EC\9B0\EA?\00\00\00\00\00\D8*=]\0AF\80\C9B\EA?\00\00\00\00\00\F0\1A\BD\9B%>\B2\03U\EA?\00\00\00\00\00`\0B=\13b\F4\8AJg\EA?\00\00\00\00\00\888=\A7\B30\13\9Ey\EA?\00\00\00\00\00 \11=\8D.\C1S\FE\8B\EA?\00\00\00\00\00\C0\06=\D2\FCyUk\9E\EA?\00\00\00\00\00\B8)\BD\B8o5!\E5\B0\EA?\00\00\00\00\00p+=\81\F3\D3\BFk\C3\EA?\00\00\00\00\00\00\D9<\80'<:\FF\D5\EA?\00\00\00\00\00\00\E4<\A3\D2Z\99\9F\E8\EA?\00\00\00\00\00\90,\BDg\F3\22\E6L\FB\EA?\00\00\00\00\00P\16=\90\B7\8D)\07\0E\EB?\00\00\00\00\00\D4/=\A9\89\9Al\CE \EB?\00\00\00\00\00p\12=K\1AO\B8\A23\EB?\00\00\00\00\00GM=\E7G\B7\15\84F\EB?\00\00\00\00\0088\BD:Y\E5\8DrY\EB?\00\00\00\00\00\00\98<j\C5\F1)nl\EB?\00\00\00\00\00\D0\0A=P^\FB\F2v\7F\EB?\00\00\00\00\00\80\DE<\B2I'\F2\8C\92\EB?\00\00\00\00\00\C0\04\BD\03\06\A10\B0\A5\EB?\00\00\00\00\00p\0D\BDfo\9A\B7\E0\B8\EB?\00\00\00\00\00\90\0D=\FF\C1K\90\1E\CC\EB?\00\00\00\00\00\A0\02=o\A1\F3\C3i\DF\EB?\00\00\00\00\00x\1F\BD\B8\1D\D7[\C2\F2\EB?\00\00\00\00\00\A0\10\BD\E9\B2Aa(\06\EC?\00\00\00\00\00@\11\BD\E0R\85\DD\9B\19\EC?\00\00\00\00\00\E0\0B=\EEd\FA\D9\1C-\EC?\00\00\00\00\00@\09\BD/\D0\FF_\AB@\EC?\00\00\00\00\00\D0\0E\BD\15\FD\FAxGT\EC?\00\00\00\00\00f9=\CB\D0W.\F1g\EC?\00\00\00\00\00\10\1A\BD\B6\C1\88\89\A8{\EC?\00\00\00\00\80EX\BD3\E7\06\94m\8F\EC?\00\00\00\00\00H\1A\BD\DF\C4QW@\A3\EC?\00\00\00\00\00\00\CB<\94\90\EF\DC \B7\EC?\00\00\00\00\00@\01=\89\16m.\0F\CB\EC?\00\00\00\00\00 \F0<\12\C4]U\0B\DF\EC?\00\00\00\00\00`\F3<;\AB[[\15\F3\EC?\00\00\00\00\00\90\06\BD\BC\89\07J-\07\ED?\00\00\00\00\00\A0\09=\FA\C8\08+S\1B\ED?\00\00\00\00\00\E0\15\BD\85\8A\0D\08\87/\ED?\00\00\00\00\00(\1D=\03\A2\CA\EA\C8C\ED?\00\00\00\00\00\A0\01=\91\A4\FB\DC\18X\ED?\00\00\00\00\00\00\DF<\A1\E6b\E8vl\ED?\00\00\00\00\00\A0\03\BDN\83\C9\16\E3\80\ED?\00\00\00\00\00\D8\0C\BD\90`\FFq]\95\ED?\00\00\00\00\00\C0\F4<\AE2\DB\03\E6\A9\ED?\00\00\00\00\00\90\FF<%\83:\D6|\BE\ED?\00\00\00\00\00\80\E9<E\B4\01\F3!\D3\ED?\00\00\00\00\00 \F5\BC\BF\05\1Cd\D5\E7\ED?\00\00\00\00\00p\1D\BD\EC\9A{3\97\FC\ED?\00\00\00\00\00\14\16\BD^}\19kg\11\EE?\00\00\00\00\00H\0B=\E7\A3\F5\14F&\EE?\00\00\00\00\00\CE@=\\\EE\16;3;\EE?\00\00\00\00\00h\0C=\B4?\8B\E7.P\EE?\00\00\00\00\000\09\BDhmg$9e\EE?\00\00\00\00\00\00\E5\BCDL\C7\FBQz\EE?\00\00\00\00\00\F8\07\BD&\B7\CDwy\8F\EE?\00\00\00\00\00p\F3\BC\E8\90\A4\A2\AF\A4\EE?\00\00\00\00\00\D0\E5<\E4\CA|\86\F4\B9\EE?\00\00\00\00\00\1A\16=\0Dh\8E-H\CF\EE?\00\00\00\00\00P\F5<\14\85\18\A2\AA\E4\EE?\00\00\00\00\00@\C6<\13Za\EE\1B\FA\EE?\00\00\00\00\00\80\EE\BC\06A\B6\1C\9C\0F\EF?\00\00\00\00\00\88\FA\BCc\B9k7+%\EF?\00\00\00\00\00\90,\BDur\DDH\C9:\EF?\00\00\00\00\00\00\AA<$En[vP\EF?\00\00\00\00\00\F0\F4\BC\FDD\88y2f\EF?\00\00\00\00\00\80\CA<8\BE\9C\AD\FD{\EF?\00\00\00\00\00\BC\FA<\82<$\02\D8\91\EF?\00\00\00\00\00`\D4\BC\8E\90\9E\81\C1\A7\EF?\00\00\00\00\00\0C\0B\BD\11\D5\926\BA\BD\EF?\00\00\00\00\00\E0\C0\BC\94q\8F+\C2\D3\EF?\00\00\00\00\80\DE\10\BD\EE#*k\D9\E9\EF?\00\00\00\00\00C\EE<\00\00\00\00\00\00\F0?\00\00\00\00\00\00\00\00\BE\BCZ\FA\1A\0B\F0?\00\00\00\00\00@\B3\BC\033\FB\A9=\16\F0?\00\00\00\00\00\17\12\BD\82\02;\14h!\F0?\00\00\00\00\00@\BA<l\80w>\9A,\F0?\00\00\00\00\00\98\EF<\CA\BB\11.\D47\F0?\00\00\00\00\00@\C7\BC\89\7Fn\E8\15C\F0?\00\00\00\00\000\D8<gT\F6r_N\F0?\00\00\00\00\00?\1A\BDZ\85\15\D3\B0Y\F0?\00\00\00\00\00\84\02\BD\95\1F<\0E\0Ae\F0?\00\00\00\00\00`\F1<\1A\F7\DD)kp\F0?\00\00\00\00\00$\15=-\A8r+\D4{\F0?\00\00\00\00\00\A0\E9\BC\D0\9Bu\18E\87\F0?\00\00\00\00\00@\E6<\C8\07f\F6\BD\92\F0?\00\00\00\00\00x\00\BD\83\F3\C6\CA>\9E\F0?\00\00\00\00\00\00\98\BC09\1F\9B\C7\A9\F0?\00\00\00\00\00\A0\FF<\FC\88\F9lX\B5\F0?\00\00\00\00\00\C8\FA\BC\8Al\E4E\F1\C0\F0?\00\00\00\00\00\C0\D9<\16Hr+\92\CC\F0?\00\00\00\00\00 \05=\D8]9#;\D8\F0?\00\00\00\00\00\D0\FA\BC\F3\D1\D32\EC\E3\F0?\00\00\00\00\00\AC\1B=\A6\A9\DF_\A5\EF\F0?\00\00\00\00\00\E8\04\BD\F0\D2\FE\AFf\FB\F0?\00\00\00\00\000\0D\BDK#\D7(0\07\F1?\00\00\00\00\00P\F1<[[\12\D0\01\13\F1?\00\00\00\00\00\00\EC<\F9*^\AB\DB\1E\F1?\00\00\00\00\00\BC\16=\D51l\C0\BD*\F1?\00\00\00\00\00@\E8<}\04\F2\14\A86\F1?\00\00\00\00\00\D0\0E\BD\E9-\A9\AE\9AB\F1?\00\00\00\00\00\E0\E8<81O\93\95N\F1?\00\00\00\00\00@\EB<q\8E\A5\C8\98Z\F1?\00\00\00\00\000\05=\DF\C3qT\A4f\F1?\00\00\00\00\008\03=\11R}<\B8r\F1?\00\00\00\00\00\D4(=\9F\BB\95\86\D4~\F1?\00\00\00\00\00\D0\05\BD\93\8D\8C8\F9\8A\F1?\00\00\00\00\00\88\1C\BDf]7X&\97\F1?\00\00\00\00\00\F0\11=\A7\CBo\EB[\A3\F1?\00\00\00\00\00H\10=\E3\87\13\F8\99\AF\F1?\00\00\00\00\009G\BDT]\04\84\E0\BB\F1?\00\00\00\00\00\E4$=C\1C(\95/\C8\F1?\00\00\00\00\00 \0A\BD\B2\B9h1\87\D4\F1?\00\00\00\00\00\80\E3<1@\B4^\E7\E0\F1?\00\00\00\00\00\C0\EA<8\D9\FC\22P\ED\F1?\00\00\00\00\00\90\01=\F7\CD8\84\C1\F9\F1?\00\00\00\00\00x\1B\BD\8F\8Db\88;\06\F2?\00\00\00\00\00\94-=\1E\A8x5\BE\12\F2?\00\00\00\00\00\00\D8<A\DD}\91I\1F\F2?\00\00\00\00\004+=#\13y\A2\DD+\F2?\00\00\00\00\00\F8\19=\E7aunz8\F2?\00\00\00\00\00\C8\19\BD'\14\82\FB\1FE\F2?\00\00\00\00\000\02=\02\A6\B2O\CEQ\F2?\00\00\00\00\00H\13\BD\B0\CE\1Eq\85^\F2?\00\00\00\00\00p\12=\16}\E2eEk\F2?\00\00\00\00\00\D0\11=\0F\E0\1D4\0Ex\F2?\00\00\00\00\00\EE1=>c\F5\E1\DF\84\F2?\00\00\00\00\00\C0\14\BD0\BB\91u\BA\91\F2?\00\00\00\00\00\D8\13\BD\09\DF\1F\F5\9D\9E\F2?\00\00\00\00\00\B0\08=\9B\0E\D1f\8A\AB\F2?\00\00\00\00\00|\22\BD:\DA\DA\D0\7F\B8\F2?\00\00\00\00\004*=\F9\1Aw9~\C5\F2?\00\00\00\00\00\80\10\BD\D9\02\E4\A6\85\D2\F2?\00\00\00\00\00\D0\0E\BDy\15d\1F\96\DF\F2?\00\00\00\00\00 \F4\BC\CF.>\A9\AF\EC\F2?\00\00\00\00\00\98$\BD\22\88\BDJ\D2\F9\F2?\00\00\00\00\000\16\BD%\B61\0A\FE\06\F3?\00\00\00\00\0062\BD\0B\A5\EE\ED2\14\F3?\00\00\00\00\80\DFp\BD\B8\D7L\FCp!\F3?\00\00\00\00\00H\22\BD\A2\E9\A8;\B8.\F3?\00\00\00\00\00\98%\BDf\17d\B2\08<\F3?\00\00\00\00\00\D0\1E='\FA\E3fbI\F3?\00\00\00\00\00\00\DC\BC\0F\9F\92_\C5V\F3?\00\00\00\00\00\D80\BD\B9\88\DE\A21d\F3?\00\00\00\00\00\C8\22=9\AA:7\A7q\F3?\00\00\00\00\00` =\FEt\1E#&\7F\F3?\00\00\00\00\00`\16\BD8\D8\05m\AE\8C\F3?\00\00\00\00\00\E0\0A\BD\C3>q\1B@\9A\F3?\00\00\00\00\00rD\BD \A0\E54\DB\A7\F3?\00\00\00\00\00 \08=\95n\EC\BF\7F\B5\F3?\00\00\00\00\00\80>=\F2\A8\13\C3-\C3\F3?\00\00\00\00\00\80\EF<\22\E1\EDD\E5\D0\F3?\00\00\00\00\00\A0\17\BD\BB4\12L\A6\DE\F3?\00\00\00\00\000&=\CCN\1C\DFp\EC\F3?\00\00\00\00\00\A6H\BD\8C~\AC\04E\FA\F3?\00\00\00\00\00\DC<\BD\BB\A0g\C3\22\08\F4?\00\00\00\00\00\B8%=\95.\F7!\0A\16\F4?\00\00\00\00\00\C0\1E=FF\09'\FB#\F4?\00\00\00\00\00`\13\BD \A9P\D9\F51\F4?\00\00\00\00\00\98#=\EB\B9\84?\FA?\F4?\00\00\00\00\00\00\FA<\19\89a`\08N\F4?\00\00\00\00\00\C0\F6\BC\01\D2\A7B \\\F4?\00\00\00\00\00\C0\0B\BD\16\00\1D\EDAj\F4?\00\00\00\00\00\80\12\BD&3\8Bfmx\F4?\00\00\00\00\00\E00=\00<\C1\B5\A2\86\F4?\00\00\00\00\00@-\BD\04\AF\92\E1\E1\94\F4?\00\00\00\00\00 \0C=r\D3\D7\F0*\A3\F4?\00\00\00\00\00P\1E\BD\01\B8m\EA}\B1\F4?\00\00\00\00\00\80\07=\E1)6\D5\DA\BF\F4?\00\00\00\00\00\80\13\BD2\C1\17\B8A\CE\F4?\00\00\00\00\00\80\00=\DB\DD\FD\99\B2\DC\F4?\00\00\00\00\00p,=\96\AB\D8\81-\EB\F4?\00\00\00\00\00\E0\1C\BD\02-\9Dv\B2\F9\F4?\00\00\00\00\00 \19=\C11E\7FA\08\F5?\00\00\00\00\00\C0\08\BD*f\CF\A2\DA\16\F5?\00\00\00\00\00\00\FA\BC\EAQ?\E8}%\F5?\00\00\00\00\00\08J=\DAN\9DV+4\F5?\00\00\00\00\00\D8&\BD\1A\AC\F6\F4\E2B\F5?\00\00\00\00\00D2\BD\DB\94]\CA\A4Q\F5?\00\00\00\00\00<H=k\11\E9\DDp`\F5?\00\00\00\00\00\B0$=\DE)\B56Go\F5?\00\00\00\00\00ZA=\0E\C4\E2\DB'~\F5?\00\00\00\00\00\E0)\BDo\C7\97\D4\12\8D\F5?\00\00\00\00\00\08#\BDL\0B\FF'\08\9C\F5?\00\00\00\00\00\ECM='TH\DD\07\AB\F5?\00\00\00\00\00\00\C4\BC\F4z\A8\FB\11\BA\F5?\00\00\00\00\00\080=\0BFY\8A&\C9\F5?\00\00\00\00\00\C8&\BD?\8E\99\90E\D8\F5?\00\00\00\00\00\9AF=\E1 \AD\15o\E7\F5?\00\00\00\00\00@\1B\BD\CA\EB\DC \A3\F6\F5?\00\00\00\00\00p\17=\B8\DCv\B9\E1\05\F6?\00\00\00\00\00\F8&=\15\F7\CD\E6*\15\F6?\00\00\00\00\00\00\01=1U:\B0~$\F6?\00\00\00\00\00\D0\15\BD\B5)\19\1D\DD3\F6?\00\00\00\00\00\D0\12\BD\13\C3\CC4FC\F6?\00\00\00\00\00\80\EA\BC\FA\8E\BC\FE\B9R\F6?\00\00\00\00\00`(\BD\973U\828b\F6?\00\00\00\00\00\FEq=\8E2\08\C7\C1q\F6?\00\00\00\00\00 7\BD~\A9L\D4U\81\F6?\00\00\00\00\00\80\E6<q\94\9E\B1\F4\90\F6?\00\00\00\00\00x)\BD" }>, align 8, !dbg !0
@_ZN17compiler_builtins4math4libm5exp2f6EXP2FT17hcd33313be9d76ae0E = internal constant <{ [128 x i8] }> <{ [128 x i8] c"\CD;\7Ff\9E\A0\E6?\87\01\EBs\14\A1\E7?\DB\A0*B\E5\AC\E8?\90\F0\A3\82\91\C4\E9?\AD\D3Z\99\9F\E8\EA?\9CR\85\DD\9B\19\EC?\87\A4\FB\DC\18X\ED?\DA\90\A4\A2\AF\A4\EE?\00\00\00\00\00\00\F0?\0F\89\F9lX\B5\F0?{Q}<\B8r\F1?8bunz8\F2?\15\B71\0A\FE\06\F3?\224\12L\A6\DE\F3?'*6\D5\DA\BF\F4?)TH\DD\07\AB\F5?" }>, align 8, !dbg !11
@alloc_e8154f98fe63a985917197262f158e45 = private unnamed_addr constant <{ [117 x i8] }> <{ [117 x i8] c"/Users/yaw/.cargo/registry/src/index.crates.io-6f17d22bba15001f/compiler_builtins-0.1.91/src/../libm/src/math/fmod.rs" }>, align 1
@alloc_13f94ce0b2a786d8def9f54e2f72982a = private unnamed_addr constant <{ ptr, [16 x i8] }> <{ ptr @alloc_e8154f98fe63a985917197262f158e45, [16 x i8] c"u\00\00\00\00\00\00\00\1D\00\00\00\11\00\00\00" }>, align 8
@str.5 = internal constant [31 x i8] c"attempt to negate with overflow"
@alloc_dbf9f6468600cfd3b3ede9f84d933110 = private unnamed_addr constant <{ ptr, [16 x i8] }> <{ ptr @alloc_e8154f98fe63a985917197262f158e45, [16 x i8] c"u\00\00\00\00\00\00\00\1D\00\00\00\09\00\00\00" }>, align 8
@alloc_6836ba022d6af1bcfe60d66b1c05f27a = private unnamed_addr constant <{ ptr, [16 x i8] }> <{ ptr @alloc_e8154f98fe63a985917197262f158e45, [16 x i8] c"u\00\00\00\00\00\00\00(\00\00\00\11\00\00\00" }>, align 8
@alloc_1fac8d78f596768c3a0f912b356085df = private unnamed_addr constant <{ ptr, [16 x i8] }> <{ ptr @alloc_e8154f98fe63a985917197262f158e45, [16 x i8] c"u\00\00\00\00\00\00\00(\00\00\00\09\00\00\00" }>, align 8
@alloc_aa11b735a91dc7227dff10f59c1778f2 = private unnamed_addr constant <{ ptr, [16 x i8] }> <{ ptr @alloc_e8154f98fe63a985917197262f158e45, [16 x i8] c"u\00\00\00\00\00\00\008\00\00\00\09\00\00\00" }>, align 8
@alloc_9efe0fd8e73137986dc5d504f8af3b06 = private unnamed_addr constant <{ ptr, [16 x i8] }> <{ ptr @alloc_e8154f98fe63a985917197262f158e45, [16 x i8] c"u\00\00\00\00\00\00\00H\00\00\00\09\00\00\00" }>, align 8
@alloc_0b6472a07560929d769ce519acdedc21 = private unnamed_addr constant <{ ptr, [16 x i8] }> <{ ptr @alloc_e8154f98fe63a985917197262f158e45, [16 x i8] c"u\00\00\00\00\00\00\00K\00\00\00\11\00\00\00" }>, align 8
@alloc_080a1c3f7a7eff0f1e8ecb15647c1bbf = private unnamed_addr constant <{ ptr, [16 x i8] }> <{ ptr @alloc_e8154f98fe63a985917197262f158e45, [16 x i8] c"u\00\00\00\00\00\00\00K\00\00\00\09\00\00\00" }>, align 8
@alloc_bf614924bbc031192167a301e57872bd = private unnamed_addr constant <{ ptr, [16 x i8] }> <{ ptr @alloc_e8154f98fe63a985917197262f158e45, [16 x i8] c"u\00\00\00\00\00\00\00C\00\00\00\09\00\00\00" }>, align 8
@alloc_af7c18d10dd7a764010e0f4cc394dc5c = private unnamed_addr constant <{ ptr, [16 x i8] }> <{ ptr @alloc_e8154f98fe63a985917197262f158e45, [16 x i8] c"u\00\00\00\00\00\00\00%\00\00\00\0D\00\00\00" }>, align 8
@alloc_ba81af7f7573667e18fb2363451bdcb4 = private unnamed_addr constant <{ ptr, [16 x i8] }> <{ ptr @alloc_e8154f98fe63a985917197262f158e45, [16 x i8] c"u\00\00\00\00\00\00\00\1A\00\00\00\0D\00\00\00" }>, align 8
@alloc_09c4be4e7f105ff029b8b03daffa208d = private unnamed_addr constant <{ [118 x i8] }> <{ [118 x i8] c"/Users/yaw/.cargo/registry/src/index.crates.io-6f17d22bba15001f/compiler_builtins-0.1.91/src/../libm/src/math/fmodf.rs" }>, align 1
@alloc_adb4609eef46140a8ea48981e4ec707a = private unnamed_addr constant <{ ptr, [16 x i8] }> <{ ptr @alloc_09c4be4e7f105ff029b8b03daffa208d, [16 x i8] c"v\00\00\00\00\00\00\00!\00\00\00\11\00\00\00" }>, align 8
@alloc_03b047013d64ad10c7bba8d3628cd8ed = private unnamed_addr constant <{ ptr, [16 x i8] }> <{ ptr @alloc_09c4be4e7f105ff029b8b03daffa208d, [16 x i8] c"v\00\00\00\00\00\00\00!\00\00\00\09\00\00\00" }>, align 8
@alloc_1ddfa8b9426b3bd80f2cce0606ceb42b = private unnamed_addr constant <{ ptr, [16 x i8] }> <{ ptr @alloc_09c4be4e7f105ff029b8b03daffa208d, [16 x i8] c"v\00\00\00\00\00\00\00.\00\00\00\11\00\00\00" }>, align 8
@alloc_9f57102f386ad152afc42175bf704c80 = private unnamed_addr constant <{ ptr, [16 x i8] }> <{ ptr @alloc_09c4be4e7f105ff029b8b03daffa208d, [16 x i8] c"v\00\00\00\00\00\00\00.\00\00\00\09\00\00\00" }>, align 8
@alloc_2b99b45a44e105c4ed18ff81b46803c2 = private unnamed_addr constant <{ ptr, [16 x i8] }> <{ ptr @alloc_09c4be4e7f105ff029b8b03daffa208d, [16 x i8] c"v\00\00\00\00\00\00\00?\00\00\00\09\00\00\00" }>, align 8
@alloc_0e01323f141b128ca184cde75aaca491 = private unnamed_addr constant <{ ptr, [16 x i8] }> <{ ptr @alloc_09c4be4e7f105ff029b8b03daffa208d, [16 x i8] c"v\00\00\00\00\00\00\00Q\00\00\00\09\00\00\00" }>, align 8
@alloc_9352e699b049bafc646ce9583b8da370 = private unnamed_addr constant <{ ptr, [16 x i8] }> <{ ptr @alloc_09c4be4e7f105ff029b8b03daffa208d, [16 x i8] c"v\00\00\00\00\00\00\00T\00\00\00\11\00\00\00" }>, align 8
@alloc_8bef5e14c97256716a4241dd23c4b370 = private unnamed_addr constant <{ ptr, [16 x i8] }> <{ ptr @alloc_09c4be4e7f105ff029b8b03daffa208d, [16 x i8] c"v\00\00\00\00\00\00\00T\00\00\00\09\00\00\00" }>, align 8
@alloc_7c5ee38e42ab5f1e4f43d46895d6d160 = private unnamed_addr constant <{ ptr, [16 x i8] }> <{ ptr @alloc_09c4be4e7f105ff029b8b03daffa208d, [16 x i8] c"v\00\00\00\00\00\00\00L\00\00\00\09\00\00\00" }>, align 8
@alloc_2d019d4f22fd8357c5d05c008a92d57e = private unnamed_addr constant <{ ptr, [16 x i8] }> <{ ptr @alloc_09c4be4e7f105ff029b8b03daffa208d, [16 x i8] c"v\00\00\00\00\00\00\00*\00\00\00\0D\00\00\00" }>, align 8
@alloc_bae37e7bcd74ddf13606362b40f4b83a = private unnamed_addr constant <{ ptr, [16 x i8] }> <{ ptr @alloc_09c4be4e7f105ff029b8b03daffa208d, [16 x i8] c"v\00\00\00\00\00\00\00\1D\00\00\00\0D\00\00\00" }>, align 8
@_ZN17compiler_builtins4math4libm5k_tan1T17h29b7801af66c3f16E = internal constant <{ [104 x i8] }> <{ [104 x i8] c"cUUUUU\D5?z\FE\10\11\11\11\C1?\FEA\B3\1B\BA\A1\AB?7\D6\06\84\F4d\96?\93\84n\E9\E3&\82?(\03V\C9\22mm?\15\83\E0\FE\C8\DBW?\01e\F2\F2\D8DC?h\10\8D\1A\F7&0?\A6\927\A0\88~\14?\E9\A7\F02\0F\B8\12?sS`\DB\CBu\F3\BE\D4z\BFtp*\FB>" }>, align 8, !dbg !18
@alloc_45624295781005cad1dc9b2e29aa80f0 = private unnamed_addr constant <{ [106 x i8] }> <{ [106 x i8] c"/Users/yaw/.cargo/registry/src/index.crates.io-6f17d22bba15001f/compiler_builtins-0.1.91/src/mem/x86_64.rs" }>, align 1
@alloc_4f29bf560f8ab7fbd23bc42c0d0ad7f7 = private unnamed_addr constant <{ ptr, [16 x i8] }> <{ ptr @alloc_45624295781005cad1dc9b2e29aa80f0, [16 x i8] c"j\00\00\00\00\00\00\00T\00\00\00\1F\00\00\00" }>, align 8
@alloc_1eda028852198329bbf0712c41b70fe6 = private unnamed_addr constant <{ ptr, [16 x i8] }> <{ ptr @alloc_45624295781005cad1dc9b2e29aa80f0, [16 x i8] c"j\00\00\00\00\00\00\00U\00\00\00\1E\00\00\00" }>, align 8
@alloc_99f119774aa80f6ec30c86f1c635a5e8 = private unnamed_addr constant <{ ptr, [16 x i8] }> <{ ptr @alloc_45624295781005cad1dc9b2e29aa80f0, [16 x i8] c"j\00\00\00\00\00\00\00k\00\00\00\0D\00\00\00" }>, align 8
@alloc_5c246d9068d699ae38a34bd0b5760eb1 = private unnamed_addr constant <{ ptr, [16 x i8] }> <{ ptr @alloc_45624295781005cad1dc9b2e29aa80f0, [16 x i8] c"j\00\00\00\00\00\00\00\A2\00\00\00\18\00\00\00" }>, align 8
@alloc_39ae3e24c70fde57e8673d53921e46db = private unnamed_addr constant <{ ptr, [16 x i8] }> <{ ptr @alloc_45624295781005cad1dc9b2e29aa80f0, [16 x i8] c"j\00\00\00\00\00\00\00\0C\01\00\00\09\00\00\00" }>, align 8
@alloc_d0cda8738f041285e6c101fef9c4a3b3 = private unnamed_addr constant <{ ptr, [16 x i8] }> <{ ptr @alloc_45624295781005cad1dc9b2e29aa80f0, [16 x i8] c"j\00\00\00\00\00\00\00(\01\00\00\15\00\00\00" }>, align 8
@alloc_a1852160939d41ced89fba97374a75fd = private unnamed_addr constant <{ ptr, [16 x i8] }> <{ ptr @alloc_45624295781005cad1dc9b2e29aa80f0, [16 x i8] c"j\00\00\00\00\00\00\00,\01\00\00\0D\00\00\00" }>, align 8
@alloc_6dc90d0ee770d16ffd668a9e28f7bc42 = private unnamed_addr constant <{ ptr, [16 x i8] }> <{ ptr @alloc_45624295781005cad1dc9b2e29aa80f0, [16 x i8] c"j\00\00\00\00\00\00\005\01\00\00\1B\00\00\00" }>, align 8
@alloc_4bf52f2687220a72c00739f4c9f6d9f9 = private unnamed_addr constant <{ ptr, [16 x i8] }> <{ ptr @alloc_45624295781005cad1dc9b2e29aa80f0, [16 x i8] c"j\00\00\00\00\00\00\006\01\00\00\05\00\00\00" }>, align 8
@alloc_2e763c8895faa40b9c17894c02264487 = private unnamed_addr constant <{ [103 x i8] }> <{ [103 x i8] c"/Users/yaw/.cargo/registry/src/index.crates.io-6f17d22bba15001f/compiler_builtins-0.1.91/src/mem/mod.rs" }>, align 1
@alloc_b2ec2ae2dabdaf51ca005c2e8e142386 = private unnamed_addr constant <{ ptr, [16 x i8] }> <{ ptr @alloc_2e763c8895faa40b9c17894c02264487, [16 x i8] c"g\00\00\00\00\00\00\00N\00\00\00\0D\00\00\00" }>, align 8
@alloc_9aff63285426619e04f2fffab90a9afb = private unnamed_addr constant <{ ptr, [16 x i8] }> <{ ptr @alloc_2e763c8895faa40b9c17894c02264487, [16 x i8] c"g\00\00\00\00\00\00\00\\\00\00\00\11\00\00\00" }>, align 8
@alloc_b882a3e9c2f797251019d546d1296676 = private unnamed_addr constant <{ ptr, [16 x i8] }> <{ ptr @alloc_2e763c8895faa40b9c17894c02264487, [16 x i8] c"g\00\00\00\00\00\00\00d\00\00\00\11\00\00\00" }>, align 8
@alloc_93b07a65a7119c297b1c229afdb8766c = private unnamed_addr constant <{ ptr, [16 x i8] }> <{ ptr @alloc_2e763c8895faa40b9c17894c02264487, [16 x i8] c"g\00\00\00\00\00\00\00y\00\00\00\0D\00\00\00" }>, align 8
@alloc_405d13818267c5cb369738c5af06826f = private unnamed_addr constant <{ ptr, [16 x i8] }> <{ ptr @alloc_2e763c8895faa40b9c17894c02264487, [16 x i8] c"g\00\00\00\00\00\00\00\80\00\00\00\0D\00\00\00" }>, align 8
@alloc_0638a119f8c1f3e750fe99b03fb35d43 = private unnamed_addr constant <{ ptr, [16 x i8] }> <{ ptr @alloc_f92af4da719a0d18020e7c3499b0a575, [16 x i8] c"j\00\00\00\00\00\00\00\9A\00\00\00\15\00\00\00" }>, align 8
@alloc_da3684516a72b61788f7cef2ffca41ce = private unnamed_addr constant <{ ptr, [16 x i8] }> <{ ptr @alloc_f92af4da719a0d18020e7c3499b0a575, [16 x i8] c"j\00\00\00\00\00\00\00\9B\00\00\00\0D\00\00\00" }>, align 8
@alloc_3ad60125c22a94e87ab47c4cc0fa8ac9 = private unnamed_addr constant <{ ptr, [16 x i8] }> <{ ptr @alloc_f92af4da719a0d18020e7c3499b0a575, [16 x i8] c"j\00\00\00\00\00\00\00\AA\00\00\00\15\00\00\00" }>, align 8
@alloc_6d90ce93266ee7ba0dad0d36ec52b705 = private unnamed_addr constant <{ ptr, [16 x i8] }> <{ ptr @alloc_f92af4da719a0d18020e7c3499b0a575, [16 x i8] c"j\00\00\00\00\00\00\00\AB\00\00\00\0D\00\00\00" }>, align 8
@alloc_ea07ae559ce691d7b4c0ee5f809a0f27 = private unnamed_addr constant <{ ptr, [16 x i8] }> <{ ptr @alloc_f92af4da719a0d18020e7c3499b0a575, [16 x i8] c"j\00\00\00\00\00\00\00\BA\00\00\00\15\00\00\00" }>, align 8
@alloc_a5115556ba3882b05a43b9033bd31319 = private unnamed_addr constant <{ ptr, [16 x i8] }> <{ ptr @alloc_f92af4da719a0d18020e7c3499b0a575, [16 x i8] c"j\00\00\00\00\00\00\00\BB\00\00\00\0D\00\00\00" }>, align 8
@alloc_cd4cbde83bdd7669bc498a86b2088444 = private unnamed_addr constant <{ ptr, [16 x i8] }> <{ ptr @alloc_f92af4da719a0d18020e7c3499b0a575, [16 x i8] c"j\00\00\00\00\00\00\00\CA\00\00\00\15\00\00\00" }>, align 8
@alloc_101acc65b7a253258c9335d3d749734c = private unnamed_addr constant <{ ptr, [16 x i8] }> <{ ptr @alloc_f92af4da719a0d18020e7c3499b0a575, [16 x i8] c"j\00\00\00\00\00\00\00\CB\00\00\00\0D\00\00\00" }>, align 8
@alloc_e3abfc6beec30f63617d7f73efbdc9b8 = private unnamed_addr constant <{ ptr, [16 x i8] }> <{ ptr @alloc_f92af4da719a0d18020e7c3499b0a575, [16 x i8] c"j\00\00\00\00\00\00\00\DA\00\00\00\15\00\00\00" }>, align 8
@alloc_a51842a19ea16f147e79c3c82f71445c = private unnamed_addr constant <{ ptr, [16 x i8] }> <{ ptr @alloc_f92af4da719a0d18020e7c3499b0a575, [16 x i8] c"j\00\00\00\00\00\00\00\DB\00\00\00\0D\00\00\00" }>, align 8
@alloc_69bb1bf6883850997adc817a69776de9 = private unnamed_addr constant <{ ptr, [16 x i8] }> <{ ptr @alloc_f92af4da719a0d18020e7c3499b0a575, [16 x i8] c"j\00\00\00\00\00\00\00\EA\00\00\00\15\00\00\00" }>, align 8
@alloc_0703ac1ae691d59359641299e46647c8 = private unnamed_addr constant <{ ptr, [16 x i8] }> <{ ptr @alloc_f92af4da719a0d18020e7c3499b0a575, [16 x i8] c"j\00\00\00\00\00\00\00\EB\00\00\00\0D\00\00\00" }>, align 8
@alloc_103fa883518a004148ee208de63a2006 = private unnamed_addr constant <{ ptr, [16 x i8] }> <{ ptr @alloc_f92af4da719a0d18020e7c3499b0a575, [16 x i8] c"j\00\00\00\00\00\00\00\FD\00\00\00\15\00\00\00" }>, align 8
@alloc_9c52a2ec0eecbe2d9cb47f34d2cf00e7 = private unnamed_addr constant <{ ptr, [16 x i8] }> <{ ptr @alloc_f92af4da719a0d18020e7c3499b0a575, [16 x i8] c"j\00\00\00\00\00\00\00\FE\00\00\00\15\00\00\00" }>, align 8
@alloc_ca518176b79e966b5c5e74a9bd49b0ab = private unnamed_addr constant <{ ptr, [16 x i8] }> <{ ptr @alloc_f92af4da719a0d18020e7c3499b0a575, [16 x i8] c"j\00\00\00\00\00\00\00\FF\00\00\00'\00\00\00" }>, align 8
@alloc_e9d48111fc1ed36d35fe9fa6ad652f40 = private unnamed_addr constant <{ ptr, [16 x i8] }> <{ ptr @alloc_f92af4da719a0d18020e7c3499b0a575, [16 x i8] c"j\00\00\00\00\00\00\00\0E\01\00\00\15\00\00\00" }>, align 8
@alloc_675689798759f2d48036249c461c231f = private unnamed_addr constant <{ ptr, [16 x i8] }> <{ ptr @alloc_f92af4da719a0d18020e7c3499b0a575, [16 x i8] c"j\00\00\00\00\00\00\00\0F\01\00\00\15\00\00\00" }>, align 8
@alloc_a40ecd3e4856c6a725a5e3fafb89a645 = private unnamed_addr constant <{ ptr, [16 x i8] }> <{ ptr @alloc_f92af4da719a0d18020e7c3499b0a575, [16 x i8] c"j\00\00\00\00\00\00\00\10\01\00\00'\00\00\00" }>, align 8
@alloc_0323c36d0bb9820e82bd87bc24690d6a = private unnamed_addr constant <{ ptr, [16 x i8] }> <{ ptr @alloc_f92af4da719a0d18020e7c3499b0a575, [16 x i8] c"j\00\00\00\00\00\00\00\1F\01\00\00\15\00\00\00" }>, align 8
@alloc_3c45286d998304c28f3cb84c7265071d = private unnamed_addr constant <{ ptr, [16 x i8] }> <{ ptr @alloc_f92af4da719a0d18020e7c3499b0a575, [16 x i8] c"j\00\00\00\00\00\00\00 \01\00\00\15\00\00\00" }>, align 8
@alloc_d7f8ffafcb7f4807752c5fba5701d873 = private unnamed_addr constant <{ ptr, [16 x i8] }> <{ ptr @alloc_f92af4da719a0d18020e7c3499b0a575, [16 x i8] c"j\00\00\00\00\00\00\00!\01\00\00'\00\00\00" }>, align 8
@alloc_390e19a063175a2d36f51cfdfc660cd2 = private unnamed_addr constant <{ ptr, [16 x i8] }> <{ ptr @alloc_f92af4da719a0d18020e7c3499b0a575, [16 x i8] c"j\00\00\00\00\00\00\000\01\00\00\15\00\00\00" }>, align 8
@alloc_446a6d377e7b49184f95f30960e3b6b2 = private unnamed_addr constant <{ ptr, [16 x i8] }> <{ ptr @alloc_f92af4da719a0d18020e7c3499b0a575, [16 x i8] c"j\00\00\00\00\00\00\001\01\00\00\15\00\00\00" }>, align 8
@alloc_a4396301175ee45e13620841652c31f9 = private unnamed_addr constant <{ ptr, [16 x i8] }> <{ ptr @alloc_f92af4da719a0d18020e7c3499b0a575, [16 x i8] c"j\00\00\00\00\00\00\002\01\00\00'\00\00\00" }>, align 8
@alloc_2fdea59fb7a859ac374665b2ebe60a25 = private unnamed_addr constant <{ ptr, [16 x i8] }> <{ ptr @alloc_f92af4da719a0d18020e7c3499b0a575, [16 x i8] c"j\00\00\00\00\00\00\00A\01\00\00\15\00\00\00" }>, align 8
@alloc_d028db5b92597e1446cccea3d5bbc1bf = private unnamed_addr constant <{ ptr, [16 x i8] }> <{ ptr @alloc_f92af4da719a0d18020e7c3499b0a575, [16 x i8] c"j\00\00\00\00\00\00\00B\01\00\00\15\00\00\00" }>, align 8
@alloc_bb35d52988a5e49921d9531c1efe2736 = private unnamed_addr constant <{ ptr, [16 x i8] }> <{ ptr @alloc_f92af4da719a0d18020e7c3499b0a575, [16 x i8] c"j\00\00\00\00\00\00\00C\01\00\00'\00\00\00" }>, align 8
@alloc_eae06fb8aceb956c903bf387bb788a1b = private unnamed_addr constant <{ ptr, [16 x i8] }> <{ ptr @alloc_f92af4da719a0d18020e7c3499b0a575, [16 x i8] c"j\00\00\00\00\00\00\00R\01\00\00\15\00\00\00" }>, align 8
@alloc_0a5e04b6497072b9f61b951e52363e76 = private unnamed_addr constant <{ ptr, [16 x i8] }> <{ ptr @alloc_f92af4da719a0d18020e7c3499b0a575, [16 x i8] c"j\00\00\00\00\00\00\00S\01\00\00\15\00\00\00" }>, align 8
@alloc_181f3aa10dcd930316bdd678a2bd8bee = private unnamed_addr constant <{ ptr, [16 x i8] }> <{ ptr @alloc_f92af4da719a0d18020e7c3499b0a575, [16 x i8] c"j\00\00\00\00\00\00\00T\01\00\00'\00\00\00" }>, align 8
@alloc_97c829af112064ab7ee67cc7e4865218 = private unnamed_addr constant <{ [105 x i8] }> <{ [105 x i8] c"/Users/yaw/.cargo/registry/src/index.crates.io-6f17d22bba15001f/compiler_builtins-0.1.91/src/float/mod.rs" }>, align 1
@alloc_e6a415220d5b1bb9f8983d4fe1e4109c = private unnamed_addr constant <{ ptr, [16 x i8] }> <{ ptr @alloc_97c829af112064ab7ee67cc7e4865218, [16 x i8] c"i\00\00\00\00\00\00\00\AE\00\00\00\01\00\00\00" }>, align 8
@alloc_017138a1cc8d7c8c05077e4909cbefcc = private unnamed_addr constant <{ ptr, [16 x i8] }> <{ ptr @alloc_97c829af112064ab7ee67cc7e4865218, [16 x i8] c"i\00\00\00\00\00\00\00\AF\00\00\00\01\00\00\00" }>, align 8
@alloc_ebf7ae94714dfe60aa22f3fd7f7734f2 = private unnamed_addr constant <{ [123 x i8] }> <{ [123 x i8] c"/Users/yaw/.cargo/registry/src/index.crates.io-6f17d22bba15001f/compiler_builtins-0.1.91/src/int/specialized_div_rem/mod.rs" }>, align 1
@alloc_ac345f8d92bf3f4e4290324a09118699 = private unnamed_addr constant <{ ptr, [16 x i8] }> <{ ptr @alloc_ebf7ae94714dfe60aa22f3fd7f7734f2, [16 x i8] c"{\00\00\00\00\00\00\00j\00\00\00\01\00\00\00" }>, align 8
@alloc_22fa29404490fa52779c8766e69317a4 = private unnamed_addr constant <{ ptr, [16 x i8] }> <{ ptr @alloc_ebf7ae94714dfe60aa22f3fd7f7734f2, [16 x i8] c"{\00\00\00\00\00\00\00r\00\00\00\01\00\00\00" }>, align 8
@alloc_a26b170ddb62bbae9f83f6ebca6e668c = private unnamed_addr constant <{ ptr, [16 x i8] }> <{ ptr @alloc_ebf7ae94714dfe60aa22f3fd7f7734f2, [16 x i8] c"{\00\00\00\00\00\00\00\CB\00\00\00\01\00\00\00" }>, align 8
@alloc_9462df852d518f39b79601a01b3c5789 = private unnamed_addr constant <{ ptr, [16 x i8] }> <{ ptr @alloc_ebf7ae94714dfe60aa22f3fd7f7734f2, [16 x i8] c"{\00\00\00\00\00\00\00\FB\00\00\00\01\00\00\00" }>, align 8
@alloc_9717f891a8180c6ce819defb681209d1 = private unnamed_addr constant <{ ptr, [16 x i8] }> <{ ptr @alloc_ebf7ae94714dfe60aa22f3fd7f7734f2, [16 x i8] c"{\00\00\00\00\00\00\00.\01\00\00\01\00\00\00" }>, align 8
@alloc_415c6685e666c0ec43bf2c0ae4fb0fa8 = private unnamed_addr constant <{ [113 x i8] }> <{ [113 x i8] c"/Users/yaw/.cargo/registry/src/index.crates.io-6f17d22bba15001f/compiler_builtins-0.1.91/src/int/leading_zeros.rs" }>, align 1
@alloc_6c4e2680ee49a90432f69af9cae38d41 = private unnamed_addr constant <{ ptr, [16 x i8] }> <{ ptr @alloc_415c6685e666c0ec43bf2c0ae4fb0fa8, [16 x i8] c"q\00\00\00\00\00\00\00\1A\00\00\00\0D\00\00\00" }>, align 8
@alloc_e41f38cf91c4b24c0065418403dd992c = private unnamed_addr constant <{ ptr, [16 x i8] }> <{ ptr @alloc_415c6685e666c0ec43bf2c0ae4fb0fa8, [16 x i8] c"q\00\00\00\00\00\00\00\22\00\00\00\0D\00\00\00" }>, align 8
@alloc_1d0011507f4c725936bcfac6ad63dc30 = private unnamed_addr constant <{ ptr, [16 x i8] }> <{ ptr @alloc_415c6685e666c0ec43bf2c0ae4fb0fa8, [16 x i8] c"q\00\00\00\00\00\00\00(\00\00\00\09\00\00\00" }>, align 8
@alloc_51dc247ff7ff67e8dd5045a23186292c = private unnamed_addr constant <{ ptr, [16 x i8] }> <{ ptr @alloc_415c6685e666c0ec43bf2c0ae4fb0fa8, [16 x i8] c"q\00\00\00\00\00\00\00-\00\00\00\09\00\00\00" }>, align 8
@alloc_f4704ebb2c24f84629b674e0971868d4 = private unnamed_addr constant <{ ptr, [16 x i8] }> <{ ptr @alloc_415c6685e666c0ec43bf2c0ae4fb0fa8, [16 x i8] c"q\00\00\00\00\00\00\002\00\00\00\09\00\00\00" }>, align 8
@alloc_57733e7c0e4b2fd84a1366f42530b090 = private unnamed_addr constant <{ ptr, [16 x i8] }> <{ ptr @alloc_415c6685e666c0ec43bf2c0ae4fb0fa8, [16 x i8] c"q\00\00\00\00\00\00\008\00\00\00\09\00\00\00" }>, align 8
@alloc_2cd8d29cee5037b331f605a179f96b72 = private unnamed_addr constant <{ ptr, [16 x i8] }> <{ ptr @alloc_415c6685e666c0ec43bf2c0ae4fb0fa8, [16 x i8] c"q\00\00\00\00\00\00\00:\00\00\00\09\00\00\00" }>, align 8
@alloc_93ec6ca3ab85630344c7b1c621ab4756 = private unnamed_addr constant <{ ptr, [16 x i8] }> <{ ptr @alloc_415c6685e666c0ec43bf2c0ae4fb0fa8, [16 x i8] c"q\00\00\00\00\00\00\00i\00\00\00\09\00\00\00" }>, align 8
@alloc_91aa22091ad20d323e0334647b0d566e = private unnamed_addr constant <{ ptr, [16 x i8] }> <{ ptr @alloc_415c6685e666c0ec43bf2c0ae4fb0fa8, [16 x i8] c"q\00\00\00\00\00\00\00l\00\00\00\09\00\00\00" }>, align 8
@alloc_61e5759bb7bcd80558f688f24226926e = private unnamed_addr constant <{ ptr, [16 x i8] }> <{ ptr @alloc_415c6685e666c0ec43bf2c0ae4fb0fa8, [16 x i8] c"q\00\00\00\00\00\00\00q\00\00\00\09\00\00\00" }>, align 8
@alloc_544440b98a240a9784c5a5ce70196780 = private unnamed_addr constant <{ ptr, [16 x i8] }> <{ ptr @alloc_415c6685e666c0ec43bf2c0ae4fb0fa8, [16 x i8] c"q\00\00\00\00\00\00\00r\00\00\00\09\00\00\00" }>, align 8
@alloc_abf4bd510717d66f2bb8cb86c96c3020 = private unnamed_addr constant <{ ptr, [16 x i8] }> <{ ptr @alloc_415c6685e666c0ec43bf2c0ae4fb0fa8, [16 x i8] c"q\00\00\00\00\00\00\00u\00\00\00\05\00\00\00" }>, align 8
@alloc_1a73e575b09847b5f142a9e2145d3ae8 = private unnamed_addr constant <{ ptr, [16 x i8] }> <{ ptr @alloc_415c6685e666c0ec43bf2c0ae4fb0fa8, [16 x i8] c"q\00\00\00\00\00\00\00v\00\00\00\05\00\00\00" }>, align 8
@alloc_14cd33157488ffc608dd67e7ee097a4a = private unnamed_addr constant <{ ptr, [16 x i8] }> <{ ptr @alloc_415c6685e666c0ec43bf2c0ae4fb0fa8, [16 x i8] c"q\00\00\00\00\00\00\00x\00\00\00\05\00\00\00" }>, align 8
@alloc_89beb53a96a3968b5e057c23ffee10f5 = private unnamed_addr constant <{ ptr, [16 x i8] }> <{ ptr @alloc_415c6685e666c0ec43bf2c0ae4fb0fa8, [16 x i8] c"q\00\00\00\00\00\00\00y\00\00\00\05\00\00\00" }>, align 8
@alloc_c20c4f23f50a7749b5362615bcfcbcfd = private unnamed_addr constant <{ ptr, [16 x i8] }> <{ ptr @alloc_415c6685e666c0ec43bf2c0ae4fb0fa8, [16 x i8] c"q\00\00\00\00\00\00\00{\00\00\00\05\00\00\00" }>, align 8
@alloc_5c0390feb2eeb63ea6422dc75b8caaab = private unnamed_addr constant <{ ptr, [16 x i8] }> <{ ptr @alloc_415c6685e666c0ec43bf2c0ae4fb0fa8, [16 x i8] c"q\00\00\00\00\00\00\00|\00\00\00\05\00\00\00" }>, align 8
@alloc_af6d36fbbc1b149c058d351c35a160ea = private unnamed_addr constant <{ ptr, [16 x i8] }> <{ ptr @alloc_415c6685e666c0ec43bf2c0ae4fb0fa8, [16 x i8] c"q\00\00\00\00\00\00\00~\00\00\00\05\00\00\00" }>, align 8
@alloc_882dc93b0f0075a7540f0aa13ea2abc0 = private unnamed_addr constant <{ ptr, [16 x i8] }> <{ ptr @alloc_415c6685e666c0ec43bf2c0ae4fb0fa8, [16 x i8] c"q\00\00\00\00\00\00\00\7F\00\00\00\05\00\00\00" }>, align 8
@alloc_0861a54d74ab02073c20c3c10ec2651a = private unnamed_addr constant <{ ptr, [16 x i8] }> <{ ptr @alloc_415c6685e666c0ec43bf2c0ae4fb0fa8, [16 x i8] c"q\00\00\00\00\00\00\00\82\00\00\00\05\00\00\00" }>, align 8

; <u32 as core::ops::bit::Shl>::shl
; Function Attrs: inlinehint noredzone nounwind
define internal i32 @"_ZN43_$LT$u32$u20$as$u20$core..ops..bit..Shl$GT$3shl17h3056ef600c88a318E"(i32 %self, i32 %other) unnamed_addr #0 !dbg !43 {
start:
  %other.dbg.spill = alloca i32, align 4
  %self.dbg.spill = alloca i32, align 4
  store i32 %self, ptr %self.dbg.spill, align 4
  call void @llvm.dbg.declare(metadata ptr %self.dbg.spill, metadata !53, metadata !DIExpression()), !dbg !56
  store i32 %other, ptr %other.dbg.spill, align 4
  call void @llvm.dbg.declare(metadata ptr %other.dbg.spill, metadata !54, metadata !DIExpression()), !dbg !57
  %_3 = icmp ult i32 %other, 32, !dbg !58
  %0 = call i1 @llvm.expect.i1(i1 %_3, i1 true), !dbg !58
  br i1 %0, label %bb1, label %panic, !dbg !58

bb1:                                              ; preds = %start
  %1 = and i32 %other, 31, !dbg !58
  %2 = shl i32 %self, %1, !dbg !58
  ret i32 %2, !dbg !59

panic:                                            ; preds = %start
; call core::panicking::panic
  call void @_ZN4core9panicking5panic17h277234a6cd982fe5E(ptr align 1 @str.0, i64 35, ptr align 8 @alloc_0fded4d8d8e6bbd9c8c16895ebaa736f) #7, !dbg !58
  unreachable, !dbg !58
}

; <u32 as core::ops::bit::Shr>::shr
; Function Attrs: inlinehint noredzone nounwind
define internal i32 @"_ZN43_$LT$u32$u20$as$u20$core..ops..bit..Shr$GT$3shr17h7ba7ab9f4c49610aE"(i32 %self, i32 %other) unnamed_addr #0 !dbg !60 {
start:
  %other.dbg.spill = alloca i32, align 4
  %self.dbg.spill = alloca i32, align 4
  store i32 %self, ptr %self.dbg.spill, align 4
  call void @llvm.dbg.declare(metadata ptr %self.dbg.spill, metadata !63, metadata !DIExpression()), !dbg !65
  store i32 %other, ptr %other.dbg.spill, align 4
  call void @llvm.dbg.declare(metadata ptr %other.dbg.spill, metadata !64, metadata !DIExpression()), !dbg !66
  %_3 = icmp ult i32 %other, 32, !dbg !67
  %0 = call i1 @llvm.expect.i1(i1 %_3, i1 true), !dbg !67
  br i1 %0, label %bb1, label %panic, !dbg !67

bb1:                                              ; preds = %start
  %1 = and i32 %other, 31, !dbg !67
  %2 = lshr i32 %self, %1, !dbg !67
  ret i32 %2, !dbg !68

panic:                                            ; preds = %start
; call core::panicking::panic
  call void @_ZN4core9panicking5panic17h277234a6cd982fe5E(ptr align 1 @str.1, i64 36, ptr align 8 @alloc_2b4de3d987e5e10473ab9ad6d39dd80a) #7, !dbg !67
  unreachable, !dbg !67
}

; <u128 as core::ops::bit::Not>::not
; Function Attrs: inlinehint noredzone nounwind
define internal i128 @"_ZN44_$LT$u128$u20$as$u20$core..ops..bit..Not$GT$3not17h6e0ccbfce3a32929E"(i128 %self) unnamed_addr #0 !dbg !69 {
start:
  %self.dbg.spill = alloca i128, align 8
  store i128 %self, ptr %self.dbg.spill, align 8
  call void @llvm.dbg.declare(metadata ptr %self.dbg.spill, metadata !75, metadata !DIExpression()), !dbg !76
  %0 = xor i128 %self, -1, !dbg !77
  ret i128 %0, !dbg !78
}

; <u8 as core::ops::bit::BitOr>::bitor
; Function Attrs: inlinehint noredzone nounwind
define internal i8 @"_ZN44_$LT$u8$u20$as$u20$core..ops..bit..BitOr$GT$5bitor17h0c79410606b6efb5E"(i8 %self, i8 %rhs) unnamed_addr #0 !dbg !79 {
start:
  %rhs.dbg.spill = alloca i8, align 1
  %self.dbg.spill = alloca i8, align 1
  store i8 %self, ptr %self.dbg.spill, align 1
  call void @llvm.dbg.declare(metadata ptr %self.dbg.spill, metadata !84, metadata !DIExpression()), !dbg !86
  store i8 %rhs, ptr %rhs.dbg.spill, align 1
  call void @llvm.dbg.declare(metadata ptr %rhs.dbg.spill, metadata !85, metadata !DIExpression()), !dbg !87
  %0 = or i8 %self, %rhs, !dbg !88
  ret i8 %0, !dbg !89
}

; <f32 as core::ops::arith::Div>::div
; Function Attrs: inlinehint noredzone nounwind
define internal float @"_ZN45_$LT$f32$u20$as$u20$core..ops..arith..Div$GT$3div17hed97d1dc4bf96d8fE"(float %self, float %other) unnamed_addr #0 !dbg !90 {
start:
  %other.dbg.spill = alloca float, align 4
  %self.dbg.spill = alloca float, align 4
  store float %self, ptr %self.dbg.spill, align 4
  call void @llvm.dbg.declare(metadata ptr %self.dbg.spill, metadata !98, metadata !DIExpression()), !dbg !100
  store float %other, ptr %other.dbg.spill, align 4
  call void @llvm.dbg.declare(metadata ptr %other.dbg.spill, metadata !99, metadata !DIExpression()), !dbg !101
  %0 = fdiv float %self, %other, !dbg !102
  ret float %0, !dbg !103
}

; <f64 as core::ops::arith::Div>::div
; Function Attrs: inlinehint noredzone nounwind
define internal double @"_ZN45_$LT$f64$u20$as$u20$core..ops..arith..Div$GT$3div17h110e589226d870dbE"(double %self, double %other) unnamed_addr #0 !dbg !104 {
start:
  %other.dbg.spill = alloca double, align 8
  %self.dbg.spill = alloca double, align 8
  store double %self, ptr %self.dbg.spill, align 8
  call void @llvm.dbg.declare(metadata ptr %self.dbg.spill, metadata !109, metadata !DIExpression()), !dbg !111
  store double %other, ptr %other.dbg.spill, align 8
  call void @llvm.dbg.declare(metadata ptr %other.dbg.spill, metadata !110, metadata !DIExpression()), !dbg !112
  %0 = fdiv double %self, %other, !dbg !113
  ret double %0, !dbg !114
}

; <i16 as core::ops::bit::BitOr>::bitor
; Function Attrs: inlinehint noredzone nounwind
define internal i16 @"_ZN45_$LT$i16$u20$as$u20$core..ops..bit..BitOr$GT$5bitor17h432bff29ccff2e1fE"(i16 %self, i16 %rhs) unnamed_addr #0 !dbg !115 {
start:
  %rhs.dbg.spill = alloca i16, align 2
  %self.dbg.spill = alloca i16, align 2
  store i16 %self, ptr %self.dbg.spill, align 2
  call void @llvm.dbg.declare(metadata ptr %self.dbg.spill, metadata !121, metadata !DIExpression()), !dbg !123
  store i16 %rhs, ptr %rhs.dbg.spill, align 2
  call void @llvm.dbg.declare(metadata ptr %rhs.dbg.spill, metadata !122, metadata !DIExpression()), !dbg !124
  %0 = or i16 %self, %rhs, !dbg !125
  ret i16 %0, !dbg !126
}

; <i32 as core::ops::bit::BitOr>::bitor
; Function Attrs: inlinehint noredzone nounwind
define internal i32 @"_ZN45_$LT$i32$u20$as$u20$core..ops..bit..BitOr$GT$5bitor17hbad9f7eae9ff2cdcE"(i32 %self, i32 %rhs) unnamed_addr #0 !dbg !127 {
start:
  %rhs.dbg.spill = alloca i32, align 4
  %self.dbg.spill = alloca i32, align 4
  store i32 %self, ptr %self.dbg.spill, align 4
  call void @llvm.dbg.declare(metadata ptr %self.dbg.spill, metadata !133, metadata !DIExpression()), !dbg !135
  store i32 %rhs, ptr %rhs.dbg.spill, align 4
  call void @llvm.dbg.declare(metadata ptr %rhs.dbg.spill, metadata !134, metadata !DIExpression()), !dbg !136
  %0 = or i32 %self, %rhs, !dbg !137
  ret i32 %0, !dbg !138
}

; <i64 as core::ops::bit::BitOr>::bitor
; Function Attrs: inlinehint noredzone nounwind
define internal i64 @"_ZN45_$LT$i64$u20$as$u20$core..ops..bit..BitOr$GT$5bitor17h11f1c9eff6444db1E"(i64 %self, i64 %rhs) unnamed_addr #0 !dbg !139 {
start:
  %rhs.dbg.spill = alloca i64, align 8
  %self.dbg.spill = alloca i64, align 8
  store i64 %self, ptr %self.dbg.spill, align 8
  call void @llvm.dbg.declare(metadata ptr %self.dbg.spill, metadata !145, metadata !DIExpression()), !dbg !147
  store i64 %rhs, ptr %rhs.dbg.spill, align 8
  call void @llvm.dbg.declare(metadata ptr %rhs.dbg.spill, metadata !146, metadata !DIExpression()), !dbg !148
  %0 = or i64 %self, %rhs, !dbg !149
  ret i64 %0, !dbg !150
}

; <u16 as core::ops::bit::BitOr>::bitor
; Function Attrs: inlinehint noredzone nounwind
define internal i16 @"_ZN45_$LT$u16$u20$as$u20$core..ops..bit..BitOr$GT$5bitor17h7e6fd7cfb0a1b343E"(i16 %self, i16 %rhs) unnamed_addr #0 !dbg !151 {
start:
  %rhs.dbg.spill = alloca i16, align 2
  %self.dbg.spill = alloca i16, align 2
  store i16 %self, ptr %self.dbg.spill, align 2
  call void @llvm.dbg.declare(metadata ptr %self.dbg.spill, metadata !157, metadata !DIExpression()), !dbg !159
  store i16 %rhs, ptr %rhs.dbg.spill, align 2
  call void @llvm.dbg.declare(metadata ptr %rhs.dbg.spill, metadata !158, metadata !DIExpression()), !dbg !160
  %0 = or i16 %self, %rhs, !dbg !161
  ret i16 %0, !dbg !162
}

; <u32 as core::ops::arith::Sub>::sub
; Function Attrs: inlinehint noredzone nounwind
define internal i32 @"_ZN45_$LT$u32$u20$as$u20$core..ops..arith..Sub$GT$3sub17hb179b4cadace50c6E"(i32 %self, i32 %other) unnamed_addr #0 !dbg !163 {
start:
  %other.dbg.spill = alloca i32, align 4
  %self.dbg.spill = alloca i32, align 4
  store i32 %self, ptr %self.dbg.spill, align 4
  call void @llvm.dbg.declare(metadata ptr %self.dbg.spill, metadata !166, metadata !DIExpression()), !dbg !168
  store i32 %other, ptr %other.dbg.spill, align 4
  call void @llvm.dbg.declare(metadata ptr %other.dbg.spill, metadata !167, metadata !DIExpression()), !dbg !169
  %_3.0 = sub i32 %self, %other, !dbg !170
  %_3.1 = icmp ult i32 %self, %other, !dbg !170
  %0 = call i1 @llvm.expect.i1(i1 %_3.1, i1 false), !dbg !170
  br i1 %0, label %panic, label %bb1, !dbg !170

bb1:                                              ; preds = %start
  ret i32 %_3.0, !dbg !171

panic:                                            ; preds = %start
; call core::panicking::panic
  call void @_ZN4core9panicking5panic17h277234a6cd982fe5E(ptr align 1 @str.2, i64 33, ptr align 8 @alloc_52ae69683ffdaf9e9b3e18d588029bbc) #7, !dbg !170
  unreachable, !dbg !170
}

; <u32 as core::ops::bit::BitOr>::bitor
; Function Attrs: inlinehint noredzone nounwind
define internal i32 @"_ZN45_$LT$u32$u20$as$u20$core..ops..bit..BitOr$GT$5bitor17h075fbcee240c0f99E"(i32 %self, i32 %rhs) unnamed_addr #0 !dbg !172 {
start:
  %rhs.dbg.spill = alloca i32, align 4
  %self.dbg.spill = alloca i32, align 4
  store i32 %self, ptr %self.dbg.spill, align 4
  call void @llvm.dbg.declare(metadata ptr %self.dbg.spill, metadata !175, metadata !DIExpression()), !dbg !177
  store i32 %rhs, ptr %rhs.dbg.spill, align 4
  call void @llvm.dbg.declare(metadata ptr %rhs.dbg.spill, metadata !176, metadata !DIExpression()), !dbg !178
  %0 = or i32 %self, %rhs, !dbg !179
  ret i32 %0, !dbg !180
}

; <u64 as core::ops::arith::Sub>::sub
; Function Attrs: inlinehint noredzone nounwind
define internal i64 @"_ZN45_$LT$u64$u20$as$u20$core..ops..arith..Sub$GT$3sub17h608a15b75058ba6eE"(i64 %self, i64 %other) unnamed_addr #0 !dbg !181 {
start:
  %other.dbg.spill = alloca i64, align 8
  %self.dbg.spill = alloca i64, align 8
  store i64 %self, ptr %self.dbg.spill, align 8
  call void @llvm.dbg.declare(metadata ptr %self.dbg.spill, metadata !186, metadata !DIExpression()), !dbg !188
  store i64 %other, ptr %other.dbg.spill, align 8
  call void @llvm.dbg.declare(metadata ptr %other.dbg.spill, metadata !187, metadata !DIExpression()), !dbg !189
  %_3.0 = sub i64 %self, %other, !dbg !190
  %_3.1 = icmp ult i64 %self, %other, !dbg !190
  %0 = call i1 @llvm.expect.i1(i1 %_3.1, i1 false), !dbg !190
  br i1 %0, label %panic, label %bb1, !dbg !190

bb1:                                              ; preds = %start
  ret i64 %_3.0, !dbg !191

panic:                                            ; preds = %start
; call core::panicking::panic
  call void @_ZN4core9panicking5panic17h277234a6cd982fe5E(ptr align 1 @str.2, i64 33, ptr align 8 @alloc_52ae69683ffdaf9e9b3e18d588029bbc) #7, !dbg !190
  unreachable, !dbg !190
}

; <u64 as core::ops::bit::BitOr>::bitor
; Function Attrs: inlinehint noredzone nounwind
define internal i64 @"_ZN45_$LT$u64$u20$as$u20$core..ops..bit..BitOr$GT$5bitor17hb811acd98a3a0282E"(i64 %self, i64 %rhs) unnamed_addr #0 !dbg !192 {
start:
  %rhs.dbg.spill = alloca i64, align 8
  %self.dbg.spill = alloca i64, align 8
  store i64 %self, ptr %self.dbg.spill, align 8
  call void @llvm.dbg.declare(metadata ptr %self.dbg.spill, metadata !195, metadata !DIExpression()), !dbg !197
  store i64 %rhs, ptr %rhs.dbg.spill, align 8
  call void @llvm.dbg.declare(metadata ptr %rhs.dbg.spill, metadata !196, metadata !DIExpression()), !dbg !198
  %0 = or i64 %self, %rhs, !dbg !199
  ret i64 %0, !dbg !200
}

; <i32 as core::ops::bit::BitAnd>::bitand
; Function Attrs: inlinehint noredzone nounwind
define internal i32 @"_ZN46_$LT$i32$u20$as$u20$core..ops..bit..BitAnd$GT$6bitand17hce3cde447a2e6e69E"(i32 %self, i32 %rhs) unnamed_addr #0 !dbg !201 {
start:
  %rhs.dbg.spill = alloca i32, align 4
  %self.dbg.spill = alloca i32, align 4
  store i32 %self, ptr %self.dbg.spill, align 4
  call void @llvm.dbg.declare(metadata ptr %self.dbg.spill, metadata !204, metadata !DIExpression()), !dbg !206
  store i32 %rhs, ptr %rhs.dbg.spill, align 4
  call void @llvm.dbg.declare(metadata ptr %rhs.dbg.spill, metadata !205, metadata !DIExpression()), !dbg !207
  %0 = and i32 %self, %rhs, !dbg !208
  ret i32 %0, !dbg !209
}

; <i64 as core::ops::bit::BitAnd>::bitand
; Function Attrs: inlinehint noredzone nounwind
define internal i64 @"_ZN46_$LT$i64$u20$as$u20$core..ops..bit..BitAnd$GT$6bitand17h3cfdc9dceebc6225E"(i64 %self, i64 %rhs) unnamed_addr #0 !dbg !210 {
start:
  %rhs.dbg.spill = alloca i64, align 8
  %self.dbg.spill = alloca i64, align 8
  store i64 %self, ptr %self.dbg.spill, align 8
  call void @llvm.dbg.declare(metadata ptr %self.dbg.spill, metadata !213, metadata !DIExpression()), !dbg !215
  store i64 %rhs, ptr %rhs.dbg.spill, align 8
  call void @llvm.dbg.declare(metadata ptr %rhs.dbg.spill, metadata !214, metadata !DIExpression()), !dbg !216
  %0 = and i64 %self, %rhs, !dbg !217
  ret i64 %0, !dbg !218
}

; <u32 as core::ops::bit::BitAnd>::bitand
; Function Attrs: inlinehint noredzone nounwind
define internal i32 @"_ZN46_$LT$u32$u20$as$u20$core..ops..bit..BitAnd$GT$6bitand17h408474f9e34e2f83E"(i32 %self, i32 %rhs) unnamed_addr #0 !dbg !219 {
start:
  %rhs.dbg.spill = alloca i32, align 4
  %self.dbg.spill = alloca i32, align 4
  store i32 %self, ptr %self.dbg.spill, align 4
  call void @llvm.dbg.declare(metadata ptr %self.dbg.spill, metadata !222, metadata !DIExpression()), !dbg !224
  store i32 %rhs, ptr %rhs.dbg.spill, align 4
  call void @llvm.dbg.declare(metadata ptr %rhs.dbg.spill, metadata !223, metadata !DIExpression()), !dbg !225
  %0 = and i32 %self, %rhs, !dbg !226
  ret i32 %0, !dbg !227
}

; <u32 as core::ops::bit::BitXor>::bitxor
; Function Attrs: inlinehint noredzone nounwind
define internal i32 @"_ZN46_$LT$u32$u20$as$u20$core..ops..bit..BitXor$GT$6bitxor17h9f982d086a1329abE"(i32 %self, i32 %other) unnamed_addr #0 !dbg !228 {
start:
  %other.dbg.spill = alloca i32, align 4
  %self.dbg.spill = alloca i32, align 4
  store i32 %self, ptr %self.dbg.spill, align 4
  call void @llvm.dbg.declare(metadata ptr %self.dbg.spill, metadata !231, metadata !DIExpression()), !dbg !233
  store i32 %other, ptr %other.dbg.spill, align 4
  call void @llvm.dbg.declare(metadata ptr %other.dbg.spill, metadata !232, metadata !DIExpression()), !dbg !234
  %0 = xor i32 %self, %other, !dbg !235
  ret i32 %0, !dbg !236
}

; <u64 as core::ops::bit::BitAnd>::bitand
; Function Attrs: inlinehint noredzone nounwind
define internal i64 @"_ZN46_$LT$u64$u20$as$u20$core..ops..bit..BitAnd$GT$6bitand17h599812c30472cec0E"(i64 %self, i64 %rhs) unnamed_addr #0 !dbg !237 {
start:
  %rhs.dbg.spill = alloca i64, align 8
  %self.dbg.spill = alloca i64, align 8
  store i64 %self, ptr %self.dbg.spill, align 8
  call void @llvm.dbg.declare(metadata ptr %self.dbg.spill, metadata !240, metadata !DIExpression()), !dbg !242
  store i64 %rhs, ptr %rhs.dbg.spill, align 8
  call void @llvm.dbg.declare(metadata ptr %rhs.dbg.spill, metadata !241, metadata !DIExpression()), !dbg !243
  %0 = and i64 %self, %rhs, !dbg !244
  ret i64 %0, !dbg !245
}

; <u64 as core::ops::bit::BitXor>::bitxor
; Function Attrs: inlinehint noredzone nounwind
define internal i64 @"_ZN46_$LT$u64$u20$as$u20$core..ops..bit..BitXor$GT$6bitxor17h9a8310a5fd703d16E"(i64 %self, i64 %other) unnamed_addr #0 !dbg !246 {
start:
  %other.dbg.spill = alloca i64, align 8
  %self.dbg.spill = alloca i64, align 8
  store i64 %self, ptr %self.dbg.spill, align 8
  call void @llvm.dbg.declare(metadata ptr %self.dbg.spill, metadata !249, metadata !DIExpression()), !dbg !251
  store i64 %other, ptr %other.dbg.spill, align 8
  call void @llvm.dbg.declare(metadata ptr %other.dbg.spill, metadata !250, metadata !DIExpression()), !dbg !252
  %0 = xor i64 %self, %other, !dbg !253
  ret i64 %0, !dbg !254
}

; <u32 as core::ops::bit::ShrAssign>::shr_assign
; Function Attrs: inlinehint noredzone nounwind
define internal void @"_ZN49_$LT$u32$u20$as$u20$core..ops..bit..ShrAssign$GT$10shr_assign17h8ca6ef80a7db5325E"(ptr align 4 %self, i32 %other) unnamed_addr #0 !dbg !255 {
start:
  %other.dbg.spill = alloca i32, align 4
  %self.dbg.spill = alloca ptr, align 8
  store ptr %self, ptr %self.dbg.spill, align 8
  call void @llvm.dbg.declare(metadata ptr %self.dbg.spill, metadata !261, metadata !DIExpression()), !dbg !263
  store i32 %other, ptr %other.dbg.spill, align 4
  call void @llvm.dbg.declare(metadata ptr %other.dbg.spill, metadata !262, metadata !DIExpression()), !dbg !264
  %_3 = icmp ult i32 %other, 32, !dbg !265
  %0 = call i1 @llvm.expect.i1(i1 %_3, i1 true), !dbg !265
  br i1 %0, label %bb1, label %panic, !dbg !265

bb1:                                              ; preds = %start
  %1 = load i32, ptr %self, align 4, !dbg !265, !noundef !55
  %2 = and i32 %other, 31, !dbg !265
  %3 = lshr i32 %1, %2, !dbg !265
  store i32 %3, ptr %self, align 4, !dbg !265
  ret void, !dbg !266

panic:                                            ; preds = %start
; call core::panicking::panic
  call void @_ZN4core9panicking5panic17h277234a6cd982fe5E(ptr align 1 @str.1, i64 36, ptr align 8 @alloc_dcb00abf057bf3a126f5d228d8e98222) #7, !dbg !265
  unreachable, !dbg !265
}

; core::cmp::impls::<impl core::cmp::PartialEq for i32>::eq
; Function Attrs: inlinehint noredzone nounwind
define internal zeroext i1 @"_ZN4core3cmp5impls54_$LT$impl$u20$core..cmp..PartialEq$u20$for$u20$i32$GT$2eq17h70caff546f2e900aE"(ptr align 4 %self, ptr align 4 %other) unnamed_addr #0 !dbg !267 {
start:
  %other.dbg.spill = alloca ptr, align 8
  %self.dbg.spill = alloca ptr, align 8
  store ptr %self, ptr %self.dbg.spill, align 8
  call void @llvm.dbg.declare(metadata ptr %self.dbg.spill, metadata !277, metadata !DIExpression()), !dbg !279
  store ptr %other, ptr %other.dbg.spill, align 8
  call void @llvm.dbg.declare(metadata ptr %other.dbg.spill, metadata !278, metadata !DIExpression()), !dbg !280
  %_3 = load i32, ptr %self, align 4, !dbg !281, !noundef !55
  %_4 = load i32, ptr %other, align 4, !dbg !282, !noundef !55
  %0 = icmp eq i32 %_3, %_4, !dbg !281
  ret i1 %0, !dbg !283
}

; core::cmp::impls::<impl core::cmp::PartialEq for i64>::eq
; Function Attrs: inlinehint noredzone nounwind
define internal zeroext i1 @"_ZN4core3cmp5impls54_$LT$impl$u20$core..cmp..PartialEq$u20$for$u20$i64$GT$2eq17hf2e557e93f56c7fdE"(ptr align 8 %self, ptr align 8 %other) unnamed_addr #0 !dbg !284 {
start:
  %other.dbg.spill = alloca ptr, align 8
  %self.dbg.spill = alloca ptr, align 8
  store ptr %self, ptr %self.dbg.spill, align 8
  call void @llvm.dbg.declare(metadata ptr %self.dbg.spill, metadata !290, metadata !DIExpression()), !dbg !292
  store ptr %other, ptr %other.dbg.spill, align 8
  call void @llvm.dbg.declare(metadata ptr %other.dbg.spill, metadata !291, metadata !DIExpression()), !dbg !293
  %_3 = load i64, ptr %self, align 8, !dbg !294, !noundef !55
  %_4 = load i64, ptr %other, align 8, !dbg !295, !noundef !55
  %0 = icmp eq i64 %_3, %_4, !dbg !294
  ret i1 %0, !dbg !296
}

; core::cmp::impls::<impl core::cmp::PartialEq for u16>::ne
; Function Attrs: inlinehint noredzone nounwind
define internal zeroext i1 @"_ZN4core3cmp5impls54_$LT$impl$u20$core..cmp..PartialEq$u20$for$u20$u16$GT$2ne17hf002716d7c782140E"(ptr align 2 %self, ptr align 2 %other) unnamed_addr #0 !dbg !297 {
start:
  %other.dbg.spill = alloca ptr, align 8
  %self.dbg.spill = alloca ptr, align 8
  store ptr %self, ptr %self.dbg.spill, align 8
  call void @llvm.dbg.declare(metadata ptr %self.dbg.spill, metadata !303, metadata !DIExpression()), !dbg !305
  store ptr %other, ptr %other.dbg.spill, align 8
  call void @llvm.dbg.declare(metadata ptr %other.dbg.spill, metadata !304, metadata !DIExpression()), !dbg !306
  %_3 = load i16, ptr %self, align 2, !dbg !307, !noundef !55
  %_4 = load i16, ptr %other, align 2, !dbg !308, !noundef !55
  %0 = icmp ne i16 %_3, %_4, !dbg !307
  ret i1 %0, !dbg !309
}

; core::cmp::impls::<impl core::cmp::PartialEq for u32>::eq
; Function Attrs: inlinehint noredzone nounwind
define internal zeroext i1 @"_ZN4core3cmp5impls54_$LT$impl$u20$core..cmp..PartialEq$u20$for$u20$u32$GT$2eq17hbd9fdfc373f82dd0E"(ptr align 4 %self, ptr align 4 %other) unnamed_addr #0 !dbg !310 {
start:
  %other.dbg.spill = alloca ptr, align 8
  %self.dbg.spill = alloca ptr, align 8
  store ptr %self, ptr %self.dbg.spill, align 8
  call void @llvm.dbg.declare(metadata ptr %self.dbg.spill, metadata !316, metadata !DIExpression()), !dbg !318
  store ptr %other, ptr %other.dbg.spill, align 8
  call void @llvm.dbg.declare(metadata ptr %other.dbg.spill, metadata !317, metadata !DIExpression()), !dbg !319
  %_3 = load i32, ptr %self, align 4, !dbg !320, !noundef !55
  %_4 = load i32, ptr %other, align 4, !dbg !321, !noundef !55
  %0 = icmp eq i32 %_3, %_4, !dbg !320
  ret i1 %0, !dbg !322
}

; core::cmp::impls::<impl core::cmp::PartialEq for u32>::ne
; Function Attrs: inlinehint noredzone nounwind
define internal zeroext i1 @"_ZN4core3cmp5impls54_$LT$impl$u20$core..cmp..PartialEq$u20$for$u20$u32$GT$2ne17hb5e1dd1d0be3231eE"(ptr align 4 %self, ptr align 4 %other) unnamed_addr #0 !dbg !323 {
start:
  %other.dbg.spill = alloca ptr, align 8
  %self.dbg.spill = alloca ptr, align 8
  store ptr %self, ptr %self.dbg.spill, align 8
  call void @llvm.dbg.declare(metadata ptr %self.dbg.spill, metadata !325, metadata !DIExpression()), !dbg !327
  store ptr %other, ptr %other.dbg.spill, align 8
  call void @llvm.dbg.declare(metadata ptr %other.dbg.spill, metadata !326, metadata !DIExpression()), !dbg !328
  %_3 = load i32, ptr %self, align 4, !dbg !329, !noundef !55
  %_4 = load i32, ptr %other, align 4, !dbg !330, !noundef !55
  %0 = icmp ne i32 %_3, %_4, !dbg !329
  ret i1 %0, !dbg !331
}

; core::cmp::impls::<impl core::cmp::PartialEq for u64>::eq
; Function Attrs: inlinehint noredzone nounwind
define internal zeroext i1 @"_ZN4core3cmp5impls54_$LT$impl$u20$core..cmp..PartialEq$u20$for$u20$u64$GT$2eq17hacd23e06e23a5367E"(ptr align 8 %self, ptr align 8 %other) unnamed_addr #0 !dbg !332 {
start:
  %other.dbg.spill = alloca ptr, align 8
  %self.dbg.spill = alloca ptr, align 8
  store ptr %self, ptr %self.dbg.spill, align 8
  call void @llvm.dbg.declare(metadata ptr %self.dbg.spill, metadata !338, metadata !DIExpression()), !dbg !340
  store ptr %other, ptr %other.dbg.spill, align 8
  call void @llvm.dbg.declare(metadata ptr %other.dbg.spill, metadata !339, metadata !DIExpression()), !dbg !341
  %_3 = load i64, ptr %self, align 8, !dbg !342, !noundef !55
  %_4 = load i64, ptr %other, align 8, !dbg !343, !noundef !55
  %0 = icmp eq i64 %_3, %_4, !dbg !342
  ret i1 %0, !dbg !344
}

; core::cmp::impls::<impl core::cmp::PartialEq for u64>::ne
; Function Attrs: inlinehint noredzone nounwind
define internal zeroext i1 @"_ZN4core3cmp5impls54_$LT$impl$u20$core..cmp..PartialEq$u20$for$u20$u64$GT$2ne17h4933a88b82ae7690E"(ptr align 8 %self, ptr align 8 %other) unnamed_addr #0 !dbg !345 {
start:
  %other.dbg.spill = alloca ptr, align 8
  %self.dbg.spill = alloca ptr, align 8
  store ptr %self, ptr %self.dbg.spill, align 8
  call void @llvm.dbg.declare(metadata ptr %self.dbg.spill, metadata !347, metadata !DIExpression()), !dbg !349
  store ptr %other, ptr %other.dbg.spill, align 8
  call void @llvm.dbg.declare(metadata ptr %other.dbg.spill, metadata !348, metadata !DIExpression()), !dbg !350
  %_3 = load i64, ptr %self, align 8, !dbg !351, !noundef !55
  %_4 = load i64, ptr %other, align 8, !dbg !352, !noundef !55
  %0 = icmp ne i64 %_3, %_4, !dbg !351
  ret i1 %0, !dbg !353
}

; core::cmp::impls::<impl core::cmp::PartialEq for u128>::ne
; Function Attrs: inlinehint noredzone nounwind
define internal zeroext i1 @"_ZN4core3cmp5impls55_$LT$impl$u20$core..cmp..PartialEq$u20$for$u20$u128$GT$2ne17h61414b6dd3c13934E"(ptr align 8 %self, ptr align 8 %other) unnamed_addr #0 !dbg !354 {
start:
  %other.dbg.spill = alloca ptr, align 8
  %self.dbg.spill = alloca ptr, align 8
  store ptr %self, ptr %self.dbg.spill, align 8
  call void @llvm.dbg.declare(metadata ptr %self.dbg.spill, metadata !360, metadata !DIExpression()), !dbg !362
  store ptr %other, ptr %other.dbg.spill, align 8
  call void @llvm.dbg.declare(metadata ptr %other.dbg.spill, metadata !361, metadata !DIExpression()), !dbg !363
  %_3 = load i128, ptr %self, align 8, !dbg !364, !noundef !55
  %_4 = load i128, ptr %other, align 8, !dbg !365, !noundef !55
  %0 = icmp ne i128 %_3, %_4, !dbg !364
  ret i1 %0, !dbg !366
}

; core::cmp::impls::<impl core::cmp::PartialOrd for i32>::ge
; Function Attrs: inlinehint noredzone nounwind
define internal zeroext i1 @"_ZN4core3cmp5impls55_$LT$impl$u20$core..cmp..PartialOrd$u20$for$u20$i32$GT$2ge17h8b5c4a8166769577E"(ptr align 4 %self, ptr align 4 %other) unnamed_addr #0 !dbg !367 {
start:
  %other.dbg.spill = alloca ptr, align 8
  %self.dbg.spill = alloca ptr, align 8
  store ptr %self, ptr %self.dbg.spill, align 8
  call void @llvm.dbg.declare(metadata ptr %self.dbg.spill, metadata !370, metadata !DIExpression()), !dbg !372
  store ptr %other, ptr %other.dbg.spill, align 8
  call void @llvm.dbg.declare(metadata ptr %other.dbg.spill, metadata !371, metadata !DIExpression()), !dbg !373
  %_3 = load i32, ptr %self, align 4, !dbg !374, !noundef !55
  %_4 = load i32, ptr %other, align 4, !dbg !375, !noundef !55
  %0 = icmp sge i32 %_3, %_4, !dbg !374
  ret i1 %0, !dbg !376
}

; core::cmp::impls::<impl core::cmp::PartialOrd for i32>::gt
; Function Attrs: inlinehint noredzone nounwind
define internal zeroext i1 @"_ZN4core3cmp5impls55_$LT$impl$u20$core..cmp..PartialOrd$u20$for$u20$i32$GT$2gt17h4a25ce51757895cdE"(ptr align 4 %self, ptr align 4 %other) unnamed_addr #0 !dbg !377 {
start:
  %other.dbg.spill = alloca ptr, align 8
  %self.dbg.spill = alloca ptr, align 8
  store ptr %self, ptr %self.dbg.spill, align 8
  call void @llvm.dbg.declare(metadata ptr %self.dbg.spill, metadata !379, metadata !DIExpression()), !dbg !381
  store ptr %other, ptr %other.dbg.spill, align 8
  call void @llvm.dbg.declare(metadata ptr %other.dbg.spill, metadata !380, metadata !DIExpression()), !dbg !382
  %_3 = load i32, ptr %self, align 4, !dbg !383, !noundef !55
  %_4 = load i32, ptr %other, align 4, !dbg !384, !noundef !55
  %0 = icmp sgt i32 %_3, %_4, !dbg !383
  ret i1 %0, !dbg !385
}

; core::cmp::impls::<impl core::cmp::PartialOrd for i32>::lt
; Function Attrs: inlinehint noredzone nounwind
define internal zeroext i1 @"_ZN4core3cmp5impls55_$LT$impl$u20$core..cmp..PartialOrd$u20$for$u20$i32$GT$2lt17hb0d04db524c6b911E"(ptr align 4 %self, ptr align 4 %other) unnamed_addr #0 !dbg !386 {
start:
  %other.dbg.spill = alloca ptr, align 8
  %self.dbg.spill = alloca ptr, align 8
  store ptr %self, ptr %self.dbg.spill, align 8
  call void @llvm.dbg.declare(metadata ptr %self.dbg.spill, metadata !388, metadata !DIExpression()), !dbg !390
  store ptr %other, ptr %other.dbg.spill, align 8
  call void @llvm.dbg.declare(metadata ptr %other.dbg.spill, metadata !389, metadata !DIExpression()), !dbg !391
  %_3 = load i32, ptr %self, align 4, !dbg !392, !noundef !55
  %_4 = load i32, ptr %other, align 4, !dbg !393, !noundef !55
  %0 = icmp slt i32 %_3, %_4, !dbg !392
  ret i1 %0, !dbg !394
}

; core::cmp::impls::<impl core::cmp::PartialOrd for i64>::ge
; Function Attrs: inlinehint noredzone nounwind
define internal zeroext i1 @"_ZN4core3cmp5impls55_$LT$impl$u20$core..cmp..PartialOrd$u20$for$u20$i64$GT$2ge17h095291eedffd6695E"(ptr align 8 %self, ptr align 8 %other) unnamed_addr #0 !dbg !395 {
start:
  %other.dbg.spill = alloca ptr, align 8
  %self.dbg.spill = alloca ptr, align 8
  store ptr %self, ptr %self.dbg.spill, align 8
  call void @llvm.dbg.declare(metadata ptr %self.dbg.spill, metadata !398, metadata !DIExpression()), !dbg !400
  store ptr %other, ptr %other.dbg.spill, align 8
  call void @llvm.dbg.declare(metadata ptr %other.dbg.spill, metadata !399, metadata !DIExpression()), !dbg !401
  %_3 = load i64, ptr %self, align 8, !dbg !402, !noundef !55
  %_4 = load i64, ptr %other, align 8, !dbg !403, !noundef !55
  %0 = icmp sge i64 %_3, %_4, !dbg !402
  ret i1 %0, !dbg !404
}

; core::cmp::impls::<impl core::cmp::PartialOrd for i64>::gt
; Function Attrs: inlinehint noredzone nounwind
define internal zeroext i1 @"_ZN4core3cmp5impls55_$LT$impl$u20$core..cmp..PartialOrd$u20$for$u20$i64$GT$2gt17ha01f2d64abfebfa3E"(ptr align 8 %self, ptr align 8 %other) unnamed_addr #0 !dbg !405 {
start:
  %other.dbg.spill = alloca ptr, align 8
  %self.dbg.spill = alloca ptr, align 8
  store ptr %self, ptr %self.dbg.spill, align 8
  call void @llvm.dbg.declare(metadata ptr %self.dbg.spill, metadata !407, metadata !DIExpression()), !dbg !409
  store ptr %other, ptr %other.dbg.spill, align 8
  call void @llvm.dbg.declare(metadata ptr %other.dbg.spill, metadata !408, metadata !DIExpression()), !dbg !410
  %_3 = load i64, ptr %self, align 8, !dbg !411, !noundef !55
  %_4 = load i64, ptr %other, align 8, !dbg !412, !noundef !55
  %0 = icmp sgt i64 %_3, %_4, !dbg !411
  ret i1 %0, !dbg !413
}

; core::cmp::impls::<impl core::cmp::PartialOrd for i64>::lt
; Function Attrs: inlinehint noredzone nounwind
define internal zeroext i1 @"_ZN4core3cmp5impls55_$LT$impl$u20$core..cmp..PartialOrd$u20$for$u20$i64$GT$2lt17h4e9b3d99b71bb7e7E"(ptr align 8 %self, ptr align 8 %other) unnamed_addr #0 !dbg !414 {
start:
  %other.dbg.spill = alloca ptr, align 8
  %self.dbg.spill = alloca ptr, align 8
  store ptr %self, ptr %self.dbg.spill, align 8
  call void @llvm.dbg.declare(metadata ptr %self.dbg.spill, metadata !416, metadata !DIExpression()), !dbg !418
  store ptr %other, ptr %other.dbg.spill, align 8
  call void @llvm.dbg.declare(metadata ptr %other.dbg.spill, metadata !417, metadata !DIExpression()), !dbg !419
  %_3 = load i64, ptr %self, align 8, !dbg !420, !noundef !55
  %_4 = load i64, ptr %other, align 8, !dbg !421, !noundef !55
  %0 = icmp slt i64 %_3, %_4, !dbg !420
  ret i1 %0, !dbg !422
}

; core::cmp::impls::<impl core::cmp::PartialOrd for u32>::ge
; Function Attrs: inlinehint noredzone nounwind
define internal zeroext i1 @"_ZN4core3cmp5impls55_$LT$impl$u20$core..cmp..PartialOrd$u20$for$u20$u32$GT$2ge17h5c53a558a15adfe5E"(ptr align 4 %self, ptr align 4 %other) unnamed_addr #0 !dbg !423 {
start:
  %other.dbg.spill = alloca ptr, align 8
  %self.dbg.spill = alloca ptr, align 8
  store ptr %self, ptr %self.dbg.spill, align 8
  call void @llvm.dbg.declare(metadata ptr %self.dbg.spill, metadata !426, metadata !DIExpression()), !dbg !428
  store ptr %other, ptr %other.dbg.spill, align 8
  call void @llvm.dbg.declare(metadata ptr %other.dbg.spill, metadata !427, metadata !DIExpression()), !dbg !429
  %_3 = load i32, ptr %self, align 4, !dbg !430, !noundef !55
  %_4 = load i32, ptr %other, align 4, !dbg !431, !noundef !55
  %0 = icmp uge i32 %_3, %_4, !dbg !430
  ret i1 %0, !dbg !432
}

; core::cmp::impls::<impl core::cmp::PartialOrd for u32>::gt
; Function Attrs: inlinehint noredzone nounwind
define internal zeroext i1 @"_ZN4core3cmp5impls55_$LT$impl$u20$core..cmp..PartialOrd$u20$for$u20$u32$GT$2gt17hfcd32beb3db4c9d4E"(ptr align 4 %self, ptr align 4 %other) unnamed_addr #0 !dbg !433 {
start:
  %other.dbg.spill = alloca ptr, align 8
  %self.dbg.spill = alloca ptr, align 8
  store ptr %self, ptr %self.dbg.spill, align 8
  call void @llvm.dbg.declare(metadata ptr %self.dbg.spill, metadata !435, metadata !DIExpression()), !dbg !437
  store ptr %other, ptr %other.dbg.spill, align 8
  call void @llvm.dbg.declare(metadata ptr %other.dbg.spill, metadata !436, metadata !DIExpression()), !dbg !438
  %_3 = load i32, ptr %self, align 4, !dbg !439, !noundef !55
  %_4 = load i32, ptr %other, align 4, !dbg !440, !noundef !55
  %0 = icmp ugt i32 %_3, %_4, !dbg !439
  ret i1 %0, !dbg !441
}

; core::cmp::impls::<impl core::cmp::PartialOrd for u32>::lt
; Function Attrs: inlinehint noredzone nounwind
define internal zeroext i1 @"_ZN4core3cmp5impls55_$LT$impl$u20$core..cmp..PartialOrd$u20$for$u20$u32$GT$2lt17hc7bbc79fee4665f3E"(ptr align 4 %self, ptr align 4 %other) unnamed_addr #0 !dbg !442 {
start:
  %other.dbg.spill = alloca ptr, align 8
  %self.dbg.spill = alloca ptr, align 8
  store ptr %self, ptr %self.dbg.spill, align 8
  call void @llvm.dbg.declare(metadata ptr %self.dbg.spill, metadata !444, metadata !DIExpression()), !dbg !446
  store ptr %other, ptr %other.dbg.spill, align 8
  call void @llvm.dbg.declare(metadata ptr %other.dbg.spill, metadata !445, metadata !DIExpression()), !dbg !447
  %_3 = load i32, ptr %self, align 4, !dbg !448, !noundef !55
  %_4 = load i32, ptr %other, align 4, !dbg !449, !noundef !55
  %0 = icmp ult i32 %_3, %_4, !dbg !448
  ret i1 %0, !dbg !450
}

; core::cmp::impls::<impl core::cmp::PartialOrd for u64>::ge
; Function Attrs: inlinehint noredzone nounwind
define internal zeroext i1 @"_ZN4core3cmp5impls55_$LT$impl$u20$core..cmp..PartialOrd$u20$for$u20$u64$GT$2ge17h4b27526ae62f6facE"(ptr align 8 %self, ptr align 8 %other) unnamed_addr #0 !dbg !451 {
start:
  %other.dbg.spill = alloca ptr, align 8
  %self.dbg.spill = alloca ptr, align 8
  store ptr %self, ptr %self.dbg.spill, align 8
  call void @llvm.dbg.declare(metadata ptr %self.dbg.spill, metadata !454, metadata !DIExpression()), !dbg !456
  store ptr %other, ptr %other.dbg.spill, align 8
  call void @llvm.dbg.declare(metadata ptr %other.dbg.spill, metadata !455, metadata !DIExpression()), !dbg !457
  %_3 = load i64, ptr %self, align 8, !dbg !458, !noundef !55
  %_4 = load i64, ptr %other, align 8, !dbg !459, !noundef !55
  %0 = icmp uge i64 %_3, %_4, !dbg !458
  ret i1 %0, !dbg !460
}

; core::cmp::impls::<impl core::cmp::PartialOrd for u64>::gt
; Function Attrs: inlinehint noredzone nounwind
define internal zeroext i1 @"_ZN4core3cmp5impls55_$LT$impl$u20$core..cmp..PartialOrd$u20$for$u20$u64$GT$2gt17hfcaadc29729dab19E"(ptr align 8 %self, ptr align 8 %other) unnamed_addr #0 !dbg !461 {
start:
  %other.dbg.spill = alloca ptr, align 8
  %self.dbg.spill = alloca ptr, align 8
  store ptr %self, ptr %self.dbg.spill, align 8
  call void @llvm.dbg.declare(metadata ptr %self.dbg.spill, metadata !463, metadata !DIExpression()), !dbg !465
  store ptr %other, ptr %other.dbg.spill, align 8
  call void @llvm.dbg.declare(metadata ptr %other.dbg.spill, metadata !464, metadata !DIExpression()), !dbg !466
  %_3 = load i64, ptr %self, align 8, !dbg !467, !noundef !55
  %_4 = load i64, ptr %other, align 8, !dbg !468, !noundef !55
  %0 = icmp ugt i64 %_3, %_4, !dbg !467
  ret i1 %0, !dbg !469
}

; core::cmp::impls::<impl core::cmp::PartialOrd for u64>::lt
; Function Attrs: inlinehint noredzone nounwind
define internal zeroext i1 @"_ZN4core3cmp5impls55_$LT$impl$u20$core..cmp..PartialOrd$u20$for$u20$u64$GT$2lt17h489504920ab45e20E"(ptr align 8 %self, ptr align 8 %other) unnamed_addr #0 !dbg !470 {
start:
  %other.dbg.spill = alloca ptr, align 8
  %self.dbg.spill = alloca ptr, align 8
  store ptr %self, ptr %self.dbg.spill, align 8
  call void @llvm.dbg.declare(metadata ptr %self.dbg.spill, metadata !472, metadata !DIExpression()), !dbg !474
  store ptr %other, ptr %other.dbg.spill, align 8
  call void @llvm.dbg.declare(metadata ptr %other.dbg.spill, metadata !473, metadata !DIExpression()), !dbg !475
  %_3 = load i64, ptr %self, align 8, !dbg !476, !noundef !55
  %_4 = load i64, ptr %other, align 8, !dbg !477, !noundef !55
  %0 = icmp ult i64 %_3, %_4, !dbg !476
  ret i1 %0, !dbg !478
}

; core::cmp::impls::<impl core::cmp::PartialOrd for i128>::lt
; Function Attrs: inlinehint noredzone nounwind
define internal zeroext i1 @"_ZN4core3cmp5impls56_$LT$impl$u20$core..cmp..PartialOrd$u20$for$u20$i128$GT$2lt17hddb52d4d1407b9b1E"(ptr align 8 %self, ptr align 8 %other) unnamed_addr #0 !dbg !479 {
start:
  %other.dbg.spill = alloca ptr, align 8
  %self.dbg.spill = alloca ptr, align 8
  store ptr %self, ptr %self.dbg.spill, align 8
  call void @llvm.dbg.declare(metadata ptr %self.dbg.spill, metadata !486, metadata !DIExpression()), !dbg !488
  store ptr %other, ptr %other.dbg.spill, align 8
  call void @llvm.dbg.declare(metadata ptr %other.dbg.spill, metadata !487, metadata !DIExpression()), !dbg !489
  %_3 = load i128, ptr %self, align 8, !dbg !490, !noundef !55
  %_4 = load i128, ptr %other, align 8, !dbg !491, !noundef !55
  %0 = icmp slt i128 %_3, %_4, !dbg !490
  ret i1 %0, !dbg !492
}

; core::cmp::impls::<impl core::cmp::PartialOrd for u128>::lt
; Function Attrs: inlinehint noredzone nounwind
define internal zeroext i1 @"_ZN4core3cmp5impls56_$LT$impl$u20$core..cmp..PartialOrd$u20$for$u20$u128$GT$2lt17h981969fd5278d95bE"(ptr align 8 %self, ptr align 8 %other) unnamed_addr #0 !dbg !493 {
start:
  %other.dbg.spill = alloca ptr, align 8
  %self.dbg.spill = alloca ptr, align 8
  store ptr %self, ptr %self.dbg.spill, align 8
  call void @llvm.dbg.declare(metadata ptr %self.dbg.spill, metadata !496, metadata !DIExpression()), !dbg !498
  store ptr %other, ptr %other.dbg.spill, align 8
  call void @llvm.dbg.declare(metadata ptr %other.dbg.spill, metadata !497, metadata !DIExpression()), !dbg !499
  %_3 = load i128, ptr %self, align 8, !dbg !500, !noundef !55
  %_4 = load i128, ptr %other, align 8, !dbg !501, !noundef !55
  %0 = icmp ult i128 %_3, %_4, !dbg !500
  ret i1 %0, !dbg !502
}

; core::f32::<impl f32>::is_sign_negative
; Function Attrs: inlinehint noredzone nounwind
define internal zeroext i1 @"_ZN4core3f3221_$LT$impl$u20$f32$GT$16is_sign_negative17h5042d3afe0e88c4dE"(float %self) unnamed_addr #0 !dbg !503 {
start:
  %self.dbg.spill = alloca float, align 4
  store float %self, ptr %self.dbg.spill, align 4
  call void @llvm.dbg.declare(metadata ptr %self.dbg.spill, metadata !510, metadata !DIExpression()), !dbg !511
  %_3 = bitcast float %self to i32, !dbg !512
  %_2 = and i32 %_3, -2147483648, !dbg !512
  %0 = icmp ne i32 %_2, 0, !dbg !512
  ret i1 %0, !dbg !513
}

; core::f32::<impl f32>::is_nan
; Function Attrs: inlinehint noredzone nounwind
define internal zeroext i1 @"_ZN4core3f3221_$LT$impl$u20$f32$GT$6is_nan17hab8ad6b6cbe58ef5E"(float %self) unnamed_addr #0 !dbg !514 {
start:
  %self.dbg.spill = alloca float, align 4
  store float %self, ptr %self.dbg.spill, align 4
  call void @llvm.dbg.declare(metadata ptr %self.dbg.spill, metadata !516, metadata !DIExpression()), !dbg !517
  %0 = fcmp une float %self, %self, !dbg !518
  ret i1 %0, !dbg !519
}

; core::f32::<impl f32>::to_bits
; Function Attrs: inlinehint noredzone nounwind
define internal i32 @"_ZN4core3f3221_$LT$impl$u20$f32$GT$7to_bits17h053f4e636a9f4735E"(float %self) unnamed_addr #0 !dbg !520 {
start:
  %x.dbg.spill.i = alloca float, align 4
  %self.dbg.spill = alloca float, align 4
  %_2 = alloca float, align 4
  store float %self, ptr %self.dbg.spill, align 4
  call void @llvm.dbg.declare(metadata ptr %self.dbg.spill, metadata !524, metadata !DIExpression()), !dbg !525
  store float %self, ptr %_2, align 4, !dbg !526
  %0 = load float, ptr %_2, align 4, !dbg !527, !noundef !55
  store float %0, ptr %x.dbg.spill.i, align 4
  call void @llvm.dbg.declare(metadata ptr %x.dbg.spill.i, metadata !528, metadata !DIExpression()), !dbg !532
  %1 = bitcast float %0 to i32, !dbg !534
  ret i32 %1, !dbg !535
}

; core::f32::<impl f32>::from_bits
; Function Attrs: inlinehint noredzone nounwind
define internal float @"_ZN4core3f3221_$LT$impl$u20$f32$GT$9from_bits17h99c29b307c38709aE"(i32 %v) unnamed_addr #0 !dbg !536 {
start:
  %x.dbg.spill.i = alloca i32, align 4
  %v.dbg.spill = alloca i32, align 4
  %_2 = alloca i32, align 4
  store i32 %v, ptr %v.dbg.spill, align 4
  call void @llvm.dbg.declare(metadata ptr %v.dbg.spill, metadata !540, metadata !DIExpression()), !dbg !541
  store i32 %v, ptr %_2, align 4, !dbg !542
  %0 = load i32, ptr %_2, align 4, !dbg !543, !noundef !55
  store i32 %0, ptr %x.dbg.spill.i, align 4
  call void @llvm.dbg.declare(metadata ptr %x.dbg.spill.i, metadata !544, metadata !DIExpression()), !dbg !548
  %1 = bitcast i32 %0 to float, !dbg !550
  ret float %1, !dbg !551
}

; core::f64::<impl f64>::is_sign_negative
; Function Attrs: inlinehint noredzone nounwind
define internal zeroext i1 @"_ZN4core3f6421_$LT$impl$u20$f64$GT$16is_sign_negative17heefd40d1318d1bc3E"(double %self) unnamed_addr #0 !dbg !552 {
start:
  %self.dbg.spill = alloca double, align 8
  store double %self, ptr %self.dbg.spill, align 8
  call void @llvm.dbg.declare(metadata ptr %self.dbg.spill, metadata !559, metadata !DIExpression()), !dbg !560
  %_3 = bitcast double %self to i64, !dbg !561
  %_2 = and i64 %_3, -9223372036854775808, !dbg !561
  %0 = icmp ne i64 %_2, 0, !dbg !561
  ret i1 %0, !dbg !562
}

; core::f64::<impl f64>::is_nan
; Function Attrs: inlinehint noredzone nounwind
define internal zeroext i1 @"_ZN4core3f6421_$LT$impl$u20$f64$GT$6is_nan17h38157b586fe09c99E"(double %self) unnamed_addr #0 !dbg !563 {
start:
  %self.dbg.spill = alloca double, align 8
  store double %self, ptr %self.dbg.spill, align 8
  call void @llvm.dbg.declare(metadata ptr %self.dbg.spill, metadata !565, metadata !DIExpression()), !dbg !566
  %0 = fcmp une double %self, %self, !dbg !567
  ret i1 %0, !dbg !568
}

; core::f64::<impl f64>::to_bits
; Function Attrs: inlinehint noredzone nounwind
define internal i64 @"_ZN4core3f6421_$LT$impl$u20$f64$GT$7to_bits17ha99c114947349d6eE"(double %self) unnamed_addr #0 !dbg !569 {
start:
  %rt.dbg.spill.i = alloca double, align 8
  %self.dbg.spill = alloca double, align 8
  %_2 = alloca double, align 8
  store double %self, ptr %self.dbg.spill, align 8
  call void @llvm.dbg.declare(metadata ptr %self.dbg.spill, metadata !573, metadata !DIExpression()), !dbg !574
  store double %self, ptr %_2, align 8, !dbg !575
  %0 = load double, ptr %_2, align 8, !dbg !576, !noundef !55
  store double %0, ptr %rt.dbg.spill.i, align 8
  call void @llvm.dbg.declare(metadata ptr %rt.dbg.spill.i, metadata !577, metadata !DIExpression()), !dbg !581
  %1 = bitcast double %0 to i64, !dbg !583
  ret i64 %1, !dbg !584
}

; core::f64::<impl f64>::from_bits
; Function Attrs: inlinehint noredzone nounwind
define internal double @"_ZN4core3f6421_$LT$impl$u20$f64$GT$9from_bits17h257fd02c56c22dd8E"(i64 %v) unnamed_addr #0 !dbg !585 {
start:
  %rt.dbg.spill.i = alloca i64, align 8
  %v.dbg.spill = alloca i64, align 8
  %_2 = alloca i64, align 8
  store i64 %v, ptr %v.dbg.spill, align 8
  call void @llvm.dbg.declare(metadata ptr %v.dbg.spill, metadata !589, metadata !DIExpression()), !dbg !590
  store i64 %v, ptr %_2, align 8, !dbg !591
  %0 = load i64, ptr %_2, align 8, !dbg !592, !noundef !55
  store i64 %0, ptr %rt.dbg.spill.i, align 8
  call void @llvm.dbg.declare(metadata ptr %rt.dbg.spill.i, metadata !593, metadata !DIExpression()), !dbg !597
  %1 = bitcast i64 %0 to double, !dbg !599
  ret double %1, !dbg !600
}

; core::num::<impl i8>::wrapping_abs
; Function Attrs: inlinehint noredzone nounwind
define internal i8 @"_ZN4core3num20_$LT$impl$u20$i8$GT$12wrapping_abs17h6f034339a69cbc27E"(i8 %self) unnamed_addr #0 !dbg !601 {
start:
  %rhs.dbg.spill.i = alloca i8, align 1
  %self.dbg.spill.i2 = alloca i8, align 1
  %self.dbg.spill.i1 = alloca i8, align 1
  %self.dbg.spill.i = alloca i8, align 1
  %self.dbg.spill = alloca i8, align 1
  %0 = alloca i8, align 1
  store i8 %self, ptr %self.dbg.spill, align 1
  call void @llvm.dbg.declare(metadata ptr %self.dbg.spill, metadata !609, metadata !DIExpression()), !dbg !610
  store i8 %self, ptr %self.dbg.spill.i, align 1
  call void @llvm.dbg.declare(metadata ptr %self.dbg.spill.i, metadata !611, metadata !DIExpression()), !dbg !616
  %1 = icmp slt i8 %self, 0, !dbg !618
  br i1 %1, label %bb2, label %bb3, !dbg !619

bb3:                                              ; preds = %start
  store i8 %self, ptr %0, align 1, !dbg !620
  br label %bb4, !dbg !621

bb2:                                              ; preds = %start
  store i8 %self, ptr %self.dbg.spill.i1, align 1
  call void @llvm.dbg.declare(metadata ptr %self.dbg.spill.i1, metadata !622, metadata !DIExpression()), !dbg !625
  store i8 0, ptr %self.dbg.spill.i2, align 1
  call void @llvm.dbg.declare(metadata ptr %self.dbg.spill.i2, metadata !627, metadata !DIExpression()), !dbg !633
  store i8 %self, ptr %rhs.dbg.spill.i, align 1
  call void @llvm.dbg.declare(metadata ptr %rhs.dbg.spill.i, metadata !632, metadata !DIExpression()), !dbg !635
  %2 = sub i8 0, %self, !dbg !636
  store i8 %2, ptr %0, align 1, !dbg !637
  br label %bb4, !dbg !637

bb4:                                              ; preds = %bb3, %bb2
  %3 = load i8, ptr %0, align 1, !dbg !638, !noundef !55
  ret i8 %3, !dbg !638
}

; core::num::<impl i16>::wrapping_abs
; Function Attrs: inlinehint noredzone nounwind
define internal i16 @"_ZN4core3num21_$LT$impl$u20$i16$GT$12wrapping_abs17h5e88fb3b9acc83e9E"(i16 %self) unnamed_addr #0 !dbg !639 {
start:
  %rhs.dbg.spill.i = alloca i16, align 2
  %self.dbg.spill.i2 = alloca i16, align 2
  %self.dbg.spill.i1 = alloca i16, align 2
  %self.dbg.spill.i = alloca i16, align 2
  %self.dbg.spill = alloca i16, align 2
  %0 = alloca i16, align 2
  store i16 %self, ptr %self.dbg.spill, align 2
  call void @llvm.dbg.declare(metadata ptr %self.dbg.spill, metadata !644, metadata !DIExpression()), !dbg !645
  store i16 %self, ptr %self.dbg.spill.i, align 2
  call void @llvm.dbg.declare(metadata ptr %self.dbg.spill.i, metadata !646, metadata !DIExpression()), !dbg !651
  %1 = icmp slt i16 %self, 0, !dbg !653
  br i1 %1, label %bb2, label %bb3, !dbg !654

bb3:                                              ; preds = %start
  store i16 %self, ptr %0, align 2, !dbg !655
  br label %bb4, !dbg !656

bb2:                                              ; preds = %start
  store i16 %self, ptr %self.dbg.spill.i1, align 2
  call void @llvm.dbg.declare(metadata ptr %self.dbg.spill.i1, metadata !657, metadata !DIExpression()), !dbg !660
  store i16 0, ptr %self.dbg.spill.i2, align 2
  call void @llvm.dbg.declare(metadata ptr %self.dbg.spill.i2, metadata !662, metadata !DIExpression()), !dbg !666
  store i16 %self, ptr %rhs.dbg.spill.i, align 2
  call void @llvm.dbg.declare(metadata ptr %rhs.dbg.spill.i, metadata !665, metadata !DIExpression()), !dbg !668
  %2 = sub i16 0, %self, !dbg !669
  store i16 %2, ptr %0, align 2, !dbg !670
  br label %bb4, !dbg !670

bb4:                                              ; preds = %bb3, %bb2
  %3 = load i16, ptr %0, align 2, !dbg !671, !noundef !55
  ret i16 %3, !dbg !671
}

; core::num::<impl i32>::unsigned_abs
; Function Attrs: inlinehint noredzone nounwind
define internal i32 @"_ZN4core3num21_$LT$impl$u20$i32$GT$12unsigned_abs17h2c2a91b93bf22d8fE"(i32 %self) unnamed_addr #0 !dbg !672 {
start:
  %self.dbg.spill = alloca i32, align 4
  store i32 %self, ptr %self.dbg.spill, align 4
  call void @llvm.dbg.declare(metadata ptr %self.dbg.spill, metadata !677, metadata !DIExpression()), !dbg !678
; call core::num::<impl i32>::wrapping_abs
  %_2 = call i32 @"_ZN4core3num21_$LT$impl$u20$i32$GT$12wrapping_abs17h2ce3dee77ac071bbE"(i32 %self) #8, !dbg !679
  ret i32 %_2, !dbg !680
}

; core::num::<impl i32>::wrapping_abs
; Function Attrs: inlinehint noredzone nounwind
define internal i32 @"_ZN4core3num21_$LT$impl$u20$i32$GT$12wrapping_abs17h2ce3dee77ac071bbE"(i32 %self) unnamed_addr #0 !dbg !681 {
start:
  %rhs.dbg.spill.i = alloca i32, align 4
  %self.dbg.spill.i2 = alloca i32, align 4
  %self.dbg.spill.i1 = alloca i32, align 4
  %self.dbg.spill.i = alloca i32, align 4
  %self.dbg.spill = alloca i32, align 4
  %0 = alloca i32, align 4
  store i32 %self, ptr %self.dbg.spill, align 4
  call void @llvm.dbg.declare(metadata ptr %self.dbg.spill, metadata !685, metadata !DIExpression()), !dbg !686
  store i32 %self, ptr %self.dbg.spill.i, align 4
  call void @llvm.dbg.declare(metadata ptr %self.dbg.spill.i, metadata !687, metadata !DIExpression()), !dbg !692
  %1 = icmp slt i32 %self, 0, !dbg !694
  br i1 %1, label %bb2, label %bb3, !dbg !695

bb3:                                              ; preds = %start
  store i32 %self, ptr %0, align 4, !dbg !696
  br label %bb4, !dbg !697

bb2:                                              ; preds = %start
  store i32 %self, ptr %self.dbg.spill.i1, align 4
  call void @llvm.dbg.declare(metadata ptr %self.dbg.spill.i1, metadata !698, metadata !DIExpression()), !dbg !701
  store i32 0, ptr %self.dbg.spill.i2, align 4
  call void @llvm.dbg.declare(metadata ptr %self.dbg.spill.i2, metadata !703, metadata !DIExpression()), !dbg !707
  store i32 %self, ptr %rhs.dbg.spill.i, align 4
  call void @llvm.dbg.declare(metadata ptr %rhs.dbg.spill.i, metadata !706, metadata !DIExpression()), !dbg !709
  %2 = sub i32 0, %self, !dbg !710
  store i32 %2, ptr %0, align 4, !dbg !711
  br label %bb4, !dbg !711

bb4:                                              ; preds = %bb3, %bb2
  %3 = load i32, ptr %0, align 4, !dbg !712, !noundef !55
  ret i32 %3, !dbg !712
}

; core::num::<impl i64>::unsigned_abs
; Function Attrs: inlinehint noredzone nounwind
define internal i64 @"_ZN4core3num21_$LT$impl$u20$i64$GT$12unsigned_abs17h997f94aa42d6695bE"(i64 %self) unnamed_addr #0 !dbg !713 {
start:
  %self.dbg.spill = alloca i64, align 8
  store i64 %self, ptr %self.dbg.spill, align 8
  call void @llvm.dbg.declare(metadata ptr %self.dbg.spill, metadata !718, metadata !DIExpression()), !dbg !719
; call core::num::<impl i64>::wrapping_abs
  %_2 = call i64 @"_ZN4core3num21_$LT$impl$u20$i64$GT$12wrapping_abs17h6c740d91ec5786c3E"(i64 %self) #8, !dbg !720
  ret i64 %_2, !dbg !721
}

; core::num::<impl i64>::wrapping_abs
; Function Attrs: inlinehint noredzone nounwind
define internal i64 @"_ZN4core3num21_$LT$impl$u20$i64$GT$12wrapping_abs17h6c740d91ec5786c3E"(i64 %self) unnamed_addr #0 !dbg !722 {
start:
  %rhs.dbg.spill.i = alloca i64, align 8
  %self.dbg.spill.i2 = alloca i64, align 8
  %self.dbg.spill.i1 = alloca i64, align 8
  %self.dbg.spill.i = alloca i64, align 8
  %self.dbg.spill = alloca i64, align 8
  %0 = alloca i64, align 8
  store i64 %self, ptr %self.dbg.spill, align 8
  call void @llvm.dbg.declare(metadata ptr %self.dbg.spill, metadata !726, metadata !DIExpression()), !dbg !727
  store i64 %self, ptr %self.dbg.spill.i, align 8
  call void @llvm.dbg.declare(metadata ptr %self.dbg.spill.i, metadata !728, metadata !DIExpression()), !dbg !733
  %1 = icmp slt i64 %self, 0, !dbg !735
  br i1 %1, label %bb2, label %bb3, !dbg !736

bb3:                                              ; preds = %start
  store i64 %self, ptr %0, align 8, !dbg !737
  br label %bb4, !dbg !738

bb2:                                              ; preds = %start
  store i64 %self, ptr %self.dbg.spill.i1, align 8
  call void @llvm.dbg.declare(metadata ptr %self.dbg.spill.i1, metadata !739, metadata !DIExpression()), !dbg !742
  store i64 0, ptr %self.dbg.spill.i2, align 8
  call void @llvm.dbg.declare(metadata ptr %self.dbg.spill.i2, metadata !744, metadata !DIExpression()), !dbg !748
  store i64 %self, ptr %rhs.dbg.spill.i, align 8
  call void @llvm.dbg.declare(metadata ptr %rhs.dbg.spill.i, metadata !747, metadata !DIExpression()), !dbg !750
  %2 = sub i64 0, %self, !dbg !751
  store i64 %2, ptr %0, align 8, !dbg !752
  br label %bb4, !dbg !752

bb4:                                              ; preds = %bb3, %bb2
  %3 = load i64, ptr %0, align 8, !dbg !753, !noundef !55
  ret i64 %3, !dbg !753
}

; core::num::<impl u64>::checked_div
; Function Attrs: inlinehint noredzone nounwind
define internal { i64, i64 } @"_ZN4core3num21_$LT$impl$u20$u64$GT$11checked_div17hc4f8107dbef038b6E"(i64 %self, i64 %rhs) unnamed_addr #0 !dbg !754 {
start:
  %0 = alloca i64, align 8
  %1 = alloca i8, align 1
  %rhs.dbg.spill = alloca i64, align 8
  %self.dbg.spill = alloca i64, align 8
  %2 = alloca { i64, i64 }, align 8
  store i64 %self, ptr %self.dbg.spill, align 8
  call void @llvm.dbg.declare(metadata ptr %self.dbg.spill, metadata !774, metadata !DIExpression()), !dbg !776
  store i64 %rhs, ptr %rhs.dbg.spill, align 8
  call void @llvm.dbg.declare(metadata ptr %rhs.dbg.spill, metadata !775, metadata !DIExpression()), !dbg !777
  %_4 = icmp eq i64 %rhs, 0, !dbg !778
  %3 = call i1 @llvm.expect.i1(i1 %_4, i1 false), !dbg !779
  %4 = zext i1 %3 to i8, !dbg !779
  store i8 %4, ptr %1, align 1, !dbg !779
  %5 = load i8, ptr %1, align 1, !dbg !779, !range !780, !noundef !55
  %_3 = trunc i8 %5 to i1, !dbg !779
  br i1 %_3, label %bb2, label %bb3, !dbg !779

bb3:                                              ; preds = %start
  %6 = udiv i64 %self, %rhs, !dbg !781
  store i64 %6, ptr %0, align 8, !dbg !781
  %_5 = load i64, ptr %0, align 8, !dbg !781, !noundef !55
  %7 = getelementptr inbounds { i64, i64 }, ptr %2, i32 0, i32 1, !dbg !782
  store i64 %_5, ptr %7, align 8, !dbg !782
  store i64 1, ptr %2, align 8, !dbg !782
  br label %bb5, !dbg !783

bb2:                                              ; preds = %start
  store i64 0, ptr %2, align 8, !dbg !784
  br label %bb5, !dbg !783

bb5:                                              ; preds = %bb3, %bb2
  %8 = getelementptr inbounds { i64, i64 }, ptr %2, i32 0, i32 0, !dbg !785
  %9 = load i64, ptr %8, align 8, !dbg !785, !range !786, !noundef !55
  %10 = getelementptr inbounds { i64, i64 }, ptr %2, i32 0, i32 1, !dbg !785
  %11 = load i64, ptr %10, align 8, !dbg !785
  %12 = insertvalue { i64, i64 } poison, i64 %9, 0, !dbg !785
  %13 = insertvalue { i64, i64 } %12, i64 %11, 1, !dbg !785
  ret { i64, i64 } %13, !dbg !785
}

; core::num::<impl u64>::checked_rem
; Function Attrs: inlinehint noredzone nounwind
define internal { i64, i64 } @"_ZN4core3num21_$LT$impl$u20$u64$GT$11checked_rem17h6a0d8430b89b3722E"(i64 %self, i64 %rhs) unnamed_addr #0 !dbg !787 {
start:
  %0 = alloca i64, align 8
  %1 = alloca i8, align 1
  %rhs.dbg.spill = alloca i64, align 8
  %self.dbg.spill = alloca i64, align 8
  %2 = alloca { i64, i64 }, align 8
  store i64 %self, ptr %self.dbg.spill, align 8
  call void @llvm.dbg.declare(metadata ptr %self.dbg.spill, metadata !789, metadata !DIExpression()), !dbg !791
  store i64 %rhs, ptr %rhs.dbg.spill, align 8
  call void @llvm.dbg.declare(metadata ptr %rhs.dbg.spill, metadata !790, metadata !DIExpression()), !dbg !792
  %_4 = icmp eq i64 %rhs, 0, !dbg !793
  %3 = call i1 @llvm.expect.i1(i1 %_4, i1 false), !dbg !794
  %4 = zext i1 %3 to i8, !dbg !794
  store i8 %4, ptr %1, align 1, !dbg !794
  %5 = load i8, ptr %1, align 1, !dbg !794, !range !780, !noundef !55
  %_3 = trunc i8 %5 to i1, !dbg !794
  br i1 %_3, label %bb2, label %bb3, !dbg !794

bb3:                                              ; preds = %start
  %6 = urem i64 %self, %rhs, !dbg !795
  store i64 %6, ptr %0, align 8, !dbg !795
  %_5 = load i64, ptr %0, align 8, !dbg !795, !noundef !55
  %7 = getelementptr inbounds { i64, i64 }, ptr %2, i32 0, i32 1, !dbg !796
  store i64 %_5, ptr %7, align 8, !dbg !796
  store i64 1, ptr %2, align 8, !dbg !796
  br label %bb5, !dbg !797

bb2:                                              ; preds = %start
  store i64 0, ptr %2, align 8, !dbg !798
  br label %bb5, !dbg !797

bb5:                                              ; preds = %bb3, %bb2
  %8 = getelementptr inbounds { i64, i64 }, ptr %2, i32 0, i32 0, !dbg !799
  %9 = load i64, ptr %8, align 8, !dbg !799, !range !786, !noundef !55
  %10 = getelementptr inbounds { i64, i64 }, ptr %2, i32 0, i32 1, !dbg !799
  %11 = load i64, ptr %10, align 8, !dbg !799
  %12 = insertvalue { i64, i64 } poison, i64 %9, 0, !dbg !799
  %13 = insertvalue { i64, i64 } %12, i64 %11, 1, !dbg !799
  ret { i64, i64 } %13, !dbg !799
}

; core::num::<impl i128>::unsigned_abs
; Function Attrs: inlinehint noredzone nounwind
define internal i128 @"_ZN4core3num22_$LT$impl$u20$i128$GT$12unsigned_abs17hf6dcf713def736c7E"(i128 %self) unnamed_addr #0 !dbg !800 {
start:
  %self.dbg.spill = alloca i128, align 8
  store i128 %self, ptr %self.dbg.spill, align 8
  call void @llvm.dbg.declare(metadata ptr %self.dbg.spill, metadata !805, metadata !DIExpression()), !dbg !806
; call core::num::<impl i128>::wrapping_abs
  %_2 = call i128 @"_ZN4core3num22_$LT$impl$u20$i128$GT$12wrapping_abs17hc5002151752a26beE"(i128 %self) #8, !dbg !807
  ret i128 %_2, !dbg !808
}

; core::num::<impl i128>::wrapping_abs
; Function Attrs: inlinehint noredzone nounwind
define internal i128 @"_ZN4core3num22_$LT$impl$u20$i128$GT$12wrapping_abs17hc5002151752a26beE"(i128 %self) unnamed_addr #0 !dbg !809 {
start:
  %rhs.dbg.spill.i = alloca i128, align 8
  %self.dbg.spill.i2 = alloca i128, align 8
  %self.dbg.spill.i1 = alloca i128, align 8
  %self.dbg.spill.i = alloca i128, align 8
  %self.dbg.spill = alloca i128, align 8
  %0 = alloca i128, align 8
  store i128 %self, ptr %self.dbg.spill, align 8
  call void @llvm.dbg.declare(metadata ptr %self.dbg.spill, metadata !813, metadata !DIExpression()), !dbg !814
  store i128 %self, ptr %self.dbg.spill.i, align 8
  call void @llvm.dbg.declare(metadata ptr %self.dbg.spill.i, metadata !815, metadata !DIExpression()), !dbg !820
  %1 = icmp slt i128 %self, 0, !dbg !822
  br i1 %1, label %bb2, label %bb3, !dbg !823

bb3:                                              ; preds = %start
  store i128 %self, ptr %0, align 8, !dbg !824
  br label %bb4, !dbg !825

bb2:                                              ; preds = %start
  store i128 %self, ptr %self.dbg.spill.i1, align 8
  call void @llvm.dbg.declare(metadata ptr %self.dbg.spill.i1, metadata !826, metadata !DIExpression()), !dbg !829
  store i128 0, ptr %self.dbg.spill.i2, align 8
  call void @llvm.dbg.declare(metadata ptr %self.dbg.spill.i2, metadata !831, metadata !DIExpression()), !dbg !837
  store i128 %self, ptr %rhs.dbg.spill.i, align 8
  call void @llvm.dbg.declare(metadata ptr %rhs.dbg.spill.i, metadata !836, metadata !DIExpression()), !dbg !839
  %2 = sub i128 0, %self, !dbg !840
  store i128 %2, ptr %0, align 8, !dbg !841
  br label %bb4, !dbg !841

bb4:                                              ; preds = %bb3, %bb2
  %3 = load i128, ptr %0, align 8, !dbg !842, !noundef !55
  ret i128 %3, !dbg !842
}

; core::num::<impl isize>::wrapping_abs
; Function Attrs: inlinehint noredzone nounwind
define internal i64 @"_ZN4core3num23_$LT$impl$u20$isize$GT$12wrapping_abs17h7dfe2f8a98eb9d9bE"(i64 %self) unnamed_addr #0 !dbg !843 {
start:
  %rhs.dbg.spill.i = alloca i64, align 8
  %self.dbg.spill.i2 = alloca i64, align 8
  %self.dbg.spill.i1 = alloca i64, align 8
  %self.dbg.spill.i = alloca i64, align 8
  %self.dbg.spill = alloca i64, align 8
  %0 = alloca i64, align 8
  store i64 %self, ptr %self.dbg.spill, align 8
  call void @llvm.dbg.declare(metadata ptr %self.dbg.spill, metadata !849, metadata !DIExpression()), !dbg !850
  store i64 %self, ptr %self.dbg.spill.i, align 8
  call void @llvm.dbg.declare(metadata ptr %self.dbg.spill.i, metadata !851, metadata !DIExpression()), !dbg !856
  %1 = icmp slt i64 %self, 0, !dbg !858
  br i1 %1, label %bb2, label %bb3, !dbg !859

bb3:                                              ; preds = %start
  store i64 %self, ptr %0, align 8, !dbg !860
  br label %bb4, !dbg !861

bb2:                                              ; preds = %start
  store i64 %self, ptr %self.dbg.spill.i1, align 8
  call void @llvm.dbg.declare(metadata ptr %self.dbg.spill.i1, metadata !862, metadata !DIExpression()), !dbg !865
  store i64 0, ptr %self.dbg.spill.i2, align 8
  call void @llvm.dbg.declare(metadata ptr %self.dbg.spill.i2, metadata !867, metadata !DIExpression()), !dbg !873
  store i64 %self, ptr %rhs.dbg.spill.i, align 8
  call void @llvm.dbg.declare(metadata ptr %rhs.dbg.spill.i, metadata !872, metadata !DIExpression()), !dbg !875
  %2 = sub i64 0, %self, !dbg !876
  store i64 %2, ptr %0, align 8, !dbg !877
  br label %bb4, !dbg !877

bb4:                                              ; preds = %bb3, %bb2
  %3 = load i64, ptr %0, align 8, !dbg !878, !noundef !55
  ret i64 %3, !dbg !878
}

; core::ops::function::FnOnce::call_once
; Function Attrs: inlinehint noredzone nounwind
define internal i32 @_ZN4core3ops8function6FnOnce9call_once17h29283670e5877e07E(ptr %0, ptr %1, i64 %2) unnamed_addr #0 !dbg !879 {
start:
  %_2 = alloca { ptr, ptr, i64 }, align 8
  %_1 = alloca %"[closure@/Users/yaw/.cargo/registry/src/index.crates.io-6f17d22bba15001f/compiler_builtins-0.1.91/src/mem/x86_64.rs:159:14: 159:53]", align 1
  store ptr %0, ptr %_2, align 8
  %3 = getelementptr inbounds { ptr, ptr, i64 }, ptr %_2, i32 0, i32 1
  store ptr %1, ptr %3, align 8
  %4 = getelementptr inbounds { ptr, ptr, i64 }, ptr %_2, i32 0, i32 2
  store i64 %2, ptr %4, align 8
  call void @llvm.dbg.declare(metadata ptr %_1, metadata !892, metadata !DIExpression()), !dbg !902
  call void @llvm.dbg.declare(metadata ptr %_2, metadata !893, metadata !DIExpression()), !dbg !902
  %5 = load ptr, ptr %_2, align 8, !dbg !902, !noundef !55
  %6 = getelementptr inbounds { ptr, ptr, i64 }, ptr %_2, i32 0, i32 1, !dbg !902
  %7 = load ptr, ptr %6, align 8, !dbg !902, !noundef !55
  %8 = getelementptr inbounds { ptr, ptr, i64 }, ptr %_2, i32 0, i32 2, !dbg !902
  %9 = load i64, ptr %8, align 8, !dbg !902, !noundef !55
; call compiler_builtins::mem::impls::compare_bytes::{{closure}}
  %10 = call i32 @"_ZN17compiler_builtins3mem5impls13compare_bytes28_$u7b$$u7b$closure$u7d$$u7d$17hee75c03378e91708E"(ptr align 1 %_1, ptr %5, ptr %7, i64 %9) #8, !dbg !902
  ret i32 %10, !dbg !902
}

; core::ops::function::FnOnce::call_once
; Function Attrs: inlinehint noredzone nounwind
define internal i32 @_ZN4core3ops8function6FnOnce9call_once17h4a220180e7a6d4b7E(ptr align 8 %0, ptr %1, ptr %2, i64 %3) unnamed_addr #0 !dbg !903 {
start:
  %_2 = alloca { ptr, ptr, i64 }, align 8
  %_1 = alloca ptr, align 8
  store ptr %0, ptr %_1, align 8
  store ptr %1, ptr %_2, align 8
  %4 = getelementptr inbounds { ptr, ptr, i64 }, ptr %_2, i32 0, i32 1
  store ptr %2, ptr %4, align 8
  %5 = getelementptr inbounds { ptr, ptr, i64 }, ptr %_2, i32 0, i32 2
  store i64 %3, ptr %5, align 8
  call void @llvm.dbg.declare(metadata ptr %_1, metadata !917, metadata !DIExpression()), !dbg !927
  call void @llvm.dbg.declare(metadata ptr %_2, metadata !918, metadata !DIExpression()), !dbg !927
  %6 = load ptr, ptr %_2, align 8, !dbg !927, !noundef !55
  %7 = getelementptr inbounds { ptr, ptr, i64 }, ptr %_2, i32 0, i32 1, !dbg !927
  %8 = load ptr, ptr %7, align 8, !dbg !927, !noundef !55
  %9 = getelementptr inbounds { ptr, ptr, i64 }, ptr %_2, i32 0, i32 2, !dbg !927
  %10 = load i64, ptr %9, align 8, !dbg !927, !noundef !55
; call compiler_builtins::mem::impls::compare_bytes::{{closure}}
  %11 = call i32 @"_ZN17compiler_builtins3mem5impls13compare_bytes28_$u7b$$u7b$closure$u7d$$u7d$17hed67114366245daeE"(ptr align 8 %_1, ptr %6, ptr %8, i64 %10) #8, !dbg !927
  ret i32 %11, !dbg !927
}

; core::ops::function::FnOnce::call_once
; Function Attrs: inlinehint noredzone nounwind
define internal i32 @_ZN4core3ops8function6FnOnce9call_once17h4c3569e0cecd212cE(ptr align 1 %0, ptr %1, ptr %2, i64 %3) unnamed_addr #0 !dbg !928 {
start:
  %_2 = alloca { ptr, ptr, i64 }, align 8
  %_1 = alloca ptr, align 8
  store ptr %0, ptr %_1, align 8
  store ptr %1, ptr %_2, align 8
  %4 = getelementptr inbounds { ptr, ptr, i64 }, ptr %_2, i32 0, i32 1
  store ptr %2, ptr %4, align 8
  %5 = getelementptr inbounds { ptr, ptr, i64 }, ptr %_2, i32 0, i32 2
  store i64 %3, ptr %5, align 8
  call void @llvm.dbg.declare(metadata ptr %_1, metadata !933, metadata !DIExpression()), !dbg !943
  call void @llvm.dbg.declare(metadata ptr %_2, metadata !934, metadata !DIExpression()), !dbg !943
  %6 = load ptr, ptr %_2, align 8, !dbg !943, !noundef !55
  %7 = getelementptr inbounds { ptr, ptr, i64 }, ptr %_2, i32 0, i32 1, !dbg !943
  %8 = load ptr, ptr %7, align 8, !dbg !943, !noundef !55
  %9 = getelementptr inbounds { ptr, ptr, i64 }, ptr %_2, i32 0, i32 2, !dbg !943
  %10 = load i64, ptr %9, align 8, !dbg !943, !noundef !55
; call compiler_builtins::mem::impls::compare_bytes::{{closure}}
  %11 = call i32 @"_ZN17compiler_builtins3mem5impls13compare_bytes28_$u7b$$u7b$closure$u7d$$u7d$17hc9f3cef18d3b519dE"(ptr align 8 %_1, ptr %6, ptr %8, i64 %10) #8, !dbg !943
  ret i32 %11, !dbg !943
}

; core::ops::function::FnOnce::call_once
; Function Attrs: inlinehint noredzone nounwind
define internal i32 @_ZN4core3ops8function6FnOnce9call_once17hbb2c005307cca5b3E(ptr align 8 %0, ptr %1, ptr %2, i64 %3) unnamed_addr #0 !dbg !944 {
start:
  %_2 = alloca { ptr, ptr, i64 }, align 8
  %_1 = alloca ptr, align 8
  store ptr %0, ptr %_1, align 8
  store ptr %1, ptr %_2, align 8
  %4 = getelementptr inbounds { ptr, ptr, i64 }, ptr %_2, i32 0, i32 1
  store ptr %2, ptr %4, align 8
  %5 = getelementptr inbounds { ptr, ptr, i64 }, ptr %_2, i32 0, i32 2
  store i64 %3, ptr %5, align 8
  call void @llvm.dbg.declare(metadata ptr %_1, metadata !949, metadata !DIExpression()), !dbg !959
  call void @llvm.dbg.declare(metadata ptr %_2, metadata !950, metadata !DIExpression()), !dbg !959
  %6 = load ptr, ptr %_2, align 8, !dbg !959, !noundef !55
  %7 = getelementptr inbounds { ptr, ptr, i64 }, ptr %_2, i32 0, i32 1, !dbg !959
  %8 = load ptr, ptr %7, align 8, !dbg !959, !noundef !55
  %9 = getelementptr inbounds { ptr, ptr, i64 }, ptr %_2, i32 0, i32 2, !dbg !959
  %10 = load i64, ptr %9, align 8, !dbg !959, !noundef !55
; call compiler_builtins::mem::impls::compare_bytes::{{closure}}
  %11 = call i32 @"_ZN17compiler_builtins3mem5impls13compare_bytes28_$u7b$$u7b$closure$u7d$$u7d$17hc484cc3543e985c7E"(ptr align 8 %_1, ptr %6, ptr %8, i64 %10) #8, !dbg !959
  ret i32 %11, !dbg !959
}

; core::ptr::read_unaligned
; Function Attrs: inlinehint noredzone nounwind
define hidden i64 @_ZN4core3ptr14read_unaligned17h5ecc3e0539aadd0bE(ptr %src) unnamed_addr #0 !dbg !960 {
start:
  %slot.dbg.spill.i = alloca i64, align 8
  %0 = alloca i64, align 8
  %self.dbg.spill.i1 = alloca i64, align 8
  %self.dbg.spill.i = alloca ptr, align 8
  %src.dbg.spill = alloca ptr, align 8
  %tmp = alloca i64, align 8
  store ptr %src, ptr %src.dbg.spill, align 8
  call void @llvm.dbg.declare(metadata ptr %src.dbg.spill, metadata !966, metadata !DIExpression()), !dbg !980
  call void @llvm.dbg.declare(metadata ptr %tmp, metadata !967, metadata !DIExpression()), !dbg !981
  %1 = load i64, ptr %0, align 8, !dbg !982
  store i64 %1, ptr %tmp, align 8, !dbg !988
  store ptr %tmp, ptr %self.dbg.spill.i, align 8
  call void @llvm.dbg.declare(metadata ptr %self.dbg.spill.i, metadata !989, metadata !DIExpression()), !dbg !996
; call core::intrinsics::copy_nonoverlapping
  call void @_ZN4core10intrinsics19copy_nonoverlapping17h135c6c3dffb1f336E(ptr %src, ptr %tmp, i64 8) #8, !dbg !998
  %_9 = load i64, ptr %tmp, align 8, !dbg !999
  store i64 %_9, ptr %self.dbg.spill.i1, align 8
  call void @llvm.dbg.declare(metadata ptr %self.dbg.spill.i1, metadata !1000, metadata !DIExpression()), !dbg !1018
  store i64 %_9, ptr %slot.dbg.spill.i, align 8
  call void @llvm.dbg.declare(metadata ptr %slot.dbg.spill.i, metadata !1020, metadata !DIExpression()), !dbg !1026
  ret i64 %_9, !dbg !1028
}

; core::ptr::read_unaligned
; Function Attrs: inlinehint noredzone nounwind
define hidden i16 @_ZN4core3ptr14read_unaligned17h7f8e1e16f90901acE(ptr %src) unnamed_addr #0 !dbg !1029 {
start:
  %slot.dbg.spill.i = alloca i16, align 2
  %0 = alloca i16, align 2
  %self.dbg.spill.i1 = alloca i16, align 2
  %self.dbg.spill.i = alloca ptr, align 8
  %src.dbg.spill = alloca ptr, align 8
  %tmp = alloca i16, align 2
  store ptr %src, ptr %src.dbg.spill, align 8
  call void @llvm.dbg.declare(metadata ptr %src.dbg.spill, metadata !1033, metadata !DIExpression()), !dbg !1045
  call void @llvm.dbg.declare(metadata ptr %tmp, metadata !1034, metadata !DIExpression()), !dbg !1046
  %1 = load i16, ptr %0, align 2, !dbg !1047
  store i16 %1, ptr %tmp, align 2, !dbg !1052
  store ptr %tmp, ptr %self.dbg.spill.i, align 8
  call void @llvm.dbg.declare(metadata ptr %self.dbg.spill.i, metadata !1053, metadata !DIExpression()), !dbg !1060
; call core::intrinsics::copy_nonoverlapping
  call void @_ZN4core10intrinsics19copy_nonoverlapping17h135c6c3dffb1f336E(ptr %src, ptr %tmp, i64 2) #8, !dbg !1062
  %_9 = load i16, ptr %tmp, align 2, !dbg !1063
  store i16 %_9, ptr %self.dbg.spill.i1, align 2
  call void @llvm.dbg.declare(metadata ptr %self.dbg.spill.i1, metadata !1064, metadata !DIExpression()), !dbg !1069
  store i16 %_9, ptr %slot.dbg.spill.i, align 2
  call void @llvm.dbg.declare(metadata ptr %slot.dbg.spill.i, metadata !1071, metadata !DIExpression()), !dbg !1076
  ret i16 %_9, !dbg !1078
}

; core::ptr::read_unaligned
; Function Attrs: inlinehint noredzone nounwind
define hidden i128 @_ZN4core3ptr14read_unaligned17ha8f0c41f78eb8d6aE(ptr %src) unnamed_addr #0 !dbg !1079 {
start:
  %slot.dbg.spill.i = alloca i128, align 8
  %0 = alloca i128, align 8
  %self.dbg.spill.i1 = alloca i128, align 8
  %self.dbg.spill.i = alloca ptr, align 8
  %src.dbg.spill = alloca ptr, align 8
  %tmp = alloca i128, align 8
  store ptr %src, ptr %src.dbg.spill, align 8
  call void @llvm.dbg.declare(metadata ptr %src.dbg.spill, metadata !1084, metadata !DIExpression()), !dbg !1096
  call void @llvm.dbg.declare(metadata ptr %tmp, metadata !1085, metadata !DIExpression()), !dbg !1097
  %1 = load i128, ptr %0, align 8, !dbg !1098
  store i128 %1, ptr %tmp, align 8, !dbg !1103
  store ptr %tmp, ptr %self.dbg.spill.i, align 8
  call void @llvm.dbg.declare(metadata ptr %self.dbg.spill.i, metadata !1104, metadata !DIExpression()), !dbg !1111
; call core::intrinsics::copy_nonoverlapping
  call void @_ZN4core10intrinsics19copy_nonoverlapping17h135c6c3dffb1f336E(ptr %src, ptr %tmp, i64 16) #8, !dbg !1113
  %_9 = load i128, ptr %tmp, align 8, !dbg !1114
  store i128 %_9, ptr %self.dbg.spill.i1, align 8
  call void @llvm.dbg.declare(metadata ptr %self.dbg.spill.i1, metadata !1115, metadata !DIExpression()), !dbg !1120
  store i128 %_9, ptr %slot.dbg.spill.i, align 8
  call void @llvm.dbg.declare(metadata ptr %slot.dbg.spill.i, metadata !1122, metadata !DIExpression()), !dbg !1127
  ret i128 %_9, !dbg !1129
}

; core::ptr::read_unaligned
; Function Attrs: inlinehint noredzone nounwind
define hidden i32 @_ZN4core3ptr14read_unaligned17hb9a31858ef8f700cE(ptr %src) unnamed_addr #0 !dbg !1130 {
start:
  %slot.dbg.spill.i = alloca i32, align 4
  %0 = alloca i32, align 4
  %self.dbg.spill.i1 = alloca i32, align 4
  %self.dbg.spill.i = alloca ptr, align 8
  %src.dbg.spill = alloca ptr, align 8
  %tmp = alloca i32, align 4
  store ptr %src, ptr %src.dbg.spill, align 8
  call void @llvm.dbg.declare(metadata ptr %src.dbg.spill, metadata !1134, metadata !DIExpression()), !dbg !1146
  call void @llvm.dbg.declare(metadata ptr %tmp, metadata !1135, metadata !DIExpression()), !dbg !1147
  %1 = load i32, ptr %0, align 4, !dbg !1148
  store i32 %1, ptr %tmp, align 4, !dbg !1153
  store ptr %tmp, ptr %self.dbg.spill.i, align 8
  call void @llvm.dbg.declare(metadata ptr %self.dbg.spill.i, metadata !1154, metadata !DIExpression()), !dbg !1161
; call core::intrinsics::copy_nonoverlapping
  call void @_ZN4core10intrinsics19copy_nonoverlapping17h135c6c3dffb1f336E(ptr %src, ptr %tmp, i64 4) #8, !dbg !1163
  %_9 = load i32, ptr %tmp, align 4, !dbg !1164
  store i32 %_9, ptr %self.dbg.spill.i1, align 4
  call void @llvm.dbg.declare(metadata ptr %self.dbg.spill.i1, metadata !1165, metadata !DIExpression()), !dbg !1170
  store i32 %_9, ptr %slot.dbg.spill.i, align 4
  call void @llvm.dbg.declare(metadata ptr %slot.dbg.spill.i, metadata !1172, metadata !DIExpression()), !dbg !1177
  ret i32 %_9, !dbg !1179
}

; core::ptr::const_ptr::<impl *const T>::read_unaligned
; Function Attrs: inlinehint noredzone nounwind
define hidden i16 @"_ZN4core3ptr9const_ptr33_$LT$impl$u20$$BP$const$u20$T$GT$14read_unaligned17h56fae65ebb43726eE"(ptr %self) unnamed_addr #0 !dbg !1180 {
start:
  %self.dbg.spill = alloca ptr, align 8
  store ptr %self, ptr %self.dbg.spill, align 8
  call void @llvm.dbg.declare(metadata ptr %self.dbg.spill, metadata !1185, metadata !DIExpression()), !dbg !1186
; call core::ptr::read_unaligned
  %0 = call i16 @_ZN4core3ptr14read_unaligned17h7f8e1e16f90901acE(ptr %self) #8, !dbg !1187
  ret i16 %0, !dbg !1188
}

; core::ptr::const_ptr::<impl *const T>::read_unaligned
; Function Attrs: inlinehint noredzone nounwind
define hidden i64 @"_ZN4core3ptr9const_ptr33_$LT$impl$u20$$BP$const$u20$T$GT$14read_unaligned17h691fa7a77301316bE"(ptr %self) unnamed_addr #0 !dbg !1189 {
start:
  %self.dbg.spill = alloca ptr, align 8
  store ptr %self, ptr %self.dbg.spill, align 8
  call void @llvm.dbg.declare(metadata ptr %self.dbg.spill, metadata !1191, metadata !DIExpression()), !dbg !1192
; call core::ptr::read_unaligned
  %0 = call i64 @_ZN4core3ptr14read_unaligned17h5ecc3e0539aadd0bE(ptr %self) #8, !dbg !1193
  ret i64 %0, !dbg !1194
}

; core::ptr::const_ptr::<impl *const T>::read_unaligned
; Function Attrs: inlinehint noredzone nounwind
define hidden i128 @"_ZN4core3ptr9const_ptr33_$LT$impl$u20$$BP$const$u20$T$GT$14read_unaligned17ha8f6b147f6bee9c2E"(ptr %self) unnamed_addr #0 !dbg !1195 {
start:
  %self.dbg.spill = alloca ptr, align 8
  store ptr %self, ptr %self.dbg.spill, align 8
  call void @llvm.dbg.declare(metadata ptr %self.dbg.spill, metadata !1197, metadata !DIExpression()), !dbg !1198
; call core::ptr::read_unaligned
  %0 = call i128 @_ZN4core3ptr14read_unaligned17ha8f0c41f78eb8d6aE(ptr %self) #8, !dbg !1199
  ret i128 %0, !dbg !1200
}

; core::ptr::const_ptr::<impl *const T>::read_unaligned
; Function Attrs: inlinehint noredzone nounwind
define hidden i32 @"_ZN4core3ptr9const_ptr33_$LT$impl$u20$$BP$const$u20$T$GT$14read_unaligned17hbccb555da5af976cE"(ptr %self) unnamed_addr #0 !dbg !1201 {
start:
  %self.dbg.spill = alloca ptr, align 8
  store ptr %self, ptr %self.dbg.spill, align 8
  call void @llvm.dbg.declare(metadata ptr %self.dbg.spill, metadata !1203, metadata !DIExpression()), !dbg !1204
; call core::ptr::read_unaligned
  %0 = call i32 @_ZN4core3ptr14read_unaligned17hb9a31858ef8f700cE(ptr %self) #8, !dbg !1205
  ret i32 %0, !dbg !1206
}

; core::ptr::const_ptr::<impl *const T>::read
; Function Attrs: inlinehint noredzone nounwind
define hidden i8 @"_ZN4core3ptr9const_ptr33_$LT$impl$u20$$BP$const$u20$T$GT$4read17hb56e0b27b912a262E"(ptr %self) unnamed_addr #0 !dbg !1207 {
start:
  %self.dbg.spill = alloca ptr, align 8
  store ptr %self, ptr %self.dbg.spill, align 8
  call void @llvm.dbg.declare(metadata ptr %self.dbg.spill, metadata !1211, metadata !DIExpression()), !dbg !1214
; call core::ptr::read
  %0 = call i8 @_ZN4core3ptr4read17h4f58ac4bcbf0876fE(ptr %self) #8, !dbg !1215
  ret i8 %0, !dbg !1216
}

; core::hint::unreachable_unchecked
; Function Attrs: inlinehint noredzone noreturn nounwind
define internal void @_ZN4core4hint21unreachable_unchecked17hfb050fc0acfcc6f4E() unnamed_addr #1 !dbg !1217 {
start:
  br i1 true, label %bb1, label %bb2, !dbg !1222

bb2:                                              ; preds = %_ZN4core4hint21unreachable_unchecked7runtime17h37f6a194ad8174bbE.exit, %start
  unreachable, !dbg !1223

bb1:                                              ; preds = %start
; call core::panicking::panic_nounwind
  call void @_ZN4core9panicking14panic_nounwind17h4573e3544b1244f5E(ptr align 1 @alloc_1eb6f53a157dccb32488e066ad957e6d, i64 82) #7, !dbg !1224
  unreachable, !dbg !1224

_ZN4core4hint21unreachable_unchecked7runtime17h37f6a194ad8174bbE.exit: ; No predecessors!
  br label %bb2, !dbg !1222
}

; core::option::Option<T>::unwrap_unchecked
; Function Attrs: inlinehint noredzone nounwind
define hidden i8 @"_ZN4core6option15Option$LT$T$GT$16unwrap_unchecked17h2b70071584e630abE"(i1 zeroext %0, i8 %1, ptr align 8 %2) unnamed_addr #0 !dbg !1229 {
start:
  %3 = alloca i8, align 1
  %self = alloca { i8, i8 }, align 1
  %4 = getelementptr inbounds { i8, i8 }, ptr %self, i32 0, i32 0
  %5 = zext i1 %0 to i8
  store i8 %5, ptr %4, align 1
  %6 = getelementptr inbounds { i8, i8 }, ptr %self, i32 0, i32 1
  store i8 %1, ptr %6, align 1
  call void @llvm.dbg.declare(metadata ptr %self, metadata !1247, metadata !DIExpression()), !dbg !1250
  br i1 true, label %bb1, label %bb4, !dbg !1251

bb4:                                              ; preds = %bb1, %start
  %7 = load i8, ptr %self, align 1, !dbg !1252, !range !780, !noundef !55
  %8 = trunc i8 %7 to i1, !dbg !1252
  %_7 = zext i1 %8 to i64, !dbg !1252
  %9 = icmp eq i64 %_7, 0, !dbg !1253
  br i1 %9, label %bb5, label %bb7, !dbg !1253

bb1:                                              ; preds = %start
; call core::option::Option<T>::is_some
  %_4 = call zeroext i1 @"_ZN4core6option15Option$LT$T$GT$7is_some17he6f26cec1a7f1c75E"(ptr align 1 %self) #8, !dbg !1254
  %_3 = xor i1 %_4, true, !dbg !1251
  br i1 %_3, label %bb3, label %bb4, !dbg !1251

bb3:                                              ; preds = %bb1
; call core::panicking::panic
  call void @_ZN4core9panicking5panic17h277234a6cd982fe5E(ptr align 1 @alloc_8a80f09a0a7e5419e3640441b1682996, i64 32, ptr align 8 %2) #7, !dbg !1251
  unreachable, !dbg !1251

bb5:                                              ; preds = %bb4
; call core::hint::unreachable_unchecked
  call void @_ZN4core4hint21unreachable_unchecked17hfb050fc0acfcc6f4E() #7, !dbg !1255
  unreachable, !dbg !1255

bb7:                                              ; preds = %bb4
  %10 = getelementptr inbounds { i8, i8 }, ptr %self, i32 0, i32 1, !dbg !1256
  %11 = load i8, ptr %10, align 1, !dbg !1256, !noundef !55
  store i8 %11, ptr %3, align 1, !dbg !1256
  call void @llvm.dbg.declare(metadata ptr %3, metadata !1248, metadata !DIExpression()), !dbg !1257
  ret i8 %11, !dbg !1258

bb6:                                              ; No predecessors!
  unreachable, !dbg !1252
}

; core::option::Option<T>::unwrap_unchecked
; Function Attrs: inlinehint noredzone nounwind
define hidden i16 @"_ZN4core6option15Option$LT$T$GT$16unwrap_unchecked17h317851144c9a9e1cE"(i16 %0, i16 %1, ptr align 8 %2) unnamed_addr #0 !dbg !1259 {
start:
  %3 = alloca i16, align 2
  %self = alloca { i16, i16 }, align 2
  %4 = getelementptr inbounds { i16, i16 }, ptr %self, i32 0, i32 0
  store i16 %0, ptr %4, align 2
  %5 = getelementptr inbounds { i16, i16 }, ptr %self, i32 0, i32 1
  store i16 %1, ptr %5, align 2
  call void @llvm.dbg.declare(metadata ptr %self, metadata !1274, metadata !DIExpression()), !dbg !1277
  br i1 true, label %bb1, label %bb4, !dbg !1278

bb4:                                              ; preds = %bb1, %start
  %6 = load i16, ptr %self, align 2, !dbg !1279, !range !1280, !noundef !55
  %_7 = zext i16 %6 to i64, !dbg !1279
  %7 = icmp eq i64 %_7, 0, !dbg !1281
  br i1 %7, label %bb5, label %bb7, !dbg !1281

bb1:                                              ; preds = %start
; call core::option::Option<T>::is_some
  %_4 = call zeroext i1 @"_ZN4core6option15Option$LT$T$GT$7is_some17he7a8727e4788c9a2E"(ptr align 2 %self) #8, !dbg !1282
  %_3 = xor i1 %_4, true, !dbg !1278
  br i1 %_3, label %bb3, label %bb4, !dbg !1278

bb3:                                              ; preds = %bb1
; call core::panicking::panic
  call void @_ZN4core9panicking5panic17h277234a6cd982fe5E(ptr align 1 @alloc_8a80f09a0a7e5419e3640441b1682996, i64 32, ptr align 8 %2) #7, !dbg !1278
  unreachable, !dbg !1278

bb5:                                              ; preds = %bb4
; call core::hint::unreachable_unchecked
  call void @_ZN4core4hint21unreachable_unchecked17hfb050fc0acfcc6f4E() #7, !dbg !1283
  unreachable, !dbg !1283

bb7:                                              ; preds = %bb4
  %8 = getelementptr inbounds { i16, i16 }, ptr %self, i32 0, i32 1, !dbg !1284
  %9 = load i16, ptr %8, align 2, !dbg !1284, !noundef !55
  store i16 %9, ptr %3, align 2, !dbg !1284
  call void @llvm.dbg.declare(metadata ptr %3, metadata !1275, metadata !DIExpression()), !dbg !1285
  ret i16 %9, !dbg !1286

bb6:                                              ; No predecessors!
  unreachable, !dbg !1279
}

; core::option::Option<T>::unwrap_unchecked
; Function Attrs: inlinehint noredzone nounwind
define hidden i128 @"_ZN4core6option15Option$LT$T$GT$16unwrap_unchecked17h3e56ac57e5636d6fE"(i64 %0, i128 %1, ptr align 8 %2) unnamed_addr #0 !dbg !1287 {
start:
  %3 = alloca i128, align 8
  %self = alloca { i64, i128 }, align 8
  %4 = getelementptr inbounds { i64, i128 }, ptr %self, i32 0, i32 0
  store i64 %0, ptr %4, align 8
  %5 = getelementptr inbounds { i64, i128 }, ptr %self, i32 0, i32 1
  store i128 %1, ptr %5, align 8
  call void @llvm.dbg.declare(metadata ptr %self, metadata !1302, metadata !DIExpression()), !dbg !1305
  br i1 true, label %bb1, label %bb4, !dbg !1306

bb4:                                              ; preds = %bb1, %start
  %_7 = load i64, ptr %self, align 8, !dbg !1307, !range !786, !noundef !55
  %6 = icmp eq i64 %_7, 0, !dbg !1308
  br i1 %6, label %bb5, label %bb7, !dbg !1308

bb1:                                              ; preds = %start
; call core::option::Option<T>::is_some
  %_4 = call zeroext i1 @"_ZN4core6option15Option$LT$T$GT$7is_some17hfceb4321dea63609E"(ptr align 8 %self) #8, !dbg !1309
  %_3 = xor i1 %_4, true, !dbg !1306
  br i1 %_3, label %bb3, label %bb4, !dbg !1306

bb3:                                              ; preds = %bb1
; call core::panicking::panic
  call void @_ZN4core9panicking5panic17h277234a6cd982fe5E(ptr align 1 @alloc_8a80f09a0a7e5419e3640441b1682996, i64 32, ptr align 8 %2) #7, !dbg !1306
  unreachable, !dbg !1306

bb5:                                              ; preds = %bb4
; call core::hint::unreachable_unchecked
  call void @_ZN4core4hint21unreachable_unchecked17hfb050fc0acfcc6f4E() #7, !dbg !1310
  unreachable, !dbg !1310

bb7:                                              ; preds = %bb4
  %7 = getelementptr inbounds { i64, i128 }, ptr %self, i32 0, i32 1, !dbg !1311
  %8 = load i128, ptr %7, align 8, !dbg !1311, !noundef !55
  store i128 %8, ptr %3, align 8, !dbg !1311
  call void @llvm.dbg.declare(metadata ptr %3, metadata !1303, metadata !DIExpression()), !dbg !1312
  ret i128 %8, !dbg !1313

bb6:                                              ; No predecessors!
  unreachable, !dbg !1307
}

; core::option::Option<T>::unwrap_unchecked
; Function Attrs: inlinehint noredzone nounwind
define hidden i64 @"_ZN4core6option15Option$LT$T$GT$16unwrap_unchecked17h6ffe49e66ec0a1eeE"(i64 %0, i64 %1, ptr align 8 %2) unnamed_addr #0 !dbg !1314 {
start:
  %3 = alloca i64, align 8
  %self = alloca { i64, i64 }, align 8
  %4 = getelementptr inbounds { i64, i64 }, ptr %self, i32 0, i32 0
  store i64 %0, ptr %4, align 8
  %5 = getelementptr inbounds { i64, i64 }, ptr %self, i32 0, i32 1
  store i64 %1, ptr %5, align 8
  call void @llvm.dbg.declare(metadata ptr %self, metadata !1331, metadata !DIExpression()), !dbg !1334
  br i1 true, label %bb1, label %bb4, !dbg !1335

bb4:                                              ; preds = %bb1, %start
  %_7 = load i64, ptr %self, align 8, !dbg !1336, !range !786, !noundef !55
  %6 = icmp eq i64 %_7, 0, !dbg !1337
  br i1 %6, label %bb5, label %bb7, !dbg !1337

bb1:                                              ; preds = %start
; call core::option::Option<T>::is_some
  %_4 = call zeroext i1 @"_ZN4core6option15Option$LT$T$GT$7is_some17h8cc103df32571b47E"(ptr align 8 %self) #8, !dbg !1338
  %_3 = xor i1 %_4, true, !dbg !1335
  br i1 %_3, label %bb3, label %bb4, !dbg !1335

bb3:                                              ; preds = %bb1
; call core::panicking::panic
  call void @_ZN4core9panicking5panic17h277234a6cd982fe5E(ptr align 1 @alloc_8a80f09a0a7e5419e3640441b1682996, i64 32, ptr align 8 %2) #7, !dbg !1335
  unreachable, !dbg !1335

bb5:                                              ; preds = %bb4
; call core::hint::unreachable_unchecked
  call void @_ZN4core4hint21unreachable_unchecked17hfb050fc0acfcc6f4E() #7, !dbg !1339
  unreachable, !dbg !1339

bb7:                                              ; preds = %bb4
  %7 = getelementptr inbounds { i64, i64 }, ptr %self, i32 0, i32 1, !dbg !1340
  %8 = load i64, ptr %7, align 8, !dbg !1340, !noundef !55
  store i64 %8, ptr %3, align 8, !dbg !1340
  call void @llvm.dbg.declare(metadata ptr %3, metadata !1332, metadata !DIExpression()), !dbg !1341
  ret i64 %8, !dbg !1342

bb6:                                              ; No predecessors!
  unreachable, !dbg !1336
}

; core::option::Option<T>::unwrap_unchecked
; Function Attrs: inlinehint noredzone nounwind
define hidden i32 @"_ZN4core6option15Option$LT$T$GT$16unwrap_unchecked17h87c7ca0e7f0f9a4eE"(i32 %0, i32 %1, ptr align 8 %2) unnamed_addr #0 !dbg !1343 {
start:
  %3 = alloca i32, align 4
  %self = alloca { i32, i32 }, align 4
  %4 = getelementptr inbounds { i32, i32 }, ptr %self, i32 0, i32 0
  store i32 %0, ptr %4, align 4
  %5 = getelementptr inbounds { i32, i32 }, ptr %self, i32 0, i32 1
  store i32 %1, ptr %5, align 4
  call void @llvm.dbg.declare(metadata ptr %self, metadata !1358, metadata !DIExpression()), !dbg !1361
  br i1 true, label %bb1, label %bb4, !dbg !1362

bb4:                                              ; preds = %bb1, %start
  %6 = load i32, ptr %self, align 4, !dbg !1363, !range !1364, !noundef !55
  %_7 = zext i32 %6 to i64, !dbg !1363
  %7 = icmp eq i64 %_7, 0, !dbg !1365
  br i1 %7, label %bb5, label %bb7, !dbg !1365

bb1:                                              ; preds = %start
; call core::option::Option<T>::is_some
  %_4 = call zeroext i1 @"_ZN4core6option15Option$LT$T$GT$7is_some17hebf6ecc357bd41a4E"(ptr align 4 %self) #8, !dbg !1366
  %_3 = xor i1 %_4, true, !dbg !1362
  br i1 %_3, label %bb3, label %bb4, !dbg !1362

bb3:                                              ; preds = %bb1
; call core::panicking::panic
  call void @_ZN4core9panicking5panic17h277234a6cd982fe5E(ptr align 1 @alloc_8a80f09a0a7e5419e3640441b1682996, i64 32, ptr align 8 %2) #7, !dbg !1362
  unreachable, !dbg !1362

bb5:                                              ; preds = %bb4
; call core::hint::unreachable_unchecked
  call void @_ZN4core4hint21unreachable_unchecked17hfb050fc0acfcc6f4E() #7, !dbg !1367
  unreachable, !dbg !1367

bb7:                                              ; preds = %bb4
  %8 = getelementptr inbounds { i32, i32 }, ptr %self, i32 0, i32 1, !dbg !1368
  %9 = load i32, ptr %8, align 4, !dbg !1368, !noundef !55
  store i32 %9, ptr %3, align 4, !dbg !1368
  call void @llvm.dbg.declare(metadata ptr %3, metadata !1359, metadata !DIExpression()), !dbg !1369
  ret i32 %9, !dbg !1370

bb6:                                              ; No predecessors!
  unreachable, !dbg !1363
}

; core::option::Option<T>::unwrap_unchecked
; Function Attrs: inlinehint noredzone nounwind
define hidden i32 @"_ZN4core6option15Option$LT$T$GT$16unwrap_unchecked17h8bd4a382ccddadc8E"(i32 %0, i32 %1, ptr align 8 %2) unnamed_addr #0 !dbg !1371 {
start:
  %3 = alloca i32, align 4
  %self = alloca { i32, i32 }, align 4
  %4 = getelementptr inbounds { i32, i32 }, ptr %self, i32 0, i32 0
  store i32 %0, ptr %4, align 4
  %5 = getelementptr inbounds { i32, i32 }, ptr %self, i32 0, i32 1
  store i32 %1, ptr %5, align 4
  call void @llvm.dbg.declare(metadata ptr %self, metadata !1388, metadata !DIExpression()), !dbg !1391
  br i1 true, label %bb1, label %bb4, !dbg !1392

bb4:                                              ; preds = %bb1, %start
  %6 = load i32, ptr %self, align 4, !dbg !1393, !range !1364, !noundef !55
  %_7 = zext i32 %6 to i64, !dbg !1393
  %7 = icmp eq i64 %_7, 0, !dbg !1394
  br i1 %7, label %bb5, label %bb7, !dbg !1394

bb1:                                              ; preds = %start
; call core::option::Option<T>::is_some
  %_4 = call zeroext i1 @"_ZN4core6option15Option$LT$T$GT$7is_some17h3f4f7e0df80d0c13E"(ptr align 4 %self) #8, !dbg !1395
  %_3 = xor i1 %_4, true, !dbg !1392
  br i1 %_3, label %bb3, label %bb4, !dbg !1392

bb3:                                              ; preds = %bb1
; call core::panicking::panic
  call void @_ZN4core9panicking5panic17h277234a6cd982fe5E(ptr align 1 @alloc_8a80f09a0a7e5419e3640441b1682996, i64 32, ptr align 8 %2) #7, !dbg !1392
  unreachable, !dbg !1392

bb5:                                              ; preds = %bb4
; call core::hint::unreachable_unchecked
  call void @_ZN4core4hint21unreachable_unchecked17hfb050fc0acfcc6f4E() #7, !dbg !1396
  unreachable, !dbg !1396

bb7:                                              ; preds = %bb4
  %8 = getelementptr inbounds { i32, i32 }, ptr %self, i32 0, i32 1, !dbg !1397
  %9 = load i32, ptr %8, align 4, !dbg !1397, !noundef !55
  store i32 %9, ptr %3, align 4, !dbg !1397
  call void @llvm.dbg.declare(metadata ptr %3, metadata !1389, metadata !DIExpression()), !dbg !1398
  ret i32 %9, !dbg !1399

bb6:                                              ; No predecessors!
  unreachable, !dbg !1393
}

; core::option::Option<T>::unwrap_unchecked
; Function Attrs: inlinehint noredzone nounwind
define hidden i16 @"_ZN4core6option15Option$LT$T$GT$16unwrap_unchecked17h98b046c4f9d21751E"(i16 %0, i16 %1, ptr align 8 %2) unnamed_addr #0 !dbg !1400 {
start:
  %3 = alloca i16, align 2
  %self = alloca { i16, i16 }, align 2
  %4 = getelementptr inbounds { i16, i16 }, ptr %self, i32 0, i32 0
  store i16 %0, ptr %4, align 2
  %5 = getelementptr inbounds { i16, i16 }, ptr %self, i32 0, i32 1
  store i16 %1, ptr %5, align 2
  call void @llvm.dbg.declare(metadata ptr %self, metadata !1417, metadata !DIExpression()), !dbg !1420
  br i1 true, label %bb1, label %bb4, !dbg !1421

bb4:                                              ; preds = %bb1, %start
  %6 = load i16, ptr %self, align 2, !dbg !1422, !range !1280, !noundef !55
  %_7 = zext i16 %6 to i64, !dbg !1422
  %7 = icmp eq i64 %_7, 0, !dbg !1423
  br i1 %7, label %bb5, label %bb7, !dbg !1423

bb1:                                              ; preds = %start
; call core::option::Option<T>::is_some
  %_4 = call zeroext i1 @"_ZN4core6option15Option$LT$T$GT$7is_some17heb0315c80fba1914E"(ptr align 2 %self) #8, !dbg !1424
  %_3 = xor i1 %_4, true, !dbg !1421
  br i1 %_3, label %bb3, label %bb4, !dbg !1421

bb3:                                              ; preds = %bb1
; call core::panicking::panic
  call void @_ZN4core9panicking5panic17h277234a6cd982fe5E(ptr align 1 @alloc_8a80f09a0a7e5419e3640441b1682996, i64 32, ptr align 8 %2) #7, !dbg !1421
  unreachable, !dbg !1421

bb5:                                              ; preds = %bb4
; call core::hint::unreachable_unchecked
  call void @_ZN4core4hint21unreachable_unchecked17hfb050fc0acfcc6f4E() #7, !dbg !1425
  unreachable, !dbg !1425

bb7:                                              ; preds = %bb4
  %8 = getelementptr inbounds { i16, i16 }, ptr %self, i32 0, i32 1, !dbg !1426
  %9 = load i16, ptr %8, align 2, !dbg !1426, !noundef !55
  store i16 %9, ptr %3, align 2, !dbg !1426
  call void @llvm.dbg.declare(metadata ptr %3, metadata !1418, metadata !DIExpression()), !dbg !1427
  ret i16 %9, !dbg !1428

bb6:                                              ; No predecessors!
  unreachable, !dbg !1422
}

; core::option::Option<T>::unwrap_unchecked
; Function Attrs: inlinehint noredzone nounwind
define hidden i8 @"_ZN4core6option15Option$LT$T$GT$16unwrap_unchecked17hc758133fa14e8859E"(i1 zeroext %0, i8 %1, ptr align 8 %2) unnamed_addr #0 !dbg !1429 {
start:
  %3 = alloca i8, align 1
  %self = alloca { i8, i8 }, align 1
  %4 = getelementptr inbounds { i8, i8 }, ptr %self, i32 0, i32 0
  %5 = zext i1 %0 to i8
  store i8 %5, ptr %4, align 1
  %6 = getelementptr inbounds { i8, i8 }, ptr %self, i32 0, i32 1
  store i8 %1, ptr %6, align 1
  call void @llvm.dbg.declare(metadata ptr %self, metadata !1444, metadata !DIExpression()), !dbg !1447
  br i1 true, label %bb1, label %bb4, !dbg !1448

bb4:                                              ; preds = %bb1, %start
  %7 = load i8, ptr %self, align 1, !dbg !1449, !range !780, !noundef !55
  %8 = trunc i8 %7 to i1, !dbg !1449
  %_7 = zext i1 %8 to i64, !dbg !1449
  %9 = icmp eq i64 %_7, 0, !dbg !1450
  br i1 %9, label %bb5, label %bb7, !dbg !1450

bb1:                                              ; preds = %start
; call core::option::Option<T>::is_some
  %_4 = call zeroext i1 @"_ZN4core6option15Option$LT$T$GT$7is_some17h3e22bc49c8d56252E"(ptr align 1 %self) #8, !dbg !1451
  %_3 = xor i1 %_4, true, !dbg !1448
  br i1 %_3, label %bb3, label %bb4, !dbg !1448

bb3:                                              ; preds = %bb1
; call core::panicking::panic
  call void @_ZN4core9panicking5panic17h277234a6cd982fe5E(ptr align 1 @alloc_8a80f09a0a7e5419e3640441b1682996, i64 32, ptr align 8 %2) #7, !dbg !1448
  unreachable, !dbg !1448

bb5:                                              ; preds = %bb4
; call core::hint::unreachable_unchecked
  call void @_ZN4core4hint21unreachable_unchecked17hfb050fc0acfcc6f4E() #7, !dbg !1452
  unreachable, !dbg !1452

bb7:                                              ; preds = %bb4
  %10 = getelementptr inbounds { i8, i8 }, ptr %self, i32 0, i32 1, !dbg !1453
  %11 = load i8, ptr %10, align 1, !dbg !1453, !noundef !55
  store i8 %11, ptr %3, align 1, !dbg !1453
  call void @llvm.dbg.declare(metadata ptr %3, metadata !1445, metadata !DIExpression()), !dbg !1454
  ret i8 %11, !dbg !1455

bb6:                                              ; No predecessors!
  unreachable, !dbg !1449
}

; core::option::Option<T>::unwrap_unchecked
; Function Attrs: inlinehint noredzone nounwind
define hidden i128 @"_ZN4core6option15Option$LT$T$GT$16unwrap_unchecked17he03cf42b1411feaeE"(i64 %0, i128 %1, ptr align 8 %2) unnamed_addr #0 !dbg !1456 {
start:
  %3 = alloca i128, align 8
  %self = alloca { i64, i128 }, align 8
  %4 = getelementptr inbounds { i64, i128 }, ptr %self, i32 0, i32 0
  store i64 %0, ptr %4, align 8
  %5 = getelementptr inbounds { i64, i128 }, ptr %self, i32 0, i32 1
  store i128 %1, ptr %5, align 8
  call void @llvm.dbg.declare(metadata ptr %self, metadata !1473, metadata !DIExpression()), !dbg !1476
  br i1 true, label %bb1, label %bb4, !dbg !1477

bb4:                                              ; preds = %bb1, %start
  %_7 = load i64, ptr %self, align 8, !dbg !1478, !range !786, !noundef !55
  %6 = icmp eq i64 %_7, 0, !dbg !1479
  br i1 %6, label %bb5, label %bb7, !dbg !1479

bb1:                                              ; preds = %start
; call core::option::Option<T>::is_some
  %_4 = call zeroext i1 @"_ZN4core6option15Option$LT$T$GT$7is_some17hbcb07bc4b2324fb1E"(ptr align 8 %self) #8, !dbg !1480
  %_3 = xor i1 %_4, true, !dbg !1477
  br i1 %_3, label %bb3, label %bb4, !dbg !1477

bb3:                                              ; preds = %bb1
; call core::panicking::panic
  call void @_ZN4core9panicking5panic17h277234a6cd982fe5E(ptr align 1 @alloc_8a80f09a0a7e5419e3640441b1682996, i64 32, ptr align 8 %2) #7, !dbg !1477
  unreachable, !dbg !1477

bb5:                                              ; preds = %bb4
; call core::hint::unreachable_unchecked
  call void @_ZN4core4hint21unreachable_unchecked17hfb050fc0acfcc6f4E() #7, !dbg !1481
  unreachable, !dbg !1481

bb7:                                              ; preds = %bb4
  %7 = getelementptr inbounds { i64, i128 }, ptr %self, i32 0, i32 1, !dbg !1482
  %8 = load i128, ptr %7, align 8, !dbg !1482, !noundef !55
  store i128 %8, ptr %3, align 8, !dbg !1482
  call void @llvm.dbg.declare(metadata ptr %3, metadata !1474, metadata !DIExpression()), !dbg !1483
  ret i128 %8, !dbg !1484

bb6:                                              ; No predecessors!
  unreachable, !dbg !1478
}

; core::option::Option<T>::unwrap_unchecked
; Function Attrs: inlinehint noredzone nounwind
define hidden i64 @"_ZN4core6option15Option$LT$T$GT$16unwrap_unchecked17hef0d2a30aa1aa297E"(i64 %0, i64 %1, ptr align 8 %2) unnamed_addr #0 !dbg !1485 {
start:
  %3 = alloca i64, align 8
  %self = alloca { i64, i64 }, align 8
  %4 = getelementptr inbounds { i64, i64 }, ptr %self, i32 0, i32 0
  store i64 %0, ptr %4, align 8
  %5 = getelementptr inbounds { i64, i64 }, ptr %self, i32 0, i32 1
  store i64 %1, ptr %5, align 8
  call void @llvm.dbg.declare(metadata ptr %self, metadata !1489, metadata !DIExpression()), !dbg !1492
  br i1 true, label %bb1, label %bb4, !dbg !1493

bb4:                                              ; preds = %bb1, %start
  %_7 = load i64, ptr %self, align 8, !dbg !1494, !range !786, !noundef !55
  %6 = icmp eq i64 %_7, 0, !dbg !1495
  br i1 %6, label %bb5, label %bb7, !dbg !1495

bb1:                                              ; preds = %start
; call core::option::Option<T>::is_some
  %_4 = call zeroext i1 @"_ZN4core6option15Option$LT$T$GT$7is_some17hf9a885d060e66efeE"(ptr align 8 %self) #8, !dbg !1496
  %_3 = xor i1 %_4, true, !dbg !1493
  br i1 %_3, label %bb3, label %bb4, !dbg !1493

bb3:                                              ; preds = %bb1
; call core::panicking::panic
  call void @_ZN4core9panicking5panic17h277234a6cd982fe5E(ptr align 1 @alloc_8a80f09a0a7e5419e3640441b1682996, i64 32, ptr align 8 %2) #7, !dbg !1493
  unreachable, !dbg !1493

bb5:                                              ; preds = %bb4
; call core::hint::unreachable_unchecked
  call void @_ZN4core4hint21unreachable_unchecked17hfb050fc0acfcc6f4E() #7, !dbg !1497
  unreachable, !dbg !1497

bb7:                                              ; preds = %bb4
  %7 = getelementptr inbounds { i64, i64 }, ptr %self, i32 0, i32 1, !dbg !1498
  %8 = load i64, ptr %7, align 8, !dbg !1498, !noundef !55
  store i64 %8, ptr %3, align 8, !dbg !1498
  call void @llvm.dbg.declare(metadata ptr %3, metadata !1490, metadata !DIExpression()), !dbg !1499
  ret i64 %8, !dbg !1500

bb6:                                              ; No predecessors!
  unreachable, !dbg !1494
}

; core::option::Option<T>::unwrap_unchecked
; Function Attrs: inlinehint noredzone nounwind
define hidden i64 @"_ZN4core6option15Option$LT$T$GT$16unwrap_unchecked17hffb3c99fa6066b4cE"(i64 %0, i64 %1, ptr align 8 %2) unnamed_addr #0 !dbg !1501 {
start:
  %3 = alloca i64, align 8
  %self = alloca { i64, i64 }, align 8
  %4 = getelementptr inbounds { i64, i64 }, ptr %self, i32 0, i32 0
  store i64 %0, ptr %4, align 8
  %5 = getelementptr inbounds { i64, i64 }, ptr %self, i32 0, i32 1
  store i64 %1, ptr %5, align 8
  call void @llvm.dbg.declare(metadata ptr %self, metadata !1518, metadata !DIExpression()), !dbg !1521
  br i1 true, label %bb1, label %bb4, !dbg !1522

bb4:                                              ; preds = %bb1, %start
  %_7 = load i64, ptr %self, align 8, !dbg !1523, !range !786, !noundef !55
  %6 = icmp eq i64 %_7, 0, !dbg !1524
  br i1 %6, label %bb5, label %bb7, !dbg !1524

bb1:                                              ; preds = %start
; call core::option::Option<T>::is_some
  %_4 = call zeroext i1 @"_ZN4core6option15Option$LT$T$GT$7is_some17hf1cefd82818df8a0E"(ptr align 8 %self) #8, !dbg !1525
  %_3 = xor i1 %_4, true, !dbg !1522
  br i1 %_3, label %bb3, label %bb4, !dbg !1522

bb3:                                              ; preds = %bb1
; call core::panicking::panic
  call void @_ZN4core9panicking5panic17h277234a6cd982fe5E(ptr align 1 @alloc_8a80f09a0a7e5419e3640441b1682996, i64 32, ptr align 8 %2) #7, !dbg !1522
  unreachable, !dbg !1522

bb5:                                              ; preds = %bb4
; call core::hint::unreachable_unchecked
  call void @_ZN4core4hint21unreachable_unchecked17hfb050fc0acfcc6f4E() #7, !dbg !1526
  unreachable, !dbg !1526

bb7:                                              ; preds = %bb4
  %7 = getelementptr inbounds { i64, i64 }, ptr %self, i32 0, i32 1, !dbg !1527
  %8 = load i64, ptr %7, align 8, !dbg !1527, !noundef !55
  store i64 %8, ptr %3, align 8, !dbg !1527
  call void @llvm.dbg.declare(metadata ptr %3, metadata !1519, metadata !DIExpression()), !dbg !1528
  ret i64 %8, !dbg !1529

bb6:                                              ; No predecessors!
  unreachable, !dbg !1523
}

; core::option::Option<T>::is_some
; Function Attrs: inlinehint noredzone nounwind
define hidden zeroext i1 @"_ZN4core6option15Option$LT$T$GT$7is_some17h3f4f7e0df80d0c13E"(ptr align 4 %self) unnamed_addr #0 !dbg !1530 {
start:
  %self.dbg.spill = alloca ptr, align 8
  %0 = alloca i8, align 1
  store ptr %self, ptr %self.dbg.spill, align 8
  call void @llvm.dbg.declare(metadata ptr %self.dbg.spill, metadata !1535, metadata !DIExpression()), !dbg !1536
  %1 = load i32, ptr %self, align 4, !dbg !1537, !range !1364, !noundef !55
  %_2 = zext i32 %1 to i64, !dbg !1537
  %2 = icmp eq i64 %_2, 1, !dbg !1538
  br i1 %2, label %bb2, label %bb1, !dbg !1538

bb2:                                              ; preds = %start
  store i8 1, ptr %0, align 1, !dbg !1538
  br label %bb3, !dbg !1538

bb1:                                              ; preds = %start
  store i8 0, ptr %0, align 1, !dbg !1538
  br label %bb3, !dbg !1538

bb3:                                              ; preds = %bb2, %bb1
  %3 = load i8, ptr %0, align 1, !dbg !1539, !range !780, !noundef !55
  %4 = trunc i8 %3 to i1, !dbg !1539
  ret i1 %4, !dbg !1539
}

; core::option::Option<T>::is_some
; Function Attrs: inlinehint noredzone nounwind
define hidden zeroext i1 @"_ZN4core6option15Option$LT$T$GT$7is_some17h8cc103df32571b47E"(ptr align 8 %self) unnamed_addr #0 !dbg !1540 {
start:
  %self.dbg.spill = alloca ptr, align 8
  %0 = alloca i8, align 1
  store ptr %self, ptr %self.dbg.spill, align 8
  call void @llvm.dbg.declare(metadata ptr %self.dbg.spill, metadata !1545, metadata !DIExpression()), !dbg !1546
  %_2 = load i64, ptr %self, align 8, !dbg !1547, !range !786, !noundef !55
  %1 = icmp eq i64 %_2, 1, !dbg !1548
  br i1 %1, label %bb2, label %bb1, !dbg !1548

bb2:                                              ; preds = %start
  store i8 1, ptr %0, align 1, !dbg !1548
  br label %bb3, !dbg !1548

bb1:                                              ; preds = %start
  store i8 0, ptr %0, align 1, !dbg !1548
  br label %bb3, !dbg !1548

bb3:                                              ; preds = %bb2, %bb1
  %2 = load i8, ptr %0, align 1, !dbg !1549, !range !780, !noundef !55
  %3 = trunc i8 %2 to i1, !dbg !1549
  ret i1 %3, !dbg !1549
}

; core::option::Option<T>::is_some
; Function Attrs: inlinehint noredzone nounwind
define hidden zeroext i1 @"_ZN4core6option15Option$LT$T$GT$7is_some17hbcb07bc4b2324fb1E"(ptr align 8 %self) unnamed_addr #0 !dbg !1550 {
start:
  %self.dbg.spill = alloca ptr, align 8
  %0 = alloca i8, align 1
  store ptr %self, ptr %self.dbg.spill, align 8
  call void @llvm.dbg.declare(metadata ptr %self.dbg.spill, metadata !1555, metadata !DIExpression()), !dbg !1556
  %_2 = load i64, ptr %self, align 8, !dbg !1557, !range !786, !noundef !55
  %1 = icmp eq i64 %_2, 1, !dbg !1558
  br i1 %1, label %bb2, label %bb1, !dbg !1558

bb2:                                              ; preds = %start
  store i8 1, ptr %0, align 1, !dbg !1558
  br label %bb3, !dbg !1558

bb1:                                              ; preds = %start
  store i8 0, ptr %0, align 1, !dbg !1558
  br label %bb3, !dbg !1558

bb3:                                              ; preds = %bb2, %bb1
  %2 = load i8, ptr %0, align 1, !dbg !1559, !range !780, !noundef !55
  %3 = trunc i8 %2 to i1, !dbg !1559
  ret i1 %3, !dbg !1559
}

; core::option::Option<T>::is_some
; Function Attrs: inlinehint noredzone nounwind
define hidden zeroext i1 @"_ZN4core6option15Option$LT$T$GT$7is_some17he6f26cec1a7f1c75E"(ptr align 1 %self) unnamed_addr #0 !dbg !1560 {
start:
  %self.dbg.spill = alloca ptr, align 8
  %0 = alloca i8, align 1
  store ptr %self, ptr %self.dbg.spill, align 8
  call void @llvm.dbg.declare(metadata ptr %self.dbg.spill, metadata !1565, metadata !DIExpression()), !dbg !1566
  %1 = load i8, ptr %self, align 1, !dbg !1567, !range !780, !noundef !55
  %2 = trunc i8 %1 to i1, !dbg !1567
  %_2 = zext i1 %2 to i64, !dbg !1567
  %3 = icmp eq i64 %_2, 1, !dbg !1568
  br i1 %3, label %bb2, label %bb1, !dbg !1568

bb2:                                              ; preds = %start
  store i8 1, ptr %0, align 1, !dbg !1568
  br label %bb3, !dbg !1568

bb1:                                              ; preds = %start
  store i8 0, ptr %0, align 1, !dbg !1568
  br label %bb3, !dbg !1568

bb3:                                              ; preds = %bb2, %bb1
  %4 = load i8, ptr %0, align 1, !dbg !1569, !range !780, !noundef !55
  %5 = trunc i8 %4 to i1, !dbg !1569
  ret i1 %5, !dbg !1569
}

; core::option::Option<T>::is_some
; Function Attrs: inlinehint noredzone nounwind
define hidden zeroext i1 @"_ZN4core6option15Option$LT$T$GT$7is_some17heb0315c80fba1914E"(ptr align 2 %self) unnamed_addr #0 !dbg !1570 {
start:
  %self.dbg.spill = alloca ptr, align 8
  %0 = alloca i8, align 1
  store ptr %self, ptr %self.dbg.spill, align 8
  call void @llvm.dbg.declare(metadata ptr %self.dbg.spill, metadata !1575, metadata !DIExpression()), !dbg !1576
  %1 = load i16, ptr %self, align 2, !dbg !1577, !range !1280, !noundef !55
  %_2 = zext i16 %1 to i64, !dbg !1577
  %2 = icmp eq i64 %_2, 1, !dbg !1578
  br i1 %2, label %bb2, label %bb1, !dbg !1578

bb2:                                              ; preds = %start
  store i8 1, ptr %0, align 1, !dbg !1578
  br label %bb3, !dbg !1578

bb1:                                              ; preds = %start
  store i8 0, ptr %0, align 1, !dbg !1578
  br label %bb3, !dbg !1578

bb3:                                              ; preds = %bb2, %bb1
  %3 = load i8, ptr %0, align 1, !dbg !1579, !range !780, !noundef !55
  %4 = trunc i8 %3 to i1, !dbg !1579
  ret i1 %4, !dbg !1579
}

; core::option::Option<T>::is_some
; Function Attrs: inlinehint noredzone nounwind
define hidden zeroext i1 @"_ZN4core6option15Option$LT$T$GT$7is_some17hf1cefd82818df8a0E"(ptr align 8 %self) unnamed_addr #0 !dbg !1580 {
start:
  %self.dbg.spill = alloca ptr, align 8
  %0 = alloca i8, align 1
  store ptr %self, ptr %self.dbg.spill, align 8
  call void @llvm.dbg.declare(metadata ptr %self.dbg.spill, metadata !1585, metadata !DIExpression()), !dbg !1586
  %_2 = load i64, ptr %self, align 8, !dbg !1587, !range !786, !noundef !55
  %1 = icmp eq i64 %_2, 1, !dbg !1588
  br i1 %1, label %bb2, label %bb1, !dbg !1588

bb2:                                              ; preds = %start
  store i8 1, ptr %0, align 1, !dbg !1588
  br label %bb3, !dbg !1588

bb1:                                              ; preds = %start
  store i8 0, ptr %0, align 1, !dbg !1588
  br label %bb3, !dbg !1588

bb3:                                              ; preds = %bb2, %bb1
  %2 = load i8, ptr %0, align 1, !dbg !1589, !range !780, !noundef !55
  %3 = trunc i8 %2 to i1, !dbg !1589
  ret i1 %3, !dbg !1589
}

; core::option::Option<T>::is_some
; Function Attrs: inlinehint noredzone nounwind
define hidden zeroext i1 @"_ZN4core6option15Option$LT$T$GT$7is_some17hfceb4321dea63609E"(ptr align 8 %self) unnamed_addr #0 !dbg !1590 {
start:
  %self.dbg.spill = alloca ptr, align 8
  %0 = alloca i8, align 1
  store ptr %self, ptr %self.dbg.spill, align 8
  call void @llvm.dbg.declare(metadata ptr %self.dbg.spill, metadata !1595, metadata !DIExpression()), !dbg !1596
  %_2 = load i64, ptr %self, align 8, !dbg !1597, !range !786, !noundef !55
  %1 = icmp eq i64 %_2, 1, !dbg !1598
  br i1 %1, label %bb2, label %bb1, !dbg !1598

bb2:                                              ; preds = %start
  store i8 1, ptr %0, align 1, !dbg !1598
  br label %bb3, !dbg !1598

bb1:                                              ; preds = %start
  store i8 0, ptr %0, align 1, !dbg !1598
  br label %bb3, !dbg !1598

bb3:                                              ; preds = %bb2, %bb1
  %2 = load i8, ptr %0, align 1, !dbg !1599, !range !780, !noundef !55
  %3 = trunc i8 %2 to i1, !dbg !1599
  ret i1 %3, !dbg !1599
}

; core::result::Result<T,E>::ok
; Function Attrs: inlinehint noredzone nounwind
define hidden { i16, i16 } @"_ZN4core6result19Result$LT$T$C$E$GT$2ok17h0c1cad382f0ef0b6E"(i16 %0, i16 %1) unnamed_addr #0 !dbg !1600 {
start:
  %x.dbg.spill1 = alloca i16, align 2
  %x.dbg.spill = alloca %"core::num::error::TryFromIntError", align 1
  %2 = alloca { i16, i16 }, align 2
  %self = alloca { i16, i16 }, align 2
  %3 = getelementptr inbounds { i16, i16 }, ptr %self, i32 0, i32 0
  store i16 %0, ptr %3, align 2
  %4 = getelementptr inbounds { i16, i16 }, ptr %self, i32 0, i32 1
  store i16 %1, ptr %4, align 2
  call void @llvm.dbg.declare(metadata ptr %self, metadata !1625, metadata !DIExpression()), !dbg !1630
  call void @llvm.dbg.declare(metadata ptr %x.dbg.spill, metadata !1628, metadata !DIExpression()), !dbg !1631
  %5 = load i16, ptr %self, align 2, !dbg !1632, !range !1280, !noundef !55
  %_2 = zext i16 %5 to i64, !dbg !1632
  %6 = icmp eq i64 %_2, 0, !dbg !1633
  br i1 %6, label %bb3, label %bb1, !dbg !1633

bb3:                                              ; preds = %start
  %7 = getelementptr inbounds { i16, i16 }, ptr %self, i32 0, i32 1, !dbg !1634
  %x = load i16, ptr %7, align 2, !dbg !1634, !noundef !55
  store i16 %x, ptr %x.dbg.spill1, align 2, !dbg !1634
  call void @llvm.dbg.declare(metadata ptr %x.dbg.spill1, metadata !1626, metadata !DIExpression()), !dbg !1635
  %8 = getelementptr inbounds { i16, i16 }, ptr %2, i32 0, i32 1, !dbg !1636
  store i16 %x, ptr %8, align 2, !dbg !1636
  store i16 1, ptr %2, align 2, !dbg !1636
  br label %bb4, !dbg !1637

bb1:                                              ; preds = %start
  store i16 0, ptr %2, align 2, !dbg !1638
  br label %bb4, !dbg !1639

bb2:                                              ; No predecessors!
  unreachable, !dbg !1632

bb4:                                              ; preds = %bb3, %bb1
  %9 = getelementptr inbounds { i16, i16 }, ptr %2, i32 0, i32 0, !dbg !1640
  %10 = load i16, ptr %9, align 2, !dbg !1640, !range !1280, !noundef !55
  %11 = getelementptr inbounds { i16, i16 }, ptr %2, i32 0, i32 1, !dbg !1640
  %12 = load i16, ptr %11, align 2, !dbg !1640
  %13 = insertvalue { i16, i16 } poison, i16 %10, 0, !dbg !1640
  %14 = insertvalue { i16, i16 } %13, i16 %12, 1, !dbg !1640
  ret { i16, i16 } %14, !dbg !1640
}

; core::result::Result<T,E>::ok
; Function Attrs: inlinehint noredzone nounwind
define hidden { i64, i128 } @"_ZN4core6result19Result$LT$T$C$E$GT$2ok17h137446196d681526E"(i128 %0) unnamed_addr #0 !dbg !1641 {
start:
  %x.dbg.spill1 = alloca i128, align 8
  %x.dbg.spill = alloca %"core::convert::Infallible", align 1
  %1 = alloca { i64, i128 }, align 8
  %self = alloca i128, align 8
  store i128 %0, ptr %self, align 8
  call void @llvm.dbg.declare(metadata ptr %self, metadata !1663, metadata !DIExpression()), !dbg !1668
  call void @llvm.dbg.declare(metadata ptr %x.dbg.spill, metadata !1666, metadata !DIExpression()), !dbg !1669
  br i1 true, label %bb3, label %bb1, !dbg !1670

bb3:                                              ; preds = %start
  %x = load i128, ptr %self, align 8, !dbg !1671, !noundef !55
  store i128 %x, ptr %x.dbg.spill1, align 8, !dbg !1671
  call void @llvm.dbg.declare(metadata ptr %x.dbg.spill1, metadata !1664, metadata !DIExpression()), !dbg !1672
  %2 = getelementptr inbounds { i64, i128 }, ptr %1, i32 0, i32 1, !dbg !1673
  store i128 %x, ptr %2, align 8, !dbg !1673
  store i64 1, ptr %1, align 8, !dbg !1673
  br label %bb4, !dbg !1674

bb1:                                              ; preds = %start
  store i64 0, ptr %1, align 8, !dbg !1675
  br label %bb4, !dbg !1676

bb2:                                              ; No predecessors!
  unreachable, !dbg !1677

bb4:                                              ; preds = %bb3, %bb1
  %3 = getelementptr inbounds { i64, i128 }, ptr %1, i32 0, i32 0, !dbg !1678
  %4 = load i64, ptr %3, align 8, !dbg !1678, !range !786, !noundef !55
  %5 = getelementptr inbounds { i64, i128 }, ptr %1, i32 0, i32 1, !dbg !1678
  %6 = load i128, ptr %5, align 8, !dbg !1678
  %7 = insertvalue { i64, i128 } poison, i64 %4, 0, !dbg !1678
  %8 = insertvalue { i64, i128 } %7, i128 %6, 1, !dbg !1678
  ret { i64, i128 } %8, !dbg !1678
}

; core::result::Result<T,E>::ok
; Function Attrs: inlinehint noredzone nounwind
define hidden { i64, i128 } @"_ZN4core6result19Result$LT$T$C$E$GT$2ok17h44f544030869d6e7E"(i128 %0) unnamed_addr #0 !dbg !1679 {
start:
  %x.dbg.spill1 = alloca i128, align 8
  %x.dbg.spill = alloca %"core::convert::Infallible", align 1
  %1 = alloca { i64, i128 }, align 8
  %self = alloca i128, align 8
  store i128 %0, ptr %self, align 8
  call void @llvm.dbg.declare(metadata ptr %self, metadata !1696, metadata !DIExpression()), !dbg !1701
  call void @llvm.dbg.declare(metadata ptr %x.dbg.spill, metadata !1699, metadata !DIExpression()), !dbg !1702
  br i1 true, label %bb3, label %bb1, !dbg !1703

bb3:                                              ; preds = %start
  %x = load i128, ptr %self, align 8, !dbg !1704, !noundef !55
  store i128 %x, ptr %x.dbg.spill1, align 8, !dbg !1704
  call void @llvm.dbg.declare(metadata ptr %x.dbg.spill1, metadata !1697, metadata !DIExpression()), !dbg !1705
  %2 = getelementptr inbounds { i64, i128 }, ptr %1, i32 0, i32 1, !dbg !1706
  store i128 %x, ptr %2, align 8, !dbg !1706
  store i64 1, ptr %1, align 8, !dbg !1706
  br label %bb4, !dbg !1707

bb1:                                              ; preds = %start
  store i64 0, ptr %1, align 8, !dbg !1708
  br label %bb4, !dbg !1709

bb2:                                              ; No predecessors!
  unreachable, !dbg !1710

bb4:                                              ; preds = %bb3, %bb1
  %3 = getelementptr inbounds { i64, i128 }, ptr %1, i32 0, i32 0, !dbg !1711
  %4 = load i64, ptr %3, align 8, !dbg !1711, !range !786, !noundef !55
  %5 = getelementptr inbounds { i64, i128 }, ptr %1, i32 0, i32 1, !dbg !1711
  %6 = load i128, ptr %5, align 8, !dbg !1711
  %7 = insertvalue { i64, i128 } poison, i64 %4, 0, !dbg !1711
  %8 = insertvalue { i64, i128 } %7, i128 %6, 1, !dbg !1711
  ret { i64, i128 } %8, !dbg !1711
}

; core::result::Result<T,E>::ok
; Function Attrs: inlinehint noredzone nounwind
define hidden { i64, i64 } @"_ZN4core6result19Result$LT$T$C$E$GT$2ok17h8a49313773b1f947E"(i64 %0, i64 %1) unnamed_addr #0 !dbg !1712 {
start:
  %x.dbg.spill1 = alloca i64, align 8
  %x.dbg.spill = alloca %"core::num::error::TryFromIntError", align 1
  %2 = alloca { i64, i64 }, align 8
  %self = alloca { i64, i64 }, align 8
  %3 = getelementptr inbounds { i64, i64 }, ptr %self, i32 0, i32 0
  store i64 %0, ptr %3, align 8
  %4 = getelementptr inbounds { i64, i64 }, ptr %self, i32 0, i32 1
  store i64 %1, ptr %4, align 8
  call void @llvm.dbg.declare(metadata ptr %self, metadata !1743, metadata !DIExpression()), !dbg !1748
  call void @llvm.dbg.declare(metadata ptr %x.dbg.spill, metadata !1746, metadata !DIExpression()), !dbg !1749
  %_2 = load i64, ptr %self, align 8, !dbg !1750, !range !786, !noundef !55
  %5 = icmp eq i64 %_2, 0, !dbg !1751
  br i1 %5, label %bb3, label %bb1, !dbg !1751

bb3:                                              ; preds = %start
  %6 = getelementptr inbounds { i64, i64 }, ptr %self, i32 0, i32 1, !dbg !1752
  %x = load i64, ptr %6, align 8, !dbg !1752, !noundef !55
  store i64 %x, ptr %x.dbg.spill1, align 8, !dbg !1752
  call void @llvm.dbg.declare(metadata ptr %x.dbg.spill1, metadata !1744, metadata !DIExpression()), !dbg !1753
  %7 = getelementptr inbounds { i64, i64 }, ptr %2, i32 0, i32 1, !dbg !1754
  store i64 %x, ptr %7, align 8, !dbg !1754
  store i64 1, ptr %2, align 8, !dbg !1754
  br label %bb4, !dbg !1755

bb1:                                              ; preds = %start
  store i64 0, ptr %2, align 8, !dbg !1756
  br label %bb4, !dbg !1757

bb2:                                              ; No predecessors!
  unreachable, !dbg !1750

bb4:                                              ; preds = %bb3, %bb1
  %8 = getelementptr inbounds { i64, i64 }, ptr %2, i32 0, i32 0, !dbg !1758
  %9 = load i64, ptr %8, align 8, !dbg !1758, !range !786, !noundef !55
  %10 = getelementptr inbounds { i64, i64 }, ptr %2, i32 0, i32 1, !dbg !1758
  %11 = load i64, ptr %10, align 8, !dbg !1758
  %12 = insertvalue { i64, i64 } poison, i64 %9, 0, !dbg !1758
  %13 = insertvalue { i64, i64 } %12, i64 %11, 1, !dbg !1758
  ret { i64, i64 } %13, !dbg !1758
}

; core::result::Result<T,E>::ok
; Function Attrs: inlinehint noredzone nounwind
define hidden { i64, i64 } @"_ZN4core6result19Result$LT$T$C$E$GT$2ok17ha7b5a9af6333a40aE"(i64 %0) unnamed_addr #0 !dbg !1759 {
start:
  %x.dbg.spill1 = alloca i64, align 8
  %x.dbg.spill = alloca %"core::convert::Infallible", align 1
  %1 = alloca { i64, i64 }, align 8
  %self = alloca i64, align 8
  store i64 %0, ptr %self, align 8
  call void @llvm.dbg.declare(metadata ptr %self, metadata !1776, metadata !DIExpression()), !dbg !1781
  call void @llvm.dbg.declare(metadata ptr %x.dbg.spill, metadata !1779, metadata !DIExpression()), !dbg !1782
  br i1 true, label %bb3, label %bb1, !dbg !1783

bb3:                                              ; preds = %start
  %x = load i64, ptr %self, align 8, !dbg !1784, !noundef !55
  store i64 %x, ptr %x.dbg.spill1, align 8, !dbg !1784
  call void @llvm.dbg.declare(metadata ptr %x.dbg.spill1, metadata !1777, metadata !DIExpression()), !dbg !1785
  %2 = getelementptr inbounds { i64, i64 }, ptr %1, i32 0, i32 1, !dbg !1786
  store i64 %x, ptr %2, align 8, !dbg !1786
  store i64 1, ptr %1, align 8, !dbg !1786
  br label %bb4, !dbg !1787

bb1:                                              ; preds = %start
  store i64 0, ptr %1, align 8, !dbg !1788
  br label %bb4, !dbg !1789

bb2:                                              ; No predecessors!
  unreachable, !dbg !1790

bb4:                                              ; preds = %bb3, %bb1
  %3 = getelementptr inbounds { i64, i64 }, ptr %1, i32 0, i32 0, !dbg !1791
  %4 = load i64, ptr %3, align 8, !dbg !1791, !range !786, !noundef !55
  %5 = getelementptr inbounds { i64, i64 }, ptr %1, i32 0, i32 1, !dbg !1791
  %6 = load i64, ptr %5, align 8, !dbg !1791
  %7 = insertvalue { i64, i64 } poison, i64 %4, 0, !dbg !1791
  %8 = insertvalue { i64, i64 } %7, i64 %6, 1, !dbg !1791
  ret { i64, i64 } %8, !dbg !1791
}

; core::result::Result<T,E>::ok
; Function Attrs: inlinehint noredzone nounwind
define hidden { i8, i8 } @"_ZN4core6result19Result$LT$T$C$E$GT$2ok17haedf79b723af0b8eE"(i1 zeroext %0, i8 %1) unnamed_addr #0 !dbg !1792 {
start:
  %x.dbg.spill1 = alloca i8, align 1
  %x.dbg.spill = alloca %"core::num::error::TryFromIntError", align 1
  %2 = alloca { i8, i8 }, align 1
  %self = alloca { i8, i8 }, align 1
  %3 = getelementptr inbounds { i8, i8 }, ptr %self, i32 0, i32 0
  %4 = zext i1 %0 to i8
  store i8 %4, ptr %3, align 1
  %5 = getelementptr inbounds { i8, i8 }, ptr %self, i32 0, i32 1
  store i8 %1, ptr %5, align 1
  call void @llvm.dbg.declare(metadata ptr %self, metadata !1810, metadata !DIExpression()), !dbg !1815
  call void @llvm.dbg.declare(metadata ptr %x.dbg.spill, metadata !1813, metadata !DIExpression()), !dbg !1816
  %6 = load i8, ptr %self, align 1, !dbg !1817, !range !780, !noundef !55
  %7 = trunc i8 %6 to i1, !dbg !1817
  %_2 = zext i1 %7 to i64, !dbg !1817
  %8 = icmp eq i64 %_2, 0, !dbg !1818
  br i1 %8, label %bb3, label %bb1, !dbg !1818

bb3:                                              ; preds = %start
  %9 = getelementptr inbounds { i8, i8 }, ptr %self, i32 0, i32 1, !dbg !1819
  %x = load i8, ptr %9, align 1, !dbg !1819, !noundef !55
  store i8 %x, ptr %x.dbg.spill1, align 1, !dbg !1819
  call void @llvm.dbg.declare(metadata ptr %x.dbg.spill1, metadata !1811, metadata !DIExpression()), !dbg !1820
  %10 = getelementptr inbounds { i8, i8 }, ptr %2, i32 0, i32 1, !dbg !1821
  store i8 %x, ptr %10, align 1, !dbg !1821
  store i8 1, ptr %2, align 1, !dbg !1821
  br label %bb4, !dbg !1822

bb1:                                              ; preds = %start
  store i8 0, ptr %2, align 1, !dbg !1823
  br label %bb4, !dbg !1824

bb2:                                              ; No predecessors!
  unreachable, !dbg !1817

bb4:                                              ; preds = %bb3, %bb1
  %11 = getelementptr inbounds { i8, i8 }, ptr %2, i32 0, i32 0, !dbg !1825
  %12 = load i8, ptr %11, align 1, !dbg !1825, !range !780, !noundef !55
  %13 = trunc i8 %12 to i1, !dbg !1825
  %14 = getelementptr inbounds { i8, i8 }, ptr %2, i32 0, i32 1, !dbg !1825
  %15 = load i8, ptr %14, align 1, !dbg !1825
  %16 = zext i1 %13 to i8, !dbg !1825
  %17 = insertvalue { i8, i8 } poison, i8 %16, 0, !dbg !1825
  %18 = insertvalue { i8, i8 } %17, i8 %15, 1, !dbg !1825
  ret { i8, i8 } %18, !dbg !1825
}

; core::result::Result<T,E>::ok
; Function Attrs: inlinehint noredzone nounwind
define hidden { i32, i32 } @"_ZN4core6result19Result$LT$T$C$E$GT$2ok17haf7214bb4dabc4c9E"(i32 %0, i32 %1) unnamed_addr #0 !dbg !1826 {
start:
  %x.dbg.spill1 = alloca i32, align 4
  %x.dbg.spill = alloca %"core::num::error::TryFromIntError", align 1
  %2 = alloca { i32, i32 }, align 4
  %self = alloca { i32, i32 }, align 4
  %3 = getelementptr inbounds { i32, i32 }, ptr %self, i32 0, i32 0
  store i32 %0, ptr %3, align 4
  %4 = getelementptr inbounds { i32, i32 }, ptr %self, i32 0, i32 1
  store i32 %1, ptr %4, align 4
  call void @llvm.dbg.declare(metadata ptr %self, metadata !1844, metadata !DIExpression()), !dbg !1849
  call void @llvm.dbg.declare(metadata ptr %x.dbg.spill, metadata !1847, metadata !DIExpression()), !dbg !1850
  %5 = load i32, ptr %self, align 4, !dbg !1851, !range !1364, !noundef !55
  %_2 = zext i32 %5 to i64, !dbg !1851
  %6 = icmp eq i64 %_2, 0, !dbg !1852
  br i1 %6, label %bb3, label %bb1, !dbg !1852

bb3:                                              ; preds = %start
  %7 = getelementptr inbounds { i32, i32 }, ptr %self, i32 0, i32 1, !dbg !1853
  %x = load i32, ptr %7, align 4, !dbg !1853, !noundef !55
  store i32 %x, ptr %x.dbg.spill1, align 4, !dbg !1853
  call void @llvm.dbg.declare(metadata ptr %x.dbg.spill1, metadata !1845, metadata !DIExpression()), !dbg !1854
  %8 = getelementptr inbounds { i32, i32 }, ptr %2, i32 0, i32 1, !dbg !1855
  store i32 %x, ptr %8, align 4, !dbg !1855
  store i32 1, ptr %2, align 4, !dbg !1855
  br label %bb4, !dbg !1856

bb1:                                              ; preds = %start
  store i32 0, ptr %2, align 4, !dbg !1857
  br label %bb4, !dbg !1858

bb2:                                              ; No predecessors!
  unreachable, !dbg !1851

bb4:                                              ; preds = %bb3, %bb1
  %9 = getelementptr inbounds { i32, i32 }, ptr %2, i32 0, i32 0, !dbg !1859
  %10 = load i32, ptr %9, align 4, !dbg !1859, !range !1364, !noundef !55
  %11 = getelementptr inbounds { i32, i32 }, ptr %2, i32 0, i32 1, !dbg !1859
  %12 = load i32, ptr %11, align 4, !dbg !1859
  %13 = insertvalue { i32, i32 } poison, i32 %10, 0, !dbg !1859
  %14 = insertvalue { i32, i32 } %13, i32 %12, 1, !dbg !1859
  ret { i32, i32 } %14, !dbg !1859
}

; core::result::Result<T,E>::ok
; Function Attrs: inlinehint noredzone nounwind
define hidden { i64, i64 } @"_ZN4core6result19Result$LT$T$C$E$GT$2ok17hc7b6159c462f9639E"(i64 %0) unnamed_addr #0 !dbg !1860 {
start:
  %x.dbg.spill1 = alloca i64, align 8
  %x.dbg.spill = alloca %"core::convert::Infallible", align 1
  %1 = alloca { i64, i64 }, align 8
  %self = alloca i64, align 8
  store i64 %0, ptr %self, align 8
  call void @llvm.dbg.declare(metadata ptr %self, metadata !1877, metadata !DIExpression()), !dbg !1882
  call void @llvm.dbg.declare(metadata ptr %x.dbg.spill, metadata !1880, metadata !DIExpression()), !dbg !1883
  br i1 true, label %bb3, label %bb1, !dbg !1884

bb3:                                              ; preds = %start
  %x = load i64, ptr %self, align 8, !dbg !1885, !noundef !55
  store i64 %x, ptr %x.dbg.spill1, align 8, !dbg !1885
  call void @llvm.dbg.declare(metadata ptr %x.dbg.spill1, metadata !1878, metadata !DIExpression()), !dbg !1886
  %2 = getelementptr inbounds { i64, i64 }, ptr %1, i32 0, i32 1, !dbg !1887
  store i64 %x, ptr %2, align 8, !dbg !1887
  store i64 1, ptr %1, align 8, !dbg !1887
  br label %bb4, !dbg !1888

bb1:                                              ; preds = %start
  store i64 0, ptr %1, align 8, !dbg !1889
  br label %bb4, !dbg !1890

bb2:                                              ; No predecessors!
  unreachable, !dbg !1891

bb4:                                              ; preds = %bb3, %bb1
  %3 = getelementptr inbounds { i64, i64 }, ptr %1, i32 0, i32 0, !dbg !1892
  %4 = load i64, ptr %3, align 8, !dbg !1892, !range !786, !noundef !55
  %5 = getelementptr inbounds { i64, i64 }, ptr %1, i32 0, i32 1, !dbg !1892
  %6 = load i64, ptr %5, align 8, !dbg !1892
  %7 = insertvalue { i64, i64 } poison, i64 %4, 0, !dbg !1892
  %8 = insertvalue { i64, i64 } %7, i64 %6, 1, !dbg !1892
  ret { i64, i64 } %8, !dbg !1892
}

; core::result::Result<T,E>::ok
; Function Attrs: inlinehint noredzone nounwind
define hidden { i64, i64 } @"_ZN4core6result19Result$LT$T$C$E$GT$2ok17he48fcfa32ea417d5E"(i64 %0, i64 %1) unnamed_addr #0 !dbg !1893 {
start:
  %x.dbg.spill1 = alloca i64, align 8
  %x.dbg.spill = alloca %"core::num::error::TryFromIntError", align 1
  %2 = alloca { i64, i64 }, align 8
  %self = alloca { i64, i64 }, align 8
  %3 = getelementptr inbounds { i64, i64 }, ptr %self, i32 0, i32 0
  store i64 %0, ptr %3, align 8
  %4 = getelementptr inbounds { i64, i64 }, ptr %self, i32 0, i32 1
  store i64 %1, ptr %4, align 8
  call void @llvm.dbg.declare(metadata ptr %self, metadata !1911, metadata !DIExpression()), !dbg !1916
  call void @llvm.dbg.declare(metadata ptr %x.dbg.spill, metadata !1914, metadata !DIExpression()), !dbg !1917
  %_2 = load i64, ptr %self, align 8, !dbg !1918, !range !786, !noundef !55
  %5 = icmp eq i64 %_2, 0, !dbg !1919
  br i1 %5, label %bb3, label %bb1, !dbg !1919

bb3:                                              ; preds = %start
  %6 = getelementptr inbounds { i64, i64 }, ptr %self, i32 0, i32 1, !dbg !1920
  %x = load i64, ptr %6, align 8, !dbg !1920, !noundef !55
  store i64 %x, ptr %x.dbg.spill1, align 8, !dbg !1920
  call void @llvm.dbg.declare(metadata ptr %x.dbg.spill1, metadata !1912, metadata !DIExpression()), !dbg !1921
  %7 = getelementptr inbounds { i64, i64 }, ptr %2, i32 0, i32 1, !dbg !1922
  store i64 %x, ptr %7, align 8, !dbg !1922
  store i64 1, ptr %2, align 8, !dbg !1922
  br label %bb4, !dbg !1923

bb1:                                              ; preds = %start
  store i64 0, ptr %2, align 8, !dbg !1924
  br label %bb4, !dbg !1925

bb2:                                              ; No predecessors!
  unreachable, !dbg !1918

bb4:                                              ; preds = %bb3, %bb1
  %8 = getelementptr inbounds { i64, i64 }, ptr %2, i32 0, i32 0, !dbg !1926
  %9 = load i64, ptr %8, align 8, !dbg !1926, !range !786, !noundef !55
  %10 = getelementptr inbounds { i64, i64 }, ptr %2, i32 0, i32 1, !dbg !1926
  %11 = load i64, ptr %10, align 8, !dbg !1926
  %12 = insertvalue { i64, i64 } poison, i64 %9, 0, !dbg !1926
  %13 = insertvalue { i64, i64 } %12, i64 %11, 1, !dbg !1926
  ret { i64, i64 } %13, !dbg !1926
}

; core::convert::num::ptr_try_from_impls::<impl core::convert::TryFrom<u32> for isize>::try_from
; Function Attrs: inlinehint noredzone nounwind
define internal { i64, i64 } @"_ZN4core7convert3num18ptr_try_from_impls69_$LT$impl$u20$core..convert..TryFrom$LT$u32$GT$$u20$for$u20$isize$GT$8try_from17hedf6092b449f9f7eE"(i32 %value) unnamed_addr #0 !dbg !1927 {
start:
  %value.dbg.spill = alloca i32, align 4
  %0 = alloca { i64, i64 }, align 8
  store i32 %value, ptr %value.dbg.spill, align 4
  call void @llvm.dbg.declare(metadata ptr %value.dbg.spill, metadata !1935, metadata !DIExpression()), !dbg !1936
  %_2 = zext i32 %value to i64, !dbg !1937
  %1 = getelementptr inbounds { i64, i64 }, ptr %0, i32 0, i32 1, !dbg !1938
  store i64 %_2, ptr %1, align 8, !dbg !1938
  store i64 0, ptr %0, align 8, !dbg !1938
  %2 = getelementptr inbounds { i64, i64 }, ptr %0, i32 0, i32 0, !dbg !1939
  %3 = load i64, ptr %2, align 8, !dbg !1939, !range !786, !noundef !55
  %4 = getelementptr inbounds { i64, i64 }, ptr %0, i32 0, i32 1, !dbg !1939
  %5 = load i64, ptr %4, align 8, !dbg !1939
  %6 = insertvalue { i64, i64 } poison, i64 %3, 0, !dbg !1939
  %7 = insertvalue { i64, i64 } %6, i64 %5, 1, !dbg !1939
  ret { i64, i64 } %7, !dbg !1939
}

; core::convert::num::ptr_try_from_impls::<impl core::convert::TryFrom<u32> for usize>::try_from
; Function Attrs: inlinehint noredzone nounwind
define internal { i64, i64 } @"_ZN4core7convert3num18ptr_try_from_impls69_$LT$impl$u20$core..convert..TryFrom$LT$u32$GT$$u20$for$u20$usize$GT$8try_from17h7522a628785e88deE"(i32 %value) unnamed_addr #0 !dbg !1940 {
start:
  %value.dbg.spill = alloca i32, align 4
  %0 = alloca { i64, i64 }, align 8
  store i32 %value, ptr %value.dbg.spill, align 4
  call void @llvm.dbg.declare(metadata ptr %value.dbg.spill, metadata !1945, metadata !DIExpression()), !dbg !1946
  %_2 = zext i32 %value to i64, !dbg !1947
  %1 = getelementptr inbounds { i64, i64 }, ptr %0, i32 0, i32 1, !dbg !1948
  store i64 %_2, ptr %1, align 8, !dbg !1948
  store i64 0, ptr %0, align 8, !dbg !1948
  %2 = getelementptr inbounds { i64, i64 }, ptr %0, i32 0, i32 0, !dbg !1949
  %3 = load i64, ptr %2, align 8, !dbg !1949, !range !786, !noundef !55
  %4 = getelementptr inbounds { i64, i64 }, ptr %0, i32 0, i32 1, !dbg !1949
  %5 = load i64, ptr %4, align 8, !dbg !1949
  %6 = insertvalue { i64, i64 } poison, i64 %3, 0, !dbg !1949
  %7 = insertvalue { i64, i64 } %6, i64 %5, 1, !dbg !1949
  ret { i64, i64 } %7, !dbg !1949
}

; core::convert::num::<impl core::convert::TryFrom<u32> for i8>::try_from
; Function Attrs: inlinehint noredzone nounwind
define internal { i8, i8 } @"_ZN4core7convert3num66_$LT$impl$u20$core..convert..TryFrom$LT$u32$GT$$u20$for$u20$i8$GT$8try_from17he9213c02133d4c26E"(i32 %u) unnamed_addr #0 !dbg !1950 {
start:
  %u.dbg.spill = alloca i32, align 4
  %0 = alloca { i8, i8 }, align 1
  store i32 %u, ptr %u.dbg.spill, align 4
  call void @llvm.dbg.declare(metadata ptr %u.dbg.spill, metadata !1955, metadata !DIExpression()), !dbg !1956
  %_2 = icmp ugt i32 %u, 127, !dbg !1957
  br i1 %_2, label %bb1, label %bb2, !dbg !1957

bb2:                                              ; preds = %start
  %_4 = trunc i32 %u to i8, !dbg !1958
  %1 = getelementptr inbounds { i8, i8 }, ptr %0, i32 0, i32 1, !dbg !1959
  store i8 %_4, ptr %1, align 1, !dbg !1959
  store i8 0, ptr %0, align 1, !dbg !1959
  br label %bb3, !dbg !1960

bb1:                                              ; preds = %start
  store i8 1, ptr %0, align 1, !dbg !1961
  br label %bb3, !dbg !1960

bb3:                                              ; preds = %bb2, %bb1
  %2 = getelementptr inbounds { i8, i8 }, ptr %0, i32 0, i32 0, !dbg !1962
  %3 = load i8, ptr %2, align 1, !dbg !1962, !range !780, !noundef !55
  %4 = trunc i8 %3 to i1, !dbg !1962
  %5 = getelementptr inbounds { i8, i8 }, ptr %0, i32 0, i32 1, !dbg !1962
  %6 = load i8, ptr %5, align 1, !dbg !1962
  %7 = zext i1 %4 to i8, !dbg !1962
  %8 = insertvalue { i8, i8 } poison, i8 %7, 0, !dbg !1962
  %9 = insertvalue { i8, i8 } %8, i8 %6, 1, !dbg !1962
  ret { i8, i8 } %9, !dbg !1962
}

; core::convert::num::<impl core::convert::TryFrom<u32> for i16>::try_from
; Function Attrs: inlinehint noredzone nounwind
define internal { i16, i16 } @"_ZN4core7convert3num67_$LT$impl$u20$core..convert..TryFrom$LT$u32$GT$$u20$for$u20$i16$GT$8try_from17ha79451619c09237eE"(i32 %u) unnamed_addr #0 !dbg !1963 {
start:
  %u.dbg.spill = alloca i32, align 4
  %0 = alloca { i16, i16 }, align 2
  store i32 %u, ptr %u.dbg.spill, align 4
  call void @llvm.dbg.declare(metadata ptr %u.dbg.spill, metadata !1968, metadata !DIExpression()), !dbg !1969
  %_2 = icmp ugt i32 %u, 32767, !dbg !1970
  br i1 %_2, label %bb1, label %bb2, !dbg !1970

bb2:                                              ; preds = %start
  %_4 = trunc i32 %u to i16, !dbg !1971
  %1 = getelementptr inbounds { i16, i16 }, ptr %0, i32 0, i32 1, !dbg !1972
  store i16 %_4, ptr %1, align 2, !dbg !1972
  store i16 0, ptr %0, align 2, !dbg !1972
  br label %bb3, !dbg !1973

bb1:                                              ; preds = %start
  store i16 1, ptr %0, align 2, !dbg !1974
  br label %bb3, !dbg !1973

bb3:                                              ; preds = %bb2, %bb1
  %2 = getelementptr inbounds { i16, i16 }, ptr %0, i32 0, i32 0, !dbg !1975
  %3 = load i16, ptr %2, align 2, !dbg !1975, !range !1280, !noundef !55
  %4 = getelementptr inbounds { i16, i16 }, ptr %0, i32 0, i32 1, !dbg !1975
  %5 = load i16, ptr %4, align 2, !dbg !1975
  %6 = insertvalue { i16, i16 } poison, i16 %3, 0, !dbg !1975
  %7 = insertvalue { i16, i16 } %6, i16 %5, 1, !dbg !1975
  ret { i16, i16 } %7, !dbg !1975
}

; core::convert::num::<impl core::convert::TryFrom<u32> for i32>::try_from
; Function Attrs: inlinehint noredzone nounwind
define internal { i32, i32 } @"_ZN4core7convert3num67_$LT$impl$u20$core..convert..TryFrom$LT$u32$GT$$u20$for$u20$i32$GT$8try_from17h7086e6e34a6bf6d4E"(i32 %u) unnamed_addr #0 !dbg !1976 {
start:
  %u.dbg.spill = alloca i32, align 4
  %0 = alloca { i32, i32 }, align 4
  store i32 %u, ptr %u.dbg.spill, align 4
  call void @llvm.dbg.declare(metadata ptr %u.dbg.spill, metadata !1981, metadata !DIExpression()), !dbg !1982
  %_2 = icmp ugt i32 %u, 2147483647, !dbg !1983
  br i1 %_2, label %bb1, label %bb2, !dbg !1983

bb2:                                              ; preds = %start
  %1 = getelementptr inbounds { i32, i32 }, ptr %0, i32 0, i32 1, !dbg !1984
  store i32 %u, ptr %1, align 4, !dbg !1984
  store i32 0, ptr %0, align 4, !dbg !1984
  br label %bb3, !dbg !1985

bb1:                                              ; preds = %start
  store i32 1, ptr %0, align 4, !dbg !1986
  br label %bb3, !dbg !1985

bb3:                                              ; preds = %bb2, %bb1
  %2 = getelementptr inbounds { i32, i32 }, ptr %0, i32 0, i32 0, !dbg !1987
  %3 = load i32, ptr %2, align 4, !dbg !1987, !range !1364, !noundef !55
  %4 = getelementptr inbounds { i32, i32 }, ptr %0, i32 0, i32 1, !dbg !1987
  %5 = load i32, ptr %4, align 4, !dbg !1987
  %6 = insertvalue { i32, i32 } poison, i32 %3, 0, !dbg !1987
  %7 = insertvalue { i32, i32 } %6, i32 %5, 1, !dbg !1987
  ret { i32, i32 } %7, !dbg !1987
}

; <T as core::convert::Into<U>>::into
; Function Attrs: inlinehint noredzone nounwind
define hidden i64 @"_ZN50_$LT$T$u20$as$u20$core..convert..Into$LT$U$GT$$GT$4into17h733163903ed65909E"(i32 %self) unnamed_addr #0 !dbg !1988 {
start:
  %small.dbg.spill.i = alloca i32, align 4
  %self.dbg.spill = alloca i32, align 4
  store i32 %self, ptr %self.dbg.spill, align 4
  call void @llvm.dbg.declare(metadata ptr %self.dbg.spill, metadata !1994, metadata !DIExpression()), !dbg !1997
  store i32 %self, ptr %small.dbg.spill.i, align 4
  call void @llvm.dbg.declare(metadata ptr %small.dbg.spill.i, metadata !1998, metadata !DIExpression()), !dbg !2002
  %0 = zext i32 %self to i64, !dbg !2004
  ret i64 %0, !dbg !2005
}

; <T as core::convert::Into<U>>::into
; Function Attrs: inlinehint noredzone nounwind
define hidden i64 @"_ZN50_$LT$T$u20$as$u20$core..convert..Into$LT$U$GT$$GT$4into17ha8b0eee765a5839cE"(i32 %self) unnamed_addr #0 !dbg !2006 {
start:
  %small.dbg.spill.i = alloca i32, align 4
  %self.dbg.spill = alloca i32, align 4
  store i32 %self, ptr %self.dbg.spill, align 4
  call void @llvm.dbg.declare(metadata ptr %self.dbg.spill, metadata !2010, metadata !DIExpression()), !dbg !2013
  store i32 %self, ptr %small.dbg.spill.i, align 4
  call void @llvm.dbg.declare(metadata ptr %small.dbg.spill.i, metadata !2014, metadata !DIExpression()), !dbg !2018
  %0 = zext i32 %self to i64, !dbg !2020
  ret i64 %0, !dbg !2021
}

; <T as core::convert::Into<U>>::into
; Function Attrs: inlinehint noredzone nounwind
define hidden i128 @"_ZN50_$LT$T$u20$as$u20$core..convert..Into$LT$U$GT$$GT$4into17he76292b4c6f39cd1E"(i32 %self) unnamed_addr #0 !dbg !2022 {
start:
  %small.dbg.spill.i = alloca i32, align 4
  %self.dbg.spill = alloca i32, align 4
  store i32 %self, ptr %self.dbg.spill, align 4
  call void @llvm.dbg.declare(metadata ptr %self.dbg.spill, metadata !2026, metadata !DIExpression()), !dbg !2029
  store i32 %self, ptr %small.dbg.spill.i, align 4
  call void @llvm.dbg.declare(metadata ptr %small.dbg.spill.i, metadata !2030, metadata !DIExpression()), !dbg !2034
  %0 = zext i32 %self to i128, !dbg !2036
  ret i128 %0, !dbg !2037
}

; <T as core::convert::Into<U>>::into
; Function Attrs: inlinehint noredzone nounwind
define hidden i128 @"_ZN50_$LT$T$u20$as$u20$core..convert..Into$LT$U$GT$$GT$4into17heea680037d45d670E"(i32 %self) unnamed_addr #0 !dbg !2038 {
start:
  %small.dbg.spill.i = alloca i32, align 4
  %self.dbg.spill = alloca i32, align 4
  store i32 %self, ptr %self.dbg.spill, align 4
  call void @llvm.dbg.declare(metadata ptr %self.dbg.spill, metadata !2042, metadata !DIExpression()), !dbg !2045
  store i32 %self, ptr %small.dbg.spill.i, align 4
  call void @llvm.dbg.declare(metadata ptr %small.dbg.spill.i, metadata !2046, metadata !DIExpression()), !dbg !2050
  %0 = zext i32 %self to i128, !dbg !2052
  ret i128 %0, !dbg !2053
}

; <f32 as core::ops::arith::MulAssign>::mul_assign
; Function Attrs: inlinehint noredzone nounwind
define internal void @"_ZN51_$LT$f32$u20$as$u20$core..ops..arith..MulAssign$GT$10mul_assign17hfe3073345b523585E"(ptr align 4 %self, float %other) unnamed_addr #0 !dbg !2054 {
start:
  %other.dbg.spill = alloca float, align 4
  %self.dbg.spill = alloca ptr, align 8
  store ptr %self, ptr %self.dbg.spill, align 8
  call void @llvm.dbg.declare(metadata ptr %self.dbg.spill, metadata !2060, metadata !DIExpression()), !dbg !2062
  store float %other, ptr %other.dbg.spill, align 4
  call void @llvm.dbg.declare(metadata ptr %other.dbg.spill, metadata !2061, metadata !DIExpression()), !dbg !2063
  %0 = load float, ptr %self, align 4, !dbg !2064, !noundef !55
  %1 = fmul float %0, %other, !dbg !2064
  store float %1, ptr %self, align 4, !dbg !2064
  ret void, !dbg !2065
}

; <f64 as core::ops::arith::MulAssign>::mul_assign
; Function Attrs: inlinehint noredzone nounwind
define internal void @"_ZN51_$LT$f64$u20$as$u20$core..ops..arith..MulAssign$GT$10mul_assign17h61759c2e216c48ecE"(ptr align 8 %self, double %other) unnamed_addr #0 !dbg !2066 {
start:
  %other.dbg.spill = alloca double, align 8
  %self.dbg.spill = alloca ptr, align 8
  store ptr %self, ptr %self.dbg.spill, align 8
  call void @llvm.dbg.declare(metadata ptr %self.dbg.spill, metadata !2072, metadata !DIExpression()), !dbg !2074
  store double %other, ptr %other.dbg.spill, align 8
  call void @llvm.dbg.declare(metadata ptr %other.dbg.spill, metadata !2073, metadata !DIExpression()), !dbg !2075
  %0 = load double, ptr %self, align 8, !dbg !2076, !noundef !55
  %1 = fmul double %0, %other, !dbg !2076
  store double %1, ptr %self, align 8, !dbg !2076
  ret void, !dbg !2077
}

; <u32 as core::ops::arith::AddAssign>::add_assign
; Function Attrs: inlinehint noredzone nounwind
define internal void @"_ZN51_$LT$u32$u20$as$u20$core..ops..arith..AddAssign$GT$10add_assign17h58d1120e8af445ffE"(ptr align 4 %self, i32 %other) unnamed_addr #0 !dbg !2078 {
start:
  %other.dbg.spill = alloca i32, align 4
  %self.dbg.spill = alloca ptr, align 8
  store ptr %self, ptr %self.dbg.spill, align 8
  call void @llvm.dbg.declare(metadata ptr %self.dbg.spill, metadata !2081, metadata !DIExpression()), !dbg !2083
  store i32 %other, ptr %other.dbg.spill, align 4
  call void @llvm.dbg.declare(metadata ptr %other.dbg.spill, metadata !2082, metadata !DIExpression()), !dbg !2084
  %0 = load i32, ptr %self, align 4, !dbg !2085, !noundef !55
  %1 = call { i32, i1 } @llvm.uadd.with.overflow.i32(i32 %0, i32 %other), !dbg !2085
  %_3.0 = extractvalue { i32, i1 } %1, 0, !dbg !2085
  %_3.1 = extractvalue { i32, i1 } %1, 1, !dbg !2085
  %2 = call i1 @llvm.expect.i1(i1 %_3.1, i1 false), !dbg !2085
  br i1 %2, label %panic, label %bb1, !dbg !2085

bb1:                                              ; preds = %start
  store i32 %_3.0, ptr %self, align 4, !dbg !2085
  ret void, !dbg !2086

panic:                                            ; preds = %start
; call core::panicking::panic
  call void @_ZN4core9panicking5panic17h277234a6cd982fe5E(ptr align 1 @str.3, i64 28, ptr align 8 @alloc_ad54643a37df9c74607a3553535fcb8f) #7, !dbg !2085
  unreachable, !dbg !2085
}

; <u32 as core::ops::bit::BitOrAssign>::bitor_assign
; Function Attrs: inlinehint noredzone nounwind
define internal void @"_ZN51_$LT$u32$u20$as$u20$core..ops..bit..BitOrAssign$GT$12bitor_assign17h3211fc1de6f9f954E"(ptr align 4 %self, i32 %other) unnamed_addr #0 !dbg !2087 {
start:
  %other.dbg.spill = alloca i32, align 4
  %self.dbg.spill = alloca ptr, align 8
  store ptr %self, ptr %self.dbg.spill, align 8
  call void @llvm.dbg.declare(metadata ptr %self.dbg.spill, metadata !2090, metadata !DIExpression()), !dbg !2092
  store i32 %other, ptr %other.dbg.spill, align 4
  call void @llvm.dbg.declare(metadata ptr %other.dbg.spill, metadata !2091, metadata !DIExpression()), !dbg !2093
  %0 = load i32, ptr %self, align 4, !dbg !2094, !noundef !55
  %1 = or i32 %0, %other, !dbg !2094
  store i32 %1, ptr %self, align 4, !dbg !2094
  ret void, !dbg !2095
}

; <u64 as core::ops::arith::AddAssign>::add_assign
; Function Attrs: inlinehint noredzone nounwind
define internal void @"_ZN51_$LT$u64$u20$as$u20$core..ops..arith..AddAssign$GT$10add_assign17hc4c190fca24814a6E"(ptr align 8 %self, i64 %other) unnamed_addr #0 !dbg !2096 {
start:
  %other.dbg.spill = alloca i64, align 8
  %self.dbg.spill = alloca ptr, align 8
  store ptr %self, ptr %self.dbg.spill, align 8
  call void @llvm.dbg.declare(metadata ptr %self.dbg.spill, metadata !2102, metadata !DIExpression()), !dbg !2104
  store i64 %other, ptr %other.dbg.spill, align 8
  call void @llvm.dbg.declare(metadata ptr %other.dbg.spill, metadata !2103, metadata !DIExpression()), !dbg !2105
  %0 = load i64, ptr %self, align 8, !dbg !2106, !noundef !55
  %1 = call { i64, i1 } @llvm.uadd.with.overflow.i64(i64 %0, i64 %other), !dbg !2106
  %_3.0 = extractvalue { i64, i1 } %1, 0, !dbg !2106
  %_3.1 = extractvalue { i64, i1 } %1, 1, !dbg !2106
  %2 = call i1 @llvm.expect.i1(i1 %_3.1, i1 false), !dbg !2106
  br i1 %2, label %panic, label %bb1, !dbg !2106

bb1:                                              ; preds = %start
  store i64 %_3.0, ptr %self, align 8, !dbg !2106
  ret void, !dbg !2107

panic:                                            ; preds = %start
; call core::panicking::panic
  call void @_ZN4core9panicking5panic17h277234a6cd982fe5E(ptr align 1 @str.3, i64 28, ptr align 8 @alloc_ad54643a37df9c74607a3553535fcb8f) #7, !dbg !2106
  unreachable, !dbg !2106
}

; <u64 as core::ops::bit::BitOrAssign>::bitor_assign
; Function Attrs: inlinehint noredzone nounwind
define internal void @"_ZN51_$LT$u64$u20$as$u20$core..ops..bit..BitOrAssign$GT$12bitor_assign17h3d018330c8ff30ecE"(ptr align 8 %self, i64 %other) unnamed_addr #0 !dbg !2108 {
start:
  %other.dbg.spill = alloca i64, align 8
  %self.dbg.spill = alloca ptr, align 8
  store ptr %self, ptr %self.dbg.spill, align 8
  call void @llvm.dbg.declare(metadata ptr %self.dbg.spill, metadata !2111, metadata !DIExpression()), !dbg !2113
  store i64 %other, ptr %other.dbg.spill, align 8
  call void @llvm.dbg.declare(metadata ptr %other.dbg.spill, metadata !2112, metadata !DIExpression()), !dbg !2114
  %0 = load i64, ptr %self, align 8, !dbg !2115, !noundef !55
  %1 = or i64 %0, %other, !dbg !2115
  store i64 %1, ptr %self, align 8, !dbg !2115
  ret void, !dbg !2116
}

; <u32 as core::ops::bit::BitAndAssign>::bitand_assign
; Function Attrs: inlinehint noredzone nounwind
define internal void @"_ZN52_$LT$u32$u20$as$u20$core..ops..bit..BitAndAssign$GT$13bitand_assign17h5c73dbdf1e262afaE"(ptr align 4 %self, i32 %other) unnamed_addr #0 !dbg !2117 {
start:
  %other.dbg.spill = alloca i32, align 4
  %self.dbg.spill = alloca ptr, align 8
  store ptr %self, ptr %self.dbg.spill, align 8
  call void @llvm.dbg.declare(metadata ptr %self.dbg.spill, metadata !2120, metadata !DIExpression()), !dbg !2122
  store i32 %other, ptr %other.dbg.spill, align 4
  call void @llvm.dbg.declare(metadata ptr %other.dbg.spill, metadata !2121, metadata !DIExpression()), !dbg !2123
  %0 = load i32, ptr %self, align 4, !dbg !2124, !noundef !55
  %1 = and i32 %0, %other, !dbg !2124
  store i32 %1, ptr %self, align 4, !dbg !2124
  ret void, !dbg !2125
}

; <u64 as core::ops::bit::BitAndAssign>::bitand_assign
; Function Attrs: inlinehint noredzone nounwind
define internal void @"_ZN52_$LT$u64$u20$as$u20$core..ops..bit..BitAndAssign$GT$13bitand_assign17h86c221404bf7c77bE"(ptr align 8 %self, i64 %other) unnamed_addr #0 !dbg !2126 {
start:
  %other.dbg.spill = alloca i64, align 8
  %self.dbg.spill = alloca ptr, align 8
  store ptr %self, ptr %self.dbg.spill, align 8
  call void @llvm.dbg.declare(metadata ptr %self.dbg.spill, metadata !2129, metadata !DIExpression()), !dbg !2131
  store i64 %other, ptr %other.dbg.spill, align 8
  call void @llvm.dbg.declare(metadata ptr %other.dbg.spill, metadata !2130, metadata !DIExpression()), !dbg !2132
  %0 = load i64, ptr %self, align 8, !dbg !2133, !noundef !55
  %1 = and i64 %0, %other, !dbg !2133
  store i64 %1, ptr %self, align 8, !dbg !2133
  ret void, !dbg !2134
}

; <T as core::convert::TryFrom<U>>::try_from
; Function Attrs: inlinehint noredzone nounwind
define hidden i128 @"_ZN53_$LT$T$u20$as$u20$core..convert..TryFrom$LT$U$GT$$GT$8try_from17h16b754f66dc143eeE"(i32 %value) unnamed_addr #0 !dbg !2135 {
start:
  %value.dbg.spill = alloca i32, align 4
  %0 = alloca i128, align 8
  store i32 %value, ptr %value.dbg.spill, align 4
  call void @llvm.dbg.declare(metadata ptr %value.dbg.spill, metadata !2140, metadata !DIExpression()), !dbg !2143
; call <T as core::convert::Into<U>>::into
  %_2 = call i128 @"_ZN50_$LT$T$u20$as$u20$core..convert..Into$LT$U$GT$$GT$4into17heea680037d45d670E"(i32 %value) #8, !dbg !2144
  store i128 %_2, ptr %0, align 8, !dbg !2145
  %1 = load i128, ptr %0, align 8, !dbg !2146, !noundef !55
  ret i128 %1, !dbg !2146
}

; <T as core::convert::TryFrom<U>>::try_from
; Function Attrs: inlinehint noredzone nounwind
define hidden i64 @"_ZN53_$LT$T$u20$as$u20$core..convert..TryFrom$LT$U$GT$$GT$8try_from17h2ba9e0a711610eaeE"(i32 %value) unnamed_addr #0 !dbg !2147 {
start:
  %value.dbg.spill = alloca i32, align 4
  %0 = alloca i64, align 8
  store i32 %value, ptr %value.dbg.spill, align 4
  call void @llvm.dbg.declare(metadata ptr %value.dbg.spill, metadata !2151, metadata !DIExpression()), !dbg !2153
; call <T as core::convert::Into<U>>::into
  %_2 = call i64 @"_ZN50_$LT$T$u20$as$u20$core..convert..Into$LT$U$GT$$GT$4into17h733163903ed65909E"(i32 %value) #8, !dbg !2154
  store i64 %_2, ptr %0, align 8, !dbg !2155
  %1 = load i64, ptr %0, align 8, !dbg !2156, !noundef !55
  ret i64 %1, !dbg !2156
}

; <T as core::convert::TryFrom<U>>::try_from
; Function Attrs: inlinehint noredzone nounwind
define hidden i128 @"_ZN53_$LT$T$u20$as$u20$core..convert..TryFrom$LT$U$GT$$GT$8try_from17h39346cfb90cdcb76E"(i32 %value) unnamed_addr #0 !dbg !2157 {
start:
  %value.dbg.spill = alloca i32, align 4
  %0 = alloca i128, align 8
  store i32 %value, ptr %value.dbg.spill, align 4
  call void @llvm.dbg.declare(metadata ptr %value.dbg.spill, metadata !2161, metadata !DIExpression()), !dbg !2163
; call <T as core::convert::Into<U>>::into
  %_2 = call i128 @"_ZN50_$LT$T$u20$as$u20$core..convert..Into$LT$U$GT$$GT$4into17he76292b4c6f39cd1E"(i32 %value) #8, !dbg !2164
  store i128 %_2, ptr %0, align 8, !dbg !2165
  %1 = load i128, ptr %0, align 8, !dbg !2166, !noundef !55
  ret i128 %1, !dbg !2166
}

; <T as core::convert::TryFrom<U>>::try_from
; Function Attrs: inlinehint noredzone nounwind
define hidden i64 @"_ZN53_$LT$T$u20$as$u20$core..convert..TryFrom$LT$U$GT$$GT$8try_from17h55964ceb5886a0ccE"(i32 %value) unnamed_addr #0 !dbg !2167 {
start:
  %value.dbg.spill = alloca i32, align 4
  %0 = alloca i64, align 8
  store i32 %value, ptr %value.dbg.spill, align 4
  call void @llvm.dbg.declare(metadata ptr %value.dbg.spill, metadata !2171, metadata !DIExpression()), !dbg !2173
; call <T as core::convert::Into<U>>::into
  %_2 = call i64 @"_ZN50_$LT$T$u20$as$u20$core..convert..Into$LT$U$GT$$GT$4into17ha8b0eee765a5839cE"(i32 %value) #8, !dbg !2174
  store i64 %_2, ptr %0, align 8, !dbg !2175
  %1 = load i64, ptr %0, align 8, !dbg !2176, !noundef !55
  ret i64 %1, !dbg !2176
}

; <T as core::convert::TryInto<U>>::try_into
; Function Attrs: inlinehint noredzone nounwind
define hidden i64 @"_ZN53_$LT$T$u20$as$u20$core..convert..TryInto$LT$U$GT$$GT$8try_into17h03a13f9788befc04E"(i32 %self) unnamed_addr #0 !dbg !2177 {
start:
  %self.dbg.spill = alloca i32, align 4
  store i32 %self, ptr %self.dbg.spill, align 4
  call void @llvm.dbg.declare(metadata ptr %self.dbg.spill, metadata !2180, metadata !DIExpression()), !dbg !2181
; call <T as core::convert::TryFrom<U>>::try_from
  %0 = call i64 @"_ZN53_$LT$T$u20$as$u20$core..convert..TryFrom$LT$U$GT$$GT$8try_from17h2ba9e0a711610eaeE"(i32 %self) #8, !dbg !2182
  ret i64 %0, !dbg !2183
}

; <T as core::convert::TryInto<U>>::try_into
; Function Attrs: inlinehint noredzone nounwind
define hidden { i64, i64 } @"_ZN53_$LT$T$u20$as$u20$core..convert..TryInto$LT$U$GT$$GT$8try_into17h8871e195a3dfc5d1E"(i32 %self) unnamed_addr #0 !dbg !2184 {
start:
  %self.dbg.spill = alloca i32, align 4
  store i32 %self, ptr %self.dbg.spill, align 4
  call void @llvm.dbg.declare(metadata ptr %self.dbg.spill, metadata !2186, metadata !DIExpression()), !dbg !2189
; call core::convert::num::ptr_try_from_impls::<impl core::convert::TryFrom<u32> for usize>::try_from
  %0 = call { i64, i64 } @"_ZN4core7convert3num18ptr_try_from_impls69_$LT$impl$u20$core..convert..TryFrom$LT$u32$GT$$u20$for$u20$usize$GT$8try_from17h7522a628785e88deE"(i32 %self) #8, !dbg !2190
  %1 = extractvalue { i64, i64 } %0, 0, !dbg !2190
  %2 = extractvalue { i64, i64 } %0, 1, !dbg !2190
  %3 = insertvalue { i64, i64 } poison, i64 %1, 0, !dbg !2191
  %4 = insertvalue { i64, i64 } %3, i64 %2, 1, !dbg !2191
  ret { i64, i64 } %4, !dbg !2191
}

; <T as core::convert::TryInto<U>>::try_into
; Function Attrs: inlinehint noredzone nounwind
define hidden i128 @"_ZN53_$LT$T$u20$as$u20$core..convert..TryInto$LT$U$GT$$GT$8try_into17h94ce5e38f71c2700E"(i32 %self) unnamed_addr #0 !dbg !2192 {
start:
  %self.dbg.spill = alloca i32, align 4
  store i32 %self, ptr %self.dbg.spill, align 4
  call void @llvm.dbg.declare(metadata ptr %self.dbg.spill, metadata !2194, metadata !DIExpression()), !dbg !2195
; call <T as core::convert::TryFrom<U>>::try_from
  %0 = call i128 @"_ZN53_$LT$T$u20$as$u20$core..convert..TryFrom$LT$U$GT$$GT$8try_from17h39346cfb90cdcb76E"(i32 %self) #8, !dbg !2196
  ret i128 %0, !dbg !2197
}

; <T as core::convert::TryInto<U>>::try_into
; Function Attrs: inlinehint noredzone nounwind
define hidden { i16, i16 } @"_ZN53_$LT$T$u20$as$u20$core..convert..TryInto$LT$U$GT$$GT$8try_into17h95899d22c3635ffcE"(i32 %self) unnamed_addr #0 !dbg !2198 {
start:
  %self.dbg.spill = alloca i32, align 4
  store i32 %self, ptr %self.dbg.spill, align 4
  call void @llvm.dbg.declare(metadata ptr %self.dbg.spill, metadata !2200, metadata !DIExpression()), !dbg !2203
; call core::convert::num::<impl core::convert::TryFrom<u32> for i16>::try_from
  %0 = call { i16, i16 } @"_ZN4core7convert3num67_$LT$impl$u20$core..convert..TryFrom$LT$u32$GT$$u20$for$u20$i16$GT$8try_from17ha79451619c09237eE"(i32 %self) #8, !dbg !2204
  %1 = extractvalue { i16, i16 } %0, 0, !dbg !2204
  %2 = extractvalue { i16, i16 } %0, 1, !dbg !2204
  %3 = insertvalue { i16, i16 } poison, i16 %1, 0, !dbg !2205
  %4 = insertvalue { i16, i16 } %3, i16 %2, 1, !dbg !2205
  ret { i16, i16 } %4, !dbg !2205
}

; <T as core::convert::TryInto<U>>::try_into
; Function Attrs: inlinehint noredzone nounwind
define hidden { i8, i8 } @"_ZN53_$LT$T$u20$as$u20$core..convert..TryInto$LT$U$GT$$GT$8try_into17h967b353b40dcde47E"(i32 %self) unnamed_addr #0 !dbg !2206 {
start:
  %self.dbg.spill = alloca i32, align 4
  store i32 %self, ptr %self.dbg.spill, align 4
  call void @llvm.dbg.declare(metadata ptr %self.dbg.spill, metadata !2208, metadata !DIExpression()), !dbg !2211
; call core::convert::num::<impl core::convert::TryFrom<u32> for i8>::try_from
  %0 = call { i8, i8 } @"_ZN4core7convert3num66_$LT$impl$u20$core..convert..TryFrom$LT$u32$GT$$u20$for$u20$i8$GT$8try_from17he9213c02133d4c26E"(i32 %self) #8, !dbg !2212
  %1 = extractvalue { i8, i8 } %0, 0, !dbg !2212
  %2 = trunc i8 %1 to i1, !dbg !2212
  %3 = extractvalue { i8, i8 } %0, 1, !dbg !2212
  %4 = zext i1 %2 to i8, !dbg !2213
  %5 = insertvalue { i8, i8 } poison, i8 %4, 0, !dbg !2213
  %6 = insertvalue { i8, i8 } %5, i8 %3, 1, !dbg !2213
  ret { i8, i8 } %6, !dbg !2213
}

; <T as core::convert::TryInto<U>>::try_into
; Function Attrs: inlinehint noredzone nounwind
define hidden i64 @"_ZN53_$LT$T$u20$as$u20$core..convert..TryInto$LT$U$GT$$GT$8try_into17h9a761d755e135024E"(i32 %self) unnamed_addr #0 !dbg !2214 {
start:
  %self.dbg.spill = alloca i32, align 4
  store i32 %self, ptr %self.dbg.spill, align 4
  call void @llvm.dbg.declare(metadata ptr %self.dbg.spill, metadata !2216, metadata !DIExpression()), !dbg !2217
; call <T as core::convert::TryFrom<U>>::try_from
  %0 = call i64 @"_ZN53_$LT$T$u20$as$u20$core..convert..TryFrom$LT$U$GT$$GT$8try_from17h55964ceb5886a0ccE"(i32 %self) #8, !dbg !2218
  ret i64 %0, !dbg !2219
}

; <T as core::convert::TryInto<U>>::try_into
; Function Attrs: inlinehint noredzone nounwind
define hidden { i32, i32 } @"_ZN53_$LT$T$u20$as$u20$core..convert..TryInto$LT$U$GT$$GT$8try_into17ha0ed98d780d6ad6dE"(i32 %self) unnamed_addr #0 !dbg !2220 {
start:
  %self.dbg.spill = alloca i32, align 4
  store i32 %self, ptr %self.dbg.spill, align 4
  call void @llvm.dbg.declare(metadata ptr %self.dbg.spill, metadata !2222, metadata !DIExpression()), !dbg !2225
; call core::convert::num::<impl core::convert::TryFrom<u32> for i32>::try_from
  %0 = call { i32, i32 } @"_ZN4core7convert3num67_$LT$impl$u20$core..convert..TryFrom$LT$u32$GT$$u20$for$u20$i32$GT$8try_from17h7086e6e34a6bf6d4E"(i32 %self) #8, !dbg !2226
  %1 = extractvalue { i32, i32 } %0, 0, !dbg !2226
  %2 = extractvalue { i32, i32 } %0, 1, !dbg !2226
  %3 = insertvalue { i32, i32 } poison, i32 %1, 0, !dbg !2227
  %4 = insertvalue { i32, i32 } %3, i32 %2, 1, !dbg !2227
  ret { i32, i32 } %4, !dbg !2227
}

; <T as core::convert::TryInto<U>>::try_into
; Function Attrs: inlinehint noredzone nounwind
define hidden i128 @"_ZN53_$LT$T$u20$as$u20$core..convert..TryInto$LT$U$GT$$GT$8try_into17hbd961012474623f8E"(i32 %self) unnamed_addr #0 !dbg !2228 {
start:
  %self.dbg.spill = alloca i32, align 4
  store i32 %self, ptr %self.dbg.spill, align 4
  call void @llvm.dbg.declare(metadata ptr %self.dbg.spill, metadata !2230, metadata !DIExpression()), !dbg !2231
; call <T as core::convert::TryFrom<U>>::try_from
  %0 = call i128 @"_ZN53_$LT$T$u20$as$u20$core..convert..TryFrom$LT$U$GT$$GT$8try_from17h16b754f66dc143eeE"(i32 %self) #8, !dbg !2232
  ret i128 %0, !dbg !2233
}

; <T as core::convert::TryInto<U>>::try_into
; Function Attrs: inlinehint noredzone nounwind
define hidden { i64, i64 } @"_ZN53_$LT$T$u20$as$u20$core..convert..TryInto$LT$U$GT$$GT$8try_into17hee6e53aa37e187d5E"(i32 %self) unnamed_addr #0 !dbg !2234 {
start:
  %self.dbg.spill = alloca i32, align 4
  store i32 %self, ptr %self.dbg.spill, align 4
  call void @llvm.dbg.declare(metadata ptr %self.dbg.spill, metadata !2236, metadata !DIExpression()), !dbg !2239
; call core::convert::num::ptr_try_from_impls::<impl core::convert::TryFrom<u32> for isize>::try_from
  %0 = call { i64, i64 } @"_ZN4core7convert3num18ptr_try_from_impls69_$LT$impl$u20$core..convert..TryFrom$LT$u32$GT$$u20$for$u20$isize$GT$8try_from17hedf6092b449f9f7eE"(i32 %self) #8, !dbg !2240
  %1 = extractvalue { i64, i64 } %0, 0, !dbg !2240
  %2 = extractvalue { i64, i64 } %0, 1, !dbg !2240
  %3 = insertvalue { i64, i64 } poison, i64 %1, 0, !dbg !2241
  %4 = insertvalue { i64, i64 } %3, i64 %2, 1, !dbg !2241
  ret { i64, i64 } %4, !dbg !2241
}

; <u8 as core::ops::bit::Shl<u32>>::shl
; Function Attrs: inlinehint noredzone nounwind
define internal i8 @"_ZN53_$LT$u8$u20$as$u20$core..ops..bit..Shl$LT$u32$GT$$GT$3shl17hd148c9bf9bd2d79fE"(i8 %self, i32 %other) unnamed_addr #0 !dbg !2242 {
start:
  %other.dbg.spill = alloca i32, align 4
  %self.dbg.spill = alloca i8, align 1
  store i8 %self, ptr %self.dbg.spill, align 1
  call void @llvm.dbg.declare(metadata ptr %self.dbg.spill, metadata !2247, metadata !DIExpression()), !dbg !2249
  store i32 %other, ptr %other.dbg.spill, align 4
  call void @llvm.dbg.declare(metadata ptr %other.dbg.spill, metadata !2248, metadata !DIExpression()), !dbg !2250
  %_3 = icmp ult i32 %other, 8, !dbg !2251
  %0 = call i1 @llvm.expect.i1(i1 %_3, i1 true), !dbg !2251
  br i1 %0, label %bb1, label %panic, !dbg !2251

bb1:                                              ; preds = %start
  %1 = trunc i32 %other to i8, !dbg !2251
  %2 = and i8 %1, 7, !dbg !2251
  %3 = shl i8 %self, %2, !dbg !2251
  ret i8 %3, !dbg !2252

panic:                                            ; preds = %start
; call core::panicking::panic
  call void @_ZN4core9panicking5panic17h277234a6cd982fe5E(ptr align 1 @str.0, i64 35, ptr align 8 @alloc_0fded4d8d8e6bbd9c8c16895ebaa736f) #7, !dbg !2251
  unreachable, !dbg !2251
}

; <u16 as core::ops::bit::Shl<u32>>::shl
; Function Attrs: inlinehint noredzone nounwind
define internal i16 @"_ZN54_$LT$u16$u20$as$u20$core..ops..bit..Shl$LT$u32$GT$$GT$3shl17h2fc6a8621370f753E"(i16 %self, i32 %other) unnamed_addr #0 !dbg !2253 {
start:
  %other.dbg.spill = alloca i32, align 4
  %self.dbg.spill = alloca i16, align 2
  store i16 %self, ptr %self.dbg.spill, align 2
  call void @llvm.dbg.declare(metadata ptr %self.dbg.spill, metadata !2258, metadata !DIExpression()), !dbg !2260
  store i32 %other, ptr %other.dbg.spill, align 4
  call void @llvm.dbg.declare(metadata ptr %other.dbg.spill, metadata !2259, metadata !DIExpression()), !dbg !2261
  %_3 = icmp ult i32 %other, 16, !dbg !2262
  %0 = call i1 @llvm.expect.i1(i1 %_3, i1 true), !dbg !2262
  br i1 %0, label %bb1, label %panic, !dbg !2262

bb1:                                              ; preds = %start
  %1 = trunc i32 %other to i16, !dbg !2262
  %2 = and i16 %1, 15, !dbg !2262
  %3 = shl i16 %self, %2, !dbg !2262
  ret i16 %3, !dbg !2263

panic:                                            ; preds = %start
; call core::panicking::panic
  call void @_ZN4core9panicking5panic17h277234a6cd982fe5E(ptr align 1 @str.0, i64 35, ptr align 8 @alloc_0fded4d8d8e6bbd9c8c16895ebaa736f) #7, !dbg !2262
  unreachable, !dbg !2262
}

; <u64 as core::ops::bit::Shl<u32>>::shl
; Function Attrs: inlinehint noredzone nounwind
define internal i64 @"_ZN54_$LT$u64$u20$as$u20$core..ops..bit..Shl$LT$u32$GT$$GT$3shl17h505fde79a88fbdd0E"(i64 %self, i32 %other) unnamed_addr #0 !dbg !2264 {
start:
  %other.dbg.spill = alloca i32, align 4
  %self.dbg.spill = alloca i64, align 8
  store i64 %self, ptr %self.dbg.spill, align 8
  call void @llvm.dbg.declare(metadata ptr %self.dbg.spill, metadata !2269, metadata !DIExpression()), !dbg !2271
  store i32 %other, ptr %other.dbg.spill, align 4
  call void @llvm.dbg.declare(metadata ptr %other.dbg.spill, metadata !2270, metadata !DIExpression()), !dbg !2272
  %_3 = icmp ult i32 %other, 64, !dbg !2273
  %0 = call i1 @llvm.expect.i1(i1 %_3, i1 true), !dbg !2273
  br i1 %0, label %bb1, label %panic, !dbg !2273

bb1:                                              ; preds = %start
  %1 = zext i32 %other to i64, !dbg !2273
  %2 = and i64 %1, 63, !dbg !2273
  %3 = shl i64 %self, %2, !dbg !2273
  ret i64 %3, !dbg !2274

panic:                                            ; preds = %start
; call core::panicking::panic
  call void @_ZN4core9panicking5panic17h277234a6cd982fe5E(ptr align 1 @str.0, i64 35, ptr align 8 @alloc_0fded4d8d8e6bbd9c8c16895ebaa736f) #7, !dbg !2273
  unreachable, !dbg !2273
}

; <u64 as core::ops::bit::Shr<u32>>::shr
; Function Attrs: inlinehint noredzone nounwind
define internal i64 @"_ZN54_$LT$u64$u20$as$u20$core..ops..bit..Shr$LT$u32$GT$$GT$3shr17h84439d369dce465dE"(i64 %self, i32 %other) unnamed_addr #0 !dbg !2275 {
start:
  %other.dbg.spill = alloca i32, align 4
  %self.dbg.spill = alloca i64, align 8
  store i64 %self, ptr %self.dbg.spill, align 8
  call void @llvm.dbg.declare(metadata ptr %self.dbg.spill, metadata !2278, metadata !DIExpression()), !dbg !2280
  store i32 %other, ptr %other.dbg.spill, align 4
  call void @llvm.dbg.declare(metadata ptr %other.dbg.spill, metadata !2279, metadata !DIExpression()), !dbg !2281
  %_3 = icmp ult i32 %other, 64, !dbg !2282
  %0 = call i1 @llvm.expect.i1(i1 %_3, i1 true), !dbg !2282
  br i1 %0, label %bb1, label %panic, !dbg !2282

bb1:                                              ; preds = %start
  %1 = zext i32 %other to i64, !dbg !2282
  %2 = and i64 %1, 63, !dbg !2282
  %3 = lshr i64 %self, %2, !dbg !2282
  ret i64 %3, !dbg !2283

panic:                                            ; preds = %start
; call core::panicking::panic
  call void @_ZN4core9panicking5panic17h277234a6cd982fe5E(ptr align 1 @str.1, i64 36, ptr align 8 @alloc_2b4de3d987e5e10473ab9ad6d39dd80a) #7, !dbg !2282
  unreachable, !dbg !2282
}

; <i128 as core::ops::bit::Shl<u32>>::shl
; Function Attrs: inlinehint noredzone nounwind
define internal i128 @"_ZN55_$LT$i128$u20$as$u20$core..ops..bit..Shl$LT$u32$GT$$GT$3shl17h4cf33d531420acf8E"(i128 %self, i32 %other) unnamed_addr #0 !dbg !2284 {
start:
  %other.dbg.spill = alloca i32, align 4
  %self.dbg.spill = alloca i128, align 8
  store i128 %self, ptr %self.dbg.spill, align 8
  call void @llvm.dbg.declare(metadata ptr %self.dbg.spill, metadata !2289, metadata !DIExpression()), !dbg !2291
  store i32 %other, ptr %other.dbg.spill, align 4
  call void @llvm.dbg.declare(metadata ptr %other.dbg.spill, metadata !2290, metadata !DIExpression()), !dbg !2292
  %_3 = icmp ult i32 %other, 128, !dbg !2293
  %0 = call i1 @llvm.expect.i1(i1 %_3, i1 true), !dbg !2293
  br i1 %0, label %bb1, label %panic, !dbg !2293

bb1:                                              ; preds = %start
  %1 = zext i32 %other to i128, !dbg !2293
  %2 = and i128 %1, 127, !dbg !2293
  %3 = shl i128 %self, %2, !dbg !2293
  ret i128 %3, !dbg !2294

panic:                                            ; preds = %start
; call core::panicking::panic
  call void @_ZN4core9panicking5panic17h277234a6cd982fe5E(ptr align 1 @str.0, i64 35, ptr align 8 @alloc_0fded4d8d8e6bbd9c8c16895ebaa736f) #7, !dbg !2293
  unreachable, !dbg !2293
}

; <u32 as core::ops::bit::ShlAssign<i32>>::shl_assign
; Function Attrs: inlinehint noredzone nounwind
define internal void @"_ZN60_$LT$u32$u20$as$u20$core..ops..bit..ShlAssign$LT$i32$GT$$GT$10shl_assign17haaaa032c144d6cc8E"(ptr align 4 %self, i32 %other) unnamed_addr #0 !dbg !2295 {
start:
  %other.dbg.spill = alloca i32, align 4
  %self.dbg.spill = alloca ptr, align 8
  store ptr %self, ptr %self.dbg.spill, align 8
  call void @llvm.dbg.declare(metadata ptr %self.dbg.spill, metadata !2300, metadata !DIExpression()), !dbg !2302
  store i32 %other, ptr %other.dbg.spill, align 4
  call void @llvm.dbg.declare(metadata ptr %other.dbg.spill, metadata !2301, metadata !DIExpression()), !dbg !2303
  %_4 = icmp ult i32 %other, 32, !dbg !2304
  %0 = call i1 @llvm.expect.i1(i1 %_4, i1 true), !dbg !2304
  br i1 %0, label %bb1, label %panic, !dbg !2304

bb1:                                              ; preds = %start
  %1 = load i32, ptr %self, align 4, !dbg !2304, !noundef !55
  %2 = and i32 %other, 31, !dbg !2304
  %3 = shl i32 %1, %2, !dbg !2304
  store i32 %3, ptr %self, align 4, !dbg !2304
  ret void, !dbg !2305

panic:                                            ; preds = %start
; call core::panicking::panic
  call void @_ZN4core9panicking5panic17h277234a6cd982fe5E(ptr align 1 @str.0, i64 35, ptr align 8 @alloc_5f14afd35d94d650c98c9d1e1db404d9) #7, !dbg !2304
  unreachable, !dbg !2304
}

; <u64 as core::ops::bit::ShlAssign<i32>>::shl_assign
; Function Attrs: inlinehint noredzone nounwind
define internal void @"_ZN60_$LT$u64$u20$as$u20$core..ops..bit..ShlAssign$LT$i32$GT$$GT$10shl_assign17h2742068b475e810aE"(ptr align 8 %self, i32 %other) unnamed_addr #0 !dbg !2306 {
start:
  %other.dbg.spill = alloca i32, align 4
  %self.dbg.spill = alloca ptr, align 8
  store ptr %self, ptr %self.dbg.spill, align 8
  call void @llvm.dbg.declare(metadata ptr %self.dbg.spill, metadata !2311, metadata !DIExpression()), !dbg !2313
  store i32 %other, ptr %other.dbg.spill, align 4
  call void @llvm.dbg.declare(metadata ptr %other.dbg.spill, metadata !2312, metadata !DIExpression()), !dbg !2314
  %_4 = icmp ult i32 %other, 64, !dbg !2315
  %0 = call i1 @llvm.expect.i1(i1 %_4, i1 true), !dbg !2315
  br i1 %0, label %bb1, label %panic, !dbg !2315

bb1:                                              ; preds = %start
  %1 = load i64, ptr %self, align 8, !dbg !2315, !noundef !55
  %2 = zext i32 %other to i64, !dbg !2315
  %3 = and i64 %2, 63, !dbg !2315
  %4 = shl i64 %1, %3, !dbg !2315
  store i64 %4, ptr %self, align 8, !dbg !2315
  ret void, !dbg !2316

panic:                                            ; preds = %start
; call core::panicking::panic
  call void @_ZN4core9panicking5panic17h277234a6cd982fe5E(ptr align 1 @str.0, i64 35, ptr align 8 @alloc_5f14afd35d94d650c98c9d1e1db404d9) #7, !dbg !2315
  unreachable, !dbg !2315
}

; <u64 as core::ops::bit::ShrAssign<u32>>::shr_assign
; Function Attrs: inlinehint noredzone nounwind
define internal void @"_ZN60_$LT$u64$u20$as$u20$core..ops..bit..ShrAssign$LT$u32$GT$$GT$10shr_assign17he6950020ff0d6af9E"(ptr align 8 %self, i32 %other) unnamed_addr #0 !dbg !2317 {
start:
  %other.dbg.spill = alloca i32, align 4
  %self.dbg.spill = alloca ptr, align 8
  store ptr %self, ptr %self.dbg.spill, align 8
  call void @llvm.dbg.declare(metadata ptr %self.dbg.spill, metadata !2322, metadata !DIExpression()), !dbg !2324
  store i32 %other, ptr %other.dbg.spill, align 4
  call void @llvm.dbg.declare(metadata ptr %other.dbg.spill, metadata !2323, metadata !DIExpression()), !dbg !2325
  %_3 = icmp ult i32 %other, 64, !dbg !2326
  %0 = call i1 @llvm.expect.i1(i1 %_3, i1 true), !dbg !2326
  br i1 %0, label %bb1, label %panic, !dbg !2326

bb1:                                              ; preds = %start
  %1 = load i64, ptr %self, align 8, !dbg !2326, !noundef !55
  %2 = zext i32 %other to i64, !dbg !2326
  %3 = and i64 %2, 63, !dbg !2326
  %4 = lshr i64 %1, %3, !dbg !2326
  store i64 %4, ptr %self, align 8, !dbg !2326
  ret void, !dbg !2327

panic:                                            ; preds = %start
; call core::panicking::panic
  call void @_ZN4core9panicking5panic17h277234a6cd982fe5E(ptr align 1 @str.1, i64 36, ptr align 8 @alloc_dcb00abf057bf3a126f5d228d8e98222) #7, !dbg !2326
  unreachable, !dbg !2326
}

; compiler_builtins::float::add::add
; Function Attrs: noredzone nounwind
define internal double @_ZN17compiler_builtins5float3add3add17h73e757449c6eb3dfE(double %a, double %b) unnamed_addr #2 !dbg !2328 {
start:
  %rhs.dbg.spill.i = alloca i32, align 4
  %self.dbg.spill.i = alloca i32, align 4
  %round_guard_sticky.dbg.spill = alloca i32, align 4
  %a_significand_i32.dbg.spill = alloca i32, align 4
  %sticky.dbg.spill10 = alloca i64, align 8
  %shift.dbg.spill8 = alloca i64, align 8
  %sticky.dbg.spill5 = alloca i64, align 8
  %shift.dbg.spill = alloca i32, align 4
  %sticky.dbg.spill = alloca i64, align 8
  %subtraction.dbg.spill = alloca i8, align 1
  %result_sign.dbg.spill = alloca i64, align 8
  %significand.dbg.spill2 = alloca i64, align 8
  %exponent.dbg.spill1 = alloca i32, align 4
  %significand.dbg.spill = alloca i64, align 8
  %exponent.dbg.spill = alloca i32, align 4
  %tmp.dbg.spill = alloca i64, align 8
  %qnan_rep.dbg.spill = alloca i64, align 8
  %quiet_bit.dbg.spill = alloca i64, align 8
  %exponent_mask.dbg.spill = alloca i64, align 8
  %abs_mask.dbg.spill = alloca i64, align 8
  %significand_mask.dbg.spill = alloca i64, align 8
  %implicit_bit.dbg.spill = alloca i64, align 8
  %max_exponent.dbg.spill = alloca i32, align 4
  %significand_bits.dbg.spill = alloca i32, align 4
  %one.dbg.spill = alloca i64, align 8
  %b.dbg.spill = alloca double, align 8
  %a.dbg.spill = alloca double, align 8
  %result = alloca i64, align 8
  %_221 = alloca i64, align 8
  %_214 = alloca i64, align 8
  %_193 = alloca i64, align 8
  %_190 = alloca i64, align 8
  %_186 = alloca i64, align 8
  %_182 = alloca i64, align 8
  %_165 = alloca i64, align 8
  %_161 = alloca i64, align 8
  %_147 = alloca i64, align 8
  %_140 = alloca i64, align 8
  %_133 = alloca i64, align 8
  %align = alloca i64, align 8
  %_114 = alloca i64, align 8
  %b_significand = alloca i64, align 8
  %a_significand = alloca i64, align 8
  %b_exponent = alloca i32, align 4
  %a_exponent = alloca i32, align 4
  %_81 = alloca i64, align 8
  %_74 = alloca i64, align 8
  %_70 = alloca i64, align 8
  %_59 = alloca i64, align 8
  %_40 = alloca i64, align 8
  %_37 = alloca i64, align 8
  %_33 = alloca i64, align 8
  %_30 = alloca i64, align 8
  %_27 = alloca i8, align 1
  %b_abs = alloca i64, align 8
  %a_abs = alloca i64, align 8
  %b_rep = alloca i64, align 8
  %a_rep = alloca i64, align 8
  %inf_rep = alloca i64, align 8
  %sign_bit = alloca i64, align 8
  %bits = alloca i64, align 8
  %zero = alloca i64, align 8
  %0 = alloca double, align 8
  store double %a, ptr %a.dbg.spill, align 8
  call void @llvm.dbg.declare(metadata ptr %a.dbg.spill, metadata !2332, metadata !DIExpression()), !dbg !2408
  store double %b, ptr %b.dbg.spill, align 8
  call void @llvm.dbg.declare(metadata ptr %b.dbg.spill, metadata !2333, metadata !DIExpression()), !dbg !2409
  call void @llvm.dbg.declare(metadata ptr %zero, metadata !2336, metadata !DIExpression()), !dbg !2410
  call void @llvm.dbg.declare(metadata ptr %bits, metadata !2338, metadata !DIExpression()), !dbg !2411
  call void @llvm.dbg.declare(metadata ptr %sign_bit, metadata !2348, metadata !DIExpression()), !dbg !2412
  call void @llvm.dbg.declare(metadata ptr %inf_rep, metadata !2354, metadata !DIExpression()), !dbg !2413
  call void @llvm.dbg.declare(metadata ptr %a_rep, metadata !2360, metadata !DIExpression()), !dbg !2414
  call void @llvm.dbg.declare(metadata ptr %b_rep, metadata !2362, metadata !DIExpression()), !dbg !2415
  call void @llvm.dbg.declare(metadata ptr %a_abs, metadata !2364, metadata !DIExpression()), !dbg !2416
  call void @llvm.dbg.declare(metadata ptr %b_abs, metadata !2366, metadata !DIExpression()), !dbg !2417
  call void @llvm.dbg.declare(metadata ptr %a_exponent, metadata !2370, metadata !DIExpression()), !dbg !2418
  call void @llvm.dbg.declare(metadata ptr %b_exponent, metadata !2372, metadata !DIExpression()), !dbg !2419
  call void @llvm.dbg.declare(metadata ptr %a_significand, metadata !2374, metadata !DIExpression()), !dbg !2420
  call void @llvm.dbg.declare(metadata ptr %b_significand, metadata !2376, metadata !DIExpression()), !dbg !2421
  call void @llvm.dbg.declare(metadata ptr %align, metadata !2388, metadata !DIExpression()), !dbg !2422
  call void @llvm.dbg.declare(metadata ptr %result, metadata !2404, metadata !DIExpression()), !dbg !2423
  store i64 1, ptr %one.dbg.spill, align 8, !dbg !2424
  call void @llvm.dbg.declare(metadata ptr %one.dbg.spill, metadata !2334, metadata !DIExpression()), !dbg !2425
  store i64 0, ptr %zero, align 8, !dbg !2426
; call <u32 as compiler_builtins::int::CastInto<u64>>::cast
  %1 = call i64 @"_ZN67_$LT$u32$u20$as$u20$compiler_builtins..int..CastInto$LT$u64$GT$$GT$4cast17h33d4d8243796979bE"(i32 64) #8, !dbg !2427
  store i64 %1, ptr %bits, align 8, !dbg !2427
  store i32 52, ptr %significand_bits.dbg.spill, align 4, !dbg !2428
  call void @llvm.dbg.declare(metadata ptr %significand_bits.dbg.spill, metadata !2340, metadata !DIExpression()), !dbg !2429
  store i32 2047, ptr %max_exponent.dbg.spill, align 4, !dbg !2430
  call void @llvm.dbg.declare(metadata ptr %max_exponent.dbg.spill, metadata !2342, metadata !DIExpression()), !dbg !2431
  store i64 4503599627370496, ptr %implicit_bit.dbg.spill, align 8, !dbg !2432
  call void @llvm.dbg.declare(metadata ptr %implicit_bit.dbg.spill, metadata !2344, metadata !DIExpression()), !dbg !2433
  store i64 4503599627370495, ptr %significand_mask.dbg.spill, align 8, !dbg !2434
  call void @llvm.dbg.declare(metadata ptr %significand_mask.dbg.spill, metadata !2346, metadata !DIExpression()), !dbg !2435
  store i64 -9223372036854775808, ptr %sign_bit, align 8, !dbg !2436
  %_13 = load i64, ptr %sign_bit, align 8, !dbg !2437, !noundef !55
; call <u64 as core::ops::arith::Sub>::sub
  %abs_mask = call i64 @"_ZN45_$LT$u64$u20$as$u20$core..ops..arith..Sub$GT$3sub17h608a15b75058ba6eE"(i64 %_13, i64 1) #8, !dbg !2437
  store i64 %abs_mask, ptr %abs_mask.dbg.spill, align 8, !dbg !2437
  call void @llvm.dbg.declare(metadata ptr %abs_mask.dbg.spill, metadata !2350, metadata !DIExpression()), !dbg !2438
  store i64 9218868437227405312, ptr %exponent_mask.dbg.spill, align 8, !dbg !2439
  call void @llvm.dbg.declare(metadata ptr %exponent_mask.dbg.spill, metadata !2352, metadata !DIExpression()), !dbg !2440
  store i64 9218868437227405312, ptr %inf_rep, align 8, !dbg !2441
; call <u64 as core::ops::bit::Shr<u32>>::shr
  %quiet_bit = call i64 @"_ZN54_$LT$u64$u20$as$u20$core..ops..bit..Shr$LT$u32$GT$$GT$3shr17h84439d369dce465dE"(i64 4503599627370496, i32 1) #8, !dbg !2442
  store i64 %quiet_bit, ptr %quiet_bit.dbg.spill, align 8, !dbg !2442
  call void @llvm.dbg.declare(metadata ptr %quiet_bit.dbg.spill, metadata !2356, metadata !DIExpression()), !dbg !2443
; call <u64 as core::ops::bit::BitOr>::bitor
  %qnan_rep = call i64 @"_ZN45_$LT$u64$u20$as$u20$core..ops..bit..BitOr$GT$5bitor17hb811acd98a3a0282E"(i64 9218868437227405312, i64 %quiet_bit) #8, !dbg !2444
  store i64 %qnan_rep, ptr %qnan_rep.dbg.spill, align 8, !dbg !2444
  call void @llvm.dbg.declare(metadata ptr %qnan_rep.dbg.spill, metadata !2358, metadata !DIExpression()), !dbg !2445
; call <f64 as compiler_builtins::float::Float>::repr
  %2 = call i64 @"_ZN55_$LT$f64$u20$as$u20$compiler_builtins..float..Float$GT$4repr17h51f58407c75750b9E"(double %a) #8, !dbg !2446
  store i64 %2, ptr %a_rep, align 8, !dbg !2446
; call <f64 as compiler_builtins::float::Float>::repr
  %3 = call i64 @"_ZN55_$LT$f64$u20$as$u20$compiler_builtins..float..Float$GT$4repr17h51f58407c75750b9E"(double %b) #8, !dbg !2447
  store i64 %3, ptr %b_rep, align 8, !dbg !2447
  %_22 = load i64, ptr %a_rep, align 8, !dbg !2448, !noundef !55
; call <u64 as core::ops::bit::BitAnd>::bitand
  %4 = call i64 @"_ZN46_$LT$u64$u20$as$u20$core..ops..bit..BitAnd$GT$6bitand17h599812c30472cec0E"(i64 %_22, i64 %abs_mask) #8, !dbg !2448
  store i64 %4, ptr %a_abs, align 8, !dbg !2448
  %_25 = load i64, ptr %b_rep, align 8, !dbg !2449, !noundef !55
; call <u64 as core::ops::bit::BitAnd>::bitand
  %5 = call i64 @"_ZN46_$LT$u64$u20$as$u20$core..ops..bit..BitAnd$GT$6bitand17h599812c30472cec0E"(i64 %_25, i64 %abs_mask) #8, !dbg !2449
  store i64 %5, ptr %b_abs, align 8, !dbg !2449
  %_31 = load i64, ptr %a_abs, align 8, !dbg !2450, !noundef !55
; call <u64 as compiler_builtins::int::Int>::wrapping_sub
  %6 = call i64 @"_ZN51_$LT$u64$u20$as$u20$compiler_builtins..int..Int$GT$12wrapping_sub17h16356dd47c012abcE"(i64 %_31, i64 1) #8, !dbg !2450
  store i64 %6, ptr %_30, align 8, !dbg !2450
  %_34 = load i64, ptr %inf_rep, align 8, !dbg !2451, !noundef !55
; call <u64 as core::ops::arith::Sub>::sub
  %7 = call i64 @"_ZN45_$LT$u64$u20$as$u20$core..ops..arith..Sub$GT$3sub17h608a15b75058ba6eE"(i64 %_34, i64 1) #8, !dbg !2451
  store i64 %7, ptr %_33, align 8, !dbg !2451
; call core::cmp::impls::<impl core::cmp::PartialOrd for u64>::ge
  %_28 = call zeroext i1 @"_ZN4core3cmp5impls55_$LT$impl$u20$core..cmp..PartialOrd$u20$for$u20$u64$GT$2ge17h4b27526ae62f6facE"(ptr align 8 %_30, ptr align 8 %_33) #8, !dbg !2450
  br i1 %_28, label %bb9, label %bb10, !dbg !2450

bb10:                                             ; preds = %start
  %_38 = load i64, ptr %b_abs, align 8, !dbg !2452, !noundef !55
; call <u64 as compiler_builtins::int::Int>::wrapping_sub
  %8 = call i64 @"_ZN51_$LT$u64$u20$as$u20$compiler_builtins..int..Int$GT$12wrapping_sub17h16356dd47c012abcE"(i64 %_38, i64 1) #8, !dbg !2452
  store i64 %8, ptr %_37, align 8, !dbg !2452
  %_41 = load i64, ptr %inf_rep, align 8, !dbg !2453, !noundef !55
; call <u64 as core::ops::arith::Sub>::sub
  %9 = call i64 @"_ZN45_$LT$u64$u20$as$u20$core..ops..arith..Sub$GT$3sub17h608a15b75058ba6eE"(i64 %_41, i64 1) #8, !dbg !2453
  store i64 %9, ptr %_40, align 8, !dbg !2453
; call core::cmp::impls::<impl core::cmp::PartialOrd for u64>::ge
  %_35 = call zeroext i1 @"_ZN4core3cmp5impls55_$LT$impl$u20$core..cmp..PartialOrd$u20$for$u20$u64$GT$2ge17h4b27526ae62f6facE"(ptr align 8 %_37, ptr align 8 %_40) #8, !dbg !2452
  %10 = zext i1 %_35 to i8, !dbg !2450
  store i8 %10, ptr %_27, align 1, !dbg !2450
  br label %bb11, !dbg !2450

bb9:                                              ; preds = %start
  store i8 1, ptr %_27, align 1, !dbg !2450
  br label %bb11, !dbg !2450

bb11:                                             ; preds = %bb10, %bb9
  %11 = load i8, ptr %_27, align 1, !dbg !2450, !range !780, !noundef !55
  %12 = trunc i8 %11 to i1, !dbg !2450
  br i1 %12, label %bb18, label %bb50, !dbg !2450

bb50:                                             ; preds = %bb47, %bb11
; call core::cmp::impls::<impl core::cmp::PartialOrd for u64>::gt
  %_82 = call zeroext i1 @"_ZN4core3cmp5impls55_$LT$impl$u20$core..cmp..PartialOrd$u20$for$u20$u64$GT$2gt17hfcaadc29729dab19E"(ptr align 8 %b_abs, ptr align 8 %a_abs) #8, !dbg !2454
  br i1 %_82, label %bb52, label %bb53, !dbg !2454

bb18:                                             ; preds = %bb11
; call core::cmp::impls::<impl core::cmp::PartialOrd for u64>::gt
  %_42 = call zeroext i1 @"_ZN4core3cmp5impls55_$LT$impl$u20$core..cmp..PartialOrd$u20$for$u20$u64$GT$2gt17hfcaadc29729dab19E"(ptr align 8 %a_abs, ptr align 8 %inf_rep) #8, !dbg !2455
  br i1 %_42, label %bb20, label %bb22, !dbg !2455

bb22:                                             ; preds = %bb18
; call core::cmp::impls::<impl core::cmp::PartialOrd for u64>::gt
  %_48 = call zeroext i1 @"_ZN4core3cmp5impls55_$LT$impl$u20$core..cmp..PartialOrd$u20$for$u20$u64$GT$2gt17hfcaadc29729dab19E"(ptr align 8 %b_abs, ptr align 8 %inf_rep) #8, !dbg !2456
  br i1 %_48, label %bb24, label %bb26, !dbg !2456

bb20:                                             ; preds = %bb18
  %_46 = load i64, ptr %a_abs, align 8, !dbg !2457, !noundef !55
; call <u64 as core::ops::bit::BitOr>::bitor
  %_45 = call i64 @"_ZN45_$LT$u64$u20$as$u20$core..ops..bit..BitOr$GT$5bitor17hb811acd98a3a0282E"(i64 %_46, i64 %quiet_bit) #8, !dbg !2457
; call <f64 as compiler_builtins::float::Float>::from_repr
  %13 = call double @"_ZN55_$LT$f64$u20$as$u20$compiler_builtins..float..Float$GT$9from_repr17hf793a5a534c045b4E"(i64 %_45) #8, !dbg !2458
  store double %13, ptr %0, align 8, !dbg !2458
  br label %bb146, !dbg !2458

bb146:                                            ; preds = %bb145, %bb119, %bb95, %bb49, %bb46, %bb42, %bb37, %bb34, %bb33, %bb24, %bb20
  %14 = load double, ptr %0, align 8, !dbg !2459, !noundef !55
  ret double %14, !dbg !2459

bb26:                                             ; preds = %bb22
; call core::cmp::impls::<impl core::cmp::PartialEq for u64>::eq
  %_54 = call zeroext i1 @"_ZN4core3cmp5impls54_$LT$impl$u20$core..cmp..PartialEq$u20$for$u20$u64$GT$2eq17hacd23e06e23a5367E"(ptr align 8 %a_abs, ptr align 8 %inf_rep) #8, !dbg !2460
  br i1 %_54, label %bb28, label %bb35, !dbg !2460

bb24:                                             ; preds = %bb22
  %_52 = load i64, ptr %b_abs, align 8, !dbg !2461, !noundef !55
; call <u64 as core::ops::bit::BitOr>::bitor
  %_51 = call i64 @"_ZN45_$LT$u64$u20$as$u20$core..ops..bit..BitOr$GT$5bitor17hb811acd98a3a0282E"(i64 %_52, i64 %quiet_bit) #8, !dbg !2461
; call <f64 as compiler_builtins::float::Float>::from_repr
  %15 = call double @"_ZN55_$LT$f64$u20$as$u20$compiler_builtins..float..Float$GT$9from_repr17hf793a5a534c045b4E"(i64 %_51) #8, !dbg !2462
  store double %15, ptr %0, align 8, !dbg !2462
  br label %bb146, !dbg !2462

bb35:                                             ; preds = %bb26
; call core::cmp::impls::<impl core::cmp::PartialEq for u64>::eq
  %_64 = call zeroext i1 @"_ZN4core3cmp5impls54_$LT$impl$u20$core..cmp..PartialEq$u20$for$u20$u64$GT$2eq17hacd23e06e23a5367E"(ptr align 8 %b_abs, ptr align 8 %inf_rep) #8, !dbg !2463
  br i1 %_64, label %bb37, label %bb38, !dbg !2463

bb28:                                             ; preds = %bb26
; call <f64 as compiler_builtins::float::Float>::repr
  %_60 = call i64 @"_ZN55_$LT$f64$u20$as$u20$compiler_builtins..float..Float$GT$4repr17h51f58407c75750b9E"(double %a) #8, !dbg !2464
; call <f64 as compiler_builtins::float::Float>::repr
  %_61 = call i64 @"_ZN55_$LT$f64$u20$as$u20$compiler_builtins..float..Float$GT$4repr17h51f58407c75750b9E"(double %b) #8, !dbg !2465
; call <u64 as core::ops::bit::BitXor>::bitxor
  %16 = call i64 @"_ZN46_$LT$u64$u20$as$u20$core..ops..bit..BitXor$GT$6bitxor17h9a8310a5fd703d16E"(i64 %_60, i64 %_61) #8, !dbg !2466
  store i64 %16, ptr %_59, align 8, !dbg !2466
; call core::cmp::impls::<impl core::cmp::PartialEq for u64>::eq
  %_57 = call zeroext i1 @"_ZN4core3cmp5impls54_$LT$impl$u20$core..cmp..PartialEq$u20$for$u20$u64$GT$2eq17hacd23e06e23a5367E"(ptr align 8 %_59, ptr align 8 %sign_bit) #8, !dbg !2466
  br i1 %_57, label %bb33, label %bb34, !dbg !2466

bb34:                                             ; preds = %bb28
  store double %a, ptr %0, align 8, !dbg !2467
  br label %bb146, !dbg !2468

bb33:                                             ; preds = %bb28
; call <f64 as compiler_builtins::float::Float>::from_repr
  %17 = call double @"_ZN55_$LT$f64$u20$as$u20$compiler_builtins..float..Float$GT$9from_repr17hf793a5a534c045b4E"(i64 %qnan_rep) #8, !dbg !2469
  store double %17, ptr %0, align 8, !dbg !2469
  br label %bb146, !dbg !2469

bb38:                                             ; preds = %bb35
  store i64 0, ptr %_70, align 8, !dbg !2470
; call core::cmp::impls::<impl core::cmp::PartialEq for u64>::eq
  %_67 = call zeroext i1 @"_ZN4core3cmp5impls54_$LT$impl$u20$core..cmp..PartialEq$u20$for$u20$u64$GT$2eq17hacd23e06e23a5367E"(ptr align 8 %a_abs, ptr align 8 %_70) #8, !dbg !2471
  br i1 %_67, label %bb40, label %bb47, !dbg !2471

bb37:                                             ; preds = %bb35
  store double %b, ptr %0, align 8, !dbg !2472
  br label %bb146, !dbg !2473

bb47:                                             ; preds = %bb38
  store i64 0, ptr %_81, align 8, !dbg !2476
; call core::cmp::impls::<impl core::cmp::PartialEq for u64>::eq
  %_78 = call zeroext i1 @"_ZN4core3cmp5impls54_$LT$impl$u20$core..cmp..PartialEq$u20$for$u20$u64$GT$2eq17hacd23e06e23a5367E"(ptr align 8 %b_abs, ptr align 8 %_81) #8, !dbg !2477
  br i1 %_78, label %bb49, label %bb50, !dbg !2477

bb40:                                             ; preds = %bb38
  store i64 0, ptr %_74, align 8, !dbg !2478
; call core::cmp::impls::<impl core::cmp::PartialEq for u64>::eq
  %_71 = call zeroext i1 @"_ZN4core3cmp5impls54_$LT$impl$u20$core..cmp..PartialEq$u20$for$u20$u64$GT$2eq17hacd23e06e23a5367E"(ptr align 8 %b_abs, ptr align 8 %_74) #8, !dbg !2479
  br i1 %_71, label %bb42, label %bb46, !dbg !2479

bb46:                                             ; preds = %bb40
  store double %b, ptr %0, align 8, !dbg !2480
  br label %bb146, !dbg !2481

bb42:                                             ; preds = %bb40
; call <f64 as compiler_builtins::float::Float>::repr
  %_76 = call i64 @"_ZN55_$LT$f64$u20$as$u20$compiler_builtins..float..Float$GT$4repr17h51f58407c75750b9E"(double %a) #8, !dbg !2482
; call <f64 as compiler_builtins::float::Float>::repr
  %_77 = call i64 @"_ZN55_$LT$f64$u20$as$u20$compiler_builtins..float..Float$GT$4repr17h51f58407c75750b9E"(double %b) #8, !dbg !2483
; call <u64 as core::ops::bit::BitAnd>::bitand
  %_75 = call i64 @"_ZN46_$LT$u64$u20$as$u20$core..ops..bit..BitAnd$GT$6bitand17h599812c30472cec0E"(i64 %_76, i64 %_77) #8, !dbg !2482
; call <f64 as compiler_builtins::float::Float>::from_repr
  %18 = call double @"_ZN55_$LT$f64$u20$as$u20$compiler_builtins..float..Float$GT$9from_repr17hf793a5a534c045b4E"(i64 %_75) #8, !dbg !2484
  store double %18, ptr %0, align 8, !dbg !2484
  br label %bb146, !dbg !2484

bb49:                                             ; preds = %bb47
  store double %a, ptr %0, align 8, !dbg !2485
  br label %bb146, !dbg !2473

bb53:                                             ; preds = %bb52, %bb50
  %_90 = load i64, ptr %a_rep, align 8, !dbg !2486, !noundef !55
; call <u64 as core::ops::bit::BitAnd>::bitand
  %_89 = call i64 @"_ZN46_$LT$u64$u20$as$u20$core..ops..bit..BitAnd$GT$6bitand17h599812c30472cec0E"(i64 %_90, i64 9218868437227405312) #8, !dbg !2487
; call <u64 as core::ops::bit::Shr<u32>>::shr
  %_88 = call i64 @"_ZN54_$LT$u64$u20$as$u20$core..ops..bit..Shr$LT$u32$GT$$GT$3shr17h84439d369dce465dE"(i64 %_89, i32 52) #8, !dbg !2488
; call <u64 as compiler_builtins::int::CastInto<i32>>::cast
  %19 = call i32 @"_ZN67_$LT$u64$u20$as$u20$compiler_builtins..int..CastInto$LT$i32$GT$$GT$4cast17h3f5975c79e50e928E"(i64 %_88) #8, !dbg !2488
  store i32 %19, ptr %a_exponent, align 4, !dbg !2488
  %_94 = load i64, ptr %b_rep, align 8, !dbg !2489, !noundef !55
; call <u64 as core::ops::bit::BitAnd>::bitand
  %_93 = call i64 @"_ZN46_$LT$u64$u20$as$u20$core..ops..bit..BitAnd$GT$6bitand17h599812c30472cec0E"(i64 %_94, i64 9218868437227405312) #8, !dbg !2490
; call <u64 as core::ops::bit::Shr<u32>>::shr
  %_92 = call i64 @"_ZN54_$LT$u64$u20$as$u20$core..ops..bit..Shr$LT$u32$GT$$GT$3shr17h84439d369dce465dE"(i64 %_93, i32 52) #8, !dbg !2491
; call <u64 as compiler_builtins::int::CastInto<i32>>::cast
  %20 = call i32 @"_ZN67_$LT$u64$u20$as$u20$compiler_builtins..int..CastInto$LT$i32$GT$$GT$4cast17h3f5975c79e50e928E"(i64 %_92) #8, !dbg !2491
  store i32 %20, ptr %b_exponent, align 4, !dbg !2491
  %_96 = load i64, ptr %a_rep, align 8, !dbg !2492, !noundef !55
; call <u64 as core::ops::bit::BitAnd>::bitand
  %21 = call i64 @"_ZN46_$LT$u64$u20$as$u20$core..ops..bit..BitAnd$GT$6bitand17h599812c30472cec0E"(i64 %_96, i64 4503599627370495) #8, !dbg !2492
  store i64 %21, ptr %a_significand, align 8, !dbg !2492
  %_98 = load i64, ptr %b_rep, align 8, !dbg !2493, !noundef !55
; call <u64 as core::ops::bit::BitAnd>::bitand
  %22 = call i64 @"_ZN46_$LT$u64$u20$as$u20$core..ops..bit..BitAnd$GT$6bitand17h599812c30472cec0E"(i64 %_98, i64 4503599627370495) #8, !dbg !2493
  store i64 %22, ptr %b_significand, align 8, !dbg !2493
  %_99 = load i32, ptr %a_exponent, align 4, !dbg !2494, !noundef !55
  %23 = icmp eq i32 %_99, 0, !dbg !2494
  br i1 %23, label %bb62, label %bb64, !dbg !2494

bb52:                                             ; preds = %bb50
  %tmp = load i64, ptr %a_rep, align 8, !dbg !2495, !noundef !55
  store i64 %tmp, ptr %tmp.dbg.spill, align 8, !dbg !2495
  call void @llvm.dbg.declare(metadata ptr %tmp.dbg.spill, metadata !2368, metadata !DIExpression()), !dbg !2496
  %_86 = load i64, ptr %b_rep, align 8, !dbg !2497, !noundef !55
  store i64 %_86, ptr %a_rep, align 8, !dbg !2498
  store i64 %tmp, ptr %b_rep, align 8, !dbg !2499
  br label %bb53, !dbg !2500

bb62:                                             ; preds = %bb53
  %_103 = load i64, ptr %a_significand, align 8, !dbg !2501, !noundef !55
; call <f64 as compiler_builtins::float::Float>::normalize
  %24 = call { i32, i64 } @"_ZN55_$LT$f64$u20$as$u20$compiler_builtins..float..Float$GT$9normalize17h50841c3572453917E"(i64 %_103) #8, !dbg !2502
  %_102.0 = extractvalue { i32, i64 } %24, 0, !dbg !2502
  %_102.1 = extractvalue { i32, i64 } %24, 1, !dbg !2502
  store i32 %_102.0, ptr %exponent.dbg.spill, align 4, !dbg !2503
  call void @llvm.dbg.declare(metadata ptr %exponent.dbg.spill, metadata !2378, metadata !DIExpression()), !dbg !2504
  store i64 %_102.1, ptr %significand.dbg.spill, align 8, !dbg !2505
  call void @llvm.dbg.declare(metadata ptr %significand.dbg.spill, metadata !2380, metadata !DIExpression()), !dbg !2506
  store i32 %_102.0, ptr %a_exponent, align 4, !dbg !2507
  store i64 %_102.1, ptr %a_significand, align 8, !dbg !2508
  br label %bb64, !dbg !2509

bb64:                                             ; preds = %bb62, %bb53
  %_104 = load i32, ptr %b_exponent, align 4, !dbg !2510, !noundef !55
  %25 = icmp eq i32 %_104, 0, !dbg !2510
  br i1 %25, label %bb65, label %bb67, !dbg !2510

bb65:                                             ; preds = %bb64
  %_108 = load i64, ptr %b_significand, align 8, !dbg !2511, !noundef !55
; call <f64 as compiler_builtins::float::Float>::normalize
  %26 = call { i32, i64 } @"_ZN55_$LT$f64$u20$as$u20$compiler_builtins..float..Float$GT$9normalize17h50841c3572453917E"(i64 %_108) #8, !dbg !2512
  %_107.0 = extractvalue { i32, i64 } %26, 0, !dbg !2512
  %_107.1 = extractvalue { i32, i64 } %26, 1, !dbg !2512
  store i32 %_107.0, ptr %exponent.dbg.spill1, align 4, !dbg !2513
  call void @llvm.dbg.declare(metadata ptr %exponent.dbg.spill1, metadata !2381, metadata !DIExpression()), !dbg !2514
  store i64 %_107.1, ptr %significand.dbg.spill2, align 8, !dbg !2515
  call void @llvm.dbg.declare(metadata ptr %significand.dbg.spill2, metadata !2383, metadata !DIExpression()), !dbg !2516
  store i32 %_107.0, ptr %b_exponent, align 4, !dbg !2517
  store i64 %_107.1, ptr %b_significand, align 8, !dbg !2518
  br label %bb67, !dbg !2519

bb67:                                             ; preds = %bb65, %bb64
  %_110 = load i64, ptr %a_rep, align 8, !dbg !2520, !noundef !55
  %_111 = load i64, ptr %sign_bit, align 8, !dbg !2521, !noundef !55
; call <u64 as core::ops::bit::BitAnd>::bitand
  %result_sign = call i64 @"_ZN46_$LT$u64$u20$as$u20$core..ops..bit..BitAnd$GT$6bitand17h599812c30472cec0E"(i64 %_110, i64 %_111) #8, !dbg !2520
  store i64 %result_sign, ptr %result_sign.dbg.spill, align 8, !dbg !2520
  call void @llvm.dbg.declare(metadata ptr %result_sign.dbg.spill, metadata !2384, metadata !DIExpression()), !dbg !2522
  %_116 = load i64, ptr %a_rep, align 8, !dbg !2523, !noundef !55
  %_117 = load i64, ptr %b_rep, align 8, !dbg !2524, !noundef !55
; call <u64 as core::ops::bit::BitXor>::bitxor
  %_115 = call i64 @"_ZN46_$LT$u64$u20$as$u20$core..ops..bit..BitXor$GT$6bitxor17h9a8310a5fd703d16E"(i64 %_116, i64 %_117) #8, !dbg !2525
  %_118 = load i64, ptr %sign_bit, align 8, !dbg !2526, !noundef !55
; call <u64 as core::ops::bit::BitAnd>::bitand
  %27 = call i64 @"_ZN46_$LT$u64$u20$as$u20$core..ops..bit..BitAnd$GT$6bitand17h599812c30472cec0E"(i64 %_115, i64 %_118) #8, !dbg !2527
  store i64 %27, ptr %_114, align 8, !dbg !2527
; call core::cmp::impls::<impl core::cmp::PartialEq for u64>::ne
  %subtraction = call zeroext i1 @"_ZN4core3cmp5impls54_$LT$impl$u20$core..cmp..PartialEq$u20$for$u20$u64$GT$2ne17h4933a88b82ae7690E"(ptr align 8 %_114, ptr align 8 %zero) #8, !dbg !2527
  %28 = zext i1 %subtraction to i8, !dbg !2527
  store i8 %28, ptr %subtraction.dbg.spill, align 1, !dbg !2527
  call void @llvm.dbg.declare(metadata ptr %subtraction.dbg.spill, metadata !2386, metadata !DIExpression()), !dbg !2528
  %_122 = load i64, ptr %a_significand, align 8, !dbg !2529, !noundef !55
; call <u64 as core::ops::bit::BitOr>::bitor
  %_121 = call i64 @"_ZN45_$LT$u64$u20$as$u20$core..ops..bit..BitOr$GT$5bitor17hb811acd98a3a0282E"(i64 %_122, i64 4503599627370496) #8, !dbg !2530
; call <u64 as core::ops::bit::Shl<u32>>::shl
  %_120 = call i64 @"_ZN54_$LT$u64$u20$as$u20$core..ops..bit..Shl$LT$u32$GT$$GT$3shl17h505fde79a88fbdd0E"(i64 %_121, i32 3) #8, !dbg !2530
  store i64 %_120, ptr %a_significand, align 8, !dbg !2531
  %_125 = load i64, ptr %b_significand, align 8, !dbg !2532, !noundef !55
; call <u64 as core::ops::bit::BitOr>::bitor
  %_124 = call i64 @"_ZN45_$LT$u64$u20$as$u20$core..ops..bit..BitOr$GT$5bitor17hb811acd98a3a0282E"(i64 %_125, i64 4503599627370496) #8, !dbg !2533
; call <u64 as core::ops::bit::Shl<u32>>::shl
  %_123 = call i64 @"_ZN54_$LT$u64$u20$as$u20$core..ops..bit..Shl$LT$u32$GT$$GT$3shl17h505fde79a88fbdd0E"(i64 %_124, i32 3) #8, !dbg !2533
  store i64 %_123, ptr %b_significand, align 8, !dbg !2534
  %_128 = load i32, ptr %a_exponent, align 4, !dbg !2535, !noundef !55
  %_129 = load i32, ptr %b_exponent, align 4, !dbg !2536, !noundef !55
  store i32 %_128, ptr %self.dbg.spill.i, align 4
  call void @llvm.dbg.declare(metadata ptr %self.dbg.spill.i, metadata !703, metadata !DIExpression()), !dbg !2537
  store i32 %_129, ptr %rhs.dbg.spill.i, align 4
  call void @llvm.dbg.declare(metadata ptr %rhs.dbg.spill.i, metadata !706, metadata !DIExpression()), !dbg !2539
  %29 = sub i32 %_128, %_129, !dbg !2540
; call <i32 as compiler_builtins::int::CastInto<u64>>::cast
  %30 = call i64 @"_ZN67_$LT$i32$u20$as$u20$compiler_builtins..int..CastInto$LT$u64$GT$$GT$4cast17h92032d4ed147a08aE"(i32 %29) #8, !dbg !2535
  store i64 %30, ptr %align, align 8, !dbg !2535
  store i64 0, ptr %_133, align 8, !dbg !2541
; call core::cmp::impls::<impl core::cmp::PartialEq for u64>::ne
  %_130 = call zeroext i1 @"_ZN4core3cmp5impls54_$LT$impl$u20$core..cmp..PartialEq$u20$for$u20$u64$GT$2ne17h4933a88b82ae7690E"(ptr align 8 %align, ptr align 8 %_133) #8, !dbg !2542
  br i1 %_130, label %bb79, label %bb91, !dbg !2542

bb91:                                             ; preds = %bb90, %bb81, %bb67
  br i1 %subtraction, label %bb92, label %bb106, !dbg !2543

bb79:                                             ; preds = %bb67
; call core::cmp::impls::<impl core::cmp::PartialOrd for u64>::lt
  %_134 = call zeroext i1 @"_ZN4core3cmp5impls55_$LT$impl$u20$core..cmp..PartialOrd$u20$for$u20$u64$GT$2lt17h489504920ab45e20E"(ptr align 8 %align, ptr align 8 %bits) #8, !dbg !2544
  br i1 %_134, label %bb81, label %bb90, !dbg !2544

bb90:                                             ; preds = %bb79
  store i64 1, ptr %b_significand, align 8, !dbg !2545
  br label %bb91, !dbg !2546

bb81:                                             ; preds = %bb79
  %_141 = load i64, ptr %b_significand, align 8, !dbg !2547, !noundef !55
  %_144 = load i64, ptr %bits, align 8, !dbg !2548, !noundef !55
  %_145 = load i64, ptr %align, align 8, !dbg !2549, !noundef !55
; call <u64 as compiler_builtins::int::Int>::wrapping_sub
  %_143 = call i64 @"_ZN51_$LT$u64$u20$as$u20$compiler_builtins..int..Int$GT$12wrapping_sub17h16356dd47c012abcE"(i64 %_144, i64 %_145) #8, !dbg !2548
; call <u64 as compiler_builtins::int::CastInto<u32>>::cast
  %_142 = call i32 @"_ZN67_$LT$u64$u20$as$u20$compiler_builtins..int..CastInto$LT$u32$GT$$GT$4cast17h6817a9e100ee1230E"(i64 %_143) #8, !dbg !2548
; call <u64 as core::ops::bit::Shl<u32>>::shl
