; ModuleID = 'wh7duvw9u75wnwf'
source_filename = "wh7duvw9u75wnwf"
target datalayout = "e-m:e-i64:64-f80:128-n8:16:32:64-S128"
target triple = "x86_64-obuasi-unknown-none"

%"core::fmt::Arguments<'_>" = type { { ptr, i64 }, { ptr, i64 }, { ptr, i64 } }
%"core::fmt::rt::UnsafeArg" = type { {} }
%"global_descriptor_table::GlobalDescriptorTableSetup" = type { %"x86_64::structures::gdt::GlobalDescriptorTable", { i16, i16 }, [2 x i16] }
%"x86_64::structures::gdt::GlobalDescriptorTable" = type { [8 x i64], i64 }
%"x86_64::structures::gdt::Descriptor" = type { i64, [2 x i64] }
%"x86_64::structures::tss::TaskStateSegment" = type <{ i32, [3 x i64], i64, [7 x i64], i64, i16, i16 }>
%"core::option::Option<global_descriptor_table::GlobalDescriptorTableSetup>::Some" = type { [1 x i64], %"global_descriptor_table::GlobalDescriptorTableSetup" }
%"core::option::Option<global_descriptor_table::GlobalDescriptorTableSetup>" = type { i64, [10 x i64] }
%"spin::once::Once<global_descriptor_table::GlobalDescriptorTableSetup>" = type { %"core::sync::atomic::AtomicUsize", %"core::cell::UnsafeCell<core::option::Option<global_descriptor_table::GlobalDescriptorTableSetup>>" }
%"core::sync::atomic::AtomicUsize" = type { i64 }
%"core::cell::UnsafeCell<core::option::Option<global_descriptor_table::GlobalDescriptorTableSetup>>" = type { %"core::option::Option<global_descriptor_table::GlobalDescriptorTableSetup>" }
%"x86_64::structures::gdt::Descriptor::SystemSegment" = type { [1 x i64], i64, i64 }
%"x86_64::structures::gdt::Descriptor::UserSegment" = type { [1 x i64], i64 }
%"x86_64::structures::DescriptorTablePointer" = type <{ i16, i64 }>
%"x86_64::structures::idt::Entry<extern \22x86-interrupt\22 fn(x86_64::structures::idt::InterruptStackFrame, u64) -> !>" = type { i16, i16, i16, i16, i32, i32, %"core::marker::PhantomData<extern \22x86-interrupt\22 fn(x86_64::structures::idt::InterruptStackFrame, u64) -> !>" }
%"core::marker::PhantomData<extern \22x86-interrupt\22 fn(x86_64::structures::idt::InterruptStackFrame, u64) -> !>" = type {}
%"x86_64::structures::idt::Entry<extern \22x86-interrupt\22 fn(x86_64::structures::idt::InterruptStackFrame, x86_64::structures::idt::PageFaultErrorCode)>" = type { i16, i16, i16, i16, i32, i32, %"core::marker::PhantomData<extern \22x86-interrupt\22 fn(x86_64::structures::idt::InterruptStackFrame, x86_64::structures::idt::PageFaultErrorCode)>" }
%"core::marker::PhantomData<extern \22x86-interrupt\22 fn(x86_64::structures::idt::InterruptStackFrame, x86_64::structures::idt::PageFaultErrorCode)>" = type {}
%"x86_64::structures::idt::Entry<extern \22x86-interrupt\22 fn(x86_64::structures::idt::InterruptStackFrame)>" = type { i16, i16, i16, i16, i32, i32, %"core::marker::PhantomData<extern \22x86-interrupt\22 fn(x86_64::structures::idt::InterruptStackFrame)>" }
%"core::marker::PhantomData<extern \22x86-interrupt\22 fn(x86_64::structures::idt::InterruptStackFrame)>" = type {}
%"x86_64::structures::idt::Entry<extern \22x86-interrupt\22 fn(x86_64::structures::idt::InterruptStackFrame, u64)>" = type { i16, i16, i16, i16, i32, i32, %"core::marker::PhantomData<extern \22x86-interrupt\22 fn(x86_64::structures::idt::InterruptStackFrame, u64)>" }
%"core::marker::PhantomData<extern \22x86-interrupt\22 fn(x86_64::structures::idt::InterruptStackFrame, u64)>" = type {}
%"x86_64::structures::idt::Entry<extern \22x86-interrupt\22 fn(x86_64::structures::idt::InterruptStackFrame) -> !>" = type { i16, i16, i16, i16, i32, i32, %"core::marker::PhantomData<extern \22x86-interrupt\22 fn(x86_64::structures::idt::InterruptStackFrame) -> !>" }
%"core::marker::PhantomData<extern \22x86-interrupt\22 fn(x86_64::structures::idt::InterruptStackFrame) -> !>" = type {}
%"x86_64::structures::idt::InterruptDescriptorTable" = type { %"x86_64::structures::idt::Entry<extern \22x86-interrupt\22 fn(x86_64::structures::idt::InterruptStackFrame)>", %"x86_64::structures::idt::Entry<extern \22x86-interrupt\22 fn(x86_64::structures::idt::InterruptStackFrame)>", %"x86_64::structures::idt::Entry<extern \22x86-interrupt\22 fn(x86_64::structures::idt::InterruptStackFrame)>", %"x86_64::structures::idt::Entry<extern \22x86-interrupt\22 fn(x86_64::structures::idt::InterruptStackFrame)>", %"x86_64::structures::idt::Entry<extern \22x86-interrupt\22 fn(x86_64::structures::idt::InterruptStackFrame)>", %"x86_64::structures::idt::Entry<extern \22x86-interrupt\22 fn(x86_64::structures::idt::InterruptStackFrame)>", %"x86_64::structures::idt::Entry<extern \22x86-interrupt\22 fn(x86_64::structures::idt::InterruptStackFrame)>", %"x86_64::structures::idt::Entry<extern \22x86-interrupt\22 fn(x86_64::structures::idt::InterruptStackFrame)>", %"x86_64::structures::idt::Entry<extern \22x86-interrupt\22 fn(x86_64::structures::idt::InterruptStackFrame, u64) -> !>", %"x86_64::structures::idt::Entry<extern \22x86-interrupt\22 fn(x86_64::structures::idt::InterruptStackFrame)>", %"x86_64::structures::idt::Entry<extern \22x86-interrupt\22 fn(x86_64::structures::idt::InterruptStackFrame, u64)>", %"x86_64::structures::idt::Entry<extern \22x86-interrupt\22 fn(x86_64::structures::idt::InterruptStackFrame, u64)>", %"x86_64::structures::idt::Entry<extern \22x86-interrupt\22 fn(x86_64::structures::idt::InterruptStackFrame, u64)>", %"x86_64::structures::idt::Entry<extern \22x86-interrupt\22 fn(x86_64::structures::idt::InterruptStackFrame, u64)>", %"x86_64::structures::idt::Entry<extern \22x86-interrupt\22 fn(x86_64::structures::idt::InterruptStackFrame, x86_64::structures::idt::PageFaultErrorCode)>", %"x86_64::structures::idt::Entry<extern \22x86-interrupt\22 fn(x86_64::structures::idt::InterruptStackFrame)>", %"x86_64::structures::idt::Entry<extern \22x86-interrupt\22 fn(x86_64::structures::idt::InterruptStackFrame)>", %"x86_64::structures::idt::Entry<extern \22x86-interrupt\22 fn(x86_64::structures::idt::InterruptStackFrame, u64)>", %"x86_64::structures::idt::Entry<extern \22x86-interrupt\22 fn(x86_64::structures::idt::InterruptStackFrame) -> !>", %"x86_64::structures::idt::Entry<extern \22x86-interrupt\22 fn(x86_64::structures::idt::InterruptStackFrame)>", %"x86_64::structures::idt::Entry<extern \22x86-interrupt\22 fn(x86_64::structures::idt::InterruptStackFrame)>", [8 x %"x86_64::structures::idt::Entry<extern \22x86-interrupt\22 fn(x86_64::structures::idt::InterruptStackFrame)>"], %"x86_64::structures::idt::Entry<extern \22x86-interrupt\22 fn(x86_64::structures::idt::InterruptStackFrame, u64)>", %"x86_64::structures::idt::Entry<extern \22x86-interrupt\22 fn(x86_64::structures::idt::InterruptStackFrame, u64)>", %"x86_64::structures::idt::Entry<extern \22x86-interrupt\22 fn(x86_64::structures::idt::InterruptStackFrame)>", [224 x %"x86_64::structures::idt::Entry<extern \22x86-interrupt\22 fn(x86_64::structures::idt::InterruptStackFrame)>"] }
%"x86_64::structures::idt::InterruptStackFrame" = type { %"x86_64::structures::idt::InterruptStackFrameValue" }
%"x86_64::structures::idt::InterruptStackFrameValue" = type { i64, i64, i64, i64, i64 }
%"core::fmt::rt::Placeholder" = type { { i64, i64 }, { i64, i64 }, i64, i32, i32, i8, [7 x i8] }
%"interrupt_descriptor_table::SafeInterruptDescriptorTable" = type { %"x86_64::structures::idt::InterruptDescriptorTable", i8, i8, i8, [13 x i8] }
%"core::result::Result<bool, &str>" = type { ptr, [1 x i64] }
%"core::result::Result<bool, &str>::Ok" = type { [8 x i8], i8 }

@alloc_6923360c3161738641b3989c6181ce08 = private unnamed_addr constant <{ [40 x i8] }> <{ [40 x i8] c"assertion failed: bit < Self::BIT_LENGTH" }>, align 1
@alloc_89294a974a2788f895cf677d5bd697c4 = private unnamed_addr constant <{ [91 x i8] }> <{ [91 x i8] c"/Users/yaw/.cargo/registry/src/index.crates.io-6f17d22bba15001f/bit_field-0.10.1/src/lib.rs" }>, align 1
@alloc_f4d2308b1a4d364a80c06ffe6643cbed = private unnamed_addr constant <{ ptr, [16 x i8] }> <{ ptr @alloc_89294a974a2788f895cf677d5bd697c4, [16 x i8] c"[\00\00\00\00\00\00\00\11\01\00\00\01\00\00\00" }>, align 8
@str.0 = internal unnamed_addr constant [35 x i8] c"attempt to shift left with overflow"
@alloc_43d3c3e34f8fc6589b4da1b1abdd7b57 = private unnamed_addr constant <{ [48 x i8] }> <{ [48 x i8] c"assertion failed: range.start < Self::BIT_LENGTH" }>, align 1
@alloc_d3619c0864e1cd3a4478ebd6749a56b0 = private unnamed_addr constant <{ [47 x i8] }> <{ [47 x i8] c"assertion failed: range.end <= Self::BIT_LENGTH" }>, align 1
@alloc_fa3040d11952b12d3c67c30be76bc6a8 = private unnamed_addr constant <{ [41 x i8] }> <{ [41 x i8] c"assertion failed: range.start < range.end" }>, align 1
@str.1 = internal unnamed_addr constant [33 x i8] c"attempt to subtract with overflow"
@str.2 = internal unnamed_addr constant [36 x i8] c"attempt to shift right with overflow"
@alloc_8500726b2f23ea792acf9a1d33d50d56 = private unnamed_addr constant <{ [33 x i8] }> <{ [33 x i8] c"value does not fit into bit range" }>, align 1
@alloc_513570631223a12912d85da2bec3b15a = private unnamed_addr constant <{}> zeroinitializer, align 8
@alloc_91c7fa63c3cfeaa3c795652d5cf060e4 = private unnamed_addr constant <{ [12 x i8] }> <{ [12 x i8] c"invalid args" }>, align 1
@alloc_af99043bc04c419363a7f04d23183506 = private unnamed_addr constant <{ ptr, [8 x i8] }> <{ ptr @alloc_91c7fa63c3cfeaa3c795652d5cf060e4, [8 x i8] c"\0C\00\00\00\00\00\00\00" }>, align 8
@alloc_c2ea93c90919bb7b1e482f917e413fa1 = private unnamed_addr constant <{ [107 x i8] }> <{ [107 x i8] c"/Users/yaw/.rustup/toolchains/nightly-aarch64-apple-darwin/lib/rustlib/src/rust/library/core/src/fmt/mod.rs" }>, align 1
@alloc_40dc4a2e4fa36320ad05a7f7aeedf921 = private unnamed_addr constant <{ ptr, [16 x i8] }> <{ ptr @alloc_c2ea93c90919bb7b1e482f917e413fa1, [16 x i8] c"k\00\00\00\00\00\00\00C\01\00\00\0D\00\00\00" }>, align 8
@alloc_1eb6f53a157dccb32488e066ad957e6d = private unnamed_addr constant <{ [82 x i8] }> <{ [82 x i8] c"unsafe precondition(s) violated: hint::unreachable_unchecked must never be reached" }>, align 1
@alloc_7adef5546d83b439c7829602020737c6 = private unnamed_addr constant <{ [61 x i8] }> <{ [61 x i8] c"there is no such thing as an acquire-release failure ordering" }>, align 1
@alloc_dd7d8f77c173bf31726eae321f955bec = private unnamed_addr constant <{ ptr, [8 x i8] }> <{ ptr @alloc_7adef5546d83b439c7829602020737c6, [8 x i8] c"=\00\00\00\00\00\00\00" }>, align 8
@alloc_758e3eafddd83bea2c9171c5517da1cc = private unnamed_addr constant <{ [111 x i8] }> <{ [111 x i8] c"/Users/yaw/.rustup/toolchains/nightly-aarch64-apple-darwin/lib/rustlib/src/rust/library/core/src/sync/atomic.rs" }>, align 1
@alloc_122716f189323124cb0c05846480a00c = private unnamed_addr constant <{ ptr, [16 x i8] }> <{ ptr @alloc_758e3eafddd83bea2c9171c5517da1cc, [16 x i8] c"o\00\00\00\00\00\00\00\0E\03\00\00\15\00\00\00" }>, align 8
@alloc_5a43f8d94dd4505c1dba43832ce73af8 = private unnamed_addr constant <{ [52 x i8] }> <{ [52 x i8] c"there is no such thing as a release failure ordering" }>, align 1
@alloc_04ab601c54c6e0a22ff11d72dc7f4511 = private unnamed_addr constant <{ ptr, [8 x i8] }> <{ ptr @alloc_5a43f8d94dd4505c1dba43832ce73af8, [8 x i8] c"4\00\00\00\00\00\00\00" }>, align 8
@alloc_1b2d53547632b0cd8d68abf128d934e0 = private unnamed_addr constant <{ ptr, [16 x i8] }> <{ ptr @alloc_758e3eafddd83bea2c9171c5517da1cc, [16 x i8] c"o\00\00\00\00\00\00\00\14\03\00\00!\00\00\00" }>, align 8
@alloc_a1555e0a155dca2f5083258fcbf483f1 = private unnamed_addr constant <{ ptr, [16 x i8] }> <{ ptr @alloc_758e3eafddd83bea2c9171c5517da1cc, [16 x i8] c"o\00\00\00\00\00\00\000\0D\00\00\1D\00\00\00" }>, align 8
@alloc_33885c66f3e23721de7c078c26cbbbab = private unnamed_addr constant <{ ptr, [16 x i8] }> <{ ptr @alloc_758e3eafddd83bea2c9171c5517da1cc, [16 x i8] c"o\00\00\00\00\00\00\00/\0D\00\00\1C\00\00\00" }>, align 8
@alloc_06a420d8deee50645e90f2290df13e81 = private unnamed_addr constant <{ ptr, [16 x i8] }> <{ ptr @alloc_758e3eafddd83bea2c9171c5517da1cc, [16 x i8] c"o\00\00\00\00\00\00\00S\0D\00\00\1D\00\00\00" }>, align 8
@alloc_977f08ebfb81be136063f2d5037813a1 = private unnamed_addr constant <{ ptr, [16 x i8] }> <{ ptr @alloc_758e3eafddd83bea2c9171c5517da1cc, [16 x i8] c"o\00\00\00\00\00\00\00R\0D\00\00\1C\00\00\00" }>, align 8
@alloc_a500d906b91607583596fa15e63c2ada = private unnamed_addr constant <{ [40 x i8] }> <{ [40 x i8] c"internal error: entered unreachable code" }>, align 1
@alloc_8af331a5985192ea52a41e19634f2db2 = private unnamed_addr constant <{ [86 x i8] }> <{ [86 x i8] c"/Users/yaw/.cargo/registry/src/index.crates.io-6f17d22bba15001f/spin-0.5.2/src/once.rs" }>, align 1
@alloc_5be19f098388ddfa34a5cde2d2c61c94 = private unnamed_addr constant <{ ptr, [16 x i8] }> <{ ptr @alloc_8af331a5985192ea52a41e19634f2db2, [16 x i8] c"V\00\00\00\00\00\00\00{\00\00\00\1F\00\00\00" }>, align 8
@alloc_b41ce9db6ff9e09c515cee5b4d05db5e = private unnamed_addr constant <{ [17 x i8] }> <{ [17 x i8] c"Once has panicked" }>, align 1
@alloc_cbdd636a907b817e5acd19150abaf3dc = private unnamed_addr constant <{ ptr, [16 x i8] }> <{ ptr @alloc_8af331a5985192ea52a41e19634f2db2, [16 x i8] c"V\00\00\00\00\00\00\00\80\00\00\00\1D\00\00\00" }>, align 8
@alloc_a2052f5a732c6560387218d7aa6b4ca1 = private unnamed_addr constant <{ [8 x i8] }> <{ [8 x i8] c"\00\00\00\00\00\80\00\00" }>, align 8
@alloc_3b64751e5ad482a062ea0dcea91079df = private unnamed_addr constant <{ [100 x i8] }> <{ [100 x i8] c"/Users/yaw/.cargo/registry/src/index.crates.io-6f17d22bba15001f/x86_64-0.14.10/src/structures/gdt.rs" }>, align 1
@alloc_47002a3e973effef3e6a05f78edc925e = private unnamed_addr constant <{ ptr, [16 x i8] }> <{ ptr @alloc_3b64751e5ad482a062ea0dcea91079df, [16 x i8] c"d\00\00\00\00\00\00\00N\01\00\00\1D\00\00\00" }>, align 8
@alloc_047faabbe6ef5a15898762b6e3e08ed6 = private unnamed_addr constant <{ [8 x i8] }> <{ [8 x i8] c"\FF\FF\00\00\00\9B\AF\00" }>, align 8
@alloc_c55995bc02c7c8015c979fb6099b62e1 = private unnamed_addr constant <{ ptr, [16 x i8] }> <{ ptr @alloc_3b64751e5ad482a062ea0dcea91079df, [16 x i8] c"d\00\00\00\00\00\00\00\A9\00\00\00\09\00\00\00" }>, align 8
@alloc_36951ab209c0eecbe088f5c7cd7bf945 = private unnamed_addr constant <{ ptr, [16 x i8] }> <{ ptr @alloc_3b64751e5ad482a062ea0dcea91079df, [16 x i8] c"d\00\00\00\00\00\00\00\AA\00\00\00\09\00\00\00" }>, align 8
@str.3 = internal unnamed_addr constant [28 x i8] c"attempt to add with overflow"
@alloc_e755bc5cd467965f69656078209bbfdc = private unnamed_addr constant <{ [8 x i8] }> <{ [8 x i8] c"GDT full" }>, align 1
@alloc_6802e546bafe1f29657a2bd91715bab1 = private unnamed_addr constant <{ ptr, [16 x i8] }> <{ ptr @alloc_3b64751e5ad482a062ea0dcea91079df, [16 x i8] c"d\00\00\00\00\00\00\00i\00\00\00\15\00\00\00" }>, align 8
@alloc_71a7efa2492bb21c9f54a8edb2880146 = private unnamed_addr constant <{ [52 x i8] }> <{ [52 x i8] c"GDT requires two free spaces to hold a SystemSegment" }>, align 1
@alloc_a715f7218158292f79d25dee7b6073d1 = private unnamed_addr constant <{ ptr, [16 x i8] }> <{ ptr @alloc_3b64751e5ad482a062ea0dcea91079df, [16 x i8] c"d\00\00\00\00\00\00\00o\00\00\00\15\00\00\00" }>, align 8
@alloc_96fe64cab8dd4680071ecfdb397425fd = private unnamed_addr constant <{ [100 x i8] }> <{ [100 x i8] c"/Users/yaw/.cargo/registry/src/index.crates.io-6f17d22bba15001f/x86_64-0.14.10/src/structures/idt.rs" }>, align 1
@alloc_252ecd2feb97d4c273dcb95f4a8d3da9 = private unnamed_addr constant <{ ptr, [16 x i8] }> <{ ptr @alloc_96fe64cab8dd4680071ecfdb397425fd, [16 x i8] c"d\00\00\00\00\00\00\00E\03\00\00\1F\00\00\00" }>, align 8
@alloc_3b30f3c2fe1935017d2714aa9952ea95 = private unnamed_addr constant <{ [74 x i8] }> <{ [74 x i8] c"address passed to VirtAddr::new must not contain any data in bits 48 to 64" }>, align 1
@alloc_25db54aacf10f85b32a6b265696ce69a = private unnamed_addr constant <{ [90 x i8] }> <{ [90 x i8] c"/Users/yaw/.cargo/registry/src/index.crates.io-6f17d22bba15001f/x86_64-0.14.10/src/addr.rs" }>, align 1
@alloc_0d1a04bfc07f4521465dd99c6362240a = private unnamed_addr constant <{ ptr, [16 x i8] }> <{ ptr @alloc_25db54aacf10f85b32a6b265696ce69a, [16 x i8] c"Z\00\00\00\00\00\00\00H\00\00\00\1D\00\00\00" }>, align 8
@alloc_944eeb69d0ffa7d8812bf7bff1ac43a1 = private unnamed_addr constant <{ ptr, [16 x i8] }> <{ ptr @alloc_25db54aacf10f85b32a6b265696ce69a, [16 x i8] c"Z\00\00\00\00\00\00\00\16\01\00\00\17\00\00\00" }>, align 8
@alloc_5979337f995b50b3b7ad2acf28efea10 = private unnamed_addr constant <{ [30 x i8] }> <{ [30 x i8] c"DOUBLE FAULT CAPTURED (errno: " }>, align 1
@alloc_85db505b151585473f2202053f9d9670 = private unnamed_addr constant <{ [6 x i8] }> <{ [6 x i8] c") -> \0A" }>, align 1
@alloc_9add2c7ee8caa8a38c0be1be55301ba9 = private unnamed_addr constant <{ ptr, [8 x i8], ptr, [8 x i8] }> <{ ptr @alloc_5979337f995b50b3b7ad2acf28efea10, [8 x i8] c"\1E\00\00\00\00\00\00\00", ptr @alloc_85db505b151585473f2202053f9d9670, [8 x i8] c"\06\00\00\00\00\00\00\00" }>, align 8
@alloc_c5fb0d085408a09540afc45a435767c8 = private unnamed_addr constant <{ [48 x i8] }> <{ [48 x i8] c"cpu_interrupts/src/default_exception_handlers.rs" }>, align 1
@alloc_06895ee293335a0ae64ace386da9c1ab = private unnamed_addr constant <{ ptr, [16 x i8] }> <{ ptr @alloc_c5fb0d085408a09540afc45a435767c8, [16 x i8] c"0\00\00\00\00\00\00\00\07\00\00\00\05\00\00\00" }>, align 8
@alloc_a5916a1819a99d12a7fcf0a9e9cbe92d = private unnamed_addr constant <{ [33 x i8] }> <{ [33 x i8] c"PAGE FAULT OCCURRED: -> \0A\09frame: " }>, align 1
@alloc_19fa5015e9afeb4a8771e16957894344 = private unnamed_addr constant <{ [18 x i8] }> <{ [18 x i8] c"\0A\09--> error_code: " }>, align 1
@alloc_6db0dbd5a8d15db99b813c29b1d97450 = private unnamed_addr constant <{ ptr, [8 x i8], ptr, [8 x i8] }> <{ ptr @alloc_a5916a1819a99d12a7fcf0a9e9cbe92d, [8 x i8] c"!\00\00\00\00\00\00\00", ptr @alloc_19fa5015e9afeb4a8771e16957894344, [8 x i8] c"\12\00\00\00\00\00\00\00" }>, align 8
@alloc_f3e2fdfe8b1dc95ed4f592e5947cd1f1 = private unnamed_addr constant <{ ptr, [16 x i8] }> <{ ptr @alloc_c5fb0d085408a09540afc45a435767c8, [16 x i8] c"0\00\00\00\00\00\00\00\0E\00\00\00\05\00\00\00" }>, align 8
@alloc_cdf29e36748ce97224f9a0c64e37a3c9 = private unnamed_addr constant <{ [37 x i8] }> <{ [37 x i8] c"some or all required handlers not set" }>, align 1
@_ZN14cpu_interrupts33programmable_interface_controller12CHAINED_PICS17hf8a165f5253d4ea7E = global <{ [1 x i8], [1 x i8], [5 x i8], [1 x i8], [5 x i8], [1 x i8] }> <{ [1 x i8] zeroinitializer, [1 x i8] undef, [5 x i8] c" \00!\00 ", [1 x i8] undef, [5 x i8] c"\A0\00\A1\00(", [1 x i8] undef }>, align 2, !dbg !0
@alloc_75ef2734e4964c1dbd279e33654e660b = private unnamed_addr constant <{ [55 x i8] }> <{ [55 x i8] c"cpu_interrupts/src/programmable_interface_controller.rs" }>, align 1
@alloc_dd2e65f21ea72520efdae4add4daa224 = private unnamed_addr constant <{ ptr, [16 x i8] }> <{ ptr @alloc_75ef2734e4964c1dbd279e33654e660b, [16 x i8] c"7\00\00\00\00\00\00\00\12\00\00\00&\00\00\00" }>, align 8
@_ZN14cpu_interrupts23global_descriptor_table23GLOBAL_DESCRIPTOR_TABLE17h3d305f2f967d943cE = constant <{}> zeroinitializer, align 1, !dbg !77
@"_ZN108_$LT$cpu_interrupts..global_descriptor_table..GLOBAL_DESCRIPTOR_TABLE$u20$as$u20$core..ops..deref..Deref$GT$5deref23__static_ref_initialize18TASK_STATE_SEGMENT17hf7c165a8c1938933E" = internal global <{ [104 x i8] }> <{ [104 x i8] c"\00\00\00\00\00\00\00\00\00\00\00\00\00\00\00\00\00\00\00\00\00\00\00\00\00\00\00\00\00\00\00\00\00\00\00\00\00\00\00\00\00\00\00\00\00\00\00\00\00\00\00\00\00\00\00\00\00\00\00\00\00\00\00\00\00\00\00\00\00\00\00\00\00\00\00\00\00\00\00\00\00\00\00\00\00\00\00\00\00\00\00\00\00\00\00\00\00\00\00\00\00\00h\00" }>, align 4, !dbg !84
@"_ZN108_$LT$cpu_interrupts..global_descriptor_table..GLOBAL_DESCRIPTOR_TABLE$u20$as$u20$core..ops..deref..Deref$GT$5deref23__static_ref_initialize5STACK17hb177c9898ac129e4E" = internal global <{ [20480 x i8] }> zeroinitializer, align 1, !dbg !113
@"_ZN108_$LT$cpu_interrupts..global_descriptor_table..GLOBAL_DESCRIPTOR_TABLE$u20$as$u20$core..ops..deref..Deref$GT$5deref11__stability4LAZY17h97856fadec7b692cE" = internal global <{ [16 x i8], [80 x i8] }> <{ [16 x i8] zeroinitializer, [80 x i8] undef }>, align 8, !dbg !118

; <u16 as bit_field::BitField>::set_bit
; Function Attrs: inlinehint noredzone nounwind
define internal align 2 ptr @"_ZN43_$LT$u16$u20$as$u20$bit_field..BitField$GT$7set_bit17h7056463985f7844aE"(ptr align 2 %self, i64 %bit, i1 zeroext %value) unnamed_addr #0 !dbg !210 {
start:
  %value.dbg.spill = alloca i8, align 1
  %bit.dbg.spill = alloca i64, align 8
  %self.dbg.spill = alloca ptr, align 8
  store ptr %self, ptr %self.dbg.spill, align 8
  call void @llvm.dbg.declare(metadata ptr %self.dbg.spill, metadata !219, metadata !DIExpression()), !dbg !222
  store i64 %bit, ptr %bit.dbg.spill, align 8
  call void @llvm.dbg.declare(metadata ptr %bit.dbg.spill, metadata !220, metadata !DIExpression()), !dbg !223
  %0 = zext i1 %value to i8
  store i8 %0, ptr %value.dbg.spill, align 1
  call void @llvm.dbg.declare(metadata ptr %value.dbg.spill, metadata !221, metadata !DIExpression()), !dbg !224
  %_4 = icmp ult i64 %bit, 16, !dbg !225
  br i1 %_4, label %bb1, label %bb2, !dbg !225

bb2:                                              ; preds = %start
; call core::panicking::panic
  call void @_ZN4core9panicking5panic17h91639042aeeb9621E(ptr align 1 @alloc_6923360c3161738641b3989c6181ce08, i64 40, ptr align 8 @alloc_f4d2308b1a4d364a80c06ffe6643cbed) #11, !dbg !226
  unreachable, !dbg !226

bb1:                                              ; preds = %start
  br i1 %value, label %bb3, label %bb4, !dbg !227

bb4:                                              ; preds = %bb1
  %_10 = icmp ult i64 %bit, 16, !dbg !228
  %1 = call i1 @llvm.expect.i1(i1 %_10, i1 true), !dbg !228
  br i1 %1, label %bb6, label %panic, !dbg !228

bb3:                                              ; preds = %bb1
  %_7 = icmp ult i64 %bit, 16, !dbg !229
  %2 = call i1 @llvm.expect.i1(i1 %_7, i1 true), !dbg !229
  br i1 %2, label %bb5, label %panic1, !dbg !229

bb6:                                              ; preds = %bb4
  %3 = trunc i64 %bit to i16, !dbg !228
  %4 = and i16 %3, 15, !dbg !228
  %_9 = shl i16 1, %4, !dbg !228
  %_8 = xor i16 %_9, -1, !dbg !230
  %5 = load i16, ptr %self, align 2, !dbg !231, !noundef !18
  %6 = and i16 %5, %_8, !dbg !231
  store i16 %6, ptr %self, align 2, !dbg !231
  br label %bb7, !dbg !232

panic:                                            ; preds = %bb4
; call core::panicking::panic
  call void @_ZN4core9panicking5panic17h91639042aeeb9621E(ptr align 1 @str.0, i64 35, ptr align 8 @alloc_f4d2308b1a4d364a80c06ffe6643cbed) #11, !dbg !228
  unreachable, !dbg !228

bb7:                                              ; preds = %bb5, %bb6
  ret ptr %self, !dbg !233

bb5:                                              ; preds = %bb3
  %7 = trunc i64 %bit to i16, !dbg !229
  %8 = and i16 %7, 15, !dbg !229
  %_6 = shl i16 1, %8, !dbg !229
  %9 = load i16, ptr %self, align 2, !dbg !234, !noundef !18
  %10 = or i16 %9, %_6, !dbg !234
  store i16 %10, ptr %self, align 2, !dbg !234
  br label %bb7, !dbg !232

panic1:                                           ; preds = %bb3
; call core::panicking::panic
  call void @_ZN4core9panicking5panic17h91639042aeeb9621E(ptr align 1 @str.0, i64 35, ptr align 8 @alloc_f4d2308b1a4d364a80c06ffe6643cbed) #11, !dbg !229
  unreachable, !dbg !229
}

; <u16 as bit_field::BitField>::set_bits
; Function Attrs: inlinehint noredzone nounwind
define align 2 ptr @"_ZN43_$LT$u16$u20$as$u20$bit_field..BitField$GT$8set_bits17hee45a055065b5300E"(ptr align 2 %self, i64 %0, i64 %1, i16 %value) unnamed_addr #0 !dbg !235 {
start:
  %bitmask.dbg.spill = alloca i16, align 2
  %range.dbg.spill = alloca { i64, i64 }, align 8
  %value.dbg.spill = alloca i16, align 2
  %self.dbg.spill = alloca ptr, align 8
  %range = alloca { i64, i64 }, align 8
  %2 = getelementptr inbounds { i64, i64 }, ptr %range, i32 0, i32 0
  store i64 %0, ptr %2, align 8
  %3 = getelementptr inbounds { i64, i64 }, ptr %range, i32 0, i32 1
  store i64 %1, ptr %3, align 8
  store ptr %self, ptr %self.dbg.spill, align 8
  call void @llvm.dbg.declare(metadata ptr %self.dbg.spill, metadata !247, metadata !DIExpression()), !dbg !256
  call void @llvm.dbg.declare(metadata ptr %range, metadata !248, metadata !DIExpression()), !dbg !257
  store i16 %value, ptr %value.dbg.spill, align 2
  call void @llvm.dbg.declare(metadata ptr %value.dbg.spill, metadata !249, metadata !DIExpression()), !dbg !258
; call bit_field::to_regular_range
  %4 = call { i64, i64 } @_ZN9bit_field16to_regular_range17h9e05adda646e2a98E(ptr align 8 %range, i64 16) #7, !dbg !259
  %range.0 = extractvalue { i64, i64 } %4, 0, !dbg !259
  %range.1 = extractvalue { i64, i64 } %4, 1, !dbg !259
  %5 = getelementptr inbounds { i64, i64 }, ptr %range.dbg.spill, i32 0, i32 0, !dbg !259
  store i64 %range.0, ptr %5, align 8, !dbg !259
  %6 = getelementptr inbounds { i64, i64 }, ptr %range.dbg.spill, i32 0, i32 1, !dbg !259
  store i64 %range.1, ptr %6, align 8, !dbg !259
  call void @llvm.dbg.declare(metadata ptr %range.dbg.spill, metadata !250, metadata !DIExpression()), !dbg !260
  %_6 = icmp ult i64 %range.0, 16, !dbg !261
  br i1 %_6, label %bb2, label %bb3, !dbg !261

bb3:                                              ; preds = %start
; call core::panicking::panic
  call void @_ZN4core9panicking5panic17h91639042aeeb9621E(ptr align 1 @alloc_43d3c3e34f8fc6589b4da1b1abdd7b57, i64 48, ptr align 8 @alloc_f4d2308b1a4d364a80c06ffe6643cbed) #11, !dbg !262
  unreachable, !dbg !262

bb2:                                              ; preds = %start
  %_9 = icmp ule i64 %range.1, 16, !dbg !263
  br i1 %_9, label %bb4, label %bb5, !dbg !263

bb5:                                              ; preds = %bb2
; call core::panicking::panic
  call void @_ZN4core9panicking5panic17h91639042aeeb9621E(ptr align 1 @alloc_d3619c0864e1cd3a4478ebd6749a56b0, i64 47, ptr align 8 @alloc_f4d2308b1a4d364a80c06ffe6643cbed) #11, !dbg !264
  unreachable, !dbg !264

bb4:                                              ; preds = %bb2
  %_12 = icmp ult i64 %range.0, %range.1, !dbg !265
  br i1 %_12, label %bb6, label %bb7, !dbg !265

bb7:                                              ; preds = %bb4
; call core::panicking::panic
  call void @_ZN4core9panicking5panic17h91639042aeeb9621E(ptr align 1 @alloc_fa3040d11952b12d3c67c30be76bc6a8, i64 41, ptr align 8 @alloc_f4d2308b1a4d364a80c06ffe6643cbed) #11, !dbg !266
  unreachable, !dbg !266

bb6:                                              ; preds = %bb4
  %_23.0 = sub i64 %range.1, %range.0, !dbg !267
  %_23.1 = icmp ult i64 %range.1, %range.0, !dbg !267
  %7 = call i1 @llvm.expect.i1(i1 %_23.1, i1 false), !dbg !267
  br i1 %7, label %panic, label %bb8, !dbg !267

bb8:                                              ; preds = %bb6
  %_24.0 = sub i64 16, %_23.0, !dbg !268
  %_24.1 = icmp ult i64 16, %_23.0, !dbg !268
  %8 = call i1 @llvm.expect.i1(i1 %_24.1, i1 false), !dbg !268
  br i1 %8, label %panic1, label %bb9, !dbg !268

panic:                                            ; preds = %bb6
; call core::panicking::panic
  call void @_ZN4core9panicking5panic17h91639042aeeb9621E(ptr align 1 @str.1, i64 33, ptr align 8 @alloc_f4d2308b1a4d364a80c06ffe6643cbed) #11, !dbg !267
  unreachable, !dbg !267

bb9:                                              ; preds = %bb8
  %_25 = icmp ult i64 %_24.0, 16, !dbg !269
  %9 = call i1 @llvm.expect.i1(i1 %_25, i1 true), !dbg !269
  br i1 %9, label %bb10, label %panic2, !dbg !269

panic1:                                           ; preds = %bb8
; call core::panicking::panic
  call void @_ZN4core9panicking5panic17h91639042aeeb9621E(ptr align 1 @str.1, i64 33, ptr align 8 @alloc_f4d2308b1a4d364a80c06ffe6643cbed) #11, !dbg !268
  unreachable, !dbg !268

bb10:                                             ; preds = %bb9
  %10 = trunc i64 %_24.0 to i16, !dbg !269
  %11 = and i16 %10, 15, !dbg !269
  %_18 = shl i16 %value, %11, !dbg !269
  %_30.0 = sub i64 %range.1, %range.0, !dbg !270
  %_30.1 = icmp ult i64 %range.1, %range.0, !dbg !270
  %12 = call i1 @llvm.expect.i1(i1 %_30.1, i1 false), !dbg !270
  br i1 %12, label %panic3, label %bb11, !dbg !270

panic2:                                           ; preds = %bb9
; call core::panicking::panic
  call void @_ZN4core9panicking5panic17h91639042aeeb9621E(ptr align 1 @str.0, i64 35, ptr align 8 @alloc_f4d2308b1a4d364a80c06ffe6643cbed) #11, !dbg !269
  unreachable, !dbg !269

bb11:                                             ; preds = %bb10
  %_31.0 = sub i64 16, %_30.0, !dbg !271
  %_31.1 = icmp ult i64 16, %_30.0, !dbg !271
  %13 = call i1 @llvm.expect.i1(i1 %_31.1, i1 false), !dbg !271
  br i1 %13, label %panic4, label %bb12, !dbg !271

panic3:                                           ; preds = %bb10
; call core::panicking::panic
  call void @_ZN4core9panicking5panic17h91639042aeeb9621E(ptr align 1 @str.1, i64 33, ptr align 8 @alloc_f4d2308b1a4d364a80c06ffe6643cbed) #11, !dbg !270
  unreachable, !dbg !270

bb12:                                             ; preds = %bb11
  %_32 = icmp ult i64 %_31.0, 16, !dbg !269
  %14 = call i1 @llvm.expect.i1(i1 %_32, i1 true), !dbg !269
  br i1 %14, label %bb13, label %panic5, !dbg !269

panic4:                                           ; preds = %bb11
; call core::panicking::panic
  call void @_ZN4core9panicking5panic17h91639042aeeb9621E(ptr align 1 @str.1, i64 33, ptr align 8 @alloc_f4d2308b1a4d364a80c06ffe6643cbed) #11, !dbg !271
  unreachable, !dbg !271

bb13:                                             ; preds = %bb12
  %15 = trunc i64 %_31.0 to i16, !dbg !269
  %16 = and i16 %15, 15, !dbg !269
  %_17 = lshr i16 %_18, %16, !dbg !269
  %_16 = icmp eq i16 %_17, %value, !dbg !269
  br i1 %_16, label %bb14, label %bb15, !dbg !269

panic5:                                           ; preds = %bb12
; call core::panicking::panic
  call void @_ZN4core9panicking5panic17h91639042aeeb9621E(ptr align 1 @str.2, i64 36, ptr align 8 @alloc_f4d2308b1a4d364a80c06ffe6643cbed) #11, !dbg !269
  unreachable, !dbg !269

bb15:                                             ; preds = %bb13
; call core::panicking::panic
  call void @_ZN4core9panicking5panic17h91639042aeeb9621E(ptr align 1 @alloc_8500726b2f23ea792acf9a1d33d50d56, i64 33, ptr align 8 @alloc_f4d2308b1a4d364a80c06ffe6643cbed) #11, !dbg !272
  unreachable, !dbg !272

bb14:                                             ; preds = %bb13
  %_42.0 = sub i64 16, %range.1, !dbg !273
  %_42.1 = icmp ult i64 16, %range.1, !dbg !273
  %17 = call i1 @llvm.expect.i1(i1 %_42.1, i1 false), !dbg !273
  br i1 %17, label %panic6, label %bb16, !dbg !273

bb16:                                             ; preds = %bb14
  %_43 = icmp ult i64 %_42.0, 16, !dbg !274
  %18 = call i1 @llvm.expect.i1(i1 %_43, i1 true), !dbg !274
  br i1 %18, label %bb17, label %panic7, !dbg !274

panic6:                                           ; preds = %bb14
; call core::panicking::panic
  call void @_ZN4core9panicking5panic17h91639042aeeb9621E(ptr align 1 @str.1, i64 33, ptr align 8 @alloc_f4d2308b1a4d364a80c06ffe6643cbed) #11, !dbg !273
  unreachable, !dbg !273

bb17:                                             ; preds = %bb16
  %19 = trunc i64 %_42.0 to i16, !dbg !274
  %20 = and i16 %19, 15, !dbg !274
  %_38 = shl i16 -1, %20, !dbg !274
  %_46.0 = sub i64 16, %range.1, !dbg !275
  %_46.1 = icmp ult i64 16, %range.1, !dbg !275
  %21 = call i1 @llvm.expect.i1(i1 %_46.1, i1 false), !dbg !275
  br i1 %21, label %panic8, label %bb18, !dbg !275

panic7:                                           ; preds = %bb16
; call core::panicking::panic
  call void @_ZN4core9panicking5panic17h91639042aeeb9621E(ptr align 1 @str.0, i64 35, ptr align 8 @alloc_f4d2308b1a4d364a80c06ffe6643cbed) #11, !dbg !274
  unreachable, !dbg !274

bb18:                                             ; preds = %bb17
  %_47 = icmp ult i64 %_46.0, 16, !dbg !274
  %22 = call i1 @llvm.expect.i1(i1 %_47, i1 true), !dbg !274
  br i1 %22, label %bb19, label %panic9, !dbg !274

panic8:                                           ; preds = %bb17
; call core::panicking::panic
  call void @_ZN4core9panicking5panic17h91639042aeeb9621E(ptr align 1 @str.1, i64 33, ptr align 8 @alloc_f4d2308b1a4d364a80c06ffe6643cbed) #11, !dbg !275
  unreachable, !dbg !275

bb19:                                             ; preds = %bb18
  %23 = trunc i64 %_46.0 to i16, !dbg !274
  %24 = and i16 %23, 15, !dbg !274
  %_37 = lshr i16 %_38, %24, !dbg !274
  %_49 = icmp ult i64 %range.0, 16, !dbg !274
  %25 = call i1 @llvm.expect.i1(i1 %_49, i1 true), !dbg !274
  br i1 %25, label %bb20, label %panic10, !dbg !274

panic9:                                           ; preds = %bb18
; call core::panicking::panic
  call void @_ZN4core9panicking5panic17h91639042aeeb9621E(ptr align 1 @str.2, i64 36, ptr align 8 @alloc_f4d2308b1a4d364a80c06ffe6643cbed) #11, !dbg !274
  unreachable, !dbg !274

bb20:                                             ; preds = %bb19
  %26 = trunc i64 %range.0 to i16, !dbg !274
  %27 = and i16 %26, 15, !dbg !274
  %_36 = lshr i16 %_37, %27, !dbg !274
  %_51 = icmp ult i64 %range.0, 16, !dbg !276
  %28 = call i1 @llvm.expect.i1(i1 %_51, i1 true), !dbg !276
  br i1 %28, label %bb21, label %panic11, !dbg !276

panic10:                                          ; preds = %bb19
; call core::panicking::panic
  call void @_ZN4core9panicking5panic17h91639042aeeb9621E(ptr align 1 @str.2, i64 36, ptr align 8 @alloc_f4d2308b1a4d364a80c06ffe6643cbed) #11, !dbg !274
  unreachable, !dbg !274

bb21:                                             ; preds = %bb20
  %29 = trunc i64 %range.0 to i16, !dbg !276
  %30 = and i16 %29, 15, !dbg !276
  %_35 = shl i16 %_36, %30, !dbg !276
  %bitmask = xor i16 %_35, -1, !dbg !277
  store i16 %bitmask, ptr %bitmask.dbg.spill, align 2, !dbg !277
  call void @llvm.dbg.declare(metadata ptr %bitmask.dbg.spill, metadata !252, metadata !DIExpression()), !dbg !278
  %_53 = load i16, ptr %self, align 2, !dbg !279, !noundef !18
  %_52 = and i16 %_53, %bitmask, !dbg !280
  %_56 = icmp ult i64 %range.0, 16, !dbg !281
  %31 = call i1 @llvm.expect.i1(i1 %_56, i1 true), !dbg !281
  br i1 %31, label %bb22, label %panic12, !dbg !281

panic11:                                          ; preds = %bb20
; call core::panicking::panic
  call void @_ZN4core9panicking5panic17h91639042aeeb9621E(ptr align 1 @str.0, i64 35, ptr align 8 @alloc_f4d2308b1a4d364a80c06ffe6643cbed) #11, !dbg !276
  unreachable, !dbg !276

bb22:                                             ; preds = %bb21
  %32 = trunc i64 %range.0 to i16, !dbg !281
  %33 = and i16 %32, 15, !dbg !281
  %_54 = shl i16 %value, %33, !dbg !281
  %34 = or i16 %_52, %_54, !dbg !282
  store i16 %34, ptr %self, align 2, !dbg !282
  ret ptr %self, !dbg !283

panic12:                                          ; preds = %bb21
; call core::panicking::panic
  call void @_ZN4core9panicking5panic17h91639042aeeb9621E(ptr align 1 @str.0, i64 35, ptr align 8 @alloc_f4d2308b1a4d364a80c06ffe6643cbed) #11, !dbg !281
  unreachable, !dbg !281
}

; core::fmt::Arguments::new_v1_formatted
; Function Attrs: inlinehint noredzone nounwind
define internal void @_ZN4core3fmt9Arguments16new_v1_formatted17hb31436f1061067ebE(ptr sret(%"core::fmt::Arguments<'_>") align 8 %_0, ptr align 8 %pieces.0, i64 %pieces.1, ptr align 8 %args.0, i64 %args.1, ptr align 8 %fmt.0, i64 %fmt.1) unnamed_addr #0 !dbg !284 {
start:
  %_4.dbg.spill = alloca %"core::fmt::rt::UnsafeArg", align 1
  %fmt.dbg.spill = alloca { ptr, i64 }, align 8
  %args.dbg.spill = alloca { ptr, i64 }, align 8
  %pieces.dbg.spill = alloca { ptr, i64 }, align 8
  %_5 = alloca { ptr, i64 }, align 8
  %_unsafe_arg.dbg.spill = alloca %"core::fmt::rt::UnsafeArg", align 1
  call void @llvm.dbg.declare(metadata ptr %_unsafe_arg.dbg.spill, metadata !414, metadata !DIExpression()), !dbg !416
  %0 = getelementptr inbounds { ptr, i64 }, ptr %pieces.dbg.spill, i32 0, i32 0, !dbg !416
  store ptr %pieces.0, ptr %0, align 8, !dbg !416
  %1 = getelementptr inbounds { ptr, i64 }, ptr %pieces.dbg.spill, i32 0, i32 1, !dbg !416
  store i64 %pieces.1, ptr %1, align 8, !dbg !416
  call void @llvm.dbg.declare(metadata ptr %pieces.dbg.spill, metadata !411, metadata !DIExpression()), !dbg !417
  %2 = getelementptr inbounds { ptr, i64 }, ptr %args.dbg.spill, i32 0, i32 0, !dbg !416
  store ptr %args.0, ptr %2, align 8, !dbg !416
  %3 = getelementptr inbounds { ptr, i64 }, ptr %args.dbg.spill, i32 0, i32 1, !dbg !416
  store i64 %args.1, ptr %3, align 8, !dbg !416
  call void @llvm.dbg.declare(metadata ptr %args.dbg.spill, metadata !412, metadata !DIExpression()), !dbg !418
  %4 = getelementptr inbounds { ptr, i64 }, ptr %fmt.dbg.spill, i32 0, i32 0, !dbg !416
  store ptr %fmt.0, ptr %4, align 8, !dbg !416
  %5 = getelementptr inbounds { ptr, i64 }, ptr %fmt.dbg.spill, i32 0, i32 1, !dbg !416
  store i64 %fmt.1, ptr %5, align 8, !dbg !416
  call void @llvm.dbg.declare(metadata ptr %fmt.dbg.spill, metadata !413, metadata !DIExpression()), !dbg !419
  call void @llvm.dbg.declare(metadata ptr %_4.dbg.spill, metadata !415, metadata !DIExpression()), !dbg !416
  %6 = getelementptr inbounds { ptr, i64 }, ptr %_5, i32 0, i32 0, !dbg !420
  store ptr %fmt.0, ptr %6, align 8, !dbg !420
  %7 = getelementptr inbounds { ptr, i64 }, ptr %_5, i32 0, i32 1, !dbg !420
  store i64 %fmt.1, ptr %7, align 8, !dbg !420
  %8 = getelementptr inbounds { ptr, i64 }, ptr %_0, i32 0, i32 0, !dbg !421
  store ptr %pieces.0, ptr %8, align 8, !dbg !421
  %9 = getelementptr inbounds { ptr, i64 }, ptr %_0, i32 0, i32 1, !dbg !421
  store i64 %pieces.1, ptr %9, align 8, !dbg !421
  %10 = getelementptr inbounds { ptr, i64 }, ptr %_5, i32 0, i32 0, !dbg !421
  %11 = load ptr, ptr %10, align 8, !dbg !421, !align !422, !noundef !18
  %12 = getelementptr inbounds { ptr, i64 }, ptr %_5, i32 0, i32 1, !dbg !421
  %13 = load i64, ptr %12, align 8, !dbg !421
  %14 = getelementptr inbounds %"core::fmt::Arguments<'_>", ptr %_0, i32 0, i32 2, !dbg !421
  %15 = getelementptr inbounds { ptr, i64 }, ptr %14, i32 0, i32 0, !dbg !421
  store ptr %11, ptr %15, align 8, !dbg !421
  %16 = getelementptr inbounds { ptr, i64 }, ptr %14, i32 0, i32 1, !dbg !421
  store i64 %13, ptr %16, align 8, !dbg !421
  %17 = getelementptr inbounds %"core::fmt::Arguments<'_>", ptr %_0, i32 0, i32 1, !dbg !421
  %18 = getelementptr inbounds { ptr, i64 }, ptr %17, i32 0, i32 0, !dbg !421
  store ptr %args.0, ptr %18, align 8, !dbg !421
  %19 = getelementptr inbounds { ptr, i64 }, ptr %17, i32 0, i32 1, !dbg !421
  store i64 %args.1, ptr %19, align 8, !dbg !421
  ret void, !dbg !423
}

; core::fmt::Arguments::new_const
; Function Attrs: inlinehint noredzone nounwind
define internal void @_ZN4core3fmt9Arguments9new_const17h1c03a8a7f4ffd56eE(ptr sret(%"core::fmt::Arguments<'_>") align 8 %_0, ptr align 8 %pieces.0, i64 %pieces.1) unnamed_addr #0 !dbg !424 {
start:
  %pieces.dbg.spill = alloca { ptr, i64 }, align 8
  %_7 = alloca { ptr, i64 }, align 8
  %_5 = alloca %"core::fmt::Arguments<'_>", align 8
  %0 = getelementptr inbounds { ptr, i64 }, ptr %pieces.dbg.spill, i32 0, i32 0
  store ptr %pieces.0, ptr %0, align 8
  %1 = getelementptr inbounds { ptr, i64 }, ptr %pieces.dbg.spill, i32 0, i32 1
  store i64 %pieces.1, ptr %1, align 8
  call void @llvm.dbg.declare(metadata ptr %pieces.dbg.spill, metadata !429, metadata !DIExpression()), !dbg !430
  %_2 = icmp ugt i64 %pieces.1, 1, !dbg !431
  br i1 %_2, label %bb1, label %bb3, !dbg !431

bb3:                                              ; preds = %start
  store ptr null, ptr %_7, align 8, !dbg !432
  %2 = getelementptr inbounds { ptr, i64 }, ptr %_0, i32 0, i32 0, !dbg !433
  store ptr %pieces.0, ptr %2, align 8, !dbg !433
  %3 = getelementptr inbounds { ptr, i64 }, ptr %_0, i32 0, i32 1, !dbg !433
  store i64 %pieces.1, ptr %3, align 8, !dbg !433
  %4 = getelementptr inbounds { ptr, i64 }, ptr %_7, i32 0, i32 0, !dbg !433
  %5 = load ptr, ptr %4, align 8, !dbg !433, !align !422, !noundef !18
  %6 = getelementptr inbounds { ptr, i64 }, ptr %_7, i32 0, i32 1, !dbg !433
  %7 = load i64, ptr %6, align 8, !dbg !433
  %8 = getelementptr inbounds %"core::fmt::Arguments<'_>", ptr %_0, i32 0, i32 2, !dbg !433
  %9 = getelementptr inbounds { ptr, i64 }, ptr %8, i32 0, i32 0, !dbg !433
  store ptr %5, ptr %9, align 8, !dbg !433
  %10 = getelementptr inbounds { ptr, i64 }, ptr %8, i32 0, i32 1, !dbg !433
  store i64 %7, ptr %10, align 8, !dbg !433
  %11 = getelementptr inbounds %"core::fmt::Arguments<'_>", ptr %_0, i32 0, i32 1, !dbg !433
  %12 = getelementptr inbounds { ptr, i64 }, ptr %11, i32 0, i32 0, !dbg !433
  store ptr @alloc_513570631223a12912d85da2bec3b15a, ptr %12, align 8, !dbg !433
  %13 = getelementptr inbounds { ptr, i64 }, ptr %11, i32 0, i32 1, !dbg !433
  store i64 0, ptr %13, align 8, !dbg !433
  ret void, !dbg !434

bb1:                                              ; preds = %start
; call core::fmt::Arguments::new_const
  call void @_ZN4core3fmt9Arguments9new_const17h1c03a8a7f4ffd56eE(ptr sret(%"core::fmt::Arguments<'_>") align 8 %_5, ptr align 8 @alloc_af99043bc04c419363a7f04d23183506, i64 1) #7, !dbg !435
; call core::panicking::panic_fmt
  call void @_ZN4core9panicking9panic_fmt17h7c3b1a7d9368f16cE(ptr align 8 %_5, ptr align 8 @alloc_40dc4a2e4fa36320ad05a7f7aeedf921) #11, !dbg !435
  unreachable, !dbg !435
}

; core::ops::function::FnOnce::call_once
; Function Attrs: inlinehint noredzone nounwind
define internal void @_ZN4core3ops8function6FnOnce9call_once17h2dec0634a49b483aE(ptr sret(%"global_descriptor_table::GlobalDescriptorTableSetup") align 8 %_0) unnamed_addr #0 !dbg !436 {
start:
  %code_selector.dbg.spill.i = alloca i16, align 2
  %tss_selector.dbg.spill.i = alloca i16, align 2
  %stack_end.dbg.spill.i = alloca i64, align 8
  %stack_start.dbg.spill.i = alloca i64, align 8
  %_20.i = alloca { i16, i16 }, align 2
  %_19.i = alloca %"x86_64::structures::gdt::GlobalDescriptorTable", align 8
  %_18.i = alloca %"x86_64::structures::gdt::Descriptor", align 8
  %_13.i = alloca %"x86_64::structures::gdt::Descriptor", align 8
  %global_descriptor_table.i = alloca %"x86_64::structures::gdt::GlobalDescriptorTable", align 8
  %_1.dbg.spill = alloca {}, align 1
  %_2 = alloca {}, align 1
  call void @llvm.dbg.declare(metadata ptr %_1.dbg.spill, metadata !446, metadata !DIExpression()), !dbg !451
  call void @llvm.dbg.declare(metadata ptr %_2, metadata !447, metadata !DIExpression()), !dbg !451
  call void @llvm.dbg.declare(metadata ptr %global_descriptor_table.i, metadata !452, metadata !DIExpression()), !dbg !464
; call x86_64::structures::gdt::GlobalDescriptorTable::new
  call void @_ZN6x86_6410structures3gdt21GlobalDescriptorTable3new17hfba27fab313a06baE(ptr sret(%"x86_64::structures::gdt::GlobalDescriptorTable") align 8 %global_descriptor_table.i) #7, !dbg !466
; call x86_64::addr::VirtAddr::from_ptr
  %stack_start.i = call i64 @_ZN6x86_644addr8VirtAddr8from_ptr17h7702dc94bf277e3cE(ptr @"_ZN108_$LT$cpu_interrupts..global_descriptor_table..GLOBAL_DESCRIPTOR_TABLE$u20$as$u20$core..ops..deref..Deref$GT$5deref23__static_ref_initialize5STACK17hb177c9898ac129e4E") #7, !dbg !468
  store i64 %stack_start.i, ptr %stack_start.dbg.spill.i, align 8, !dbg !468
  call void @llvm.dbg.declare(metadata ptr %stack_start.dbg.spill.i, metadata !456, metadata !DIExpression()), !dbg !469
; call <x86_64::addr::VirtAddr as core::ops::arith::Add<usize>>::add
  %stack_end.i = call i64 @"_ZN77_$LT$x86_64..addr..VirtAddr$u20$as$u20$core..ops..arith..Add$LT$usize$GT$$GT$3add17h96d9bccb3b0b709fE"(i64 %stack_start.i, i64 20480) #7, !dbg !470
  store i64 %stack_end.i, ptr %stack_end.dbg.spill.i, align 8, !dbg !470
  call void @llvm.dbg.declare(metadata ptr %stack_end.dbg.spill.i, metadata !458, metadata !DIExpression()), !dbg !471
  store i64 %stack_end.i, ptr getelementptr inbounds (%"x86_64::structures::tss::TaskStateSegment", ptr @"_ZN108_$LT$cpu_interrupts..global_descriptor_table..GLOBAL_DESCRIPTOR_TABLE$u20$as$u20$core..ops..deref..Deref$GT$5deref23__static_ref_initialize18TASK_STATE_SEGMENT17hf7c165a8c1938933E", i32 0, i32 3), align 4, !dbg !472
; call x86_64::structures::gdt::Descriptor::tss_segment
  call void @_ZN6x86_6410structures3gdt10Descriptor11tss_segment17h69c109fec9447258E(ptr sret(%"x86_64::structures::gdt::Descriptor") align 8 %_13.i, ptr align 4 @"_ZN108_$LT$cpu_interrupts..global_descriptor_table..GLOBAL_DESCRIPTOR_TABLE$u20$as$u20$core..ops..deref..Deref$GT$5deref23__static_ref_initialize18TASK_STATE_SEGMENT17hf7c165a8c1938933E") #7, !dbg !473
; call x86_64::structures::gdt::GlobalDescriptorTable::add_entry
  %tss_selector.i = call i16 @_ZN6x86_6410structures3gdt21GlobalDescriptorTable9add_entry17h27e59366fdf1a54fE(ptr align 8 %global_descriptor_table.i, ptr align 8 %_13.i) #7, !dbg !474
  store i16 %tss_selector.i, ptr %tss_selector.dbg.spill.i, align 2, !dbg !474
  call void @llvm.dbg.declare(metadata ptr %tss_selector.dbg.spill.i, metadata !460, metadata !DIExpression()), !dbg !475
; call x86_64::structures::gdt::Descriptor::kernel_code_segment
  call void @_ZN6x86_6410structures3gdt10Descriptor19kernel_code_segment17h8785f5c650a29bdcE(ptr sret(%"x86_64::structures::gdt::Descriptor") align 8 %_18.i) #7, !dbg !476
; call x86_64::structures::gdt::GlobalDescriptorTable::add_entry
  %code_selector.i = call i16 @_ZN6x86_6410structures3gdt21GlobalDescriptorTable9add_entry17h27e59366fdf1a54fE(ptr align 8 %global_descriptor_table.i, ptr align 8 %_18.i) #7, !dbg !477
  store i16 %code_selector.i, ptr %code_selector.dbg.spill.i, align 2, !dbg !477
  call void @llvm.dbg.declare(metadata ptr %code_selector.dbg.spill.i, metadata !462, metadata !DIExpression()), !dbg !478
  call void @llvm.memcpy.p0.p0.i64(ptr align 8 %_19.i, ptr align 8 %global_descriptor_table.i, i64 72, i1 false), !dbg !479
  store i16 %code_selector.i, ptr %_20.i, align 2, !dbg !480
  %0 = getelementptr inbounds { i16, i16 }, ptr %_20.i, i32 0, i32 1, !dbg !480
  store i16 %tss_selector.i, ptr %0, align 2, !dbg !480
  call void @llvm.memcpy.p0.p0.i64(ptr align 8 %_0, ptr align 8 %_19.i, i64 72, i1 false), !dbg !481
  %1 = load i16, ptr %_20.i, align 2, !dbg !481, !noundef !18
  %2 = getelementptr inbounds { i16, i16 }, ptr %_20.i, i32 0, i32 1, !dbg !481
  %3 = load i16, ptr %2, align 2, !dbg !481, !noundef !18
  %4 = getelementptr inbounds %"global_descriptor_table::GlobalDescriptorTableSetup", ptr %_0, i32 0, i32 1, !dbg !481
  store i16 %1, ptr %4, align 8, !dbg !481
  %5 = getelementptr inbounds { i16, i16 }, ptr %4, i32 0, i32 1, !dbg !481
  store i16 %3, ptr %5, align 2, !dbg !481
  ret void, !dbg !451
}

; core::ptr::drop_in_place<spin::once::Finish>
; Function Attrs: noredzone nounwind
define void @"_ZN4core3ptr39drop_in_place$LT$spin..once..Finish$GT$17hcad434fd4fe850e5E"(ptr align 8 %_1) unnamed_addr #1 !dbg !482 {
start:
  %_1.dbg.spill = alloca ptr, align 8
  store ptr %_1, ptr %_1.dbg.spill, align 8
  call void @llvm.dbg.declare(metadata ptr %_1.dbg.spill, metadata !494, metadata !DIExpression()), !dbg !497
; call <spin::once::Finish as core::ops::drop::Drop>::drop
  call void @"_ZN60_$LT$spin..once..Finish$u20$as$u20$core..ops..drop..Drop$GT$4drop17hc0e885f159cc1a1aE"(ptr align 8 %_1) #7, !dbg !497
  ret void, !dbg !497
}

; core::ptr::drop_in_place<spin::mutex::MutexGuard<pic8259::ChainedPics>>
; Function Attrs: noredzone nounwind
define void @"_ZN4core3ptr72drop_in_place$LT$spin..mutex..MutexGuard$LT$pic8259..ChainedPics$GT$$GT$17h88a06d4ddd13800dE"(ptr align 8 %_1) unnamed_addr #1 !dbg !498 {
start:
  %_1.dbg.spill = alloca ptr, align 8
  store ptr %_1, ptr %_1.dbg.spill, align 8
  call void @llvm.dbg.declare(metadata ptr %_1.dbg.spill, metadata !512, metadata !DIExpression()), !dbg !515
; call core::ptr::drop_in_place<spin::mutex::spin::SpinMutexGuard<pic8259::ChainedPics>>
  call void @"_ZN4core3ptr82drop_in_place$LT$spin..mutex..spin..SpinMutexGuard$LT$pic8259..ChainedPics$GT$$GT$17h827171676b83dce6E"(ptr align 8 %_1) #7, !dbg !515
  ret void, !dbg !515
}

; core::ptr::drop_in_place<spin::mutex::spin::SpinMutexGuard<pic8259::ChainedPics>>
; Function Attrs: noredzone nounwind
define void @"_ZN4core3ptr82drop_in_place$LT$spin..mutex..spin..SpinMutexGuard$LT$pic8259..ChainedPics$GT$$GT$17h827171676b83dce6E"(ptr align 8 %_1) unnamed_addr #1 !dbg !516 {
start:
  %_1.dbg.spill = alloca ptr, align 8
  store ptr %_1, ptr %_1.dbg.spill, align 8
  call void @llvm.dbg.declare(metadata ptr %_1.dbg.spill, metadata !521, metadata !DIExpression()), !dbg !524
; call <spin::mutex::spin::SpinMutexGuard<T> as core::ops::drop::Drop>::drop
  call void @"_ZN84_$LT$spin..mutex..spin..SpinMutexGuard$LT$T$GT$$u20$as$u20$core..ops..drop..Drop$GT$4drop17h48e7efc17cd61bedE"(ptr align 8 %_1) #7, !dbg !524
  ret void, !dbg !524
}

; core::hint::unreachable_unchecked
; Function Attrs: inlinehint noredzone noreturn nounwind
define internal void @_ZN4core4hint21unreachable_unchecked17hd31143c7c8c652afE() unnamed_addr #2 !dbg !525 {
start:
  br i1 true, label %bb1, label %bb2, !dbg !530

bb2:                                              ; preds = %_ZN4core4hint21unreachable_unchecked7runtime17he15dd8cf7b95b023E.exit, %start
  unreachable, !dbg !531

bb1:                                              ; preds = %start
; call core::panicking::panic_nounwind
  call void @_ZN4core9panicking14panic_nounwind17h3f66d49fb2fbf08dE(ptr align 1 @alloc_1eb6f53a157dccb32488e066ad957e6d, i64 82) #11, !dbg !532
  unreachable, !dbg !532

_ZN4core4hint21unreachable_unchecked7runtime17he15dd8cf7b95b023E.exit: ; No predecessors!
  br label %bb2, !dbg !530
}

; core::sync::atomic::AtomicBool::compare_exchange
; Function Attrs: inlinehint noredzone nounwind
define internal { i8, i8 } @_ZN4core4sync6atomic10AtomicBool16compare_exchange17haff00ae4b4997105E(ptr align 1 %self, i1 zeroext %current, i1 zeroext %new, i8 %success, i8 %failure) unnamed_addr #0 !dbg !537 {
start:
  %self.dbg.spill.i = alloca ptr, align 8
  %x.dbg.spill2 = alloca i8, align 1
  %x.dbg.spill = alloca i8, align 1
  %failure.dbg.spill = alloca i8, align 1
  %success.dbg.spill = alloca i8, align 1
  %new.dbg.spill = alloca i8, align 1
  %current.dbg.spill = alloca i8, align 1
  %self.dbg.spill = alloca ptr, align 8
  %_31 = alloca { i8, i8 }, align 1
  %old = alloca i8, align 1
  %_21 = alloca %"core::fmt::Arguments<'_>", align 8
  %_18 = alloca %"core::fmt::Arguments<'_>", align 8
  %_8 = alloca { i8, i8 }, align 1
  %order = alloca i8, align 1
  %_0 = alloca { i8, i8 }, align 1
  store ptr %self, ptr %self.dbg.spill, align 8
  call void @llvm.dbg.declare(metadata ptr %self.dbg.spill, metadata !559, metadata !DIExpression()), !dbg !572
  %0 = zext i1 %current to i8
  store i8 %0, ptr %current.dbg.spill, align 1
  call void @llvm.dbg.declare(metadata ptr %current.dbg.spill, metadata !560, metadata !DIExpression()), !dbg !573
  %1 = zext i1 %new to i8
  store i8 %1, ptr %new.dbg.spill, align 1
  call void @llvm.dbg.declare(metadata ptr %new.dbg.spill, metadata !561, metadata !DIExpression()), !dbg !574
  store i8 %success, ptr %success.dbg.spill, align 1
  call void @llvm.dbg.declare(metadata ptr %success.dbg.spill, metadata !562, metadata !DIExpression()), !dbg !575
  store i8 %failure, ptr %failure.dbg.spill, align 1
  call void @llvm.dbg.declare(metadata ptr %failure.dbg.spill, metadata !563, metadata !DIExpression()), !dbg !576
  call void @llvm.dbg.declare(metadata ptr %order, metadata !564, metadata !DIExpression()), !dbg !577
  call void @llvm.dbg.declare(metadata ptr %old, metadata !566, metadata !DIExpression()), !dbg !578
  br i1 false, label %bb1, label %bb28, !dbg !579

bb28:                                             ; preds = %start
  store ptr %self, ptr %self.dbg.spill.i, align 8
  call void @llvm.dbg.declare(metadata ptr %self.dbg.spill.i, metadata !580, metadata !DIExpression()), !dbg !589
  %_34 = zext i1 %current to i8, !dbg !591
  %_35 = zext i1 %new to i8, !dbg !592
; call core::sync::atomic::atomic_compare_exchange
  %2 = call { i8, i8 } @_ZN4core4sync6atomic23atomic_compare_exchange17ha0e451816f4d28c3E(ptr %self, i8 %_34, i8 %_35, i8 %success, i8 %failure) #7, !dbg !593
  store { i8, i8 } %2, ptr %_31, align 1, !dbg !593
  %3 = load i8, ptr %_31, align 1, !dbg !594, !range !595, !noundef !18
  %4 = trunc i8 %3 to i1, !dbg !594
  %_36 = zext i1 %4 to i64, !dbg !594
  %5 = icmp eq i64 %_36, 0, !dbg !596
  br i1 %5, label %bb32, label %bb31, !dbg !596

bb1:                                              ; preds = %start
  store i8 %success, ptr %_8, align 1, !dbg !597
  %6 = getelementptr inbounds { i8, i8 }, ptr %_8, i32 0, i32 1, !dbg !597
  store i8 %failure, ptr %6, align 1, !dbg !597
  %7 = load i8, ptr %_8, align 1, !dbg !597, !range !598, !noundef !18
  %_16 = zext i8 %7 to i64, !dbg !597
  %8 = icmp eq i64 %_16, 4, !dbg !599
  br i1 %8, label %bb11, label %bb2, !dbg !599

bb32:                                             ; preds = %bb28
  %9 = getelementptr inbounds { i8, i8 }, ptr %_31, i32 0, i32 1, !dbg !600
  %x = load i8, ptr %9, align 1, !dbg !600, !noundef !18
  store i8 %x, ptr %x.dbg.spill, align 1, !dbg !600
  call void @llvm.dbg.declare(metadata ptr %x.dbg.spill, metadata !568, metadata !DIExpression()), !dbg !601
  %_38 = icmp ne i8 %x, 0, !dbg !602
  %10 = getelementptr inbounds { i8, i8 }, ptr %_0, i32 0, i32 1, !dbg !603
  %11 = zext i1 %_38 to i8, !dbg !603
  store i8 %11, ptr %10, align 1, !dbg !603
  store i8 0, ptr %_0, align 1, !dbg !603
  br label %bb33, !dbg !604

bb31:                                             ; preds = %bb28
  %12 = getelementptr inbounds { i8, i8 }, ptr %_31, i32 0, i32 1, !dbg !605
  %x1 = load i8, ptr %12, align 1, !dbg !605, !noundef !18
  store i8 %x1, ptr %x.dbg.spill2, align 1, !dbg !605
  call void @llvm.dbg.declare(metadata ptr %x.dbg.spill2, metadata !570, metadata !DIExpression()), !dbg !606
  %_40 = icmp ne i8 %x1, 0, !dbg !607
  %13 = getelementptr inbounds { i8, i8 }, ptr %_0, i32 0, i32 1, !dbg !608
  %14 = zext i1 %_40 to i8, !dbg !608
  store i8 %14, ptr %13, align 1, !dbg !608
  store i8 1, ptr %_0, align 1, !dbg !608
  br label %bb33, !dbg !609

bb33:                                             ; preds = %bb26, %bb27, %bb31, %bb32
  %15 = getelementptr inbounds { i8, i8 }, ptr %_0, i32 0, i32 0, !dbg !610
  %16 = load i8, ptr %15, align 1, !dbg !610, !range !595, !noundef !18
  %17 = trunc i8 %16 to i1, !dbg !610
  %18 = getelementptr inbounds { i8, i8 }, ptr %_0, i32 0, i32 1, !dbg !610
  %19 = load i8, ptr %18, align 1, !dbg !610, !noundef !18
  %20 = zext i1 %17 to i8, !dbg !610
  %21 = insertvalue { i8, i8 } poison, i8 %20, 0, !dbg !610
  %22 = insertvalue { i8, i8 } %21, i8 %19, 1, !dbg !610
  ret { i8, i8 } %22, !dbg !610

bb11:                                             ; preds = %bb1
  store i8 4, ptr %order, align 1, !dbg !611
  br label %bb22, !dbg !611

bb2:                                              ; preds = %bb1
  %23 = getelementptr inbounds { i8, i8 }, ptr %_8, i32 0, i32 1, !dbg !597
  %24 = load i8, ptr %23, align 1, !dbg !597, !range !598, !noundef !18
  %_15 = zext i8 %24 to i64, !dbg !597
  %25 = icmp eq i64 %_15, 4, !dbg !599
  br i1 %25, label %bb12, label %bb3, !dbg !599

bb22:                                             ; preds = %bb18, %bb19, %bb9, %bb17, %bb16, %bb13, %bb12, %bb11
  %_24 = icmp eq i1 %current, %new, !dbg !612
  br i1 %_24, label %bb23, label %bb24, !dbg !612

bb12:                                             ; preds = %bb2
  store i8 4, ptr %order, align 1, !dbg !613
  br label %bb22, !dbg !613

bb3:                                              ; preds = %bb2
  %26 = load i8, ptr %_8, align 1, !dbg !597, !range !598, !noundef !18
  %_14 = zext i8 %26 to i64, !dbg !597
  %27 = icmp eq i64 %_14, 3, !dbg !599
  br i1 %27, label %bb13, label %bb4, !dbg !599

bb13:                                             ; preds = %bb3
  store i8 3, ptr %order, align 1, !dbg !614
  br label %bb22, !dbg !614

bb4:                                              ; preds = %bb3
  %28 = getelementptr inbounds { i8, i8 }, ptr %_8, i32 0, i32 1, !dbg !597
  %29 = load i8, ptr %28, align 1, !dbg !597, !range !598, !noundef !18
  %_13 = zext i8 %29 to i64, !dbg !597
  switch i64 %_13, label %bb5 [
    i64 2, label %bb6
    i64 3, label %bb14
  ], !dbg !599

bb5:                                              ; preds = %bb6, %bb4
  %30 = load i8, ptr %_8, align 1, !dbg !597, !range !598, !noundef !18
  %_12 = zext i8 %30 to i64, !dbg !597
  %31 = icmp eq i64 %_12, 2, !dbg !599
  br i1 %31, label %bb17, label %bb7, !dbg !599

bb6:                                              ; preds = %bb4
  %32 = load i8, ptr %_8, align 1, !dbg !597, !range !598, !noundef !18
  %_9 = zext i8 %32 to i64, !dbg !597
  %33 = icmp eq i64 %_9, 1, !dbg !599
  br i1 %33, label %bb16, label %bb5, !dbg !599

bb14:                                             ; preds = %bb4
; call core::fmt::Arguments::new_const
  call void @_ZN4core3fmt9Arguments9new_const17h1c03a8a7f4ffd56eE(ptr sret(%"core::fmt::Arguments<'_>") align 8 %_18, ptr align 8 @alloc_dd7d8f77c173bf31726eae321f955bec, i64 1) #7, !dbg !615
; call core::panicking::panic_fmt
  call void @_ZN4core9panicking9panic_fmt17h7c3b1a7d9368f16cE(ptr align 8 %_18, ptr align 8 @alloc_122716f189323124cb0c05846480a00c) #11, !dbg !615
  unreachable, !dbg !615

bb16:                                             ; preds = %bb6
  store i8 3, ptr %order, align 1, !dbg !616
  br label %bb22, !dbg !616

bb17:                                             ; preds = %bb5
  store i8 2, ptr %order, align 1, !dbg !617
  br label %bb22, !dbg !617

bb7:                                              ; preds = %bb5
  %34 = getelementptr inbounds { i8, i8 }, ptr %_8, i32 0, i32 1, !dbg !597
  %35 = load i8, ptr %34, align 1, !dbg !597, !range !598, !noundef !18
  %_11 = zext i8 %35 to i64, !dbg !597
  switch i64 %_11, label %bb10 [
    i64 0, label %bb8
    i64 1, label %bb20
    i64 2, label %bb18
  ], !dbg !599

bb10:                                             ; preds = %bb7
  unreachable, !dbg !597

bb8:                                              ; preds = %bb7
  %36 = load i8, ptr %_8, align 1, !dbg !597, !range !598, !noundef !18
  %_10 = zext i8 %36 to i64, !dbg !597
  %37 = icmp eq i64 %_10, 0, !dbg !599
  br i1 %37, label %bb9, label %bb19, !dbg !599

bb20:                                             ; preds = %bb7
; call core::fmt::Arguments::new_const
  call void @_ZN4core3fmt9Arguments9new_const17h1c03a8a7f4ffd56eE(ptr sret(%"core::fmt::Arguments<'_>") align 8 %_21, ptr align 8 @alloc_04ab601c54c6e0a22ff11d72dc7f4511, i64 1) #7, !dbg !618
; call core::panicking::panic_fmt
  call void @_ZN4core9panicking9panic_fmt17h7c3b1a7d9368f16cE(ptr align 8 %_21, ptr align 8 @alloc_1b2d53547632b0cd8d68abf128d934e0) #11, !dbg !618
  unreachable, !dbg !618

bb18:                                             ; preds = %bb7
  store i8 2, ptr %order, align 1, !dbg !619
  br label %bb22, !dbg !619

bb9:                                              ; preds = %bb8
  store i8 0, ptr %order, align 1, !dbg !620
  br label %bb22, !dbg !620

bb19:                                             ; preds = %bb8
  store i8 1, ptr %order, align 1, !dbg !621
  br label %bb22, !dbg !621

bb24:                                             ; preds = %bb22
  %_26 = load i8, ptr %order, align 1, !dbg !622, !range !598, !noundef !18
; call core::sync::atomic::AtomicBool::swap
  %38 = call zeroext i1 @_ZN4core4sync6atomic10AtomicBool4swap17h8dcb714decb164c3E(ptr align 1 %self, i1 zeroext %new, i8 %_26) #7, !dbg !623
  %39 = zext i1 %38 to i8, !dbg !623
  store i8 %39, ptr %old, align 1, !dbg !623
  br label %bb25, !dbg !623

bb23:                                             ; preds = %bb22
  %_25 = load i8, ptr %order, align 1, !dbg !624, !range !598, !noundef !18
; call core::sync::atomic::AtomicBool::fetch_or
  %40 = call zeroext i1 @_ZN4core4sync6atomic10AtomicBool8fetch_or17h2953d9fc928c3b77E(ptr align 1 %self, i1 zeroext false, i8 %_25) #7, !dbg !625
  %41 = zext i1 %40 to i8, !dbg !625
  store i8 %41, ptr %old, align 1, !dbg !625
  br label %bb25, !dbg !625

bb25:                                             ; preds = %bb23, %bb24
  %42 = load i8, ptr %old, align 1, !dbg !626, !range !595, !noundef !18
  %_28 = trunc i8 %42 to i1, !dbg !626
  %_27 = icmp eq i1 %_28, %current, !dbg !626
  br i1 %_27, label %bb26, label %bb27, !dbg !626

bb27:                                             ; preds = %bb25
  %43 = load i8, ptr %old, align 1, !dbg !627, !range !595, !noundef !18
  %_30 = trunc i8 %43 to i1, !dbg !627
  %44 = getelementptr inbounds { i8, i8 }, ptr %_0, i32 0, i32 1, !dbg !628
  %45 = zext i1 %_30 to i8, !dbg !628
  store i8 %45, ptr %44, align 1, !dbg !628
  store i8 1, ptr %_0, align 1, !dbg !628
  br label %bb33, !dbg !629

bb26:                                             ; preds = %bb25
  %46 = load i8, ptr %old, align 1, !dbg !630, !range !595, !noundef !18
  %_29 = trunc i8 %46 to i1, !dbg !630
  %47 = getelementptr inbounds { i8, i8 }, ptr %_0, i32 0, i32 1, !dbg !631
  %48 = zext i1 %_29 to i8, !dbg !631
  store i8 %48, ptr %47, align 1, !dbg !631
  store i8 0, ptr %_0, align 1, !dbg !631
  br label %bb33, !dbg !629
}

; core::sync::atomic::AtomicBool::compare_exchange_weak
; Function Attrs: inlinehint noredzone nounwind
define internal { i8, i8 } @_ZN4core4sync6atomic10AtomicBool21compare_exchange_weak17h7b2b9992c0d52d5fE(ptr align 1 %self, i1 zeroext %current, i1 zeroext %new, i8 %success, i8 %failure) unnamed_addr #0 !dbg !632 {
start:
  %self.dbg.spill.i = alloca ptr, align 8
  %x.dbg.spill2 = alloca i8, align 1
  %x.dbg.spill = alloca i8, align 1
  %failure.dbg.spill = alloca i8, align 1
  %success.dbg.spill = alloca i8, align 1
  %new.dbg.spill = alloca i8, align 1
  %current.dbg.spill = alloca i8, align 1
  %self.dbg.spill = alloca ptr, align 8
  %_7 = alloca { i8, i8 }, align 1
  %_0 = alloca { i8, i8 }, align 1
  store ptr %self, ptr %self.dbg.spill, align 8
  call void @llvm.dbg.declare(metadata ptr %self.dbg.spill, metadata !635, metadata !DIExpression()), !dbg !644
  %0 = zext i1 %current to i8
  store i8 %0, ptr %current.dbg.spill, align 1
  call void @llvm.dbg.declare(metadata ptr %current.dbg.spill, metadata !636, metadata !DIExpression()), !dbg !645
  %1 = zext i1 %new to i8
  store i8 %1, ptr %new.dbg.spill, align 1
  call void @llvm.dbg.declare(metadata ptr %new.dbg.spill, metadata !637, metadata !DIExpression()), !dbg !646
  store i8 %success, ptr %success.dbg.spill, align 1
  call void @llvm.dbg.declare(metadata ptr %success.dbg.spill, metadata !638, metadata !DIExpression()), !dbg !647
  store i8 %failure, ptr %failure.dbg.spill, align 1
  call void @llvm.dbg.declare(metadata ptr %failure.dbg.spill, metadata !639, metadata !DIExpression()), !dbg !648
  br i1 false, label %bb1, label %bb2, !dbg !649

bb2:                                              ; preds = %start
  store ptr %self, ptr %self.dbg.spill.i, align 8
  call void @llvm.dbg.declare(metadata ptr %self.dbg.spill.i, metadata !580, metadata !DIExpression()), !dbg !650
  %_10 = zext i1 %current to i8, !dbg !652
  %_11 = zext i1 %new to i8, !dbg !653
; call core::sync::atomic::atomic_compare_exchange_weak
  %2 = call { i8, i8 } @_ZN4core4sync6atomic28atomic_compare_exchange_weak17h84db82bf9a3b4fe5E(ptr %self, i8 %_10, i8 %_11, i8 %success, i8 %failure) #7, !dbg !654
  store { i8, i8 } %2, ptr %_7, align 1, !dbg !654
  %3 = load i8, ptr %_7, align 1, !dbg !655, !range !595, !noundef !18
  %4 = trunc i8 %3 to i1, !dbg !655
  %_12 = zext i1 %4 to i64, !dbg !655
  %5 = icmp eq i64 %_12, 0, !dbg !656
  br i1 %5, label %bb7, label %bb5, !dbg !656

bb1:                                              ; preds = %start
; call core::sync::atomic::AtomicBool::compare_exchange
  %6 = call { i8, i8 } @_ZN4core4sync6atomic10AtomicBool16compare_exchange17haff00ae4b4997105E(ptr align 1 %self, i1 zeroext %current, i1 zeroext %new, i8 %success, i8 %failure) #7, !dbg !657
  store { i8, i8 } %6, ptr %_0, align 1, !dbg !657
  br label %bb8, !dbg !657

bb7:                                              ; preds = %bb2
  %7 = getelementptr inbounds { i8, i8 }, ptr %_7, i32 0, i32 1, !dbg !658
  %x = load i8, ptr %7, align 1, !dbg !658, !noundef !18
  store i8 %x, ptr %x.dbg.spill, align 1, !dbg !658
  call void @llvm.dbg.declare(metadata ptr %x.dbg.spill, metadata !640, metadata !DIExpression()), !dbg !659
  %_14 = icmp ne i8 %x, 0, !dbg !660
  %8 = getelementptr inbounds { i8, i8 }, ptr %_0, i32 0, i32 1, !dbg !661
  %9 = zext i1 %_14 to i8, !dbg !661
  store i8 %9, ptr %8, align 1, !dbg !661
  store i8 0, ptr %_0, align 1, !dbg !661
  br label %bb8, !dbg !662

bb5:                                              ; preds = %bb2
  %10 = getelementptr inbounds { i8, i8 }, ptr %_7, i32 0, i32 1, !dbg !663
  %x1 = load i8, ptr %10, align 1, !dbg !663, !noundef !18
  store i8 %x1, ptr %x.dbg.spill2, align 1, !dbg !663
  call void @llvm.dbg.declare(metadata ptr %x.dbg.spill2, metadata !642, metadata !DIExpression()), !dbg !664
  %_16 = icmp ne i8 %x1, 0, !dbg !665
  %11 = getelementptr inbounds { i8, i8 }, ptr %_0, i32 0, i32 1, !dbg !666
  %12 = zext i1 %_16 to i8, !dbg !666
  store i8 %12, ptr %11, align 1, !dbg !666
  store i8 1, ptr %_0, align 1, !dbg !666
  br label %bb8, !dbg !667

bb8:                                              ; preds = %bb1, %bb5, %bb7
  %13 = getelementptr inbounds { i8, i8 }, ptr %_0, i32 0, i32 0, !dbg !668
  %14 = load i8, ptr %13, align 1, !dbg !668, !range !595, !noundef !18
  %15 = trunc i8 %14 to i1, !dbg !668
  %16 = getelementptr inbounds { i8, i8 }, ptr %_0, i32 0, i32 1, !dbg !668
  %17 = load i8, ptr %16, align 1, !dbg !668, !noundef !18
  %18 = zext i1 %15 to i8, !dbg !668
  %19 = insertvalue { i8, i8 } poison, i8 %18, 0, !dbg !668
  %20 = insertvalue { i8, i8 } %19, i8 %17, 1, !dbg !668
  ret { i8, i8 } %20, !dbg !668

bb6:                                              ; No predecessors!
  unreachable, !dbg !655
}

; core::sync::atomic::AtomicBool::load
; Function Attrs: inlinehint noredzone nounwind
define internal zeroext i1 @_ZN4core4sync6atomic10AtomicBool4load17h7d392ebf2cc5af5cE(ptr align 1 %self, i8 %order) unnamed_addr #0 !dbg !669 {
start:
  %self.dbg.spill.i = alloca ptr, align 8
  %order.dbg.spill = alloca i8, align 1
  %self.dbg.spill = alloca ptr, align 8
  store ptr %self, ptr %self.dbg.spill, align 8
  call void @llvm.dbg.declare(metadata ptr %self.dbg.spill, metadata !674, metadata !DIExpression()), !dbg !676
  store i8 %order, ptr %order.dbg.spill, align 1
  call void @llvm.dbg.declare(metadata ptr %order.dbg.spill, metadata !675, metadata !DIExpression()), !dbg !677
  store ptr %self, ptr %self.dbg.spill.i, align 8
  call void @llvm.dbg.declare(metadata ptr %self.dbg.spill.i, metadata !580, metadata !DIExpression()), !dbg !678
; call core::sync::atomic::atomic_load
  %_3 = call i8 @_ZN4core4sync6atomic11atomic_load17h2089659f168563beE(ptr %self, i8 %order) #7, !dbg !680
  %_0 = icmp ne i8 %_3, 0, !dbg !680
  ret i1 %_0, !dbg !681
}

; core::sync::atomic::AtomicBool::swap
; Function Attrs: inlinehint noredzone nounwind
define internal zeroext i1 @_ZN4core4sync6atomic10AtomicBool4swap17h8dcb714decb164c3E(ptr align 1 %self, i1 zeroext %val, i8 %order) unnamed_addr #0 !dbg !682 {
start:
  %self.dbg.spill.i = alloca ptr, align 8
  %order.dbg.spill = alloca i8, align 1
  %val.dbg.spill = alloca i8, align 1
  %self.dbg.spill = alloca ptr, align 8
  %_0 = alloca i8, align 1
  store ptr %self, ptr %self.dbg.spill, align 8
  call void @llvm.dbg.declare(metadata ptr %self.dbg.spill, metadata !687, metadata !DIExpression()), !dbg !690
  %0 = zext i1 %val to i8
  store i8 %0, ptr %val.dbg.spill, align 1
  call void @llvm.dbg.declare(metadata ptr %val.dbg.spill, metadata !688, metadata !DIExpression()), !dbg !691
  store i8 %order, ptr %order.dbg.spill, align 1
  call void @llvm.dbg.declare(metadata ptr %order.dbg.spill, metadata !689, metadata !DIExpression()), !dbg !692
  br i1 false, label %bb1, label %bb4, !dbg !693

bb4:                                              ; preds = %start
  store ptr %self, ptr %self.dbg.spill.i, align 8
  call void @llvm.dbg.declare(metadata ptr %self.dbg.spill.i, metadata !580, metadata !DIExpression()), !dbg !694
  %_8 = zext i1 %val to i8, !dbg !696
; call core::sync::atomic::atomic_swap
  %_5 = call i8 @_ZN4core4sync6atomic11atomic_swap17hce86dd93c584c8f5E(ptr %self, i8 %_8, i8 %order) #7, !dbg !697
  %1 = icmp ne i8 %_5, 0, !dbg !697
  %2 = zext i1 %1 to i8, !dbg !697
  store i8 %2, ptr %_0, align 1, !dbg !697
  br label %bb7, !dbg !698

bb1:                                              ; preds = %start
  br i1 %val, label %bb2, label %bb3, !dbg !699

bb7:                                              ; preds = %bb2, %bb3, %bb4
  %3 = load i8, ptr %_0, align 1, !dbg !700, !range !595, !noundef !18
  %4 = trunc i8 %3 to i1, !dbg !700
  ret i1 %4, !dbg !700

bb3:                                              ; preds = %bb1
; call core::sync::atomic::AtomicBool::fetch_and
  %5 = call zeroext i1 @_ZN4core4sync6atomic10AtomicBool9fetch_and17h3439799d95f9fef6E(ptr align 1 %self, i1 zeroext false, i8 %order) #7, !dbg !701
  %6 = zext i1 %5 to i8, !dbg !701
  store i8 %6, ptr %_0, align 1, !dbg !701
  br label %bb7, !dbg !701

bb2:                                              ; preds = %bb1
; call core::sync::atomic::AtomicBool::fetch_or
  %7 = call zeroext i1 @_ZN4core4sync6atomic10AtomicBool8fetch_or17h2953d9fc928c3b77E(ptr align 1 %self, i1 zeroext true, i8 %order) #7, !dbg !702
  %8 = zext i1 %7 to i8, !dbg !702
  store i8 %8, ptr %_0, align 1, !dbg !702
  br label %bb7, !dbg !702
}

; core::sync::atomic::AtomicBool::store
; Function Attrs: inlinehint noredzone nounwind
define internal void @_ZN4core4sync6atomic10AtomicBool5store17h91117250b1e87e30E(ptr align 1 %self, i1 zeroext %val, i8 %order) unnamed_addr #0 !dbg !703 {
start:
  %self.dbg.spill.i = alloca ptr, align 8
  %order.dbg.spill = alloca i8, align 1
  %val.dbg.spill = alloca i8, align 1
  %self.dbg.spill = alloca ptr, align 8
  store ptr %self, ptr %self.dbg.spill, align 8
  call void @llvm.dbg.declare(metadata ptr %self.dbg.spill, metadata !708, metadata !DIExpression()), !dbg !711
  %0 = zext i1 %val to i8
  store i8 %0, ptr %val.dbg.spill, align 1
  call void @llvm.dbg.declare(metadata ptr %val.dbg.spill, metadata !709, metadata !DIExpression()), !dbg !712
  store i8 %order, ptr %order.dbg.spill, align 1
  call void @llvm.dbg.declare(metadata ptr %order.dbg.spill, metadata !710, metadata !DIExpression()), !dbg !713
  store ptr %self, ptr %self.dbg.spill.i, align 8
  call void @llvm.dbg.declare(metadata ptr %self.dbg.spill.i, metadata !580, metadata !DIExpression()), !dbg !714
  %_7 = zext i1 %val to i8, !dbg !716
; call core::sync::atomic::atomic_store
  call void @_ZN4core4sync6atomic12atomic_store17hea7dd092d572ece5E(ptr %self, i8 %_7, i8 %order) #7, !dbg !717
  ret void, !dbg !718
}

; core::sync::atomic::AtomicBool::fetch_or
; Function Attrs: inlinehint noredzone nounwind
define internal zeroext i1 @_ZN4core4sync6atomic10AtomicBool8fetch_or17h2953d9fc928c3b77E(ptr align 1 %self, i1 zeroext %val, i8 %order) unnamed_addr #0 !dbg !719 {
start:
  %self.dbg.spill.i = alloca ptr, align 8
  %order.dbg.spill = alloca i8, align 1
  %val.dbg.spill = alloca i8, align 1
  %self.dbg.spill = alloca ptr, align 8
  store ptr %self, ptr %self.dbg.spill, align 8
  call void @llvm.dbg.declare(metadata ptr %self.dbg.spill, metadata !722, metadata !DIExpression()), !dbg !725
  %0 = zext i1 %val to i8
  store i8 %0, ptr %val.dbg.spill, align 1
  call void @llvm.dbg.declare(metadata ptr %val.dbg.spill, metadata !723, metadata !DIExpression()), !dbg !726
  store i8 %order, ptr %order.dbg.spill, align 1
  call void @llvm.dbg.declare(metadata ptr %order.dbg.spill, metadata !724, metadata !DIExpression()), !dbg !727
  store ptr %self, ptr %self.dbg.spill.i, align 8
  call void @llvm.dbg.declare(metadata ptr %self.dbg.spill.i, metadata !580, metadata !DIExpression()), !dbg !728
  %_7 = zext i1 %val to i8, !dbg !730
; call core::sync::atomic::atomic_or
  %_4 = call i8 @_ZN4core4sync6atomic9atomic_or17h59c6a2eedcace908E(ptr %self, i8 %_7, i8 %order) #7, !dbg !731
  %_0 = icmp ne i8 %_4, 0, !dbg !731
  ret i1 %_0, !dbg !732
}

; core::sync::atomic::AtomicBool::fetch_and
; Function Attrs: inlinehint noredzone nounwind
define internal zeroext i1 @_ZN4core4sync6atomic10AtomicBool9fetch_and17h3439799d95f9fef6E(ptr align 1 %self, i1 zeroext %val, i8 %order) unnamed_addr #0 !dbg !733 {
start:
  %self.dbg.spill.i = alloca ptr, align 8
  %order.dbg.spill = alloca i8, align 1
  %val.dbg.spill = alloca i8, align 1
  %self.dbg.spill = alloca ptr, align 8
  store ptr %self, ptr %self.dbg.spill, align 8
  call void @llvm.dbg.declare(metadata ptr %self.dbg.spill, metadata !736, metadata !DIExpression()), !dbg !739
  %0 = zext i1 %val to i8
  store i8 %0, ptr %val.dbg.spill, align 1
  call void @llvm.dbg.declare(metadata ptr %val.dbg.spill, metadata !737, metadata !DIExpression()), !dbg !740
  store i8 %order, ptr %order.dbg.spill, align 1
  call void @llvm.dbg.declare(metadata ptr %order.dbg.spill, metadata !738, metadata !DIExpression()), !dbg !741
  store ptr %self, ptr %self.dbg.spill.i, align 8
  call void @llvm.dbg.declare(metadata ptr %self.dbg.spill.i, metadata !580, metadata !DIExpression()), !dbg !742
  %_7 = zext i1 %val to i8, !dbg !744
; call core::sync::atomic::atomic_and
  %_4 = call i8 @_ZN4core4sync6atomic10atomic_and17ha9ee008c6c87b1d8E(ptr %self, i8 %_7, i8 %order) #7, !dbg !745
  %_0 = icmp ne i8 %_4, 0, !dbg !745
  ret i1 %_0, !dbg !746
}

; core::sync::atomic::atomic_and
; Function Attrs: inlinehint noredzone nounwind
define i8 @_ZN4core4sync6atomic10atomic_and17ha9ee008c6c87b1d8E(ptr %dst, i8 %val, i8 %0) unnamed_addr #0 !dbg !747 {
start:
  %val.dbg.spill = alloca i8, align 1
  %dst.dbg.spill = alloca ptr, align 8
  %_0 = alloca i8, align 1
  %order = alloca i8, align 1
  store i8 %0, ptr %order, align 1
  store ptr %dst, ptr %dst.dbg.spill, align 8
  call void @llvm.dbg.declare(metadata ptr %dst.dbg.spill, metadata !751, metadata !DIExpression()), !dbg !754
  store i8 %val, ptr %val.dbg.spill, align 1
  call void @llvm.dbg.declare(metadata ptr %val.dbg.spill, metadata !752, metadata !DIExpression()), !dbg !755
  call void @llvm.dbg.declare(metadata ptr %order, metadata !753, metadata !DIExpression()), !dbg !756
  %1 = load i8, ptr %order, align 1, !dbg !757, !range !598, !noundef !18
  %_4 = zext i8 %1 to i64, !dbg !757
  switch i64 %_4, label %bb2 [
    i64 0, label %bb3
    i64 1, label %bb5
    i64 2, label %bb4
    i64 3, label %bb6
    i64 4, label %bb1
  ], !dbg !758

bb2:                                              ; preds = %start
  unreachable, !dbg !757

bb3:                                              ; preds = %start
  %2 = atomicrmw and ptr %dst, i8 %val monotonic, align 1, !dbg !759
  store i8 %2, ptr %_0, align 1, !dbg !759
  br label %bb7, !dbg !759

bb5:                                              ; preds = %start
  %3 = atomicrmw and ptr %dst, i8 %val release, align 1, !dbg !760
  store i8 %3, ptr %_0, align 1, !dbg !760
  br label %bb7, !dbg !760

bb4:                                              ; preds = %start
  %4 = atomicrmw and ptr %dst, i8 %val acquire, align 1, !dbg !761
  store i8 %4, ptr %_0, align 1, !dbg !761
  br label %bb7, !dbg !761

bb6:                                              ; preds = %start
  %5 = atomicrmw and ptr %dst, i8 %val acq_rel, align 1, !dbg !762
  store i8 %5, ptr %_0, align 1, !dbg !762
  br label %bb7, !dbg !762

bb1:                                              ; preds = %start
  %6 = atomicrmw and ptr %dst, i8 %val seq_cst, align 1, !dbg !763
  store i8 %6, ptr %_0, align 1, !dbg !763
  br label %bb7, !dbg !763

bb7:                                              ; preds = %bb1, %bb6, %bb4, %bb5, %bb3
  %7 = load i8, ptr %_0, align 1, !dbg !764, !noundef !18
  ret i8 %7, !dbg !764
}

; core::sync::atomic::AtomicUsize::compare_and_swap
; Function Attrs: inlinehint noredzone nounwind
define internal i64 @_ZN4core4sync6atomic11AtomicUsize16compare_and_swap17hb5dd2c8f85c83fe2E(ptr align 8 %self, i64 %current, i64 %new, i8 %order) unnamed_addr #0 !dbg !765 {
start:
  %x.dbg.spill2 = alloca i64, align 8
  %x.dbg.spill = alloca i64, align 8
  %order.dbg.spill = alloca i8, align 1
  %new.dbg.spill = alloca i64, align 8
  %current.dbg.spill = alloca i64, align 8
  %self.dbg.spill = alloca ptr, align 8
  %_5 = alloca { i64, i64 }, align 8
  %_0 = alloca i64, align 8
  store ptr %self, ptr %self.dbg.spill, align 8
  call void @llvm.dbg.declare(metadata ptr %self.dbg.spill, metadata !770, metadata !DIExpression()), !dbg !778
  store i64 %current, ptr %current.dbg.spill, align 8
  call void @llvm.dbg.declare(metadata ptr %current.dbg.spill, metadata !771, metadata !DIExpression()), !dbg !779
  store i64 %new, ptr %new.dbg.spill, align 8
  call void @llvm.dbg.declare(metadata ptr %new.dbg.spill, metadata !772, metadata !DIExpression()), !dbg !780
  store i8 %order, ptr %order.dbg.spill, align 1
  call void @llvm.dbg.declare(metadata ptr %order.dbg.spill, metadata !773, metadata !DIExpression()), !dbg !781
; call core::sync::atomic::strongest_failure_ordering
  %_6 = call i8 @_ZN4core4sync6atomic26strongest_failure_ordering17h298796c8964b582dE(i8 %order) #7, !dbg !782, !range !598
; call core::sync::atomic::AtomicUsize::compare_exchange
  %0 = call { i64, i64 } @_ZN4core4sync6atomic11AtomicUsize16compare_exchange17h02e466d5c4779688E(ptr align 8 %self, i64 %current, i64 %new, i8 %order, i8 %_6) #7, !dbg !783
  store { i64, i64 } %0, ptr %_5, align 8, !dbg !783
  %_7 = load i64, ptr %_5, align 8, !dbg !783, !range !784, !noundef !18
  %1 = icmp eq i64 %_7, 0, !dbg !785
  br i1 %1, label %bb5, label %bb3, !dbg !785

bb5:                                              ; preds = %start
  %2 = getelementptr inbounds { i64, i64 }, ptr %_5, i32 0, i32 1, !dbg !786
  %x = load i64, ptr %2, align 8, !dbg !786, !noundef !18
  store i64 %x, ptr %x.dbg.spill, align 8, !dbg !786
  call void @llvm.dbg.declare(metadata ptr %x.dbg.spill, metadata !774, metadata !DIExpression()), !dbg !787
  store i64 %x, ptr %_0, align 8, !dbg !788
  br label %bb6, !dbg !789

bb3:                                              ; preds = %start
  %3 = getelementptr inbounds { i64, i64 }, ptr %_5, i32 0, i32 1, !dbg !790
  %x1 = load i64, ptr %3, align 8, !dbg !790, !noundef !18
  store i64 %x1, ptr %x.dbg.spill2, align 8, !dbg !790
  call void @llvm.dbg.declare(metadata ptr %x.dbg.spill2, metadata !776, metadata !DIExpression()), !dbg !791
  store i64 %x1, ptr %_0, align 8, !dbg !792
  br label %bb6, !dbg !793

bb6:                                              ; preds = %bb3, %bb5
  %4 = load i64, ptr %_0, align 8, !dbg !794, !noundef !18
  ret i64 %4, !dbg !794

bb4:                                              ; No predecessors!
  unreachable, !dbg !783
}

; core::sync::atomic::AtomicUsize::compare_exchange
; Function Attrs: inlinehint noredzone nounwind
define internal { i64, i64 } @_ZN4core4sync6atomic11AtomicUsize16compare_exchange17h02e466d5c4779688E(ptr align 8 %self, i64 %current, i64 %new, i8 %success, i8 %failure) unnamed_addr #0 !dbg !795 {
start:
  %self.dbg.spill.i = alloca ptr, align 8
  %failure.dbg.spill = alloca i8, align 1
  %success.dbg.spill = alloca i8, align 1
  %new.dbg.spill = alloca i64, align 8
  %current.dbg.spill = alloca i64, align 8
  %self.dbg.spill = alloca ptr, align 8
  store ptr %self, ptr %self.dbg.spill, align 8
  call void @llvm.dbg.declare(metadata ptr %self.dbg.spill, metadata !815, metadata !DIExpression()), !dbg !820
  store i64 %current, ptr %current.dbg.spill, align 8
  call void @llvm.dbg.declare(metadata ptr %current.dbg.spill, metadata !816, metadata !DIExpression()), !dbg !821
  store i64 %new, ptr %new.dbg.spill, align 8
  call void @llvm.dbg.declare(metadata ptr %new.dbg.spill, metadata !817, metadata !DIExpression()), !dbg !822
  store i8 %success, ptr %success.dbg.spill, align 1
  call void @llvm.dbg.declare(metadata ptr %success.dbg.spill, metadata !818, metadata !DIExpression()), !dbg !823
  store i8 %failure, ptr %failure.dbg.spill, align 1
  call void @llvm.dbg.declare(metadata ptr %failure.dbg.spill, metadata !819, metadata !DIExpression()), !dbg !824
  store ptr %self, ptr %self.dbg.spill.i, align 8
  call void @llvm.dbg.declare(metadata ptr %self.dbg.spill.i, metadata !825, metadata !DIExpression()), !dbg !833
; call core::sync::atomic::atomic_compare_exchange
  %0 = call { i64, i64 } @_ZN4core4sync6atomic23atomic_compare_exchange17hdafacda61dcf9256E(ptr %self, i64 %current, i64 %new, i8 %success, i8 %failure) #7, !dbg !835
  %_0.0 = extractvalue { i64, i64 } %0, 0, !dbg !835
  %_0.1 = extractvalue { i64, i64 } %0, 1, !dbg !835
  %1 = insertvalue { i64, i64 } poison, i64 %_0.0, 0, !dbg !836
  %2 = insertvalue { i64, i64 } %1, i64 %_0.1, 1, !dbg !836
  ret { i64, i64 } %2, !dbg !836
}

; core::sync::atomic::AtomicUsize::load
; Function Attrs: inlinehint noredzone nounwind
define internal i64 @_ZN4core4sync6atomic11AtomicUsize4load17h174c48e133a68119E(ptr align 8 %self, i8 %order) unnamed_addr #0 !dbg !837 {
start:
  %self.dbg.spill.i = alloca ptr, align 8
  %order.dbg.spill = alloca i8, align 1
  %self.dbg.spill = alloca ptr, align 8
  store ptr %self, ptr %self.dbg.spill, align 8
  call void @llvm.dbg.declare(metadata ptr %self.dbg.spill, metadata !842, metadata !DIExpression()), !dbg !844
  store i8 %order, ptr %order.dbg.spill, align 1
  call void @llvm.dbg.declare(metadata ptr %order.dbg.spill, metadata !843, metadata !DIExpression()), !dbg !845
  store ptr %self, ptr %self.dbg.spill.i, align 8
  call void @llvm.dbg.declare(metadata ptr %self.dbg.spill.i, metadata !825, metadata !DIExpression()), !dbg !846
; call core::sync::atomic::atomic_load
  %_0 = call i64 @_ZN4core4sync6atomic11atomic_load17hc0fe6930d423b940E(ptr %self, i8 %order) #7, !dbg !848
  ret i64 %_0, !dbg !849
}

; core::sync::atomic::AtomicUsize::store
; Function Attrs: inlinehint noredzone nounwind
define internal void @_ZN4core4sync6atomic11AtomicUsize5store17h12c79e004361fc9eE(ptr align 8 %self, i64 %val, i8 %order) unnamed_addr #0 !dbg !850 {
start:
  %self.dbg.spill.i = alloca ptr, align 8
  %order.dbg.spill = alloca i8, align 1
  %val.dbg.spill = alloca i64, align 8
  %self.dbg.spill = alloca ptr, align 8
  store ptr %self, ptr %self.dbg.spill, align 8
  call void @llvm.dbg.declare(metadata ptr %self.dbg.spill, metadata !855, metadata !DIExpression()), !dbg !858
  store i64 %val, ptr %val.dbg.spill, align 8
  call void @llvm.dbg.declare(metadata ptr %val.dbg.spill, metadata !856, metadata !DIExpression()), !dbg !859
  store i8 %order, ptr %order.dbg.spill, align 1
  call void @llvm.dbg.declare(metadata ptr %order.dbg.spill, metadata !857, metadata !DIExpression()), !dbg !860
  store ptr %self, ptr %self.dbg.spill.i, align 8
  call void @llvm.dbg.declare(metadata ptr %self.dbg.spill.i, metadata !825, metadata !DIExpression()), !dbg !861
; call core::sync::atomic::atomic_store
  call void @_ZN4core4sync6atomic12atomic_store17h6df621f43eed357dE(ptr %self, i64 %val, i8 %order) #7, !dbg !863
  ret void, !dbg !864
}

; core::sync::atomic::atomic_swap
; Function Attrs: inlinehint noredzone nounwind
define i8 @_ZN4core4sync6atomic11atomic_swap17hce86dd93c584c8f5E(ptr %dst, i8 %val, i8 %0) unnamed_addr #0 !dbg !865 {
start:
  %val.dbg.spill = alloca i8, align 1
  %dst.dbg.spill = alloca ptr, align 8
  %_0 = alloca i8, align 1
  %order = alloca i8, align 1
  store i8 %0, ptr %order, align 1
  store ptr %dst, ptr %dst.dbg.spill, align 8
  call void @llvm.dbg.declare(metadata ptr %dst.dbg.spill, metadata !867, metadata !DIExpression()), !dbg !870
  store i8 %val, ptr %val.dbg.spill, align 1
  call void @llvm.dbg.declare(metadata ptr %val.dbg.spill, metadata !868, metadata !DIExpression()), !dbg !871
  call void @llvm.dbg.declare(metadata ptr %order, metadata !869, metadata !DIExpression()), !dbg !872
  %1 = load i8, ptr %order, align 1, !dbg !873, !range !598, !noundef !18
  %_4 = zext i8 %1 to i64, !dbg !873
  switch i64 %_4, label %bb2 [
    i64 0, label %bb3
    i64 1, label %bb5
    i64 2, label %bb4
    i64 3, label %bb6
    i64 4, label %bb1
  ], !dbg !874

bb2:                                              ; preds = %start
  unreachable, !dbg !873

bb3:                                              ; preds = %start
  %2 = atomicrmw xchg ptr %dst, i8 %val monotonic, align 1, !dbg !875
  store i8 %2, ptr %_0, align 1, !dbg !875
  br label %bb7, !dbg !875

bb5:                                              ; preds = %start
  %3 = atomicrmw xchg ptr %dst, i8 %val release, align 1, !dbg !876
  store i8 %3, ptr %_0, align 1, !dbg !876
  br label %bb7, !dbg !876

bb4:                                              ; preds = %start
  %4 = atomicrmw xchg ptr %dst, i8 %val acquire, align 1, !dbg !877
  store i8 %4, ptr %_0, align 1, !dbg !877
  br label %bb7, !dbg !877

bb6:                                              ; preds = %start
  %5 = atomicrmw xchg ptr %dst, i8 %val acq_rel, align 1, !dbg !878
  store i8 %5, ptr %_0, align 1, !dbg !878
  br label %bb7, !dbg !878

bb1:                                              ; preds = %start
  %6 = atomicrmw xchg ptr %dst, i8 %val seq_cst, align 1, !dbg !879
  store i8 %6, ptr %_0, align 1, !dbg !879
  br label %bb7, !dbg !879

bb7:                                              ; preds = %bb1, %bb6, %bb4, %bb5, %bb3
  %7 = load i8, ptr %_0, align 1, !dbg !880, !noundef !18
  ret i8 %7, !dbg !880
}

; core::sync::atomic::spin_loop_hint
; Function Attrs: inlinehint noredzone nounwind
define internal void @_ZN4core4sync6atomic14spin_loop_hint17h00fb08d9fbe56b8eE() unnamed_addr #0 !dbg !881 {
start:
; call core::core_arch::x86::sse2::_mm_pause
  call void @_ZN4core9core_arch3x864sse29_mm_pause17h869a4f747f904cffE() #7, !dbg !882
  ret void, !dbg !885
}

; core::sync::atomic::atomic_compare_exchange
; Function Attrs: inlinehint noredzone nounwind
define { i8, i8 } @_ZN4core4sync6atomic23atomic_compare_exchange17ha0e451816f4d28c3E(ptr %dst, i8 %old, i8 %new, i8 %success, i8 %failure) unnamed_addr #0 !dbg !886 {
start:
  %ok.dbg.spill = alloca i8, align 1
  %val.dbg.spill = alloca i8, align 1
  %failure.dbg.spill = alloca i8, align 1
  %success.dbg.spill = alloca i8, align 1
  %new.dbg.spill = alloca i8, align 1
  %old.dbg.spill = alloca i8, align 1
  %dst.dbg.spill = alloca ptr, align 8
  %_21 = alloca %"core::fmt::Arguments<'_>", align 8
  %_18 = alloca %"core::fmt::Arguments<'_>", align 8
  %_9 = alloca { i8, i8 }, align 1
  %_8 = alloca { i8, i8 }, align 1
  %_0 = alloca { i8, i8 }, align 1
  store ptr %dst, ptr %dst.dbg.spill, align 8
  call void @llvm.dbg.declare(metadata ptr %dst.dbg.spill, metadata !905, metadata !DIExpression()), !dbg !913
  store i8 %old, ptr %old.dbg.spill, align 1
  call void @llvm.dbg.declare(metadata ptr %old.dbg.spill, metadata !906, metadata !DIExpression()), !dbg !914
  store i8 %new, ptr %new.dbg.spill, align 1
  call void @llvm.dbg.declare(metadata ptr %new.dbg.spill, metadata !907, metadata !DIExpression()), !dbg !915
  store i8 %success, ptr %success.dbg.spill, align 1
  call void @llvm.dbg.declare(metadata ptr %success.dbg.spill, metadata !908, metadata !DIExpression()), !dbg !916
  store i8 %failure, ptr %failure.dbg.spill, align 1
  call void @llvm.dbg.declare(metadata ptr %failure.dbg.spill, metadata !909, metadata !DIExpression()), !dbg !917
  store i8 %success, ptr %_9, align 1, !dbg !918
  %0 = getelementptr inbounds { i8, i8 }, ptr %_9, i32 0, i32 1, !dbg !918
  store i8 %failure, ptr %0, align 1, !dbg !918
  %1 = load i8, ptr %_9, align 1, !dbg !918, !range !598, !noundef !18
  %_16 = zext i8 %1 to i64, !dbg !918
  switch i64 %_16, label %bb7 [
    i64 0, label %bb1
    i64 1, label %bb3
    i64 2, label %bb4
    i64 3, label %bb5
    i64 4, label %bb6
  ], !dbg !919

bb7:                                              ; preds = %start
  unreachable, !dbg !918

bb1:                                              ; preds = %start
  %2 = getelementptr inbounds { i8, i8 }, ptr %_9, i32 0, i32 1, !dbg !918
  %3 = load i8, ptr %2, align 1, !dbg !918, !range !598, !noundef !18
  %_10 = zext i8 %3 to i64, !dbg !918
  switch i64 %_10, label %bb2 [
    i64 0, label %bb9
    i64 2, label %bb10
    i64 4, label %bb11
  ], !dbg !919

bb3:                                              ; preds = %start
  %4 = getelementptr inbounds { i8, i8 }, ptr %_9, i32 0, i32 1, !dbg !918
  %5 = load i8, ptr %4, align 1, !dbg !918, !range !598, !noundef !18
  %_11 = zext i8 %5 to i64, !dbg !918
  switch i64 %_11, label %bb2 [
    i64 0, label %bb15
    i64 2, label %bb16
    i64 4, label %bb17
  ], !dbg !919

bb4:                                              ; preds = %start
  %6 = getelementptr inbounds { i8, i8 }, ptr %_9, i32 0, i32 1, !dbg !918
  %7 = load i8, ptr %6, align 1, !dbg !918, !range !598, !noundef !18
  %_12 = zext i8 %7 to i64, !dbg !918
  switch i64 %_12, label %bb2 [
    i64 0, label %bb12
    i64 2, label %bb13
    i64 4, label %bb14
  ], !dbg !919

bb5:                                              ; preds = %start
  %8 = getelementptr inbounds { i8, i8 }, ptr %_9, i32 0, i32 1, !dbg !918
  %9 = load i8, ptr %8, align 1, !dbg !918, !range !598, !noundef !18
  %_13 = zext i8 %9 to i64, !dbg !918
  switch i64 %_13, label %bb2 [
    i64 0, label %bb18
    i64 2, label %bb19
    i64 4, label %bb20
  ], !dbg !919

bb6:                                              ; preds = %start
  %10 = getelementptr inbounds { i8, i8 }, ptr %_9, i32 0, i32 1, !dbg !918
  %11 = load i8, ptr %10, align 1, !dbg !918, !range !598, !noundef !18
  %_14 = zext i8 %11 to i64, !dbg !918
  switch i64 %_14, label %bb2 [
    i64 0, label %bb21
    i64 2, label %bb22
    i64 4, label %bb23
  ], !dbg !919

bb2:                                              ; preds = %bb6, %bb5, %bb4, %bb3, %bb1
  %12 = getelementptr inbounds { i8, i8 }, ptr %_9, i32 0, i32 1, !dbg !918
  %13 = load i8, ptr %12, align 1, !dbg !918, !range !598, !noundef !18
  %_15 = zext i8 %13 to i64, !dbg !918
  %14 = icmp eq i64 %_15, 1, !dbg !919
  br i1 %14, label %bb8, label %bb24, !dbg !919

bb9:                                              ; preds = %bb1
  %15 = cmpxchg ptr %dst, i8 %old, i8 %new monotonic monotonic, align 1, !dbg !920
  %16 = extractvalue { i8, i1 } %15, 0, !dbg !920
  %17 = extractvalue { i8, i1 } %15, 1, !dbg !920
  %18 = zext i1 %17 to i8, !dbg !920
  store i8 %16, ptr %_8, align 1, !dbg !920
  %19 = getelementptr inbounds { i8, i8 }, ptr %_8, i32 0, i32 1, !dbg !920
  store i8 %18, ptr %19, align 1, !dbg !920
  br label %bb27, !dbg !920

bb10:                                             ; preds = %bb1
  %20 = cmpxchg ptr %dst, i8 %old, i8 %new monotonic acquire, align 1, !dbg !921
  %21 = extractvalue { i8, i1 } %20, 0, !dbg !921
  %22 = extractvalue { i8, i1 } %20, 1, !dbg !921
  %23 = zext i1 %22 to i8, !dbg !921
  store i8 %21, ptr %_8, align 1, !dbg !921
  %24 = getelementptr inbounds { i8, i8 }, ptr %_8, i32 0, i32 1, !dbg !921
  store i8 %23, ptr %24, align 1, !dbg !921
  br label %bb27, !dbg !921

bb11:                                             ; preds = %bb1
  %25 = cmpxchg ptr %dst, i8 %old, i8 %new monotonic seq_cst, align 1, !dbg !922
  %26 = extractvalue { i8, i1 } %25, 0, !dbg !922
  %27 = extractvalue { i8, i1 } %25, 1, !dbg !922
  %28 = zext i1 %27 to i8, !dbg !922
  store i8 %26, ptr %_8, align 1, !dbg !922
  %29 = getelementptr inbounds { i8, i8 }, ptr %_8, i32 0, i32 1, !dbg !922
  store i8 %28, ptr %29, align 1, !dbg !922
  br label %bb27, !dbg !922

bb27:                                             ; preds = %bb23, %bb22, %bb21, %bb20, %bb19, %bb18, %bb14, %bb13, %bb12, %bb17, %bb16, %bb15, %bb11, %bb10, %bb9
  %val = load i8, ptr %_8, align 1, !dbg !923, !noundef !18
  store i8 %val, ptr %val.dbg.spill, align 1, !dbg !923
  call void @llvm.dbg.declare(metadata ptr %val.dbg.spill, metadata !910, metadata !DIExpression()), !dbg !924
  %30 = getelementptr inbounds { i8, i8 }, ptr %_8, i32 0, i32 1, !dbg !925
  %31 = load i8, ptr %30, align 1, !dbg !925, !range !595, !noundef !18
  %ok = trunc i8 %31 to i1, !dbg !925
  %32 = zext i1 %ok to i8, !dbg !925
  store i8 %32, ptr %ok.dbg.spill, align 1, !dbg !925
  call void @llvm.dbg.declare(metadata ptr %ok.dbg.spill, metadata !912, metadata !DIExpression()), !dbg !926
  br i1 %ok, label %bb28, label %bb29, !dbg !927

bb15:                                             ; preds = %bb3
  %33 = cmpxchg ptr %dst, i8 %old, i8 %new release monotonic, align 1, !dbg !928
  %34 = extractvalue { i8, i1 } %33, 0, !dbg !928
  %35 = extractvalue { i8, i1 } %33, 1, !dbg !928
  %36 = zext i1 %35 to i8, !dbg !928
  store i8 %34, ptr %_8, align 1, !dbg !928
  %37 = getelementptr inbounds { i8, i8 }, ptr %_8, i32 0, i32 1, !dbg !928
  store i8 %36, ptr %37, align 1, !dbg !928
  br label %bb27, !dbg !928

bb16:                                             ; preds = %bb3
  %38 = cmpxchg ptr %dst, i8 %old, i8 %new release acquire, align 1, !dbg !929
  %39 = extractvalue { i8, i1 } %38, 0, !dbg !929
  %40 = extractvalue { i8, i1 } %38, 1, !dbg !929
  %41 = zext i1 %40 to i8, !dbg !929
  store i8 %39, ptr %_8, align 1, !dbg !929
  %42 = getelementptr inbounds { i8, i8 }, ptr %_8, i32 0, i32 1, !dbg !929
  store i8 %41, ptr %42, align 1, !dbg !929
  br label %bb27, !dbg !929

bb17:                                             ; preds = %bb3
  %43 = cmpxchg ptr %dst, i8 %old, i8 %new release seq_cst, align 1, !dbg !930
  %44 = extractvalue { i8, i1 } %43, 0, !dbg !930
  %45 = extractvalue { i8, i1 } %43, 1, !dbg !930
  %46 = zext i1 %45 to i8, !dbg !930
  store i8 %44, ptr %_8, align 1, !dbg !930
  %47 = getelementptr inbounds { i8, i8 }, ptr %_8, i32 0, i32 1, !dbg !930
  store i8 %46, ptr %47, align 1, !dbg !930
  br label %bb27, !dbg !930

bb12:                                             ; preds = %bb4
  %48 = cmpxchg ptr %dst, i8 %old, i8 %new acquire monotonic, align 1, !dbg !931
  %49 = extractvalue { i8, i1 } %48, 0, !dbg !931
  %50 = extractvalue { i8, i1 } %48, 1, !dbg !931
  %51 = zext i1 %50 to i8, !dbg !931
  store i8 %49, ptr %_8, align 1, !dbg !931
  %52 = getelementptr inbounds { i8, i8 }, ptr %_8, i32 0, i32 1, !dbg !931
  store i8 %51, ptr %52, align 1, !dbg !931
  br label %bb27, !dbg !931

bb13:                                             ; preds = %bb4
  %53 = cmpxchg ptr %dst, i8 %old, i8 %new acquire acquire, align 1, !dbg !932
  %54 = extractvalue { i8, i1 } %53, 0, !dbg !932
  %55 = extractvalue { i8, i1 } %53, 1, !dbg !932
  %56 = zext i1 %55 to i8, !dbg !932
  store i8 %54, ptr %_8, align 1, !dbg !932
  %57 = getelementptr inbounds { i8, i8 }, ptr %_8, i32 0, i32 1, !dbg !932
  store i8 %56, ptr %57, align 1, !dbg !932
  br label %bb27, !dbg !932

bb14:                                             ; preds = %bb4
  %58 = cmpxchg ptr %dst, i8 %old, i8 %new acquire seq_cst, align 1, !dbg !933
  %59 = extractvalue { i8, i1 } %58, 0, !dbg !933
  %60 = extractvalue { i8, i1 } %58, 1, !dbg !933
  %61 = zext i1 %60 to i8, !dbg !933
  store i8 %59, ptr %_8, align 1, !dbg !933
  %62 = getelementptr inbounds { i8, i8 }, ptr %_8, i32 0, i32 1, !dbg !933
  store i8 %61, ptr %62, align 1, !dbg !933
  br label %bb27, !dbg !933

bb18:                                             ; preds = %bb5
  %63 = cmpxchg ptr %dst, i8 %old, i8 %new acq_rel monotonic, align 1, !dbg !934
  %64 = extractvalue { i8, i1 } %63, 0, !dbg !934
  %65 = extractvalue { i8, i1 } %63, 1, !dbg !934
  %66 = zext i1 %65 to i8, !dbg !934
  store i8 %64, ptr %_8, align 1, !dbg !934
  %67 = getelementptr inbounds { i8, i8 }, ptr %_8, i32 0, i32 1, !dbg !934
  store i8 %66, ptr %67, align 1, !dbg !934
  br label %bb27, !dbg !934

bb19:                                             ; preds = %bb5
  %68 = cmpxchg ptr %dst, i8 %old, i8 %new acq_rel acquire, align 1, !dbg !935
  %69 = extractvalue { i8, i1 } %68, 0, !dbg !935
  %70 = extractvalue { i8, i1 } %68, 1, !dbg !935
  %71 = zext i1 %70 to i8, !dbg !935
  store i8 %69, ptr %_8, align 1, !dbg !935
  %72 = getelementptr inbounds { i8, i8 }, ptr %_8, i32 0, i32 1, !dbg !935
  store i8 %71, ptr %72, align 1, !dbg !935
  br label %bb27, !dbg !935

bb20:                                             ; preds = %bb5
  %73 = cmpxchg ptr %dst, i8 %old, i8 %new acq_rel seq_cst, align 1, !dbg !936
  %74 = extractvalue { i8, i1 } %73, 0, !dbg !936
  %75 = extractvalue { i8, i1 } %73, 1, !dbg !936
  %76 = zext i1 %75 to i8, !dbg !936
  store i8 %74, ptr %_8, align 1, !dbg !936
  %77 = getelementptr inbounds { i8, i8 }, ptr %_8, i32 0, i32 1, !dbg !936
  store i8 %76, ptr %77, align 1, !dbg !936
  br label %bb27, !dbg !936

bb21:                                             ; preds = %bb6
  %78 = cmpxchg ptr %dst, i8 %old, i8 %new seq_cst monotonic, align 1, !dbg !937
  %79 = extractvalue { i8, i1 } %78, 0, !dbg !937
  %80 = extractvalue { i8, i1 } %78, 1, !dbg !937
  %81 = zext i1 %80 to i8, !dbg !937
  store i8 %79, ptr %_8, align 1, !dbg !937
  %82 = getelementptr inbounds { i8, i8 }, ptr %_8, i32 0, i32 1, !dbg !937
  store i8 %81, ptr %82, align 1, !dbg !937
  br label %bb27, !dbg !937

bb22:                                             ; preds = %bb6
  %83 = cmpxchg ptr %dst, i8 %old, i8 %new seq_cst acquire, align 1, !dbg !938
  %84 = extractvalue { i8, i1 } %83, 0, !dbg !938
  %85 = extractvalue { i8, i1 } %83, 1, !dbg !938
  %86 = zext i1 %85 to i8, !dbg !938
  store i8 %84, ptr %_8, align 1, !dbg !938
  %87 = getelementptr inbounds { i8, i8 }, ptr %_8, i32 0, i32 1, !dbg !938
  store i8 %86, ptr %87, align 1, !dbg !938
  br label %bb27, !dbg !938

bb23:                                             ; preds = %bb6
  %88 = cmpxchg ptr %dst, i8 %old, i8 %new seq_cst seq_cst, align 1, !dbg !939
  %89 = extractvalue { i8, i1 } %88, 0, !dbg !939
  %90 = extractvalue { i8, i1 } %88, 1, !dbg !939
  %91 = zext i1 %90 to i8, !dbg !939
  store i8 %89, ptr %_8, align 1, !dbg !939
  %92 = getelementptr inbounds { i8, i8 }, ptr %_8, i32 0, i32 1, !dbg !939
  store i8 %91, ptr %92, align 1, !dbg !939
  br label %bb27, !dbg !939

bb29:                                             ; preds = %bb27
  %93 = getelementptr inbounds { i8, i8 }, ptr %_0, i32 0, i32 1, !dbg !940
  store i8 %val, ptr %93, align 1, !dbg !940
  store i8 1, ptr %_0, align 1, !dbg !940
  br label %bb30, !dbg !941

bb28:                                             ; preds = %bb27
  %94 = getelementptr inbounds { i8, i8 }, ptr %_0, i32 0, i32 1, !dbg !942
  store i8 %val, ptr %94, align 1, !dbg !942
  store i8 0, ptr %_0, align 1, !dbg !942
  br label %bb30, !dbg !941

bb30:                                             ; preds = %bb28, %bb29
  %95 = getelementptr inbounds { i8, i8 }, ptr %_0, i32 0, i32 0, !dbg !943
  %96 = load i8, ptr %95, align 1, !dbg !943, !range !595, !noundef !18
  %97 = trunc i8 %96 to i1, !dbg !943
  %98 = getelementptr inbounds { i8, i8 }, ptr %_0, i32 0, i32 1, !dbg !943
  %99 = load i8, ptr %98, align 1, !dbg !943, !noundef !18
  %100 = zext i1 %97 to i8, !dbg !943
  %101 = insertvalue { i8, i8 } poison, i8 %100, 0, !dbg !943
  %102 = insertvalue { i8, i8 } %101, i8 %99, 1, !dbg !943
  ret { i8, i8 } %102, !dbg !943

bb8:                                              ; preds = %bb2
; call core::fmt::Arguments::new_const
  call void @_ZN4core3fmt9Arguments9new_const17h1c03a8a7f4ffd56eE(ptr sret(%"core::fmt::Arguments<'_>") align 8 %_21, ptr align 8 @alloc_04ab601c54c6e0a22ff11d72dc7f4511, i64 1) #7, !dbg !944
; call core::panicking::panic_fmt
  call void @_ZN4core9panicking9panic_fmt17h7c3b1a7d9368f16cE(ptr align 8 %_21, ptr align 8 @alloc_a1555e0a155dca2f5083258fcbf483f1) #11, !dbg !944
  unreachable, !dbg !944

bb24:                                             ; preds = %bb2
; call core::fmt::Arguments::new_const
  call void @_ZN4core3fmt9Arguments9new_const17h1c03a8a7f4ffd56eE(ptr sret(%"core::fmt::Arguments<'_>") align 8 %_18, ptr align 8 @alloc_dd7d8f77c173bf31726eae321f955bec, i64 1) #7, !dbg !945
; call core::panicking::panic_fmt
  call void @_ZN4core9panicking9panic_fmt17h7c3b1a7d9368f16cE(ptr align 8 %_18, ptr align 8 @alloc_33885c66f3e23721de7c078c26cbbbab) #11, !dbg !945
  unreachable, !dbg !945
}

; core::sync::atomic::atomic_compare_exchange
; Function Attrs: inlinehint noredzone nounwind
define { i64, i64 } @_ZN4core4sync6atomic23atomic_compare_exchange17hdafacda61dcf9256E(ptr %dst, i64 %old, i64 %new, i8 %success, i8 %failure) unnamed_addr #0 !dbg !946 {
start:
  %ok.dbg.spill = alloca i8, align 1
  %val.dbg.spill = alloca i64, align 8
  %failure.dbg.spill = alloca i8, align 1
  %success.dbg.spill = alloca i8, align 1
  %new.dbg.spill = alloca i64, align 8
  %old.dbg.spill = alloca i64, align 8
  %dst.dbg.spill = alloca ptr, align 8
  %_21 = alloca %"core::fmt::Arguments<'_>", align 8
  %_18 = alloca %"core::fmt::Arguments<'_>", align 8
  %_9 = alloca { i8, i8 }, align 1
  %_8 = alloca { i64, i8 }, align 8
  %_0 = alloca { i64, i64 }, align 8
  store ptr %dst, ptr %dst.dbg.spill, align 8
  call void @llvm.dbg.declare(metadata ptr %dst.dbg.spill, metadata !950, metadata !DIExpression()), !dbg !958
  store i64 %old, ptr %old.dbg.spill, align 8
  call void @llvm.dbg.declare(metadata ptr %old.dbg.spill, metadata !951, metadata !DIExpression()), !dbg !959
  store i64 %new, ptr %new.dbg.spill, align 8
  call void @llvm.dbg.declare(metadata ptr %new.dbg.spill, metadata !952, metadata !DIExpression()), !dbg !960
  store i8 %success, ptr %success.dbg.spill, align 1
  call void @llvm.dbg.declare(metadata ptr %success.dbg.spill, metadata !953, metadata !DIExpression()), !dbg !961
  store i8 %failure, ptr %failure.dbg.spill, align 1
  call void @llvm.dbg.declare(metadata ptr %failure.dbg.spill, metadata !954, metadata !DIExpression()), !dbg !962
  store i8 %success, ptr %_9, align 1, !dbg !963
  %0 = getelementptr inbounds { i8, i8 }, ptr %_9, i32 0, i32 1, !dbg !963
  store i8 %failure, ptr %0, align 1, !dbg !963
  %1 = load i8, ptr %_9, align 1, !dbg !963, !range !598, !noundef !18
  %_16 = zext i8 %1 to i64, !dbg !963
  switch i64 %_16, label %bb7 [
    i64 0, label %bb1
    i64 1, label %bb3
    i64 2, label %bb4
    i64 3, label %bb5
    i64 4, label %bb6
  ], !dbg !964

bb7:                                              ; preds = %start
  unreachable, !dbg !963

bb1:                                              ; preds = %start
  %2 = getelementptr inbounds { i8, i8 }, ptr %_9, i32 0, i32 1, !dbg !963
  %3 = load i8, ptr %2, align 1, !dbg !963, !range !598, !noundef !18
  %_10 = zext i8 %3 to i64, !dbg !963
  switch i64 %_10, label %bb2 [
    i64 0, label %bb9
    i64 2, label %bb10
    i64 4, label %bb11
  ], !dbg !964

bb3:                                              ; preds = %start
  %4 = getelementptr inbounds { i8, i8 }, ptr %_9, i32 0, i32 1, !dbg !963
  %5 = load i8, ptr %4, align 1, !dbg !963, !range !598, !noundef !18
  %_11 = zext i8 %5 to i64, !dbg !963
  switch i64 %_11, label %bb2 [
    i64 0, label %bb15
    i64 2, label %bb16
    i64 4, label %bb17
  ], !dbg !964

bb4:                                              ; preds = %start
  %6 = getelementptr inbounds { i8, i8 }, ptr %_9, i32 0, i32 1, !dbg !963
  %7 = load i8, ptr %6, align 1, !dbg !963, !range !598, !noundef !18
  %_12 = zext i8 %7 to i64, !dbg !963
  switch i64 %_12, label %bb2 [
    i64 0, label %bb12
    i64 2, label %bb13
    i64 4, label %bb14
  ], !dbg !964

bb5:                                              ; preds = %start
  %8 = getelementptr inbounds { i8, i8 }, ptr %_9, i32 0, i32 1, !dbg !963
  %9 = load i8, ptr %8, align 1, !dbg !963, !range !598, !noundef !18
  %_13 = zext i8 %9 to i64, !dbg !963
  switch i64 %_13, label %bb2 [
    i64 0, label %bb18
    i64 2, label %bb19
    i64 4, label %bb20
  ], !dbg !964

bb6:                                              ; preds = %start
  %10 = getelementptr inbounds { i8, i8 }, ptr %_9, i32 0, i32 1, !dbg !963
  %11 = load i8, ptr %10, align 1, !dbg !963, !range !598, !noundef !18
  %_14 = zext i8 %11 to i64, !dbg !963
  switch i64 %_14, label %bb2 [
    i64 0, label %bb21
    i64 2, label %bb22
    i64 4, label %bb23
  ], !dbg !964

bb2:                                              ; preds = %bb6, %bb5, %bb4, %bb3, %bb1
  %12 = getelementptr inbounds { i8, i8 }, ptr %_9, i32 0, i32 1, !dbg !963
  %13 = load i8, ptr %12, align 1, !dbg !963, !range !598, !noundef !18
  %_15 = zext i8 %13 to i64, !dbg !963
  %14 = icmp eq i64 %_15, 1, !dbg !964
  br i1 %14, label %bb8, label %bb24, !dbg !964

bb9:                                              ; preds = %bb1
  %15 = cmpxchg ptr %dst, i64 %old, i64 %new monotonic monotonic, align 8, !dbg !965
  %16 = extractvalue { i64, i1 } %15, 0, !dbg !965
  %17 = extractvalue { i64, i1 } %15, 1, !dbg !965
  %18 = zext i1 %17 to i8, !dbg !965
  store i64 %16, ptr %_8, align 8, !dbg !965
  %19 = getelementptr inbounds { i64, i8 }, ptr %_8, i32 0, i32 1, !dbg !965
  store i8 %18, ptr %19, align 8, !dbg !965
  br label %bb27, !dbg !965

bb10:                                             ; preds = %bb1
  %20 = cmpxchg ptr %dst, i64 %old, i64 %new monotonic acquire, align 8, !dbg !966
  %21 = extractvalue { i64, i1 } %20, 0, !dbg !966
  %22 = extractvalue { i64, i1 } %20, 1, !dbg !966
  %23 = zext i1 %22 to i8, !dbg !966
  store i64 %21, ptr %_8, align 8, !dbg !966
  %24 = getelementptr inbounds { i64, i8 }, ptr %_8, i32 0, i32 1, !dbg !966
  store i8 %23, ptr %24, align 8, !dbg !966
  br label %bb27, !dbg !966

bb11:                                             ; preds = %bb1
  %25 = cmpxchg ptr %dst, i64 %old, i64 %new monotonic seq_cst, align 8, !dbg !967
  %26 = extractvalue { i64, i1 } %25, 0, !dbg !967
  %27 = extractvalue { i64, i1 } %25, 1, !dbg !967
  %28 = zext i1 %27 to i8, !dbg !967
  store i64 %26, ptr %_8, align 8, !dbg !967
  %29 = getelementptr inbounds { i64, i8 }, ptr %_8, i32 0, i32 1, !dbg !967
  store i8 %28, ptr %29, align 8, !dbg !967
  br label %bb27, !dbg !967

bb27:                                             ; preds = %bb23, %bb22, %bb21, %bb20, %bb19, %bb18, %bb14, %bb13, %bb12, %bb17, %bb16, %bb15, %bb11, %bb10, %bb9
  %val = load i64, ptr %_8, align 8, !dbg !968, !noundef !18
  store i64 %val, ptr %val.dbg.spill, align 8, !dbg !968
  call void @llvm.dbg.declare(metadata ptr %val.dbg.spill, metadata !955, metadata !DIExpression()), !dbg !969
  %30 = getelementptr inbounds { i64, i8 }, ptr %_8, i32 0, i32 1, !dbg !970
  %31 = load i8, ptr %30, align 8, !dbg !970, !range !595, !noundef !18
  %ok = trunc i8 %31 to i1, !dbg !970
  %32 = zext i1 %ok to i8, !dbg !970
  store i8 %32, ptr %ok.dbg.spill, align 1, !dbg !970
  call void @llvm.dbg.declare(metadata ptr %ok.dbg.spill, metadata !957, metadata !DIExpression()), !dbg !971
  br i1 %ok, label %bb28, label %bb29, !dbg !972

bb15:                                             ; preds = %bb3
  %33 = cmpxchg ptr %dst, i64 %old, i64 %new release monotonic, align 8, !dbg !973
  %34 = extractvalue { i64, i1 } %33, 0, !dbg !973
  %35 = extractvalue { i64, i1 } %33, 1, !dbg !973
  %36 = zext i1 %35 to i8, !dbg !973
  store i64 %34, ptr %_8, align 8, !dbg !973
  %37 = getelementptr inbounds { i64, i8 }, ptr %_8, i32 0, i32 1, !dbg !973
  store i8 %36, ptr %37, align 8, !dbg !973
  br label %bb27, !dbg !973

bb16:                                             ; preds = %bb3
  %38 = cmpxchg ptr %dst, i64 %old, i64 %new release acquire, align 8, !dbg !974
  %39 = extractvalue { i64, i1 } %38, 0, !dbg !974
  %40 = extractvalue { i64, i1 } %38, 1, !dbg !974
  %41 = zext i1 %40 to i8, !dbg !974
  store i64 %39, ptr %_8, align 8, !dbg !974
  %42 = getelementptr inbounds { i64, i8 }, ptr %_8, i32 0, i32 1, !dbg !974
  store i8 %41, ptr %42, align 8, !dbg !974
  br label %bb27, !dbg !974

bb17:                                             ; preds = %bb3
  %43 = cmpxchg ptr %dst, i64 %old, i64 %new release seq_cst, align 8, !dbg !975
  %44 = extractvalue { i64, i1 } %43, 0, !dbg !975
  %45 = extractvalue { i64, i1 } %43, 1, !dbg !975
  %46 = zext i1 %45 to i8, !dbg !975
  store i64 %44, ptr %_8, align 8, !dbg !975
  %47 = getelementptr inbounds { i64, i8 }, ptr %_8, i32 0, i32 1, !dbg !975
  store i8 %46, ptr %47, align 8, !dbg !975
  br label %bb27, !dbg !975

bb12:                                             ; preds = %bb4
  %48 = cmpxchg ptr %dst, i64 %old, i64 %new acquire monotonic, align 8, !dbg !976
  %49 = extractvalue { i64, i1 } %48, 0, !dbg !976
  %50 = extractvalue { i64, i1 } %48, 1, !dbg !976
  %51 = zext i1 %50 to i8, !dbg !976
  store i64 %49, ptr %_8, align 8, !dbg !976
  %52 = getelementptr inbounds { i64, i8 }, ptr %_8, i32 0, i32 1, !dbg !976
  store i8 %51, ptr %52, align 8, !dbg !976
  br label %bb27, !dbg !976

bb13:                                             ; preds = %bb4
  %53 = cmpxchg ptr %dst, i64 %old, i64 %new acquire acquire, align 8, !dbg !977
  %54 = extractvalue { i64, i1 } %53, 0, !dbg !977
  %55 = extractvalue { i64, i1 } %53, 1, !dbg !977
  %56 = zext i1 %55 to i8, !dbg !977
  store i64 %54, ptr %_8, align 8, !dbg !977
  %57 = getelementptr inbounds { i64, i8 }, ptr %_8, i32 0, i32 1, !dbg !977
  store i8 %56, ptr %57, align 8, !dbg !977
  br label %bb27, !dbg !977

bb14:                                             ; preds = %bb4
  %58 = cmpxchg ptr %dst, i64 %old, i64 %new acquire seq_cst, align 8, !dbg !978
  %59 = extractvalue { i64, i1 } %58, 0, !dbg !978
  %60 = extractvalue { i64, i1 } %58, 1, !dbg !978
  %61 = zext i1 %60 to i8, !dbg !978
  store i64 %59, ptr %_8, align 8, !dbg !978
  %62 = getelementptr inbounds { i64, i8 }, ptr %_8, i32 0, i32 1, !dbg !978
  store i8 %61, ptr %62, align 8, !dbg !978
  br label %bb27, !dbg !978

bb18:                                             ; preds = %bb5
  %63 = cmpxchg ptr %dst, i64 %old, i64 %new acq_rel monotonic, align 8, !dbg !979
  %64 = extractvalue { i64, i1 } %63, 0, !dbg !979
  %65 = extractvalue { i64, i1 } %63, 1, !dbg !979
  %66 = zext i1 %65 to i8, !dbg !979
  store i64 %64, ptr %_8, align 8, !dbg !979
  %67 = getelementptr inbounds { i64, i8 }, ptr %_8, i32 0, i32 1, !dbg !979
  store i8 %66, ptr %67, align 8, !dbg !979
  br label %bb27, !dbg !979

bb19:                                             ; preds = %bb5
  %68 = cmpxchg ptr %dst, i64 %old, i64 %new acq_rel acquire, align 8, !dbg !980
  %69 = extractvalue { i64, i1 } %68, 0, !dbg !980
  %70 = extractvalue { i64, i1 } %68, 1, !dbg !980
  %71 = zext i1 %70 to i8, !dbg !980
  store i64 %69, ptr %_8, align 8, !dbg !980
  %72 = getelementptr inbounds { i64, i8 }, ptr %_8, i32 0, i32 1, !dbg !980
  store i8 %71, ptr %72, align 8, !dbg !980
  br label %bb27, !dbg !980

bb20:                                             ; preds = %bb5
  %73 = cmpxchg ptr %dst, i64 %old, i64 %new acq_rel seq_cst, align 8, !dbg !981
  %74 = extractvalue { i64, i1 } %73, 0, !dbg !981
  %75 = extractvalue { i64, i1 } %73, 1, !dbg !981
  %76 = zext i1 %75 to i8, !dbg !981
  store i64 %74, ptr %_8, align 8, !dbg !981
  %77 = getelementptr inbounds { i64, i8 }, ptr %_8, i32 0, i32 1, !dbg !981
  store i8 %76, ptr %77, align 8, !dbg !981
  br label %bb27, !dbg !981

bb21:                                             ; preds = %bb6
  %78 = cmpxchg ptr %dst, i64 %old, i64 %new seq_cst monotonic, align 8, !dbg !982
  %79 = extractvalue { i64, i1 } %78, 0, !dbg !982
  %80 = extractvalue { i64, i1 } %78, 1, !dbg !982
  %81 = zext i1 %80 to i8, !dbg !982
  store i64 %79, ptr %_8, align 8, !dbg !982
  %82 = getelementptr inbounds { i64, i8 }, ptr %_8, i32 0, i32 1, !dbg !982
  store i8 %81, ptr %82, align 8, !dbg !982
  br label %bb27, !dbg !982

bb22:                                             ; preds = %bb6
  %83 = cmpxchg ptr %dst, i64 %old, i64 %new seq_cst acquire, align 8, !dbg !983
  %84 = extractvalue { i64, i1 } %83, 0, !dbg !983
  %85 = extractvalue { i64, i1 } %83, 1, !dbg !983
  %86 = zext i1 %85 to i8, !dbg !983
  store i64 %84, ptr %_8, align 8, !dbg !983
  %87 = getelementptr inbounds { i64, i8 }, ptr %_8, i32 0, i32 1, !dbg !983
  store i8 %86, ptr %87, align 8, !dbg !983
  br label %bb27, !dbg !983

bb23:                                             ; preds = %bb6
  %88 = cmpxchg ptr %dst, i64 %old, i64 %new seq_cst seq_cst, align 8, !dbg !984
  %89 = extractvalue { i64, i1 } %88, 0, !dbg !984
  %90 = extractvalue { i64, i1 } %88, 1, !dbg !984
  %91 = zext i1 %90 to i8, !dbg !984
  store i64 %89, ptr %_8, align 8, !dbg !984
  %92 = getelementptr inbounds { i64, i8 }, ptr %_8, i32 0, i32 1, !dbg !984
  store i8 %91, ptr %92, align 8, !dbg !984
  br label %bb27, !dbg !984

bb29:                                             ; preds = %bb27
  %93 = getelementptr inbounds { i64, i64 }, ptr %_0, i32 0, i32 1, !dbg !985
  store i64 %val, ptr %93, align 8, !dbg !985
  store i64 1, ptr %_0, align 8, !dbg !985
  br label %bb30, !dbg !986

bb28:                                             ; preds = %bb27
  %94 = getelementptr inbounds { i64, i64 }, ptr %_0, i32 0, i32 1, !dbg !987
  store i64 %val, ptr %94, align 8, !dbg !987
  store i64 0, ptr %_0, align 8, !dbg !987
  br label %bb30, !dbg !986

bb30:                                             ; preds = %bb28, %bb29
  %95 = getelementptr inbounds { i64, i64 }, ptr %_0, i32 0, i32 0, !dbg !988
  %96 = load i64, ptr %95, align 8, !dbg !988, !range !784, !noundef !18
  %97 = getelementptr inbounds { i64, i64 }, ptr %_0, i32 0, i32 1, !dbg !988
  %98 = load i64, ptr %97, align 8, !dbg !988, !noundef !18
  %99 = insertvalue { i64, i64 } poison, i64 %96, 0, !dbg !988
  %100 = insertvalue { i64, i64 } %99, i64 %98, 1, !dbg !988
  ret { i64, i64 } %100, !dbg !988

bb8:                                              ; preds = %bb2
; call core::fmt::Arguments::new_const
  call void @_ZN4core3fmt9Arguments9new_const17h1c03a8a7f4ffd56eE(ptr sret(%"core::fmt::Arguments<'_>") align 8 %_21, ptr align 8 @alloc_04ab601c54c6e0a22ff11d72dc7f4511, i64 1) #7, !dbg !989
; call core::panicking::panic_fmt
  call void @_ZN4core9panicking9panic_fmt17h7c3b1a7d9368f16cE(ptr align 8 %_21, ptr align 8 @alloc_a1555e0a155dca2f5083258fcbf483f1) #11, !dbg !989
  unreachable, !dbg !989

bb24:                                             ; preds = %bb2
; call core::fmt::Arguments::new_const
  call void @_ZN4core3fmt9Arguments9new_const17h1c03a8a7f4ffd56eE(ptr sret(%"core::fmt::Arguments<'_>") align 8 %_18, ptr align 8 @alloc_dd7d8f77c173bf31726eae321f955bec, i64 1) #7, !dbg !990
; call core::panicking::panic_fmt
  call void @_ZN4core9panicking9panic_fmt17h7c3b1a7d9368f16cE(ptr align 8 %_18, ptr align 8 @alloc_33885c66f3e23721de7c078c26cbbbab) #11, !dbg !990
  unreachable, !dbg !990
}

; core::sync::atomic::strongest_failure_ordering
; Function Attrs: inlinehint noredzone nounwind
define internal i8 @_ZN4core4sync6atomic26strongest_failure_ordering17h298796c8964b582dE(i8 %0) unnamed_addr #0 !dbg !991 {
start:
  %_0 = alloca i8, align 1
  %order = alloca i8, align 1
  store i8 %0, ptr %order, align 1
  call void @llvm.dbg.declare(metadata ptr %order, metadata !995, metadata !DIExpression()), !dbg !996
  %1 = load i8, ptr %order, align 1, !dbg !997, !range !598, !noundef !18
  %_2 = zext i8 %1 to i64, !dbg !997
  switch i64 %_2, label %bb2 [
    i64 0, label %bb4
    i64 1, label %bb3
    i64 2, label %bb6
    i64 3, label %bb1
    i64 4, label %bb5
  ], !dbg !998

bb2:                                              ; preds = %start
  unreachable, !dbg !997

bb4:                                              ; preds = %start
  store i8 0, ptr %_0, align 1, !dbg !999
  br label %bb7, !dbg !999

bb3:                                              ; preds = %start
  store i8 0, ptr %_0, align 1, !dbg !1000
  br label %bb7, !dbg !1000

bb6:                                              ; preds = %start
  store i8 2, ptr %_0, align 1, !dbg !1001
  br label %bb7, !dbg !1001

bb1:                                              ; preds = %start
  store i8 2, ptr %_0, align 1, !dbg !1002
  br label %bb7, !dbg !1002

bb5:                                              ; preds = %start
  store i8 4, ptr %_0, align 1, !dbg !1003
  br label %bb7, !dbg !1003

bb7:                                              ; preds = %bb5, %bb1, %bb6, %bb3, %bb4
  %2 = load i8, ptr %_0, align 1, !dbg !1004, !range !598, !noundef !18
  ret i8 %2, !dbg !1004
}

; core::sync::atomic::atomic_compare_exchange_weak
; Function Attrs: inlinehint noredzone nounwind
define { i8, i8 } @_ZN4core4sync6atomic28atomic_compare_exchange_weak17h84db82bf9a3b4fe5E(ptr %dst, i8 %old, i8 %new, i8 %success, i8 %failure) unnamed_addr #0 !dbg !1005 {
start:
  %ok.dbg.spill = alloca i8, align 1
  %val.dbg.spill = alloca i8, align 1
  %failure.dbg.spill = alloca i8, align 1
  %success.dbg.spill = alloca i8, align 1
  %new.dbg.spill = alloca i8, align 1
  %old.dbg.spill = alloca i8, align 1
  %dst.dbg.spill = alloca ptr, align 8
  %_21 = alloca %"core::fmt::Arguments<'_>", align 8
  %_18 = alloca %"core::fmt::Arguments<'_>", align 8
  %_9 = alloca { i8, i8 }, align 1
  %_8 = alloca { i8, i8 }, align 1
  %_0 = alloca { i8, i8 }, align 1
  store ptr %dst, ptr %dst.dbg.spill, align 8
  call void @llvm.dbg.declare(metadata ptr %dst.dbg.spill, metadata !1007, metadata !DIExpression()), !dbg !1015
  store i8 %old, ptr %old.dbg.spill, align 1
  call void @llvm.dbg.declare(metadata ptr %old.dbg.spill, metadata !1008, metadata !DIExpression()), !dbg !1016
  store i8 %new, ptr %new.dbg.spill, align 1
  call void @llvm.dbg.declare(metadata ptr %new.dbg.spill, metadata !1009, metadata !DIExpression()), !dbg !1017
  store i8 %success, ptr %success.dbg.spill, align 1
  call void @llvm.dbg.declare(metadata ptr %success.dbg.spill, metadata !1010, metadata !DIExpression()), !dbg !1018
  store i8 %failure, ptr %failure.dbg.spill, align 1
  call void @llvm.dbg.declare(metadata ptr %failure.dbg.spill, metadata !1011, metadata !DIExpression()), !dbg !1019
  store i8 %success, ptr %_9, align 1, !dbg !1020
  %0 = getelementptr inbounds { i8, i8 }, ptr %_9, i32 0, i32 1, !dbg !1020
  store i8 %failure, ptr %0, align 1, !dbg !1020
  %1 = load i8, ptr %_9, align 1, !dbg !1020, !range !598, !noundef !18
  %_16 = zext i8 %1 to i64, !dbg !1020
  switch i64 %_16, label %bb7 [
    i64 0, label %bb1
    i64 1, label %bb3
    i64 2, label %bb4
    i64 3, label %bb5
    i64 4, label %bb6
  ], !dbg !1021

bb7:                                              ; preds = %start
  unreachable, !dbg !1020

bb1:                                              ; preds = %start
  %2 = getelementptr inbounds { i8, i8 }, ptr %_9, i32 0, i32 1, !dbg !1020
  %3 = load i8, ptr %2, align 1, !dbg !1020, !range !598, !noundef !18
  %_10 = zext i8 %3 to i64, !dbg !1020
  switch i64 %_10, label %bb2 [
    i64 0, label %bb9
    i64 2, label %bb10
    i64 4, label %bb11
  ], !dbg !1021

bb3:                                              ; preds = %start
  %4 = getelementptr inbounds { i8, i8 }, ptr %_9, i32 0, i32 1, !dbg !1020
  %5 = load i8, ptr %4, align 1, !dbg !1020, !range !598, !noundef !18
  %_11 = zext i8 %5 to i64, !dbg !1020
  switch i64 %_11, label %bb2 [
    i64 0, label %bb15
    i64 2, label %bb16
    i64 4, label %bb17
  ], !dbg !1021

bb4:                                              ; preds = %start
  %6 = getelementptr inbounds { i8, i8 }, ptr %_9, i32 0, i32 1, !dbg !1020
  %7 = load i8, ptr %6, align 1, !dbg !1020, !range !598, !noundef !18
  %_12 = zext i8 %7 to i64, !dbg !1020
  switch i64 %_12, label %bb2 [
    i64 0, label %bb12
    i64 2, label %bb13
    i64 4, label %bb14
  ], !dbg !1021

bb5:                                              ; preds = %start
  %8 = getelementptr inbounds { i8, i8 }, ptr %_9, i32 0, i32 1, !dbg !1020
  %9 = load i8, ptr %8, align 1, !dbg !1020, !range !598, !noundef !18
  %_13 = zext i8 %9 to i64, !dbg !1020
  switch i64 %_13, label %bb2 [
    i64 0, label %bb18
    i64 2, label %bb19
    i64 4, label %bb20
  ], !dbg !1021

bb6:                                              ; preds = %start
  %10 = getelementptr inbounds { i8, i8 }, ptr %_9, i32 0, i32 1, !dbg !1020
  %11 = load i8, ptr %10, align 1, !dbg !1020, !range !598, !noundef !18
  %_14 = zext i8 %11 to i64, !dbg !1020
  switch i64 %_14, label %bb2 [
    i64 0, label %bb21
    i64 2, label %bb22
    i64 4, label %bb23
  ], !dbg !1021

bb2:                                              ; preds = %bb6, %bb5, %bb4, %bb3, %bb1
  %12 = getelementptr inbounds { i8, i8 }, ptr %_9, i32 0, i32 1, !dbg !1020
  %13 = load i8, ptr %12, align 1, !dbg !1020, !range !598, !noundef !18
  %_15 = zext i8 %13 to i64, !dbg !1020
  %14 = icmp eq i64 %_15, 1, !dbg !1021
  br i1 %14, label %bb8, label %bb24, !dbg !1021

bb9:                                              ; preds = %bb1
  %15 = cmpxchg weak ptr %dst, i8 %old, i8 %new monotonic monotonic, align 1, !dbg !1022
  %16 = extractvalue { i8, i1 } %15, 0, !dbg !1022
  %17 = extractvalue { i8, i1 } %15, 1, !dbg !1022
  %18 = zext i1 %17 to i8, !dbg !1022
  store i8 %16, ptr %_8, align 1, !dbg !1022
  %19 = getelementptr inbounds { i8, i8 }, ptr %_8, i32 0, i32 1, !dbg !1022
  store i8 %18, ptr %19, align 1, !dbg !1022
  br label %bb27, !dbg !1022

bb10:                                             ; preds = %bb1
  %20 = cmpxchg weak ptr %dst, i8 %old, i8 %new monotonic acquire, align 1, !dbg !1023
  %21 = extractvalue { i8, i1 } %20, 0, !dbg !1023
  %22 = extractvalue { i8, i1 } %20, 1, !dbg !1023
  %23 = zext i1 %22 to i8, !dbg !1023
  store i8 %21, ptr %_8, align 1, !dbg !1023
  %24 = getelementptr inbounds { i8, i8 }, ptr %_8, i32 0, i32 1, !dbg !1023
  store i8 %23, ptr %24, align 1, !dbg !1023
  br label %bb27, !dbg !1023

bb11:                                             ; preds = %bb1
  %25 = cmpxchg weak ptr %dst, i8 %old, i8 %new monotonic seq_cst, align 1, !dbg !1024
  %26 = extractvalue { i8, i1 } %25, 0, !dbg !1024
  %27 = extractvalue { i8, i1 } %25, 1, !dbg !1024
  %28 = zext i1 %27 to i8, !dbg !1024
  store i8 %26, ptr %_8, align 1, !dbg !1024
  %29 = getelementptr inbounds { i8, i8 }, ptr %_8, i32 0, i32 1, !dbg !1024
  store i8 %28, ptr %29, align 1, !dbg !1024
  br label %bb27, !dbg !1024

bb27:                                             ; preds = %bb23, %bb22, %bb21, %bb20, %bb19, %bb18, %bb14, %bb13, %bb12, %bb17, %bb16, %bb15, %bb11, %bb10, %bb9
  %val = load i8, ptr %_8, align 1, !dbg !1025, !noundef !18
  store i8 %val, ptr %val.dbg.spill, align 1, !dbg !1025
  call void @llvm.dbg.declare(metadata ptr %val.dbg.spill, metadata !1012, metadata !DIExpression()), !dbg !1026
  %30 = getelementptr inbounds { i8, i8 }, ptr %_8, i32 0, i32 1, !dbg !1027
  %31 = load i8, ptr %30, align 1, !dbg !1027, !range !595, !noundef !18
  %ok = trunc i8 %31 to i1, !dbg !1027
  %32 = zext i1 %ok to i8, !dbg !1027
  store i8 %32, ptr %ok.dbg.spill, align 1, !dbg !1027
  call void @llvm.dbg.declare(metadata ptr %ok.dbg.spill, metadata !1014, metadata !DIExpression()), !dbg !1028
  br i1 %ok, label %bb28, label %bb29, !dbg !1029

bb15:                                             ; preds = %bb3
  %33 = cmpxchg weak ptr %dst, i8 %old, i8 %new release monotonic, align 1, !dbg !1030
  %34 = extractvalue { i8, i1 } %33, 0, !dbg !1030
  %35 = extractvalue { i8, i1 } %33, 1, !dbg !1030
  %36 = zext i1 %35 to i8, !dbg !1030
  store i8 %34, ptr %_8, align 1, !dbg !1030
  %37 = getelementptr inbounds { i8, i8 }, ptr %_8, i32 0, i32 1, !dbg !1030
  store i8 %36, ptr %37, align 1, !dbg !1030
  br label %bb27, !dbg !1030

bb16:                                             ; preds = %bb3
  %38 = cmpxchg weak ptr %dst, i8 %old, i8 %new release acquire, align 1, !dbg !1031
  %39 = extractvalue { i8, i1 } %38, 0, !dbg !1031
  %40 = extractvalue { i8, i1 } %38, 1, !dbg !1031
  %41 = zext i1 %40 to i8, !dbg !1031
  store i8 %39, ptr %_8, align 1, !dbg !1031
  %42 = getelementptr inbounds { i8, i8 }, ptr %_8, i32 0, i32 1, !dbg !1031
  store i8 %41, ptr %42, align 1, !dbg !1031
  br label %bb27, !dbg !1031

bb17:                                             ; preds = %bb3
  %43 = cmpxchg weak ptr %dst, i8 %old, i8 %new release seq_cst, align 1, !dbg !1032
  %44 = extractvalue { i8, i1 } %43, 0, !dbg !1032
  %45 = extractvalue { i8, i1 } %43, 1, !dbg !1032
  %46 = zext i1 %45 to i8, !dbg !1032
  store i8 %44, ptr %_8, align 1, !dbg !1032
  %47 = getelementptr inbounds { i8, i8 }, ptr %_8, i32 0, i32 1, !dbg !1032
  store i8 %46, ptr %47, align 1, !dbg !1032
  br label %bb27, !dbg !1032

bb12:                                             ; preds = %bb4
  %48 = cmpxchg weak ptr %dst, i8 %old, i8 %new acquire monotonic, align 1, !dbg !1033
  %49 = extractvalue { i8, i1 } %48, 0, !dbg !1033
  %50 = extractvalue { i8, i1 } %48, 1, !dbg !1033
  %51 = zext i1 %50 to i8, !dbg !1033
  store i8 %49, ptr %_8, align 1, !dbg !1033
  %52 = getelementptr inbounds { i8, i8 }, ptr %_8, i32 0, i32 1, !dbg !1033
  store i8 %51, ptr %52, align 1, !dbg !1033
  br label %bb27, !dbg !1033

bb13:                                             ; preds = %bb4
  %53 = cmpxchg weak ptr %dst, i8 %old, i8 %new acquire acquire, align 1, !dbg !1034
  %54 = extractvalue { i8, i1 } %53, 0, !dbg !1034
  %55 = extractvalue { i8, i1 } %53, 1, !dbg !1034
  %56 = zext i1 %55 to i8, !dbg !1034
  store i8 %54, ptr %_8, align 1, !dbg !1034
  %57 = getelementptr inbounds { i8, i8 }, ptr %_8, i32 0, i32 1, !dbg !1034
  store i8 %56, ptr %57, align 1, !dbg !1034
  br label %bb27, !dbg !1034

bb14:                                             ; preds = %bb4
  %58 = cmpxchg weak ptr %dst, i8 %old, i8 %new acquire seq_cst, align 1, !dbg !1035
  %59 = extractvalue { i8, i1 } %58, 0, !dbg !1035
  %60 = extractvalue { i8, i1 } %58, 1, !dbg !1035
  %61 = zext i1 %60 to i8, !dbg !1035
  store i8 %59, ptr %_8, align 1, !dbg !1035
  %62 = getelementptr inbounds { i8, i8 }, ptr %_8, i32 0, i32 1, !dbg !1035
  store i8 %61, ptr %62, align 1, !dbg !1035
  br label %bb27, !dbg !1035

bb18:                                             ; preds = %bb5
  %63 = cmpxchg weak ptr %dst, i8 %old, i8 %new acq_rel monotonic, align 1, !dbg !1036
  %64 = extractvalue { i8, i1 } %63, 0, !dbg !1036
  %65 = extractvalue { i8, i1 } %63, 1, !dbg !1036
  %66 = zext i1 %65 to i8, !dbg !1036
  store i8 %64, ptr %_8, align 1, !dbg !1036
  %67 = getelementptr inbounds { i8, i8 }, ptr %_8, i32 0, i32 1, !dbg !1036
  store i8 %66, ptr %67, align 1, !dbg !1036
  br label %bb27, !dbg !1036

bb19:                                             ; preds = %bb5
  %68 = cmpxchg weak ptr %dst, i8 %old, i8 %new acq_rel acquire, align 1, !dbg !1037
  %69 = extractvalue { i8, i1 } %68, 0, !dbg !1037
  %70 = extractvalue { i8, i1 } %68, 1, !dbg !1037
  %71 = zext i1 %70 to i8, !dbg !1037
  store i8 %69, ptr %_8, align 1, !dbg !1037
  %72 = getelementptr inbounds { i8, i8 }, ptr %_8, i32 0, i32 1, !dbg !1037
  store i8 %71, ptr %72, align 1, !dbg !1037
  br label %bb27, !dbg !1037

bb20:                                             ; preds = %bb5
  %73 = cmpxchg weak ptr %dst, i8 %old, i8 %new acq_rel seq_cst, align 1, !dbg !1038
  %74 = extractvalue { i8, i1 } %73, 0, !dbg !1038
  %75 = extractvalue { i8, i1 } %73, 1, !dbg !1038
  %76 = zext i1 %75 to i8, !dbg !1038
  store i8 %74, ptr %_8, align 1, !dbg !1038
  %77 = getelementptr inbounds { i8, i8 }, ptr %_8, i32 0, i32 1, !dbg !1038
  store i8 %76, ptr %77, align 1, !dbg !1038
  br label %bb27, !dbg !1038

bb21:                                             ; preds = %bb6
  %78 = cmpxchg weak ptr %dst, i8 %old, i8 %new seq_cst monotonic, align 1, !dbg !1039
  %79 = extractvalue { i8, i1 } %78, 0, !dbg !1039
  %80 = extractvalue { i8, i1 } %78, 1, !dbg !1039
  %81 = zext i1 %80 to i8, !dbg !1039
  store i8 %79, ptr %_8, align 1, !dbg !1039
  %82 = getelementptr inbounds { i8, i8 }, ptr %_8, i32 0, i32 1, !dbg !1039
  store i8 %81, ptr %82, align 1, !dbg !1039
  br label %bb27, !dbg !1039

bb22:                                             ; preds = %bb6
  %83 = cmpxchg weak ptr %dst, i8 %old, i8 %new seq_cst acquire, align 1, !dbg !1040
  %84 = extractvalue { i8, i1 } %83, 0, !dbg !1040
  %85 = extractvalue { i8, i1 } %83, 1, !dbg !1040
  %86 = zext i1 %85 to i8, !dbg !1040
  store i8 %84, ptr %_8, align 1, !dbg !1040
  %87 = getelementptr inbounds { i8, i8 }, ptr %_8, i32 0, i32 1, !dbg !1040
  store i8 %86, ptr %87, align 1, !dbg !1040
  br label %bb27, !dbg !1040

bb23:                                             ; preds = %bb6
  %88 = cmpxchg weak ptr %dst, i8 %old, i8 %new seq_cst seq_cst, align 1, !dbg !1041
  %89 = extractvalue { i8, i1 } %88, 0, !dbg !1041
  %90 = extractvalue { i8, i1 } %88, 1, !dbg !1041
  %91 = zext i1 %90 to i8, !dbg !1041
  store i8 %89, ptr %_8, align 1, !dbg !1041
  %92 = getelementptr inbounds { i8, i8 }, ptr %_8, i32 0, i32 1, !dbg !1041
  store i8 %91, ptr %92, align 1, !dbg !1041
  br label %bb27, !dbg !1041

bb29:                                             ; preds = %bb27
  %93 = getelementptr inbounds { i8, i8 }, ptr %_0, i32 0, i32 1, !dbg !1042
  store i8 %val, ptr %93, align 1, !dbg !1042
  store i8 1, ptr %_0, align 1, !dbg !1042
  br label %bb30, !dbg !1043

bb28:                                             ; preds = %bb27
  %94 = getelementptr inbounds { i8, i8 }, ptr %_0, i32 0, i32 1, !dbg !1044
  store i8 %val, ptr %94, align 1, !dbg !1044
  store i8 0, ptr %_0, align 1, !dbg !1044
  br label %bb30, !dbg !1043

bb30:                                             ; preds = %bb28, %bb29
  %95 = getelementptr inbounds { i8, i8 }, ptr %_0, i32 0, i32 0, !dbg !1045
  %96 = load i8, ptr %95, align 1, !dbg !1045, !range !595, !noundef !18
  %97 = trunc i8 %96 to i1, !dbg !1045
  %98 = getelementptr inbounds { i8, i8 }, ptr %_0, i32 0, i32 1, !dbg !1045
  %99 = load i8, ptr %98, align 1, !dbg !1045, !noundef !18
  %100 = zext i1 %97 to i8, !dbg !1045
  %101 = insertvalue { i8, i8 } poison, i8 %100, 0, !dbg !1045
  %102 = insertvalue { i8, i8 } %101, i8 %99, 1, !dbg !1045
  ret { i8, i8 } %102, !dbg !1045

bb8:                                              ; preds = %bb2
; call core::fmt::Arguments::new_const
  call void @_ZN4core3fmt9Arguments9new_const17h1c03a8a7f4ffd56eE(ptr sret(%"core::fmt::Arguments<'_>") align 8 %_21, ptr align 8 @alloc_04ab601c54c6e0a22ff11d72dc7f4511, i64 1) #7, !dbg !1046
; call core::panicking::panic_fmt
  call void @_ZN4core9panicking9panic_fmt17h7c3b1a7d9368f16cE(ptr align 8 %_21, ptr align 8 @alloc_06a420d8deee50645e90f2290df13e81) #11, !dbg !1046
  unreachable, !dbg !1046

bb24:                                             ; preds = %bb2
; call core::fmt::Arguments::new_const
  call void @_ZN4core3fmt9Arguments9new_const17h1c03a8a7f4ffd56eE(ptr sret(%"core::fmt::Arguments<'_>") align 8 %_18, ptr align 8 @alloc_dd7d8f77c173bf31726eae321f955bec, i64 1) #7, !dbg !1047
; call core::panicking::panic_fmt
  call void @_ZN4core9panicking9panic_fmt17h7c3b1a7d9368f16cE(ptr align 8 %_18, ptr align 8 @alloc_977f08ebfb81be136063f2d5037813a1) #11, !dbg !1047
  unreachable, !dbg !1047
}

; core::sync::atomic::atomic_or
; Function Attrs: inlinehint noredzone nounwind
define i8 @_ZN4core4sync6atomic9atomic_or17h59c6a2eedcace908E(ptr %dst, i8 %val, i8 %0) unnamed_addr #0 !dbg !1048 {
start:
  %val.dbg.spill = alloca i8, align 1
  %dst.dbg.spill = alloca ptr, align 8
  %_0 = alloca i8, align 1
  %order = alloca i8, align 1
  store i8 %0, ptr %order, align 1
  store ptr %dst, ptr %dst.dbg.spill, align 8
  call void @llvm.dbg.declare(metadata ptr %dst.dbg.spill, metadata !1050, metadata !DIExpression()), !dbg !1053
  store i8 %val, ptr %val.dbg.spill, align 1
  call void @llvm.dbg.declare(metadata ptr %val.dbg.spill, metadata !1051, metadata !DIExpression()), !dbg !1054
  call void @llvm.dbg.declare(metadata ptr %order, metadata !1052, metadata !DIExpression()), !dbg !1055
  %1 = load i8, ptr %order, align 1, !dbg !1056, !range !598, !noundef !18
  %_4 = zext i8 %1 to i64, !dbg !1056
  switch i64 %_4, label %bb2 [
    i64 0, label %bb1
    i64 1, label %bb5
    i64 2, label %bb4
    i64 3, label %bb6
    i64 4, label %bb3
  ], !dbg !1057

bb2:                                              ; preds = %start
  unreachable, !dbg !1056

bb1:                                              ; preds = %start
  %2 = atomicrmw or ptr %dst, i8 %val monotonic, align 1, !dbg !1058
  store i8 %2, ptr %_0, align 1, !dbg !1058
  br label %bb7, !dbg !1058

bb5:                                              ; preds = %start
  %3 = atomicrmw or ptr %dst, i8 %val release, align 1, !dbg !1059
  store i8 %3, ptr %_0, align 1, !dbg !1059
  br label %bb7, !dbg !1059

bb4:                                              ; preds = %start
  %4 = atomicrmw or ptr %dst, i8 %val acquire, align 1, !dbg !1060
  store i8 %4, ptr %_0, align 1, !dbg !1060
  br label %bb7, !dbg !1060

bb6:                                              ; preds = %start
  %5 = atomicrmw or ptr %dst, i8 %val acq_rel, align 1, !dbg !1061
  store i8 %5, ptr %_0, align 1, !dbg !1061
  br label %bb7, !dbg !1061

bb3:                                              ; preds = %start
  %6 = atomicrmw or ptr %dst, i8 %val seq_cst, align 1, !dbg !1062
  store i8 %6, ptr %_0, align 1, !dbg !1062
  br label %bb7, !dbg !1062

bb7:                                              ; preds = %bb3, %bb6, %bb4, %bb5, %bb1
  %7 = load i8, ptr %_0, align 1, !dbg !1063, !noundef !18
  ret i8 %7, !dbg !1063
}

; core::option::Option<T>::as_ref
; Function Attrs: inlinehint noredzone nounwind
define align 8 ptr @"_ZN4core6option15Option$LT$T$GT$6as_ref17h6bea9f24b4266a53E"(ptr align 8 %self) unnamed_addr #0 !dbg !1064 {
start:
  %x.dbg.spill = alloca ptr, align 8
  %self.dbg.spill = alloca ptr, align 8
  %_0 = alloca ptr, align 8
  store ptr %self, ptr %self.dbg.spill, align 8
  call void @llvm.dbg.declare(metadata ptr %self.dbg.spill, metadata !1085, metadata !DIExpression()), !dbg !1088
  %_2 = load i64, ptr %self, align 8, !dbg !1089, !range !784, !noundef !18
  %0 = icmp eq i64 %_2, 0, !dbg !1090
  br i1 %0, label %bb1, label %bb3, !dbg !1090

bb1:                                              ; preds = %start
  store ptr null, ptr %_0, align 8, !dbg !1091
  br label %bb4, !dbg !1091

bb3:                                              ; preds = %start
  %x = getelementptr inbounds %"core::option::Option<global_descriptor_table::GlobalDescriptorTableSetup>::Some", ptr %self, i32 0, i32 1, !dbg !1092
  store ptr %x, ptr %x.dbg.spill, align 8, !dbg !1092
  call void @llvm.dbg.declare(metadata ptr %x.dbg.spill, metadata !1086, metadata !DIExpression()), !dbg !1093
  store ptr %x, ptr %_0, align 8, !dbg !1094
  br label %bb4, !dbg !1095

bb4:                                              ; preds = %bb3, %bb1
  %1 = load ptr, ptr %_0, align 8, !dbg !1096, !align !422, !noundef !18
  ret ptr %1, !dbg !1096

bb2:                                              ; No predecessors!
  unreachable, !dbg !1089
}

; core::result::Result<T,E>::is_ok
; Function Attrs: inlinehint noredzone nounwind
define zeroext i1 @"_ZN4core6result19Result$LT$T$C$E$GT$5is_ok17h84cf0f4bc775dc78E"(ptr align 1 %self) unnamed_addr #0 !dbg !1097 {
start:
  %self.dbg.spill = alloca ptr, align 8
  store ptr %self, ptr %self.dbg.spill, align 8
  call void @llvm.dbg.declare(metadata ptr %self.dbg.spill, metadata !1104, metadata !DIExpression()), !dbg !1105
  %0 = load i8, ptr %self, align 1, !dbg !1106, !range !595, !noundef !18
  %1 = trunc i8 %0 to i1, !dbg !1106
  %_2 = zext i1 %1 to i64, !dbg !1106
  %_0 = icmp eq i64 %_2, 0, !dbg !1107
  ret i1 %_0, !dbg !1108
}

; core::result::Result<T,E>::is_err
; Function Attrs: inlinehint noredzone nounwind
define zeroext i1 @"_ZN4core6result19Result$LT$T$C$E$GT$6is_err17hb34accf2c6e8d465E"(ptr align 1 %self) unnamed_addr #0 !dbg !1109 {
start:
  %self.dbg.spill = alloca ptr, align 8
  store ptr %self, ptr %self.dbg.spill, align 8
  call void @llvm.dbg.declare(metadata ptr %self.dbg.spill, metadata !1112, metadata !DIExpression()), !dbg !1113
; call core::result::Result<T,E>::is_ok
  %_2 = call zeroext i1 @"_ZN4core6result19Result$LT$T$C$E$GT$5is_ok17h84cf0f4bc775dc78E"(ptr align 1 %self) #7, !dbg !1114
  %_0 = xor i1 %_2, true, !dbg !1115
  ret i1 %_0, !dbg !1116
}

; core::core_arch::x86::sse2::_mm_pause
; Function Attrs: inlinehint noredzone nounwind
define internal void @_ZN4core9core_arch3x864sse29_mm_pause17h869a4f747f904cffE() unnamed_addr #0 !dbg !1117 {
start:
  call void @llvm.x86.sse2.pause() #7, !dbg !1122
  ret void, !dbg !1123
}

; spin::once::Once<T>::call_once
; Function Attrs: noredzone nounwind
define align 8 ptr @"_ZN4spin4once13Once$LT$T$GT$9call_once17h0141b528bad15e22E"(ptr align 8 %self) unnamed_addr #1 !dbg !1124 {
start:
  %self.dbg.spill.i = alloca ptr, align 8
  %builder.dbg.spill = alloca {}, align 1
  %self.dbg.spill = alloca ptr, align 8
  %_33 = alloca i8, align 1
  %_29 = alloca i8, align 1
  %_23 = alloca i8, align 1
  %_16 = alloca %"global_descriptor_table::GlobalDescriptorTableSetup", align 8
  %_15 = alloca %"core::option::Option<global_descriptor_table::GlobalDescriptorTableSetup>", align 8
  %finish = alloca { ptr, i8 }, align 8
  %_10 = alloca i8, align 1
  %_5 = alloca i8, align 1
  %status = alloca i64, align 8
  %_0 = alloca ptr, align 8
  store ptr %self, ptr %self.dbg.spill, align 8
  call void @llvm.dbg.declare(metadata ptr %self.dbg.spill, metadata !1133, metadata !DIExpression()), !dbg !1139
  call void @llvm.dbg.declare(metadata ptr %builder.dbg.spill, metadata !1134, metadata !DIExpression()), !dbg !1140
  call void @llvm.dbg.declare(metadata ptr %status, metadata !1135, metadata !DIExpression()), !dbg !1141
  call void @llvm.dbg.declare(metadata ptr %finish, metadata !1137, metadata !DIExpression()), !dbg !1142
  store i8 0, ptr %_33, align 1, !dbg !1143
  store i8 1, ptr %_33, align 1, !dbg !1143
  store i8 4, ptr %_5, align 1, !dbg !1144
  %0 = load i8, ptr %_5, align 1, !dbg !1145, !range !598, !noundef !18
; call core::sync::atomic::AtomicUsize::load
  %1 = call i64 @_ZN4core4sync6atomic11AtomicUsize4load17h174c48e133a68119E(ptr align 8 %self, i8 %0) #7, !dbg !1145
  store i64 %1, ptr %status, align 8, !dbg !1145
  %_7 = load i64, ptr %status, align 8, !dbg !1146, !noundef !18
  %_6 = icmp eq i64 %_7, 0, !dbg !1146
  br i1 %_6, label %bb2, label %bb10, !dbg !1146

bb10:                                             ; preds = %bb13, %bb2, %start
  %2 = load i64, ptr %status, align 8, !dbg !1147, !noundef !18
  switch i64 %2, label %bb11 [
    i64 0, label %bb12
    i64 1, label %bb13
    i64 3, label %bb16
    i64 2, label %bb17
  ], !dbg !1147

bb2:                                              ; preds = %start
  store i8 4, ptr %_10, align 1, !dbg !1148
  %3 = load i8, ptr %_10, align 1, !dbg !1149, !range !598, !noundef !18
; call core::sync::atomic::AtomicUsize::compare_and_swap
  %_8 = call i64 @_ZN4core4sync6atomic11AtomicUsize16compare_and_swap17hb5dd2c8f85c83fe2E(ptr align 8 %self, i64 0, i64 1, i8 %3) #7, !dbg !1149
  store i64 %_8, ptr %status, align 8, !dbg !1150
  %_12 = load i64, ptr %status, align 8, !dbg !1151, !noundef !18
  %_11 = icmp eq i64 %_12, 0, !dbg !1151
  br i1 %_11, label %bb4, label %bb10, !dbg !1151

bb4:                                              ; preds = %bb2
  store ptr %self, ptr %finish, align 8, !dbg !1152
  %4 = getelementptr inbounds { ptr, i8 }, ptr %finish, i32 0, i32 1, !dbg !1152
  store i8 1, ptr %4, align 8, !dbg !1152
  store i8 0, ptr %_33, align 1, !dbg !1153
; call core::ops::function::FnOnce::call_once
  call void @_ZN4core3ops8function6FnOnce9call_once17h2dec0634a49b483aE(ptr sret(%"global_descriptor_table::GlobalDescriptorTableSetup") align 8 %_16) #7, !dbg !1153
  %5 = getelementptr inbounds %"core::option::Option<global_descriptor_table::GlobalDescriptorTableSetup>::Some", ptr %_15, i32 0, i32 1, !dbg !1154
  call void @llvm.memcpy.p0.p0.i64(ptr align 8 %5, ptr align 8 %_16, i64 80, i1 false), !dbg !1154
  store i64 1, ptr %_15, align 8, !dbg !1154
  %_19 = getelementptr inbounds %"spin::once::Once<global_descriptor_table::GlobalDescriptorTableSetup>", ptr %self, i32 0, i32 1, !dbg !1155
  store ptr %_19, ptr %self.dbg.spill.i, align 8
  call void @llvm.dbg.declare(metadata ptr %self.dbg.spill.i, metadata !1156, metadata !DIExpression()), !dbg !1164
  call void @llvm.memcpy.p0.p0.i64(ptr align 8 %_19, ptr align 8 %_15, i64 88, i1 false), !dbg !1166
  %6 = getelementptr inbounds { ptr, i8 }, ptr %finish, i32 0, i32 1, !dbg !1167
  store i8 0, ptr %6, align 8, !dbg !1167
  store i64 2, ptr %status, align 8, !dbg !1168
  %_22 = load i64, ptr %status, align 8, !dbg !1169, !noundef !18
  store i8 4, ptr %_23, align 1, !dbg !1170
  %7 = load i8, ptr %_23, align 1, !dbg !1171, !range !598, !noundef !18
; call core::sync::atomic::AtomicUsize::store
  call void @_ZN4core4sync6atomic11AtomicUsize5store17h12c79e004361fc9eE(ptr align 8 %self, i64 %_22, i8 %7) #7, !dbg !1171
; call spin::once::Once<T>::force_get
  %_24 = call align 8 ptr @"_ZN4spin4once13Once$LT$T$GT$9force_get17h8266d1ce9389cf16E"(ptr align 8 %self) #7, !dbg !1172
  store ptr %_24, ptr %_0, align 8, !dbg !1172
; call core::ptr::drop_in_place<spin::once::Finish>
  call void @"_ZN4core3ptr39drop_in_place$LT$spin..once..Finish$GT$17hcad434fd4fe850e5E"(ptr align 8 %finish) #7, !dbg !1173
  br label %bb19, !dbg !1173

bb11:                                             ; preds = %bb10
; call core::hint::unreachable_unchecked
  call void @_ZN4core4hint21unreachable_unchecked17hd31143c7c8c652afE() #11, !dbg !1174
  unreachable, !dbg !1174

bb12:                                             ; preds = %bb10
; call core::panicking::panic
  call void @_ZN4core9panicking5panic17h91639042aeeb9621E(ptr align 1 @alloc_a500d906b91607583596fa15e63c2ada, i64 40, ptr align 8 @alloc_5be19f098388ddfa34a5cde2d2c61c94) #11, !dbg !1175
  unreachable, !dbg !1175

bb13:                                             ; preds = %bb10
; call core::sync::atomic::spin_loop_hint
  call void @_ZN4core4sync6atomic14spin_loop_hint17h00fb08d9fbe56b8eE() #7, !dbg !1176
  store i8 4, ptr %_29, align 1, !dbg !1177
  %8 = load i8, ptr %_29, align 1, !dbg !1178, !range !598, !noundef !18
; call core::sync::atomic::AtomicUsize::load
  %_27 = call i64 @_ZN4core4sync6atomic11AtomicUsize4load17h174c48e133a68119E(ptr align 8 %self, i8 %8) #7, !dbg !1178
  store i64 %_27, ptr %status, align 8, !dbg !1179
  br label %bb10, !dbg !1180

bb16:                                             ; preds = %bb10
; call core::panicking::panic
  call void @_ZN4core9panicking5panic17h91639042aeeb9621E(ptr align 1 @alloc_b41ce9db6ff9e09c515cee5b4d05db5e, i64 17, ptr align 8 @alloc_cbdd636a907b817e5acd19150abaf3dc) #11, !dbg !1181
  unreachable, !dbg !1181

bb17:                                             ; preds = %bb10
; call spin::once::Once<T>::force_get
  %_31 = call align 8 ptr @"_ZN4spin4once13Once$LT$T$GT$9force_get17h8266d1ce9389cf16E"(ptr align 8 %self) #7, !dbg !1182
  store ptr %_31, ptr %_0, align 8, !dbg !1182
  br label %bb19, !dbg !1183

bb19:                                             ; preds = %bb4, %bb17
  %9 = load i8, ptr %_33, align 1, !dbg !1186, !range !595, !noundef !18
  %10 = trunc i8 %9 to i1, !dbg !1186
  br i1 %10, label %bb21, label %bb20, !dbg !1186

bb20:                                             ; preds = %bb21, %bb19
  %11 = load ptr, ptr %_0, align 8, !dbg !1187, !nonnull !18, !align !422, !noundef !18
  ret ptr %11, !dbg !1187

bb21:                                             ; preds = %bb19
  br label %bb20, !dbg !1186
}

; spin::once::Once<T>::force_get
; Function Attrs: noredzone nounwind
define align 8 ptr @"_ZN4spin4once13Once$LT$T$GT$9force_get17h8266d1ce9389cf16E"(ptr align 8 %self) unnamed_addr #1 !dbg !1188 {
start:
  %self.dbg.spill.i = alloca ptr, align 8
  %p.dbg.spill = alloca ptr, align 8
  %self.dbg.spill = alloca ptr, align 8
  %_2 = alloca ptr, align 8
  store ptr %self, ptr %self.dbg.spill, align 8
  call void @llvm.dbg.declare(metadata ptr %self.dbg.spill, metadata !1193, metadata !DIExpression()), !dbg !1196
  %_5 = getelementptr inbounds %"spin::once::Once<global_descriptor_table::GlobalDescriptorTableSetup>", ptr %self, i32 0, i32 1, !dbg !1197
  store ptr %_5, ptr %self.dbg.spill.i, align 8
  call void @llvm.dbg.declare(metadata ptr %self.dbg.spill.i, metadata !1156, metadata !DIExpression()), !dbg !1198
; call core::option::Option<T>::as_ref
  %0 = call align 8 ptr @"_ZN4core6option15Option$LT$T$GT$6as_ref17h6bea9f24b4266a53E"(ptr align 8 %_5) #7, !dbg !1200
  store ptr %0, ptr %_2, align 8, !dbg !1200
  %1 = load ptr, ptr %_2, align 8, !dbg !1200, !noundef !18
  %2 = ptrtoint ptr %1 to i64, !dbg !1200
  %3 = icmp eq i64 %2, 0, !dbg !1200
  %_6 = select i1 %3, i64 0, i64 1, !dbg !1200
  %4 = icmp eq i64 %_6, 0, !dbg !1201
  br i1 %4, label %bb5, label %bb3, !dbg !1201

bb5:                                              ; preds = %start
; call core::hint::unreachable_unchecked
  call void @_ZN4core4hint21unreachable_unchecked17hd31143c7c8c652afE() #11, !dbg !1202
  unreachable, !dbg !1202

bb3:                                              ; preds = %start
  %p = load ptr, ptr %_2, align 8, !dbg !1203, !nonnull !18, !align !422, !noundef !18
  store ptr %p, ptr %p.dbg.spill, align 8, !dbg !1203
  call void @llvm.dbg.declare(metadata ptr %p.dbg.spill, metadata !1194, metadata !DIExpression()), !dbg !1204
  ret ptr %p, !dbg !1205

bb4:                                              ; No predecessors!
  unreachable, !dbg !1200
}

; x86_64::structures::gdt::Descriptor::tss_segment
; Function Attrs: inlinehint noredzone nounwind
define internal void @_ZN6x86_6410structures3gdt10Descriptor11tss_segment17h69c109fec9447258E(ptr sret(%"x86_64::structures::gdt::Descriptor") align 8 %_0, ptr align 4 %tss) unnamed_addr #0 !dbg !1206 {
start:
  %tss.dbg.spill = alloca ptr, align 8
  %_33 = alloca { i64, i64 }, align 8
  %_30 = alloca { i64, i64 }, align 8
  %high = alloca i64, align 8
  %_26 = alloca { i64, i64 }, align 8
  %_19 = alloca { i64, i64 }, align 8
  %_16 = alloca { i64, i64 }, align 8
  %_13 = alloca { i64, i64 }, align 8
  %_10 = alloca { i64, i64 }, align 8
  %_7 = alloca { i64, i64 }, align 8
  %low = alloca i64, align 8
  %ptr = alloca i64, align 8
  store ptr %tss, ptr %tss.dbg.spill, align 8
  call void @llvm.dbg.declare(metadata ptr %tss.dbg.spill, metadata !1227, metadata !DIExpression()), !dbg !1234
  call void @llvm.dbg.declare(metadata ptr %ptr, metadata !1228, metadata !DIExpression()), !dbg !1235
  call void @llvm.dbg.declare(metadata ptr %low, metadata !1230, metadata !DIExpression()), !dbg !1236
  call void @llvm.dbg.declare(metadata ptr %high, metadata !1232, metadata !DIExpression()), !dbg !1237
  %0 = ptrtoint ptr %tss to i64, !dbg !1238
  store i64 %0, ptr %ptr, align 8, !dbg !1238
; call x86_64::structures::gdt::DescriptorFlags::bits
  %1 = call i64 @_ZN6x86_6410structures3gdt15DescriptorFlags4bits17hc37899e5feb160a3E(ptr align 8 @alloc_a2052f5a732c6560387218d7aa6b4ca1) #7, !dbg !1239
  store i64 %1, ptr %low, align 8, !dbg !1239
  store i64 16, ptr %_7, align 8, !dbg !1240
  %2 = getelementptr inbounds { i64, i64 }, ptr %_7, i32 0, i32 1, !dbg !1240
  store i64 40, ptr %2, align 8, !dbg !1240
  store i64 0, ptr %_10, align 8, !dbg !1241
  %3 = getelementptr inbounds { i64, i64 }, ptr %_10, i32 0, i32 1, !dbg !1241
  store i64 24, ptr %3, align 8, !dbg !1241
  %4 = getelementptr inbounds { i64, i64 }, ptr %_10, i32 0, i32 0, !dbg !1242
  %5 = load i64, ptr %4, align 8, !dbg !1242, !noundef !18
  %6 = getelementptr inbounds { i64, i64 }, ptr %_10, i32 0, i32 1, !dbg !1242
  %7 = load i64, ptr %6, align 8, !dbg !1242, !noundef !18
; call <u64 as bit_field::BitField>::get_bits
  %_8 = call i64 @"_ZN43_$LT$u64$u20$as$u20$bit_field..BitField$GT$8get_bits17h2f217ad10ee0b965E"(ptr align 8 %ptr, i64 %5, i64 %7) #7, !dbg !1242
  %8 = getelementptr inbounds { i64, i64 }, ptr %_7, i32 0, i32 0, !dbg !1243
  %9 = load i64, ptr %8, align 8, !dbg !1243, !noundef !18
  %10 = getelementptr inbounds { i64, i64 }, ptr %_7, i32 0, i32 1, !dbg !1243
  %11 = load i64, ptr %10, align 8, !dbg !1243, !noundef !18
; call <u64 as bit_field::BitField>::set_bits
  %_5 = call align 8 ptr @"_ZN43_$LT$u64$u20$as$u20$bit_field..BitField$GT$8set_bits17hc3755f31b40a6134E"(ptr align 8 %low, i64 %9, i64 %11, i64 %_8) #7, !dbg !1243
  store i64 56, ptr %_13, align 8, !dbg !1244
  %12 = getelementptr inbounds { i64, i64 }, ptr %_13, i32 0, i32 1, !dbg !1244
  store i64 64, ptr %12, align 8, !dbg !1244
  store i64 24, ptr %_16, align 8, !dbg !1245
  %13 = getelementptr inbounds { i64, i64 }, ptr %_16, i32 0, i32 1, !dbg !1245
  store i64 32, ptr %13, align 8, !dbg !1245
  %14 = getelementptr inbounds { i64, i64 }, ptr %_16, i32 0, i32 0, !dbg !1246
  %15 = load i64, ptr %14, align 8, !dbg !1246, !noundef !18
  %16 = getelementptr inbounds { i64, i64 }, ptr %_16, i32 0, i32 1, !dbg !1246
  %17 = load i64, ptr %16, align 8, !dbg !1246, !noundef !18
; call <u64 as bit_field::BitField>::get_bits
  %_14 = call i64 @"_ZN43_$LT$u64$u20$as$u20$bit_field..BitField$GT$8get_bits17h2f217ad10ee0b965E"(ptr align 8 %ptr, i64 %15, i64 %17) #7, !dbg !1246
  %18 = getelementptr inbounds { i64, i64 }, ptr %_13, i32 0, i32 0, !dbg !1247
  %19 = load i64, ptr %18, align 8, !dbg !1247, !noundef !18
  %20 = getelementptr inbounds { i64, i64 }, ptr %_13, i32 0, i32 1, !dbg !1247
  %21 = load i64, ptr %20, align 8, !dbg !1247, !noundef !18
; call <u64 as bit_field::BitField>::set_bits
  %_11 = call align 8 ptr @"_ZN43_$LT$u64$u20$as$u20$bit_field..BitField$GT$8set_bits17hc3755f31b40a6134E"(ptr align 8 %low, i64 %19, i64 %21, i64 %_14) #7, !dbg !1247
  store i64 0, ptr %_19, align 8, !dbg !1248
  %22 = getelementptr inbounds { i64, i64 }, ptr %_19, i32 0, i32 1, !dbg !1248
  store i64 16, ptr %22, align 8, !dbg !1248
  %_23.0 = sub i64 104, 1, !dbg !1249
  %_23.1 = icmp ult i64 104, 1, !dbg !1249
  %23 = call i1 @llvm.expect.i1(i1 %_23.1, i1 false), !dbg !1249
  br i1 %23, label %panic, label %bb7, !dbg !1249

bb7:                                              ; preds = %start
  %24 = getelementptr inbounds { i64, i64 }, ptr %_19, i32 0, i32 0, !dbg !1250
  %25 = load i64, ptr %24, align 8, !dbg !1250, !noundef !18
  %26 = getelementptr inbounds { i64, i64 }, ptr %_19, i32 0, i32 1, !dbg !1250
  %27 = load i64, ptr %26, align 8, !dbg !1250, !noundef !18
; call <u64 as bit_field::BitField>::set_bits
  %_17 = call align 8 ptr @"_ZN43_$LT$u64$u20$as$u20$bit_field..BitField$GT$8set_bits17hc3755f31b40a6134E"(ptr align 8 %low, i64 %25, i64 %27, i64 %_23.0) #7, !dbg !1250
  store i64 40, ptr %_26, align 8, !dbg !1251
  %28 = getelementptr inbounds { i64, i64 }, ptr %_26, i32 0, i32 1, !dbg !1251
  store i64 44, ptr %28, align 8, !dbg !1251
  %29 = getelementptr inbounds { i64, i64 }, ptr %_26, i32 0, i32 0, !dbg !1252
  %30 = load i64, ptr %29, align 8, !dbg !1252, !noundef !18
  %31 = getelementptr inbounds { i64, i64 }, ptr %_26, i32 0, i32 1, !dbg !1252
  %32 = load i64, ptr %31, align 8, !dbg !1252, !noundef !18
; call <u64 as bit_field::BitField>::set_bits
  %_24 = call align 8 ptr @"_ZN43_$LT$u64$u20$as$u20$bit_field..BitField$GT$8set_bits17hc3755f31b40a6134E"(ptr align 8 %low, i64 %30, i64 %32, i64 9) #7, !dbg !1252
  store i64 0, ptr %high, align 8, !dbg !1253
  store i64 0, ptr %_30, align 8, !dbg !1254
  %33 = getelementptr inbounds { i64, i64 }, ptr %_30, i32 0, i32 1, !dbg !1254
  store i64 32, ptr %33, align 8, !dbg !1254
  store i64 32, ptr %_33, align 8, !dbg !1255
  %34 = getelementptr inbounds { i64, i64 }, ptr %_33, i32 0, i32 1, !dbg !1255
  store i64 64, ptr %34, align 8, !dbg !1255
  %35 = getelementptr inbounds { i64, i64 }, ptr %_33, i32 0, i32 0, !dbg !1256
  %36 = load i64, ptr %35, align 8, !dbg !1256, !noundef !18
  %37 = getelementptr inbounds { i64, i64 }, ptr %_33, i32 0, i32 1, !dbg !1256
  %38 = load i64, ptr %37, align 8, !dbg !1256, !noundef !18
; call <u64 as bit_field::BitField>::get_bits
  %_31 = call i64 @"_ZN43_$LT$u64$u20$as$u20$bit_field..BitField$GT$8get_bits17h2f217ad10ee0b965E"(ptr align 8 %ptr, i64 %36, i64 %38) #7, !dbg !1256
  %39 = getelementptr inbounds { i64, i64 }, ptr %_30, i32 0, i32 0, !dbg !1257
  %40 = load i64, ptr %39, align 8, !dbg !1257, !noundef !18
  %41 = getelementptr inbounds { i64, i64 }, ptr %_30, i32 0, i32 1, !dbg !1257
  %42 = load i64, ptr %41, align 8, !dbg !1257, !noundef !18
; call <u64 as bit_field::BitField>::set_bits
  %_28 = call align 8 ptr @"_ZN43_$LT$u64$u20$as$u20$bit_field..BitField$GT$8set_bits17hc3755f31b40a6134E"(ptr align 8 %high, i64 %40, i64 %42, i64 %_31) #7, !dbg !1257
  %_34 = load i64, ptr %low, align 8, !dbg !1258, !noundef !18
  %_35 = load i64, ptr %high, align 8, !dbg !1259, !noundef !18
  %43 = getelementptr inbounds %"x86_64::structures::gdt::Descriptor::SystemSegment", ptr %_0, i32 0, i32 1, !dbg !1260
  store i64 %_34, ptr %43, align 8, !dbg !1260
  %44 = getelementptr inbounds %"x86_64::structures::gdt::Descriptor::SystemSegment", ptr %_0, i32 0, i32 2, !dbg !1260
  store i64 %_35, ptr %44, align 8, !dbg !1260
  store i64 1, ptr %_0, align 8, !dbg !1260
  ret void, !dbg !1261

panic:                                            ; preds = %start
; call core::panicking::panic
  call void @_ZN4core9panicking5panic17h91639042aeeb9621E(ptr align 1 @str.1, i64 33, ptr align 8 @alloc_47002a3e973effef3e6a05f78edc925e) #11, !dbg !1249
  unreachable, !dbg !1249
}

; x86_64::structures::gdt::Descriptor::kernel_code_segment
; Function Attrs: inlinehint noredzone nounwind
define internal void @_ZN6x86_6410structures3gdt10Descriptor19kernel_code_segment17h8785f5c650a29bdcE(ptr sret(%"x86_64::structures::gdt::Descriptor") align 8 %_0) unnamed_addr #0 !dbg !1262 {
start:
; call x86_64::structures::gdt::DescriptorFlags::bits
  %_1 = call i64 @_ZN6x86_6410structures3gdt15DescriptorFlags4bits17hc37899e5feb160a3E(ptr align 8 @alloc_047faabbe6ef5a15898762b6e3e08ed6) #7, !dbg !1266
  %0 = getelementptr inbounds %"x86_64::structures::gdt::Descriptor::UserSegment", ptr %_0, i32 0, i32 1, !dbg !1267
  store i64 %_1, ptr %0, align 8, !dbg !1267
  store i64 0, ptr %_0, align 8, !dbg !1267
  ret void, !dbg !1268
}

; x86_64::structures::gdt::DescriptorFlags::from_bits_truncate
; Function Attrs: inlinehint noredzone nounwind
define internal i64 @_ZN6x86_6410structures3gdt15DescriptorFlags18from_bits_truncate17hfd9448db2a7d7e4fE(i64 %bits) unnamed_addr #0 !dbg !1269 {
start:
  %bits.dbg.spill = alloca i64, align 8
  %_0 = alloca i64, align 8
  store i64 %bits, ptr %bits.dbg.spill, align 8
  call void @llvm.dbg.declare(metadata ptr %bits.dbg.spill, metadata !1278, metadata !DIExpression()), !dbg !1279
; call x86_64::structures::gdt::DescriptorFlags::all
  %_4 = call i64 @_ZN6x86_6410structures3gdt15DescriptorFlags3all17hb4b73e4531661c14E() #7, !dbg !1280
  %_2 = and i64 %bits, %_4, !dbg !1281
  store i64 %_2, ptr %_0, align 8, !dbg !1282
  %0 = load i64, ptr %_0, align 8, !dbg !1283, !noundef !18
  ret i64 %0, !dbg !1283
}

; x86_64::structures::gdt::DescriptorFlags::all
; Function Attrs: inlinehint noredzone nounwind
define internal i64 @_ZN6x86_6410structures3gdt15DescriptorFlags3all17hb4b73e4531661c14E() unnamed_addr #0 !dbg !1284 {
start:
  %_0 = alloca i64, align 8
  store i64 -1, ptr %_0, align 8, !dbg !1288
  %0 = load i64, ptr %_0, align 8, !dbg !1289, !noundef !18
  ret i64 %0, !dbg !1289
}

; x86_64::structures::gdt::DescriptorFlags::bits
; Function Attrs: inlinehint noredzone nounwind
define internal i64 @_ZN6x86_6410structures3gdt15DescriptorFlags4bits17hc37899e5feb160a3E(ptr align 8 %self) unnamed_addr #0 !dbg !1290 {
start:
  %self.dbg.spill = alloca ptr, align 8
  store ptr %self, ptr %self.dbg.spill, align 8
  call void @llvm.dbg.declare(metadata ptr %self.dbg.spill, metadata !1296, metadata !DIExpression()), !dbg !1297
  %_0 = load i64, ptr %self, align 8, !dbg !1298, !noundef !18
  ret i64 %_0, !dbg !1299
}

; x86_64::structures::gdt::DescriptorFlags::contains
; Function Attrs: inlinehint noredzone nounwind
define internal zeroext i1 @_ZN6x86_6410structures3gdt15DescriptorFlags8contains17h41ebebc6a92670baE(ptr align 8 %self, i64 %other) unnamed_addr #0 !dbg !1300 {
start:
  %other.dbg.spill = alloca i64, align 8
  %self.dbg.spill = alloca ptr, align 8
  store ptr %self, ptr %self.dbg.spill, align 8
  call void @llvm.dbg.declare(metadata ptr %self.dbg.spill, metadata !1305, metadata !DIExpression()), !dbg !1307
  store i64 %other, ptr %other.dbg.spill, align 8
  call void @llvm.dbg.declare(metadata ptr %other.dbg.spill, metadata !1306, metadata !DIExpression()), !dbg !1308
  %_4 = load i64, ptr %self, align 8, !dbg !1309, !noundef !18
  %_3 = and i64 %_4, %other, !dbg !1310
  %_0 = icmp eq i64 %_3, %other, !dbg !1310
  ret i1 %_0, !dbg !1311
}

; x86_64::structures::gdt::GlobalDescriptorTable::load_unsafe
; Function Attrs: inlinehint noredzone nounwind
define internal void @_ZN6x86_6410structures3gdt21GlobalDescriptorTable11load_unsafe17h7d76edf41aa655c4E(ptr align 8 %self) unnamed_addr #0 !dbg !1312 {
start:
  %self.dbg.spill = alloca ptr, align 8
  %_4 = alloca %"x86_64::structures::DescriptorTablePointer", align 2
  store ptr %self, ptr %self.dbg.spill, align 8
  call void @llvm.dbg.declare(metadata ptr %self.dbg.spill, metadata !1318, metadata !DIExpression()), !dbg !1319
; call x86_64::structures::gdt::GlobalDescriptorTable::pointer
  call void @_ZN6x86_6410structures3gdt21GlobalDescriptorTable7pointer17h550aace81eeafc10E(ptr sret(%"x86_64::structures::DescriptorTablePointer") align 2 %_4, ptr align 8 %self) #7, !dbg !1320
; call x86_64::instructions::tables::lgdt
  call void @_ZN6x86_6412instructions6tables4lgdt17h7fd732b99effcd8bE(ptr align 2 %_4) #7, !dbg !1321
  ret void, !dbg !1322
}

; x86_64::structures::gdt::GlobalDescriptorTable::new
; Function Attrs: inlinehint noredzone nounwind
define internal void @_ZN6x86_6410structures3gdt21GlobalDescriptorTable3new17hfba27fab313a06baE(ptr sret(%"x86_64::structures::gdt::GlobalDescriptorTable") align 8 %_0) unnamed_addr #0 !dbg !1323 {
start:
  %_1 = alloca [8 x i64], align 8
  %0 = getelementptr inbounds [8 x i64], ptr %_1, i64 0, i64 0, !dbg !1327
  call void @llvm.memset.p0.i64(ptr align 8 %0, i8 0, i64 64, i1 false), !dbg !1327
  call void @llvm.memcpy.p0.p0.i64(ptr align 8 %_0, ptr align 8 %_1, i64 64, i1 false), !dbg !1328
  %1 = getelementptr inbounds %"x86_64::structures::gdt::GlobalDescriptorTable", ptr %_0, i32 0, i32 1, !dbg !1328
  store i64 1, ptr %1, align 8, !dbg !1328
  ret void, !dbg !1329
}

; x86_64::structures::gdt::GlobalDescriptorTable::load
; Function Attrs: inlinehint noredzone nounwind
define internal void @_ZN6x86_6410structures3gdt21GlobalDescriptorTable4load17h9d10f21bda9e795aE(ptr align 8 %self) unnamed_addr #0 !dbg !1330 {
start:
  %self.dbg.spill = alloca ptr, align 8
  store ptr %self, ptr %self.dbg.spill, align 8
  call void @llvm.dbg.declare(metadata ptr %self.dbg.spill, metadata !1333, metadata !DIExpression()), !dbg !1334
; call x86_64::structures::gdt::GlobalDescriptorTable::load_unsafe
  call void @_ZN6x86_6410structures3gdt21GlobalDescriptorTable11load_unsafe17h7d76edf41aa655c4E(ptr align 8 %self) #7, !dbg !1335
  ret void, !dbg !1336
}

; x86_64::structures::gdt::GlobalDescriptorTable::push
; Function Attrs: inlinehint noredzone nounwind
define internal i64 @_ZN6x86_6410structures3gdt21GlobalDescriptorTable4push17h824e2cb055c8ed45E(ptr align 8 %self, i64 %value) unnamed_addr #0 !dbg !1337 {
start:
  %index.dbg.spill = alloca i64, align 8
  %value.dbg.spill = alloca i64, align 8
  %self.dbg.spill = alloca ptr, align 8
  store ptr %self, ptr %self.dbg.spill, align 8
  call void @llvm.dbg.declare(metadata ptr %self.dbg.spill, metadata !1343, metadata !DIExpression()), !dbg !1347
  store i64 %value, ptr %value.dbg.spill, align 8
  call void @llvm.dbg.declare(metadata ptr %value.dbg.spill, metadata !1344, metadata !DIExpression()), !dbg !1348
  %0 = getelementptr inbounds %"x86_64::structures::gdt::GlobalDescriptorTable", ptr %self, i32 0, i32 1, !dbg !1349
  %index = load i64, ptr %0, align 8, !dbg !1349, !noundef !18
  store i64 %index, ptr %index.dbg.spill, align 8, !dbg !1349
  call void @llvm.dbg.declare(metadata ptr %index.dbg.spill, metadata !1345, metadata !DIExpression()), !dbg !1350
  %_4 = icmp ult i64 %index, 8, !dbg !1351
  %1 = call i1 @llvm.expect.i1(i1 %_4, i1 true), !dbg !1351
  br i1 %1, label %bb1, label %panic, !dbg !1351

bb1:                                              ; preds = %start
  %2 = getelementptr inbounds [8 x i64], ptr %self, i64 0, i64 %index, !dbg !1351
  store i64 %value, ptr %2, align 8, !dbg !1351
  %3 = getelementptr inbounds %"x86_64::structures::gdt::GlobalDescriptorTable", ptr %self, i32 0, i32 1, !dbg !1352
  %4 = load i64, ptr %3, align 8, !dbg !1352, !noundef !18
  %5 = call { i64, i1 } @llvm.uadd.with.overflow.i64(i64 %4, i64 1), !dbg !1352
  %_5.0 = extractvalue { i64, i1 } %5, 0, !dbg !1352
  %_5.1 = extractvalue { i64, i1 } %5, 1, !dbg !1352
  %6 = call i1 @llvm.expect.i1(i1 %_5.1, i1 false), !dbg !1352
  br i1 %6, label %panic1, label %bb2, !dbg !1352

panic:                                            ; preds = %start
; call core::panicking::panic_bounds_check
  call void @_ZN4core9panicking18panic_bounds_check17ha49e1f234b8b4c14E(i64 %index, i64 8, ptr align 8 @alloc_c55995bc02c7c8015c979fb6099b62e1) #11, !dbg !1351
  unreachable, !dbg !1351

bb2:                                              ; preds = %bb1
  %7 = getelementptr inbounds %"x86_64::structures::gdt::GlobalDescriptorTable", ptr %self, i32 0, i32 1, !dbg !1352
  store i64 %_5.0, ptr %7, align 8, !dbg !1352
  ret i64 %index, !dbg !1353

panic1:                                           ; preds = %bb1
; call core::panicking::panic
  call void @_ZN4core9panicking5panic17h91639042aeeb9621E(ptr align 1 @str.3, i64 28, ptr align 8 @alloc_36951ab209c0eecbe088f5c7cd7bf945) #11, !dbg !1352
  unreachable, !dbg !1352
}

; x86_64::structures::gdt::GlobalDescriptorTable::add_entry
; Function Attrs: inlinehint noredzone nounwind
define internal i16 @_ZN6x86_6410structures3gdt21GlobalDescriptorTable9add_entry17h27e59366fdf1a54fE(ptr align 8 %self, ptr align 8 %entry) unnamed_addr #0 !dbg !1354 {
start:
  %0 = alloca i64, align 8
  %rhs.dbg.spill.i4 = alloca i64, align 8
  %self.dbg.spill.i5 = alloca i64, align 8
  %1 = alloca i64, align 8
  %rhs.dbg.spill.i = alloca i64, align 8
  %self.dbg.spill.i = alloca i64, align 8
  %value.dbg.spill3 = alloca i64, align 8
  %index.dbg.spill = alloca i64, align 8
  %value_high.dbg.spill = alloca i64, align 8
  %value_low.dbg.spill = alloca i64, align 8
  %value.dbg.spill = alloca i64, align 8
  %self.dbg.spill = alloca ptr, align 8
  %_29 = alloca i64, align 8
  %rpl = alloca i8, align 1
  %index = alloca i64, align 8
  store ptr %self, ptr %self.dbg.spill, align 8
  call void @llvm.dbg.declare(metadata ptr %self.dbg.spill, metadata !1359, metadata !DIExpression()), !dbg !1374
  call void @llvm.dbg.declare(metadata ptr %entry, metadata !1360, metadata !DIExpression()), !dbg !1375
  call void @llvm.dbg.declare(metadata ptr %index, metadata !1361, metadata !DIExpression()), !dbg !1376
  call void @llvm.dbg.declare(metadata ptr %rpl, metadata !1370, metadata !DIExpression()), !dbg !1377
  %_4 = load i64, ptr %entry, align 8, !dbg !1378, !range !784, !noundef !18
  %2 = icmp eq i64 %_4, 0, !dbg !1379
  br i1 %2, label %bb3, label %bb1, !dbg !1379

bb3:                                              ; preds = %start
  %3 = getelementptr inbounds %"x86_64::structures::gdt::Descriptor::UserSegment", ptr %entry, i32 0, i32 1, !dbg !1380
  %value = load i64, ptr %3, align 8, !dbg !1380, !noundef !18
  store i64 %value, ptr %value.dbg.spill, align 8, !dbg !1380
  call void @llvm.dbg.declare(metadata ptr %value.dbg.spill, metadata !1363, metadata !DIExpression()), !dbg !1381
  %4 = getelementptr inbounds %"x86_64::structures::gdt::GlobalDescriptorTable", ptr %self, i32 0, i32 1, !dbg !1382
  %_7 = load i64, ptr %4, align 8, !dbg !1382, !noundef !18
  store i64 8, ptr %self.dbg.spill.i5, align 8
  call void @llvm.dbg.declare(metadata ptr %self.dbg.spill.i5, metadata !1383, metadata !DIExpression()), !dbg !1392
  store i64 1, ptr %rhs.dbg.spill.i4, align 8
  call void @llvm.dbg.declare(metadata ptr %rhs.dbg.spill.i4, metadata !1391, metadata !DIExpression()), !dbg !1394
  store i64 7, ptr %0, align 8, !dbg !1395
  %_0.i6 = load i64, ptr %0, align 8, !dbg !1395, !noundef !18
  %_6 = icmp ugt i64 %_7, %_0.i6, !dbg !1382
  br i1 %_6, label %bb5, label %bb6, !dbg !1382

bb1:                                              ; preds = %start
  %5 = getelementptr inbounds %"x86_64::structures::gdt::Descriptor::SystemSegment", ptr %entry, i32 0, i32 1, !dbg !1396
  %value_low = load i64, ptr %5, align 8, !dbg !1396, !noundef !18
  store i64 %value_low, ptr %value_low.dbg.spill, align 8, !dbg !1396
  call void @llvm.dbg.declare(metadata ptr %value_low.dbg.spill, metadata !1365, metadata !DIExpression()), !dbg !1397
  %6 = getelementptr inbounds %"x86_64::structures::gdt::Descriptor::SystemSegment", ptr %entry, i32 0, i32 2, !dbg !1398
  %value_high = load i64, ptr %6, align 8, !dbg !1398, !noundef !18
  store i64 %value_high, ptr %value_high.dbg.spill, align 8, !dbg !1398
  call void @llvm.dbg.declare(metadata ptr %value_high.dbg.spill, metadata !1367, metadata !DIExpression()), !dbg !1399
  %7 = getelementptr inbounds %"x86_64::structures::gdt::GlobalDescriptorTable", ptr %self, i32 0, i32 1, !dbg !1400
  %_16 = load i64, ptr %7, align 8, !dbg !1400, !noundef !18
  store i64 8, ptr %self.dbg.spill.i, align 8
  call void @llvm.dbg.declare(metadata ptr %self.dbg.spill.i, metadata !1383, metadata !DIExpression()), !dbg !1401
  store i64 2, ptr %rhs.dbg.spill.i, align 8
  call void @llvm.dbg.declare(metadata ptr %rhs.dbg.spill.i, metadata !1391, metadata !DIExpression()), !dbg !1403
  store i64 6, ptr %1, align 8, !dbg !1404
  %_0.i = load i64, ptr %1, align 8, !dbg !1404, !noundef !18
  %_15 = icmp ugt i64 %_16, %_0.i, !dbg !1400
  br i1 %_15, label %bb8, label %bb9, !dbg !1400

bb6:                                              ; preds = %bb3
; call x86_64::structures::gdt::GlobalDescriptorTable::push
  %8 = call i64 @_ZN6x86_6410structures3gdt21GlobalDescriptorTable4push17h824e2cb055c8ed45E(ptr align 8 %self, i64 %value) #7, !dbg !1405
  store i64 %8, ptr %index, align 8, !dbg !1405
  br label %bb12, !dbg !1405

bb5:                                              ; preds = %bb3
; call core::panicking::panic
  call void @_ZN4core9panicking5panic17h91639042aeeb9621E(ptr align 1 @alloc_e755bc5cd467965f69656078209bbfdc, i64 8, ptr align 8 @alloc_6802e546bafe1f29657a2bd91715bab1) #11, !dbg !1406
  unreachable, !dbg !1406

bb12:                                             ; preds = %bb9, %bb6
  %_25 = load i64, ptr %entry, align 8, !dbg !1407, !range !784, !noundef !18
  %9 = icmp eq i64 %_25, 0, !dbg !1408
  br i1 %9, label %bb14, label %bb13, !dbg !1408

bb9:                                              ; preds = %bb1
; call x86_64::structures::gdt::GlobalDescriptorTable::push
  %index1 = call i64 @_ZN6x86_6410structures3gdt21GlobalDescriptorTable4push17h824e2cb055c8ed45E(ptr align 8 %self, i64 %value_low) #7, !dbg !1409
  store i64 %index1, ptr %index.dbg.spill, align 8, !dbg !1409
  call void @llvm.dbg.declare(metadata ptr %index.dbg.spill, metadata !1368, metadata !DIExpression()), !dbg !1410
; call x86_64::structures::gdt::GlobalDescriptorTable::push
  %_23 = call i64 @_ZN6x86_6410structures3gdt21GlobalDescriptorTable4push17h824e2cb055c8ed45E(ptr align 8 %self, i64 %value_high) #7, !dbg !1411
  store i64 %index1, ptr %index, align 8, !dbg !1412
  br label %bb12, !dbg !1413

bb8:                                              ; preds = %bb1
; call core::panicking::panic
  call void @_ZN4core9panicking5panic17h91639042aeeb9621E(ptr align 1 @alloc_71a7efa2492bb21c9f54a8edb2880146, i64 52, ptr align 8 @alloc_a715f7218158292f79d25dee7b6073d1) #11, !dbg !1414
  unreachable, !dbg !1414

bb14:                                             ; preds = %bb12
  %10 = getelementptr inbounds %"x86_64::structures::gdt::Descriptor::UserSegment", ptr %entry, i32 0, i32 1, !dbg !1415
  %value2 = load i64, ptr %10, align 8, !dbg !1415, !noundef !18
  store i64 %value2, ptr %value.dbg.spill3, align 8, !dbg !1415
  call void @llvm.dbg.declare(metadata ptr %value.dbg.spill3, metadata !1372, metadata !DIExpression()), !dbg !1416
; call x86_64::structures::gdt::DescriptorFlags::from_bits_truncate
  %11 = call i64 @_ZN6x86_6410structures3gdt15DescriptorFlags18from_bits_truncate17hfd9448db2a7d7e4fE(i64 %value2) #7, !dbg !1417
  store i64 %11, ptr %_29, align 8, !dbg !1417
; call x86_64::structures::gdt::DescriptorFlags::contains
  %_27 = call zeroext i1 @_ZN6x86_6410structures3gdt15DescriptorFlags8contains17h41ebebc6a92670baE(ptr align 8 %_29, i64 105553116266496) #7, !dbg !1417
  br i1 %_27, label %bb17, label %bb18, !dbg !1417

bb13:                                             ; preds = %bb12
  store i8 0, ptr %rpl, align 1, !dbg !1418
  br label %bb19, !dbg !1418

bb18:                                             ; preds = %bb14
  store i8 0, ptr %rpl, align 1, !dbg !1419
  br label %bb19, !dbg !1420

bb17:                                             ; preds = %bb14
  store i8 3, ptr %rpl, align 1, !dbg !1421
  br label %bb19, !dbg !1420

bb19:                                             ; preds = %bb13, %bb17, %bb18
  %_31 = load i64, ptr %index, align 8, !dbg !1422, !noundef !18
  %_30 = trunc i64 %_31 to i16, !dbg !1422
  %_32 = load i8, ptr %rpl, align 1, !dbg !1423, !range !1424, !noundef !18
; call x86_64::registers::segmentation::SegmentSelector::new
  %_0 = call i16 @_ZN6x86_649registers12segmentation15SegmentSelector3new17he58bd1275050b4cfE(i16 %_30, i8 %_32) #7, !dbg !1425
  ret i16 %_0, !dbg !1426

bb2:                                              ; No predecessors!
  unreachable, !dbg !1378
}

; x86_64::structures::idt::EntryOptions::set_present
; Function Attrs: inlinehint noredzone nounwind
define internal align 2 ptr @_ZN6x86_6410structures3idt12EntryOptions11set_present17hd349afc722c7af8bE(ptr align 2 %self, i1 zeroext %present) unnamed_addr #0 !dbg !1427 {
start:
  %present.dbg.spill = alloca i8, align 1
  %self.dbg.spill = alloca ptr, align 8
  store ptr %self, ptr %self.dbg.spill, align 8
  call void @llvm.dbg.declare(metadata ptr %self.dbg.spill, metadata !1438, metadata !DIExpression()), !dbg !1440
  %0 = zext i1 %present to i8
  store i8 %0, ptr %present.dbg.spill, align 1
  call void @llvm.dbg.declare(metadata ptr %present.dbg.spill, metadata !1439, metadata !DIExpression()), !dbg !1441
; call <u16 as bit_field::BitField>::set_bit
  %_3 = call align 2 ptr @"_ZN43_$LT$u16$u20$as$u20$bit_field..BitField$GT$7set_bit17h7056463985f7844aE"(ptr align 2 %self, i64 15, i1 zeroext %present) #7, !dbg !1442
  ret ptr %self, !dbg !1443
}

; x86_64::structures::idt::EntryOptions::set_stack_index
; Function Attrs: inlinehint noredzone nounwind
define internal align 2 ptr @_ZN6x86_6410structures3idt12EntryOptions15set_stack_index17hb74e990679e4cf4cE(ptr align 2 %self, i16 %index) unnamed_addr #0 !dbg !1444 {
start:
  %index.dbg.spill = alloca i16, align 2
  %self.dbg.spill = alloca ptr, align 8
  %_5 = alloca { i64, i64 }, align 8
  store ptr %self, ptr %self.dbg.spill, align 8
  call void @llvm.dbg.declare(metadata ptr %self.dbg.spill, metadata !1449, metadata !DIExpression()), !dbg !1451
  store i16 %index, ptr %index.dbg.spill, align 2
  call void @llvm.dbg.declare(metadata ptr %index.dbg.spill, metadata !1450, metadata !DIExpression()), !dbg !1452
  store i64 0, ptr %_5, align 8, !dbg !1453
  %0 = getelementptr inbounds { i64, i64 }, ptr %_5, i32 0, i32 1, !dbg !1453
  store i64 3, ptr %0, align 8, !dbg !1453
  %1 = call { i16, i1 } @llvm.uadd.with.overflow.i16(i16 %index, i16 1), !dbg !1454
  %_7.0 = extractvalue { i16, i1 } %1, 0, !dbg !1454
  %_7.1 = extractvalue { i16, i1 } %1, 1, !dbg !1454
  %2 = call i1 @llvm.expect.i1(i1 %_7.1, i1 false), !dbg !1454
  br i1 %2, label %panic, label %bb1, !dbg !1454

bb1:                                              ; preds = %start
  %3 = getelementptr inbounds { i64, i64 }, ptr %_5, i32 0, i32 0, !dbg !1455
  %4 = load i64, ptr %3, align 8, !dbg !1455, !noundef !18
  %5 = getelementptr inbounds { i64, i64 }, ptr %_5, i32 0, i32 1, !dbg !1455
  %6 = load i64, ptr %5, align 8, !dbg !1455, !noundef !18
; call <u16 as bit_field::BitField>::set_bits
  %_3 = call align 2 ptr @"_ZN43_$LT$u16$u20$as$u20$bit_field..BitField$GT$8set_bits17hee45a055065b5300E"(ptr align 2 %self, i64 %4, i64 %6, i16 %_7.0) #7, !dbg !1455
  ret ptr %self, !dbg !1456

panic:                                            ; preds = %start
; call core::panicking::panic
  call void @_ZN4core9panicking5panic17h91639042aeeb9621E(ptr align 1 @str.3, i64 28, ptr align 8 @alloc_252ecd2feb97d4c273dcb95f4a8d3da9) #11, !dbg !1454
  unreachable, !dbg !1454
}

; x86_64::structures::idt::EntryOptions::minimal
; Function Attrs: inlinehint noredzone nounwind
define internal i16 @_ZN6x86_6410structures3idt12EntryOptions7minimal17h8923d1a5e33dae2eE() unnamed_addr #0 !dbg !1457 {
start:
  %_0 = alloca i16, align 2
  store i16 3584, ptr %_0, align 2, !dbg !1461
  %0 = load i16, ptr %_0, align 2, !dbg !1462, !noundef !18
  ret i16 %0, !dbg !1462
}

; x86_64::structures::idt::Entry<extern "x86.interrupt" fn(x86_64::structures::idt::InterruptStackFrame,u64) .> !>::set_handler_fn
; Function Attrs: inlinehint noredzone nounwind
define internal align 2 ptr @"_ZN6x86_6410structures3idt132Entry$LT$extern$u20$$u22$x86.interrupt$u22$$u20$fn$LP$x86_64..structures..idt..InterruptStackFrame$C$u64$RP$$u20$.$GT$$u20$$u21$$GT$14set_handler_fn17h9de1628f2ca097e2E"(ptr align 4 %self, ptr %handler) unnamed_addr #0 !dbg !1463 {
start:
  %handler.dbg.spill2 = alloca i64, align 8
  %handler.dbg.spill = alloca ptr, align 8
  %self.dbg.spill = alloca ptr, align 8
  store ptr %self, ptr %self.dbg.spill, align 8
  call void @llvm.dbg.declare(metadata ptr %self.dbg.spill, metadata !1497, metadata !DIExpression()), !dbg !1501
  store ptr %handler, ptr %handler.dbg.spill, align 8
  call void @llvm.dbg.declare(metadata ptr %handler.dbg.spill, metadata !1498, metadata !DIExpression()), !dbg !1502
  %_4 = ptrtoint ptr %handler to i64, !dbg !1503
; call x86_64::addr::VirtAddr::new
  %handler1 = call i64 @_ZN6x86_644addr8VirtAddr3new17hb393dff5ef3ea270E(i64 %_4) #7, !dbg !1504
  store i64 %handler1, ptr %handler.dbg.spill2, align 8, !dbg !1504
  call void @llvm.dbg.declare(metadata ptr %handler.dbg.spill2, metadata !1499, metadata !DIExpression()), !dbg !1505
; call x86_64::structures::idt::Entry<F>::set_handler_addr
  %_0 = call align 2 ptr @"_ZN6x86_6410structures3idt14Entry$LT$F$GT$16set_handler_addr17h1c5b7b4f2457da54E"(ptr align 4 %self, i64 %handler1) #7, !dbg !1506
  ret ptr %_0, !dbg !1507
}

; x86_64::structures::idt::Entry<F>::set_handler_addr
; Function Attrs: inlinehint noredzone nounwind
define align 2 ptr @"_ZN6x86_6410structures3idt14Entry$LT$F$GT$16set_handler_addr17h1c5b7b4f2457da54E"(ptr align 4 %self, i64 %addr) unnamed_addr #0 !dbg !1508 {
start:
  %addr.dbg.spill2 = alloca i64, align 8
  %addr.dbg.spill = alloca i64, align 8
  %self.dbg.spill = alloca ptr, align 8
  store ptr %self, ptr %self.dbg.spill, align 8
  call void @llvm.dbg.declare(metadata ptr %self.dbg.spill, metadata !1513, metadata !DIExpression()), !dbg !1517
  store i64 %addr, ptr %addr.dbg.spill, align 8
  call void @llvm.dbg.declare(metadata ptr %addr.dbg.spill, metadata !1514, metadata !DIExpression()), !dbg !1518
; call x86_64::addr::VirtAddr::as_u64
  %addr1 = call i64 @_ZN6x86_644addr8VirtAddr6as_u6417ha3f196ab9340e5d6E(i64 %addr) #7, !dbg !1519
  store i64 %addr1, ptr %addr.dbg.spill2, align 8, !dbg !1519
  call void @llvm.dbg.declare(metadata ptr %addr.dbg.spill2, metadata !1515, metadata !DIExpression()), !dbg !1520
  %0 = trunc i64 %addr1 to i16, !dbg !1521
  store i16 %0, ptr %self, align 4, !dbg !1521
  %_4 = lshr i64 %addr1, 16, !dbg !1522
  %1 = getelementptr inbounds %"x86_64::structures::idt::Entry<extern \22x86-interrupt\22 fn(x86_64::structures::idt::InterruptStackFrame, u64) -> !>", ptr %self, i32 0, i32 3, !dbg !1523
  %2 = trunc i64 %_4 to i16, !dbg !1523
  store i16 %2, ptr %1, align 2, !dbg !1523
  %_7 = lshr i64 %addr1, 32, !dbg !1524
  %3 = getelementptr inbounds %"x86_64::structures::idt::Entry<extern \22x86-interrupt\22 fn(x86_64::structures::idt::InterruptStackFrame, u64) -> !>", ptr %self, i32 0, i32 4, !dbg !1525
  %4 = trunc i64 %_7 to i32, !dbg !1525
  store i32 %4, ptr %3, align 4, !dbg !1525
; call x86_64::instructions::segmentation::<impl x86_64::registers::segmentation::Segment for x86_64::registers::segmentation::CS>::get_reg
  %_11 = call i16 @"_ZN6x86_6412instructions12segmentation106_$LT$impl$u20$x86_64..registers..segmentation..Segment$u20$for$u20$x86_64..registers..segmentation..CS$GT$7get_reg17hd17e2879731b3b4aE"() #7, !dbg !1526
  %5 = getelementptr inbounds %"x86_64::structures::idt::Entry<extern \22x86-interrupt\22 fn(x86_64::structures::idt::InterruptStackFrame, u64) -> !>", ptr %self, i32 0, i32 1, !dbg !1527
  store i16 %_11, ptr %5, align 2, !dbg !1527
  %_13 = getelementptr inbounds %"x86_64::structures::idt::Entry<extern \22x86-interrupt\22 fn(x86_64::structures::idt::InterruptStackFrame, u64) -> !>", ptr %self, i32 0, i32 2, !dbg !1528
; call x86_64::structures::idt::EntryOptions::set_present
  %_12 = call align 2 ptr @_ZN6x86_6410structures3idt12EntryOptions11set_present17hd349afc722c7af8bE(ptr align 2 %_13, i1 zeroext true) #7, !dbg !1528
  %_0 = getelementptr inbounds %"x86_64::structures::idt::Entry<extern \22x86-interrupt\22 fn(x86_64::structures::idt::InterruptStackFrame, u64) -> !>", ptr %self, i32 0, i32 2, !dbg !1529
  ret ptr %_0, !dbg !1530
}

; x86_64::structures::idt::Entry<F>::set_handler_addr
; Function Attrs: inlinehint noredzone nounwind
define align 2 ptr @"_ZN6x86_6410structures3idt14Entry$LT$F$GT$16set_handler_addr17h59e5f6558e87fd04E"(ptr align 4 %self, i64 %addr) unnamed_addr #0 !dbg !1531 {
start:
  %addr.dbg.spill2 = alloca i64, align 8
  %addr.dbg.spill = alloca i64, align 8
  %self.dbg.spill = alloca ptr, align 8
  store ptr %self, ptr %self.dbg.spill, align 8
  call void @llvm.dbg.declare(metadata ptr %self.dbg.spill, metadata !1557, metadata !DIExpression()), !dbg !1561
  store i64 %addr, ptr %addr.dbg.spill, align 8
  call void @llvm.dbg.declare(metadata ptr %addr.dbg.spill, metadata !1558, metadata !DIExpression()), !dbg !1562
; call x86_64::addr::VirtAddr::as_u64
  %addr1 = call i64 @_ZN6x86_644addr8VirtAddr6as_u6417ha3f196ab9340e5d6E(i64 %addr) #7, !dbg !1563
  store i64 %addr1, ptr %addr.dbg.spill2, align 8, !dbg !1563
  call void @llvm.dbg.declare(metadata ptr %addr.dbg.spill2, metadata !1559, metadata !DIExpression()), !dbg !1564
  %0 = trunc i64 %addr1 to i16, !dbg !1565
  store i16 %0, ptr %self, align 4, !dbg !1565
  %_4 = lshr i64 %addr1, 16, !dbg !1566
  %1 = getelementptr inbounds %"x86_64::structures::idt::Entry<extern \22x86-interrupt\22 fn(x86_64::structures::idt::InterruptStackFrame, x86_64::structures::idt::PageFaultErrorCode)>", ptr %self, i32 0, i32 3, !dbg !1567
  %2 = trunc i64 %_4 to i16, !dbg !1567
  store i16 %2, ptr %1, align 2, !dbg !1567
  %_7 = lshr i64 %addr1, 32, !dbg !1568
  %3 = getelementptr inbounds %"x86_64::structures::idt::Entry<extern \22x86-interrupt\22 fn(x86_64::structures::idt::InterruptStackFrame, x86_64::structures::idt::PageFaultErrorCode)>", ptr %self, i32 0, i32 4, !dbg !1569
  %4 = trunc i64 %_7 to i32, !dbg !1569
  store i32 %4, ptr %3, align 4, !dbg !1569
; call x86_64::instructions::segmentation::<impl x86_64::registers::segmentation::Segment for x86_64::registers::segmentation::CS>::get_reg
  %_11 = call i16 @"_ZN6x86_6412instructions12segmentation106_$LT$impl$u20$x86_64..registers..segmentation..Segment$u20$for$u20$x86_64..registers..segmentation..CS$GT$7get_reg17hd17e2879731b3b4aE"() #7, !dbg !1570
  %5 = getelementptr inbounds %"x86_64::structures::idt::Entry<extern \22x86-interrupt\22 fn(x86_64::structures::idt::InterruptStackFrame, x86_64::structures::idt::PageFaultErrorCode)>", ptr %self, i32 0, i32 1, !dbg !1571
  store i16 %_11, ptr %5, align 2, !dbg !1571
  %_13 = getelementptr inbounds %"x86_64::structures::idt::Entry<extern \22x86-interrupt\22 fn(x86_64::structures::idt::InterruptStackFrame, x86_64::structures::idt::PageFaultErrorCode)>", ptr %self, i32 0, i32 2, !dbg !1572
; call x86_64::structures::idt::EntryOptions::set_present
  %_12 = call align 2 ptr @_ZN6x86_6410structures3idt12EntryOptions11set_present17hd349afc722c7af8bE(ptr align 2 %_13, i1 zeroext true) #7, !dbg !1572
  %_0 = getelementptr inbounds %"x86_64::structures::idt::Entry<extern \22x86-interrupt\22 fn(x86_64::structures::idt::InterruptStackFrame, x86_64::structures::idt::PageFaultErrorCode)>", ptr %self, i32 0, i32 2, !dbg !1573
  ret ptr %_0, !dbg !1574
}

; x86_64::structures::idt::Entry<F>::missing
; Function Attrs: inlinehint noredzone nounwind
define void @"_ZN6x86_6410structures3idt14Entry$LT$F$GT$7missing17h1f8fb616dadd409eE"(ptr sret(%"x86_64::structures::idt::Entry<extern \22x86-interrupt\22 fn(x86_64::structures::idt::InterruptStackFrame)>") align 4 %_0) unnamed_addr #0 !dbg !1575 {
start:
; call x86_64::structures::idt::EntryOptions::minimal
  %_1 = call i16 @_ZN6x86_6410structures3idt12EntryOptions7minimal17h8923d1a5e33dae2eE() #7, !dbg !1596
  store i16 0, ptr %_0, align 4, !dbg !1597
  %0 = getelementptr inbounds %"x86_64::structures::idt::Entry<extern \22x86-interrupt\22 fn(x86_64::structures::idt::InterruptStackFrame)>", ptr %_0, i32 0, i32 1, !dbg !1597
  store i16 0, ptr %0, align 2, !dbg !1597
  %1 = getelementptr inbounds %"x86_64::structures::idt::Entry<extern \22x86-interrupt\22 fn(x86_64::structures::idt::InterruptStackFrame)>", ptr %_0, i32 0, i32 2, !dbg !1597
  store i16 %_1, ptr %1, align 4, !dbg !1597
  %2 = getelementptr inbounds %"x86_64::structures::idt::Entry<extern \22x86-interrupt\22 fn(x86_64::structures::idt::InterruptStackFrame)>", ptr %_0, i32 0, i32 3, !dbg !1597
  store i16 0, ptr %2, align 2, !dbg !1597
  %3 = getelementptr inbounds %"x86_64::structures::idt::Entry<extern \22x86-interrupt\22 fn(x86_64::structures::idt::InterruptStackFrame)>", ptr %_0, i32 0, i32 4, !dbg !1597
  store i32 0, ptr %3, align 4, !dbg !1597
  %4 = getelementptr inbounds %"x86_64::structures::idt::Entry<extern \22x86-interrupt\22 fn(x86_64::structures::idt::InterruptStackFrame)>", ptr %_0, i32 0, i32 5, !dbg !1597
  store i32 0, ptr %4, align 4, !dbg !1597
  ret void, !dbg !1598
}

; x86_64::structures::idt::Entry<F>::missing
; Function Attrs: inlinehint noredzone nounwind
define void @"_ZN6x86_6410structures3idt14Entry$LT$F$GT$7missing17ha7a25a52404a463dE"(ptr sret(%"x86_64::structures::idt::Entry<extern \22x86-interrupt\22 fn(x86_64::structures::idt::InterruptStackFrame, u64) -> !>") align 4 %_0) unnamed_addr #0 !dbg !1599 {
start:
; call x86_64::structures::idt::EntryOptions::minimal
  %_1 = call i16 @_ZN6x86_6410structures3idt12EntryOptions7minimal17h8923d1a5e33dae2eE() #7, !dbg !1603
  store i16 0, ptr %_0, align 4, !dbg !1604
  %0 = getelementptr inbounds %"x86_64::structures::idt::Entry<extern \22x86-interrupt\22 fn(x86_64::structures::idt::InterruptStackFrame, u64) -> !>", ptr %_0, i32 0, i32 1, !dbg !1604
  store i16 0, ptr %0, align 2, !dbg !1604
  %1 = getelementptr inbounds %"x86_64::structures::idt::Entry<extern \22x86-interrupt\22 fn(x86_64::structures::idt::InterruptStackFrame, u64) -> !>", ptr %_0, i32 0, i32 2, !dbg !1604
  store i16 %_1, ptr %1, align 4, !dbg !1604
  %2 = getelementptr inbounds %"x86_64::structures::idt::Entry<extern \22x86-interrupt\22 fn(x86_64::structures::idt::InterruptStackFrame, u64) -> !>", ptr %_0, i32 0, i32 3, !dbg !1604
  store i16 0, ptr %2, align 2, !dbg !1604
  %3 = getelementptr inbounds %"x86_64::structures::idt::Entry<extern \22x86-interrupt\22 fn(x86_64::structures::idt::InterruptStackFrame, u64) -> !>", ptr %_0, i32 0, i32 4, !dbg !1604
  store i32 0, ptr %3, align 4, !dbg !1604
  %4 = getelementptr inbounds %"x86_64::structures::idt::Entry<extern \22x86-interrupt\22 fn(x86_64::structures::idt::InterruptStackFrame, u64) -> !>", ptr %_0, i32 0, i32 5, !dbg !1604
  store i32 0, ptr %4, align 4, !dbg !1604
  ret void, !dbg !1605
}

; x86_64::structures::idt::Entry<F>::missing
; Function Attrs: inlinehint noredzone nounwind
define void @"_ZN6x86_6410structures3idt14Entry$LT$F$GT$7missing17hc925b0ce42054784E"(ptr sret(%"x86_64::structures::idt::Entry<extern \22x86-interrupt\22 fn(x86_64::structures::idt::InterruptStackFrame, u64)>") align 4 %_0) unnamed_addr #0 !dbg !1606 {
start:
; call x86_64::structures::idt::EntryOptions::minimal
  %_1 = call i16 @_ZN6x86_6410structures3idt12EntryOptions7minimal17h8923d1a5e33dae2eE() #7, !dbg !1627
  store i16 0, ptr %_0, align 4, !dbg !1628
  %0 = getelementptr inbounds %"x86_64::structures::idt::Entry<extern \22x86-interrupt\22 fn(x86_64::structures::idt::InterruptStackFrame, u64)>", ptr %_0, i32 0, i32 1, !dbg !1628
  store i16 0, ptr %0, align 2, !dbg !1628
  %1 = getelementptr inbounds %"x86_64::structures::idt::Entry<extern \22x86-interrupt\22 fn(x86_64::structures::idt::InterruptStackFrame, u64)>", ptr %_0, i32 0, i32 2, !dbg !1628
  store i16 %_1, ptr %1, align 4, !dbg !1628
  %2 = getelementptr inbounds %"x86_64::structures::idt::Entry<extern \22x86-interrupt\22 fn(x86_64::structures::idt::InterruptStackFrame, u64)>", ptr %_0, i32 0, i32 3, !dbg !1628
  store i16 0, ptr %2, align 2, !dbg !1628
  %3 = getelementptr inbounds %"x86_64::structures::idt::Entry<extern \22x86-interrupt\22 fn(x86_64::structures::idt::InterruptStackFrame, u64)>", ptr %_0, i32 0, i32 4, !dbg !1628
  store i32 0, ptr %3, align 4, !dbg !1628
  %4 = getelementptr inbounds %"x86_64::structures::idt::Entry<extern \22x86-interrupt\22 fn(x86_64::structures::idt::InterruptStackFrame, u64)>", ptr %_0, i32 0, i32 5, !dbg !1628
  store i32 0, ptr %4, align 4, !dbg !1628
  ret void, !dbg !1629
}

; x86_64::structures::idt::Entry<F>::missing
; Function Attrs: inlinehint noredzone nounwind
define void @"_ZN6x86_6410structures3idt14Entry$LT$F$GT$7missing17hd2f370abc2e6d621E"(ptr sret(%"x86_64::structures::idt::Entry<extern \22x86-interrupt\22 fn(x86_64::structures::idt::InterruptStackFrame, x86_64::structures::idt::PageFaultErrorCode)>") align 4 %_0) unnamed_addr #0 !dbg !1630 {
start:
; call x86_64::structures::idt::EntryOptions::minimal
  %_1 = call i16 @_ZN6x86_6410structures3idt12EntryOptions7minimal17h8923d1a5e33dae2eE() #7, !dbg !1634
  store i16 0, ptr %_0, align 4, !dbg !1635
  %0 = getelementptr inbounds %"x86_64::structures::idt::Entry<extern \22x86-interrupt\22 fn(x86_64::structures::idt::InterruptStackFrame, x86_64::structures::idt::PageFaultErrorCode)>", ptr %_0, i32 0, i32 1, !dbg !1635
  store i16 0, ptr %0, align 2, !dbg !1635
  %1 = getelementptr inbounds %"x86_64::structures::idt::Entry<extern \22x86-interrupt\22 fn(x86_64::structures::idt::InterruptStackFrame, x86_64::structures::idt::PageFaultErrorCode)>", ptr %_0, i32 0, i32 2, !dbg !1635
  store i16 %_1, ptr %1, align 4, !dbg !1635
  %2 = getelementptr inbounds %"x86_64::structures::idt::Entry<extern \22x86-interrupt\22 fn(x86_64::structures::idt::InterruptStackFrame, x86_64::structures::idt::PageFaultErrorCode)>", ptr %_0, i32 0, i32 3, !dbg !1635
  store i16 0, ptr %2, align 2, !dbg !1635
  %3 = getelementptr inbounds %"x86_64::structures::idt::Entry<extern \22x86-interrupt\22 fn(x86_64::structures::idt::InterruptStackFrame, x86_64::structures::idt::PageFaultErrorCode)>", ptr %_0, i32 0, i32 4, !dbg !1635
  store i32 0, ptr %3, align 4, !dbg !1635
  %4 = getelementptr inbounds %"x86_64::structures::idt::Entry<extern \22x86-interrupt\22 fn(x86_64::structures::idt::InterruptStackFrame, x86_64::structures::idt::PageFaultErrorCode)>", ptr %_0, i32 0, i32 5, !dbg !1635
  store i32 0, ptr %4, align 4, !dbg !1635
  ret void, !dbg !1636
}

; x86_64::structures::idt::Entry<F>::missing
; Function Attrs: inlinehint noredzone nounwind
define void @"_ZN6x86_6410structures3idt14Entry$LT$F$GT$7missing17he11a2b910732cdb3E"(ptr sret(%"x86_64::structures::idt::Entry<extern \22x86-interrupt\22 fn(x86_64::structures::idt::InterruptStackFrame) -> !>") align 4 %_0) unnamed_addr #0 !dbg !1637 {
start:
; call x86_64::structures::idt::EntryOptions::minimal
  %_1 = call i16 @_ZN6x86_6410structures3idt12EntryOptions7minimal17h8923d1a5e33dae2eE() #7, !dbg !1658
  store i16 0, ptr %_0, align 4, !dbg !1659
  %0 = getelementptr inbounds %"x86_64::structures::idt::Entry<extern \22x86-interrupt\22 fn(x86_64::structures::idt::InterruptStackFrame) -> !>", ptr %_0, i32 0, i32 1, !dbg !1659
  store i16 0, ptr %0, align 2, !dbg !1659
  %1 = getelementptr inbounds %"x86_64::structures::idt::Entry<extern \22x86-interrupt\22 fn(x86_64::structures::idt::InterruptStackFrame) -> !>", ptr %_0, i32 0, i32 2, !dbg !1659
  store i16 %_1, ptr %1, align 4, !dbg !1659
  %2 = getelementptr inbounds %"x86_64::structures::idt::Entry<extern \22x86-interrupt\22 fn(x86_64::structures::idt::InterruptStackFrame) -> !>", ptr %_0, i32 0, i32 3, !dbg !1659
  store i16 0, ptr %2, align 2, !dbg !1659
  %3 = getelementptr inbounds %"x86_64::structures::idt::Entry<extern \22x86-interrupt\22 fn(x86_64::structures::idt::InterruptStackFrame) -> !>", ptr %_0, i32 0, i32 4, !dbg !1659
  store i32 0, ptr %3, align 4, !dbg !1659
  %4 = getelementptr inbounds %"x86_64::structures::idt::Entry<extern \22x86-interrupt\22 fn(x86_64::structures::idt::InterruptStackFrame) -> !>", ptr %_0, i32 0, i32 5, !dbg !1659
  store i32 0, ptr %4, align 4, !dbg !1659
  ret void, !dbg !1660
}

; x86_64::structures::idt::Entry<extern "x86.interrupt" fn(x86_64::structures::idt::InterruptStackFrame,x86_64::structures::idt::PageFaultErrorCode)>::set_handler_fn
; Function Attrs: inlinehint noredzone nounwind
define internal align 2 ptr @"_ZN6x86_6410structures3idt152Entry$LT$extern$u20$$u22$x86.interrupt$u22$$u20$fn$LP$x86_64..structures..idt..InterruptStackFrame$C$x86_64..structures..idt..PageFaultErrorCode$RP$$GT$14set_handler_fn17hb92a002dc4c3b096E"(ptr align 4 %self, ptr %handler) unnamed_addr #0 !dbg !1661 {
start:
  %handler.dbg.spill2 = alloca i64, align 8
  %handler.dbg.spill = alloca ptr, align 8
  %self.dbg.spill = alloca ptr, align 8
  store ptr %self, ptr %self.dbg.spill, align 8
  call void @llvm.dbg.declare(metadata ptr %self.dbg.spill, metadata !1666, metadata !DIExpression()), !dbg !1670
  store ptr %handler, ptr %handler.dbg.spill, align 8
  call void @llvm.dbg.declare(metadata ptr %handler.dbg.spill, metadata !1667, metadata !DIExpression()), !dbg !1671
  %_4 = ptrtoint ptr %handler to i64, !dbg !1672
; call x86_64::addr::VirtAddr::new
  %handler1 = call i64 @_ZN6x86_644addr8VirtAddr3new17hb393dff5ef3ea270E(i64 %_4) #7, !dbg !1673
  store i64 %handler1, ptr %handler.dbg.spill2, align 8, !dbg !1673
  call void @llvm.dbg.declare(metadata ptr %handler.dbg.spill2, metadata !1668, metadata !DIExpression()), !dbg !1674
; call x86_64::structures::idt::Entry<F>::set_handler_addr
  %_0 = call align 2 ptr @"_ZN6x86_6410structures3idt14Entry$LT$F$GT$16set_handler_addr17h59e5f6558e87fd04E"(ptr align 4 %self, i64 %handler1) #7, !dbg !1675
  ret ptr %_0, !dbg !1676
}

; x86_64::structures::idt::InterruptDescriptorTable::load_unsafe
; Function Attrs: inlinehint noredzone nounwind
define internal void @_ZN6x86_6410structures3idt24InterruptDescriptorTable11load_unsafe17h4aed125fd25b40a1E(ptr align 16 %self) unnamed_addr #0 !dbg !1677 {
start:
  %self.dbg.spill = alloca ptr, align 8
  %_4 = alloca %"x86_64::structures::DescriptorTablePointer", align 2
  store ptr %self, ptr %self.dbg.spill, align 8
  call void @llvm.dbg.declare(metadata ptr %self.dbg.spill, metadata !1715, metadata !DIExpression()), !dbg !1716
; call x86_64::structures::idt::InterruptDescriptorTable::pointer
  call void @_ZN6x86_6410structures3idt24InterruptDescriptorTable7pointer17h7502dcfbcca5d456E(ptr sret(%"x86_64::structures::DescriptorTablePointer") align 2 %_4, ptr align 16 %self) #7, !dbg !1717
; call x86_64::instructions::tables::lidt
  call void @_ZN6x86_6412instructions6tables4lidt17hb8746558065bf866E(ptr align 2 %_4) #7, !dbg !1718
  ret void, !dbg !1719
}

; x86_64::structures::idt::InterruptDescriptorTable::new
; Function Attrs: inlinehint noredzone nounwind
define internal void @_ZN6x86_6410structures3idt24InterruptDescriptorTable3new17h29bafce4ab5f9fafE(ptr sret(%"x86_64::structures::idt::InterruptDescriptorTable") align 16 %_0) unnamed_addr #0 !dbg !1720 {
start:
  %_28 = alloca %"x86_64::structures::idt::Entry<extern \22x86-interrupt\22 fn(x86_64::structures::idt::InterruptStackFrame)>", align 4
  %_27 = alloca [224 x %"x86_64::structures::idt::Entry<extern \22x86-interrupt\22 fn(x86_64::structures::idt::InterruptStackFrame)>"], align 4
  %_26 = alloca %"x86_64::structures::idt::Entry<extern \22x86-interrupt\22 fn(x86_64::structures::idt::InterruptStackFrame)>", align 4
  %_25 = alloca %"x86_64::structures::idt::Entry<extern \22x86-interrupt\22 fn(x86_64::structures::idt::InterruptStackFrame, u64)>", align 4
  %_24 = alloca %"x86_64::structures::idt::Entry<extern \22x86-interrupt\22 fn(x86_64::structures::idt::InterruptStackFrame, u64)>", align 4
  %_23 = alloca %"x86_64::structures::idt::Entry<extern \22x86-interrupt\22 fn(x86_64::structures::idt::InterruptStackFrame)>", align 4
  %_22 = alloca [8 x %"x86_64::structures::idt::Entry<extern \22x86-interrupt\22 fn(x86_64::structures::idt::InterruptStackFrame)>"], align 4
  %_21 = alloca %"x86_64::structures::idt::Entry<extern \22x86-interrupt\22 fn(x86_64::structures::idt::InterruptStackFrame)>", align 4
  %_20 = alloca %"x86_64::structures::idt::Entry<extern \22x86-interrupt\22 fn(x86_64::structures::idt::InterruptStackFrame)>", align 4
  %_19 = alloca %"x86_64::structures::idt::Entry<extern \22x86-interrupt\22 fn(x86_64::structures::idt::InterruptStackFrame) -> !>", align 4
  %_18 = alloca %"x86_64::structures::idt::Entry<extern \22x86-interrupt\22 fn(x86_64::structures::idt::InterruptStackFrame, u64)>", align 4
  %_17 = alloca %"x86_64::structures::idt::Entry<extern \22x86-interrupt\22 fn(x86_64::structures::idt::InterruptStackFrame)>", align 4
  %_16 = alloca %"x86_64::structures::idt::Entry<extern \22x86-interrupt\22 fn(x86_64::structures::idt::InterruptStackFrame)>", align 4
  %_15 = alloca %"x86_64::structures::idt::Entry<extern \22x86-interrupt\22 fn(x86_64::structures::idt::InterruptStackFrame, x86_64::structures::idt::PageFaultErrorCode)>", align 4
  %_14 = alloca %"x86_64::structures::idt::Entry<extern \22x86-interrupt\22 fn(x86_64::structures::idt::InterruptStackFrame, u64)>", align 4
  %_13 = alloca %"x86_64::structures::idt::Entry<extern \22x86-interrupt\22 fn(x86_64::structures::idt::InterruptStackFrame, u64)>", align 4
  %_12 = alloca %"x86_64::structures::idt::Entry<extern \22x86-interrupt\22 fn(x86_64::structures::idt::InterruptStackFrame, u64)>", align 4
  %_11 = alloca %"x86_64::structures::idt::Entry<extern \22x86-interrupt\22 fn(x86_64::structures::idt::InterruptStackFrame, u64)>", align 4
  %_10 = alloca %"x86_64::structures::idt::Entry<extern \22x86-interrupt\22 fn(x86_64::structures::idt::InterruptStackFrame)>", align 4
  %_9 = alloca %"x86_64::structures::idt::Entry<extern \22x86-interrupt\22 fn(x86_64::structures::idt::InterruptStackFrame, u64) -> !>", align 4
  %_8 = alloca %"x86_64::structures::idt::Entry<extern \22x86-interrupt\22 fn(x86_64::structures::idt::InterruptStackFrame)>", align 4
  %_7 = alloca %"x86_64::structures::idt::Entry<extern \22x86-interrupt\22 fn(x86_64::structures::idt::InterruptStackFrame)>", align 4
  %_6 = alloca %"x86_64::structures::idt::Entry<extern \22x86-interrupt\22 fn(x86_64::structures::idt::InterruptStackFrame)>", align 4
  %_5 = alloca %"x86_64::structures::idt::Entry<extern \22x86-interrupt\22 fn(x86_64::structures::idt::InterruptStackFrame)>", align 4
  %_4 = alloca %"x86_64::structures::idt::Entry<extern \22x86-interrupt\22 fn(x86_64::structures::idt::InterruptStackFrame)>", align 4
  %_3 = alloca %"x86_64::structures::idt::Entry<extern \22x86-interrupt\22 fn(x86_64::structures::idt::InterruptStackFrame)>", align 4
  %_2 = alloca %"x86_64::structures::idt::Entry<extern \22x86-interrupt\22 fn(x86_64::structures::idt::InterruptStackFrame)>", align 4
  %_1 = alloca %"x86_64::structures::idt::Entry<extern \22x86-interrupt\22 fn(x86_64::structures::idt::InterruptStackFrame)>", align 4
; call x86_64::structures::idt::Entry<F>::missing
  call void @"_ZN6x86_6410structures3idt14Entry$LT$F$GT$7missing17h1f8fb616dadd409eE"(ptr sret(%"x86_64::structures::idt::Entry<extern \22x86-interrupt\22 fn(x86_64::structures::idt::InterruptStackFrame)>") align 4 %_1) #7, !dbg !1724
; call x86_64::structures::idt::Entry<F>::missing
  call void @"_ZN6x86_6410structures3idt14Entry$LT$F$GT$7missing17h1f8fb616dadd409eE"(ptr sret(%"x86_64::structures::idt::Entry<extern \22x86-interrupt\22 fn(x86_64::structures::idt::InterruptStackFrame)>") align 4 %_2) #7, !dbg !1725
; call x86_64::structures::idt::Entry<F>::missing
  call void @"_ZN6x86_6410structures3idt14Entry$LT$F$GT$7missing17h1f8fb616dadd409eE"(ptr sret(%"x86_64::structures::idt::Entry<extern \22x86-interrupt\22 fn(x86_64::structures::idt::InterruptStackFrame)>") align 4 %_3) #7, !dbg !1726
; call x86_64::structures::idt::Entry<F>::missing
  call void @"_ZN6x86_6410structures3idt14Entry$LT$F$GT$7missing17h1f8fb616dadd409eE"(ptr sret(%"x86_64::structures::idt::Entry<extern \22x86-interrupt\22 fn(x86_64::structures::idt::InterruptStackFrame)>") align 4 %_4) #7, !dbg !1727
; call x86_64::structures::idt::Entry<F>::missing
  call void @"_ZN6x86_6410structures3idt14Entry$LT$F$GT$7missing17h1f8fb616dadd409eE"(ptr sret(%"x86_64::structures::idt::Entry<extern \22x86-interrupt\22 fn(x86_64::structures::idt::InterruptStackFrame)>") align 4 %_5) #7, !dbg !1728
; call x86_64::structures::idt::Entry<F>::missing
  call void @"_ZN6x86_6410structures3idt14Entry$LT$F$GT$7missing17h1f8fb616dadd409eE"(ptr sret(%"x86_64::structures::idt::Entry<extern \22x86-interrupt\22 fn(x86_64::structures::idt::InterruptStackFrame)>") align 4 %_6) #7, !dbg !1729
; call x86_64::structures::idt::Entry<F>::missing
  call void @"_ZN6x86_6410structures3idt14Entry$LT$F$GT$7missing17h1f8fb616dadd409eE"(ptr sret(%"x86_64::structures::idt::Entry<extern \22x86-interrupt\22 fn(x86_64::structures::idt::InterruptStackFrame)>") align 4 %_7) #7, !dbg !1730
; call x86_64::structures::idt::Entry<F>::missing
  call void @"_ZN6x86_6410structures3idt14Entry$LT$F$GT$7missing17h1f8fb616dadd409eE"(ptr sret(%"x86_64::structures::idt::Entry<extern \22x86-interrupt\22 fn(x86_64::structures::idt::InterruptStackFrame)>") align 4 %_8) #7, !dbg !1731
; call x86_64::structures::idt::Entry<F>::missing
  call void @"_ZN6x86_6410structures3idt14Entry$LT$F$GT$7missing17ha7a25a52404a463dE"(ptr sret(%"x86_64::structures::idt::Entry<extern \22x86-interrupt\22 fn(x86_64::structures::idt::InterruptStackFrame, u64) -> !>") align 4 %_9) #7, !dbg !1732
; call x86_64::structures::idt::Entry<F>::missing
  call void @"_ZN6x86_6410structures3idt14Entry$LT$F$GT$7missing17h1f8fb616dadd409eE"(ptr sret(%"x86_64::structures::idt::Entry<extern \22x86-interrupt\22 fn(x86_64::structures::idt::InterruptStackFrame)>") align 4 %_10) #7, !dbg !1733
; call x86_64::structures::idt::Entry<F>::missing
  call void @"_ZN6x86_6410structures3idt14Entry$LT$F$GT$7missing17hc925b0ce42054784E"(ptr sret(%"x86_64::structures::idt::Entry<extern \22x86-interrupt\22 fn(x86_64::structures::idt::InterruptStackFrame, u64)>") align 4 %_11) #7, !dbg !1734
; call x86_64::structures::idt::Entry<F>::missing
  call void @"_ZN6x86_6410structures3idt14Entry$LT$F$GT$7missing17hc925b0ce42054784E"(ptr sret(%"x86_64::structures::idt::Entry<extern \22x86-interrupt\22 fn(x86_64::structures::idt::InterruptStackFrame, u64)>") align 4 %_12) #7, !dbg !1735
; call x86_64::structures::idt::Entry<F>::missing
  call void @"_ZN6x86_6410structures3idt14Entry$LT$F$GT$7missing17hc925b0ce42054784E"(ptr sret(%"x86_64::structures::idt::Entry<extern \22x86-interrupt\22 fn(x86_64::structures::idt::InterruptStackFrame, u64)>") align 4 %_13) #7, !dbg !1736
; call x86_64::structures::idt::Entry<F>::missing
  call void @"_ZN6x86_6410structures3idt14Entry$LT$F$GT$7missing17hc925b0ce42054784E"(ptr sret(%"x86_64::structures::idt::Entry<extern \22x86-interrupt\22 fn(x86_64::structures::idt::InterruptStackFrame, u64)>") align 4 %_14) #7, !dbg !1737
; call x86_64::structures::idt::Entry<F>::missing
  call void @"_ZN6x86_6410structures3idt14Entry$LT$F$GT$7missing17hd2f370abc2e6d621E"(ptr sret(%"x86_64::structures::idt::Entry<extern \22x86-interrupt\22 fn(x86_64::structures::idt::InterruptStackFrame, x86_64::structures::idt::PageFaultErrorCode)>") align 4 %_15) #7, !dbg !1738
; call x86_64::structures::idt::Entry<F>::missing
  call void @"_ZN6x86_6410structures3idt14Entry$LT$F$GT$7missing17h1f8fb616dadd409eE"(ptr sret(%"x86_64::structures::idt::Entry<extern \22x86-interrupt\22 fn(x86_64::structures::idt::InterruptStackFrame)>") align 4 %_16) #7, !dbg !1739
; call x86_64::structures::idt::Entry<F>::missing
  call void @"_ZN6x86_6410structures3idt14Entry$LT$F$GT$7missing17h1f8fb616dadd409eE"(ptr sret(%"x86_64::structures::idt::Entry<extern \22x86-interrupt\22 fn(x86_64::structures::idt::InterruptStackFrame)>") align 4 %_17) #7, !dbg !1740
; call x86_64::structures::idt::Entry<F>::missing
  call void @"_ZN6x86_6410structures3idt14Entry$LT$F$GT$7missing17hc925b0ce42054784E"(ptr sret(%"x86_64::structures::idt::Entry<extern \22x86-interrupt\22 fn(x86_64::structures::idt::InterruptStackFrame, u64)>") align 4 %_18) #7, !dbg !1741
; call x86_64::structures::idt::Entry<F>::missing
  call void @"_ZN6x86_6410structures3idt14Entry$LT$F$GT$7missing17he11a2b910732cdb3E"(ptr sret(%"x86_64::structures::idt::Entry<extern \22x86-interrupt\22 fn(x86_64::structures::idt::InterruptStackFrame) -> !>") align 4 %_19) #7, !dbg !1742
; call x86_64::structures::idt::Entry<F>::missing
  call void @"_ZN6x86_6410structures3idt14Entry$LT$F$GT$7missing17h1f8fb616dadd409eE"(ptr sret(%"x86_64::structures::idt::Entry<extern \22x86-interrupt\22 fn(x86_64::structures::idt::InterruptStackFrame)>") align 4 %_20) #7, !dbg !1743
; call x86_64::structures::idt::Entry<F>::missing
  call void @"_ZN6x86_6410structures3idt14Entry$LT$F$GT$7missing17h1f8fb616dadd409eE"(ptr sret(%"x86_64::structures::idt::Entry<extern \22x86-interrupt\22 fn(x86_64::structures::idt::InterruptStackFrame)>") align 4 %_21) #7, !dbg !1744
; call x86_64::structures::idt::Entry<F>::missing
  call void @"_ZN6x86_6410structures3idt14Entry$LT$F$GT$7missing17h1f8fb616dadd409eE"(ptr sret(%"x86_64::structures::idt::Entry<extern \22x86-interrupt\22 fn(x86_64::structures::idt::InterruptStackFrame)>") align 4 %_23) #7, !dbg !1745
  br label %repeat_loop_header, !dbg !1746

repeat_loop_header:                               ; preds = %repeat_loop_body, %start
  %0 = phi i64 [ 0, %start ], [ %3, %repeat_loop_body ]
  %1 = icmp ult i64 %0, 8
  br i1 %1, label %repeat_loop_body, label %repeat_loop_next

repeat_loop_body:                                 ; preds = %repeat_loop_header
  %2 = getelementptr inbounds [8 x %"x86_64::structures::idt::Entry<extern \22x86-interrupt\22 fn(x86_64::structures::idt::InterruptStackFrame)>"], ptr %_22, i64 0, i64 %0
  call void @llvm.memcpy.p0.p0.i64(ptr align 4 %2, ptr align 4 %_23, i64 16, i1 false)
  %3 = add nuw i64 %0, 1
  br label %repeat_loop_header

repeat_loop_next:                                 ; preds = %repeat_loop_header
; call x86_64::structures::idt::Entry<F>::missing
  call void @"_ZN6x86_6410structures3idt14Entry$LT$F$GT$7missing17hc925b0ce42054784E"(ptr sret(%"x86_64::structures::idt::Entry<extern \22x86-interrupt\22 fn(x86_64::structures::idt::InterruptStackFrame, u64)>") align 4 %_24) #7, !dbg !1747
; call x86_64::structures::idt::Entry<F>::missing
  call void @"_ZN6x86_6410structures3idt14Entry$LT$F$GT$7missing17hc925b0ce42054784E"(ptr sret(%"x86_64::structures::idt::Entry<extern \22x86-interrupt\22 fn(x86_64::structures::idt::InterruptStackFrame, u64)>") align 4 %_25) #7, !dbg !1748
; call x86_64::structures::idt::Entry<F>::missing
  call void @"_ZN6x86_6410structures3idt14Entry$LT$F$GT$7missing17h1f8fb616dadd409eE"(ptr sret(%"x86_64::structures::idt::Entry<extern \22x86-interrupt\22 fn(x86_64::structures::idt::InterruptStackFrame)>") align 4 %_26) #7, !dbg !1749
; call x86_64::structures::idt::Entry<F>::missing
  call void @"_ZN6x86_6410structures3idt14Entry$LT$F$GT$7missing17h1f8fb616dadd409eE"(ptr sret(%"x86_64::structures::idt::Entry<extern \22x86-interrupt\22 fn(x86_64::structures::idt::InterruptStackFrame)>") align 4 %_28) #7, !dbg !1750
  br label %repeat_loop_header1, !dbg !1751

repeat_loop_header1:                              ; preds = %repeat_loop_body2, %repeat_loop_next
  %4 = phi i64 [ 0, %repeat_loop_next ], [ %7, %repeat_loop_body2 ]
  %5 = icmp ult i64 %4, 224
  br i1 %5, label %repeat_loop_body2, label %repeat_loop_next3

repeat_loop_body2:                                ; preds = %repeat_loop_header1
  %6 = getelementptr inbounds [224 x %"x86_64::structures::idt::Entry<extern \22x86-interrupt\22 fn(x86_64::structures::idt::InterruptStackFrame)>"], ptr %_27, i64 0, i64 %4
  call void @llvm.memcpy.p0.p0.i64(ptr align 4 %6, ptr align 4 %_28, i64 16, i1 false)
  %7 = add nuw i64 %4, 1
  br label %repeat_loop_header1

repeat_loop_next3:                                ; preds = %repeat_loop_header1
  call void @llvm.memcpy.p0.p0.i64(ptr align 16 %_0, ptr align 4 %_1, i64 16, i1 false), !dbg !1752
  %8 = getelementptr inbounds %"x86_64::structures::idt::InterruptDescriptorTable", ptr %_0, i32 0, i32 1, !dbg !1752
  call void @llvm.memcpy.p0.p0.i64(ptr align 16 %8, ptr align 4 %_2, i64 16, i1 false), !dbg !1752
  %9 = getelementptr inbounds %"x86_64::structures::idt::InterruptDescriptorTable", ptr %_0, i32 0, i32 2, !dbg !1752
  call void @llvm.memcpy.p0.p0.i64(ptr align 16 %9, ptr align 4 %_3, i64 16, i1 false), !dbg !1752
  %10 = getelementptr inbounds %"x86_64::structures::idt::InterruptDescriptorTable", ptr %_0, i32 0, i32 3, !dbg !1752
  call void @llvm.memcpy.p0.p0.i64(ptr align 16 %10, ptr align 4 %_4, i64 16, i1 false), !dbg !1752
  %11 = getelementptr inbounds %"x86_64::structures::idt::InterruptDescriptorTable", ptr %_0, i32 0, i32 4, !dbg !1752
  call void @llvm.memcpy.p0.p0.i64(ptr align 16 %11, ptr align 4 %_5, i64 16, i1 false), !dbg !1752
  %12 = getelementptr inbounds %"x86_64::structures::idt::InterruptDescriptorTable", ptr %_0, i32 0, i32 5, !dbg !1752
  call void @llvm.memcpy.p0.p0.i64(ptr align 16 %12, ptr align 4 %_6, i64 16, i1 false), !dbg !1752
  %13 = getelementptr inbounds %"x86_64::structures::idt::InterruptDescriptorTable", ptr %_0, i32 0, i32 6, !dbg !1752
  call void @llvm.memcpy.p0.p0.i64(ptr align 16 %13, ptr align 4 %_7, i64 16, i1 false), !dbg !1752
  %14 = getelementptr inbounds %"x86_64::structures::idt::InterruptDescriptorTable", ptr %_0, i32 0, i32 7, !dbg !1752
  call void @llvm.memcpy.p0.p0.i64(ptr align 16 %14, ptr align 4 %_8, i64 16, i1 false), !dbg !1752
  %15 = getelementptr inbounds %"x86_64::structures::idt::InterruptDescriptorTable", ptr %_0, i32 0, i32 8, !dbg !1752
  call void @llvm.memcpy.p0.p0.i64(ptr align 16 %15, ptr align 4 %_9, i64 16, i1 false), !dbg !1752
  %16 = getelementptr inbounds %"x86_64::structures::idt::InterruptDescriptorTable", ptr %_0, i32 0, i32 9, !dbg !1752
  call void @llvm.memcpy.p0.p0.i64(ptr align 16 %16, ptr align 4 %_10, i64 16, i1 false), !dbg !1752
  %17 = getelementptr inbounds %"x86_64::structures::idt::InterruptDescriptorTable", ptr %_0, i32 0, i32 10, !dbg !1752
  call void @llvm.memcpy.p0.p0.i64(ptr align 16 %17, ptr align 4 %_11, i64 16, i1 false), !dbg !1752
  %18 = getelementptr inbounds %"x86_64::structures::idt::InterruptDescriptorTable", ptr %_0, i32 0, i32 11, !dbg !1752
  call void @llvm.memcpy.p0.p0.i64(ptr align 16 %18, ptr align 4 %_12, i64 16, i1 false), !dbg !1752
  %19 = getelementptr inbounds %"x86_64::structures::idt::InterruptDescriptorTable", ptr %_0, i32 0, i32 12, !dbg !1752
  call void @llvm.memcpy.p0.p0.i64(ptr align 16 %19, ptr align 4 %_13, i64 16, i1 false), !dbg !1752
  %20 = getelementptr inbounds %"x86_64::structures::idt::InterruptDescriptorTable", ptr %_0, i32 0, i32 13, !dbg !1752
  call void @llvm.memcpy.p0.p0.i64(ptr align 16 %20, ptr align 4 %_14, i64 16, i1 false), !dbg !1752
  %21 = getelementptr inbounds %"x86_64::structures::idt::InterruptDescriptorTable", ptr %_0, i32 0, i32 14, !dbg !1752
  call void @llvm.memcpy.p0.p0.i64(ptr align 16 %21, ptr align 4 %_15, i64 16, i1 false), !dbg !1752
  %22 = getelementptr inbounds %"x86_64::structures::idt::InterruptDescriptorTable", ptr %_0, i32 0, i32 15, !dbg !1752
  call void @llvm.memcpy.p0.p0.i64(ptr align 16 %22, ptr align 4 %_16, i64 16, i1 false), !dbg !1752
  %23 = getelementptr inbounds %"x86_64::structures::idt::InterruptDescriptorTable", ptr %_0, i32 0, i32 16, !dbg !1752
  call void @llvm.memcpy.p0.p0.i64(ptr align 16 %23, ptr align 4 %_17, i64 16, i1 false), !dbg !1752
  %24 = getelementptr inbounds %"x86_64::structures::idt::InterruptDescriptorTable", ptr %_0, i32 0, i32 17, !dbg !1752
  call void @llvm.memcpy.p0.p0.i64(ptr align 16 %24, ptr align 4 %_18, i64 16, i1 false), !dbg !1752
  %25 = getelementptr inbounds %"x86_64::structures::idt::InterruptDescriptorTable", ptr %_0, i32 0, i32 18, !dbg !1752
  call void @llvm.memcpy.p0.p0.i64(ptr align 16 %25, ptr align 4 %_19, i64 16, i1 false), !dbg !1752
  %26 = getelementptr inbounds %"x86_64::structures::idt::InterruptDescriptorTable", ptr %_0, i32 0, i32 19, !dbg !1752
  call void @llvm.memcpy.p0.p0.i64(ptr align 16 %26, ptr align 4 %_20, i64 16, i1 false), !dbg !1752
  %27 = getelementptr inbounds %"x86_64::structures::idt::InterruptDescriptorTable", ptr %_0, i32 0, i32 20, !dbg !1752
  call void @llvm.memcpy.p0.p0.i64(ptr align 16 %27, ptr align 4 %_21, i64 16, i1 false), !dbg !1752
  %28 = getelementptr inbounds %"x86_64::structures::idt::InterruptDescriptorTable", ptr %_0, i32 0, i32 21, !dbg !1752
  call void @llvm.memcpy.p0.p0.i64(ptr align 16 %28, ptr align 4 %_22, i64 128, i1 false), !dbg !1752
  %29 = getelementptr inbounds %"x86_64::structures::idt::InterruptDescriptorTable", ptr %_0, i32 0, i32 22, !dbg !1752
  call void @llvm.memcpy.p0.p0.i64(ptr align 16 %29, ptr align 4 %_24, i64 16, i1 false), !dbg !1752
  %30 = getelementptr inbounds %"x86_64::structures::idt::InterruptDescriptorTable", ptr %_0, i32 0, i32 23, !dbg !1752
  call void @llvm.memcpy.p0.p0.i64(ptr align 16 %30, ptr align 4 %_25, i64 16, i1 false), !dbg !1752
  %31 = getelementptr inbounds %"x86_64::structures::idt::InterruptDescriptorTable", ptr %_0, i32 0, i32 24, !dbg !1752
  call void @llvm.memcpy.p0.p0.i64(ptr align 16 %31, ptr align 4 %_26, i64 16, i1 false), !dbg !1752
  %32 = getelementptr inbounds %"x86_64::structures::idt::InterruptDescriptorTable", ptr %_0, i32 0, i32 25, !dbg !1752
  call void @llvm.memcpy.p0.p0.i64(ptr align 16 %32, ptr align 4 %_27, i64 3584, i1 false), !dbg !1752
  ret void, !dbg !1753
}

; x86_64::structures::idt::InterruptDescriptorTable::load
; Function Attrs: inlinehint noredzone nounwind
define internal void @_ZN6x86_6410structures3idt24InterruptDescriptorTable4load17hf6ea4224a85f6fa4E(ptr align 16 %self) unnamed_addr #0 !dbg !1754 {
start:
  %self.dbg.spill = alloca ptr, align 8
  store ptr %self, ptr %self.dbg.spill, align 8
  call void @llvm.dbg.declare(metadata ptr %self.dbg.spill, metadata !1757, metadata !DIExpression()), !dbg !1758
; call x86_64::structures::idt::InterruptDescriptorTable::load_unsafe
  call void @_ZN6x86_6410structures3idt24InterruptDescriptorTable11load_unsafe17h4aed125fd25b40a1E(ptr align 16 %self) #7, !dbg !1759
  ret void, !dbg !1760
}

; x86_64::instructions::interrupts::enable
; Function Attrs: inlinehint noredzone nounwind
define internal void @_ZN6x86_6412instructions10interrupts6enable17h88823b75b999947eE() unnamed_addr #0 !dbg !1761 {
start:
  call void asm sideeffect inteldialect "sti", "~{dirflag},~{fpsr},~{flags}"() #12, !dbg !1764, !srcloc !1765
  ret void, !dbg !1766
}

; x86_64::instructions::tables::lgdt
; Function Attrs: inlinehint noredzone nounwind
define internal void @_ZN6x86_6412instructions6tables4lgdt17h7fd732b99effcd8bE(ptr align 2 %gdt) unnamed_addr #0 !dbg !1767 {
start:
  %gdt.dbg.spill = alloca ptr, align 8
  store ptr %gdt, ptr %gdt.dbg.spill, align 8
  call void @llvm.dbg.declare(metadata ptr %gdt.dbg.spill, metadata !1778, metadata !DIExpression()), !dbg !1779
  call void asm sideeffect inteldialect "lgdt [${0:q}]", "r,~{memory}"(ptr %gdt), !dbg !1780, !srcloc !1781
  ret void, !dbg !1782
}

; x86_64::instructions::tables::lidt
; Function Attrs: inlinehint noredzone nounwind
define internal void @_ZN6x86_6412instructions6tables4lidt17hb8746558065bf866E(ptr align 2 %idt) unnamed_addr #0 !dbg !1783 {
start:
  %idt.dbg.spill = alloca ptr, align 8
  store ptr %idt, ptr %idt.dbg.spill, align 8
  call void @llvm.dbg.declare(metadata ptr %idt.dbg.spill, metadata !1785, metadata !DIExpression()), !dbg !1786
  call void asm sideeffect inteldialect "lidt [${0:q}]", "r,~{memory}"(ptr %idt), !dbg !1787, !srcloc !1788
  ret void, !dbg !1789
}

; x86_64::instructions::tables::load_tss
; Function Attrs: inlinehint noredzone nounwind
define internal void @_ZN6x86_6412instructions6tables8load_tss17hd6739d7bbf5c1645E(i16 %sel) unnamed_addr #0 !dbg !1790 {
start:
  %sel.dbg.spill = alloca i16, align 2
  store i16 %sel, ptr %sel.dbg.spill, align 2
  call void @llvm.dbg.declare(metadata ptr %sel.dbg.spill, metadata !1794, metadata !DIExpression()), !dbg !1795
  call void asm sideeffect inteldialect "ltr ${0:w}", "r,~{memory}"(i16 %sel), !dbg !1796, !srcloc !1797
  ret void, !dbg !1798
}

; x86_64::addr::VirtAddr::new_truncate
; Function Attrs: inlinehint noredzone nounwind
define internal i64 @_ZN6x86_644addr8VirtAddr12new_truncate17h0d7af00790ef35d1E(i64 %addr) unnamed_addr #0 !dbg !1799 {
start:
  %addr.dbg.spill = alloca i64, align 8
  %_0 = alloca i64, align 8
  store i64 %addr, ptr %addr.dbg.spill, align 8
  call void @llvm.dbg.declare(metadata ptr %addr.dbg.spill, metadata !1805, metadata !DIExpression()), !dbg !1806
  %_5 = shl i64 %addr, 16, !dbg !1807
  %_3 = ashr i64 %_5, 16, !dbg !1808
  store i64 %_3, ptr %_0, align 8, !dbg !1809
  %0 = load i64, ptr %_0, align 8, !dbg !1810, !noundef !18
  ret i64 %0, !dbg !1810
}

; x86_64::addr::VirtAddr::new
; Function Attrs: inlinehint noredzone nounwind
define internal i64 @_ZN6x86_644addr8VirtAddr3new17hb393dff5ef3ea270E(i64 %addr) unnamed_addr #0 !dbg !1811 {
start:
  %addr.dbg.spill = alloca i64, align 8
  store i64 %addr, ptr %addr.dbg.spill, align 8
  call void @llvm.dbg.declare(metadata ptr %addr.dbg.spill, metadata !1814, metadata !DIExpression()), !dbg !1815
; call x86_64::addr::VirtAddr::try_new
  %0 = call { i64, i64 } @_ZN6x86_644addr8VirtAddr7try_new17h11976ff51c92a944E(i64 %addr) #7, !dbg !1816
  %_2.0 = extractvalue { i64, i64 } %0, 0, !dbg !1816
  %_2.1 = extractvalue { i64, i64 } %0, 1, !dbg !1816
; call core::result::Result<T,E>::expect
  %_0 = call i64 @"_ZN4core6result19Result$LT$T$C$E$GT$6expect17h38ac5621529231b1E"(i64 %_2.0, i64 %_2.1, ptr align 1 @alloc_3b30f3c2fe1935017d2714aa9952ea95, i64 74, ptr align 8 @alloc_0d1a04bfc07f4521465dd99c6362240a) #7, !dbg !1816
  ret i64 %_0, !dbg !1817
}

; x86_64::addr::VirtAddr::as_u64
; Function Attrs: inlinehint noredzone nounwind
define internal i64 @_ZN6x86_644addr8VirtAddr6as_u6417ha3f196ab9340e5d6E(i64 %self) unnamed_addr #0 !dbg !1818 {
start:
  %self.dbg.spill = alloca i64, align 8
  store i64 %self, ptr %self.dbg.spill, align 8
  call void @llvm.dbg.declare(metadata ptr %self.dbg.spill, metadata !1823, metadata !DIExpression()), !dbg !1824
  ret i64 %self, !dbg !1825
}

; x86_64::addr::VirtAddr::try_new
; Function Attrs: inlinehint noredzone nounwind
define internal { i64, i64 } @_ZN6x86_644addr8VirtAddr7try_new17h11976ff51c92a944E(i64 %0) unnamed_addr #0 !dbg !1826 {
start:
  %_9 = alloca i64, align 8
  %_5 = alloca i64, align 8
  %_4 = alloca { i64, i64 }, align 8
  %_0 = alloca { i64, i64 }, align 8
  %addr = alloca i64, align 8
  store i64 %0, ptr %addr, align 8
  call void @llvm.dbg.declare(metadata ptr %addr, metadata !1850, metadata !DIExpression()), !dbg !1851
  store i64 47, ptr %_4, align 8, !dbg !1852
  %1 = getelementptr inbounds { i64, i64 }, ptr %_4, i32 0, i32 1, !dbg !1852
  store i64 64, ptr %1, align 8, !dbg !1852
  %2 = getelementptr inbounds { i64, i64 }, ptr %_4, i32 0, i32 0, !dbg !1853
  %3 = load i64, ptr %2, align 8, !dbg !1853, !noundef !18
  %4 = getelementptr inbounds { i64, i64 }, ptr %_4, i32 0, i32 1, !dbg !1853
  %5 = load i64, ptr %4, align 8, !dbg !1853, !noundef !18
; call <u64 as bit_field::BitField>::get_bits
  %_2 = call i64 @"_ZN43_$LT$u64$u20$as$u20$bit_field..BitField$GT$8get_bits17h2f217ad10ee0b965E"(ptr align 8 %addr, i64 %3, i64 %5) #7, !dbg !1853
  switch i64 %_2, label %bb2 [
    i64 0, label %bb3
    i64 131071, label %bb3
    i64 1, label %bb4
  ], !dbg !1854

bb2:                                              ; preds = %start
  %_10 = load i64, ptr %addr, align 8, !dbg !1855, !noundef !18
  store i64 %_10, ptr %_9, align 8, !dbg !1856
  %6 = load i64, ptr %_9, align 8, !dbg !1857, !noundef !18
  %7 = getelementptr inbounds { i64, i64 }, ptr %_0, i32 0, i32 1, !dbg !1857
  store i64 %6, ptr %7, align 8, !dbg !1857
  store i64 1, ptr %_0, align 8, !dbg !1857
  br label %bb6, !dbg !1858

bb3:                                              ; preds = %start, %start
  %_6 = load i64, ptr %addr, align 8, !dbg !1859, !noundef !18
  store i64 %_6, ptr %_5, align 8, !dbg !1860
  %8 = load i64, ptr %_5, align 8, !dbg !1861, !noundef !18
  %9 = getelementptr inbounds { i64, i64 }, ptr %_0, i32 0, i32 1, !dbg !1861
  store i64 %8, ptr %9, align 8, !dbg !1861
  store i64 0, ptr %_0, align 8, !dbg !1861
  br label %bb6, !dbg !1862

bb4:                                              ; preds = %start
  %_8 = load i64, ptr %addr, align 8, !dbg !1863, !noundef !18
; call x86_64::addr::VirtAddr::new_truncate
  %_7 = call i64 @_ZN6x86_644addr8VirtAddr12new_truncate17h0d7af00790ef35d1E(i64 %_8) #7, !dbg !1864
  %10 = getelementptr inbounds { i64, i64 }, ptr %_0, i32 0, i32 1, !dbg !1865
  store i64 %_7, ptr %10, align 8, !dbg !1865
  store i64 0, ptr %_0, align 8, !dbg !1865
  br label %bb6, !dbg !1866

bb6:                                              ; preds = %bb2, %bb4, %bb3
  %11 = getelementptr inbounds { i64, i64 }, ptr %_0, i32 0, i32 0, !dbg !1867
  %12 = load i64, ptr %11, align 8, !dbg !1867, !range !784, !noundef !18
  %13 = getelementptr inbounds { i64, i64 }, ptr %_0, i32 0, i32 1, !dbg !1867
  %14 = load i64, ptr %13, align 8, !dbg !1867, !noundef !18
  %15 = insertvalue { i64, i64 } poison, i64 %12, 0, !dbg !1867
  %16 = insertvalue { i64, i64 } %15, i64 %14, 1, !dbg !1867
  ret { i64, i64 } %16, !dbg !1867
}

; x86_64::addr::VirtAddr::from_ptr
; Function Attrs: inlinehint noredzone nounwind
define i64 @_ZN6x86_644addr8VirtAddr8from_ptr17h7702dc94bf277e3cE(ptr %ptr) unnamed_addr #0 !dbg !1868 {
start:
  %ptr.dbg.spill = alloca ptr, align 8
  store ptr %ptr, ptr %ptr.dbg.spill, align 8
  call void @llvm.dbg.declare(metadata ptr %ptr.dbg.spill, metadata !1876, metadata !DIExpression()), !dbg !1877
  %_2 = ptrtoint ptr %ptr to i64, !dbg !1878
; call x86_64::addr::VirtAddr::new
  %_0 = call i64 @_ZN6x86_644addr8VirtAddr3new17hb393dff5ef3ea270E(i64 %_2) #7, !dbg !1879
  ret i64 %_0, !dbg !1880
}

; x86_64::registers::segmentation::SegmentSelector::new
; Function Attrs: inlinehint noredzone nounwind
define internal i16 @_ZN6x86_649registers12segmentation15SegmentSelector3new17he58bd1275050b4cfE(i16 %index, i8 %0) unnamed_addr #0 !dbg !1881 {
start:
  %index.dbg.spill = alloca i16, align 2
  %_0 = alloca i16, align 2
  %rpl = alloca i8, align 1
  store i8 %0, ptr %rpl, align 1
  store i16 %index, ptr %index.dbg.spill, align 2
  call void @llvm.dbg.declare(metadata ptr %index.dbg.spill, metadata !1887, metadata !DIExpression()), !dbg !1889
  call void @llvm.dbg.declare(metadata ptr %rpl, metadata !1888, metadata !DIExpression()), !dbg !1890
  %_4 = shl i16 %index, 3, !dbg !1891
  %_8 = load i8, ptr %rpl, align 1, !dbg !1892, !range !1424, !noundef !18
  %_9 = icmp ule i8 %_8, 3, !dbg !1892
  call void @llvm.assume(i1 %_9), !dbg !1892
  %_7 = zext i8 %_8 to i16, !dbg !1892
  %_3 = or i16 %_4, %_7, !dbg !1891
  store i16 %_3, ptr %_0, align 2, !dbg !1893
  %1 = load i16, ptr %_0, align 2, !dbg !1894, !noundef !18
  ret i16 %1, !dbg !1894
}

; <x86_64::addr::VirtAddr as core::ops::arith::Add<u64>>::add
; Function Attrs: inlinehint noredzone nounwind
define internal i64 @"_ZN75_$LT$x86_64..addr..VirtAddr$u20$as$u20$core..ops..arith..Add$LT$u64$GT$$GT$3add17hf1fc47bc0615a491E"(i64 %self, i64 %rhs) unnamed_addr #0 !dbg !1895 {
start:
  %rhs.dbg.spill = alloca i64, align 8
  %self.dbg.spill = alloca i64, align 8
  store i64 %self, ptr %self.dbg.spill, align 8
  call void @llvm.dbg.declare(metadata ptr %self.dbg.spill, metadata !1900, metadata !DIExpression()), !dbg !1902
  store i64 %rhs, ptr %rhs.dbg.spill, align 8
  call void @llvm.dbg.declare(metadata ptr %rhs.dbg.spill, metadata !1901, metadata !DIExpression()), !dbg !1903
  %0 = call { i64, i1 } @llvm.uadd.with.overflow.i64(i64 %self, i64 %rhs), !dbg !1904
  %_5.0 = extractvalue { i64, i1 } %0, 0, !dbg !1904
  %_5.1 = extractvalue { i64, i1 } %0, 1, !dbg !1904
  %1 = call i1 @llvm.expect.i1(i1 %_5.1, i1 false), !dbg !1904
  br i1 %1, label %panic, label %bb1, !dbg !1904

bb1:                                              ; preds = %start
; call x86_64::addr::VirtAddr::new
  %_0 = call i64 @_ZN6x86_644addr8VirtAddr3new17hb393dff5ef3ea270E(i64 %_5.0) #7, !dbg !1905
  ret i64 %_0, !dbg !1906

panic:                                            ; preds = %start
; call core::panicking::panic
  call void @_ZN4core9panicking5panic17h91639042aeeb9621E(ptr align 1 @str.3, i64 28, ptr align 8 @alloc_944eeb69d0ffa7d8812bf7bff1ac43a1) #11, !dbg !1904
  unreachable, !dbg !1904
}

; <x86_64::addr::VirtAddr as core::ops::arith::Add<usize>>::add
; Function Attrs: inlinehint noredzone nounwind
define internal i64 @"_ZN77_$LT$x86_64..addr..VirtAddr$u20$as$u20$core..ops..arith..Add$LT$usize$GT$$GT$3add17h96d9bccb3b0b709fE"(i64 %self, i64 %rhs) unnamed_addr #0 !dbg !1907 {
start:
  %rhs.dbg.spill = alloca i64, align 8
  %self.dbg.spill = alloca i64, align 8
  store i64 %self, ptr %self.dbg.spill, align 8
  call void @llvm.dbg.declare(metadata ptr %self.dbg.spill, metadata !1912, metadata !DIExpression()), !dbg !1914
  store i64 %rhs, ptr %rhs.dbg.spill, align 8
  call void @llvm.dbg.declare(metadata ptr %rhs.dbg.spill, metadata !1913, metadata !DIExpression()), !dbg !1915
; call <x86_64::addr::VirtAddr as core::ops::arith::Add<u64>>::add
  %_0 = call i64 @"_ZN75_$LT$x86_64..addr..VirtAddr$u20$as$u20$core..ops..arith..Add$LT$u64$GT$$GT$3add17hf1fc47bc0615a491E"(i64 %self, i64 %rhs) #7, !dbg !1916
  ret i64 %_0, !dbg !1917
}

; <spin::mutex::MutexGuard<T> as core::ops::deref::DerefMut>::deref_mut
; Function Attrs: noredzone nounwind
define align 2 ptr @"_ZN79_$LT$spin..mutex..MutexGuard$LT$T$GT$$u20$as$u20$core..ops..deref..DerefMut$GT$9deref_mut17h96eb73949c0d3d42E"(ptr align 8 %self) unnamed_addr #1 !dbg !1918 {
start:
  %self.dbg.spill = alloca ptr, align 8
  store ptr %self, ptr %self.dbg.spill, align 8
  call void @llvm.dbg.declare(metadata ptr %self.dbg.spill, metadata !1926, metadata !DIExpression()), !dbg !1927
; call <spin::mutex::spin::SpinMutexGuard<T> as core::ops::deref::DerefMut>::deref_mut
  %_0 = call align 2 ptr @"_ZN89_$LT$spin..mutex..spin..SpinMutexGuard$LT$T$GT$$u20$as$u20$core..ops..deref..DerefMut$GT$9deref_mut17h3cd223ff55fc797dE"(ptr align 8 %self) #7, !dbg !1928
  ret ptr %_0, !dbg !1929
}

; <x86_64::structures::idt::InterruptStackFrame as core::fmt::Debug>::fmt
; Function Attrs: inlinehint noredzone nounwind
define internal zeroext i1 @"_ZN81_$LT$x86_64..structures..idt..InterruptStackFrame$u20$as$u20$core..fmt..Debug$GT$3fmt17h618ca47b72459537E"(ptr align 8 %self, ptr align 8 %f) unnamed_addr #0 !dbg !1930 {
start:
  %f.dbg.spill = alloca ptr, align 8
  %self.dbg.spill = alloca ptr, align 8
  store ptr %self, ptr %self.dbg.spill, align 8
  call void @llvm.dbg.declare(metadata ptr %self.dbg.spill, metadata !1936, metadata !DIExpression()), !dbg !1938
  store ptr %f, ptr %f.dbg.spill, align 8
  call void @llvm.dbg.declare(metadata ptr %f.dbg.spill, metadata !1937, metadata !DIExpression()), !dbg !1939
; call <x86_64::structures::idt::InterruptStackFrameValue as core::fmt::Debug>::fmt
  %_0 = call zeroext i1 @"_ZN86_$LT$x86_64..structures..idt..InterruptStackFrameValue$u20$as$u20$core..fmt..Debug$GT$3fmt17h8a00628186f313c0E"(ptr align 8 %self, ptr align 8 %f) #7, !dbg !1940
  ret i1 %_0, !dbg !1941
}

; <spin::mutex::spin::SpinMutexGuard<T> as core::ops::drop::Drop>::drop
; Function Attrs: noredzone nounwind
define void @"_ZN84_$LT$spin..mutex..spin..SpinMutexGuard$LT$T$GT$$u20$as$u20$core..ops..drop..Drop$GT$4drop17h48e7efc17cd61bedE"(ptr align 8 %self) unnamed_addr #1 !dbg !1942 {
start:
  %self.dbg.spill = alloca ptr, align 8
  %_3 = alloca i8, align 1
  store ptr %self, ptr %self.dbg.spill, align 8
  call void @llvm.dbg.declare(metadata ptr %self.dbg.spill, metadata !1949, metadata !DIExpression()), !dbg !1950
  %_4 = load ptr, ptr %self, align 8, !dbg !1951, !nonnull !18, !align !1952, !noundef !18
  store i8 1, ptr %_3, align 1, !dbg !1953
  %0 = load i8, ptr %_3, align 1, !dbg !1951, !range !598, !noundef !18
; call core::sync::atomic::AtomicBool::store
  call void @_ZN4core4sync6atomic10AtomicBool5store17h91117250b1e87e30E(ptr align 1 %_4, i1 zeroext false, i8 %0) #7, !dbg !1951
  ret void, !dbg !1954
}

; <spin::mutex::spin::SpinMutexGuard<T> as core::ops::deref::DerefMut>::deref_mut
; Function Attrs: noredzone nounwind
define align 2 ptr @"_ZN89_$LT$spin..mutex..spin..SpinMutexGuard$LT$T$GT$$u20$as$u20$core..ops..deref..DerefMut$GT$9deref_mut17h3cd223ff55fc797dE"(ptr align 8 %self) unnamed_addr #1 !dbg !1955 {
start:
  %self.dbg.spill = alloca ptr, align 8
  store ptr %self, ptr %self.dbg.spill, align 8
  call void @llvm.dbg.declare(metadata ptr %self.dbg.spill, metadata !1960, metadata !DIExpression()), !dbg !1961
  %0 = getelementptr inbounds { ptr, ptr }, ptr %self, i32 0, i32 1, !dbg !1962
  %_2 = load ptr, ptr %0, align 8, !dbg !1962, !noundef !18
  ret ptr %_2, !dbg !1963
}

; cpu_interrupts::default_exception_handlers::double_fault_handler
; Function Attrs: noredzone noreturn nounwind
define x86_intrcc void @_ZN14cpu_interrupts26default_exception_handlers20double_fault_handler17h7fca296cddac5bf5E(ptr byval(%"x86_64::structures::idt::InterruptStackFrame") align 8 %isf, i64 %0) unnamed_addr #3 !dbg !1964 {
start:
  %f.dbg.spill.i.i = alloca ptr, align 8
  %x.dbg.spill.i.i = alloca ptr, align 8
  %_0.i.i = alloca { ptr, ptr }, align 8
  %x.dbg.spill.i8 = alloca ptr, align 8
  %f.dbg.spill.i = alloca ptr, align 8
  %x.dbg.spill.i7 = alloca ptr, align 8
  %_0.i = alloca { ptr, ptr }, align 8
  %x.dbg.spill.i = alloca ptr, align 8
  %width.dbg.spill.i1 = alloca { i64, i64 }, align 8
  %precision.dbg.spill.i2 = alloca { i64, i64 }, align 8
  %flags.dbg.spill.i3 = alloca i32, align 4
  %align.dbg.spill.i4 = alloca i8, align 1
  %fill.dbg.spill.i5 = alloca i32, align 4
  %position.dbg.spill.i6 = alloca i64, align 8
  %width.dbg.spill.i = alloca { i64, i64 }, align 8
  %precision.dbg.spill.i = alloca { i64, i64 }, align 8
  %flags.dbg.spill.i = alloca i32, align 4
  %align.dbg.spill.i = alloca i8, align 1
  %fill.dbg.spill.i = alloca i32, align 4
  %position.dbg.spill.i = alloca i64, align 8
  %_24 = alloca { i64, i64 }, align 8
  %_23 = alloca { i64, i64 }, align 8
  %_22 = alloca i8, align 1
  %_21 = alloca %"core::fmt::rt::Placeholder", align 8
  %_20 = alloca { i64, i64 }, align 8
  %_19 = alloca { i64, i64 }, align 8
  %_18 = alloca i8, align 1
  %_17 = alloca %"core::fmt::rt::Placeholder", align 8
  %_16 = alloca [2 x %"core::fmt::rt::Placeholder"], align 8
  %args = alloca { ptr, ptr }, align 8
  %_8 = alloca [2 x { ptr, ptr }], align 8
  %_4 = alloca %"core::fmt::Arguments<'_>", align 8
  %errno = alloca i64, align 8
  store i64 %0, ptr %errno, align 8
  call void @llvm.dbg.declare(metadata ptr %isf, metadata !1968, metadata !DIExpression()), !dbg !1979
  call void @llvm.dbg.declare(metadata ptr %errno, metadata !1969, metadata !DIExpression()), !dbg !1980
  call void @llvm.dbg.declare(metadata ptr %args, metadata !1970, metadata !DIExpression()), !dbg !1981
  store ptr %isf, ptr %args, align 8, !dbg !1982
  %1 = getelementptr inbounds { ptr, ptr }, ptr %args, i32 0, i32 1, !dbg !1982
  store ptr %errno, ptr %1, align 8, !dbg !1982
  %2 = getelementptr inbounds { ptr, ptr }, ptr %args, i32 0, i32 1, !dbg !1981
  %_27 = load ptr, ptr %2, align 8, !dbg !1981, !nonnull !18, !align !422, !noundef !18
  store ptr %_27, ptr %x.dbg.spill.i, align 8
  call void @llvm.dbg.declare(metadata ptr %x.dbg.spill.i, metadata !1983, metadata !DIExpression()), !dbg !1992
  store ptr %_27, ptr %x.dbg.spill.i7, align 8
  call void @llvm.dbg.declare(metadata ptr %x.dbg.spill.i7, metadata !1994, metadata !DIExpression()), !dbg !2004
  store ptr @"_ZN4core3fmt3num3imp52_$LT$impl$u20$core..fmt..Display$u20$for$u20$u64$GT$3fmt17h993b31f9a203eab9E", ptr %f.dbg.spill.i, align 8
  call void @llvm.dbg.declare(metadata ptr %f.dbg.spill.i, metadata !2003, metadata !DIExpression()), !dbg !2006
  store ptr %_27, ptr %_0.i, align 8, !dbg !2007
  %3 = getelementptr inbounds { ptr, ptr }, ptr %_0.i, i32 0, i32 1, !dbg !2007
  store ptr @"_ZN4core3fmt3num3imp52_$LT$impl$u20$core..fmt..Display$u20$for$u20$u64$GT$3fmt17h993b31f9a203eab9E", ptr %3, align 8, !dbg !2007
  %4 = load ptr, ptr %_0.i, align 8, !dbg !2008, !nonnull !18, !align !1952, !noundef !18
  %5 = getelementptr inbounds { ptr, ptr }, ptr %_0.i, i32 0, i32 1, !dbg !2008
  %6 = load ptr, ptr %5, align 8, !dbg !2008, !nonnull !18, !noundef !18
  %7 = insertvalue { ptr, ptr } poison, ptr %4, 0, !dbg !2008
  %8 = insertvalue { ptr, ptr } %7, ptr %6, 1, !dbg !2008
  %_0.0.i = extractvalue { ptr, ptr } %8, 0, !dbg !2009
  %_0.1.i = extractvalue { ptr, ptr } %8, 1, !dbg !2009
  %_12.0 = extractvalue { ptr, ptr } %8, 0, !dbg !1981
  %_12.1 = extractvalue { ptr, ptr } %8, 1, !dbg !1981
  %_28 = load ptr, ptr %args, align 8, !dbg !1981, !nonnull !18, !align !422, !noundef !18
  store ptr %_28, ptr %x.dbg.spill.i8, align 8
  call void @llvm.dbg.declare(metadata ptr %x.dbg.spill.i8, metadata !2010, metadata !DIExpression()), !dbg !2018
  store ptr %_28, ptr %x.dbg.spill.i.i, align 8
  call void @llvm.dbg.declare(metadata ptr %x.dbg.spill.i.i, metadata !2020, metadata !DIExpression()), !dbg !2028
  store ptr @"_ZN81_$LT$x86_64..structures..idt..InterruptStackFrame$u20$as$u20$core..fmt..Debug$GT$3fmt17h618ca47b72459537E", ptr %f.dbg.spill.i.i, align 8
  call void @llvm.dbg.declare(metadata ptr %f.dbg.spill.i.i, metadata !2027, metadata !DIExpression()), !dbg !2030
  store ptr %_28, ptr %_0.i.i, align 8, !dbg !2031
  %9 = getelementptr inbounds { ptr, ptr }, ptr %_0.i.i, i32 0, i32 1, !dbg !2031
  store ptr @"_ZN81_$LT$x86_64..structures..idt..InterruptStackFrame$u20$as$u20$core..fmt..Debug$GT$3fmt17h618ca47b72459537E", ptr %9, align 8, !dbg !2031
  %10 = load ptr, ptr %_0.i.i, align 8, !dbg !2032, !nonnull !18, !align !1952, !noundef !18
  %11 = getelementptr inbounds { ptr, ptr }, ptr %_0.i.i, i32 0, i32 1, !dbg !2032
  %12 = load ptr, ptr %11, align 8, !dbg !2032, !nonnull !18, !noundef !18
  %13 = insertvalue { ptr, ptr } poison, ptr %10, 0, !dbg !2032
  %14 = insertvalue { ptr, ptr } %13, ptr %12, 1, !dbg !2032
  %15 = insertvalue { ptr, ptr } poison, ptr %10, 0, !dbg !2033
  %16 = insertvalue { ptr, ptr } %15, ptr %12, 1, !dbg !2033
  %_13.0 = extractvalue { ptr, ptr } %16, 0, !dbg !1981
  %_13.1 = extractvalue { ptr, ptr } %16, 1, !dbg !1981
  %17 = getelementptr inbounds [2 x { ptr, ptr }], ptr %_8, i64 0, i64 0, !dbg !1981
  %18 = getelementptr inbounds { ptr, ptr }, ptr %17, i32 0, i32 0, !dbg !1981
  store ptr %_12.0, ptr %18, align 8, !dbg !1981
  %19 = getelementptr inbounds { ptr, ptr }, ptr %17, i32 0, i32 1, !dbg !1981
  store ptr %_12.1, ptr %19, align 8, !dbg !1981
  %20 = getelementptr inbounds [2 x { ptr, ptr }], ptr %_8, i64 0, i64 1, !dbg !1981
  %21 = getelementptr inbounds { ptr, ptr }, ptr %20, i32 0, i32 0, !dbg !1981
  store ptr %_13.0, ptr %21, align 8, !dbg !1981
  %22 = getelementptr inbounds { ptr, ptr }, ptr %20, i32 0, i32 1, !dbg !1981
  store ptr %_13.1, ptr %22, align 8, !dbg !1981
  store i8 3, ptr %_18, align 1, !dbg !1982
  store i64 2, ptr %_19, align 8, !dbg !1982
  store i64 2, ptr %_20, align 8, !dbg !1982
  %23 = load i8, ptr %_18, align 1, !dbg !1982, !range !1424, !noundef !18
  %24 = getelementptr inbounds { i64, i64 }, ptr %_19, i32 0, i32 0, !dbg !1982
  %25 = load i64, ptr %24, align 8, !dbg !1982, !range !2034, !noundef !18
  %26 = getelementptr inbounds { i64, i64 }, ptr %_19, i32 0, i32 1, !dbg !1982
  %27 = load i64, ptr %26, align 8, !dbg !1982
  %28 = getelementptr inbounds { i64, i64 }, ptr %_20, i32 0, i32 0, !dbg !1982
  %29 = load i64, ptr %28, align 8, !dbg !1982, !range !2034, !noundef !18
  %30 = getelementptr inbounds { i64, i64 }, ptr %_20, i32 0, i32 1, !dbg !1982
  %31 = load i64, ptr %30, align 8, !dbg !1982
  store i64 0, ptr %position.dbg.spill.i6, align 8
  call void @llvm.dbg.declare(metadata ptr %position.dbg.spill.i6, metadata !2035, metadata !DIExpression()), !dbg !2046
  store i32 32, ptr %fill.dbg.spill.i5, align 4
  call void @llvm.dbg.declare(metadata ptr %fill.dbg.spill.i5, metadata !2041, metadata !DIExpression()), !dbg !2048
  store i8 %23, ptr %align.dbg.spill.i4, align 1
  call void @llvm.dbg.declare(metadata ptr %align.dbg.spill.i4, metadata !2042, metadata !DIExpression()), !dbg !2049
  store i32 0, ptr %flags.dbg.spill.i3, align 4
  call void @llvm.dbg.declare(metadata ptr %flags.dbg.spill.i3, metadata !2043, metadata !DIExpression()), !dbg !2050
  store i64 %25, ptr %precision.dbg.spill.i2, align 8
  %32 = getelementptr inbounds { i64, i64 }, ptr %precision.dbg.spill.i2, i32 0, i32 1
  store i64 %27, ptr %32, align 8
  call void @llvm.dbg.declare(metadata ptr %precision.dbg.spill.i2, metadata !2044, metadata !DIExpression()), !dbg !2051
  store i64 %29, ptr %width.dbg.spill.i1, align 8
  %33 = getelementptr inbounds { i64, i64 }, ptr %width.dbg.spill.i1, i32 0, i32 1
  store i64 %31, ptr %33, align 8
  call void @llvm.dbg.declare(metadata ptr %width.dbg.spill.i1, metadata !2045, metadata !DIExpression()), !dbg !2052
  %34 = getelementptr inbounds %"core::fmt::rt::Placeholder", ptr %_17, i32 0, i32 2, !dbg !2053
  store i64 0, ptr %34, align 8, !dbg !2053
  %35 = getelementptr inbounds %"core::fmt::rt::Placeholder", ptr %_17, i32 0, i32 3, !dbg !2053
  store i32 32, ptr %35, align 8, !dbg !2053
  %36 = getelementptr inbounds %"core::fmt::rt::Placeholder", ptr %_17, i32 0, i32 5, !dbg !2053
  store i8 %23, ptr %36, align 8, !dbg !2053
  %37 = getelementptr inbounds %"core::fmt::rt::Placeholder", ptr %_17, i32 0, i32 4, !dbg !2053
  store i32 0, ptr %37, align 4, !dbg !2053
  store i64 %25, ptr %_17, align 8, !dbg !2053
  %38 = getelementptr inbounds { i64, i64 }, ptr %_17, i32 0, i32 1, !dbg !2053
  store i64 %27, ptr %38, align 8, !dbg !2053
  %39 = getelementptr inbounds %"core::fmt::rt::Placeholder", ptr %_17, i32 0, i32 1, !dbg !2053
  store i64 %29, ptr %39, align 8, !dbg !2053
  %40 = getelementptr inbounds { i64, i64 }, ptr %39, i32 0, i32 1, !dbg !2053
  store i64 %31, ptr %40, align 8, !dbg !2053
  store i8 3, ptr %_22, align 1, !dbg !1982
  store i64 2, ptr %_23, align 8, !dbg !1982
  store i64 2, ptr %_24, align 8, !dbg !1982
  %41 = load i8, ptr %_22, align 1, !dbg !1982, !range !1424, !noundef !18
  %42 = getelementptr inbounds { i64, i64 }, ptr %_23, i32 0, i32 0, !dbg !1982
  %43 = load i64, ptr %42, align 8, !dbg !1982, !range !2034, !noundef !18
  %44 = getelementptr inbounds { i64, i64 }, ptr %_23, i32 0, i32 1, !dbg !1982
  %45 = load i64, ptr %44, align 8, !dbg !1982
  %46 = getelementptr inbounds { i64, i64 }, ptr %_24, i32 0, i32 0, !dbg !1982
  %47 = load i64, ptr %46, align 8, !dbg !1982, !range !2034, !noundef !18
  %48 = getelementptr inbounds { i64, i64 }, ptr %_24, i32 0, i32 1, !dbg !1982
  %49 = load i64, ptr %48, align 8, !dbg !1982
  store i64 1, ptr %position.dbg.spill.i, align 8
  call void @llvm.dbg.declare(metadata ptr %position.dbg.spill.i, metadata !2035, metadata !DIExpression()), !dbg !2054
  store i32 32, ptr %fill.dbg.spill.i, align 4
  call void @llvm.dbg.declare(metadata ptr %fill.dbg.spill.i, metadata !2041, metadata !DIExpression()), !dbg !2056
  store i8 %41, ptr %align.dbg.spill.i, align 1
  call void @llvm.dbg.declare(metadata ptr %align.dbg.spill.i, metadata !2042, metadata !DIExpression()), !dbg !2057
  store i32 4, ptr %flags.dbg.spill.i, align 4
  call void @llvm.dbg.declare(metadata ptr %flags.dbg.spill.i, metadata !2043, metadata !DIExpression()), !dbg !2058
  store i64 %43, ptr %precision.dbg.spill.i, align 8
  %50 = getelementptr inbounds { i64, i64 }, ptr %precision.dbg.spill.i, i32 0, i32 1
  store i64 %45, ptr %50, align 8
  call void @llvm.dbg.declare(metadata ptr %precision.dbg.spill.i, metadata !2044, metadata !DIExpression()), !dbg !2059
  store i64 %47, ptr %width.dbg.spill.i, align 8
  %51 = getelementptr inbounds { i64, i64 }, ptr %width.dbg.spill.i, i32 0, i32 1
  store i64 %49, ptr %51, align 8
  call void @llvm.dbg.declare(metadata ptr %width.dbg.spill.i, metadata !2045, metadata !DIExpression()), !dbg !2060
  %52 = getelementptr inbounds %"core::fmt::rt::Placeholder", ptr %_21, i32 0, i32 2, !dbg !2061
  store i64 1, ptr %52, align 8, !dbg !2061
  %53 = getelementptr inbounds %"core::fmt::rt::Placeholder", ptr %_21, i32 0, i32 3, !dbg !2061
  store i32 32, ptr %53, align 8, !dbg !2061
  %54 = getelementptr inbounds %"core::fmt::rt::Placeholder", ptr %_21, i32 0, i32 5, !dbg !2061
  store i8 %41, ptr %54, align 8, !dbg !2061
  %55 = getelementptr inbounds %"core::fmt::rt::Placeholder", ptr %_21, i32 0, i32 4, !dbg !2061
  store i32 4, ptr %55, align 4, !dbg !2061
  store i64 %43, ptr %_21, align 8, !dbg !2061
  %56 = getelementptr inbounds { i64, i64 }, ptr %_21, i32 0, i32 1, !dbg !2061
  store i64 %45, ptr %56, align 8, !dbg !2061
  %57 = getelementptr inbounds %"core::fmt::rt::Placeholder", ptr %_21, i32 0, i32 1, !dbg !2061
  store i64 %47, ptr %57, align 8, !dbg !2061
  %58 = getelementptr inbounds { i64, i64 }, ptr %57, i32 0, i32 1, !dbg !2061
  store i64 %49, ptr %58, align 8, !dbg !2061
  %59 = getelementptr inbounds [2 x %"core::fmt::rt::Placeholder"], ptr %_16, i64 0, i64 0, !dbg !1982
  call void @llvm.memcpy.p0.p0.i64(ptr align 8 %59, ptr align 8 %_17, i64 56, i1 false), !dbg !1982
  %60 = getelementptr inbounds [2 x %"core::fmt::rt::Placeholder"], ptr %_16, i64 0, i64 1, !dbg !1982
  call void @llvm.memcpy.p0.p0.i64(ptr align 8 %60, ptr align 8 %_21, i64 56, i1 false), !dbg !1982
; call core::fmt::Arguments::new_v1_formatted
  call void @_ZN4core3fmt9Arguments16new_v1_formatted17hb31436f1061067ebE(ptr sret(%"core::fmt::Arguments<'_>") align 8 %_4, ptr align 8 @alloc_9add2c7ee8caa8a38c0be1be55301ba9, i64 2, ptr align 8 %_8, i64 2, ptr align 8 %_16, i64 2) #7, !dbg !1982
; call core::panicking::panic_fmt
  call void @_ZN4core9panicking9panic_fmt17h7c3b1a7d9368f16cE(ptr align 8 %_4, ptr align 8 @alloc_06895ee293335a0ae64ace386da9c1ab) #11, !dbg !1982
  unreachable, !dbg !1982
}

; cpu_interrupts::default_exception_handlers::page_fault_handler
; Function Attrs: noredzone nounwind
define x86_intrcc void @_ZN14cpu_interrupts26default_exception_handlers18page_fault_handler17h0eb7dde60652c312E(ptr byval(%"x86_64::structures::idt::InterruptStackFrame") align 8 %isf, i64 %0) unnamed_addr #1 !dbg !2062 {
start:
  %f.dbg.spill.i.i7 = alloca ptr, align 8
  %x.dbg.spill.i.i8 = alloca ptr, align 8
  %_0.i.i9 = alloca { ptr, ptr }, align 8
  %x.dbg.spill.i10 = alloca ptr, align 8
  %f.dbg.spill.i.i = alloca ptr, align 8
  %x.dbg.spill.i.i = alloca ptr, align 8
  %_0.i.i = alloca { ptr, ptr }, align 8
  %x.dbg.spill.i = alloca ptr, align 8
  %width.dbg.spill.i1 = alloca { i64, i64 }, align 8
  %precision.dbg.spill.i2 = alloca { i64, i64 }, align 8
  %flags.dbg.spill.i3 = alloca i32, align 4
  %align.dbg.spill.i4 = alloca i8, align 1
  %fill.dbg.spill.i5 = alloca i32, align 4
  %position.dbg.spill.i6 = alloca i64, align 8
  %width.dbg.spill.i = alloca { i64, i64 }, align 8
  %precision.dbg.spill.i = alloca { i64, i64 }, align 8
  %flags.dbg.spill.i = alloca i32, align 4
  %align.dbg.spill.i = alloca i8, align 1
  %fill.dbg.spill.i = alloca i32, align 4
  %position.dbg.spill.i = alloca i64, align 8
  %_23 = alloca { i64, i64 }, align 8
  %_22 = alloca { i64, i64 }, align 8
  %_21 = alloca i8, align 1
  %_20 = alloca %"core::fmt::rt::Placeholder", align 8
  %_19 = alloca { i64, i64 }, align 8
  %_18 = alloca { i64, i64 }, align 8
  %_17 = alloca i8, align 1
  %_16 = alloca %"core::fmt::rt::Placeholder", align 8
  %_15 = alloca [2 x %"core::fmt::rt::Placeholder"], align 8
  %_8 = alloca [2 x { ptr, ptr }], align 8
  %_4 = alloca %"core::fmt::Arguments<'_>", align 8
  %error_code = alloca i64, align 8
  store i64 %0, ptr %error_code, align 8
  call void @llvm.dbg.declare(metadata ptr %isf, metadata !2064, metadata !DIExpression()), !dbg !2066
  call void @llvm.dbg.declare(metadata ptr %error_code, metadata !2065, metadata !DIExpression()), !dbg !2067
  store ptr %isf, ptr %x.dbg.spill.i, align 8
  call void @llvm.dbg.declare(metadata ptr %x.dbg.spill.i, metadata !2010, metadata !DIExpression()), !dbg !2068
  store ptr %isf, ptr %x.dbg.spill.i.i, align 8
  call void @llvm.dbg.declare(metadata ptr %x.dbg.spill.i.i, metadata !2020, metadata !DIExpression()), !dbg !2070
  store ptr @"_ZN81_$LT$x86_64..structures..idt..InterruptStackFrame$u20$as$u20$core..fmt..Debug$GT$3fmt17h618ca47b72459537E", ptr %f.dbg.spill.i.i, align 8
  call void @llvm.dbg.declare(metadata ptr %f.dbg.spill.i.i, metadata !2027, metadata !DIExpression()), !dbg !2072
  store ptr %isf, ptr %_0.i.i, align 8, !dbg !2073
  %1 = getelementptr inbounds { ptr, ptr }, ptr %_0.i.i, i32 0, i32 1, !dbg !2073
  store ptr @"_ZN81_$LT$x86_64..structures..idt..InterruptStackFrame$u20$as$u20$core..fmt..Debug$GT$3fmt17h618ca47b72459537E", ptr %1, align 8, !dbg !2073
  %2 = load ptr, ptr %_0.i.i, align 8, !dbg !2074, !nonnull !18, !align !1952, !noundef !18
  %3 = getelementptr inbounds { ptr, ptr }, ptr %_0.i.i, i32 0, i32 1, !dbg !2074
  %4 = load ptr, ptr %3, align 8, !dbg !2074, !nonnull !18, !noundef !18
  %5 = insertvalue { ptr, ptr } poison, ptr %2, 0, !dbg !2074
  %6 = insertvalue { ptr, ptr } %5, ptr %4, 1, !dbg !2074
  %7 = insertvalue { ptr, ptr } poison, ptr %2, 0, !dbg !2075
  %8 = insertvalue { ptr, ptr } %7, ptr %4, 1, !dbg !2075
  %_9.0 = extractvalue { ptr, ptr } %8, 0, !dbg !2076
  %_9.1 = extractvalue { ptr, ptr } %8, 1, !dbg !2076
  store ptr %error_code, ptr %x.dbg.spill.i10, align 8
  call void @llvm.dbg.declare(metadata ptr %x.dbg.spill.i10, metadata !2077, metadata !DIExpression()), !dbg !2086
  store ptr %error_code, ptr %x.dbg.spill.i.i8, align 8
  call void @llvm.dbg.declare(metadata ptr %x.dbg.spill.i.i8, metadata !2088, metadata !DIExpression()), !dbg !2098
  store ptr @"_ZN80_$LT$x86_64..structures..idt..PageFaultErrorCode$u20$as$u20$core..fmt..Debug$GT$3fmt17h84e36ff809eba3f8E", ptr %f.dbg.spill.i.i7, align 8
  call void @llvm.dbg.declare(metadata ptr %f.dbg.spill.i.i7, metadata !2097, metadata !DIExpression()), !dbg !2100
  store ptr %error_code, ptr %_0.i.i9, align 8, !dbg !2101
  %9 = getelementptr inbounds { ptr, ptr }, ptr %_0.i.i9, i32 0, i32 1, !dbg !2101
  store ptr @"_ZN80_$LT$x86_64..structures..idt..PageFaultErrorCode$u20$as$u20$core..fmt..Debug$GT$3fmt17h84e36ff809eba3f8E", ptr %9, align 8, !dbg !2101
  %10 = load ptr, ptr %_0.i.i9, align 8, !dbg !2102, !nonnull !18, !align !1952, !noundef !18
  %11 = getelementptr inbounds { ptr, ptr }, ptr %_0.i.i9, i32 0, i32 1, !dbg !2102
  %12 = load ptr, ptr %11, align 8, !dbg !2102, !nonnull !18, !noundef !18
  %13 = insertvalue { ptr, ptr } poison, ptr %10, 0, !dbg !2102
  %14 = insertvalue { ptr, ptr } %13, ptr %12, 1, !dbg !2102
  %15 = insertvalue { ptr, ptr } poison, ptr %10, 0, !dbg !2103
  %16 = insertvalue { ptr, ptr } %15, ptr %12, 1, !dbg !2103
  %_11.0 = extractvalue { ptr, ptr } %16, 0, !dbg !2076
  %_11.1 = extractvalue { ptr, ptr } %16, 1, !dbg !2076
  %17 = getelementptr inbounds [2 x { ptr, ptr }], ptr %_8, i64 0, i64 0, !dbg !2076
  %18 = getelementptr inbounds { ptr, ptr }, ptr %17, i32 0, i32 0, !dbg !2076
  store ptr %_9.0, ptr %18, align 8, !dbg !2076
  %19 = getelementptr inbounds { ptr, ptr }, ptr %17, i32 0, i32 1, !dbg !2076
  store ptr %_9.1, ptr %19, align 8, !dbg !2076
  %20 = getelementptr inbounds [2 x { ptr, ptr }], ptr %_8, i64 0, i64 1, !dbg !2076
  %21 = getelementptr inbounds { ptr, ptr }, ptr %20, i32 0, i32 0, !dbg !2076
  store ptr %_11.0, ptr %21, align 8, !dbg !2076
  %22 = getelementptr inbounds { ptr, ptr }, ptr %20, i32 0, i32 1, !dbg !2076
  store ptr %_11.1, ptr %22, align 8, !dbg !2076
  store i8 3, ptr %_17, align 1, !dbg !2076
  store i64 2, ptr %_18, align 8, !dbg !2076
  store i64 2, ptr %_19, align 8, !dbg !2076
  %23 = load i8, ptr %_17, align 1, !dbg !2076, !range !1424, !noundef !18
  %24 = getelementptr inbounds { i64, i64 }, ptr %_18, i32 0, i32 0, !dbg !2076
  %25 = load i64, ptr %24, align 8, !dbg !2076, !range !2034, !noundef !18
  %26 = getelementptr inbounds { i64, i64 }, ptr %_18, i32 0, i32 1, !dbg !2076
  %27 = load i64, ptr %26, align 8, !dbg !2076
  %28 = getelementptr inbounds { i64, i64 }, ptr %_19, i32 0, i32 0, !dbg !2076
  %29 = load i64, ptr %28, align 8, !dbg !2076, !range !2034, !noundef !18
  %30 = getelementptr inbounds { i64, i64 }, ptr %_19, i32 0, i32 1, !dbg !2076
  %31 = load i64, ptr %30, align 8, !dbg !2076
  store i64 0, ptr %position.dbg.spill.i6, align 8
  call void @llvm.dbg.declare(metadata ptr %position.dbg.spill.i6, metadata !2035, metadata !DIExpression()), !dbg !2104
  store i32 32, ptr %fill.dbg.spill.i5, align 4
  call void @llvm.dbg.declare(metadata ptr %fill.dbg.spill.i5, metadata !2041, metadata !DIExpression()), !dbg !2106
  store i8 %23, ptr %align.dbg.spill.i4, align 1
  call void @llvm.dbg.declare(metadata ptr %align.dbg.spill.i4, metadata !2042, metadata !DIExpression()), !dbg !2107
  store i32 4, ptr %flags.dbg.spill.i3, align 4
  call void @llvm.dbg.declare(metadata ptr %flags.dbg.spill.i3, metadata !2043, metadata !DIExpression()), !dbg !2108
  store i64 %25, ptr %precision.dbg.spill.i2, align 8
  %32 = getelementptr inbounds { i64, i64 }, ptr %precision.dbg.spill.i2, i32 0, i32 1
  store i64 %27, ptr %32, align 8
  call void @llvm.dbg.declare(metadata ptr %precision.dbg.spill.i2, metadata !2044, metadata !DIExpression()), !dbg !2109
  store i64 %29, ptr %width.dbg.spill.i1, align 8
  %33 = getelementptr inbounds { i64, i64 }, ptr %width.dbg.spill.i1, i32 0, i32 1
  store i64 %31, ptr %33, align 8
  call void @llvm.dbg.declare(metadata ptr %width.dbg.spill.i1, metadata !2045, metadata !DIExpression()), !dbg !2110
  %34 = getelementptr inbounds %"core::fmt::rt::Placeholder", ptr %_16, i32 0, i32 2, !dbg !2111
  store i64 0, ptr %34, align 8, !dbg !2111
  %35 = getelementptr inbounds %"core::fmt::rt::Placeholder", ptr %_16, i32 0, i32 3, !dbg !2111
  store i32 32, ptr %35, align 8, !dbg !2111
  %36 = getelementptr inbounds %"core::fmt::rt::Placeholder", ptr %_16, i32 0, i32 5, !dbg !2111
  store i8 %23, ptr %36, align 8, !dbg !2111
  %37 = getelementptr inbounds %"core::fmt::rt::Placeholder", ptr %_16, i32 0, i32 4, !dbg !2111
  store i32 4, ptr %37, align 4, !dbg !2111
  store i64 %25, ptr %_16, align 8, !dbg !2111
  %38 = getelementptr inbounds { i64, i64 }, ptr %_16, i32 0, i32 1, !dbg !2111
  store i64 %27, ptr %38, align 8, !dbg !2111
  %39 = getelementptr inbounds %"core::fmt::rt::Placeholder", ptr %_16, i32 0, i32 1, !dbg !2111
  store i64 %29, ptr %39, align 8, !dbg !2111
  %40 = getelementptr inbounds { i64, i64 }, ptr %39, i32 0, i32 1, !dbg !2111
  store i64 %31, ptr %40, align 8, !dbg !2111
  store i8 3, ptr %_21, align 1, !dbg !2076
  store i64 2, ptr %_22, align 8, !dbg !2076
  store i64 2, ptr %_23, align 8, !dbg !2076
  %41 = load i8, ptr %_21, align 1, !dbg !2076, !range !1424, !noundef !18
  %42 = getelementptr inbounds { i64, i64 }, ptr %_22, i32 0, i32 0, !dbg !2076
  %43 = load i64, ptr %42, align 8, !dbg !2076, !range !2034, !noundef !18
  %44 = getelementptr inbounds { i64, i64 }, ptr %_22, i32 0, i32 1, !dbg !2076
  %45 = load i64, ptr %44, align 8, !dbg !2076
  %46 = getelementptr inbounds { i64, i64 }, ptr %_23, i32 0, i32 0, !dbg !2076
  %47 = load i64, ptr %46, align 8, !dbg !2076, !range !2034, !noundef !18
  %48 = getelementptr inbounds { i64, i64 }, ptr %_23, i32 0, i32 1, !dbg !2076
  %49 = load i64, ptr %48, align 8, !dbg !2076
  store i64 1, ptr %position.dbg.spill.i, align 8
  call void @llvm.dbg.declare(metadata ptr %position.dbg.spill.i, metadata !2035, metadata !DIExpression()), !dbg !2112
  store i32 32, ptr %fill.dbg.spill.i, align 4
  call void @llvm.dbg.declare(metadata ptr %fill.dbg.spill.i, metadata !2041, metadata !DIExpression()), !dbg !2114
  store i8 %41, ptr %align.dbg.spill.i, align 1
  call void @llvm.dbg.declare(metadata ptr %align.dbg.spill.i, metadata !2042, metadata !DIExpression()), !dbg !2115
  store i32 4, ptr %flags.dbg.spill.i, align 4
  call void @llvm.dbg.declare(metadata ptr %flags.dbg.spill.i, metadata !2043, metadata !DIExpression()), !dbg !2116
  store i64 %43, ptr %precision.dbg.spill.i, align 8
