; ModuleID = '4xhw6440wxywhhsy'
source_filename = "4xhw6440wxywhhsy"
target datalayout = "e-m:e-i64:64-f80:128-n8:16:32:64-S128"
target triple = "x86_64-obuasi-unknown-none"

%"core::fmt::Arguments<'_>" = type { { ptr, i64 }, { ptr, i64 }, { ptr, i64 } }
%"core::fmt::UnsafeArg" = type { {} }
%"global_descriptor_table::GlobalDescriptorTableSetup" = type { %"x86_64::structures::gdt::GlobalDescriptorTable", { i16, i16 }, [2 x i16] }
%"x86_64::structures::gdt::GlobalDescriptorTable" = type { [8 x i64], i64 }
%"x86_64::structures::gdt::Descriptor" = type { i64, [2 x i64] }
%"x86_64::structures::tss::TaskStateSegment" = type <{ i32, [3 x i64], i64, [7 x i64], i64, i16, i16 }>
%"core::option::Option<global_descriptor_table::GlobalDescriptorTableSetup>::Some" = type { [1 x i64], %"global_descriptor_table::GlobalDescriptorTableSetup" }
%"core::option::Option<global_descriptor_table::GlobalDescriptorTableSetup>" = type { i64, [10 x i64] }
%"spin::once::Once<global_descriptor_table::GlobalDescriptorTableSetup>" = type { %"core::sync::atomic::AtomicUsize", %"core::cell::UnsafeCell<core::option::Option<global_descriptor_table::GlobalDescriptorTableSetup>>" }
%"core::sync::atomic::AtomicUsize" = type { i64 }
%"core::cell::UnsafeCell<core::option::Option<global_descriptor_table::GlobalDescriptorTableSetup>>" = type { %"core::option::Option<global_descriptor_table::GlobalDescriptorTableSetup>" }
%"x86_64::structures::gdt::Descriptor::SystemSegment" = type { [1 x i64], i64, i64 }
%"x86_64::structures::gdt::Descriptor::UserSegment" = type { [1 x i64], i64 }
%"x86_64::structures::DescriptorTablePointer" = type <{ i16, i64 }>
%"x86_64::structures::idt::Entry<extern \22x86-interrupt\22 fn(x86_64::structures::idt::InterruptStackFrame, u64) -> !>" = type { i16, i16, i16, i16, i32, i32, %"core::marker::PhantomData<extern \22x86-interrupt\22 fn(x86_64::structures::idt::InterruptStackFrame, u64) -> !>" }
%"core::marker::PhantomData<extern \22x86-interrupt\22 fn(x86_64::structures::idt::InterruptStackFrame, u64) -> !>" = type {}
%"x86_64::structures::idt::Entry<extern \22x86-interrupt\22 fn(x86_64::structures::idt::InterruptStackFrame)>" = type { i16, i16, i16, i16, i32, i32, %"core::marker::PhantomData<extern \22x86-interrupt\22 fn(x86_64::structures::idt::InterruptStackFrame)>" }
%"core::marker::PhantomData<extern \22x86-interrupt\22 fn(x86_64::structures::idt::InterruptStackFrame)>" = type {}
%"x86_64::structures::idt::Entry<extern \22x86-interrupt\22 fn(x86_64::structures::idt::InterruptStackFrame) -> !>" = type { i16, i16, i16, i16, i32, i32, %"core::marker::PhantomData<extern \22x86-interrupt\22 fn(x86_64::structures::idt::InterruptStackFrame) -> !>" }
%"core::marker::PhantomData<extern \22x86-interrupt\22 fn(x86_64::structures::idt::InterruptStackFrame) -> !>" = type {}
%"x86_64::structures::idt::Entry<extern \22x86-interrupt\22 fn(x86_64::structures::idt::InterruptStackFrame, u64)>" = type { i16, i16, i16, i16, i32, i32, %"core::marker::PhantomData<extern \22x86-interrupt\22 fn(x86_64::structures::idt::InterruptStackFrame, u64)>" }
%"core::marker::PhantomData<extern \22x86-interrupt\22 fn(x86_64::structures::idt::InterruptStackFrame, u64)>" = type {}
%"x86_64::structures::idt::Entry<extern \22x86-interrupt\22 fn(x86_64::structures::idt::InterruptStackFrame, x86_64::structures::idt::PageFaultErrorCode)>" = type { i16, i16, i16, i16, i32, i32, %"core::marker::PhantomData<extern \22x86-interrupt\22 fn(x86_64::structures::idt::InterruptStackFrame, x86_64::structures::idt::PageFaultErrorCode)>" }
%"core::marker::PhantomData<extern \22x86-interrupt\22 fn(x86_64::structures::idt::InterruptStackFrame, x86_64::structures::idt::PageFaultErrorCode)>" = type {}
%"x86_64::structures::idt::InterruptDescriptorTable" = type { %"x86_64::structures::idt::Entry<extern \22x86-interrupt\22 fn(x86_64::structures::idt::InterruptStackFrame)>", %"x86_64::structures::idt::Entry<extern \22x86-interrupt\22 fn(x86_64::structures::idt::InterruptStackFrame)>", %"x86_64::structures::idt::Entry<extern \22x86-interrupt\22 fn(x86_64::structures::idt::InterruptStackFrame)>", %"x86_64::structures::idt::Entry<extern \22x86-interrupt\22 fn(x86_64::structures::idt::InterruptStackFrame)>", %"x86_64::structures::idt::Entry<extern \22x86-interrupt\22 fn(x86_64::structures::idt::InterruptStackFrame)>", %"x86_64::structures::idt::Entry<extern \22x86-interrupt\22 fn(x86_64::structures::idt::InterruptStackFrame)>", %"x86_64::structures::idt::Entry<extern \22x86-interrupt\22 fn(x86_64::structures::idt::InterruptStackFrame)>", %"x86_64::structures::idt::Entry<extern \22x86-interrupt\22 fn(x86_64::structures::idt::InterruptStackFrame)>", %"x86_64::structures::idt::Entry<extern \22x86-interrupt\22 fn(x86_64::structures::idt::InterruptStackFrame, u64) -> !>", %"x86_64::structures::idt::Entry<extern \22x86-interrupt\22 fn(x86_64::structures::idt::InterruptStackFrame)>", %"x86_64::structures::idt::Entry<extern \22x86-interrupt\22 fn(x86_64::structures::idt::InterruptStackFrame, u64)>", %"x86_64::structures::idt::Entry<extern \22x86-interrupt\22 fn(x86_64::structures::idt::InterruptStackFrame, u64)>", %"x86_64::structures::idt::Entry<extern \22x86-interrupt\22 fn(x86_64::structures::idt::InterruptStackFrame, u64)>", %"x86_64::structures::idt::Entry<extern \22x86-interrupt\22 fn(x86_64::structures::idt::InterruptStackFrame, u64)>", %"x86_64::structures::idt::Entry<extern \22x86-interrupt\22 fn(x86_64::structures::idt::InterruptStackFrame, x86_64::structures::idt::PageFaultErrorCode)>", %"x86_64::structures::idt::Entry<extern \22x86-interrupt\22 fn(x86_64::structures::idt::InterruptStackFrame)>", %"x86_64::structures::idt::Entry<extern \22x86-interrupt\22 fn(x86_64::structures::idt::InterruptStackFrame)>", %"x86_64::structures::idt::Entry<extern \22x86-interrupt\22 fn(x86_64::structures::idt::InterruptStackFrame, u64)>", %"x86_64::structures::idt::Entry<extern \22x86-interrupt\22 fn(x86_64::structures::idt::InterruptStackFrame) -> !>", %"x86_64::structures::idt::Entry<extern \22x86-interrupt\22 fn(x86_64::structures::idt::InterruptStackFrame)>", %"x86_64::structures::idt::Entry<extern \22x86-interrupt\22 fn(x86_64::structures::idt::InterruptStackFrame)>", [8 x %"x86_64::structures::idt::Entry<extern \22x86-interrupt\22 fn(x86_64::structures::idt::InterruptStackFrame)>"], %"x86_64::structures::idt::Entry<extern \22x86-interrupt\22 fn(x86_64::structures::idt::InterruptStackFrame, u64)>", %"x86_64::structures::idt::Entry<extern \22x86-interrupt\22 fn(x86_64::structures::idt::InterruptStackFrame, u64)>", %"x86_64::structures::idt::Entry<extern \22x86-interrupt\22 fn(x86_64::structures::idt::InterruptStackFrame)>", [224 x %"x86_64::structures::idt::Entry<extern \22x86-interrupt\22 fn(x86_64::structures::idt::InterruptStackFrame)>"] }
%"x86_64::structures::idt::InterruptStackFrame" = type { %"x86_64::structures::idt::InterruptStackFrameValue" }
%"x86_64::structures::idt::InterruptStackFrameValue" = type { i64, i64, i64, i64, i64 }
%"core::fmt::rt::v1::FormatSpec" = type { { i64, i64 }, { i64, i64 }, i32, i32, i8, [7 x i8] }
%"core::fmt::rt::v1::Argument" = type { %"core::fmt::rt::v1::FormatSpec", i64 }
%"interrupt_descriptor_table::SafeInterruptDescriptorTable" = type { %"x86_64::structures::idt::InterruptDescriptorTable", i8, i8, i8, [13 x i8] }
%"core::result::Result<bool, &str>" = type { ptr, [1 x i64] }
%"core::result::Result<bool, &str>::Ok" = type { [8 x i8], i8 }

@alloc_6923360c3161738641b3989c6181ce08 = private unnamed_addr constant <{ [40 x i8] }> <{ [40 x i8] c"assertion failed: bit < Self::BIT_LENGTH" }>, align 1
@alloc_89294a974a2788f895cf677d5bd697c4 = private unnamed_addr constant <{ [91 x i8] }> <{ [91 x i8] c"/Users/yaw/.cargo/registry/src/index.crates.io-6f17d22bba15001f/bit_field-0.10.1/src/lib.rs" }>, align 1
@alloc_b01c63d7eb55c84e9d45ae152316a96d = private unnamed_addr constant <{ ptr, [16 x i8] }> <{ ptr @alloc_89294a974a2788f895cf677d5bd697c4, [16 x i8] c"[\00\00\00\00\00\00\00\11\01\00\00\01\00\00\00" }>, align 8
@str.0 = internal constant [35 x i8] c"attempt to shift left with overflow"
@alloc_43d3c3e34f8fc6589b4da1b1abdd7b57 = private unnamed_addr constant <{ [48 x i8] }> <{ [48 x i8] c"assertion failed: range.start < Self::BIT_LENGTH" }>, align 1
@alloc_d3619c0864e1cd3a4478ebd6749a56b0 = private unnamed_addr constant <{ [47 x i8] }> <{ [47 x i8] c"assertion failed: range.end <= Self::BIT_LENGTH" }>, align 1
@alloc_fa3040d11952b12d3c67c30be76bc6a8 = private unnamed_addr constant <{ [41 x i8] }> <{ [41 x i8] c"assertion failed: range.start < range.end" }>, align 1
@str.1 = internal constant [33 x i8] c"attempt to subtract with overflow"
@str.2 = internal constant [36 x i8] c"attempt to shift right with overflow"
@alloc_8500726b2f23ea792acf9a1d33d50d56 = private unnamed_addr constant <{ [33 x i8] }> <{ [33 x i8] c"value does not fit into bit range" }>, align 1
@alloc_91c7fa63c3cfeaa3c795652d5cf060e4 = private unnamed_addr constant <{ [12 x i8] }> <{ [12 x i8] c"invalid args" }>, align 1
@alloc_560206a49c61adca6f3f0639a12632eb = private unnamed_addr constant <{ ptr, [8 x i8] }> <{ ptr @alloc_91c7fa63c3cfeaa3c795652d5cf060e4, [8 x i8] c"\0C\00\00\00\00\00\00\00" }>, align 8
@alloc_c2ea93c90919bb7b1e482f917e413fa1 = private unnamed_addr constant <{ [107 x i8] }> <{ [107 x i8] c"/Users/yaw/.rustup/toolchains/nightly-aarch64-apple-darwin/lib/rustlib/src/rust/library/core/src/fmt/mod.rs" }>, align 1
@alloc_3565e73f34d7302748197a3f0bc50374 = private unnamed_addr constant <{ ptr, [16 x i8] }> <{ ptr @alloc_c2ea93c90919bb7b1e482f917e413fa1, [16 x i8] c"k\00\00\00\00\00\00\00\91\01\00\00\0D\00\00\00" }>, align 8
@alloc_513570631223a12912d85da2bec3b15a = private unnamed_addr constant <{}> zeroinitializer, align 8
@alloc_1eb6f53a157dccb32488e066ad957e6d = private unnamed_addr constant <{ [82 x i8] }> <{ [82 x i8] c"unsafe precondition(s) violated: hint::unreachable_unchecked must never be reached" }>, align 1
@alloc_7adef5546d83b439c7829602020737c6 = private unnamed_addr constant <{ [61 x i8] }> <{ [61 x i8] c"there is no such thing as an acquire-release failure ordering" }>, align 1
@alloc_53963eedc63e9e4352c653ec571ba638 = private unnamed_addr constant <{ ptr, [8 x i8] }> <{ ptr @alloc_7adef5546d83b439c7829602020737c6, [8 x i8] c"=\00\00\00\00\00\00\00" }>, align 8
@alloc_758e3eafddd83bea2c9171c5517da1cc = private unnamed_addr constant <{ [111 x i8] }> <{ [111 x i8] c"/Users/yaw/.rustup/toolchains/nightly-aarch64-apple-darwin/lib/rustlib/src/rust/library/core/src/sync/atomic.rs" }>, align 1
@alloc_10b6bb6b97ab107accea837fec1d394c = private unnamed_addr constant <{ ptr, [16 x i8] }> <{ ptr @alloc_758e3eafddd83bea2c9171c5517da1cc, [16 x i8] c"o\00\00\00\00\00\00\00\AE\0C\00\00\1C\00\00\00" }>, align 8
@alloc_5a43f8d94dd4505c1dba43832ce73af8 = private unnamed_addr constant <{ [52 x i8] }> <{ [52 x i8] c"there is no such thing as a release failure ordering" }>, align 1
@alloc_406c3ccfb949c60617508c1453ca62ba = private unnamed_addr constant <{ ptr, [8 x i8] }> <{ ptr @alloc_5a43f8d94dd4505c1dba43832ce73af8, [8 x i8] c"4\00\00\00\00\00\00\00" }>, align 8
@alloc_583a85a376e0d8f51228e1277b5fd2ec = private unnamed_addr constant <{ ptr, [16 x i8] }> <{ ptr @alloc_758e3eafddd83bea2c9171c5517da1cc, [16 x i8] c"o\00\00\00\00\00\00\00\AF\0C\00\00\1D\00\00\00" }>, align 8
@alloc_3c12d47b9e3f0c15a9b67fda6ea229d3 = private unnamed_addr constant <{ ptr, [16 x i8] }> <{ ptr @alloc_758e3eafddd83bea2c9171c5517da1cc, [16 x i8] c"o\00\00\00\00\00\00\00\D1\0C\00\00\1C\00\00\00" }>, align 8
@alloc_4cf9f99451528b560554700e72654694 = private unnamed_addr constant <{ ptr, [16 x i8] }> <{ ptr @alloc_758e3eafddd83bea2c9171c5517da1cc, [16 x i8] c"o\00\00\00\00\00\00\00\D2\0C\00\00\1D\00\00\00" }>, align 8
@alloc_b41ce9db6ff9e09c515cee5b4d05db5e = private unnamed_addr constant <{ [17 x i8] }> <{ [17 x i8] c"Once has panicked" }>, align 1
@alloc_8af331a5985192ea52a41e19634f2db2 = private unnamed_addr constant <{ [86 x i8] }> <{ [86 x i8] c"/Users/yaw/.cargo/registry/src/index.crates.io-6f17d22bba15001f/spin-0.5.2/src/once.rs" }>, align 1
@alloc_14083d05c803f84018d4aa0469014f28 = private unnamed_addr constant <{ ptr, [16 x i8] }> <{ ptr @alloc_8af331a5985192ea52a41e19634f2db2, [16 x i8] c"V\00\00\00\00\00\00\00\80\00\00\00\1D\00\00\00" }>, align 8
@alloc_a500d906b91607583596fa15e63c2ada = private unnamed_addr constant <{ [40 x i8] }> <{ [40 x i8] c"internal error: entered unreachable code" }>, align 1
@alloc_f6d48a4961f7d5070867936e66a7484e = private unnamed_addr constant <{ ptr, [16 x i8] }> <{ ptr @alloc_8af331a5985192ea52a41e19634f2db2, [16 x i8] c"V\00\00\00\00\00\00\00{\00\00\00\1F\00\00\00" }>, align 8
@alloc_a2052f5a732c6560387218d7aa6b4ca1 = private unnamed_addr constant <{ [8 x i8] }> <{ [8 x i8] c"\00\00\00\00\00\80\00\00" }>, align 8
@alloc_3b64751e5ad482a062ea0dcea91079df = private unnamed_addr constant <{ [100 x i8] }> <{ [100 x i8] c"/Users/yaw/.cargo/registry/src/index.crates.io-6f17d22bba15001f/x86_64-0.14.10/src/structures/gdt.rs" }>, align 1
@alloc_ec69bacdb8f9913e674a396a04736608 = private unnamed_addr constant <{ ptr, [16 x i8] }> <{ ptr @alloc_3b64751e5ad482a062ea0dcea91079df, [16 x i8] c"d\00\00\00\00\00\00\00N\01\00\00\1D\00\00\00" }>, align 8
@alloc_047faabbe6ef5a15898762b6e3e08ed6 = private unnamed_addr constant <{ [8 x i8] }> <{ [8 x i8] c"\FF\FF\00\00\00\9B\AF\00" }>, align 8
@alloc_1d25a64ff8389a50ec60a5846bd5ac06 = private unnamed_addr constant <{ ptr, [16 x i8] }> <{ ptr @alloc_3b64751e5ad482a062ea0dcea91079df, [16 x i8] c"d\00\00\00\00\00\00\00\A9\00\00\00\09\00\00\00" }>, align 8
@alloc_b619405bbdbd5bb59adccd45e95ba975 = private unnamed_addr constant <{ ptr, [16 x i8] }> <{ ptr @alloc_3b64751e5ad482a062ea0dcea91079df, [16 x i8] c"d\00\00\00\00\00\00\00\AA\00\00\00\09\00\00\00" }>, align 8
@str.3 = internal constant [28 x i8] c"attempt to add with overflow"
@alloc_71a7efa2492bb21c9f54a8edb2880146 = private unnamed_addr constant <{ [52 x i8] }> <{ [52 x i8] c"GDT requires two free spaces to hold a SystemSegment" }>, align 1
@alloc_8ff527dbe34701b5b9410be7cb3ed4d8 = private unnamed_addr constant <{ ptr, [16 x i8] }> <{ ptr @alloc_3b64751e5ad482a062ea0dcea91079df, [16 x i8] c"d\00\00\00\00\00\00\00o\00\00\00\15\00\00\00" }>, align 8
@alloc_e755bc5cd467965f69656078209bbfdc = private unnamed_addr constant <{ [8 x i8] }> <{ [8 x i8] c"GDT full" }>, align 1
@alloc_fafbe7c5fc2c26dd8225a406ebeeaa78 = private unnamed_addr constant <{ ptr, [16 x i8] }> <{ ptr @alloc_3b64751e5ad482a062ea0dcea91079df, [16 x i8] c"d\00\00\00\00\00\00\00i\00\00\00\15\00\00\00" }>, align 8
@alloc_96fe64cab8dd4680071ecfdb397425fd = private unnamed_addr constant <{ [100 x i8] }> <{ [100 x i8] c"/Users/yaw/.cargo/registry/src/index.crates.io-6f17d22bba15001f/x86_64-0.14.10/src/structures/idt.rs" }>, align 1
@alloc_684261e5bc5404f7dd08c17341b2175a = private unnamed_addr constant <{ ptr, [16 x i8] }> <{ ptr @alloc_96fe64cab8dd4680071ecfdb397425fd, [16 x i8] c"d\00\00\00\00\00\00\00E\03\00\00\1F\00\00\00" }>, align 8
@alloc_3b30f3c2fe1935017d2714aa9952ea95 = private unnamed_addr constant <{ [74 x i8] }> <{ [74 x i8] c"address passed to VirtAddr::new must not contain any data in bits 48 to 64" }>, align 1
@alloc_25db54aacf10f85b32a6b265696ce69a = private unnamed_addr constant <{ [90 x i8] }> <{ [90 x i8] c"/Users/yaw/.cargo/registry/src/index.crates.io-6f17d22bba15001f/x86_64-0.14.10/src/addr.rs" }>, align 1
@alloc_6918487e00f1778b5f784ee4db0636b1 = private unnamed_addr constant <{ ptr, [16 x i8] }> <{ ptr @alloc_25db54aacf10f85b32a6b265696ce69a, [16 x i8] c"Z\00\00\00\00\00\00\00H\00\00\00\1D\00\00\00" }>, align 8
@alloc_3d3eb5c560ed88996f412367f383dbd0 = private unnamed_addr constant <{ ptr, [16 x i8] }> <{ ptr @alloc_25db54aacf10f85b32a6b265696ce69a, [16 x i8] c"Z\00\00\00\00\00\00\00\16\01\00\00\17\00\00\00" }>, align 8
@alloc_5979337f995b50b3b7ad2acf28efea10 = private unnamed_addr constant <{ [30 x i8] }> <{ [30 x i8] c"DOUBLE FAULT CAPTURED (errno: " }>, align 1
@alloc_85db505b151585473f2202053f9d9670 = private unnamed_addr constant <{ [6 x i8] }> <{ [6 x i8] c") -> \0A" }>, align 1
@alloc_65caeecf29683d9b760ab0d90c895cd5 = private unnamed_addr constant <{ ptr, [8 x i8], ptr, [8 x i8] }> <{ ptr @alloc_5979337f995b50b3b7ad2acf28efea10, [8 x i8] c"\1E\00\00\00\00\00\00\00", ptr @alloc_85db505b151585473f2202053f9d9670, [8 x i8] c"\06\00\00\00\00\00\00\00" }>, align 8
@alloc_c5fb0d085408a09540afc45a435767c8 = private unnamed_addr constant <{ [48 x i8] }> <{ [48 x i8] c"cpu_interrupts/src/default_exception_handlers.rs" }>, align 1
@alloc_fe060095018f30af291243dbbedbd0a8 = private unnamed_addr constant <{ ptr, [16 x i8] }> <{ ptr @alloc_c5fb0d085408a09540afc45a435767c8, [16 x i8] c"0\00\00\00\00\00\00\00\07\00\00\00\05\00\00\00" }>, align 8
@alloc_cdf29e36748ce97224f9a0c64e37a3c9 = private unnamed_addr constant <{ [37 x i8] }> <{ [37 x i8] c"some or all required handlers not set" }>, align 1
@_ZN14cpu_interrupts33programmable_interface_controller12CHAINED_PICS17h66c30a221ba57870E = global <{ [1 x i8], [1 x i8], [5 x i8], [1 x i8], [5 x i8], [1 x i8] }> <{ [1 x i8] zeroinitializer, [1 x i8] undef, [5 x i8] c" \00!\00 ", [1 x i8] undef, [5 x i8] c"\A0\00\A1\00(", [1 x i8] undef }>, align 2, !dbg !0
@alloc_75ef2734e4964c1dbd279e33654e660b = private unnamed_addr constant <{ [55 x i8] }> <{ [55 x i8] c"cpu_interrupts/src/programmable_interface_controller.rs" }>, align 1
@alloc_55aff9cb6f5a47319b31e59e4245d58b = private unnamed_addr constant <{ ptr, [16 x i8] }> <{ ptr @alloc_75ef2734e4964c1dbd279e33654e660b, [16 x i8] c"7\00\00\00\00\00\00\00\12\00\00\00&\00\00\00" }>, align 8
@_ZN14cpu_interrupts23global_descriptor_table23GLOBAL_DESCRIPTOR_TABLE17h94906d1d65cd9ab0E = constant <{}> zeroinitializer, align 1, !dbg !77
@"_ZN108_$LT$cpu_interrupts..global_descriptor_table..GLOBAL_DESCRIPTOR_TABLE$u20$as$u20$core..ops..deref..Deref$GT$5deref23__static_ref_initialize18TASK_STATE_SEGMENT17h1ea3db7bdfbf0ddcE" = internal global <{ [104 x i8] }> <{ [104 x i8] c"\00\00\00\00\00\00\00\00\00\00\00\00\00\00\00\00\00\00\00\00\00\00\00\00\00\00\00\00\00\00\00\00\00\00\00\00\00\00\00\00\00\00\00\00\00\00\00\00\00\00\00\00\00\00\00\00\00\00\00\00\00\00\00\00\00\00\00\00\00\00\00\00\00\00\00\00\00\00\00\00\00\00\00\00\00\00\00\00\00\00\00\00\00\00\00\00\00\00\00\00\00\00h\00" }>, align 4, !dbg !84
@"_ZN108_$LT$cpu_interrupts..global_descriptor_table..GLOBAL_DESCRIPTOR_TABLE$u20$as$u20$core..ops..deref..Deref$GT$5deref23__static_ref_initialize5STACK17hdc0a01dd21764c33E" = internal global <{ [20480 x i8] }> zeroinitializer, align 1, !dbg !113
@"_ZN108_$LT$cpu_interrupts..global_descriptor_table..GLOBAL_DESCRIPTOR_TABLE$u20$as$u20$core..ops..deref..Deref$GT$5deref11__stability4LAZY17h6fc25aedcad6eb96E" = internal global <{ [16 x i8], [80 x i8] }> <{ [16 x i8] zeroinitializer, [80 x i8] undef }>, align 8, !dbg !118
@alloc_8dcaadb3d35c5aed4dce7044a3c0e804 = private unnamed_addr constant <{ [28 x i8] }> <{ [28 x i8] c"SafeInterruptDescriptorTable" }>, align 1
@alloc_31b9803b92f4133f50a8f77a91f280cf = private unnamed_addr constant <{ [5 x i8] }> <{ [5 x i8] c"table" }>, align 1
@vtable.4 = private constant <{ ptr, [16 x i8], ptr }> <{ ptr @"_ZN4core3ptr70drop_in_place$LT$x86_64..structures..idt..InterruptDescriptorTable$GT$17h36078f2de25d25ecE", [16 x i8] c"\00\10\00\00\00\00\00\00\10\00\00\00\00\00\00\00", ptr @"_ZN86_$LT$x86_64..structures..idt..InterruptDescriptorTable$u20$as$u20$core..fmt..Debug$GT$3fmt17h9189dc1dbc1bdf8eE" }>, align 8, !dbg !181
@alloc_73f8d4e177158ca5a0625c42ceab7070 = private unnamed_addr constant <{ [24 x i8] }> <{ [24 x i8] c"double_fault_handler_set" }>, align 1
@vtable.5 = private constant <{ ptr, [16 x i8], ptr }> <{ ptr @"_ZN4core3ptr25drop_in_place$LT$bool$GT$17hb57844c33f76dca8E", [16 x i8] c"\01\00\00\00\00\00\00\00\01\00\00\00\00\00\00\00", ptr @"_ZN41_$LT$bool$u20$as$u20$core..fmt..Debug$GT$3fmt17hb7082edc9e75794bE" }>, align 8, !dbg !325
@alloc_8553fa4e4d80bf546be78d3fe83be056 = private unnamed_addr constant <{ [22 x i8] }> <{ [22 x i8] c"breakpoint_handler_set" }>, align 1
@alloc_6d1866eadba2fd07bbde5bb2f2707d21 = private unnamed_addr constant <{ [27 x i8] }> <{ [27 x i8] c"timer_interrupt_handler_set" }>, align 1
@vtable.6 = private constant <{ ptr, [16 x i8], ptr }> <{ ptr @"_ZN4core3ptr29drop_in_place$LT$$RF$bool$GT$17h6a7526f3b077d738E", [16 x i8] c"\08\00\00\00\00\00\00\00\08\00\00\00\00\00\00\00", ptr @"_ZN42_$LT$$RF$T$u20$as$u20$core..fmt..Debug$GT$3fmt17h14d6a82af64876b2E" }>, align 8, !dbg !334

; <bool as core::fmt::Debug>::fmt
; Function Attrs: inlinehint noredzone nounwind
define internal zeroext i1 @"_ZN41_$LT$bool$u20$as$u20$core..fmt..Debug$GT$3fmt17hb7082edc9e75794bE"(ptr align 1 %self, ptr align 8 %f) unnamed_addr #0 !dbg !372 {
start:
  %f.dbg.spill = alloca ptr, align 8
  %self.dbg.spill = alloca ptr, align 8
  store ptr %self, ptr %self.dbg.spill, align 8
  call void @llvm.dbg.declare(metadata ptr %self.dbg.spill, metadata !425, metadata !DIExpression()), !dbg !427
  store ptr %f, ptr %f.dbg.spill, align 8
  call void @llvm.dbg.declare(metadata ptr %f.dbg.spill, metadata !426, metadata !DIExpression()), !dbg !428
; call <bool as core::fmt::Display>::fmt
  %0 = call zeroext i1 @"_ZN43_$LT$bool$u20$as$u20$core..fmt..Display$GT$3fmt17h5bc4d75f2223d7a0E"(ptr align 1 %self, ptr align 8 %f) #8, !dbg !429
  ret i1 %0, !dbg !430
}

; <u16 as bit_field::BitField>::set_bit
; Function Attrs: inlinehint noredzone nounwind
define internal align 2 ptr @"_ZN43_$LT$u16$u20$as$u20$bit_field..BitField$GT$7set_bit17h362d171f2b183fa8E"(ptr align 2 %self, i64 %bit, i1 zeroext %value) unnamed_addr #0 !dbg !431 {
start:
  %value.dbg.spill = alloca i8, align 1
  %bit.dbg.spill = alloca i64, align 8
  %self.dbg.spill = alloca ptr, align 8
  store ptr %self, ptr %self.dbg.spill, align 8
  call void @llvm.dbg.declare(metadata ptr %self.dbg.spill, metadata !439, metadata !DIExpression()), !dbg !442
  store i64 %bit, ptr %bit.dbg.spill, align 8
  call void @llvm.dbg.declare(metadata ptr %bit.dbg.spill, metadata !440, metadata !DIExpression()), !dbg !443
  %0 = zext i1 %value to i8
  store i8 %0, ptr %value.dbg.spill, align 1
  call void @llvm.dbg.declare(metadata ptr %value.dbg.spill, metadata !441, metadata !DIExpression()), !dbg !444
  %_5 = icmp ult i64 %bit, 16, !dbg !445
  %_4 = xor i1 %_5, true, !dbg !446
  br i1 %_4, label %bb1, label %bb2, !dbg !446

bb2:                                              ; preds = %start
  br i1 %value, label %bb3, label %bb4, !dbg !447

bb1:                                              ; preds = %start
; call core::panicking::panic
  call void @_ZN4core9panicking5panic17h277234a6cd982fe5E(ptr align 1 @alloc_6923360c3161738641b3989c6181ce08, i64 40, ptr align 8 @alloc_b01c63d7eb55c84e9d45ae152316a96d) #11, !dbg !446
  unreachable, !dbg !446

bb4:                                              ; preds = %bb2
  %_11 = icmp ult i64 %bit, 16, !dbg !448
  %1 = call i1 @llvm.expect.i1(i1 %_11, i1 true), !dbg !448
  br i1 %1, label %bb6, label %panic1, !dbg !448

bb3:                                              ; preds = %bb2
  %_8 = icmp ult i64 %bit, 16, !dbg !449
  %2 = call i1 @llvm.expect.i1(i1 %_8, i1 true), !dbg !449
  br i1 %2, label %bb5, label %panic, !dbg !449

bb5:                                              ; preds = %bb3
  %3 = trunc i64 %bit to i16, !dbg !449
  %4 = and i16 %3, 15, !dbg !449
  %_7 = shl i16 1, %4, !dbg !449
  %5 = load i16, ptr %self, align 2, !dbg !450, !noundef !18
  %6 = or i16 %5, %_7, !dbg !450
  store i16 %6, ptr %self, align 2, !dbg !450
  br label %bb7, !dbg !451

panic:                                            ; preds = %bb3
; call core::panicking::panic
  call void @_ZN4core9panicking5panic17h277234a6cd982fe5E(ptr align 1 @str.0, i64 35, ptr align 8 @alloc_b01c63d7eb55c84e9d45ae152316a96d) #11, !dbg !449
  unreachable, !dbg !449

bb7:                                              ; preds = %bb6, %bb5
  ret ptr %self, !dbg !452

bb6:                                              ; preds = %bb4
  %7 = trunc i64 %bit to i16, !dbg !448
  %8 = and i16 %7, 15, !dbg !448
  %_10 = shl i16 1, %8, !dbg !448
  %_9 = xor i16 %_10, -1, !dbg !453
  %9 = load i16, ptr %self, align 2, !dbg !454, !noundef !18
  %10 = and i16 %9, %_9, !dbg !454
  store i16 %10, ptr %self, align 2, !dbg !454
  br label %bb7, !dbg !451

panic1:                                           ; preds = %bb4
; call core::panicking::panic
  call void @_ZN4core9panicking5panic17h277234a6cd982fe5E(ptr align 1 @str.0, i64 35, ptr align 8 @alloc_b01c63d7eb55c84e9d45ae152316a96d) #11, !dbg !448
  unreachable, !dbg !448
}

; <u16 as bit_field::BitField>::set_bits
; Function Attrs: inlinehint noredzone nounwind
define align 2 ptr @"_ZN43_$LT$u16$u20$as$u20$bit_field..BitField$GT$8set_bits17hfd7ee7ca0c7fa012E"(ptr align 2 %self, i64 %0, i64 %1, i16 %value) unnamed_addr #0 !dbg !455 {
start:
  %bitmask.dbg.spill = alloca i16, align 2
  %range.dbg.spill = alloca { i64, i64 }, align 8
  %value.dbg.spill = alloca i16, align 2
  %self.dbg.spill = alloca ptr, align 8
  %range = alloca { i64, i64 }, align 8
  %2 = getelementptr inbounds { i64, i64 }, ptr %range, i32 0, i32 0
  store i64 %0, ptr %2, align 8
  %3 = getelementptr inbounds { i64, i64 }, ptr %range, i32 0, i32 1
  store i64 %1, ptr %3, align 8
  store ptr %self, ptr %self.dbg.spill, align 8
  call void @llvm.dbg.declare(metadata ptr %self.dbg.spill, metadata !467, metadata !DIExpression()), !dbg !476
  call void @llvm.dbg.declare(metadata ptr %range, metadata !468, metadata !DIExpression()), !dbg !477
  store i16 %value, ptr %value.dbg.spill, align 2
  call void @llvm.dbg.declare(metadata ptr %value.dbg.spill, metadata !469, metadata !DIExpression()), !dbg !478
; call bit_field::to_regular_range
  %4 = call { i64, i64 } @_ZN9bit_field16to_regular_range17hd874e9ed95fe94eaE(ptr align 8 %range, i64 16) #8, !dbg !479
  %range.0 = extractvalue { i64, i64 } %4, 0, !dbg !479
  %range.1 = extractvalue { i64, i64 } %4, 1, !dbg !479
  %5 = getelementptr inbounds { i64, i64 }, ptr %range.dbg.spill, i32 0, i32 0, !dbg !479
  store i64 %range.0, ptr %5, align 8, !dbg !479
  %6 = getelementptr inbounds { i64, i64 }, ptr %range.dbg.spill, i32 0, i32 1, !dbg !479
  store i64 %range.1, ptr %6, align 8, !dbg !479
  call void @llvm.dbg.declare(metadata ptr %range.dbg.spill, metadata !470, metadata !DIExpression()), !dbg !480
  %_7 = icmp ult i64 %range.0, 16, !dbg !481
  %_6 = xor i1 %_7, true, !dbg !482
  br i1 %_6, label %bb2, label %bb3, !dbg !482

bb3:                                              ; preds = %start
  %_11 = icmp ule i64 %range.1, 16, !dbg !483
  %_10 = xor i1 %_11, true, !dbg !484
  br i1 %_10, label %bb4, label %bb5, !dbg !484

bb2:                                              ; preds = %start
; call core::panicking::panic
  call void @_ZN4core9panicking5panic17h277234a6cd982fe5E(ptr align 1 @alloc_43d3c3e34f8fc6589b4da1b1abdd7b57, i64 48, ptr align 8 @alloc_b01c63d7eb55c84e9d45ae152316a96d) #11, !dbg !482
  unreachable, !dbg !482

bb5:                                              ; preds = %bb3
  %_15 = icmp ult i64 %range.0, %range.1, !dbg !485
  %_14 = xor i1 %_15, true, !dbg !486
  br i1 %_14, label %bb6, label %bb7, !dbg !486

bb4:                                              ; preds = %bb3
; call core::panicking::panic
  call void @_ZN4core9panicking5panic17h277234a6cd982fe5E(ptr align 1 @alloc_d3619c0864e1cd3a4478ebd6749a56b0, i64 47, ptr align 8 @alloc_b01c63d7eb55c84e9d45ae152316a96d) #11, !dbg !484
  unreachable, !dbg !484

bb7:                                              ; preds = %bb5
  %_27.0 = sub i64 %range.1, %range.0, !dbg !487
  %_27.1 = icmp ult i64 %range.1, %range.0, !dbg !487
  %7 = call i1 @llvm.expect.i1(i1 %_27.1, i1 false), !dbg !487
  br i1 %7, label %panic, label %bb8, !dbg !487

bb6:                                              ; preds = %bb5
; call core::panicking::panic
  call void @_ZN4core9panicking5panic17h277234a6cd982fe5E(ptr align 1 @alloc_fa3040d11952b12d3c67c30be76bc6a8, i64 41, ptr align 8 @alloc_b01c63d7eb55c84e9d45ae152316a96d) #11, !dbg !486
  unreachable, !dbg !486

bb8:                                              ; preds = %bb7
  %_28.0 = sub i64 16, %_27.0, !dbg !488
  %_28.1 = icmp ult i64 16, %_27.0, !dbg !488
  %8 = call i1 @llvm.expect.i1(i1 %_28.1, i1 false), !dbg !488
  br i1 %8, label %panic1, label %bb9, !dbg !488

panic:                                            ; preds = %bb7
; call core::panicking::panic
  call void @_ZN4core9panicking5panic17h277234a6cd982fe5E(ptr align 1 @str.1, i64 33, ptr align 8 @alloc_b01c63d7eb55c84e9d45ae152316a96d) #11, !dbg !487
  unreachable, !dbg !487

bb9:                                              ; preds = %bb8
  %_29 = icmp ult i64 %_28.0, 16, !dbg !489
  %9 = call i1 @llvm.expect.i1(i1 %_29, i1 true), !dbg !489
  br i1 %9, label %bb10, label %panic2, !dbg !489

panic1:                                           ; preds = %bb8
; call core::panicking::panic
  call void @_ZN4core9panicking5panic17h277234a6cd982fe5E(ptr align 1 @str.1, i64 33, ptr align 8 @alloc_b01c63d7eb55c84e9d45ae152316a96d) #11, !dbg !488
  unreachable, !dbg !488

bb10:                                             ; preds = %bb9
  %10 = trunc i64 %_28.0 to i16, !dbg !489
  %11 = and i16 %10, 15, !dbg !489
  %_22 = shl i16 %value, %11, !dbg !489
  %_34.0 = sub i64 %range.1, %range.0, !dbg !490
  %_34.1 = icmp ult i64 %range.1, %range.0, !dbg !490
  %12 = call i1 @llvm.expect.i1(i1 %_34.1, i1 false), !dbg !490
  br i1 %12, label %panic3, label %bb11, !dbg !490

panic2:                                           ; preds = %bb9
; call core::panicking::panic
  call void @_ZN4core9panicking5panic17h277234a6cd982fe5E(ptr align 1 @str.0, i64 35, ptr align 8 @alloc_b01c63d7eb55c84e9d45ae152316a96d) #11, !dbg !489
  unreachable, !dbg !489

bb11:                                             ; preds = %bb10
  %_35.0 = sub i64 16, %_34.0, !dbg !491
  %_35.1 = icmp ult i64 16, %_34.0, !dbg !491
  %13 = call i1 @llvm.expect.i1(i1 %_35.1, i1 false), !dbg !491
  br i1 %13, label %panic4, label %bb12, !dbg !491

panic3:                                           ; preds = %bb10
; call core::panicking::panic
  call void @_ZN4core9panicking5panic17h277234a6cd982fe5E(ptr align 1 @str.1, i64 33, ptr align 8 @alloc_b01c63d7eb55c84e9d45ae152316a96d) #11, !dbg !490
  unreachable, !dbg !490

bb12:                                             ; preds = %bb11
  %_36 = icmp ult i64 %_35.0, 16, !dbg !489
  %14 = call i1 @llvm.expect.i1(i1 %_36, i1 true), !dbg !489
  br i1 %14, label %bb13, label %panic5, !dbg !489

panic4:                                           ; preds = %bb11
; call core::panicking::panic
  call void @_ZN4core9panicking5panic17h277234a6cd982fe5E(ptr align 1 @str.1, i64 33, ptr align 8 @alloc_b01c63d7eb55c84e9d45ae152316a96d) #11, !dbg !491
  unreachable, !dbg !491

bb13:                                             ; preds = %bb12
  %15 = trunc i64 %_35.0 to i16, !dbg !489
  %16 = and i16 %15, 15, !dbg !489
  %_21 = lshr i16 %_22, %16, !dbg !489
  %_20 = icmp eq i16 %_21, %value, !dbg !489
  %_19 = xor i1 %_20, true, !dbg !492
  br i1 %_19, label %bb14, label %bb15, !dbg !492

panic5:                                           ; preds = %bb12
; call core::panicking::panic
  call void @_ZN4core9panicking5panic17h277234a6cd982fe5E(ptr align 1 @str.2, i64 36, ptr align 8 @alloc_b01c63d7eb55c84e9d45ae152316a96d) #11, !dbg !489
  unreachable, !dbg !489

bb15:                                             ; preds = %bb13
  %_46.0 = sub i64 16, %range.1, !dbg !493
  %_46.1 = icmp ult i64 16, %range.1, !dbg !493
  %17 = call i1 @llvm.expect.i1(i1 %_46.1, i1 false), !dbg !493
  br i1 %17, label %panic6, label %bb16, !dbg !493

bb14:                                             ; preds = %bb13
; call core::panicking::panic
  call void @_ZN4core9panicking5panic17h277234a6cd982fe5E(ptr align 1 @alloc_8500726b2f23ea792acf9a1d33d50d56, i64 33, ptr align 8 @alloc_b01c63d7eb55c84e9d45ae152316a96d) #11, !dbg !492
  unreachable, !dbg !492

bb16:                                             ; preds = %bb15
  %_47 = icmp ult i64 %_46.0, 16, !dbg !494
  %18 = call i1 @llvm.expect.i1(i1 %_47, i1 true), !dbg !494
  br i1 %18, label %bb17, label %panic7, !dbg !494

panic6:                                           ; preds = %bb15
; call core::panicking::panic
  call void @_ZN4core9panicking5panic17h277234a6cd982fe5E(ptr align 1 @str.1, i64 33, ptr align 8 @alloc_b01c63d7eb55c84e9d45ae152316a96d) #11, !dbg !493
  unreachable, !dbg !493

bb17:                                             ; preds = %bb16
  %19 = trunc i64 %_46.0 to i16, !dbg !494
  %20 = and i16 %19, 15, !dbg !494
  %_42 = shl i16 -1, %20, !dbg !494
  %_50.0 = sub i64 16, %range.1, !dbg !495
  %_50.1 = icmp ult i64 16, %range.1, !dbg !495
  %21 = call i1 @llvm.expect.i1(i1 %_50.1, i1 false), !dbg !495
  br i1 %21, label %panic8, label %bb18, !dbg !495

panic7:                                           ; preds = %bb16
; call core::panicking::panic
  call void @_ZN4core9panicking5panic17h277234a6cd982fe5E(ptr align 1 @str.0, i64 35, ptr align 8 @alloc_b01c63d7eb55c84e9d45ae152316a96d) #11, !dbg !494
  unreachable, !dbg !494

bb18:                                             ; preds = %bb17
  %_51 = icmp ult i64 %_50.0, 16, !dbg !494
  %22 = call i1 @llvm.expect.i1(i1 %_51, i1 true), !dbg !494
  br i1 %22, label %bb19, label %panic9, !dbg !494

panic8:                                           ; preds = %bb17
; call core::panicking::panic
  call void @_ZN4core9panicking5panic17h277234a6cd982fe5E(ptr align 1 @str.1, i64 33, ptr align 8 @alloc_b01c63d7eb55c84e9d45ae152316a96d) #11, !dbg !495
  unreachable, !dbg !495

bb19:                                             ; preds = %bb18
  %23 = trunc i64 %_50.0 to i16, !dbg !494
  %24 = and i16 %23, 15, !dbg !494
  %_41 = lshr i16 %_42, %24, !dbg !494
  %_53 = icmp ult i64 %range.0, 16, !dbg !494
  %25 = call i1 @llvm.expect.i1(i1 %_53, i1 true), !dbg !494
  br i1 %25, label %bb20, label %panic10, !dbg !494

panic9:                                           ; preds = %bb18
; call core::panicking::panic
  call void @_ZN4core9panicking5panic17h277234a6cd982fe5E(ptr align 1 @str.2, i64 36, ptr align 8 @alloc_b01c63d7eb55c84e9d45ae152316a96d) #11, !dbg !494
  unreachable, !dbg !494

bb20:                                             ; preds = %bb19
  %26 = trunc i64 %range.0 to i16, !dbg !494
  %27 = and i16 %26, 15, !dbg !494
  %_40 = lshr i16 %_41, %27, !dbg !494
  %_55 = icmp ult i64 %range.0, 16, !dbg !496
  %28 = call i1 @llvm.expect.i1(i1 %_55, i1 true), !dbg !496
  br i1 %28, label %bb21, label %panic11, !dbg !496

panic10:                                          ; preds = %bb19
; call core::panicking::panic
  call void @_ZN4core9panicking5panic17h277234a6cd982fe5E(ptr align 1 @str.2, i64 36, ptr align 8 @alloc_b01c63d7eb55c84e9d45ae152316a96d) #11, !dbg !494
  unreachable, !dbg !494

bb21:                                             ; preds = %bb20
  %29 = trunc i64 %range.0 to i16, !dbg !496
  %30 = and i16 %29, 15, !dbg !496
  %_39 = shl i16 %_40, %30, !dbg !496
  %bitmask = xor i16 %_39, -1, !dbg !497
  store i16 %bitmask, ptr %bitmask.dbg.spill, align 2, !dbg !497
  call void @llvm.dbg.declare(metadata ptr %bitmask.dbg.spill, metadata !472, metadata !DIExpression()), !dbg !498
  %_57 = load i16, ptr %self, align 2, !dbg !499, !noundef !18
  %_56 = and i16 %_57, %bitmask, !dbg !500
  %_60 = icmp ult i64 %range.0, 16, !dbg !501
  %31 = call i1 @llvm.expect.i1(i1 %_60, i1 true), !dbg !501
  br i1 %31, label %bb22, label %panic12, !dbg !501

panic11:                                          ; preds = %bb20
; call core::panicking::panic
  call void @_ZN4core9panicking5panic17h277234a6cd982fe5E(ptr align 1 @str.0, i64 35, ptr align 8 @alloc_b01c63d7eb55c84e9d45ae152316a96d) #11, !dbg !496
  unreachable, !dbg !496

bb22:                                             ; preds = %bb21
  %32 = trunc i64 %range.0 to i16, !dbg !501
  %33 = and i16 %32, 15, !dbg !501
  %_58 = shl i16 %value, %33, !dbg !501
  %34 = or i16 %_56, %_58, !dbg !502
  store i16 %34, ptr %self, align 2, !dbg !502
  ret ptr %self, !dbg !503

panic12:                                          ; preds = %bb21
; call core::panicking::panic
  call void @_ZN4core9panicking5panic17h277234a6cd982fe5E(ptr align 1 @str.0, i64 35, ptr align 8 @alloc_b01c63d7eb55c84e9d45ae152316a96d) #11, !dbg !501
  unreachable, !dbg !501
}

; core::fmt::ArgumentV1::new
; Function Attrs: inlinehint noredzone nounwind
define { ptr, ptr } @_ZN4core3fmt10ArgumentV13new17h81a04c483c13723aE(ptr align 8 %x, ptr %f) unnamed_addr #0 !dbg !504 {
start:
  %f.dbg.spill = alloca ptr, align 8
  %x.dbg.spill = alloca ptr, align 8
  %0 = alloca { ptr, ptr }, align 8
  store ptr %x, ptr %x.dbg.spill, align 8
  call void @llvm.dbg.declare(metadata ptr %x.dbg.spill, metadata !522, metadata !DIExpression()), !dbg !526
  store ptr %f, ptr %f.dbg.spill, align 8
  call void @llvm.dbg.declare(metadata ptr %f.dbg.spill, metadata !523, metadata !DIExpression()), !dbg !527
  store ptr %x, ptr %0, align 8, !dbg !528
  %1 = getelementptr inbounds { ptr, ptr }, ptr %0, i32 0, i32 1, !dbg !528
  store ptr %f, ptr %1, align 8, !dbg !528
  %2 = getelementptr inbounds { ptr, ptr }, ptr %0, i32 0, i32 0, !dbg !529
  %3 = load ptr, ptr %2, align 8, !dbg !529, !nonnull !18, !align !530, !noundef !18
  %4 = getelementptr inbounds { ptr, ptr }, ptr %0, i32 0, i32 1, !dbg !529
  %5 = load ptr, ptr %4, align 8, !dbg !529, !nonnull !18, !noundef !18
  %6 = insertvalue { ptr, ptr } poison, ptr %3, 0, !dbg !529
  %7 = insertvalue { ptr, ptr } %6, ptr %5, 1, !dbg !529
  ret { ptr, ptr } %7, !dbg !529
}

; core::fmt::ArgumentV1::new_debug
; Function Attrs: inlinehint noredzone nounwind
define { ptr, ptr } @_ZN4core3fmt10ArgumentV19new_debug17h71d6176e612706a8E(ptr align 8 %x) unnamed_addr #0 !dbg !531 {
start:
  %x.dbg.spill = alloca ptr, align 8
  store ptr %x, ptr %x.dbg.spill, align 8
  call void @llvm.dbg.declare(metadata ptr %x.dbg.spill, metadata !535, metadata !DIExpression()), !dbg !536
; call core::fmt::ArgumentV1::new
  %0 = call { ptr, ptr } @_ZN4core3fmt10ArgumentV13new17h81a04c483c13723aE(ptr align 8 %x, ptr @"_ZN81_$LT$x86_64..structures..idt..InterruptStackFrame$u20$as$u20$core..fmt..Debug$GT$3fmt17h779dc3ea5271d24bE") #8, !dbg !537
  %1 = extractvalue { ptr, ptr } %0, 0, !dbg !537
  %2 = extractvalue { ptr, ptr } %0, 1, !dbg !537
  %3 = insertvalue { ptr, ptr } poison, ptr %1, 0, !dbg !538
  %4 = insertvalue { ptr, ptr } %3, ptr %2, 1, !dbg !538
  ret { ptr, ptr } %4, !dbg !538
}

; core::fmt::Arguments::new_v1_formatted
; Function Attrs: inlinehint noredzone nounwind
define internal void @_ZN4core3fmt9Arguments16new_v1_formatted17hf7656413da502c3cE(ptr sret(%"core::fmt::Arguments<'_>") %0, ptr align 8 %pieces.0, i64 %pieces.1, ptr align 8 %args.0, i64 %args.1, ptr align 8 %fmt.0, i64 %fmt.1) unnamed_addr #0 !dbg !539 {
start:
  %_4.dbg.spill = alloca %"core::fmt::UnsafeArg", align 1
  %fmt.dbg.spill = alloca { ptr, i64 }, align 8
  %args.dbg.spill = alloca { ptr, i64 }, align 8
  %pieces.dbg.spill = alloca { ptr, i64 }, align 8
  %_5 = alloca { ptr, i64 }, align 8
  %_unsafe_arg.dbg.spill = alloca %"core::fmt::UnsafeArg", align 1
  call void @llvm.dbg.declare(metadata ptr %_unsafe_arg.dbg.spill, metadata !613, metadata !DIExpression()), !dbg !615
  %1 = getelementptr inbounds { ptr, i64 }, ptr %pieces.dbg.spill, i32 0, i32 0
  store ptr %pieces.0, ptr %1, align 8
  %2 = getelementptr inbounds { ptr, i64 }, ptr %pieces.dbg.spill, i32 0, i32 1
  store i64 %pieces.1, ptr %2, align 8
  call void @llvm.dbg.declare(metadata ptr %pieces.dbg.spill, metadata !610, metadata !DIExpression()), !dbg !616
  %3 = getelementptr inbounds { ptr, i64 }, ptr %args.dbg.spill, i32 0, i32 0
  store ptr %args.0, ptr %3, align 8
  %4 = getelementptr inbounds { ptr, i64 }, ptr %args.dbg.spill, i32 0, i32 1
  store i64 %args.1, ptr %4, align 8
  call void @llvm.dbg.declare(metadata ptr %args.dbg.spill, metadata !611, metadata !DIExpression()), !dbg !617
  %5 = getelementptr inbounds { ptr, i64 }, ptr %fmt.dbg.spill, i32 0, i32 0
  store ptr %fmt.0, ptr %5, align 8
  %6 = getelementptr inbounds { ptr, i64 }, ptr %fmt.dbg.spill, i32 0, i32 1
  store i64 %fmt.1, ptr %6, align 8
  call void @llvm.dbg.declare(metadata ptr %fmt.dbg.spill, metadata !612, metadata !DIExpression()), !dbg !618
  call void @llvm.dbg.declare(metadata ptr %_4.dbg.spill, metadata !614, metadata !DIExpression()), !dbg !615
  %7 = getelementptr inbounds { ptr, i64 }, ptr %_5, i32 0, i32 0, !dbg !619
  store ptr %fmt.0, ptr %7, align 8, !dbg !619
  %8 = getelementptr inbounds { ptr, i64 }, ptr %_5, i32 0, i32 1, !dbg !619
  store i64 %fmt.1, ptr %8, align 8, !dbg !619
  %9 = getelementptr inbounds %"core::fmt::Arguments<'_>", ptr %0, i32 0, i32 1, !dbg !620
  %10 = getelementptr inbounds { ptr, i64 }, ptr %9, i32 0, i32 0, !dbg !620
  store ptr %pieces.0, ptr %10, align 8, !dbg !620
  %11 = getelementptr inbounds { ptr, i64 }, ptr %9, i32 0, i32 1, !dbg !620
  store i64 %pieces.1, ptr %11, align 8, !dbg !620
  %12 = getelementptr inbounds { ptr, i64 }, ptr %_5, i32 0, i32 0, !dbg !620
  %13 = load ptr, ptr %12, align 8, !dbg !620, !align !621, !noundef !18
  %14 = getelementptr inbounds { ptr, i64 }, ptr %_5, i32 0, i32 1, !dbg !620
  %15 = load i64, ptr %14, align 8, !dbg !620
  %16 = getelementptr inbounds { ptr, i64 }, ptr %0, i32 0, i32 0, !dbg !620
  store ptr %13, ptr %16, align 8, !dbg !620
  %17 = getelementptr inbounds { ptr, i64 }, ptr %0, i32 0, i32 1, !dbg !620
  store i64 %15, ptr %17, align 8, !dbg !620
  %18 = getelementptr inbounds %"core::fmt::Arguments<'_>", ptr %0, i32 0, i32 2, !dbg !620
  %19 = getelementptr inbounds { ptr, i64 }, ptr %18, i32 0, i32 0, !dbg !620
  store ptr %args.0, ptr %19, align 8, !dbg !620
  %20 = getelementptr inbounds { ptr, i64 }, ptr %18, i32 0, i32 1, !dbg !620
  store i64 %args.1, ptr %20, align 8, !dbg !620
  ret void, !dbg !622
}

; core::fmt::Arguments::new_const
; Function Attrs: inlinehint noredzone nounwind
define internal void @_ZN4core3fmt9Arguments9new_const17h66f25d9658999536E(ptr sret(%"core::fmt::Arguments<'_>") %0, ptr align 8 %pieces.0, i64 %pieces.1) unnamed_addr #0 !dbg !623 {
start:
  %pieces.dbg.spill = alloca { ptr, i64 }, align 8
  %_7 = alloca { ptr, i64 }, align 8
  %_5 = alloca %"core::fmt::Arguments<'_>", align 8
  %1 = getelementptr inbounds { ptr, i64 }, ptr %pieces.dbg.spill, i32 0, i32 0
  store ptr %pieces.0, ptr %1, align 8
  %2 = getelementptr inbounds { ptr, i64 }, ptr %pieces.dbg.spill, i32 0, i32 1
  store i64 %pieces.1, ptr %2, align 8
  call void @llvm.dbg.declare(metadata ptr %pieces.dbg.spill, metadata !627, metadata !DIExpression()), !dbg !628
  %_2 = icmp ugt i64 %pieces.1, 1, !dbg !629
  br i1 %_2, label %bb1, label %bb3, !dbg !629

bb3:                                              ; preds = %start
  store ptr null, ptr %_7, align 8, !dbg !630
  %3 = getelementptr inbounds %"core::fmt::Arguments<'_>", ptr %0, i32 0, i32 1, !dbg !631
  %4 = getelementptr inbounds { ptr, i64 }, ptr %3, i32 0, i32 0, !dbg !631
  store ptr %pieces.0, ptr %4, align 8, !dbg !631
  %5 = getelementptr inbounds { ptr, i64 }, ptr %3, i32 0, i32 1, !dbg !631
  store i64 %pieces.1, ptr %5, align 8, !dbg !631
  %6 = getelementptr inbounds { ptr, i64 }, ptr %_7, i32 0, i32 0, !dbg !631
  %7 = load ptr, ptr %6, align 8, !dbg !631, !align !621, !noundef !18
  %8 = getelementptr inbounds { ptr, i64 }, ptr %_7, i32 0, i32 1, !dbg !631
  %9 = load i64, ptr %8, align 8, !dbg !631
  %10 = getelementptr inbounds { ptr, i64 }, ptr %0, i32 0, i32 0, !dbg !631
  store ptr %7, ptr %10, align 8, !dbg !631
  %11 = getelementptr inbounds { ptr, i64 }, ptr %0, i32 0, i32 1, !dbg !631
  store i64 %9, ptr %11, align 8, !dbg !631
  %12 = getelementptr inbounds %"core::fmt::Arguments<'_>", ptr %0, i32 0, i32 2, !dbg !631
  %13 = getelementptr inbounds { ptr, i64 }, ptr %12, i32 0, i32 0, !dbg !631
  store ptr @alloc_513570631223a12912d85da2bec3b15a, ptr %13, align 8, !dbg !631
  %14 = getelementptr inbounds { ptr, i64 }, ptr %12, i32 0, i32 1, !dbg !631
  store i64 0, ptr %14, align 8, !dbg !631
  ret void, !dbg !632

bb1:                                              ; preds = %start
; call core::fmt::Arguments::new_const
  call void @_ZN4core3fmt9Arguments9new_const17h66f25d9658999536E(ptr sret(%"core::fmt::Arguments<'_>") %_5, ptr align 8 @alloc_560206a49c61adca6f3f0639a12632eb, i64 1) #8, !dbg !633
; call core::panicking::panic_fmt
  call void @_ZN4core9panicking9panic_fmt17hcab56c0eeadf4812E(ptr %_5, ptr align 8 @alloc_3565e73f34d7302748197a3f0bc50374) #11, !dbg !633
  unreachable, !dbg !633
}

; core::ops::function::FnOnce::call_once
; Function Attrs: inlinehint noredzone nounwind
define internal void @_ZN4core3ops8function6FnOnce9call_once17h105e45d47c4a9f96E(ptr sret(%"global_descriptor_table::GlobalDescriptorTableSetup") %0) unnamed_addr #0 !dbg !634 {
start:
  %code_selector.dbg.spill.i = alloca i16, align 2
  %tss_selector.dbg.spill.i = alloca i16, align 2
  %stack_end.dbg.spill.i = alloca i64, align 8
  %stack_start.dbg.spill.i = alloca i64, align 8
  %_22.i = alloca { i16, i16 }, align 2
  %_21.i = alloca %"x86_64::structures::gdt::GlobalDescriptorTable", align 8
  %_20.i = alloca %"x86_64::structures::gdt::Descriptor", align 8
  %_15.i = alloca %"x86_64::structures::gdt::Descriptor", align 8
  %global_descriptor_table.i = alloca %"x86_64::structures::gdt::GlobalDescriptorTable", align 8
  %_1.dbg.spill = alloca {}, align 1
  %_2 = alloca {}, align 1
  call void @llvm.dbg.declare(metadata ptr %_1.dbg.spill, metadata !644, metadata !DIExpression()), !dbg !649
  call void @llvm.dbg.declare(metadata ptr %_2, metadata !645, metadata !DIExpression()), !dbg !649
  call void @llvm.dbg.declare(metadata ptr %global_descriptor_table.i, metadata !650, metadata !DIExpression()), !dbg !662
; call x86_64::structures::gdt::GlobalDescriptorTable::new
  call void @_ZN6x86_6410structures3gdt21GlobalDescriptorTable3new17h5d7ed51c23149616E(ptr sret(%"x86_64::structures::gdt::GlobalDescriptorTable") %global_descriptor_table.i) #8, !dbg !664
; call x86_64::addr::VirtAddr::from_ptr
  %stack_start.i = call i64 @_ZN6x86_644addr8VirtAddr8from_ptr17hcc4f2b043a0de00dE(ptr @"_ZN108_$LT$cpu_interrupts..global_descriptor_table..GLOBAL_DESCRIPTOR_TABLE$u20$as$u20$core..ops..deref..Deref$GT$5deref23__static_ref_initialize5STACK17hdc0a01dd21764c33E") #8, !dbg !666
  store i64 %stack_start.i, ptr %stack_start.dbg.spill.i, align 8, !dbg !666
  call void @llvm.dbg.declare(metadata ptr %stack_start.dbg.spill.i, metadata !654, metadata !DIExpression()), !dbg !667
; call <x86_64::addr::VirtAddr as core::ops::arith::Add<usize>>::add
  %stack_end.i = call i64 @"_ZN77_$LT$x86_64..addr..VirtAddr$u20$as$u20$core..ops..arith..Add$LT$usize$GT$$GT$3add17h525101c8c712de6fE"(i64 %stack_start.i, i64 20480) #8, !dbg !668
  store i64 %stack_end.i, ptr %stack_end.dbg.spill.i, align 8, !dbg !668
  call void @llvm.dbg.declare(metadata ptr %stack_end.dbg.spill.i, metadata !656, metadata !DIExpression()), !dbg !669
  store i64 %stack_end.i, ptr getelementptr inbounds (%"x86_64::structures::tss::TaskStateSegment", ptr @"_ZN108_$LT$cpu_interrupts..global_descriptor_table..GLOBAL_DESCRIPTOR_TABLE$u20$as$u20$core..ops..deref..Deref$GT$5deref23__static_ref_initialize18TASK_STATE_SEGMENT17h1ea3db7bdfbf0ddcE", i32 0, i32 3), align 4, !dbg !670
; call x86_64::structures::gdt::Descriptor::tss_segment
  call void @_ZN6x86_6410structures3gdt10Descriptor11tss_segment17he894c96301eed93bE(ptr sret(%"x86_64::structures::gdt::Descriptor") %_15.i, ptr align 4 @"_ZN108_$LT$cpu_interrupts..global_descriptor_table..GLOBAL_DESCRIPTOR_TABLE$u20$as$u20$core..ops..deref..Deref$GT$5deref23__static_ref_initialize18TASK_STATE_SEGMENT17h1ea3db7bdfbf0ddcE") #8, !dbg !671
; call x86_64::structures::gdt::GlobalDescriptorTable::add_entry
  %tss_selector.i = call i16 @_ZN6x86_6410structures3gdt21GlobalDescriptorTable9add_entry17hcfb6b3b0ff8b6c25E(ptr align 8 %global_descriptor_table.i, ptr %_15.i) #8, !dbg !672
  store i16 %tss_selector.i, ptr %tss_selector.dbg.spill.i, align 2, !dbg !672
  call void @llvm.dbg.declare(metadata ptr %tss_selector.dbg.spill.i, metadata !658, metadata !DIExpression()), !dbg !673
; call x86_64::structures::gdt::Descriptor::kernel_code_segment
  call void @_ZN6x86_6410structures3gdt10Descriptor19kernel_code_segment17h67b8f0aed40c86b5E(ptr sret(%"x86_64::structures::gdt::Descriptor") %_20.i) #8, !dbg !674
; call x86_64::structures::gdt::GlobalDescriptorTable::add_entry
  %code_selector.i = call i16 @_ZN6x86_6410structures3gdt21GlobalDescriptorTable9add_entry17hcfb6b3b0ff8b6c25E(ptr align 8 %global_descriptor_table.i, ptr %_20.i) #8, !dbg !675
  store i16 %code_selector.i, ptr %code_selector.dbg.spill.i, align 2, !dbg !675
  call void @llvm.dbg.declare(metadata ptr %code_selector.dbg.spill.i, metadata !660, metadata !DIExpression()), !dbg !676
  call void @llvm.memcpy.p0.p0.i64(ptr align 8 %_21.i, ptr align 8 %global_descriptor_table.i, i64 72, i1 false), !dbg !677
  store i16 %code_selector.i, ptr %_22.i, align 2, !dbg !678
  %1 = getelementptr inbounds { i16, i16 }, ptr %_22.i, i32 0, i32 1, !dbg !678
  store i16 %tss_selector.i, ptr %1, align 2, !dbg !678
  call void @llvm.memcpy.p0.p0.i64(ptr align 8 %0, ptr align 8 %_21.i, i64 72, i1 false), !dbg !679
  %2 = load i16, ptr %_22.i, align 2, !dbg !679, !noundef !18
  %3 = getelementptr inbounds { i16, i16 }, ptr %_22.i, i32 0, i32 1, !dbg !679
  %4 = load i16, ptr %3, align 2, !dbg !679, !noundef !18
  %5 = getelementptr inbounds %"global_descriptor_table::GlobalDescriptorTableSetup", ptr %0, i32 0, i32 1, !dbg !679
  store i16 %2, ptr %5, align 8, !dbg !679
  %6 = getelementptr inbounds { i16, i16 }, ptr %5, i32 0, i32 1, !dbg !679
  store i16 %4, ptr %6, align 2, !dbg !679
  ret void, !dbg !649
}

; core::ptr::drop_in_place<bool>
; Function Attrs: inlinehint noredzone nounwind
define internal void @"_ZN4core3ptr25drop_in_place$LT$bool$GT$17hb57844c33f76dca8E"(ptr %_1) unnamed_addr #0 !dbg !680 {
start:
  %_1.dbg.spill = alloca ptr, align 8
  store ptr %_1, ptr %_1.dbg.spill, align 8
  call void @llvm.dbg.declare(metadata ptr %_1.dbg.spill, metadata !687, metadata !DIExpression()), !dbg !690
  ret void, !dbg !690
}

; core::ptr::drop_in_place<&bool>
; Function Attrs: inlinehint noredzone nounwind
define internal void @"_ZN4core3ptr29drop_in_place$LT$$RF$bool$GT$17h6a7526f3b077d738E"(ptr %_1) unnamed_addr #0 !dbg !691 {
start:
  %_1.dbg.spill = alloca ptr, align 8
  store ptr %_1, ptr %_1.dbg.spill, align 8
  call void @llvm.dbg.declare(metadata ptr %_1.dbg.spill, metadata !696, metadata !DIExpression()), !dbg !699
  ret void, !dbg !699
}

; core::ptr::drop_in_place<spin::once::Finish>
; Function Attrs: noredzone nounwind
define void @"_ZN4core3ptr39drop_in_place$LT$spin..once..Finish$GT$17hee23578b0b90aac0E"(ptr %_1) unnamed_addr #1 !dbg !700 {
start:
  %_1.dbg.spill = alloca ptr, align 8
  store ptr %_1, ptr %_1.dbg.spill, align 8
  call void @llvm.dbg.declare(metadata ptr %_1.dbg.spill, metadata !710, metadata !DIExpression()), !dbg !713
; call <spin::once::Finish as core::ops::drop::Drop>::drop
  call void @"_ZN60_$LT$spin..once..Finish$u20$as$u20$core..ops..drop..Drop$GT$4drop17h3d98baa349190142E"(ptr align 8 %_1) #8, !dbg !713
  ret void, !dbg !713
}

; core::ptr::drop_in_place<x86_64::structures::idt::InterruptDescriptorTable>
; Function Attrs: inlinehint noredzone nounwind
define internal void @"_ZN4core3ptr70drop_in_place$LT$x86_64..structures..idt..InterruptDescriptorTable$GT$17h36078f2de25d25ecE"(ptr %_1) unnamed_addr #0 !dbg !714 {
start:
  %_1.dbg.spill = alloca ptr, align 8
  store ptr %_1, ptr %_1.dbg.spill, align 8
  call void @llvm.dbg.declare(metadata ptr %_1.dbg.spill, metadata !719, metadata !DIExpression()), !dbg !722
  ret void, !dbg !722
}

; core::ptr::drop_in_place<spin::mutex::MutexGuard<pic8259::ChainedPics>>
; Function Attrs: noredzone nounwind
define void @"_ZN4core3ptr72drop_in_place$LT$spin..mutex..MutexGuard$LT$pic8259..ChainedPics$GT$$GT$17hc060ad52e0f0a588E"(ptr %_1) unnamed_addr #1 !dbg !723 {
start:
  %_1.dbg.spill = alloca ptr, align 8
  store ptr %_1, ptr %_1.dbg.spill, align 8
  call void @llvm.dbg.declare(metadata ptr %_1.dbg.spill, metadata !737, metadata !DIExpression()), !dbg !740
; call core::ptr::drop_in_place<spin::mutex::spin::SpinMutexGuard<pic8259::ChainedPics>>
  call void @"_ZN4core3ptr82drop_in_place$LT$spin..mutex..spin..SpinMutexGuard$LT$pic8259..ChainedPics$GT$$GT$17h1ca5d01f7c36dbf6E"(ptr %_1) #8, !dbg !740
  ret void, !dbg !740
}

; core::ptr::drop_in_place<spin::mutex::spin::SpinMutexGuard<pic8259::ChainedPics>>
; Function Attrs: noredzone nounwind
define void @"_ZN4core3ptr82drop_in_place$LT$spin..mutex..spin..SpinMutexGuard$LT$pic8259..ChainedPics$GT$$GT$17h1ca5d01f7c36dbf6E"(ptr %_1) unnamed_addr #1 !dbg !741 {
start:
  %_1.dbg.spill = alloca ptr, align 8
  store ptr %_1, ptr %_1.dbg.spill, align 8
  call void @llvm.dbg.declare(metadata ptr %_1.dbg.spill, metadata !746, metadata !DIExpression()), !dbg !749
; call <spin::mutex::spin::SpinMutexGuard<T> as core::ops::drop::Drop>::drop
  call void @"_ZN84_$LT$spin..mutex..spin..SpinMutexGuard$LT$T$GT$$u20$as$u20$core..ops..drop..Drop$GT$4drop17hbb4694f12363a2eaE"(ptr align 8 %_1) #8, !dbg !749
  ret void, !dbg !749
}

; core::hint::unreachable_unchecked
; Function Attrs: inlinehint noredzone noreturn nounwind
define internal void @_ZN4core4hint21unreachable_unchecked17h0c1d23d053224625E() unnamed_addr #2 !dbg !750 {
start:
  br i1 true, label %bb1, label %bb2, !dbg !755

bb2:                                              ; preds = %_ZN4core4hint21unreachable_unchecked7runtime17h37f6a194ad8174bbE.exit, %start
  unreachable, !dbg !756

bb1:                                              ; preds = %start
; call core::panicking::panic_nounwind
  call void @_ZN4core9panicking14panic_nounwind17h4573e3544b1244f5E(ptr align 1 @alloc_1eb6f53a157dccb32488e066ad957e6d, i64 82) #11, !dbg !757
  unreachable, !dbg !757

_ZN4core4hint21unreachable_unchecked7runtime17h37f6a194ad8174bbE.exit: ; No predecessors!
  br label %bb2, !dbg !755
}

; core::sync::atomic::AtomicBool::compare_exchange_weak
; Function Attrs: inlinehint noredzone nounwind
define internal { i8, i8 } @_ZN4core4sync6atomic10AtomicBool21compare_exchange_weak17h16b321a5c62164c2E(ptr align 1 %self, i1 zeroext %current, i1 zeroext %new, i8 %success, i8 %failure) unnamed_addr #0 !dbg !762 {
start:
  %self.dbg.spill.i = alloca ptr, align 8
  %x.dbg.spill2 = alloca i8, align 1
  %x.dbg.spill = alloca i8, align 1
  %failure.dbg.spill = alloca i8, align 1
  %success.dbg.spill = alloca i8, align 1
  %new.dbg.spill = alloca i8, align 1
  %current.dbg.spill = alloca i8, align 1
  %self.dbg.spill = alloca ptr, align 8
  %_6 = alloca { i8, i8 }, align 1
  %0 = alloca { i8, i8 }, align 1
  store ptr %self, ptr %self.dbg.spill, align 8
  call void @llvm.dbg.declare(metadata ptr %self.dbg.spill, metadata !782, metadata !DIExpression()), !dbg !791
  %1 = zext i1 %current to i8
  store i8 %1, ptr %current.dbg.spill, align 1
  call void @llvm.dbg.declare(metadata ptr %current.dbg.spill, metadata !783, metadata !DIExpression()), !dbg !792
  %2 = zext i1 %new to i8
  store i8 %2, ptr %new.dbg.spill, align 1
  call void @llvm.dbg.declare(metadata ptr %new.dbg.spill, metadata !784, metadata !DIExpression()), !dbg !793
  store i8 %success, ptr %success.dbg.spill, align 1
  call void @llvm.dbg.declare(metadata ptr %success.dbg.spill, metadata !785, metadata !DIExpression()), !dbg !794
  store i8 %failure, ptr %failure.dbg.spill, align 1
  call void @llvm.dbg.declare(metadata ptr %failure.dbg.spill, metadata !786, metadata !DIExpression()), !dbg !795
  store ptr %self, ptr %self.dbg.spill.i, align 8
  call void @llvm.dbg.declare(metadata ptr %self.dbg.spill.i, metadata !796, metadata !DIExpression()), !dbg !804
  %_9 = zext i1 %current to i8, !dbg !806
  %_10 = zext i1 %new to i8, !dbg !807
; call core::sync::atomic::atomic_compare_exchange_weak
  %3 = call { i8, i8 } @_ZN4core4sync6atomic28atomic_compare_exchange_weak17hbaf99bd44237c9b3E(ptr %self, i8 %_9, i8 %_10, i8 %success, i8 %failure) #8, !dbg !808
  store { i8, i8 } %3, ptr %_6, align 1, !dbg !808
  %4 = load i8, ptr %_6, align 1, !dbg !809, !range !810, !noundef !18
  %5 = trunc i8 %4 to i1, !dbg !809
  %_11 = zext i1 %5 to i64, !dbg !809
  %6 = icmp eq i64 %_11, 0, !dbg !811
  br i1 %6, label %bb5, label %bb3, !dbg !811

bb5:                                              ; preds = %start
  %7 = getelementptr inbounds { i8, i8 }, ptr %_6, i32 0, i32 1, !dbg !812
  %x1 = load i8, ptr %7, align 1, !dbg !812, !noundef !18
  store i8 %x1, ptr %x.dbg.spill2, align 1, !dbg !812
  call void @llvm.dbg.declare(metadata ptr %x.dbg.spill2, metadata !787, metadata !DIExpression()), !dbg !813
  %_13 = icmp ne i8 %x1, 0, !dbg !814
  %8 = getelementptr inbounds { i8, i8 }, ptr %0, i32 0, i32 1, !dbg !815
  %9 = zext i1 %_13 to i8, !dbg !815
  store i8 %9, ptr %8, align 1, !dbg !815
  store i8 0, ptr %0, align 1, !dbg !815
  br label %bb6, !dbg !816

bb3:                                              ; preds = %start
  %10 = getelementptr inbounds { i8, i8 }, ptr %_6, i32 0, i32 1, !dbg !817
  %x = load i8, ptr %10, align 1, !dbg !817, !noundef !18
  store i8 %x, ptr %x.dbg.spill, align 1, !dbg !817
  call void @llvm.dbg.declare(metadata ptr %x.dbg.spill, metadata !789, metadata !DIExpression()), !dbg !818
  %_15 = icmp ne i8 %x, 0, !dbg !819
  %11 = getelementptr inbounds { i8, i8 }, ptr %0, i32 0, i32 1, !dbg !820
  %12 = zext i1 %_15 to i8, !dbg !820
  store i8 %12, ptr %11, align 1, !dbg !820
  store i8 1, ptr %0, align 1, !dbg !820
  br label %bb6, !dbg !821

bb4:                                              ; No predecessors!
  unreachable, !dbg !809

bb6:                                              ; preds = %bb5, %bb3
  %13 = getelementptr inbounds { i8, i8 }, ptr %0, i32 0, i32 0, !dbg !822
  %14 = load i8, ptr %13, align 1, !dbg !822, !range !810, !noundef !18
  %15 = trunc i8 %14 to i1, !dbg !822
  %16 = getelementptr inbounds { i8, i8 }, ptr %0, i32 0, i32 1, !dbg !822
  %17 = load i8, ptr %16, align 1, !dbg !822, !noundef !18
  %18 = zext i1 %15 to i8, !dbg !822
  %19 = insertvalue { i8, i8 } poison, i8 %18, 0, !dbg !822
  %20 = insertvalue { i8, i8 } %19, i8 %17, 1, !dbg !822
  ret { i8, i8 } %20, !dbg !822
}

; core::sync::atomic::AtomicBool::load
; Function Attrs: inlinehint noredzone nounwind
define internal zeroext i1 @_ZN4core4sync6atomic10AtomicBool4load17h30ea13e1dbce3c31E(ptr align 1 %self, i8 %order) unnamed_addr #0 !dbg !823 {
start:
  %self.dbg.spill.i = alloca ptr, align 8
  %order.dbg.spill = alloca i8, align 1
  %self.dbg.spill = alloca ptr, align 8
  store ptr %self, ptr %self.dbg.spill, align 8
  call void @llvm.dbg.declare(metadata ptr %self.dbg.spill, metadata !827, metadata !DIExpression()), !dbg !829
  store i8 %order, ptr %order.dbg.spill, align 1
  call void @llvm.dbg.declare(metadata ptr %order.dbg.spill, metadata !828, metadata !DIExpression()), !dbg !830
  store ptr %self, ptr %self.dbg.spill.i, align 8
  call void @llvm.dbg.declare(metadata ptr %self.dbg.spill.i, metadata !796, metadata !DIExpression()), !dbg !831
; call core::sync::atomic::atomic_load
  %_3 = call i8 @_ZN4core4sync6atomic11atomic_load17h9e0e36427b7b4fe2E(ptr %self, i8 %order) #8, !dbg !833
  %0 = icmp ne i8 %_3, 0, !dbg !833
  ret i1 %0, !dbg !834
}

; core::sync::atomic::AtomicBool::store
; Function Attrs: inlinehint noredzone nounwind
define internal void @_ZN4core4sync6atomic10AtomicBool5store17h47a008ef88fe0af6E(ptr align 1 %self, i1 zeroext %val, i8 %order) unnamed_addr #0 !dbg !835 {
start:
  %self.dbg.spill.i = alloca ptr, align 8
  %order.dbg.spill = alloca i8, align 1
  %val.dbg.spill = alloca i8, align 1
  %self.dbg.spill = alloca ptr, align 8
  store ptr %self, ptr %self.dbg.spill, align 8
  call void @llvm.dbg.declare(metadata ptr %self.dbg.spill, metadata !839, metadata !DIExpression()), !dbg !842
  %0 = zext i1 %val to i8
  store i8 %0, ptr %val.dbg.spill, align 1
  call void @llvm.dbg.declare(metadata ptr %val.dbg.spill, metadata !840, metadata !DIExpression()), !dbg !843
  store i8 %order, ptr %order.dbg.spill, align 1
  call void @llvm.dbg.declare(metadata ptr %order.dbg.spill, metadata !841, metadata !DIExpression()), !dbg !844
  store ptr %self, ptr %self.dbg.spill.i, align 8
  call void @llvm.dbg.declare(metadata ptr %self.dbg.spill.i, metadata !796, metadata !DIExpression()), !dbg !845
  %_7 = zext i1 %val to i8, !dbg !847
; call core::sync::atomic::atomic_store
  call void @_ZN4core4sync6atomic12atomic_store17hb670e5cb583e0b2fE(ptr %self, i8 %_7, i8 %order) #8, !dbg !848
  ret void, !dbg !849
}

; core::sync::atomic::AtomicUsize::compare_and_swap
; Function Attrs: inlinehint noredzone nounwind
define internal i64 @_ZN4core4sync6atomic11AtomicUsize16compare_and_swap17hc5d0800b4e1fdfecE(ptr align 8 %self, i64 %current, i64 %new, i8 %order) unnamed_addr #0 !dbg !850 {
start:
  %x.dbg.spill2 = alloca i64, align 8
  %x.dbg.spill = alloca i64, align 8
  %order.dbg.spill = alloca i8, align 1
  %new.dbg.spill = alloca i64, align 8
  %current.dbg.spill = alloca i64, align 8
  %self.dbg.spill = alloca ptr, align 8
  %_5 = alloca { i64, i64 }, align 8
  %0 = alloca i64, align 8
  store ptr %self, ptr %self.dbg.spill, align 8
  call void @llvm.dbg.declare(metadata ptr %self.dbg.spill, metadata !854, metadata !DIExpression()), !dbg !862
  store i64 %current, ptr %current.dbg.spill, align 8
  call void @llvm.dbg.declare(metadata ptr %current.dbg.spill, metadata !855, metadata !DIExpression()), !dbg !863
  store i64 %new, ptr %new.dbg.spill, align 8
  call void @llvm.dbg.declare(metadata ptr %new.dbg.spill, metadata !856, metadata !DIExpression()), !dbg !864
  store i8 %order, ptr %order.dbg.spill, align 1
  call void @llvm.dbg.declare(metadata ptr %order.dbg.spill, metadata !857, metadata !DIExpression()), !dbg !865
; call core::sync::atomic::strongest_failure_ordering
  %_6 = call i8 @_ZN4core4sync6atomic26strongest_failure_ordering17h00356692c6024835E(i8 %order) #8, !dbg !866, !range !867
; call core::sync::atomic::AtomicUsize::compare_exchange
  %1 = call { i64, i64 } @_ZN4core4sync6atomic11AtomicUsize16compare_exchange17he5633eeaf01b115dE(ptr align 8 %self, i64 %current, i64 %new, i8 %order, i8 %_6) #8, !dbg !868
  store { i64, i64 } %1, ptr %_5, align 8, !dbg !868
  %_7 = load i64, ptr %_5, align 8, !dbg !868, !range !869, !noundef !18
  %2 = icmp eq i64 %_7, 0, !dbg !870
  br i1 %2, label %bb5, label %bb3, !dbg !870

bb5:                                              ; preds = %start
  %3 = getelementptr inbounds { i64, i64 }, ptr %_5, i32 0, i32 1, !dbg !871
  %x1 = load i64, ptr %3, align 8, !dbg !871, !noundef !18
  store i64 %x1, ptr %x.dbg.spill2, align 8, !dbg !871
  call void @llvm.dbg.declare(metadata ptr %x.dbg.spill2, metadata !858, metadata !DIExpression()), !dbg !872
  store i64 %x1, ptr %0, align 8, !dbg !873
  br label %bb6, !dbg !874

bb3:                                              ; preds = %start
  %4 = getelementptr inbounds { i64, i64 }, ptr %_5, i32 0, i32 1, !dbg !875
  %x = load i64, ptr %4, align 8, !dbg !875, !noundef !18
  store i64 %x, ptr %x.dbg.spill, align 8, !dbg !875
  call void @llvm.dbg.declare(metadata ptr %x.dbg.spill, metadata !860, metadata !DIExpression()), !dbg !876
  store i64 %x, ptr %0, align 8, !dbg !877
  br label %bb6, !dbg !878

bb4:                                              ; No predecessors!
  unreachable, !dbg !868

bb6:                                              ; preds = %bb5, %bb3
  %5 = load i64, ptr %0, align 8, !dbg !879, !noundef !18
  ret i64 %5, !dbg !879
}

; core::sync::atomic::AtomicUsize::compare_exchange
; Function Attrs: inlinehint noredzone nounwind
define internal { i64, i64 } @_ZN4core4sync6atomic11AtomicUsize16compare_exchange17he5633eeaf01b115dE(ptr align 8 %self, i64 %current, i64 %new, i8 %success, i8 %failure) unnamed_addr #0 !dbg !880 {
start:
  %self.dbg.spill.i = alloca ptr, align 8
  %failure.dbg.spill = alloca i8, align 1
  %success.dbg.spill = alloca i8, align 1
  %new.dbg.spill = alloca i64, align 8
  %current.dbg.spill = alloca i64, align 8
  %self.dbg.spill = alloca ptr, align 8
  store ptr %self, ptr %self.dbg.spill, align 8
  call void @llvm.dbg.declare(metadata ptr %self.dbg.spill, metadata !899, metadata !DIExpression()), !dbg !904
  store i64 %current, ptr %current.dbg.spill, align 8
  call void @llvm.dbg.declare(metadata ptr %current.dbg.spill, metadata !900, metadata !DIExpression()), !dbg !905
  store i64 %new, ptr %new.dbg.spill, align 8
  call void @llvm.dbg.declare(metadata ptr %new.dbg.spill, metadata !901, metadata !DIExpression()), !dbg !906
  store i8 %success, ptr %success.dbg.spill, align 1
  call void @llvm.dbg.declare(metadata ptr %success.dbg.spill, metadata !902, metadata !DIExpression()), !dbg !907
  store i8 %failure, ptr %failure.dbg.spill, align 1
  call void @llvm.dbg.declare(metadata ptr %failure.dbg.spill, metadata !903, metadata !DIExpression()), !dbg !908
  store ptr %self, ptr %self.dbg.spill.i, align 8
  call void @llvm.dbg.declare(metadata ptr %self.dbg.spill.i, metadata !909, metadata !DIExpression()), !dbg !916
; call core::sync::atomic::atomic_compare_exchange
  %0 = call { i64, i64 } @_ZN4core4sync6atomic23atomic_compare_exchange17h951996a4a0bfd9b7E(ptr %self, i64 %current, i64 %new, i8 %success, i8 %failure) #8, !dbg !918
  %1 = extractvalue { i64, i64 } %0, 0, !dbg !918
  %2 = extractvalue { i64, i64 } %0, 1, !dbg !918
  %3 = insertvalue { i64, i64 } poison, i64 %1, 0, !dbg !919
  %4 = insertvalue { i64, i64 } %3, i64 %2, 1, !dbg !919
  ret { i64, i64 } %4, !dbg !919
}

; core::sync::atomic::AtomicUsize::load
; Function Attrs: inlinehint noredzone nounwind
define internal i64 @_ZN4core4sync6atomic11AtomicUsize4load17h5a28a38a55695f7eE(ptr align 8 %self, i8 %order) unnamed_addr #0 !dbg !920 {
start:
  %self.dbg.spill.i = alloca ptr, align 8
  %order.dbg.spill = alloca i8, align 1
  %self.dbg.spill = alloca ptr, align 8
  store ptr %self, ptr %self.dbg.spill, align 8
  call void @llvm.dbg.declare(metadata ptr %self.dbg.spill, metadata !924, metadata !DIExpression()), !dbg !926
  store i8 %order, ptr %order.dbg.spill, align 1
  call void @llvm.dbg.declare(metadata ptr %order.dbg.spill, metadata !925, metadata !DIExpression()), !dbg !927
  store ptr %self, ptr %self.dbg.spill.i, align 8
  call void @llvm.dbg.declare(metadata ptr %self.dbg.spill.i, metadata !909, metadata !DIExpression()), !dbg !928
; call core::sync::atomic::atomic_load
  %0 = call i64 @_ZN4core4sync6atomic11atomic_load17ha5853cd073b6c81dE(ptr %self, i8 %order) #8, !dbg !930
  ret i64 %0, !dbg !931
}

; core::sync::atomic::AtomicUsize::store
; Function Attrs: inlinehint noredzone nounwind
define internal void @_ZN4core4sync6atomic11AtomicUsize5store17h1e54ea0473d1dc3aE(ptr align 8 %self, i64 %val, i8 %order) unnamed_addr #0 !dbg !932 {
start:
  %self.dbg.spill.i = alloca ptr, align 8
  %order.dbg.spill = alloca i8, align 1
  %val.dbg.spill = alloca i64, align 8
  %self.dbg.spill = alloca ptr, align 8
  store ptr %self, ptr %self.dbg.spill, align 8
  call void @llvm.dbg.declare(metadata ptr %self.dbg.spill, metadata !936, metadata !DIExpression()), !dbg !939
  store i64 %val, ptr %val.dbg.spill, align 8
  call void @llvm.dbg.declare(metadata ptr %val.dbg.spill, metadata !937, metadata !DIExpression()), !dbg !940
  store i8 %order, ptr %order.dbg.spill, align 1
  call void @llvm.dbg.declare(metadata ptr %order.dbg.spill, metadata !938, metadata !DIExpression()), !dbg !941
  store ptr %self, ptr %self.dbg.spill.i, align 8
  call void @llvm.dbg.declare(metadata ptr %self.dbg.spill.i, metadata !909, metadata !DIExpression()), !dbg !942
; call core::sync::atomic::atomic_store
  call void @_ZN4core4sync6atomic12atomic_store17h85fed9c0e565ac04E(ptr %self, i64 %val, i8 %order) #8, !dbg !944
  ret void, !dbg !945
}

; core::sync::atomic::spin_loop_hint
; Function Attrs: inlinehint noredzone nounwind
define internal void @_ZN4core4sync6atomic14spin_loop_hint17h672cd9eba4280658E() unnamed_addr #0 !dbg !946 {
start:
; call core::core_arch::x86::sse2::_mm_pause
  call void @_ZN4core9core_arch3x864sse29_mm_pause17hfaa206f2d2466418E() #8, !dbg !947
  ret void, !dbg !950
}

; core::sync::atomic::atomic_compare_exchange
; Function Attrs: inlinehint noredzone nounwind
define { i64, i64 } @_ZN4core4sync6atomic23atomic_compare_exchange17h951996a4a0bfd9b7E(ptr %dst, i64 %old, i64 %new, i8 %success, i8 %failure) unnamed_addr #0 !dbg !951 {
start:
  %ok.dbg.spill = alloca i8, align 1
  %val.dbg.spill = alloca i64, align 8
  %failure.dbg.spill = alloca i8, align 1
  %success.dbg.spill = alloca i8, align 1
  %new.dbg.spill = alloca i64, align 8
  %old.dbg.spill = alloca i64, align 8
  %dst.dbg.spill = alloca ptr, align 8
  %_21 = alloca %"core::fmt::Arguments<'_>", align 8
  %_18 = alloca %"core::fmt::Arguments<'_>", align 8
  %_9 = alloca { i8, i8 }, align 1
  %_8 = alloca { i64, i8 }, align 8
  %0 = alloca { i64, i64 }, align 8
  store ptr %dst, ptr %dst.dbg.spill, align 8
  call void @llvm.dbg.declare(metadata ptr %dst.dbg.spill, metadata !955, metadata !DIExpression()), !dbg !963
  store i64 %old, ptr %old.dbg.spill, align 8
  call void @llvm.dbg.declare(metadata ptr %old.dbg.spill, metadata !956, metadata !DIExpression()), !dbg !964
  store i64 %new, ptr %new.dbg.spill, align 8
  call void @llvm.dbg.declare(metadata ptr %new.dbg.spill, metadata !957, metadata !DIExpression()), !dbg !965
  store i8 %success, ptr %success.dbg.spill, align 1
  call void @llvm.dbg.declare(metadata ptr %success.dbg.spill, metadata !958, metadata !DIExpression()), !dbg !966
  store i8 %failure, ptr %failure.dbg.spill, align 1
  call void @llvm.dbg.declare(metadata ptr %failure.dbg.spill, metadata !959, metadata !DIExpression()), !dbg !967
  store i8 %success, ptr %_9, align 1, !dbg !968
  %1 = getelementptr inbounds { i8, i8 }, ptr %_9, i32 0, i32 1, !dbg !968
  store i8 %failure, ptr %1, align 1, !dbg !968
  %2 = load i8, ptr %_9, align 1, !dbg !968, !range !867, !noundef !18
  %_16 = zext i8 %2 to i64, !dbg !968
  switch i64 %_16, label %bb7 [
    i64 0, label %bb1
    i64 1, label %bb3
    i64 2, label %bb4
    i64 3, label %bb5
    i64 4, label %bb6
  ], !dbg !969

bb7:                                              ; preds = %start
  unreachable, !dbg !968

bb1:                                              ; preds = %start
  %3 = getelementptr inbounds { i8, i8 }, ptr %_9, i32 0, i32 1, !dbg !968
  %4 = load i8, ptr %3, align 1, !dbg !968, !range !867, !noundef !18
  %_10 = zext i8 %4 to i64, !dbg !968
  switch i64 %_10, label %bb2 [
    i64 0, label %bb9
    i64 2, label %bb10
    i64 4, label %bb11
  ], !dbg !969

bb3:                                              ; preds = %start
  %5 = getelementptr inbounds { i8, i8 }, ptr %_9, i32 0, i32 1, !dbg !968
  %6 = load i8, ptr %5, align 1, !dbg !968, !range !867, !noundef !18
  %_11 = zext i8 %6 to i64, !dbg !968
  switch i64 %_11, label %bb2 [
    i64 0, label %bb15
    i64 2, label %bb16
    i64 4, label %bb17
  ], !dbg !969

bb4:                                              ; preds = %start
  %7 = getelementptr inbounds { i8, i8 }, ptr %_9, i32 0, i32 1, !dbg !968
  %8 = load i8, ptr %7, align 1, !dbg !968, !range !867, !noundef !18
  %_12 = zext i8 %8 to i64, !dbg !968
  switch i64 %_12, label %bb2 [
    i64 0, label %bb12
    i64 2, label %bb13
    i64 4, label %bb14
  ], !dbg !969

bb5:                                              ; preds = %start
  %9 = getelementptr inbounds { i8, i8 }, ptr %_9, i32 0, i32 1, !dbg !968
  %10 = load i8, ptr %9, align 1, !dbg !968, !range !867, !noundef !18
  %_13 = zext i8 %10 to i64, !dbg !968
  switch i64 %_13, label %bb2 [
    i64 0, label %bb18
    i64 2, label %bb19
    i64 4, label %bb20
  ], !dbg !969

bb6:                                              ; preds = %start
  %11 = getelementptr inbounds { i8, i8 }, ptr %_9, i32 0, i32 1, !dbg !968
  %12 = load i8, ptr %11, align 1, !dbg !968, !range !867, !noundef !18
  %_14 = zext i8 %12 to i64, !dbg !968
  switch i64 %_14, label %bb2 [
    i64 0, label %bb21
    i64 2, label %bb22
    i64 4, label %bb23
  ], !dbg !969

bb2:                                              ; preds = %bb1, %bb3, %bb4, %bb5, %bb6
  %13 = getelementptr inbounds { i8, i8 }, ptr %_9, i32 0, i32 1, !dbg !968
  %14 = load i8, ptr %13, align 1, !dbg !968, !range !867, !noundef !18
  %_15 = zext i8 %14 to i64, !dbg !968
  %15 = icmp eq i64 %_15, 1, !dbg !969
  br i1 %15, label %bb8, label %bb24, !dbg !969

bb21:                                             ; preds = %bb6
  %16 = cmpxchg ptr %dst, i64 %old, i64 %new seq_cst monotonic, align 8, !dbg !970
  %17 = extractvalue { i64, i1 } %16, 0, !dbg !970
  %18 = extractvalue { i64, i1 } %16, 1, !dbg !970
  %19 = zext i1 %18 to i8, !dbg !970
  store i64 %17, ptr %_8, align 8, !dbg !970
  %20 = getelementptr inbounds { i64, i8 }, ptr %_8, i32 0, i32 1, !dbg !970
  store i8 %19, ptr %20, align 8, !dbg !970
  br label %bb27, !dbg !970

bb22:                                             ; preds = %bb6
  %21 = cmpxchg ptr %dst, i64 %old, i64 %new seq_cst acquire, align 8, !dbg !971
  %22 = extractvalue { i64, i1 } %21, 0, !dbg !971
  %23 = extractvalue { i64, i1 } %21, 1, !dbg !971
  %24 = zext i1 %23 to i8, !dbg !971
  store i64 %22, ptr %_8, align 8, !dbg !971
  %25 = getelementptr inbounds { i64, i8 }, ptr %_8, i32 0, i32 1, !dbg !971
  store i8 %24, ptr %25, align 8, !dbg !971
  br label %bb27, !dbg !971

bb23:                                             ; preds = %bb6
  %26 = cmpxchg ptr %dst, i64 %old, i64 %new seq_cst seq_cst, align 8, !dbg !972
  %27 = extractvalue { i64, i1 } %26, 0, !dbg !972
  %28 = extractvalue { i64, i1 } %26, 1, !dbg !972
  %29 = zext i1 %28 to i8, !dbg !972
  store i64 %27, ptr %_8, align 8, !dbg !972
  %30 = getelementptr inbounds { i64, i8 }, ptr %_8, i32 0, i32 1, !dbg !972
  store i8 %29, ptr %30, align 8, !dbg !972
  br label %bb27, !dbg !972

bb27:                                             ; preds = %bb9, %bb10, %bb11, %bb15, %bb16, %bb17, %bb12, %bb13, %bb14, %bb18, %bb19, %bb20, %bb21, %bb22, %bb23
  %val = load i64, ptr %_8, align 8, !dbg !973, !noundef !18
  store i64 %val, ptr %val.dbg.spill, align 8, !dbg !973
  call void @llvm.dbg.declare(metadata ptr %val.dbg.spill, metadata !960, metadata !DIExpression()), !dbg !974
  %31 = getelementptr inbounds { i64, i8 }, ptr %_8, i32 0, i32 1, !dbg !975
  %32 = load i8, ptr %31, align 8, !dbg !975, !range !810, !noundef !18
  %ok = trunc i8 %32 to i1, !dbg !975
  %33 = zext i1 %ok to i8, !dbg !975
  store i8 %33, ptr %ok.dbg.spill, align 1, !dbg !975
  call void @llvm.dbg.declare(metadata ptr %ok.dbg.spill, metadata !962, metadata !DIExpression()), !dbg !976
  br i1 %ok, label %bb28, label %bb29, !dbg !977

bb18:                                             ; preds = %bb5
  %34 = cmpxchg ptr %dst, i64 %old, i64 %new acq_rel monotonic, align 8, !dbg !978
  %35 = extractvalue { i64, i1 } %34, 0, !dbg !978
  %36 = extractvalue { i64, i1 } %34, 1, !dbg !978
  %37 = zext i1 %36 to i8, !dbg !978
  store i64 %35, ptr %_8, align 8, !dbg !978
  %38 = getelementptr inbounds { i64, i8 }, ptr %_8, i32 0, i32 1, !dbg !978
  store i8 %37, ptr %38, align 8, !dbg !978
  br label %bb27, !dbg !978

bb19:                                             ; preds = %bb5
  %39 = cmpxchg ptr %dst, i64 %old, i64 %new acq_rel acquire, align 8, !dbg !979
  %40 = extractvalue { i64, i1 } %39, 0, !dbg !979
  %41 = extractvalue { i64, i1 } %39, 1, !dbg !979
  %42 = zext i1 %41 to i8, !dbg !979
  store i64 %40, ptr %_8, align 8, !dbg !979
  %43 = getelementptr inbounds { i64, i8 }, ptr %_8, i32 0, i32 1, !dbg !979
  store i8 %42, ptr %43, align 8, !dbg !979
  br label %bb27, !dbg !979

bb20:                                             ; preds = %bb5
  %44 = cmpxchg ptr %dst, i64 %old, i64 %new acq_rel seq_cst, align 8, !dbg !980
  %45 = extractvalue { i64, i1 } %44, 0, !dbg !980
  %46 = extractvalue { i64, i1 } %44, 1, !dbg !980
  %47 = zext i1 %46 to i8, !dbg !980
  store i64 %45, ptr %_8, align 8, !dbg !980
  %48 = getelementptr inbounds { i64, i8 }, ptr %_8, i32 0, i32 1, !dbg !980
  store i8 %47, ptr %48, align 8, !dbg !980
  br label %bb27, !dbg !980

bb12:                                             ; preds = %bb4
  %49 = cmpxchg ptr %dst, i64 %old, i64 %new acquire monotonic, align 8, !dbg !981
  %50 = extractvalue { i64, i1 } %49, 0, !dbg !981
  %51 = extractvalue { i64, i1 } %49, 1, !dbg !981
  %52 = zext i1 %51 to i8, !dbg !981
  store i64 %50, ptr %_8, align 8, !dbg !981
  %53 = getelementptr inbounds { i64, i8 }, ptr %_8, i32 0, i32 1, !dbg !981
  store i8 %52, ptr %53, align 8, !dbg !981
  br label %bb27, !dbg !981

bb13:                                             ; preds = %bb4
  %54 = cmpxchg ptr %dst, i64 %old, i64 %new acquire acquire, align 8, !dbg !982
  %55 = extractvalue { i64, i1 } %54, 0, !dbg !982
  %56 = extractvalue { i64, i1 } %54, 1, !dbg !982
  %57 = zext i1 %56 to i8, !dbg !982
  store i64 %55, ptr %_8, align 8, !dbg !982
  %58 = getelementptr inbounds { i64, i8 }, ptr %_8, i32 0, i32 1, !dbg !982
  store i8 %57, ptr %58, align 8, !dbg !982
  br label %bb27, !dbg !982

bb14:                                             ; preds = %bb4
  %59 = cmpxchg ptr %dst, i64 %old, i64 %new acquire seq_cst, align 8, !dbg !983
  %60 = extractvalue { i64, i1 } %59, 0, !dbg !983
  %61 = extractvalue { i64, i1 } %59, 1, !dbg !983
  %62 = zext i1 %61 to i8, !dbg !983
  store i64 %60, ptr %_8, align 8, !dbg !983
  %63 = getelementptr inbounds { i64, i8 }, ptr %_8, i32 0, i32 1, !dbg !983
  store i8 %62, ptr %63, align 8, !dbg !983
  br label %bb27, !dbg !983

bb15:                                             ; preds = %bb3
  %64 = cmpxchg ptr %dst, i64 %old, i64 %new release monotonic, align 8, !dbg !984
  %65 = extractvalue { i64, i1 } %64, 0, !dbg !984
  %66 = extractvalue { i64, i1 } %64, 1, !dbg !984
  %67 = zext i1 %66 to i8, !dbg !984
  store i64 %65, ptr %_8, align 8, !dbg !984
  %68 = getelementptr inbounds { i64, i8 }, ptr %_8, i32 0, i32 1, !dbg !984
  store i8 %67, ptr %68, align 8, !dbg !984
  br label %bb27, !dbg !984

bb16:                                             ; preds = %bb3
  %69 = cmpxchg ptr %dst, i64 %old, i64 %new release acquire, align 8, !dbg !985
  %70 = extractvalue { i64, i1 } %69, 0, !dbg !985
  %71 = extractvalue { i64, i1 } %69, 1, !dbg !985
  %72 = zext i1 %71 to i8, !dbg !985
  store i64 %70, ptr %_8, align 8, !dbg !985
  %73 = getelementptr inbounds { i64, i8 }, ptr %_8, i32 0, i32 1, !dbg !985
  store i8 %72, ptr %73, align 8, !dbg !985
  br label %bb27, !dbg !985

bb17:                                             ; preds = %bb3
  %74 = cmpxchg ptr %dst, i64 %old, i64 %new release seq_cst, align 8, !dbg !986
  %75 = extractvalue { i64, i1 } %74, 0, !dbg !986
  %76 = extractvalue { i64, i1 } %74, 1, !dbg !986
  %77 = zext i1 %76 to i8, !dbg !986
  store i64 %75, ptr %_8, align 8, !dbg !986
  %78 = getelementptr inbounds { i64, i8 }, ptr %_8, i32 0, i32 1, !dbg !986
  store i8 %77, ptr %78, align 8, !dbg !986
  br label %bb27, !dbg !986

bb9:                                              ; preds = %bb1
  %79 = cmpxchg ptr %dst, i64 %old, i64 %new monotonic monotonic, align 8, !dbg !987
  %80 = extractvalue { i64, i1 } %79, 0, !dbg !987
  %81 = extractvalue { i64, i1 } %79, 1, !dbg !987
  %82 = zext i1 %81 to i8, !dbg !987
  store i64 %80, ptr %_8, align 8, !dbg !987
  %83 = getelementptr inbounds { i64, i8 }, ptr %_8, i32 0, i32 1, !dbg !987
  store i8 %82, ptr %83, align 8, !dbg !987
  br label %bb27, !dbg !987

bb10:                                             ; preds = %bb1
  %84 = cmpxchg ptr %dst, i64 %old, i64 %new monotonic acquire, align 8, !dbg !988
  %85 = extractvalue { i64, i1 } %84, 0, !dbg !988
  %86 = extractvalue { i64, i1 } %84, 1, !dbg !988
  %87 = zext i1 %86 to i8, !dbg !988
  store i64 %85, ptr %_8, align 8, !dbg !988
  %88 = getelementptr inbounds { i64, i8 }, ptr %_8, i32 0, i32 1, !dbg !988
  store i8 %87, ptr %88, align 8, !dbg !988
  br label %bb27, !dbg !988

bb11:                                             ; preds = %bb1
  %89 = cmpxchg ptr %dst, i64 %old, i64 %new monotonic seq_cst, align 8, !dbg !989
  %90 = extractvalue { i64, i1 } %89, 0, !dbg !989
  %91 = extractvalue { i64, i1 } %89, 1, !dbg !989
  %92 = zext i1 %91 to i8, !dbg !989
  store i64 %90, ptr %_8, align 8, !dbg !989
  %93 = getelementptr inbounds { i64, i8 }, ptr %_8, i32 0, i32 1, !dbg !989
  store i8 %92, ptr %93, align 8, !dbg !989
  br label %bb27, !dbg !989

bb8:                                              ; preds = %bb2
; call core::fmt::Arguments::new_const
  call void @_ZN4core3fmt9Arguments9new_const17h66f25d9658999536E(ptr sret(%"core::fmt::Arguments<'_>") %_21, ptr align 8 @alloc_406c3ccfb949c60617508c1453ca62ba, i64 1) #8, !dbg !990
; call core::panicking::panic_fmt
  call void @_ZN4core9panicking9panic_fmt17hcab56c0eeadf4812E(ptr %_21, ptr align 8 @alloc_583a85a376e0d8f51228e1277b5fd2ec) #11, !dbg !990
  unreachable, !dbg !990

bb24:                                             ; preds = %bb2
; call core::fmt::Arguments::new_const
  call void @_ZN4core3fmt9Arguments9new_const17h66f25d9658999536E(ptr sret(%"core::fmt::Arguments<'_>") %_18, ptr align 8 @alloc_53963eedc63e9e4352c653ec571ba638, i64 1) #8, !dbg !991
; call core::panicking::panic_fmt
  call void @_ZN4core9panicking9panic_fmt17hcab56c0eeadf4812E(ptr %_18, ptr align 8 @alloc_10b6bb6b97ab107accea837fec1d394c) #11, !dbg !991
  unreachable, !dbg !991

bb29:                                             ; preds = %bb27
  %94 = getelementptr inbounds { i64, i64 }, ptr %0, i32 0, i32 1, !dbg !992
  store i64 %val, ptr %94, align 8, !dbg !992
  store i64 1, ptr %0, align 8, !dbg !992
  br label %bb30, !dbg !993

bb28:                                             ; preds = %bb27
  %95 = getelementptr inbounds { i64, i64 }, ptr %0, i32 0, i32 1, !dbg !994
  store i64 %val, ptr %95, align 8, !dbg !994
  store i64 0, ptr %0, align 8, !dbg !994
  br label %bb30, !dbg !993

bb30:                                             ; preds = %bb29, %bb28
  %96 = getelementptr inbounds { i64, i64 }, ptr %0, i32 0, i32 0, !dbg !995
  %97 = load i64, ptr %96, align 8, !dbg !995, !range !869, !noundef !18
  %98 = getelementptr inbounds { i64, i64 }, ptr %0, i32 0, i32 1, !dbg !995
  %99 = load i64, ptr %98, align 8, !dbg !995, !noundef !18
  %100 = insertvalue { i64, i64 } poison, i64 %97, 0, !dbg !995
  %101 = insertvalue { i64, i64 } %100, i64 %99, 1, !dbg !995
  ret { i64, i64 } %101, !dbg !995
}

; core::sync::atomic::strongest_failure_ordering
; Function Attrs: inlinehint noredzone nounwind
define internal i8 @_ZN4core4sync6atomic26strongest_failure_ordering17h00356692c6024835E(i8 %0) unnamed_addr #0 !dbg !996 {
start:
  %1 = alloca i8, align 1
  %order = alloca i8, align 1
  store i8 %0, ptr %order, align 1
  call void @llvm.dbg.declare(metadata ptr %order, metadata !1000, metadata !DIExpression()), !dbg !1001
  %2 = load i8, ptr %order, align 1, !dbg !1002, !range !867, !noundef !18
  %_2 = zext i8 %2 to i64, !dbg !1002
  switch i64 %_2, label %bb2 [
    i64 0, label %bb4
    i64 1, label %bb3
    i64 2, label %bb6
    i64 3, label %bb1
    i64 4, label %bb5
  ], !dbg !1003

bb2:                                              ; preds = %start
  unreachable, !dbg !1002

bb4:                                              ; preds = %start
  store i8 0, ptr %1, align 1, !dbg !1004
  br label %bb7, !dbg !1004

bb3:                                              ; preds = %start
  store i8 0, ptr %1, align 1, !dbg !1005
  br label %bb7, !dbg !1005

bb6:                                              ; preds = %start
  store i8 2, ptr %1, align 1, !dbg !1006
  br label %bb7, !dbg !1006

bb1:                                              ; preds = %start
  store i8 2, ptr %1, align 1, !dbg !1007
  br label %bb7, !dbg !1007

bb5:                                              ; preds = %start
  store i8 4, ptr %1, align 1, !dbg !1008
  br label %bb7, !dbg !1008

bb7:                                              ; preds = %bb4, %bb3, %bb6, %bb1, %bb5
  %3 = load i8, ptr %1, align 1, !dbg !1009, !range !867, !noundef !18
  ret i8 %3, !dbg !1009
}

; core::sync::atomic::atomic_compare_exchange_weak
; Function Attrs: inlinehint noredzone nounwind
define { i8, i8 } @_ZN4core4sync6atomic28atomic_compare_exchange_weak17hbaf99bd44237c9b3E(ptr %dst, i8 %old, i8 %new, i8 %success, i8 %failure) unnamed_addr #0 !dbg !1010 {
start:
  %ok.dbg.spill = alloca i8, align 1
  %val.dbg.spill = alloca i8, align 1
  %failure.dbg.spill = alloca i8, align 1
  %success.dbg.spill = alloca i8, align 1
  %new.dbg.spill = alloca i8, align 1
  %old.dbg.spill = alloca i8, align 1
  %dst.dbg.spill = alloca ptr, align 8
  %_21 = alloca %"core::fmt::Arguments<'_>", align 8
  %_18 = alloca %"core::fmt::Arguments<'_>", align 8
  %_9 = alloca { i8, i8 }, align 1
  %_8 = alloca { i8, i8 }, align 1
  %0 = alloca { i8, i8 }, align 1
  store ptr %dst, ptr %dst.dbg.spill, align 8
  call void @llvm.dbg.declare(metadata ptr %dst.dbg.spill, metadata !1029, metadata !DIExpression()), !dbg !1037
  store i8 %old, ptr %old.dbg.spill, align 1
  call void @llvm.dbg.declare(metadata ptr %old.dbg.spill, metadata !1030, metadata !DIExpression()), !dbg !1038
  store i8 %new, ptr %new.dbg.spill, align 1
  call void @llvm.dbg.declare(metadata ptr %new.dbg.spill, metadata !1031, metadata !DIExpression()), !dbg !1039
  store i8 %success, ptr %success.dbg.spill, align 1
  call void @llvm.dbg.declare(metadata ptr %success.dbg.spill, metadata !1032, metadata !DIExpression()), !dbg !1040
  store i8 %failure, ptr %failure.dbg.spill, align 1
  call void @llvm.dbg.declare(metadata ptr %failure.dbg.spill, metadata !1033, metadata !DIExpression()), !dbg !1041
  store i8 %success, ptr %_9, align 1, !dbg !1042
  %1 = getelementptr inbounds { i8, i8 }, ptr %_9, i32 0, i32 1, !dbg !1042
  store i8 %failure, ptr %1, align 1, !dbg !1042
  %2 = load i8, ptr %_9, align 1, !dbg !1042, !range !867, !noundef !18
  %_16 = zext i8 %2 to i64, !dbg !1042
  switch i64 %_16, label %bb7 [
    i64 0, label %bb1
    i64 1, label %bb3
    i64 2, label %bb4
    i64 3, label %bb5
    i64 4, label %bb6
  ], !dbg !1043

bb7:                                              ; preds = %start
  unreachable, !dbg !1042

bb1:                                              ; preds = %start
  %3 = getelementptr inbounds { i8, i8 }, ptr %_9, i32 0, i32 1, !dbg !1042
  %4 = load i8, ptr %3, align 1, !dbg !1042, !range !867, !noundef !18
  %_10 = zext i8 %4 to i64, !dbg !1042
  switch i64 %_10, label %bb2 [
    i64 0, label %bb9
    i64 2, label %bb10
    i64 4, label %bb11
  ], !dbg !1043

bb3:                                              ; preds = %start
  %5 = getelementptr inbounds { i8, i8 }, ptr %_9, i32 0, i32 1, !dbg !1042
  %6 = load i8, ptr %5, align 1, !dbg !1042, !range !867, !noundef !18
  %_11 = zext i8 %6 to i64, !dbg !1042
  switch i64 %_11, label %bb2 [
    i64 0, label %bb15
    i64 2, label %bb16
    i64 4, label %bb17
  ], !dbg !1043

bb4:                                              ; preds = %start
  %7 = getelementptr inbounds { i8, i8 }, ptr %_9, i32 0, i32 1, !dbg !1042
  %8 = load i8, ptr %7, align 1, !dbg !1042, !range !867, !noundef !18
  %_12 = zext i8 %8 to i64, !dbg !1042
  switch i64 %_12, label %bb2 [
    i64 0, label %bb12
    i64 2, label %bb13
    i64 4, label %bb14
  ], !dbg !1043

bb5:                                              ; preds = %start
  %9 = getelementptr inbounds { i8, i8 }, ptr %_9, i32 0, i32 1, !dbg !1042
  %10 = load i8, ptr %9, align 1, !dbg !1042, !range !867, !noundef !18
  %_13 = zext i8 %10 to i64, !dbg !1042
  switch i64 %_13, label %bb2 [
    i64 0, label %bb18
    i64 2, label %bb19
    i64 4, label %bb20
  ], !dbg !1043

bb6:                                              ; preds = %start
  %11 = getelementptr inbounds { i8, i8 }, ptr %_9, i32 0, i32 1, !dbg !1042
  %12 = load i8, ptr %11, align 1, !dbg !1042, !range !867, !noundef !18
  %_14 = zext i8 %12 to i64, !dbg !1042
  switch i64 %_14, label %bb2 [
    i64 0, label %bb21
    i64 2, label %bb22
    i64 4, label %bb23
  ], !dbg !1043

bb2:                                              ; preds = %bb1, %bb3, %bb4, %bb5, %bb6
  %13 = getelementptr inbounds { i8, i8 }, ptr %_9, i32 0, i32 1, !dbg !1042
  %14 = load i8, ptr %13, align 1, !dbg !1042, !range !867, !noundef !18
  %_15 = zext i8 %14 to i64, !dbg !1042
  %15 = icmp eq i64 %_15, 1, !dbg !1043
  br i1 %15, label %bb8, label %bb24, !dbg !1043

bb21:                                             ; preds = %bb6
  %16 = cmpxchg weak ptr %dst, i8 %old, i8 %new seq_cst monotonic, align 1, !dbg !1044
  %17 = extractvalue { i8, i1 } %16, 0, !dbg !1044
  %18 = extractvalue { i8, i1 } %16, 1, !dbg !1044
  %19 = zext i1 %18 to i8, !dbg !1044
  store i8 %17, ptr %_8, align 1, !dbg !1044
  %20 = getelementptr inbounds { i8, i8 }, ptr %_8, i32 0, i32 1, !dbg !1044
  store i8 %19, ptr %20, align 1, !dbg !1044
  br label %bb27, !dbg !1044

bb22:                                             ; preds = %bb6
  %21 = cmpxchg weak ptr %dst, i8 %old, i8 %new seq_cst acquire, align 1, !dbg !1045
  %22 = extractvalue { i8, i1 } %21, 0, !dbg !1045
  %23 = extractvalue { i8, i1 } %21, 1, !dbg !1045
  %24 = zext i1 %23 to i8, !dbg !1045
  store i8 %22, ptr %_8, align 1, !dbg !1045
  %25 = getelementptr inbounds { i8, i8 }, ptr %_8, i32 0, i32 1, !dbg !1045
  store i8 %24, ptr %25, align 1, !dbg !1045
  br label %bb27, !dbg !1045

bb23:                                             ; preds = %bb6
  %26 = cmpxchg weak ptr %dst, i8 %old, i8 %new seq_cst seq_cst, align 1, !dbg !1046
  %27 = extractvalue { i8, i1 } %26, 0, !dbg !1046
  %28 = extractvalue { i8, i1 } %26, 1, !dbg !1046
  %29 = zext i1 %28 to i8, !dbg !1046
  store i8 %27, ptr %_8, align 1, !dbg !1046
  %30 = getelementptr inbounds { i8, i8 }, ptr %_8, i32 0, i32 1, !dbg !1046
  store i8 %29, ptr %30, align 1, !dbg !1046
  br label %bb27, !dbg !1046

bb27:                                             ; preds = %bb9, %bb10, %bb11, %bb15, %bb16, %bb17, %bb12, %bb13, %bb14, %bb18, %bb19, %bb20, %bb21, %bb22, %bb23
  %val = load i8, ptr %_8, align 1, !dbg !1047, !noundef !18
  store i8 %val, ptr %val.dbg.spill, align 1, !dbg !1047
  call void @llvm.dbg.declare(metadata ptr %val.dbg.spill, metadata !1034, metadata !DIExpression()), !dbg !1048
  %31 = getelementptr inbounds { i8, i8 }, ptr %_8, i32 0, i32 1, !dbg !1049
  %32 = load i8, ptr %31, align 1, !dbg !1049, !range !810, !noundef !18
  %ok = trunc i8 %32 to i1, !dbg !1049
  %33 = zext i1 %ok to i8, !dbg !1049
  store i8 %33, ptr %ok.dbg.spill, align 1, !dbg !1049
  call void @llvm.dbg.declare(metadata ptr %ok.dbg.spill, metadata !1036, metadata !DIExpression()), !dbg !1050
  br i1 %ok, label %bb28, label %bb29, !dbg !1051

bb18:                                             ; preds = %bb5
  %34 = cmpxchg weak ptr %dst, i8 %old, i8 %new acq_rel monotonic, align 1, !dbg !1052
  %35 = extractvalue { i8, i1 } %34, 0, !dbg !1052
  %36 = extractvalue { i8, i1 } %34, 1, !dbg !1052
  %37 = zext i1 %36 to i8, !dbg !1052
  store i8 %35, ptr %_8, align 1, !dbg !1052
  %38 = getelementptr inbounds { i8, i8 }, ptr %_8, i32 0, i32 1, !dbg !1052
  store i8 %37, ptr %38, align 1, !dbg !1052
  br label %bb27, !dbg !1052

bb19:                                             ; preds = %bb5
  %39 = cmpxchg weak ptr %dst, i8 %old, i8 %new acq_rel acquire, align 1, !dbg !1053
  %40 = extractvalue { i8, i1 } %39, 0, !dbg !1053
  %41 = extractvalue { i8, i1 } %39, 1, !dbg !1053
  %42 = zext i1 %41 to i8, !dbg !1053
  store i8 %40, ptr %_8, align 1, !dbg !1053
  %43 = getelementptr inbounds { i8, i8 }, ptr %_8, i32 0, i32 1, !dbg !1053
  store i8 %42, ptr %43, align 1, !dbg !1053
  br label %bb27, !dbg !1053

bb20:                                             ; preds = %bb5
  %44 = cmpxchg weak ptr %dst, i8 %old, i8 %new acq_rel seq_cst, align 1, !dbg !1054
  %45 = extractvalue { i8, i1 } %44, 0, !dbg !1054
  %46 = extractvalue { i8, i1 } %44, 1, !dbg !1054
  %47 = zext i1 %46 to i8, !dbg !1054
  store i8 %45, ptr %_8, align 1, !dbg !1054
  %48 = getelementptr inbounds { i8, i8 }, ptr %_8, i32 0, i32 1, !dbg !1054
  store i8 %47, ptr %48, align 1, !dbg !1054
  br label %bb27, !dbg !1054

bb12:                                             ; preds = %bb4
  %49 = cmpxchg weak ptr %dst, i8 %old, i8 %new acquire monotonic, align 1, !dbg !1055
  %50 = extractvalue { i8, i1 } %49, 0, !dbg !1055
  %51 = extractvalue { i8, i1 } %49, 1, !dbg !1055
  %52 = zext i1 %51 to i8, !dbg !1055
  store i8 %50, ptr %_8, align 1, !dbg !1055
  %53 = getelementptr inbounds { i8, i8 }, ptr %_8, i32 0, i32 1, !dbg !1055
  store i8 %52, ptr %53, align 1, !dbg !1055
  br label %bb27, !dbg !1055

bb13:                                             ; preds = %bb4
  %54 = cmpxchg weak ptr %dst, i8 %old, i8 %new acquire acquire, align 1, !dbg !1056
  %55 = extractvalue { i8, i1 } %54, 0, !dbg !1056
  %56 = extractvalue { i8, i1 } %54, 1, !dbg !1056
  %57 = zext i1 %56 to i8, !dbg !1056
  store i8 %55, ptr %_8, align 1, !dbg !1056
  %58 = getelementptr inbounds { i8, i8 }, ptr %_8, i32 0, i32 1, !dbg !1056
  store i8 %57, ptr %58, align 1, !dbg !1056
  br label %bb27, !dbg !1056

bb14:                                             ; preds = %bb4
  %59 = cmpxchg weak ptr %dst, i8 %old, i8 %new acquire seq_cst, align 1, !dbg !1057
  %60 = extractvalue { i8, i1 } %59, 0, !dbg !1057
  %61 = extractvalue { i8, i1 } %59, 1, !dbg !1057
  %62 = zext i1 %61 to i8, !dbg !1057
  store i8 %60, ptr %_8, align 1, !dbg !1057
  %63 = getelementptr inbounds { i8, i8 }, ptr %_8, i32 0, i32 1, !dbg !1057
  store i8 %62, ptr %63, align 1, !dbg !1057
  br label %bb27, !dbg !1057

bb15:                                             ; preds = %bb3
  %64 = cmpxchg weak ptr %dst, i8 %old, i8 %new release monotonic, align 1, !dbg !1058
  %65 = extractvalue { i8, i1 } %64, 0, !dbg !1058
  %66 = extractvalue { i8, i1 } %64, 1, !dbg !1058
  %67 = zext i1 %66 to i8, !dbg !1058
  store i8 %65, ptr %_8, align 1, !dbg !1058
  %68 = getelementptr inbounds { i8, i8 }, ptr %_8, i32 0, i32 1, !dbg !1058
  store i8 %67, ptr %68, align 1, !dbg !1058
  br label %bb27, !dbg !1058

bb16:                                             ; preds = %bb3
  %69 = cmpxchg weak ptr %dst, i8 %old, i8 %new release acquire, align 1, !dbg !1059
  %70 = extractvalue { i8, i1 } %69, 0, !dbg !1059
  %71 = extractvalue { i8, i1 } %69, 1, !dbg !1059
  %72 = zext i1 %71 to i8, !dbg !1059
  store i8 %70, ptr %_8, align 1, !dbg !1059
  %73 = getelementptr inbounds { i8, i8 }, ptr %_8, i32 0, i32 1, !dbg !1059
  store i8 %72, ptr %73, align 1, !dbg !1059
  br label %bb27, !dbg !1059

bb17:                                             ; preds = %bb3
  %74 = cmpxchg weak ptr %dst, i8 %old, i8 %new release seq_cst, align 1, !dbg !1060
  %75 = extractvalue { i8, i1 } %74, 0, !dbg !1060
  %76 = extractvalue { i8, i1 } %74, 1, !dbg !1060
  %77 = zext i1 %76 to i8, !dbg !1060
  store i8 %75, ptr %_8, align 1, !dbg !1060
  %78 = getelementptr inbounds { i8, i8 }, ptr %_8, i32 0, i32 1, !dbg !1060
  store i8 %77, ptr %78, align 1, !dbg !1060
  br label %bb27, !dbg !1060

bb9:                                              ; preds = %bb1
  %79 = cmpxchg weak ptr %dst, i8 %old, i8 %new monotonic monotonic, align 1, !dbg !1061
  %80 = extractvalue { i8, i1 } %79, 0, !dbg !1061
  %81 = extractvalue { i8, i1 } %79, 1, !dbg !1061
  %82 = zext i1 %81 to i8, !dbg !1061
  store i8 %80, ptr %_8, align 1, !dbg !1061
  %83 = getelementptr inbounds { i8, i8 }, ptr %_8, i32 0, i32 1, !dbg !1061
  store i8 %82, ptr %83, align 1, !dbg !1061
  br label %bb27, !dbg !1061

bb10:                                             ; preds = %bb1
  %84 = cmpxchg weak ptr %dst, i8 %old, i8 %new monotonic acquire, align 1, !dbg !1062
  %85 = extractvalue { i8, i1 } %84, 0, !dbg !1062
  %86 = extractvalue { i8, i1 } %84, 1, !dbg !1062
  %87 = zext i1 %86 to i8, !dbg !1062
  store i8 %85, ptr %_8, align 1, !dbg !1062
  %88 = getelementptr inbounds { i8, i8 }, ptr %_8, i32 0, i32 1, !dbg !1062
  store i8 %87, ptr %88, align 1, !dbg !1062
  br label %bb27, !dbg !1062

bb11:                                             ; preds = %bb1
  %89 = cmpxchg weak ptr %dst, i8 %old, i8 %new monotonic seq_cst, align 1, !dbg !1063
  %90 = extractvalue { i8, i1 } %89, 0, !dbg !1063
  %91 = extractvalue { i8, i1 } %89, 1, !dbg !1063
  %92 = zext i1 %91 to i8, !dbg !1063
  store i8 %90, ptr %_8, align 1, !dbg !1063
  %93 = getelementptr inbounds { i8, i8 }, ptr %_8, i32 0, i32 1, !dbg !1063
  store i8 %92, ptr %93, align 1, !dbg !1063
  br label %bb27, !dbg !1063

bb8:                                              ; preds = %bb2
; call core::fmt::Arguments::new_const
  call void @_ZN4core3fmt9Arguments9new_const17h66f25d9658999536E(ptr sret(%"core::fmt::Arguments<'_>") %_21, ptr align 8 @alloc_406c3ccfb949c60617508c1453ca62ba, i64 1) #8, !dbg !1064
; call core::panicking::panic_fmt
  call void @_ZN4core9panicking9panic_fmt17hcab56c0eeadf4812E(ptr %_21, ptr align 8 @alloc_4cf9f99451528b560554700e72654694) #11, !dbg !1064
  unreachable, !dbg !1064

bb24:                                             ; preds = %bb2
; call core::fmt::Arguments::new_const
  call void @_ZN4core3fmt9Arguments9new_const17h66f25d9658999536E(ptr sret(%"core::fmt::Arguments<'_>") %_18, ptr align 8 @alloc_53963eedc63e9e4352c653ec571ba638, i64 1) #8, !dbg !1065
; call core::panicking::panic_fmt
  call void @_ZN4core9panicking9panic_fmt17hcab56c0eeadf4812E(ptr %_18, ptr align 8 @alloc_3c12d47b9e3f0c15a9b67fda6ea229d3) #11, !dbg !1065
  unreachable, !dbg !1065

bb29:                                             ; preds = %bb27
  %94 = getelementptr inbounds { i8, i8 }, ptr %0, i32 0, i32 1, !dbg !1066
  store i8 %val, ptr %94, align 1, !dbg !1066
  store i8 1, ptr %0, align 1, !dbg !1066
  br label %bb30, !dbg !1067

bb28:                                             ; preds = %bb27
  %95 = getelementptr inbounds { i8, i8 }, ptr %0, i32 0, i32 1, !dbg !1068
  store i8 %val, ptr %95, align 1, !dbg !1068
  store i8 0, ptr %0, align 1, !dbg !1068
  br label %bb30, !dbg !1067

bb30:                                             ; preds = %bb29, %bb28
  %96 = getelementptr inbounds { i8, i8 }, ptr %0, i32 0, i32 0, !dbg !1069
  %97 = load i8, ptr %96, align 1, !dbg !1069, !range !810, !noundef !18
  %98 = trunc i8 %97 to i1, !dbg !1069
  %99 = getelementptr inbounds { i8, i8 }, ptr %0, i32 0, i32 1, !dbg !1069
  %100 = load i8, ptr %99, align 1, !dbg !1069, !noundef !18
  %101 = zext i1 %98 to i8, !dbg !1069
  %102 = insertvalue { i8, i8 } poison, i8 %101, 0, !dbg !1069
  %103 = insertvalue { i8, i8 } %102, i8 %100, 1, !dbg !1069
  ret { i8, i8 } %103, !dbg !1069
}

; core::option::Option<T>::as_ref
; Function Attrs: inlinehint noredzone nounwind
define align 8 ptr @"_ZN4core6option15Option$LT$T$GT$6as_ref17h35f5d75130a10bc7E"(ptr align 8 %self) unnamed_addr #0 !dbg !1070 {
start:
  %x.dbg.spill = alloca ptr, align 8
  %self.dbg.spill = alloca ptr, align 8
  %0 = alloca ptr, align 8
  store ptr %self, ptr %self.dbg.spill, align 8
  call void @llvm.dbg.declare(metadata ptr %self.dbg.spill, metadata !1090, metadata !DIExpression()), !dbg !1093
  %_2 = load i64, ptr %self, align 8, !dbg !1094, !range !869, !noundef !18
  %1 = icmp eq i64 %_2, 0, !dbg !1095
  br i1 %1, label %bb1, label %bb3, !dbg !1095

bb1:                                              ; preds = %start
  store ptr null, ptr %0, align 8, !dbg !1096
  br label %bb4, !dbg !1096

bb3:                                              ; preds = %start
  %x = getelementptr inbounds %"core::option::Option<global_descriptor_table::GlobalDescriptorTableSetup>::Some", ptr %self, i32 0, i32 1, !dbg !1097
  store ptr %x, ptr %x.dbg.spill, align 8, !dbg !1097
  call void @llvm.dbg.declare(metadata ptr %x.dbg.spill, metadata !1091, metadata !DIExpression()), !dbg !1098
  store ptr %x, ptr %0, align 8, !dbg !1099
  br label %bb4, !dbg !1100

bb2:                                              ; No predecessors!
  unreachable, !dbg !1094

bb4:                                              ; preds = %bb1, %bb3
  %2 = load ptr, ptr %0, align 8, !dbg !1101, !align !621, !noundef !18
  ret ptr %2, !dbg !1101
}

; core::result::Result<T,E>::is_ok
; Function Attrs: inlinehint noredzone nounwind
define zeroext i1 @"_ZN4core6result19Result$LT$T$C$E$GT$5is_ok17hc07935ef4a23fc5aE"(ptr align 1 %self) unnamed_addr #0 !dbg !1102 {
start:
  %self.dbg.spill = alloca ptr, align 8
  %0 = alloca i8, align 1
  store ptr %self, ptr %self.dbg.spill, align 8
  call void @llvm.dbg.declare(metadata ptr %self.dbg.spill, metadata !1108, metadata !DIExpression()), !dbg !1109
  %1 = load i8, ptr %self, align 1, !dbg !1110, !range !810, !noundef !18
  %2 = trunc i8 %1 to i1, !dbg !1110
  %_2 = zext i1 %2 to i64, !dbg !1110
  %3 = icmp eq i64 %_2, 0, !dbg !1111
  br i1 %3, label %bb2, label %bb1, !dbg !1111

bb2:                                              ; preds = %start
  store i8 1, ptr %0, align 1, !dbg !1111
  br label %bb3, !dbg !1111

bb1:                                              ; preds = %start
  store i8 0, ptr %0, align 1, !dbg !1111
  br label %bb3, !dbg !1111

bb3:                                              ; preds = %bb2, %bb1
  %4 = load i8, ptr %0, align 1, !dbg !1112, !range !810, !noundef !18
  %5 = trunc i8 %4 to i1, !dbg !1112
  ret i1 %5, !dbg !1112
}

; core::result::Result<T,E>::is_err
; Function Attrs: inlinehint noredzone nounwind
define zeroext i1 @"_ZN4core6result19Result$LT$T$C$E$GT$6is_err17h549152b18be4854fE"(ptr align 1 %self) unnamed_addr #0 !dbg !1113 {
start:
  %self.dbg.spill = alloca ptr, align 8
  store ptr %self, ptr %self.dbg.spill, align 8
  call void @llvm.dbg.declare(metadata ptr %self.dbg.spill, metadata !1115, metadata !DIExpression()), !dbg !1116
; call core::result::Result<T,E>::is_ok
  %_2 = call zeroext i1 @"_ZN4core6result19Result$LT$T$C$E$GT$5is_ok17hc07935ef4a23fc5aE"(ptr align 1 %self) #8, !dbg !1117
  %0 = xor i1 %_2, true, !dbg !1118
  ret i1 %0, !dbg !1119
}

; core::core_arch::x86::sse2::_mm_pause
; Function Attrs: inlinehint noredzone nounwind
define internal void @_ZN4core9core_arch3x864sse29_mm_pause17hfaa206f2d2466418E() unnamed_addr #0 !dbg !1120 {
start:
  call void @llvm.x86.sse2.pause() #8, !dbg !1125
  ret void, !dbg !1126
}

; spin::once::Once<T>::call_once
; Function Attrs: noredzone nounwind
define align 8 ptr @"_ZN4spin4once13Once$LT$T$GT$9call_once17h1416d3e4b4d8859dE"(ptr align 8 %self) unnamed_addr #1 !dbg !1127 {
start:
  %self.dbg.spill.i = alloca ptr, align 8
  %builder.dbg.spill = alloca {}, align 1
  %self.dbg.spill = alloca ptr, align 8
  %_33 = alloca i8, align 1
  %_29 = alloca i8, align 1
  %_23 = alloca i8, align 1
  %_16 = alloca %"global_descriptor_table::GlobalDescriptorTableSetup", align 8
  %_15 = alloca %"core::option::Option<global_descriptor_table::GlobalDescriptorTableSetup>", align 8
  %finish = alloca { ptr, i8 }, align 8
  %_10 = alloca i8, align 1
  %_5 = alloca i8, align 1
  %status = alloca i64, align 8
  %0 = alloca ptr, align 8
  store ptr %self, ptr %self.dbg.spill, align 8
  call void @llvm.dbg.declare(metadata ptr %self.dbg.spill, metadata !1133, metadata !DIExpression()), !dbg !1141
  call void @llvm.dbg.declare(metadata ptr %builder.dbg.spill, metadata !1134, metadata !DIExpression()), !dbg !1142
  call void @llvm.dbg.declare(metadata ptr %status, metadata !1135, metadata !DIExpression()), !dbg !1143
  call void @llvm.dbg.declare(metadata ptr %finish, metadata !1137, metadata !DIExpression()), !dbg !1144
  store i8 0, ptr %_33, align 1, !dbg !1145
  store i8 1, ptr %_33, align 1, !dbg !1145
  store i8 4, ptr %_5, align 1, !dbg !1146
  %1 = load i8, ptr %_5, align 1, !dbg !1147, !range !867, !noundef !18
; call core::sync::atomic::AtomicUsize::load
  %2 = call i64 @_ZN4core4sync6atomic11AtomicUsize4load17h5a28a38a55695f7eE(ptr align 8 %self, i8 %1) #8, !dbg !1147
  store i64 %2, ptr %status, align 8, !dbg !1147
  %_7 = load i64, ptr %status, align 8, !dbg !1148, !noundef !18
  %_6 = icmp eq i64 %_7, 0, !dbg !1148
  br i1 %_6, label %bb2, label %bb10, !dbg !1148

bb10:                                             ; preds = %bb13, %bb2, %start
  %3 = load i64, ptr %status, align 8, !dbg !1149, !noundef !18
  switch i64 %3, label %bb11 [
    i64 0, label %bb12
    i64 1, label %bb13
    i64 3, label %bb16
    i64 2, label %bb17
  ], !dbg !1149

bb2:                                              ; preds = %start
  store i8 4, ptr %_10, align 1, !dbg !1150
  %4 = load i8, ptr %_10, align 1, !dbg !1151, !range !867, !noundef !18
; call core::sync::atomic::AtomicUsize::compare_and_swap
  %_8 = call i64 @_ZN4core4sync6atomic11AtomicUsize16compare_and_swap17hc5d0800b4e1fdfecE(ptr align 8 %self, i64 0, i64 1, i8 %4) #8, !dbg !1151
  store i64 %_8, ptr %status, align 8, !dbg !1152
  %_12 = load i64, ptr %status, align 8, !dbg !1153, !noundef !18
  %_11 = icmp eq i64 %_12, 0, !dbg !1153
  br i1 %_11, label %bb4, label %bb10, !dbg !1153

bb4:                                              ; preds = %bb2
  store ptr %self, ptr %finish, align 8, !dbg !1154
  %5 = getelementptr inbounds { ptr, i8 }, ptr %finish, i32 0, i32 1, !dbg !1154
  store i8 1, ptr %5, align 8, !dbg !1154
  store i8 0, ptr %_33, align 1, !dbg !1155
; call core::ops::function::FnOnce::call_once
  call void @_ZN4core3ops8function6FnOnce9call_once17h105e45d47c4a9f96E(ptr sret(%"global_descriptor_table::GlobalDescriptorTableSetup") %_16) #8, !dbg !1155
  %6 = getelementptr inbounds %"core::option::Option<global_descriptor_table::GlobalDescriptorTableSetup>::Some", ptr %_15, i32 0, i32 1, !dbg !1156
  call void @llvm.memcpy.p0.p0.i64(ptr align 8 %6, ptr align 8 %_16, i64 80, i1 false), !dbg !1156
  store i64 1, ptr %_15, align 8, !dbg !1156
  %_19 = getelementptr inbounds %"spin::once::Once<global_descriptor_table::GlobalDescriptorTableSetup>", ptr %self, i32 0, i32 1, !dbg !1157
  store ptr %_19, ptr %self.dbg.spill.i, align 8
  call void @llvm.dbg.declare(metadata ptr %self.dbg.spill.i, metadata !1158, metadata !DIExpression()), !dbg !1165
  call void @llvm.memcpy.p0.p0.i64(ptr align 8 %_19, ptr align 8 %_15, i64 88, i1 false), !dbg !1167
  %7 = getelementptr inbounds { ptr, i8 }, ptr %finish, i32 0, i32 1, !dbg !1168
  store i8 0, ptr %7, align 8, !dbg !1168
  store i64 2, ptr %status, align 8, !dbg !1169
  %_22 = load i64, ptr %status, align 8, !dbg !1170, !noundef !18
  store i8 4, ptr %_23, align 1, !dbg !1171
  %8 = load i8, ptr %_23, align 1, !dbg !1172, !range !867, !noundef !18
; call core::sync::atomic::AtomicUsize::store
  call void @_ZN4core4sync6atomic11AtomicUsize5store17h1e54ea0473d1dc3aE(ptr align 8 %self, i64 %_22, i8 %8) #8, !dbg !1172
; call spin::once::Once<T>::force_get
  %_24 = call align 8 ptr @"_ZN4spin4once13Once$LT$T$GT$9force_get17h8286e33090c800a3E"(ptr align 8 %self) #8, !dbg !1173
  store ptr %_24, ptr %0, align 8, !dbg !1173
; call core::ptr::drop_in_place<spin::once::Finish>
  call void @"_ZN4core3ptr39drop_in_place$LT$spin..once..Finish$GT$17hee23578b0b90aac0E"(ptr %finish) #8, !dbg !1174
  br label %bb19, !dbg !1174

bb19:                                             ; preds = %bb17, %bb4
  %9 = load i8, ptr %_33, align 1, !dbg !1175, !range !810, !noundef !18
  %10 = trunc i8 %9 to i1, !dbg !1175
  br i1 %10, label %bb21, label %bb20, !dbg !1175

bb11:                                             ; preds = %bb10
; call core::hint::unreachable_unchecked
  call void @_ZN4core4hint21unreachable_unchecked17h0c1d23d053224625E() #11, !dbg !1176
  unreachable, !dbg !1176

bb12:                                             ; preds = %bb10
; call core::panicking::panic
  call void @_ZN4core9panicking5panic17h277234a6cd982fe5E(ptr align 1 @alloc_a500d906b91607583596fa15e63c2ada, i64 40, ptr align 8 @alloc_f6d48a4961f7d5070867936e66a7484e) #11, !dbg !1177
  unreachable, !dbg !1177

bb13:                                             ; preds = %bb10
; call core::sync::atomic::spin_loop_hint
  call void @_ZN4core4sync6atomic14spin_loop_hint17h672cd9eba4280658E() #8, !dbg !1178
  store i8 4, ptr %_29, align 1, !dbg !1179
  %11 = load i8, ptr %_29, align 1, !dbg !1180, !range !867, !noundef !18
; call core::sync::atomic::AtomicUsize::load
  %_27 = call i64 @_ZN4core4sync6atomic11AtomicUsize4load17h5a28a38a55695f7eE(ptr align 8 %self, i8 %11) #8, !dbg !1180
  store i64 %_27, ptr %status, align 8, !dbg !1181
  br label %bb10, !dbg !1182

bb16:                                             ; preds = %bb10
; call core::panicking::panic
  call void @_ZN4core9panicking5panic17h277234a6cd982fe5E(ptr align 1 @alloc_b41ce9db6ff9e09c515cee5b4d05db5e, i64 17, ptr align 8 @alloc_14083d05c803f84018d4aa0469014f28) #11, !dbg !1183
  unreachable, !dbg !1183

bb17:                                             ; preds = %bb10
; call spin::once::Once<T>::force_get
  %_31 = call align 8 ptr @"_ZN4spin4once13Once$LT$T$GT$9force_get17h8286e33090c800a3E"(ptr align 8 %self) #8, !dbg !1184
  store ptr %_31, ptr %0, align 8, !dbg !1184
  br label %bb19, !dbg !1185

bb20:                                             ; preds = %bb21, %bb19
  %12 = load ptr, ptr %0, align 8, !dbg !1188, !nonnull !18, !align !621, !noundef !18
  ret ptr %12, !dbg !1188

bb21:                                             ; preds = %bb19
  br label %bb20, !dbg !1175
}

; spin::once::Once<T>::force_get
; Function Attrs: noredzone nounwind
define align 8 ptr @"_ZN4spin4once13Once$LT$T$GT$9force_get17h8286e33090c800a3E"(ptr align 8 %self) unnamed_addr #1 !dbg !1189 {
start:
  %self.dbg.spill.i = alloca ptr, align 8
  %0 = alloca ptr, align 8
  %self.dbg.spill = alloca ptr, align 8
  %_2 = alloca ptr, align 8
  store ptr %self, ptr %self.dbg.spill, align 8
  call void @llvm.dbg.declare(metadata ptr %self.dbg.spill, metadata !1193, metadata !DIExpression()), !dbg !1196
  %_5 = getelementptr inbounds %"spin::once::Once<global_descriptor_table::GlobalDescriptorTableSetup>", ptr %self, i32 0, i32 1, !dbg !1197
  store ptr %_5, ptr %self.dbg.spill.i, align 8
  call void @llvm.dbg.declare(metadata ptr %self.dbg.spill.i, metadata !1158, metadata !DIExpression()), !dbg !1198
; call core::option::Option<T>::as_ref
  %1 = call align 8 ptr @"_ZN4core6option15Option$LT$T$GT$6as_ref17h35f5d75130a10bc7E"(ptr align 8 %_5) #8, !dbg !1200
  store ptr %1, ptr %_2, align 8, !dbg !1200
  %2 = load ptr, ptr %_2, align 8, !dbg !1200, !noundef !18
  %3 = ptrtoint ptr %2 to i64, !dbg !1200
  %4 = icmp eq i64 %3, 0, !dbg !1200
  %_6 = select i1 %4, i64 0, i64 1, !dbg !1200
  %5 = icmp eq i64 %_6, 0, !dbg !1201
  br i1 %5, label %bb5, label %bb3, !dbg !1201

bb5:                                              ; preds = %start
; call core::hint::unreachable_unchecked
  call void @_ZN4core4hint21unreachable_unchecked17h0c1d23d053224625E() #11, !dbg !1202
  unreachable, !dbg !1202

bb3:                                              ; preds = %start
  %6 = load ptr, ptr %_2, align 8, !dbg !1203, !nonnull !18, !align !621, !noundef !18
  store ptr %6, ptr %0, align 8, !dbg !1203
  call void @llvm.dbg.declare(metadata ptr %0, metadata !1194, metadata !DIExpression()), !dbg !1204
  ret ptr %6, !dbg !1205

bb4:                                              ; No predecessors!
  unreachable, !dbg !1200
}

; x86_64::structures::gdt::Descriptor::tss_segment
; Function Attrs: inlinehint noredzone nounwind
define internal void @_ZN6x86_6410structures3gdt10Descriptor11tss_segment17he894c96301eed93bE(ptr sret(%"x86_64::structures::gdt::Descriptor") %0, ptr align 4 %tss) unnamed_addr #0 !dbg !1206 {
start:
  %tss.dbg.spill = alloca ptr, align 8
  %_33 = alloca { i64, i64 }, align 8
  %_30 = alloca { i64, i64 }, align 8
  %high = alloca i64, align 8
  %_26 = alloca { i64, i64 }, align 8
  %_19 = alloca { i64, i64 }, align 8
  %_16 = alloca { i64, i64 }, align 8
  %_13 = alloca { i64, i64 }, align 8
  %_10 = alloca { i64, i64 }, align 8
  %_7 = alloca { i64, i64 }, align 8
  %low = alloca i64, align 8
  %ptr = alloca i64, align 8
  store ptr %tss, ptr %tss.dbg.spill, align 8
  call void @llvm.dbg.declare(metadata ptr %tss.dbg.spill, metadata !1226, metadata !DIExpression()), !dbg !1233
  call void @llvm.dbg.declare(metadata ptr %ptr, metadata !1227, metadata !DIExpression()), !dbg !1234
  call void @llvm.dbg.declare(metadata ptr %low, metadata !1229, metadata !DIExpression()), !dbg !1235
  call void @llvm.dbg.declare(metadata ptr %high, metadata !1231, metadata !DIExpression()), !dbg !1236
  %1 = ptrtoint ptr %tss to i64, !dbg !1237
  store i64 %1, ptr %ptr, align 8, !dbg !1237
; call x86_64::structures::gdt::DescriptorFlags::bits
  %2 = call i64 @_ZN6x86_6410structures3gdt15DescriptorFlags4bits17hff562406cbc3890bE(ptr align 8 @alloc_a2052f5a732c6560387218d7aa6b4ca1) #8, !dbg !1238
  store i64 %2, ptr %low, align 8, !dbg !1238
  store i64 16, ptr %_7, align 8, !dbg !1239
  %3 = getelementptr inbounds { i64, i64 }, ptr %_7, i32 0, i32 1, !dbg !1239
  store i64 40, ptr %3, align 8, !dbg !1239
  store i64 0, ptr %_10, align 8, !dbg !1240
  %4 = getelementptr inbounds { i64, i64 }, ptr %_10, i32 0, i32 1, !dbg !1240
  store i64 24, ptr %4, align 8, !dbg !1240
  %5 = getelementptr inbounds { i64, i64 }, ptr %_10, i32 0, i32 0, !dbg !1241
  %6 = load i64, ptr %5, align 8, !dbg !1241, !noundef !18
  %7 = getelementptr inbounds { i64, i64 }, ptr %_10, i32 0, i32 1, !dbg !1241
  %8 = load i64, ptr %7, align 8, !dbg !1241, !noundef !18
; call <u64 as bit_field::BitField>::get_bits
  %_8 = call i64 @"_ZN43_$LT$u64$u20$as$u20$bit_field..BitField$GT$8get_bits17h7f9392334ae0b20dE"(ptr align 8 %ptr, i64 %6, i64 %8) #8, !dbg !1241
  %9 = getelementptr inbounds { i64, i64 }, ptr %_7, i32 0, i32 0, !dbg !1242
  %10 = load i64, ptr %9, align 8, !dbg !1242, !noundef !18
  %11 = getelementptr inbounds { i64, i64 }, ptr %_7, i32 0, i32 1, !dbg !1242
  %12 = load i64, ptr %11, align 8, !dbg !1242, !noundef !18
; call <u64 as bit_field::BitField>::set_bits
  %_5 = call align 8 ptr @"_ZN43_$LT$u64$u20$as$u20$bit_field..BitField$GT$8set_bits17h9be41c59a201263eE"(ptr align 8 %low, i64 %10, i64 %12, i64 %_8) #8, !dbg !1242
  store i64 56, ptr %_13, align 8, !dbg !1243
  %13 = getelementptr inbounds { i64, i64 }, ptr %_13, i32 0, i32 1, !dbg !1243
  store i64 64, ptr %13, align 8, !dbg !1243
  store i64 24, ptr %_16, align 8, !dbg !1244
  %14 = getelementptr inbounds { i64, i64 }, ptr %_16, i32 0, i32 1, !dbg !1244
  store i64 32, ptr %14, align 8, !dbg !1244
  %15 = getelementptr inbounds { i64, i64 }, ptr %_16, i32 0, i32 0, !dbg !1245
  %16 = load i64, ptr %15, align 8, !dbg !1245, !noundef !18
  %17 = getelementptr inbounds { i64, i64 }, ptr %_16, i32 0, i32 1, !dbg !1245
  %18 = load i64, ptr %17, align 8, !dbg !1245, !noundef !18
; call <u64 as bit_field::BitField>::get_bits
  %_14 = call i64 @"_ZN43_$LT$u64$u20$as$u20$bit_field..BitField$GT$8get_bits17h7f9392334ae0b20dE"(ptr align 8 %ptr, i64 %16, i64 %18) #8, !dbg !1245
  %19 = getelementptr inbounds { i64, i64 }, ptr %_13, i32 0, i32 0, !dbg !1246
  %20 = load i64, ptr %19, align 8, !dbg !1246, !noundef !18
  %21 = getelementptr inbounds { i64, i64 }, ptr %_13, i32 0, i32 1, !dbg !1246
  %22 = load i64, ptr %21, align 8, !dbg !1246, !noundef !18
; call <u64 as bit_field::BitField>::set_bits
  %_11 = call align 8 ptr @"_ZN43_$LT$u64$u20$as$u20$bit_field..BitField$GT$8set_bits17h9be41c59a201263eE"(ptr align 8 %low, i64 %20, i64 %22, i64 %_14) #8, !dbg !1246
  store i64 0, ptr %_19, align 8, !dbg !1247
  %23 = getelementptr inbounds { i64, i64 }, ptr %_19, i32 0, i32 1, !dbg !1247
  store i64 16, ptr %23, align 8, !dbg !1247
  %_23.0 = sub i64 104, 1, !dbg !1248
  %_23.1 = icmp ult i64 104, 1, !dbg !1248
  %24 = call i1 @llvm.expect.i1(i1 %_23.1, i1 false), !dbg !1248
  br i1 %24, label %panic, label %bb7, !dbg !1248

bb7:                                              ; preds = %start
  %25 = getelementptr inbounds { i64, i64 }, ptr %_19, i32 0, i32 0, !dbg !1249
  %26 = load i64, ptr %25, align 8, !dbg !1249, !noundef !18
  %27 = getelementptr inbounds { i64, i64 }, ptr %_19, i32 0, i32 1, !dbg !1249
  %28 = load i64, ptr %27, align 8, !dbg !1249, !noundef !18
; call <u64 as bit_field::BitField>::set_bits
  %_17 = call align 8 ptr @"_ZN43_$LT$u64$u20$as$u20$bit_field..BitField$GT$8set_bits17h9be41c59a201263eE"(ptr align 8 %low, i64 %26, i64 %28, i64 %_23.0) #8, !dbg !1249
  store i64 40, ptr %_26, align 8, !dbg !1250
  %29 = getelementptr inbounds { i64, i64 }, ptr %_26, i32 0, i32 1, !dbg !1250
  store i64 44, ptr %29, align 8, !dbg !1250
  %30 = getelementptr inbounds { i64, i64 }, ptr %_26, i32 0, i32 0, !dbg !1251
  %31 = load i64, ptr %30, align 8, !dbg !1251, !noundef !18
  %32 = getelementptr inbounds { i64, i64 }, ptr %_26, i32 0, i32 1, !dbg !1251
  %33 = load i64, ptr %32, align 8, !dbg !1251, !noundef !18
; call <u64 as bit_field::BitField>::set_bits
  %_24 = call align 8 ptr @"_ZN43_$LT$u64$u20$as$u20$bit_field..BitField$GT$8set_bits17h9be41c59a201263eE"(ptr align 8 %low, i64 %31, i64 %33, i64 9) #8, !dbg !1251
  store i64 0, ptr %high, align 8, !dbg !1252
  store i64 0, ptr %_30, align 8, !dbg !1253
  %34 = getelementptr inbounds { i64, i64 }, ptr %_30, i32 0, i32 1, !dbg !1253
  store i64 32, ptr %34, align 8, !dbg !1253
  store i64 32, ptr %_33, align 8, !dbg !1254
  %35 = getelementptr inbounds { i64, i64 }, ptr %_33, i32 0, i32 1, !dbg !1254
  store i64 64, ptr %35, align 8, !dbg !1254
  %36 = getelementptr inbounds { i64, i64 }, ptr %_33, i32 0, i32 0, !dbg !1255
  %37 = load i64, ptr %36, align 8, !dbg !1255, !noundef !18
  %38 = getelementptr inbounds { i64, i64 }, ptr %_33, i32 0, i32 1, !dbg !1255
  %39 = load i64, ptr %38, align 8, !dbg !1255, !noundef !18
; call <u64 as bit_field::BitField>::get_bits
  %_31 = call i64 @"_ZN43_$LT$u64$u20$as$u20$bit_field..BitField$GT$8get_bits17h7f9392334ae0b20dE"(ptr align 8 %ptr, i64 %37, i64 %39) #8, !dbg !1255
  %40 = getelementptr inbounds { i64, i64 }, ptr %_30, i32 0, i32 0, !dbg !1256
  %41 = load i64, ptr %40, align 8, !dbg !1256, !noundef !18
  %42 = getelementptr inbounds { i64, i64 }, ptr %_30, i32 0, i32 1, !dbg !1256
  %43 = load i64, ptr %42, align 8, !dbg !1256, !noundef !18
; call <u64 as bit_field::BitField>::set_bits
  %_28 = call align 8 ptr @"_ZN43_$LT$u64$u20$as$u20$bit_field..BitField$GT$8set_bits17h9be41c59a201263eE"(ptr align 8 %high, i64 %41, i64 %43, i64 %_31) #8, !dbg !1256
  %_34 = load i64, ptr %low, align 8, !dbg !1257, !noundef !18
  %_35 = load i64, ptr %high, align 8, !dbg !1258, !noundef !18
  %44 = getelementptr inbounds %"x86_64::structures::gdt::Descriptor::SystemSegment", ptr %0, i32 0, i32 1, !dbg !1259
  store i64 %_34, ptr %44, align 8, !dbg !1259
  %45 = getelementptr inbounds %"x86_64::structures::gdt::Descriptor::SystemSegment", ptr %0, i32 0, i32 2, !dbg !1259
  store i64 %_35, ptr %45, align 8, !dbg !1259
  store i64 1, ptr %0, align 8, !dbg !1259
  ret void, !dbg !1260

panic:                                            ; preds = %start
; call core::panicking::panic
  call void @_ZN4core9panicking5panic17h277234a6cd982fe5E(ptr align 1 @str.1, i64 33, ptr align 8 @alloc_ec69bacdb8f9913e674a396a04736608) #11, !dbg !1248
  unreachable, !dbg !1248
}

; x86_64::structures::gdt::Descriptor::kernel_code_segment
; Function Attrs: inlinehint noredzone nounwind
define internal void @_ZN6x86_6410structures3gdt10Descriptor19kernel_code_segment17h67b8f0aed40c86b5E(ptr sret(%"x86_64::structures::gdt::Descriptor") %0) unnamed_addr #0 !dbg !1261 {
start:
; call x86_64::structures::gdt::DescriptorFlags::bits
  %_1 = call i64 @_ZN6x86_6410structures3gdt15DescriptorFlags4bits17hff562406cbc3890bE(ptr align 8 @alloc_047faabbe6ef5a15898762b6e3e08ed6) #8, !dbg !1264
  %1 = getelementptr inbounds %"x86_64::structures::gdt::Descriptor::UserSegment", ptr %0, i32 0, i32 1, !dbg !1265
  store i64 %_1, ptr %1, align 8, !dbg !1265
  store i64 0, ptr %0, align 8, !dbg !1265
  ret void, !dbg !1266
}

; x86_64::structures::gdt::DescriptorFlags::from_bits_truncate
; Function Attrs: inlinehint noredzone nounwind
define internal i64 @_ZN6x86_6410structures3gdt15DescriptorFlags18from_bits_truncate17h729ce028cac27ab4E(i64 %bits) unnamed_addr #0 !dbg !1267 {
start:
  %bits.dbg.spill = alloca i64, align 8
  %0 = alloca i64, align 8
  store i64 %bits, ptr %bits.dbg.spill, align 8
  call void @llvm.dbg.declare(metadata ptr %bits.dbg.spill, metadata !1275, metadata !DIExpression()), !dbg !1276
; call x86_64::structures::gdt::DescriptorFlags::all
  %_4 = call i64 @_ZN6x86_6410structures3gdt15DescriptorFlags3all17hf51c36212324c46cE() #8, !dbg !1277
  %_2 = and i64 %bits, %_4, !dbg !1278
  store i64 %_2, ptr %0, align 8, !dbg !1279
  %1 = load i64, ptr %0, align 8, !dbg !1280, !noundef !18
  ret i64 %1, !dbg !1280
}

; x86_64::structures::gdt::DescriptorFlags::all
; Function Attrs: inlinehint noredzone nounwind
define internal i64 @_ZN6x86_6410structures3gdt15DescriptorFlags3all17hf51c36212324c46cE() unnamed_addr #0 !dbg !1281 {
start:
  %0 = alloca i64, align 8
  store i64 -1, ptr %0, align 8, !dbg !1284
  %1 = load i64, ptr %0, align 8, !dbg !1285, !noundef !18
  ret i64 %1, !dbg !1285
}

; x86_64::structures::gdt::DescriptorFlags::bits
; Function Attrs: inlinehint noredzone nounwind
define internal i64 @_ZN6x86_6410structures3gdt15DescriptorFlags4bits17hff562406cbc3890bE(ptr align 8 %self) unnamed_addr #0 !dbg !1286 {
start:
  %self.dbg.spill = alloca ptr, align 8
  store ptr %self, ptr %self.dbg.spill, align 8
  call void @llvm.dbg.declare(metadata ptr %self.dbg.spill, metadata !1291, metadata !DIExpression()), !dbg !1292
  %0 = load i64, ptr %self, align 8, !dbg !1293, !noundef !18
  ret i64 %0, !dbg !1294
}

; x86_64::structures::gdt::DescriptorFlags::contains
; Function Attrs: inlinehint noredzone nounwind
define internal zeroext i1 @_ZN6x86_6410structures3gdt15DescriptorFlags8contains17h6322a0d1a58b9150E(ptr align 8 %self, i64 %other) unnamed_addr #0 !dbg !1295 {
start:
  %other.dbg.spill = alloca i64, align 8
  %self.dbg.spill = alloca ptr, align 8
  store ptr %self, ptr %self.dbg.spill, align 8
  call void @llvm.dbg.declare(metadata ptr %self.dbg.spill, metadata !1299, metadata !DIExpression()), !dbg !1301
  store i64 %other, ptr %other.dbg.spill, align 8
  call void @llvm.dbg.declare(metadata ptr %other.dbg.spill, metadata !1300, metadata !DIExpression()), !dbg !1302
  %_4 = load i64, ptr %self, align 8, !dbg !1303, !noundef !18
  %_3 = and i64 %_4, %other, !dbg !1304
  %0 = icmp eq i64 %_3, %other, !dbg !1304
  ret i1 %0, !dbg !1305
}

; x86_64::structures::gdt::GlobalDescriptorTable::load_unsafe
; Function Attrs: inlinehint noredzone nounwind
define internal void @_ZN6x86_6410structures3gdt21GlobalDescriptorTable11load_unsafe17h425236cb33183cd7E(ptr align 8 %self) unnamed_addr #0 !dbg !1306 {
start:
  %self.dbg.spill = alloca ptr, align 8
  %_4 = alloca %"x86_64::structures::DescriptorTablePointer", align 2
  store ptr %self, ptr %self.dbg.spill, align 8
  call void @llvm.dbg.declare(metadata ptr %self.dbg.spill, metadata !1311, metadata !DIExpression()), !dbg !1312
; call x86_64::structures::gdt::GlobalDescriptorTable::pointer
  call void @_ZN6x86_6410structures3gdt21GlobalDescriptorTable7pointer17h70e4c3639c5b4d79E(ptr sret(%"x86_64::structures::DescriptorTablePointer") %_4, ptr align 8 %self) #8, !dbg !1313
; call x86_64::instructions::tables::lgdt
  call void @_ZN6x86_6412instructions6tables4lgdt17h0a73f8c6f5bb66b2E(ptr align 2 %_4) #8, !dbg !1314
  ret void, !dbg !1315
}

; x86_64::structures::gdt::GlobalDescriptorTable::new
; Function Attrs: inlinehint noredzone nounwind
define internal void @_ZN6x86_6410structures3gdt21GlobalDescriptorTable3new17h5d7ed51c23149616E(ptr sret(%"x86_64::structures::gdt::GlobalDescriptorTable") %0) unnamed_addr #0 !dbg !1316 {
start:
  %_1 = alloca [8 x i64], align 8
  %1 = getelementptr inbounds [8 x i64], ptr %_1, i64 0, i64 0, !dbg !1319
  call void @llvm.memset.p0.i64(ptr align 8 %1, i8 0, i64 64, i1 false), !dbg !1319
  call void @llvm.memcpy.p0.p0.i64(ptr align 8 %0, ptr align 8 %_1, i64 64, i1 false), !dbg !1320
  %2 = getelementptr inbounds %"x86_64::structures::gdt::GlobalDescriptorTable", ptr %0, i32 0, i32 1, !dbg !1320
  store i64 1, ptr %2, align 8, !dbg !1320
  ret void, !dbg !1321
}

; x86_64::structures::gdt::GlobalDescriptorTable::load
; Function Attrs: inlinehint noredzone nounwind
define internal void @_ZN6x86_6410structures3gdt21GlobalDescriptorTable4load17hf240134a9fffddb4E(ptr align 8 %self) unnamed_addr #0 !dbg !1322 {
start:
  %self.dbg.spill = alloca ptr, align 8
  store ptr %self, ptr %self.dbg.spill, align 8
  call void @llvm.dbg.declare(metadata ptr %self.dbg.spill, metadata !1324, metadata !DIExpression()), !dbg !1325
; call x86_64::structures::gdt::GlobalDescriptorTable::load_unsafe
  call void @_ZN6x86_6410structures3gdt21GlobalDescriptorTable11load_unsafe17h425236cb33183cd7E(ptr align 8 %self) #8, !dbg !1326
  ret void, !dbg !1327
}

; x86_64::structures::gdt::GlobalDescriptorTable::push
; Function Attrs: inlinehint noredzone nounwind
define internal i64 @_ZN6x86_6410structures3gdt21GlobalDescriptorTable4push17hee1bb9a3d755234cE(ptr align 8 %self, i64 %value) unnamed_addr #0 !dbg !1328 {
start:
  %0 = alloca i64, align 8
  %value.dbg.spill = alloca i64, align 8
  %self.dbg.spill = alloca ptr, align 8
  store ptr %self, ptr %self.dbg.spill, align 8
  call void @llvm.dbg.declare(metadata ptr %self.dbg.spill, metadata !1333, metadata !DIExpression()), !dbg !1337
  store i64 %value, ptr %value.dbg.spill, align 8
  call void @llvm.dbg.declare(metadata ptr %value.dbg.spill, metadata !1334, metadata !DIExpression()), !dbg !1338
  %1 = getelementptr inbounds %"x86_64::structures::gdt::GlobalDescriptorTable", ptr %self, i32 0, i32 1, !dbg !1339
  %2 = load i64, ptr %1, align 8, !dbg !1339, !noundef !18
  store i64 %2, ptr %0, align 8, !dbg !1339
  call void @llvm.dbg.declare(metadata ptr %0, metadata !1335, metadata !DIExpression()), !dbg !1340
  %_4 = icmp ult i64 %2, 8, !dbg !1341
  %3 = call i1 @llvm.expect.i1(i1 %_4, i1 true), !dbg !1341
  br i1 %3, label %bb1, label %panic, !dbg !1341

bb1:                                              ; preds = %start
  %4 = getelementptr inbounds [8 x i64], ptr %self, i64 0, i64 %2, !dbg !1341
  store i64 %value, ptr %4, align 8, !dbg !1341
  %5 = getelementptr inbounds %"x86_64::structures::gdt::GlobalDescriptorTable", ptr %self, i32 0, i32 1, !dbg !1342
  %6 = load i64, ptr %5, align 8, !dbg !1342, !noundef !18
  %7 = call { i64, i1 } @llvm.uadd.with.overflow.i64(i64 %6, i64 1), !dbg !1342
  %_5.0 = extractvalue { i64, i1 } %7, 0, !dbg !1342
  %_5.1 = extractvalue { i64, i1 } %7, 1, !dbg !1342
  %8 = call i1 @llvm.expect.i1(i1 %_5.1, i1 false), !dbg !1342
  br i1 %8, label %panic1, label %bb2, !dbg !1342

panic:                                            ; preds = %start
; call core::panicking::panic_bounds_check
  call void @_ZN4core9panicking18panic_bounds_check17h19acf4b7d21fbddfE(i64 %2, i64 8, ptr align 8 @alloc_1d25a64ff8389a50ec60a5846bd5ac06) #11, !dbg !1341
  unreachable, !dbg !1341

bb2:                                              ; preds = %bb1
  %9 = getelementptr inbounds %"x86_64::structures::gdt::GlobalDescriptorTable", ptr %self, i32 0, i32 1, !dbg !1342
  store i64 %_5.0, ptr %9, align 8, !dbg !1342
  ret i64 %2, !dbg !1343

panic1:                                           ; preds = %bb1
; call core::panicking::panic
  call void @_ZN4core9panicking5panic17h277234a6cd982fe5E(ptr align 1 @str.3, i64 28, ptr align 8 @alloc_b619405bbdbd5bb59adccd45e95ba975) #11, !dbg !1342
  unreachable, !dbg !1342
}

; x86_64::structures::gdt::GlobalDescriptorTable::add_entry
; Function Attrs: inlinehint noredzone nounwind
define internal i16 @_ZN6x86_6410structures3gdt21GlobalDescriptorTable9add_entry17hcfb6b3b0ff8b6c25E(ptr align 8 %self, ptr %entry) unnamed_addr #0 !dbg !1344 {
start:
  %0 = alloca i64, align 8
  %rhs.dbg.spill.i4 = alloca i64, align 8
  %self.dbg.spill.i5 = alloca i64, align 8
  %1 = alloca i64, align 8
  %rhs.dbg.spill.i = alloca i64, align 8
  %self.dbg.spill.i = alloca i64, align 8
  %value.dbg.spill3 = alloca i64, align 8
  %value.dbg.spill = alloca i64, align 8
  %index.dbg.spill = alloca i64, align 8
  %value_high.dbg.spill = alloca i64, align 8
  %value_low.dbg.spill = alloca i64, align 8
  %self.dbg.spill = alloca ptr, align 8
  %_29 = alloca i64, align 8
  %rpl = alloca i8, align 1
  %index = alloca i64, align 8
  store ptr %self, ptr %self.dbg.spill, align 8
  call void @llvm.dbg.declare(metadata ptr %self.dbg.spill, metadata !1348, metadata !DIExpression()), !dbg !1363
  call void @llvm.dbg.declare(metadata ptr %entry, metadata !1349, metadata !DIExpression()), !dbg !1364
  call void @llvm.dbg.declare(metadata ptr %index, metadata !1350, metadata !DIExpression()), !dbg !1365
  call void @llvm.dbg.declare(metadata ptr %rpl, metadata !1359, metadata !DIExpression()), !dbg !1366
  %_4 = load i64, ptr %entry, align 8, !dbg !1367, !range !869, !noundef !18
  %2 = icmp eq i64 %_4, 0, !dbg !1368
  br i1 %2, label %bb3, label %bb1, !dbg !1368

bb3:                                              ; preds = %start
  %3 = getelementptr inbounds %"x86_64::structures::gdt::Descriptor::UserSegment", ptr %entry, i32 0, i32 1, !dbg !1369
  %value = load i64, ptr %3, align 8, !dbg !1369, !noundef !18
  store i64 %value, ptr %value.dbg.spill, align 8, !dbg !1369
  call void @llvm.dbg.declare(metadata ptr %value.dbg.spill, metadata !1352, metadata !DIExpression()), !dbg !1370
  %4 = getelementptr inbounds %"x86_64::structures::gdt::GlobalDescriptorTable", ptr %self, i32 0, i32 1, !dbg !1371
  %_7 = load i64, ptr %4, align 8, !dbg !1371, !noundef !18
  store i64 8, ptr %self.dbg.spill.i, align 8
  call void @llvm.dbg.declare(metadata ptr %self.dbg.spill.i, metadata !1372, metadata !DIExpression()), !dbg !1381
  store i64 1, ptr %rhs.dbg.spill.i, align 8
  call void @llvm.dbg.declare(metadata ptr %rhs.dbg.spill.i, metadata !1380, metadata !DIExpression()), !dbg !1383
  store i64 7, ptr %1, align 8, !dbg !1384
  %5 = load i64, ptr %1, align 8, !dbg !1384, !noundef !18
  %_6 = icmp ugt i64 %_7, %5, !dbg !1371
  br i1 %_6, label %bb5, label %bb6, !dbg !1371

bb1:                                              ; preds = %start
  %6 = getelementptr inbounds %"x86_64::structures::gdt::Descriptor::SystemSegment", ptr %entry, i32 0, i32 1, !dbg !1385
  %value_low = load i64, ptr %6, align 8, !dbg !1385, !noundef !18
  store i64 %value_low, ptr %value_low.dbg.spill, align 8, !dbg !1385
  call void @llvm.dbg.declare(metadata ptr %value_low.dbg.spill, metadata !1354, metadata !DIExpression()), !dbg !1386
  %7 = getelementptr inbounds %"x86_64::structures::gdt::Descriptor::SystemSegment", ptr %entry, i32 0, i32 2, !dbg !1387
  %value_high = load i64, ptr %7, align 8, !dbg !1387, !noundef !18
  store i64 %value_high, ptr %value_high.dbg.spill, align 8, !dbg !1387
  call void @llvm.dbg.declare(metadata ptr %value_high.dbg.spill, metadata !1356, metadata !DIExpression()), !dbg !1388
  %8 = getelementptr inbounds %"x86_64::structures::gdt::GlobalDescriptorTable", ptr %self, i32 0, i32 1, !dbg !1389
  %_16 = load i64, ptr %8, align 8, !dbg !1389, !noundef !18
  store i64 8, ptr %self.dbg.spill.i5, align 8
  call void @llvm.dbg.declare(metadata ptr %self.dbg.spill.i5, metadata !1372, metadata !DIExpression()), !dbg !1390
  store i64 2, ptr %rhs.dbg.spill.i4, align 8
  call void @llvm.dbg.declare(metadata ptr %rhs.dbg.spill.i4, metadata !1380, metadata !DIExpression()), !dbg !1392
  store i64 6, ptr %0, align 8, !dbg !1393
  %9 = load i64, ptr %0, align 8, !dbg !1393, !noundef !18
  %_15 = icmp ugt i64 %_16, %9, !dbg !1389
  br i1 %_15, label %bb8, label %bb9, !dbg !1389

bb9:                                              ; preds = %bb1
; call x86_64::structures::gdt::GlobalDescriptorTable::push
  %index1 = call i64 @_ZN6x86_6410structures3gdt21GlobalDescriptorTable4push17hee1bb9a3d755234cE(ptr align 8 %self, i64 %value_low) #8, !dbg !1394
  store i64 %index1, ptr %index.dbg.spill, align 8, !dbg !1394
  call void @llvm.dbg.declare(metadata ptr %index.dbg.spill, metadata !1357, metadata !DIExpression()), !dbg !1395
; call x86_64::structures::gdt::GlobalDescriptorTable::push
  %_23 = call i64 @_ZN6x86_6410structures3gdt21GlobalDescriptorTable4push17hee1bb9a3d755234cE(ptr align 8 %self, i64 %value_high) #8, !dbg !1396
  store i64 %index1, ptr %index, align 8, !dbg !1397
  br label %bb12, !dbg !1398

bb8:                                              ; preds = %bb1
; call core::panicking::panic
  call void @_ZN4core9panicking5panic17h277234a6cd982fe5E(ptr align 1 @alloc_71a7efa2492bb21c9f54a8edb2880146, i64 52, ptr align 8 @alloc_8ff527dbe34701b5b9410be7cb3ed4d8) #11, !dbg !1399
  unreachable, !dbg !1399

bb12:                                             ; preds = %bb6, %bb9
  %_25 = load i64, ptr %entry, align 8, !dbg !1400, !range !869, !noundef !18
  %10 = icmp eq i64 %_25, 0, !dbg !1401
  br i1 %10, label %bb14, label %bb13, !dbg !1401

bb6:                                              ; preds = %bb3
; call x86_64::structures::gdt::GlobalDescriptorTable::push
  %11 = call i64 @_ZN6x86_6410structures3gdt21GlobalDescriptorTable4push17hee1bb9a3d755234cE(ptr align 8 %self, i64 %value) #8, !dbg !1402
  store i64 %11, ptr %index, align 8, !dbg !1402
  br label %bb12, !dbg !1402

bb5:                                              ; preds = %bb3
; call core::panicking::panic
  call void @_ZN4core9panicking5panic17h277234a6cd982fe5E(ptr align 1 @alloc_e755bc5cd467965f69656078209bbfdc, i64 8, ptr align 8 @alloc_fafbe7c5fc2c26dd8225a406ebeeaa78) #11, !dbg !1403
  unreachable, !dbg !1403

bb14:                                             ; preds = %bb12
  %12 = getelementptr inbounds %"x86_64::structures::gdt::Descriptor::UserSegment", ptr %entry, i32 0, i32 1, !dbg !1404
  %value2 = load i64, ptr %12, align 8, !dbg !1404, !noundef !18
  store i64 %value2, ptr %value.dbg.spill3, align 8, !dbg !1404
  call void @llvm.dbg.declare(metadata ptr %value.dbg.spill3, metadata !1361, metadata !DIExpression()), !dbg !1405
; call x86_64::structures::gdt::DescriptorFlags::from_bits_truncate
  %13 = call i64 @_ZN6x86_6410structures3gdt15DescriptorFlags18from_bits_truncate17h729ce028cac27ab4E(i64 %value2) #8, !dbg !1406
  store i64 %13, ptr %_29, align 8, !dbg !1406
; call x86_64::structures::gdt::DescriptorFlags::contains
  %_27 = call zeroext i1 @_ZN6x86_6410structures3gdt15DescriptorFlags8contains17h6322a0d1a58b9150E(ptr align 8 %_29, i64 105553116266496) #8, !dbg !1406
  br i1 %_27, label %bb17, label %bb18, !dbg !1406

bb13:                                             ; preds = %bb12
  store i8 0, ptr %rpl, align 1, !dbg !1407
  br label %bb19, !dbg !1407

bb2:                                              ; No predecessors!
  unreachable, !dbg !1367

bb19:                                             ; preds = %bb18, %bb17, %bb13
  %_31 = load i64, ptr %index, align 8, !dbg !1408, !noundef !18
  %_30 = trunc i64 %_31 to i16, !dbg !1408
  %_32 = load i8, ptr %rpl, align 1, !dbg !1409, !range !1410, !noundef !18
; call x86_64::registers::segmentation::SegmentSelector::new
  %14 = call i16 @_ZN6x86_649registers12segmentation15SegmentSelector3new17hcd25b6961609663aE(i16 %_30, i8 %_32) #8, !dbg !1411
  ret i16 %14, !dbg !1412

bb18:                                             ; preds = %bb14
  store i8 0, ptr %rpl, align 1, !dbg !1413
  br label %bb19, !dbg !1414

bb17:                                             ; preds = %bb14
  store i8 3, ptr %rpl, align 1, !dbg !1415
  br label %bb19, !dbg !1414
}

; x86_64::structures::idt::EntryOptions::set_present
; Function Attrs: inlinehint noredzone nounwind
define internal align 2 ptr @_ZN6x86_6410structures3idt12EntryOptions11set_present17h806222b4d8088cfdE(ptr align 2 %self, i1 zeroext %present) unnamed_addr #0 !dbg !1416 {
start:
  %present.dbg.spill = alloca i8, align 1
  %self.dbg.spill = alloca ptr, align 8
  store ptr %self, ptr %self.dbg.spill, align 8
  call void @llvm.dbg.declare(metadata ptr %self.dbg.spill, metadata !1422, metadata !DIExpression()), !dbg !1424
  %0 = zext i1 %present to i8
  store i8 %0, ptr %present.dbg.spill, align 1
  call void @llvm.dbg.declare(metadata ptr %present.dbg.spill, metadata !1423, metadata !DIExpression()), !dbg !1425
; call <u16 as bit_field::BitField>::set_bit
  %_3 = call align 2 ptr @"_ZN43_$LT$u16$u20$as$u20$bit_field..BitField$GT$7set_bit17h362d171f2b183fa8E"(ptr align 2 %self, i64 15, i1 zeroext %present) #8, !dbg !1426
  ret ptr %self, !dbg !1427
}

; x86_64::structures::idt::EntryOptions::set_stack_index
; Function Attrs: inlinehint noredzone nounwind
define internal align 2 ptr @_ZN6x86_6410structures3idt12EntryOptions15set_stack_index17h04f62f0bfd0c5fb1E(ptr align 2 %self, i16 %index) unnamed_addr #0 !dbg !1428 {
start:
  %index.dbg.spill = alloca i16, align 2
  %self.dbg.spill = alloca ptr, align 8
  %_5 = alloca { i64, i64 }, align 8
  store ptr %self, ptr %self.dbg.spill, align 8
  call void @llvm.dbg.declare(metadata ptr %self.dbg.spill, metadata !1432, metadata !DIExpression()), !dbg !1434
  store i16 %index, ptr %index.dbg.spill, align 2
  call void @llvm.dbg.declare(metadata ptr %index.dbg.spill, metadata !1433, metadata !DIExpression()), !dbg !1435
  store i64 0, ptr %_5, align 8, !dbg !1436
  %0 = getelementptr inbounds { i64, i64 }, ptr %_5, i32 0, i32 1, !dbg !1436
  store i64 3, ptr %0, align 8, !dbg !1436
  %1 = call { i16, i1 } @llvm.uadd.with.overflow.i16(i16 %index, i16 1), !dbg !1437
  %_7.0 = extractvalue { i16, i1 } %1, 0, !dbg !1437
  %_7.1 = extractvalue { i16, i1 } %1, 1, !dbg !1437
  %2 = call i1 @llvm.expect.i1(i1 %_7.1, i1 false), !dbg !1437
  br i1 %2, label %panic, label %bb1, !dbg !1437

bb1:                                              ; preds = %start
  %3 = getelementptr inbounds { i64, i64 }, ptr %_5, i32 0, i32 0, !dbg !1438
  %4 = load i64, ptr %3, align 8, !dbg !1438, !noundef !18
  %5 = getelementptr inbounds { i64, i64 }, ptr %_5, i32 0, i32 1, !dbg !1438
  %6 = load i64, ptr %5, align 8, !dbg !1438, !noundef !18
; call <u16 as bit_field::BitField>::set_bits
  %_3 = call align 2 ptr @"_ZN43_$LT$u16$u20$as$u20$bit_field..BitField$GT$8set_bits17hfd7ee7ca0c7fa012E"(ptr align 2 %self, i64 %4, i64 %6, i16 %_7.0) #8, !dbg !1438
  ret ptr %self, !dbg !1439

panic:                                            ; preds = %start
; call core::panicking::panic
  call void @_ZN4core9panicking5panic17h277234a6cd982fe5E(ptr align 1 @str.3, i64 28, ptr align 8 @alloc_684261e5bc5404f7dd08c17341b2175a) #11, !dbg !1437
  unreachable, !dbg !1437
}

; x86_64::structures::idt::EntryOptions::minimal
; Function Attrs: inlinehint noredzone nounwind
define internal i16 @_ZN6x86_6410structures3idt12EntryOptions7minimal17hf77f63a87fb1ab69E() unnamed_addr #0 !dbg !1440 {
start:
  %0 = alloca i16, align 2
  store i16 3584, ptr %0, align 2, !dbg !1443
  %1 = load i16, ptr %0, align 2, !dbg !1444, !noundef !18
  ret i16 %1, !dbg !1444
}

; x86_64::structures::idt::Entry<extern "x86.interrupt" fn(x86_64::structures::idt::InterruptStackFrame,u64) .> !>::set_handler_fn
; Function Attrs: inlinehint noredzone nounwind
define internal align 2 ptr @"_ZN6x86_6410structures3idt132Entry$LT$extern$u20$$u22$x86.interrupt$u22$$u20$fn$LP$x86_64..structures..idt..InterruptStackFrame$C$u64$RP$$u20$.$GT$$u20$$u21$$GT$14set_handler_fn17h046bd64ec0c52573E"(ptr align 4 %self, ptr %handler) unnamed_addr #0 !dbg !1445 {
start:
  %handler.dbg.spill2 = alloca i64, align 8
  %handler.dbg.spill = alloca ptr, align 8
  %self.dbg.spill = alloca ptr, align 8
  store ptr %self, ptr %self.dbg.spill, align 8
  call void @llvm.dbg.declare(metadata ptr %self.dbg.spill, metadata !1450, metadata !DIExpression()), !dbg !1454
  store ptr %handler, ptr %handler.dbg.spill, align 8
  call void @llvm.dbg.declare(metadata ptr %handler.dbg.spill, metadata !1451, metadata !DIExpression()), !dbg !1455
  %_4 = ptrtoint ptr %handler to i64, !dbg !1456
; call x86_64::addr::VirtAddr::new
  %handler1 = call i64 @_ZN6x86_644addr8VirtAddr3new17h2a896f3b9febb74fE(i64 %_4) #8, !dbg !1457
  store i64 %handler1, ptr %handler.dbg.spill2, align 8, !dbg !1457
  call void @llvm.dbg.declare(metadata ptr %handler.dbg.spill2, metadata !1452, metadata !DIExpression()), !dbg !1458
; call x86_64::structures::idt::Entry<F>::set_handler_addr
  %_5 = call align 2 ptr @"_ZN6x86_6410structures3idt14Entry$LT$F$GT$16set_handler_addr17hbc33c830dfe6d6edE"(ptr align 4 %self, i64 %handler1) #8, !dbg !1459
  ret ptr %_5, !dbg !1460
}

; x86_64::structures::idt::Entry<F>::set_handler_addr
; Function Attrs: inlinehint noredzone nounwind
define align 2 ptr @"_ZN6x86_6410structures3idt14Entry$LT$F$GT$16set_handler_addr17hbc33c830dfe6d6edE"(ptr align 4 %self, i64 %addr) unnamed_addr #0 !dbg !1461 {
start:
  %addr.dbg.spill2 = alloca i64, align 8
  %addr.dbg.spill = alloca i64, align 8
  %self.dbg.spill = alloca ptr, align 8
  store ptr %self, ptr %self.dbg.spill, align 8
  call void @llvm.dbg.declare(metadata ptr %self.dbg.spill, metadata !1465, metadata !DIExpression()), !dbg !1469
  store i64 %addr, ptr %addr.dbg.spill, align 8
  call void @llvm.dbg.declare(metadata ptr %addr.dbg.spill, metadata !1466, metadata !DIExpression()), !dbg !1470
; call x86_64::addr::VirtAddr::as_u64
  %addr1 = call i64 @_ZN6x86_644addr8VirtAddr6as_u6417h1918a434450537adE(i64 %addr) #8, !dbg !1471
  store i64 %addr1, ptr %addr.dbg.spill2, align 8, !dbg !1471
  call void @llvm.dbg.declare(metadata ptr %addr.dbg.spill2, metadata !1467, metadata !DIExpression()), !dbg !1472
  %0 = trunc i64 %addr1 to i16, !dbg !1473
  store i16 %0, ptr %self, align 4, !dbg !1473
  %_5 = lshr i64 %addr1, 16, !dbg !1474
  %1 = getelementptr inbounds %"x86_64::structures::idt::Entry<extern \22x86-interrupt\22 fn(x86_64::structures::idt::InterruptStackFrame, u64) -> !>", ptr %self, i32 0, i32 3, !dbg !1475
  %2 = trunc i64 %_5 to i16, !dbg !1475
  store i16 %2, ptr %1, align 2, !dbg !1475
  %_9 = lshr i64 %addr1, 32, !dbg !1476
  %3 = getelementptr inbounds %"x86_64::structures::idt::Entry<extern \22x86-interrupt\22 fn(x86_64::structures::idt::InterruptStackFrame, u64) -> !>", ptr %self, i32 0, i32 4, !dbg !1477
  %4 = trunc i64 %_9 to i32, !dbg !1477
  store i32 %4, ptr %3, align 4, !dbg !1477
; call x86_64::instructions::segmentation::<impl x86_64::registers::segmentation::Segment for x86_64::registers::segmentation::CS>::get_reg
  %_14 = call i16 @"_ZN6x86_6412instructions12segmentation106_$LT$impl$u20$x86_64..registers..segmentation..Segment$u20$for$u20$x86_64..registers..segmentation..CS$GT$7get_reg17h6f7b902c677d957bE"() #8, !dbg !1478
  %5 = getelementptr inbounds %"x86_64::structures::idt::Entry<extern \22x86-interrupt\22 fn(x86_64::structures::idt::InterruptStackFrame, u64) -> !>", ptr %self, i32 0, i32 1, !dbg !1479
  store i16 %_14, ptr %5, align 2, !dbg !1479
  %_16 = getelementptr inbounds %"x86_64::structures::idt::Entry<extern \22x86-interrupt\22 fn(x86_64::structures::idt::InterruptStackFrame, u64) -> !>", ptr %self, i32 0, i32 2, !dbg !1480
; call x86_64::structures::idt::EntryOptions::set_present
  %_15 = call align 2 ptr @_ZN6x86_6410structures3idt12EntryOptions11set_present17h806222b4d8088cfdE(ptr align 2 %_16, i1 zeroext true) #8, !dbg !1480
  %6 = getelementptr inbounds %"x86_64::structures::idt::Entry<extern \22x86-interrupt\22 fn(x86_64::structures::idt::InterruptStackFrame, u64) -> !>", ptr %self, i32 0, i32 2, !dbg !1481
  ret ptr %6, !dbg !1482
}

; x86_64::structures::idt::Entry<F>::missing
; Function Attrs: inlinehint noredzone nounwind
define void @"_ZN6x86_6410structures3idt14Entry$LT$F$GT$7missing17h214453c37b75bf77E"(ptr sret(%"x86_64::structures::idt::Entry<extern \22x86-interrupt\22 fn(x86_64::structures::idt::InterruptStackFrame, u64) -> !>") %0) unnamed_addr #0 !dbg !1483 {
start:
; call x86_64::structures::idt::EntryOptions::minimal
  %_1 = call i16 @_ZN6x86_6410structures3idt12EntryOptions7minimal17hf77f63a87fb1ab69E() #8, !dbg !1486
  store i16 0, ptr %0, align 4, !dbg !1487
  %1 = getelementptr inbounds %"x86_64::structures::idt::Entry<extern \22x86-interrupt\22 fn(x86_64::structures::idt::InterruptStackFrame, u64) -> !>", ptr %0, i32 0, i32 1, !dbg !1487
  store i16 0, ptr %1, align 2, !dbg !1487
  %2 = getelementptr inbounds %"x86_64::structures::idt::Entry<extern \22x86-interrupt\22 fn(x86_64::structures::idt::InterruptStackFrame, u64) -> !>", ptr %0, i32 0, i32 2, !dbg !1487
  store i16 %_1, ptr %2, align 4, !dbg !1487
  %3 = getelementptr inbounds %"x86_64::structures::idt::Entry<extern \22x86-interrupt\22 fn(x86_64::structures::idt::InterruptStackFrame, u64) -> !>", ptr %0, i32 0, i32 3, !dbg !1487
  store i16 0, ptr %3, align 2, !dbg !1487
  %4 = getelementptr inbounds %"x86_64::structures::idt::Entry<extern \22x86-interrupt\22 fn(x86_64::structures::idt::InterruptStackFrame, u64) -> !>", ptr %0, i32 0, i32 4, !dbg !1487
  store i32 0, ptr %4, align 4, !dbg !1487
  %5 = getelementptr inbounds %"x86_64::structures::idt::Entry<extern \22x86-interrupt\22 fn(x86_64::structures::idt::InterruptStackFrame, u64) -> !>", ptr %0, i32 0, i32 5, !dbg !1487
  store i32 0, ptr %5, align 4, !dbg !1487
  ret void, !dbg !1488
}

; x86_64::structures::idt::Entry<F>::missing
; Function Attrs: inlinehint noredzone nounwind
define void @"_ZN6x86_6410structures3idt14Entry$LT$F$GT$7missing17h444dd1467b89e1dbE"(ptr sret(%"x86_64::structures::idt::Entry<extern \22x86-interrupt\22 fn(x86_64::structures::idt::InterruptStackFrame)>") %0) unnamed_addr #0 !dbg !1489 {
start:
; call x86_64::structures::idt::EntryOptions::minimal
  %_1 = call i16 @_ZN6x86_6410structures3idt12EntryOptions7minimal17hf77f63a87fb1ab69E() #8, !dbg !1492
  store i16 0, ptr %0, align 4, !dbg !1493
  %1 = getelementptr inbounds %"x86_64::structures::idt::Entry<extern \22x86-interrupt\22 fn(x86_64::structures::idt::InterruptStackFrame)>", ptr %0, i32 0, i32 1, !dbg !1493
  store i16 0, ptr %1, align 2, !dbg !1493
  %2 = getelementptr inbounds %"x86_64::structures::idt::Entry<extern \22x86-interrupt\22 fn(x86_64::structures::idt::InterruptStackFrame)>", ptr %0, i32 0, i32 2, !dbg !1493
  store i16 %_1, ptr %2, align 4, !dbg !1493
  %3 = getelementptr inbounds %"x86_64::structures::idt::Entry<extern \22x86-interrupt\22 fn(x86_64::structures::idt::InterruptStackFrame)>", ptr %0, i32 0, i32 3, !dbg !1493
  store i16 0, ptr %3, align 2, !dbg !1493
  %4 = getelementptr inbounds %"x86_64::structures::idt::Entry<extern \22x86-interrupt\22 fn(x86_64::structures::idt::InterruptStackFrame)>", ptr %0, i32 0, i32 4, !dbg !1493
  store i32 0, ptr %4, align 4, !dbg !1493
  %5 = getelementptr inbounds %"x86_64::structures::idt::Entry<extern \22x86-interrupt\22 fn(x86_64::structures::idt::InterruptStackFrame)>", ptr %0, i32 0, i32 5, !dbg !1493
  store i32 0, ptr %5, align 4, !dbg !1493
  ret void, !dbg !1494
}

; x86_64::structures::idt::Entry<F>::missing
; Function Attrs: inlinehint noredzone nounwind
define void @"_ZN6x86_6410structures3idt14Entry$LT$F$GT$7missing17h62616f8538948d1cE"(ptr sret(%"x86_64::structures::idt::Entry<extern \22x86-interrupt\22 fn(x86_64::structures::idt::InterruptStackFrame) -> !>") %0) unnamed_addr #0 !dbg !1495 {
start:
; call x86_64::structures::idt::EntryOptions::minimal
  %_1 = call i16 @_ZN6x86_6410structures3idt12EntryOptions7minimal17hf77f63a87fb1ab69E() #8, !dbg !1498
  store i16 0, ptr %0, align 4, !dbg !1499
  %1 = getelementptr inbounds %"x86_64::structures::idt::Entry<extern \22x86-interrupt\22 fn(x86_64::structures::idt::InterruptStackFrame) -> !>", ptr %0, i32 0, i32 1, !dbg !1499
  store i16 0, ptr %1, align 2, !dbg !1499
  %2 = getelementptr inbounds %"x86_64::structures::idt::Entry<extern \22x86-interrupt\22 fn(x86_64::structures::idt::InterruptStackFrame) -> !>", ptr %0, i32 0, i32 2, !dbg !1499
  store i16 %_1, ptr %2, align 4, !dbg !1499
  %3 = getelementptr inbounds %"x86_64::structures::idt::Entry<extern \22x86-interrupt\22 fn(x86_64::structures::idt::InterruptStackFrame) -> !>", ptr %0, i32 0, i32 3, !dbg !1499
  store i16 0, ptr %3, align 2, !dbg !1499
  %4 = getelementptr inbounds %"x86_64::structures::idt::Entry<extern \22x86-interrupt\22 fn(x86_64::structures::idt::InterruptStackFrame) -> !>", ptr %0, i32 0, i32 4, !dbg !1499
  store i32 0, ptr %4, align 4, !dbg !1499
  %5 = getelementptr inbounds %"x86_64::structures::idt::Entry<extern \22x86-interrupt\22 fn(x86_64::structures::idt::InterruptStackFrame) -> !>", ptr %0, i32 0, i32 5, !dbg !1499
  store i32 0, ptr %5, align 4, !dbg !1499
  ret void, !dbg !1500
}

; x86_64::structures::idt::Entry<F>::missing
; Function Attrs: inlinehint noredzone nounwind
define void @"_ZN6x86_6410structures3idt14Entry$LT$F$GT$7missing17h731db60336421473E"(ptr sret(%"x86_64::structures::idt::Entry<extern \22x86-interrupt\22 fn(x86_64::structures::idt::InterruptStackFrame, u64)>") %0) unnamed_addr #0 !dbg !1501 {
start:
; call x86_64::structures::idt::EntryOptions::minimal
  %_1 = call i16 @_ZN6x86_6410structures3idt12EntryOptions7minimal17hf77f63a87fb1ab69E() #8, !dbg !1504
  store i16 0, ptr %0, align 4, !dbg !1505
  %1 = getelementptr inbounds %"x86_64::structures::idt::Entry<extern \22x86-interrupt\22 fn(x86_64::structures::idt::InterruptStackFrame, u64)>", ptr %0, i32 0, i32 1, !dbg !1505
  store i16 0, ptr %1, align 2, !dbg !1505
  %2 = getelementptr inbounds %"x86_64::structures::idt::Entry<extern \22x86-interrupt\22 fn(x86_64::structures::idt::InterruptStackFrame, u64)>", ptr %0, i32 0, i32 2, !dbg !1505
  store i16 %_1, ptr %2, align 4, !dbg !1505
  %3 = getelementptr inbounds %"x86_64::structures::idt::Entry<extern \22x86-interrupt\22 fn(x86_64::structures::idt::InterruptStackFrame, u64)>", ptr %0, i32 0, i32 3, !dbg !1505
  store i16 0, ptr %3, align 2, !dbg !1505
  %4 = getelementptr inbounds %"x86_64::structures::idt::Entry<extern \22x86-interrupt\22 fn(x86_64::structures::idt::InterruptStackFrame, u64)>", ptr %0, i32 0, i32 4, !dbg !1505
  store i32 0, ptr %4, align 4, !dbg !1505
  %5 = getelementptr inbounds %"x86_64::structures::idt::Entry<extern \22x86-interrupt\22 fn(x86_64::structures::idt::InterruptStackFrame, u64)>", ptr %0, i32 0, i32 5, !dbg !1505
  store i32 0, ptr %5, align 4, !dbg !1505
  ret void, !dbg !1506
}

; x86_64::structures::idt::Entry<F>::missing
; Function Attrs: inlinehint noredzone nounwind
define void @"_ZN6x86_6410structures3idt14Entry$LT$F$GT$7missing17hd03d7b7bb4bb81f3E"(ptr sret(%"x86_64::structures::idt::Entry<extern \22x86-interrupt\22 fn(x86_64::structures::idt::InterruptStackFrame, x86_64::structures::idt::PageFaultErrorCode)>") %0) unnamed_addr #0 !dbg !1507 {
start:
; call x86_64::structures::idt::EntryOptions::minimal
  %_1 = call i16 @_ZN6x86_6410structures3idt12EntryOptions7minimal17hf77f63a87fb1ab69E() #8, !dbg !1510
  store i16 0, ptr %0, align 4, !dbg !1511
  %1 = getelementptr inbounds %"x86_64::structures::idt::Entry<extern \22x86-interrupt\22 fn(x86_64::structures::idt::InterruptStackFrame, x86_64::structures::idt::PageFaultErrorCode)>", ptr %0, i32 0, i32 1, !dbg !1511
  store i16 0, ptr %1, align 2, !dbg !1511
  %2 = getelementptr inbounds %"x86_64::structures::idt::Entry<extern \22x86-interrupt\22 fn(x86_64::structures::idt::InterruptStackFrame, x86_64::structures::idt::PageFaultErrorCode)>", ptr %0, i32 0, i32 2, !dbg !1511
  store i16 %_1, ptr %2, align 4, !dbg !1511
  %3 = getelementptr inbounds %"x86_64::structures::idt::Entry<extern \22x86-interrupt\22 fn(x86_64::structures::idt::InterruptStackFrame, x86_64::structures::idt::PageFaultErrorCode)>", ptr %0, i32 0, i32 3, !dbg !1511
  store i16 0, ptr %3, align 2, !dbg !1511
  %4 = getelementptr inbounds %"x86_64::structures::idt::Entry<extern \22x86-interrupt\22 fn(x86_64::structures::idt::InterruptStackFrame, x86_64::structures::idt::PageFaultErrorCode)>", ptr %0, i32 0, i32 4, !dbg !1511
  store i32 0, ptr %4, align 4, !dbg !1511
  %5 = getelementptr inbounds %"x86_64::structures::idt::Entry<extern \22x86-interrupt\22 fn(x86_64::structures::idt::InterruptStackFrame, x86_64::structures::idt::PageFaultErrorCode)>", ptr %0, i32 0, i32 5, !dbg !1511
  store i32 0, ptr %5, align 4, !dbg !1511
  ret void, !dbg !1512
}

; x86_64::structures::idt::InterruptDescriptorTable::load_unsafe
; Function Attrs: inlinehint noredzone nounwind
define internal void @_ZN6x86_6410structures3idt24InterruptDescriptorTable11load_unsafe17h6b7a99d7ba4e585cE(ptr align 16 %self) unnamed_addr #0 !dbg !1513 {
start:
  %self.dbg.spill = alloca ptr, align 8
  %_4 = alloca %"x86_64::structures::DescriptorTablePointer", align 2
  store ptr %self, ptr %self.dbg.spill, align 8
  call void @llvm.dbg.declare(metadata ptr %self.dbg.spill, metadata !1518, metadata !DIExpression()), !dbg !1519
; call x86_64::structures::idt::InterruptDescriptorTable::pointer
  call void @_ZN6x86_6410structures3idt24InterruptDescriptorTable7pointer17he193195a249ac91dE(ptr sret(%"x86_64::structures::DescriptorTablePointer") %_4, ptr align 16 %self) #8, !dbg !1520
; call x86_64::instructions::tables::lidt
  call void @_ZN6x86_6412instructions6tables4lidt17h3e5339f843021874E(ptr align 2 %_4) #8, !dbg !1521
  ret void, !dbg !1522
}

; x86_64::structures::idt::InterruptDescriptorTable::new
; Function Attrs: inlinehint noredzone nounwind
define internal void @_ZN6x86_6410structures3idt24InterruptDescriptorTable3new17h30045b2e578f0b3dE(ptr sret(%"x86_64::structures::idt::InterruptDescriptorTable") %0) unnamed_addr #0 !dbg !1523 {
start:
  %_28 = alloca %"x86_64::structures::idt::Entry<extern \22x86-interrupt\22 fn(x86_64::structures::idt::InterruptStackFrame)>", align 4
  %_27 = alloca [224 x %"x86_64::structures::idt::Entry<extern \22x86-interrupt\22 fn(x86_64::structures::idt::InterruptStackFrame)>"], align 4
  %_26 = alloca %"x86_64::structures::idt::Entry<extern \22x86-interrupt\22 fn(x86_64::structures::idt::InterruptStackFrame)>", align 4
  %_25 = alloca %"x86_64::structures::idt::Entry<extern \22x86-interrupt\22 fn(x86_64::structures::idt::InterruptStackFrame, u64)>", align 4
  %_24 = alloca %"x86_64::structures::idt::Entry<extern \22x86-interrupt\22 fn(x86_64::structures::idt::InterruptStackFrame, u64)>", align 4
  %_23 = alloca %"x86_64::structures::idt::Entry<extern \22x86-interrupt\22 fn(x86_64::structures::idt::InterruptStackFrame)>", align 4
  %_22 = alloca [8 x %"x86_64::structures::idt::Entry<extern \22x86-interrupt\22 fn(x86_64::structures::idt::InterruptStackFrame)>"], align 4
  %_21 = alloca %"x86_64::structures::idt::Entry<extern \22x86-interrupt\22 fn(x86_64::structures::idt::InterruptStackFrame)>", align 4
  %_20 = alloca %"x86_64::structures::idt::Entry<extern \22x86-interrupt\22 fn(x86_64::structures::idt::InterruptStackFrame)>", align 4
  %_19 = alloca %"x86_64::structures::idt::Entry<extern \22x86-interrupt\22 fn(x86_64::structures::idt::InterruptStackFrame) -> !>", align 4
  %_18 = alloca %"x86_64::structures::idt::Entry<extern \22x86-interrupt\22 fn(x86_64::structures::idt::InterruptStackFrame, u64)>", align 4
  %_17 = alloca %"x86_64::structures::idt::Entry<extern \22x86-interrupt\22 fn(x86_64::structures::idt::InterruptStackFrame)>", align 4
  %_16 = alloca %"x86_64::structures::idt::Entry<extern \22x86-interrupt\22 fn(x86_64::structures::idt::InterruptStackFrame)>", align 4
  %_15 = alloca %"x86_64::structures::idt::Entry<extern \22x86-interrupt\22 fn(x86_64::structures::idt::InterruptStackFrame, x86_64::structures::idt::PageFaultErrorCode)>", align 4
  %_14 = alloca %"x86_64::structures::idt::Entry<extern \22x86-interrupt\22 fn(x86_64::structures::idt::InterruptStackFrame, u64)>", align 4
  %_13 = alloca %"x86_64::structures::idt::Entry<extern \22x86-interrupt\22 fn(x86_64::structures::idt::InterruptStackFrame, u64)>", align 4
  %_12 = alloca %"x86_64::structures::idt::Entry<extern \22x86-interrupt\22 fn(x86_64::structures::idt::InterruptStackFrame, u64)>", align 4
  %_11 = alloca %"x86_64::structures::idt::Entry<extern \22x86-interrupt\22 fn(x86_64::structures::idt::InterruptStackFrame, u64)>", align 4
  %_10 = alloca %"x86_64::structures::idt::Entry<extern \22x86-interrupt\22 fn(x86_64::structures::idt::InterruptStackFrame)>", align 4
  %_9 = alloca %"x86_64::structures::idt::Entry<extern \22x86-interrupt\22 fn(x86_64::structures::idt::InterruptStackFrame, u64) -> !>", align 4
  %_8 = alloca %"x86_64::structures::idt::Entry<extern \22x86-interrupt\22 fn(x86_64::structures::idt::InterruptStackFrame)>", align 4
  %_7 = alloca %"x86_64::structures::idt::Entry<extern \22x86-interrupt\22 fn(x86_64::structures::idt::InterruptStackFrame)>", align 4
  %_6 = alloca %"x86_64::structures::idt::Entry<extern \22x86-interrupt\22 fn(x86_64::structures::idt::InterruptStackFrame)>", align 4
  %_5 = alloca %"x86_64::structures::idt::Entry<extern \22x86-interrupt\22 fn(x86_64::structures::idt::InterruptStackFrame)>", align 4
  %_4 = alloca %"x86_64::structures::idt::Entry<extern \22x86-interrupt\22 fn(x86_64::structures::idt::InterruptStackFrame)>", align 4
  %_3 = alloca %"x86_64::structures::idt::Entry<extern \22x86-interrupt\22 fn(x86_64::structures::idt::InterruptStackFrame)>", align 4
  %_2 = alloca %"x86_64::structures::idt::Entry<extern \22x86-interrupt\22 fn(x86_64::structures::idt::InterruptStackFrame)>", align 4
  %_1 = alloca %"x86_64::structures::idt::Entry<extern \22x86-interrupt\22 fn(x86_64::structures::idt::InterruptStackFrame)>", align 4
; call x86_64::structures::idt::Entry<F>::missing
  call void @"_ZN6x86_6410structures3idt14Entry$LT$F$GT$7missing17h444dd1467b89e1dbE"(ptr sret(%"x86_64::structures::idt::Entry<extern \22x86-interrupt\22 fn(x86_64::structures::idt::InterruptStackFrame)>") %_1) #8, !dbg !1526
; call x86_64::structures::idt::Entry<F>::missing
  call void @"_ZN6x86_6410structures3idt14Entry$LT$F$GT$7missing17h444dd1467b89e1dbE"(ptr sret(%"x86_64::structures::idt::Entry<extern \22x86-interrupt\22 fn(x86_64::structures::idt::InterruptStackFrame)>") %_2) #8, !dbg !1527
; call x86_64::structures::idt::Entry<F>::missing
  call void @"_ZN6x86_6410structures3idt14Entry$LT$F$GT$7missing17h444dd1467b89e1dbE"(ptr sret(%"x86_64::structures::idt::Entry<extern \22x86-interrupt\22 fn(x86_64::structures::idt::InterruptStackFrame)>") %_3) #8, !dbg !1528
; call x86_64::structures::idt::Entry<F>::missing
  call void @"_ZN6x86_6410structures3idt14Entry$LT$F$GT$7missing17h444dd1467b89e1dbE"(ptr sret(%"x86_64::structures::idt::Entry<extern \22x86-interrupt\22 fn(x86_64::structures::idt::InterruptStackFrame)>") %_4) #8, !dbg !1529
; call x86_64::structures::idt::Entry<F>::missing
  call void @"_ZN6x86_6410structures3idt14Entry$LT$F$GT$7missing17h444dd1467b89e1dbE"(ptr sret(%"x86_64::structures::idt::Entry<extern \22x86-interrupt\22 fn(x86_64::structures::idt::InterruptStackFrame)>") %_5) #8, !dbg !1530
; call x86_64::structures::idt::Entry<F>::missing
  call void @"_ZN6x86_6410structures3idt14Entry$LT$F$GT$7missing17h444dd1467b89e1dbE"(ptr sret(%"x86_64::structures::idt::Entry<extern \22x86-interrupt\22 fn(x86_64::structures::idt::InterruptStackFrame)>") %_6) #8, !dbg !1531
; call x86_64::structures::idt::Entry<F>::missing
  call void @"_ZN6x86_6410structures3idt14Entry$LT$F$GT$7missing17h444dd1467b89e1dbE"(ptr sret(%"x86_64::structures::idt::Entry<extern \22x86-interrupt\22 fn(x86_64::structures::idt::InterruptStackFrame)>") %_7) #8, !dbg !1532
; call x86_64::structures::idt::Entry<F>::missing
  call void @"_ZN6x86_6410structures3idt14Entry$LT$F$GT$7missing17h444dd1467b89e1dbE"(ptr sret(%"x86_64::structures::idt::Entry<extern \22x86-interrupt\22 fn(x86_64::structures::idt::InterruptStackFrame)>") %_8) #8, !dbg !1533
; call x86_64::structures::idt::Entry<F>::missing
  call void @"_ZN6x86_6410structures3idt14Entry$LT$F$GT$7missing17h214453c37b75bf77E"(ptr sret(%"x86_64::structures::idt::Entry<extern \22x86-interrupt\22 fn(x86_64::structures::idt::InterruptStackFrame, u64) -> !>") %_9) #8, !dbg !1534
; call x86_64::structures::idt::Entry<F>::missing
  call void @"_ZN6x86_6410structures3idt14Entry$LT$F$GT$7missing17h444dd1467b89e1dbE"(ptr sret(%"x86_64::structures::idt::Entry<extern \22x86-interrupt\22 fn(x86_64::structures::idt::InterruptStackFrame)>") %_10) #8, !dbg !1535
; call x86_64::structures::idt::Entry<F>::missing
  call void @"_ZN6x86_6410structures3idt14Entry$LT$F$GT$7missing17h731db60336421473E"(ptr sret(%"x86_64::structures::idt::Entry<extern \22x86-interrupt\22 fn(x86_64::structures::idt::InterruptStackFrame, u64)>") %_11) #8, !dbg !1536
; call x86_64::structures::idt::Entry<F>::missing
  call void @"_ZN6x86_6410structures3idt14Entry$LT$F$GT$7missing17h731db60336421473E"(ptr sret(%"x86_64::structures::idt::Entry<extern \22x86-interrupt\22 fn(x86_64::structures::idt::InterruptStackFrame, u64)>") %_12) #8, !dbg !1537
; call x86_64::structures::idt::Entry<F>::missing
  call void @"_ZN6x86_6410structures3idt14Entry$LT$F$GT$7missing17h731db60336421473E"(ptr sret(%"x86_64::structures::idt::Entry<extern \22x86-interrupt\22 fn(x86_64::structures::idt::InterruptStackFrame, u64)>") %_13) #8, !dbg !1538
; call x86_64::structures::idt::Entry<F>::missing
  call void @"_ZN6x86_6410structures3idt14Entry$LT$F$GT$7missing17h731db60336421473E"(ptr sret(%"x86_64::structures::idt::Entry<extern \22x86-interrupt\22 fn(x86_64::structures::idt::InterruptStackFrame, u64)>") %_14) #8, !dbg !1539
; call x86_64::structures::idt::Entry<F>::missing
  call void @"_ZN6x86_6410structures3idt14Entry$LT$F$GT$7missing17hd03d7b7bb4bb81f3E"(ptr sret(%"x86_64::structures::idt::Entry<extern \22x86-interrupt\22 fn(x86_64::structures::idt::InterruptStackFrame, x86_64::structures::idt::PageFaultErrorCode)>") %_15) #8, !dbg !1540
; call x86_64::structures::idt::Entry<F>::missing
  call void @"_ZN6x86_6410structures3idt14Entry$LT$F$GT$7missing17h444dd1467b89e1dbE"(ptr sret(%"x86_64::structures::idt::Entry<extern \22x86-interrupt\22 fn(x86_64::structures::idt::InterruptStackFrame)>") %_16) #8, !dbg !1541
; call x86_64::structures::idt::Entry<F>::missing
  call void @"_ZN6x86_6410structures3idt14Entry$LT$F$GT$7missing17h444dd1467b89e1dbE"(ptr sret(%"x86_64::structures::idt::Entry<extern \22x86-interrupt\22 fn(x86_64::structures::idt::InterruptStackFrame)>") %_17) #8, !dbg !1542
; call x86_64::structures::idt::Entry<F>::missing
  call void @"_ZN6x86_6410structures3idt14Entry$LT$F$GT$7missing17h731db60336421473E"(ptr sret(%"x86_64::structures::idt::Entry<extern \22x86-interrupt\22 fn(x86_64::structures::idt::InterruptStackFrame, u64)>") %_18) #8, !dbg !1543
; call x86_64::structures::idt::Entry<F>::missing
  call void @"_ZN6x86_6410structures3idt14Entry$LT$F$GT$7missing17h62616f8538948d1cE"(ptr sret(%"x86_64::structures::idt::Entry<extern \22x86-interrupt\22 fn(x86_64::structures::idt::InterruptStackFrame) -> !>") %_19) #8, !dbg !1544
; call x86_64::structures::idt::Entry<F>::missing
  call void @"_ZN6x86_6410structures3idt14Entry$LT$F$GT$7missing17h444dd1467b89e1dbE"(ptr sret(%"x86_64::structures::idt::Entry<extern \22x86-interrupt\22 fn(x86_64::structures::idt::InterruptStackFrame)>") %_20) #8, !dbg !1545
; call x86_64::structures::idt::Entry<F>::missing
  call void @"_ZN6x86_6410structures3idt14Entry$LT$F$GT$7missing17h444dd1467b89e1dbE"(ptr sret(%"x86_64::structures::idt::Entry<extern \22x86-interrupt\22 fn(x86_64::structures::idt::InterruptStackFrame)>") %_21) #8, !dbg !1546
; call x86_64::structures::idt::Entry<F>::missing
  call void @"_ZN6x86_6410structures3idt14Entry$LT$F$GT$7missing17h444dd1467b89e1dbE"(ptr sret(%"x86_64::structures::idt::Entry<extern \22x86-interrupt\22 fn(x86_64::structures::idt::InterruptStackFrame)>") %_23) #8, !dbg !1547
  %1 = getelementptr inbounds [8 x %"x86_64::structures::idt::Entry<extern \22x86-interrupt\22 fn(x86_64::structures::idt::InterruptStackFrame)>"], ptr %_22, i64 0, i64 0, !dbg !1548
  %2 = getelementptr inbounds [8 x %"x86_64::structures::idt::Entry<extern \22x86-interrupt\22 fn(x86_64::structures::idt::InterruptStackFrame)>"], ptr %_22, i64 0, i64 8, !dbg !1548
  br label %repeat_loop_header, !dbg !1548

repeat_loop_header:                               ; preds = %repeat_loop_body, %start
  %3 = phi ptr [ %1, %start ], [ %5, %repeat_loop_body ]
  %4 = icmp ne ptr %3, %2
  br i1 %4, label %repeat_loop_body, label %repeat_loop_next

repeat_loop_body:                                 ; preds = %repeat_loop_header
  call void @llvm.memcpy.p0.p0.i64(ptr align 4 %3, ptr align 4 %_23, i64 16, i1 false)
  %5 = getelementptr inbounds %"x86_64::structures::idt::Entry<extern \22x86-interrupt\22 fn(x86_64::structures::idt::InterruptStackFrame)>", ptr %3, i64 1
  br label %repeat_loop_header

repeat_loop_next:                                 ; preds = %repeat_loop_header
; call x86_64::structures::idt::Entry<F>::missing
  call void @"_ZN6x86_6410structures3idt14Entry$LT$F$GT$7missing17h731db60336421473E"(ptr sret(%"x86_64::structures::idt::Entry<extern \22x86-interrupt\22 fn(x86_64::structures::idt::InterruptStackFrame, u64)>") %_24) #8, !dbg !1549
; call x86_64::structures::idt::Entry<F>::missing
  call void @"_ZN6x86_6410structures3idt14Entry$LT$F$GT$7missing17h731db60336421473E"(ptr sret(%"x86_64::structures::idt::Entry<extern \22x86-interrupt\22 fn(x86_64::structures::idt::InterruptStackFrame, u64)>") %_25) #8, !dbg !1550
; call x86_64::structures::idt::Entry<F>::missing
  call void @"_ZN6x86_6410structures3idt14Entry$LT$F$GT$7missing17h444dd1467b89e1dbE"(ptr sret(%"x86_64::structures::idt::Entry<extern \22x86-interrupt\22 fn(x86_64::structures::idt::InterruptStackFrame)>") %_26) #8, !dbg !1551
; call x86_64::structures::idt::Entry<F>::missing
  call void @"_ZN6x86_6410structures3idt14Entry$LT$F$GT$7missing17h444dd1467b89e1dbE"(ptr sret(%"x86_64::structures::idt::Entry<extern \22x86-interrupt\22 fn(x86_64::structures::idt::InterruptStackFrame)>") %_28) #8, !dbg !1552
  %6 = getelementptr inbounds [224 x %"x86_64::structures::idt::Entry<extern \22x86-interrupt\22 fn(x86_64::structures::idt::InterruptStackFrame)>"], ptr %_27, i64 0, i64 0, !dbg !1553
  %7 = getelementptr inbounds [224 x %"x86_64::structures::idt::Entry<extern \22x86-interrupt\22 fn(x86_64::structures::idt::InterruptStackFrame)>"], ptr %_27, i64 0, i64 224, !dbg !1553
  br label %repeat_loop_header1, !dbg !1553

repeat_loop_header1:                              ; preds = %repeat_loop_body2, %repeat_loop_next
  %8 = phi ptr [ %6, %repeat_loop_next ], [ %10, %repeat_loop_body2 ]
  %9 = icmp ne ptr %8, %7
  br i1 %9, label %repeat_loop_body2, label %repeat_loop_next3

repeat_loop_body2:                                ; preds = %repeat_loop_header1
  call void @llvm.memcpy.p0.p0.i64(ptr align 4 %8, ptr align 4 %_28, i64 16, i1 false)
  %10 = getelementptr inbounds %"x86_64::structures::idt::Entry<extern \22x86-interrupt\22 fn(x86_64::structures::idt::InterruptStackFrame)>", ptr %8, i64 1
  br label %repeat_loop_header1

repeat_loop_next3:                                ; preds = %repeat_loop_header1
  call void @llvm.memcpy.p0.p0.i64(ptr align 16 %0, ptr align 4 %_1, i64 16, i1 false), !dbg !1554
  %11 = getelementptr inbounds %"x86_64::structures::idt::InterruptDescriptorTable", ptr %0, i32 0, i32 1, !dbg !1554
  call void @llvm.memcpy.p0.p0.i64(ptr align 16 %11, ptr align 4 %_2, i64 16, i1 false), !dbg !1554
  %12 = getelementptr inbounds %"x86_64::structures::idt::InterruptDescriptorTable", ptr %0, i32 0, i32 2, !dbg !1554
  call void @llvm.memcpy.p0.p0.i64(ptr align 16 %12, ptr align 4 %_3, i64 16, i1 false), !dbg !1554
  %13 = getelementptr inbounds %"x86_64::structures::idt::InterruptDescriptorTable", ptr %0, i32 0, i32 3, !dbg !1554
  call void @llvm.memcpy.p0.p0.i64(ptr align 16 %13, ptr align 4 %_4, i64 16, i1 false), !dbg !1554
  %14 = getelementptr inbounds %"x86_64::structures::idt::InterruptDescriptorTable", ptr %0, i32 0, i32 4, !dbg !1554
  call void @llvm.memcpy.p0.p0.i64(ptr align 16 %14, ptr align 4 %_5, i64 16, i1 false), !dbg !1554
  %15 = getelementptr inbounds %"x86_64::structures::idt::InterruptDescriptorTable", ptr %0, i32 0, i32 5, !dbg !1554
  call void @llvm.memcpy.p0.p0.i64(ptr align 16 %15, ptr align 4 %_6, i64 16, i1 false), !dbg !1554
  %16 = getelementptr inbounds %"x86_64::structures::idt::InterruptDescriptorTable", ptr %0, i32 0, i32 6, !dbg !1554
  call void @llvm.memcpy.p0.p0.i64(ptr align 16 %16, ptr align 4 %_7, i64 16, i1 false), !dbg !1554
  %17 = getelementptr inbounds %"x86_64::structures::idt::InterruptDescriptorTable", ptr %0, i32 0, i32 7, !dbg !1554
  call void @llvm.memcpy.p0.p0.i64(ptr align 16 %17, ptr align 4 %_8, i64 16, i1 false), !dbg !1554
  %18 = getelementptr inbounds %"x86_64::structures::idt::InterruptDescriptorTable", ptr %0, i32 0, i32 8, !dbg !1554
  call void @llvm.memcpy.p0.p0.i64(ptr align 16 %18, ptr align 4 %_9, i64 16, i1 false), !dbg !1554
  %19 = getelementptr inbounds %"x86_64::structures::idt::InterruptDescriptorTable", ptr %0, i32 0, i32 9, !dbg !1554
  call void @llvm.memcpy.p0.p0.i64(ptr align 16 %19, ptr align 4 %_10, i64 16, i1 false), !dbg !1554
  %20 = getelementptr inbounds %"x86_64::structures::idt::InterruptDescriptorTable", ptr %0, i32 0, i32 10, !dbg !1554
  call void @llvm.memcpy.p0.p0.i64(ptr align 16 %20, ptr align 4 %_11, i64 16, i1 false), !dbg !1554
  %21 = getelementptr inbounds %"x86_64::structures::idt::InterruptDescriptorTable", ptr %0, i32 0, i32 11, !dbg !1554
  call void @llvm.memcpy.p0.p0.i64(ptr align 16 %21, ptr align 4 %_12, i64 16, i1 false), !dbg !1554
  %22 = getelementptr inbounds %"x86_64::structures::idt::InterruptDescriptorTable", ptr %0, i32 0, i32 12, !dbg !1554
  call void @llvm.memcpy.p0.p0.i64(ptr align 16 %22, ptr align 4 %_13, i64 16, i1 false), !dbg !1554
  %23 = getelementptr inbounds %"x86_64::structures::idt::InterruptDescriptorTable", ptr %0, i32 0, i32 13, !dbg !1554
  call void @llvm.memcpy.p0.p0.i64(ptr align 16 %23, ptr align 4 %_14, i64 16, i1 false), !dbg !1554
  %24 = getelementptr inbounds %"x86_64::structures::idt::InterruptDescriptorTable", ptr %0, i32 0, i32 14, !dbg !1554
  call void @llvm.memcpy.p0.p0.i64(ptr align 16 %24, ptr align 4 %_15, i64 16, i1 false), !dbg !1554
  %25 = getelementptr inbounds %"x86_64::structures::idt::InterruptDescriptorTable", ptr %0, i32 0, i32 15, !dbg !1554
  call void @llvm.memcpy.p0.p0.i64(ptr align 16 %25, ptr align 4 %_16, i64 16, i1 false), !dbg !1554
  %26 = getelementptr inbounds %"x86_64::structures::idt::InterruptDescriptorTable", ptr %0, i32 0, i32 16, !dbg !1554
  call void @llvm.memcpy.p0.p0.i64(ptr align 16 %26, ptr align 4 %_17, i64 16, i1 false), !dbg !1554
  %27 = getelementptr inbounds %"x86_64::structures::idt::InterruptDescriptorTable", ptr %0, i32 0, i32 17, !dbg !1554
  call void @llvm.memcpy.p0.p0.i64(ptr align 16 %27, ptr align 4 %_18, i64 16, i1 false), !dbg !1554
  %28 = getelementptr inbounds %"x86_64::structures::idt::InterruptDescriptorTable", ptr %0, i32 0, i32 18, !dbg !1554
  call void @llvm.memcpy.p0.p0.i64(ptr align 16 %28, ptr align 4 %_19, i64 16, i1 false), !dbg !1554
  %29 = getelementptr inbounds %"x86_64::structures::idt::InterruptDescriptorTable", ptr %0, i32 0, i32 19, !dbg !1554
  call void @llvm.memcpy.p0.p0.i64(ptr align 16 %29, ptr align 4 %_20, i64 16, i1 false), !dbg !1554
  %30 = getelementptr inbounds %"x86_64::structures::idt::InterruptDescriptorTable", ptr %0, i32 0, i32 20, !dbg !1554
  call void @llvm.memcpy.p0.p0.i64(ptr align 16 %30, ptr align 4 %_21, i64 16, i1 false), !dbg !1554
  %31 = getelementptr inbounds %"x86_64::structures::idt::InterruptDescriptorTable", ptr %0, i32 0, i32 21, !dbg !1554
  call void @llvm.memcpy.p0.p0.i64(ptr align 16 %31, ptr align 4 %_22, i64 128, i1 false), !dbg !1554
  %32 = getelementptr inbounds %"x86_64::structures::idt::InterruptDescriptorTable", ptr %0, i32 0, i32 22, !dbg !1554
  call void @llvm.memcpy.p0.p0.i64(ptr align 16 %32, ptr align 4 %_24, i64 16, i1 false), !dbg !1554
  %33 = getelementptr inbounds %"x86_64::structures::idt::InterruptDescriptorTable", ptr %0, i32 0, i32 23, !dbg !1554
  call void @llvm.memcpy.p0.p0.i64(ptr align 16 %33, ptr align 4 %_25, i64 16, i1 false), !dbg !1554
  %34 = getelementptr inbounds %"x86_64::structures::idt::InterruptDescriptorTable", ptr %0, i32 0, i32 24, !dbg !1554
  call void @llvm.memcpy.p0.p0.i64(ptr align 16 %34, ptr align 4 %_26, i64 16, i1 false), !dbg !1554
  %35 = getelementptr inbounds %"x86_64::structures::idt::InterruptDescriptorTable", ptr %0, i32 0, i32 25, !dbg !1554
  call void @llvm.memcpy.p0.p0.i64(ptr align 16 %35, ptr align 4 %_27, i64 3584, i1 false), !dbg !1554
  ret void, !dbg !1555
}

; x86_64::structures::idt::InterruptDescriptorTable::load
; Function Attrs: inlinehint noredzone nounwind
define internal void @_ZN6x86_6410structures3idt24InterruptDescriptorTable4load17h4933d6eca7034fe0E(ptr align 16 %self) unnamed_addr #0 !dbg !1556 {
start:
  %self.dbg.spill = alloca ptr, align 8
  store ptr %self, ptr %self.dbg.spill, align 8
  call void @llvm.dbg.declare(metadata ptr %self.dbg.spill, metadata !1558, metadata !DIExpression()), !dbg !1559
; call x86_64::structures::idt::InterruptDescriptorTable::load_unsafe
  call void @_ZN6x86_6410structures3idt24InterruptDescriptorTable11load_unsafe17h6b7a99d7ba4e585cE(ptr align 16 %self) #8, !dbg !1560
  ret void, !dbg !1561
}

; x86_64::instructions::interrupts::enable
; Function Attrs: inlinehint noredzone nounwind
define internal void @_ZN6x86_6412instructions10interrupts6enable17h61ef9dd0bec737feE() unnamed_addr #0 !dbg !1562 {
start:
  call void asm sideeffect inteldialect "sti", "~{dirflag},~{fpsr},~{flags}"() #12, !dbg !1565, !srcloc !1566
  ret void, !dbg !1567
}

; x86_64::instructions::tables::lgdt
; Function Attrs: inlinehint noredzone nounwind
define internal void @_ZN6x86_6412instructions6tables4lgdt17h0a73f8c6f5bb66b2E(ptr align 2 %gdt) unnamed_addr #0 !dbg !1568 {
start:
  %gdt.dbg.spill = alloca ptr, align 8
  store ptr %gdt, ptr %gdt.dbg.spill, align 8
  call void @llvm.dbg.declare(metadata ptr %gdt.dbg.spill, metadata !1579, metadata !DIExpression()), !dbg !1580
  call void asm sideeffect inteldialect "lgdt [${0:q}]", "r,~{memory}"(ptr %gdt), !dbg !1581, !srcloc !1582
  ret void, !dbg !1583
}

; x86_64::instructions::tables::lidt
; Function Attrs: inlinehint noredzone nounwind
define internal void @_ZN6x86_6412instructions6tables4lidt17h3e5339f843021874E(ptr align 2 %idt) unnamed_addr #0 !dbg !1584 {
start:
  %idt.dbg.spill = alloca ptr, align 8
  store ptr %idt, ptr %idt.dbg.spill, align 8
  call void @llvm.dbg.declare(metadata ptr %idt.dbg.spill, metadata !1586, metadata !DIExpression()), !dbg !1587
  call void asm sideeffect inteldialect "lidt [${0:q}]", "r,~{memory}"(ptr %idt), !dbg !1588, !srcloc !1589
  ret void, !dbg !1590
}

; x86_64::instructions::tables::load_tss
; Function Attrs: inlinehint noredzone nounwind
define internal void @_ZN6x86_6412instructions6tables8load_tss17h98905ee24c4611d9E(i16 %sel) unnamed_addr #0 !dbg !1591 {
start:
  %sel.dbg.spill = alloca i16, align 2
  store i16 %sel, ptr %sel.dbg.spill, align 2
  call void @llvm.dbg.declare(metadata ptr %sel.dbg.spill, metadata !1595, metadata !DIExpression()), !dbg !1596
  call void asm sideeffect inteldialect "ltr ${0:w}", "r,~{memory}"(i16 %sel), !dbg !1597, !srcloc !1598
  ret void, !dbg !1599
}

; x86_64::addr::VirtAddr::new_truncate
; Function Attrs: inlinehint noredzone nounwind
define internal i64 @_ZN6x86_644addr8VirtAddr12new_truncate17hc26e17bc22ab967bE(i64 %addr) unnamed_addr #0 !dbg !1600 {
start:
  %addr.dbg.spill = alloca i64, align 8
  %0 = alloca i64, align 8
  store i64 %addr, ptr %addr.dbg.spill, align 8
  call void @llvm.dbg.declare(metadata ptr %addr.dbg.spill, metadata !1605, metadata !DIExpression()), !dbg !1606
  %_5 = shl i64 %addr, 16, !dbg !1607
  %_3 = ashr i64 %_5, 16, !dbg !1608
  store i64 %_3, ptr %0, align 8, !dbg !1609
  %1 = load i64, ptr %0, align 8, !dbg !1610, !noundef !18
  ret i64 %1, !dbg !1610
}

; x86_64::addr::VirtAddr::new
; Function Attrs: inlinehint noredzone nounwind
define internal i64 @_ZN6x86_644addr8VirtAddr3new17h2a896f3b9febb74fE(i64 %addr) unnamed_addr #0 !dbg !1611 {
start:
  %addr.dbg.spill = alloca i64, align 8
  store i64 %addr, ptr %addr.dbg.spill, align 8
  call void @llvm.dbg.declare(metadata ptr %addr.dbg.spill, metadata !1613, metadata !DIExpression()), !dbg !1614
; call x86_64::addr::VirtAddr::try_new
  %0 = call { i64, i64 } @_ZN6x86_644addr8VirtAddr7try_new17hba6bd91edb3d03cfE(i64 %addr) #8, !dbg !1615
  %_2.0 = extractvalue { i64, i64 } %0, 0, !dbg !1615
  %_2.1 = extractvalue { i64, i64 } %0, 1, !dbg !1615
; call core::result::Result<T,E>::expect
  %1 = call i64 @"_ZN4core6result19Result$LT$T$C$E$GT$6expect17h049fff1ad62becc6E"(i64 %_2.0, i64 %_2.1, ptr align 1 @alloc_3b30f3c2fe1935017d2714aa9952ea95, i64 74, ptr align 8 @alloc_6918487e00f1778b5f784ee4db0636b1) #8, !dbg !1615
  ret i64 %1, !dbg !1616
}

; x86_64::addr::VirtAddr::as_u64
; Function Attrs: inlinehint noredzone nounwind
define internal i64 @_ZN6x86_644addr8VirtAddr6as_u6417h1918a434450537adE(i64 %self) unnamed_addr #0 !dbg !1617 {
start:
  %self.dbg.spill = alloca i64, align 8
  store i64 %self, ptr %self.dbg.spill, align 8
  call void @llvm.dbg.declare(metadata ptr %self.dbg.spill, metadata !1621, metadata !DIExpression()), !dbg !1622
  ret i64 %self, !dbg !1623
}

; x86_64::addr::VirtAddr::try_new
; Function Attrs: inlinehint noredzone nounwind
define internal { i64, i64 } @_ZN6x86_644addr8VirtAddr7try_new17hba6bd91edb3d03cfE(i64 %0) unnamed_addr #0 !dbg !1624 {
start:
  %_7 = alloca i64, align 8
  %_5 = alloca i64, align 8
  %_4 = alloca { i64, i64 }, align 8
  %1 = alloca { i64, i64 }, align 8
  %addr = alloca i64, align 8
  store i64 %0, ptr %addr, align 8
  call void @llvm.dbg.declare(metadata ptr %addr, metadata !1647, metadata !DIExpression()), !dbg !1648
  store i64 47, ptr %_4, align 8, !dbg !1649
  %2 = getelementptr inbounds { i64, i64 }, ptr %_4, i32 0, i32 1, !dbg !1649
  store i64 64, ptr %2, align 8, !dbg !1649
  %3 = getelementptr inbounds { i64, i64 }, ptr %_4, i32 0, i32 0, !dbg !1650
  %4 = load i64, ptr %3, align 8, !dbg !1650, !noundef !18
  %5 = getelementptr inbounds { i64, i64 }, ptr %_4, i32 0, i32 1, !dbg !1650
  %6 = load i64, ptr %5, align 8, !dbg !1650, !noundef !18
; call <u64 as bit_field::BitField>::get_bits
  %_2 = call i64 @"_ZN43_$LT$u64$u20$as$u20$bit_field..BitField$GT$8get_bits17h7f9392334ae0b20dE"(ptr align 8 %addr, i64 %4, i64 %6) #8, !dbg !1650
  switch i64 %_2, label %bb2 [
    i64 0, label %bb3
    i64 131071, label %bb3
    i64 1, label %bb4
  ], !dbg !1651

bb2:                                              ; preds = %start
  %7 = load i64, ptr %addr, align 8, !dbg !1652, !noundef !18
  store i64 %7, ptr %_7, align 8, !dbg !1652
  %8 = load i64, ptr %_7, align 8, !dbg !1653, !noundef !18
  %9 = getelementptr inbounds { i64, i64 }, ptr %1, i32 0, i32 1, !dbg !1653
  store i64 %8, ptr %9, align 8, !dbg !1653
  store i64 1, ptr %1, align 8, !dbg !1653
  br label %bb6, !dbg !1654

bb3:                                              ; preds = %start, %start
  %10 = load i64, ptr %addr, align 8, !dbg !1655, !noundef !18
  store i64 %10, ptr %_5, align 8, !dbg !1655
  %11 = load i64, ptr %_5, align 8, !dbg !1656, !noundef !18
  %12 = getelementptr inbounds { i64, i64 }, ptr %1, i32 0, i32 1, !dbg !1656
  store i64 %11, ptr %12, align 8, !dbg !1656
  store i64 0, ptr %1, align 8, !dbg !1656
  br label %bb6, !dbg !1657

bb4:                                              ; preds = %start
  %13 = load i64, ptr %addr, align 8, !dbg !1658, !noundef !18
; call x86_64::addr::VirtAddr::new_truncate
  %_6 = call i64 @_ZN6x86_644addr8VirtAddr12new_truncate17hc26e17bc22ab967bE(i64 %13) #8, !dbg !1658
  %14 = getelementptr inbounds { i64, i64 }, ptr %1, i32 0, i32 1, !dbg !1659
  store i64 %_6, ptr %14, align 8, !dbg !1659
  store i64 0, ptr %1, align 8, !dbg !1659
  br label %bb6, !dbg !1660

bb6:                                              ; preds = %bb3, %bb4, %bb2
  %15 = getelementptr inbounds { i64, i64 }, ptr %1, i32 0, i32 0, !dbg !1661
  %16 = load i64, ptr %15, align 8, !dbg !1661, !range !869, !noundef !18
  %17 = getelementptr inbounds { i64, i64 }, ptr %1, i32 0, i32 1, !dbg !1661
  %18 = load i64, ptr %17, align 8, !dbg !1661, !noundef !18
  %19 = insertvalue { i64, i64 } poison, i64 %16, 0, !dbg !1661
  %20 = insertvalue { i64, i64 } %19, i64 %18, 1, !dbg !1661
  ret { i64, i64 } %20, !dbg !1661
}

; x86_64::addr::VirtAddr::from_ptr
; Function Attrs: inlinehint noredzone nounwind
define i64 @_ZN6x86_644addr8VirtAddr8from_ptr17hcc4f2b043a0de00dE(ptr %ptr) unnamed_addr #0 !dbg !1662 {
start:
  %ptr.dbg.spill = alloca ptr, align 8
  store ptr %ptr, ptr %ptr.dbg.spill, align 8
  call void @llvm.dbg.declare(metadata ptr %ptr.dbg.spill, metadata !1667, metadata !DIExpression()), !dbg !1670
  %_2 = ptrtoint ptr %ptr to i64, !dbg !1671
; call x86_64::addr::VirtAddr::new
  %0 = call i64 @_ZN6x86_644addr8VirtAddr3new17h2a896f3b9febb74fE(i64 %_2) #8, !dbg !1672
  ret i64 %0, !dbg !1673
}

; x86_64::registers::segmentation::SegmentSelector::new
; Function Attrs: inlinehint noredzone nounwind
define internal i16 @_ZN6x86_649registers12segmentation15SegmentSelector3new17hcd25b6961609663aE(i16 %index, i8 %0) unnamed_addr #0 !dbg !1674 {
start:
  %index.dbg.spill = alloca i16, align 2
  %1 = alloca i16, align 2
  %rpl = alloca i8, align 1
  store i8 %0, ptr %rpl, align 1
  store i16 %index, ptr %index.dbg.spill, align 2
  call void @llvm.dbg.declare(metadata ptr %index.dbg.spill, metadata !1679, metadata !DIExpression()), !dbg !1681
  call void @llvm.dbg.declare(metadata ptr %rpl, metadata !1680, metadata !DIExpression()), !dbg !1682
  %_4 = shl i16 %index, 3, !dbg !1683
  %_8 = load i8, ptr %rpl, align 1, !dbg !1684, !range !1410, !noundef !18
  %_9 = icmp uge i8 3, %_8, !dbg !1684
  call void @llvm.assume(i1 %_9), !dbg !1684
  %_10 = icmp ule i8 0, %_8, !dbg !1684
  call void @llvm.assume(i1 %_10), !dbg !1684
  %_7 = zext i8 %_8 to i16, !dbg !1684
  %_3 = or i16 %_4, %_7, !dbg !1683
  store i16 %_3, ptr %1, align 2, !dbg !1685
  %2 = load i16, ptr %1, align 2, !dbg !1686, !noundef !18
  ret i16 %2, !dbg !1686
}

; <x86_64::addr::VirtAddr as core::ops::arith::Add<u64>>::add
; Function Attrs: inlinehint noredzone nounwind
define internal i64 @"_ZN75_$LT$x86_64..addr..VirtAddr$u20$as$u20$core..ops..arith..Add$LT$u64$GT$$GT$3add17hda1dbb9be07db267E"(i64 %self, i64 %rhs) unnamed_addr #0 !dbg !1687 {
start:
  %rhs.dbg.spill = alloca i64, align 8
  %self.dbg.spill = alloca i64, align 8
  store i64 %self, ptr %self.dbg.spill, align 8
  call void @llvm.dbg.declare(metadata ptr %self.dbg.spill, metadata !1692, metadata !DIExpression()), !dbg !1694
  store i64 %rhs, ptr %rhs.dbg.spill, align 8
  call void @llvm.dbg.declare(metadata ptr %rhs.dbg.spill, metadata !1693, metadata !DIExpression()), !dbg !1695
  %0 = call { i64, i1 } @llvm.uadd.with.overflow.i64(i64 %self, i64 %rhs), !dbg !1696
  %_5.0 = extractvalue { i64, i1 } %0, 0, !dbg !1696
  %_5.1 = extractvalue { i64, i1 } %0, 1, !dbg !1696
  %1 = call i1 @llvm.expect.i1(i1 %_5.1, i1 false), !dbg !1696
  br i1 %1, label %panic, label %bb1, !dbg !1696

bb1:                                              ; preds = %start
; call x86_64::addr::VirtAddr::new
  %2 = call i64 @_ZN6x86_644addr8VirtAddr3new17h2a896f3b9febb74fE(i64 %_5.0) #8, !dbg !1697
  ret i64 %2, !dbg !1698

panic:                                            ; preds = %start
; call core::panicking::panic
  call void @_ZN4core9panicking5panic17h277234a6cd982fe5E(ptr align 1 @str.3, i64 28, ptr align 8 @alloc_3d3eb5c560ed88996f412367f383dbd0) #11, !dbg !1696
  unreachable, !dbg !1696
}

; <x86_64::addr::VirtAddr as core::ops::arith::Add<usize>>::add
; Function Attrs: inlinehint noredzone nounwind
define internal i64 @"_ZN77_$LT$x86_64..addr..VirtAddr$u20$as$u20$core..ops..arith..Add$LT$usize$GT$$GT$3add17h525101c8c712de6fE"(i64 %self, i64 %rhs) unnamed_addr #0 !dbg !1699 {
start:
  %rhs.dbg.spill = alloca i64, align 8
  %self.dbg.spill = alloca i64, align 8
  store i64 %self, ptr %self.dbg.spill, align 8
  call void @llvm.dbg.declare(metadata ptr %self.dbg.spill, metadata !1704, metadata !DIExpression()), !dbg !1706
  store i64 %rhs, ptr %rhs.dbg.spill, align 8
  call void @llvm.dbg.declare(metadata ptr %rhs.dbg.spill, metadata !1705, metadata !DIExpression()), !dbg !1707
; call <x86_64::addr::VirtAddr as core::ops::arith::Add<u64>>::add
  %0 = call i64 @"_ZN75_$LT$x86_64..addr..VirtAddr$u20$as$u20$core..ops..arith..Add$LT$u64$GT$$GT$3add17hda1dbb9be07db267E"(i64 %self, i64 %rhs) #8, !dbg !1708
  ret i64 %0, !dbg !1709
}

; <spin::mutex::MutexGuard<T> as core::ops::deref::DerefMut>::deref_mut
; Function Attrs: noredzone nounwind
define align 2 ptr @"_ZN79_$LT$spin..mutex..MutexGuard$LT$T$GT$$u20$as$u20$core..ops..deref..DerefMut$GT$9deref_mut17ha7b3faa844ba08deE"(ptr align 8 %self) unnamed_addr #1 !dbg !1710 {
start:
  %self.dbg.spill = alloca ptr, align 8
  store ptr %self, ptr %self.dbg.spill, align 8
  call void @llvm.dbg.declare(metadata ptr %self.dbg.spill, metadata !1718, metadata !DIExpression()), !dbg !1719
; call <spin::mutex::spin::SpinMutexGuard<T> as core::ops::deref::DerefMut>::deref_mut
  %_2 = call align 2 ptr @"_ZN89_$LT$spin..mutex..spin..SpinMutexGuard$LT$T$GT$$u20$as$u20$core..ops..deref..DerefMut$GT$9deref_mut17h21be7c3a189141adE"(ptr align 8 %self) #8, !dbg !1720
  ret ptr %_2, !dbg !1721
}

; <x86_64::structures::idt::InterruptStackFrame as core::fmt::Debug>::fmt
; Function Attrs: inlinehint noredzone nounwind
define internal zeroext i1 @"_ZN81_$LT$x86_64..structures..idt..InterruptStackFrame$u20$as$u20$core..fmt..Debug$GT$3fmt17h779dc3ea5271d24bE"(ptr align 8 %self, ptr align 8 %f) unnamed_addr #0 !dbg !1722 {
start:
  %f.dbg.spill = alloca ptr, align 8
  %self.dbg.spill = alloca ptr, align 8
  store ptr %self, ptr %self.dbg.spill, align 8
  call void @llvm.dbg.declare(metadata ptr %self.dbg.spill, metadata !1725, metadata !DIExpression()), !dbg !1727
  store ptr %f, ptr %f.dbg.spill, align 8
  call void @llvm.dbg.declare(metadata ptr %f.dbg.spill, metadata !1726, metadata !DIExpression()), !dbg !1728
; call <x86_64::structures::idt::InterruptStackFrameValue as core::fmt::Debug>::fmt
  %0 = call zeroext i1 @"_ZN86_$LT$x86_64..structures..idt..InterruptStackFrameValue$u20$as$u20$core..fmt..Debug$GT$3fmt17hbf752379614f28bfE"(ptr align 8 %self, ptr align 8 %f) #8, !dbg !1729
  ret i1 %0, !dbg !1730
}

; <spin::mutex::spin::SpinMutexGuard<T> as core::ops::drop::Drop>::drop
; Function Attrs: noredzone nounwind
define void @"_ZN84_$LT$spin..mutex..spin..SpinMutexGuard$LT$T$GT$$u20$as$u20$core..ops..drop..Drop$GT$4drop17hbb4694f12363a2eaE"(ptr align 8 %self) unnamed_addr #1 !dbg !1731 {
start:
  %self.dbg.spill = alloca ptr, align 8
  %_3 = alloca i8, align 1
  store ptr %self, ptr %self.dbg.spill, align 8
  call void @llvm.dbg.declare(metadata ptr %self.dbg.spill, metadata !1738, metadata !DIExpression()), !dbg !1739
  %0 = getelementptr inbounds { ptr, ptr }, ptr %self, i32 0, i32 1, !dbg !1740
  %_4 = load ptr, ptr %0, align 8, !dbg !1740, !nonnull !18, !align !530, !noundef !18
  store i8 1, ptr %_3, align 1, !dbg !1741
  %1 = load i8, ptr %_3, align 1, !dbg !1740, !range !867, !noundef !18
; call core::sync::atomic::AtomicBool::store
  call void @_ZN4core4sync6atomic10AtomicBool5store17h47a008ef88fe0af6E(ptr align 1 %_4, i1 zeroext false, i8 %1) #8, !dbg !1740
  ret void, !dbg !1742
}

; <spin::mutex::spin::SpinMutexGuard<T> as core::ops::deref::DerefMut>::deref_mut
; Function Attrs: noredzone nounwind
define align 2 ptr @"_ZN89_$LT$spin..mutex..spin..SpinMutexGuard$LT$T$GT$$u20$as$u20$core..ops..deref..DerefMut$GT$9deref_mut17h21be7c3a189141adE"(ptr align 8 %self) unnamed_addr #1 !dbg !1743 {
start:
  %self.dbg.spill = alloca ptr, align 8
  store ptr %self, ptr %self.dbg.spill, align 8
  call void @llvm.dbg.declare(metadata ptr %self.dbg.spill, metadata !1748, metadata !DIExpression()), !dbg !1749
  %_2 = load ptr, ptr %self, align 8, !dbg !1750, !noundef !18
  ret ptr %_2, !dbg !1751
}

; cpu_interrupts::default_exception_handlers::double_fault_handler
; Function Attrs: noredzone noreturn nounwind
define x86_intrcc void @_ZN14cpu_interrupts26default_exception_handlers20double_fault_handler17h34a1d3ea309ff9d4E(ptr byval(%"x86_64::structures::idt::InterruptStackFrame") %isf, i64 %0) unnamed_addr #3 !dbg !1752 {
start:
  %width.dbg.spill.i1 = alloca { i64, i64 }, align 8
  %precision.dbg.spill.i2 = alloca { i64, i64 }, align 8
  %flags.dbg.spill.i3 = alloca i32, align 4
  %align.dbg.spill.i4 = alloca i8, align 1
  %fill.dbg.spill.i5 = alloca i32, align 4
  %position.dbg.spill.i6 = alloca i64, align 8
  %_7.i7 = alloca %"core::fmt::rt::v1::FormatSpec", align 8
  %width.dbg.spill.i = alloca { i64, i64 }, align 8
  %precision.dbg.spill.i = alloca { i64, i64 }, align 8
  %flags.dbg.spill.i = alloca i32, align 4
  %align.dbg.spill.i = alloca i8, align 1
  %fill.dbg.spill.i = alloca i32, align 4
  %position.dbg.spill.i = alloca i64, align 8
  %_7.i = alloca %"core::fmt::rt::v1::FormatSpec", align 8
  %_24 = alloca { i64, i64 }, align 8
  %_23 = alloca { i64, i64 }, align 8
  %_22 = alloca i8, align 1
  %_21 = alloca %"core::fmt::rt::v1::Argument", align 8
  %_20 = alloca { i64, i64 }, align 8
  %_19 = alloca { i64, i64 }, align 8
  %_18 = alloca i8, align 1
  %_17 = alloca %"core::fmt::rt::v1::Argument", align 8
  %_16 = alloca [2 x %"core::fmt::rt::v1::Argument"], align 8
  %args = alloca { ptr, ptr }, align 8
  %_8 = alloca [2 x { ptr, ptr }], align 8
  %_4 = alloca %"core::fmt::Arguments<'_>", align 8
  %errno = alloca i64, align 8
  store i64 %0, ptr %errno, align 8
  call void @llvm.dbg.declare(metadata ptr %isf, metadata !1756, metadata !DIExpression()), !dbg !1767
  call void @llvm.dbg.declare(metadata ptr %errno, metadata !1757, metadata !DIExpression()), !dbg !1768
  call void @llvm.dbg.declare(metadata ptr %args, metadata !1758, metadata !DIExpression()), !dbg !1769
  store ptr %isf, ptr %args, align 8, !dbg !1770
  %1 = getelementptr inbounds { ptr, ptr }, ptr %args, i32 0, i32 1, !dbg !1770
  store ptr %errno, ptr %1, align 8, !dbg !1770
  %2 = getelementptr inbounds { ptr, ptr }, ptr %args, i32 0, i32 1, !dbg !1769
  %_27 = load ptr, ptr %2, align 8, !dbg !1769, !nonnull !18, !align !621, !noundef !18
; call core::fmt::ArgumentV1::new_display
  %3 = call { ptr, ptr } @_ZN4core3fmt10ArgumentV111new_display17h69f24a6b2c7acd53E(ptr align 8 %_27) #8, !dbg !1769
  %_12.0 = extractvalue { ptr, ptr } %3, 0, !dbg !1769
  %_12.1 = extractvalue { ptr, ptr } %3, 1, !dbg !1769
  %_28 = load ptr, ptr %args, align 8, !dbg !1769, !nonnull !18, !align !621, !noundef !18
; call core::fmt::ArgumentV1::new_debug
  %4 = call { ptr, ptr } @_ZN4core3fmt10ArgumentV19new_debug17h71d6176e612706a8E(ptr align 8 %_28) #8, !dbg !1769
  %_13.0 = extractvalue { ptr, ptr } %4, 0, !dbg !1769
  %_13.1 = extractvalue { ptr, ptr } %4, 1, !dbg !1769
  %5 = getelementptr inbounds [2 x { ptr, ptr }], ptr %_8, i64 0, i64 0, !dbg !1769
  %6 = getelementptr inbounds { ptr, ptr }, ptr %5, i32 0, i32 0, !dbg !1769
  store ptr %_12.0, ptr %6, align 8, !dbg !1769
  %7 = getelementptr inbounds { ptr, ptr }, ptr %5, i32 0, i32 1, !dbg !1769
  store ptr %_12.1, ptr %7, align 8, !dbg !1769
  %8 = getelementptr inbounds [2 x { ptr, ptr }], ptr %_8, i64 0, i64 1, !dbg !1769
  %9 = getelementptr inbounds { ptr, ptr }, ptr %8, i32 0, i32 0, !dbg !1769
  store ptr %_13.0, ptr %9, align 8, !dbg !1769
  %10 = getelementptr inbounds { ptr, ptr }, ptr %8, i32 0, i32 1, !dbg !1769
  store ptr %_13.1, ptr %10, align 8, !dbg !1769
  store i8 3, ptr %_18, align 1, !dbg !1770
  store i64 2, ptr %_19, align 8, !dbg !1770
  store i64 2, ptr %_20, align 8, !dbg !1770
  %11 = load i8, ptr %_18, align 1, !dbg !1770, !range !1410, !noundef !18
  %12 = getelementptr inbounds { i64, i64 }, ptr %_19, i32 0, i32 0, !dbg !1770
  %13 = load i64, ptr %12, align 8, !dbg !1770, !range !1771, !noundef !18
  %14 = getelementptr inbounds { i64, i64 }, ptr %_19, i32 0, i32 1, !dbg !1770
  %15 = load i64, ptr %14, align 8, !dbg !1770
  %16 = getelementptr inbounds { i64, i64 }, ptr %_20, i32 0, i32 0, !dbg !1770
  %17 = load i64, ptr %16, align 8, !dbg !1770, !range !1771, !noundef !18
  %18 = getelementptr inbounds { i64, i64 }, ptr %_20, i32 0, i32 1, !dbg !1770
  %19 = load i64, ptr %18, align 8, !dbg !1770
  store i64 0, ptr %position.dbg.spill.i6, align 8
  call void @llvm.dbg.declare(metadata ptr %position.dbg.spill.i6, metadata !1772, metadata !DIExpression()), !dbg !1783
  store i32 32, ptr %fill.dbg.spill.i5, align 4
  call void @llvm.dbg.declare(metadata ptr %fill.dbg.spill.i5, metadata !1778, metadata !DIExpression()), !dbg !1785
  store i8 %11, ptr %align.dbg.spill.i4, align 1
  call void @llvm.dbg.declare(metadata ptr %align.dbg.spill.i4, metadata !1779, metadata !DIExpression()), !dbg !1786
  store i32 0, ptr %flags.dbg.spill.i3, align 4
  call void @llvm.dbg.declare(metadata ptr %flags.dbg.spill.i3, metadata !1780, metadata !DIExpression()), !dbg !1787
  store i64 %13, ptr %precision.dbg.spill.i2, align 8
  %20 = getelementptr inbounds { i64, i64 }, ptr %precision.dbg.spill.i2, i32 0, i32 1
  store i64 %15, ptr %20, align 8
  call void @llvm.dbg.declare(metadata ptr %precision.dbg.spill.i2, metadata !1781, metadata !DIExpression()), !dbg !1788
  store i64 %17, ptr %width.dbg.spill.i1, align 8
  %21 = getelementptr inbounds { i64, i64 }, ptr %width.dbg.spill.i1, i32 0, i32 1
  store i64 %19, ptr %21, align 8
  call void @llvm.dbg.declare(metadata ptr %width.dbg.spill.i1, metadata !1782, metadata !DIExpression()), !dbg !1789
  %22 = getelementptr inbounds %"core::fmt::rt::v1::FormatSpec", ptr %_7.i7, i32 0, i32 3, !dbg !1790
  store i32 32, ptr %22, align 4, !dbg !1790
  %23 = getelementptr inbounds %"core::fmt::rt::v1::FormatSpec", ptr %_7.i7, i32 0, i32 4, !dbg !1790
  store i8 %11, ptr %23, align 8, !dbg !1790
  %24 = getelementptr inbounds %"core::fmt::rt::v1::FormatSpec", ptr %_7.i7, i32 0, i32 2, !dbg !1790
  store i32 0, ptr %24, align 8, !dbg !1790
  store i64 %13, ptr %_7.i7, align 8, !dbg !1790
  %25 = getelementptr inbounds { i64, i64 }, ptr %_7.i7, i32 0, i32 1, !dbg !1790
  store i64 %15, ptr %25, align 8, !dbg !1790
  %26 = getelementptr inbounds %"core::fmt::rt::v1::FormatSpec", ptr %_7.i7, i32 0, i32 1, !dbg !1790
  store i64 %17, ptr %26, align 8, !dbg !1790
  %27 = getelementptr inbounds { i64, i64 }, ptr %26, i32 0, i32 1, !dbg !1790
  store i64 %19, ptr %27, align 8, !dbg !1790
  %28 = getelementptr inbounds %"core::fmt::rt::v1::Argument", ptr %_17, i32 0, i32 1, !dbg !1791
  store i64 0, ptr %28, align 8, !dbg !1791
  call void @llvm.memcpy.p0.p0.i64(ptr align 8 %_17, ptr align 8 %_7.i7, i64 48, i1 false), !dbg !1791
  store i8 3, ptr %_22, align 1, !dbg !1770
  store i64 2, ptr %_23, align 8, !dbg !1770
  store i64 2, ptr %_24, align 8, !dbg !1770
  %29 = load i8, ptr %_22, align 1, !dbg !1770, !range !1410, !noundef !18
  %30 = getelementptr inbounds { i64, i64 }, ptr %_23, i32 0, i32 0, !dbg !1770
  %31 = load i64, ptr %30, align 8, !dbg !1770, !range !1771, !noundef !18
  %32 = getelementptr inbounds { i64, i64 }, ptr %_23, i32 0, i32 1, !dbg !1770
  %33 = load i64, ptr %32, align 8, !dbg !1770
  %34 = getelementptr inbounds { i64, i64 }, ptr %_24, i32 0, i32 0, !dbg !1770
  %35 = load i64, ptr %34, align 8, !dbg !1770, !range !1771, !noundef !18
  %36 = getelementptr inbounds { i64, i64 }, ptr %_24, i32 0, i32 1, !dbg !1770
  %37 = load i64, ptr %36, align 8, !dbg !1770
  store i64 1, ptr %position.dbg.spill.i, align 8
  call void @llvm.dbg.declare(metadata ptr %position.dbg.spill.i, metadata !1772, metadata !DIExpression()), !dbg !1792
  store i32 32, ptr %fill.dbg.spill.i, align 4
  call void @llvm.dbg.declare(metadata ptr %fill.dbg.spill.i, metadata !1778, metadata !DIExpression()), !dbg !1794
  store i8 %29, ptr %align.dbg.spill.i, align 1
  call void @llvm.dbg.declare(metadata ptr %align.dbg.spill.i, metadata !1779, metadata !DIExpression()), !dbg !1795
  store i32 4, ptr %flags.dbg.spill.i, align 4
  call void @llvm.dbg.declare(metadata ptr %flags.dbg.spill.i, metadata !1780, metadata !DIExpression()), !dbg !1796
  store i64 %31, ptr %precision.dbg.spill.i, align 8
  %38 = getelementptr inbounds { i64, i64 }, ptr %precision.dbg.spill.i, i32 0, i32 1
  store i64 %33, ptr %38, align 8
  call void @llvm.dbg.declare(metadata ptr %precision.dbg.spill.i, metadata !1781, metadata !DIExpression()), !dbg !1797
  store i64 %35, ptr %width.dbg.spill.i, align 8
  %39 = getelementptr inbounds { i64, i64 }, ptr %width.dbg.spill.i, i32 0, i32 1
  store i64 %37, ptr %39, align 8
  call void @llvm.dbg.declare(metadata ptr %width.dbg.spill.i, metadata !1782, metadata !DIExpression()), !dbg !1798
  %40 = getelementptr inbounds %"core::fmt::rt::v1::FormatSpec", ptr %_7.i, i32 0, i32 3, !dbg !1799
  store i32 32, ptr %40, align 4, !dbg !1799
  %41 = getelementptr inbounds %"core::fmt::rt::v1::FormatSpec", ptr %_7.i, i32 0, i32 4, !dbg !1799
  store i8 %29, ptr %41, align 8, !dbg !1799
  %42 = getelementptr inbounds %"core::fmt::rt::v1::FormatSpec", ptr %_7.i, i32 0, i32 2, !dbg !1799
  store i32 4, ptr %42, align 8, !dbg !1799
  store i64 %31, ptr %_7.i, align 8, !dbg !1799
  %43 = getelementptr inbounds { i64, i64 }, ptr %_7.i, i32 0, i32 1, !dbg !1799
  store i64 %33, ptr %43, align 8, !dbg !1799
  %44 = getelementptr inbounds %"core::fmt::rt::v1::FormatSpec", ptr %_7.i, i32 0, i32 1, !dbg !1799
  store i64 %35, ptr %44, align 8, !dbg !1799
  %45 = getelementptr inbounds { i64, i64 }, ptr %44, i32 0, i32 1, !dbg !1799
  store i64 %37, ptr %45, align 8, !dbg !1799
  %46 = getelementptr inbounds %"core::fmt::rt::v1::Argument", ptr %_21, i32 0, i32 1, !dbg !1800
  store i64 1, ptr %46, align 8, !dbg !1800
  call void @llvm.memcpy.p0.p0.i64(ptr align 8 %_21, ptr align 8 %_7.i, i64 48, i1 false), !dbg !1800
  %47 = getelementptr inbounds [2 x %"core::fmt::rt::v1::Argument"], ptr %_16, i64 0, i64 0, !dbg !1770
  call void @llvm.memcpy.p0.p0.i64(ptr align 8 %47, ptr align 8 %_17, i64 56, i1 false), !dbg !1770
  %48 = getelementptr inbounds [2 x %"core::fmt::rt::v1::Argument"], ptr %_16, i64 0, i64 1, !dbg !1770
  call void @llvm.memcpy.p0.p0.i64(ptr align 8 %48, ptr align 8 %_21, i64 56, i1 false), !dbg !1770
; call core::fmt::Arguments::new_v1_formatted
  call void @_ZN4core3fmt9Arguments16new_v1_formatted17hf7656413da502c3cE(ptr sret(%"core::fmt::Arguments<'_>") %_4, ptr align 8 @alloc_65caeecf29683d9b760ab0d90c895cd5, i64 2, ptr align 8 %_8, i64 2, ptr align 8 %_16, i64 2) #8, !dbg !1770
; call core::panicking::panic_fmt
  call void @_ZN4core9panicking9panic_fmt17hcab56c0eeadf4812E(ptr %_4, ptr align 8 @alloc_fe060095018f30af291243dbbedbd0a8) #11, !dbg !1770
  unreachable, !dbg !1770
}

; cpu_interrupts::global_descriptor_table::initialize
; Function Attrs: noredzone nounwind
define void @_ZN14cpu_interrupts23global_descriptor_table10initialize17h585d863c65e5afd4E() unnamed_addr #1 !dbg !1801 {
start:
; call <cpu_interrupts::global_descriptor_table::GLOBAL_DESCRIPTOR_TABLE as core::ops::deref::Deref>::deref
  %_3 = call align 8 ptr @"_ZN108_$LT$cpu_interrupts..global_descriptor_table..GLOBAL_DESCRIPTOR_TABLE$u20$as$u20$core..ops..deref..Deref$GT$5deref17hc7662a1e275c1968E"(ptr align 1 @_ZN14cpu_interrupts23global_descriptor_table23GLOBAL_DESCRIPTOR_TABLE17h94906d1d65cd9ab0E) #8, !dbg !1802
; call x86_64::structures::gdt::GlobalDescriptorTable::load
  call void @_ZN6x86_6410structures3gdt21GlobalDescriptorTable4load17hf240134a9fffddb4E(ptr align 8 %_3) #8, !dbg !1802
; call <cpu_interrupts::global_descriptor_table::GLOBAL_DESCRIPTOR_TABLE as core::ops::deref::Deref>::deref
  %_7 = call align 8 ptr @"_ZN108_$LT$cpu_interrupts..global_descriptor_table..GLOBAL_DESCRIPTOR_TABLE$u20$as$u20$core..ops..deref..Deref$GT$5deref17hc7662a1e275c1968E"(ptr align 1 @_ZN14cpu_interrupts23global_descriptor_table23GLOBAL_DESCRIPTOR_TABLE17h94906d1d65cd9ab0E) #8, !dbg !1803
  %0 = getelementptr inbounds %"global_descriptor_table::GlobalDescriptorTableSetup", ptr %_7, i32 0, i32 1, !dbg !1803
  %_6 = load i16, ptr %0, align 8, !dbg !1803, !noundef !18
; call x86_64::instructions::segmentation::<impl x86_64::registers::segmentation::Segment for x86_64::registers::segmentation::CS>::set_reg
  call void @"_ZN6x86_6412instructions12segmentation106_$LT$impl$u20$x86_64..registers..segmentation..Segment$u20$for$u20$x86_64..registers..segmentation..CS$GT$7set_reg17h70ff26a744e5af22E"(i16 %_6) #8, !dbg !1804
; call <cpu_interrupts::global_descriptor_table::GLOBAL_DESCRIPTOR_TABLE as core::ops::deref::Deref>::deref
  %_11 = call align 8 ptr @"_ZN108_$LT$cpu_interrupts..global_descriptor_table..GLOBAL_DESCRIPTOR_TABLE$u20$as$u20$core..ops..deref..Deref$GT$5deref17hc7662a1e275c1968E"(ptr align 1 @_ZN14cpu_interrupts23global_descriptor_table23GLOBAL_DESCRIPTOR_TABLE17h94906d1d65cd9ab0E) #8, !dbg !1805
  %1 = getelementptr inbounds %"global_descriptor_table::GlobalDescriptorTableSetup", ptr %_11, i32 0, i32 1, !dbg !1805
  %2 = getelementptr inbounds { i16, i16 }, ptr %1, i32 0, i32 1, !dbg !1805
  %_10 = load i16, ptr %2, align 2, !dbg !1805, !noundef !18
; call x86_64::instructions::tables::load_tss
  call void @_ZN6x86_6412instructions6tables8load_tss17h98905ee24c4611d9E(i16 %_10) #8, !dbg !1806
  ret void, !dbg !1807
}

; cpu_interrupts::interrupt_descriptor_table::SafeInterruptDescriptorTable::new
; Function Attrs: noredzone nounwind
define void @_ZN14cpu_interrupts26interrupt_descriptor_table28SafeInterruptDescriptorTable3new17h29c1ba73760b3c23E(ptr sret(%"interrupt_descriptor_table::SafeInterruptDescriptorTable") %0) unnamed_addr #1 !dbg !1808 {
start:
  %_8 = alloca %"x86_64::structures::idt::InterruptDescriptorTable", align 16
  %idt = alloca %"x86_64::structures::idt::InterruptDescriptorTable", align 16
  call void @llvm.dbg.declare(metadata ptr %idt, metadata !1820, metadata !DIExpression()), !dbg !1822
; call x86_64::structures::idt::InterruptDescriptorTable::new
  call void @_ZN6x86_6410structures3idt24InterruptDescriptorTable3new17h30045b2e578f0b3dE(ptr sret(%"x86_64::structures::idt::InterruptDescriptorTable") %idt) #8, !dbg !1823
  %_5 = getelementptr inbounds %"x86_64::structures::idt::InterruptDescriptorTable", ptr %idt, i32 0, i32 8, !dbg !1824
; call x86_64::structures::idt::Entry<extern "x86.interrupt" fn(x86_64::structures::idt::InterruptStackFrame,u64) .> !>::set_handler_fn
  %_4 = call align 2 ptr @"_ZN6x86_6410structures3idt132Entry$LT$extern$u20$$u22$x86.interrupt$u22$$u20$fn$LP$x86_64..structures..idt..InterruptStackFrame$C$u64$RP$$u20$.$GT$$u20$$u21$$GT$14set_handler_fn17h046bd64ec0c52573E"(ptr align 4 %_5, ptr @_ZN14cpu_interrupts26default_exception_handlers20double_fault_handler17h34a1d3ea309ff9d4E) #8, !dbg !1824
; call x86_64::structures::idt::EntryOptions::set_stack_index
  %_2 = call align 2 ptr @_ZN6x86_6410structures3idt12EntryOptions15set_stack_index17h04f62f0bfd0c5fb1E(ptr align 2 %_4, i16 0) #8, !dbg !1824
  call void @llvm.memcpy.p0.p0.i64(ptr align 16 %_8, ptr align 16 %idt, i64 4096, i1 false), !dbg !1825
  call void @llvm.memcpy.p0.p0.i64(ptr align 16 %0, ptr align 16 %_8, i64 4096, i1 false), !dbg !1826
  %1 = getelementptr inbounds %"interrupt_descriptor_table::SafeInterruptDescriptorTable", ptr %0, i32 0, i32 1, !dbg !1826
  store i8 1, ptr %1, align 16, !dbg !1826
  %2 = getelementptr inbounds %"interrupt_descriptor_table::SafeInterruptDescriptorTable", ptr %0, i32 0, i32 2, !dbg !1826
  store i8 0, ptr %2, align 1, !dbg !1826
  %3 = getelementptr inbounds %"interrupt_descriptor_table::SafeInterruptDescriptorTable", ptr %0, i32 0, i32 3, !dbg !1826
  store i8 0, ptr %3, align 2, !dbg !1826
  ret void, !dbg !1827
}

; cpu_interrupts::interrupt_descriptor_table::SafeInterruptDescriptorTable::from
; Function Attrs: noredzone nounwind
define void @_ZN14cpu_interrupts26interrupt_descriptor_table28SafeInterruptDescriptorTable4from17hc134aedec50bbdc2E(ptr sret(%"interrupt_descriptor_table::SafeInterruptDescriptorTable") %0, ptr %idt) unnamed_addr #1 !dbg !1828 {
start:
  call void @llvm.dbg.declare(metadata ptr %idt, metadata !1832, metadata !DIExpression()), !dbg !1833
  call void @llvm.memcpy.p0.p0.i64(ptr align 16 %0, ptr align 16 %idt, i64 4096, i1 false), !dbg !1834
  %1 = getelementptr inbounds %"interrupt_descriptor_table::SafeInterruptDescriptorTable", ptr %0, i32 0, i32 1, !dbg !1834
  store i8 1, ptr %1, align 16, !dbg !1834
  %2 = getelementptr inbounds %"interrupt_descriptor_table::SafeInterruptDescriptorTable", ptr %0, i32 0, i32 2, !dbg !1834
  store i8 1, ptr %2, align 1, !dbg !1834
  %3 = getelementptr inbounds %"interrupt_descriptor_table::SafeInterruptDescriptorTable", ptr %0, i32 0, i32 3, !dbg !1834
  store i8 1, ptr %3, align 2, !dbg !1834
  ret void, !dbg !1835
}

; cpu_interrupts::interrupt_descriptor_table::SafeInterruptDescriptorTable::load
; Function Attrs: noredzone nounwind
define void @_ZN14cpu_interrupts26interrupt_descriptor_table28SafeInterruptDescriptorTable4load17h889c33df83acc030E(ptr sret(%"core::result::Result<bool, &str>") %0, ptr align 16 %self) unnamed_addr #1 !dbg !1836 {
start:
  %self.dbg.spill = alloca ptr, align 8
  %_4 = alloca i8, align 1
  %_3 = alloca i8, align 1
  store ptr %self, ptr %self.dbg.spill, align 8
  call void @llvm.dbg.declare(metadata ptr %self.dbg.spill, metadata !1856, metadata !DIExpression()), !dbg !1857
  %1 = getelementptr inbounds %"interrupt_descriptor_table::SafeInterruptDescriptorTable", ptr %self, i32 0, i32 1, !dbg !1858
  %2 = load i8, ptr %1, align 16, !dbg !1858, !range !810, !noundef !18
  %_5 = trunc i8 %2 to i1, !dbg !1858
  br i1 %_5, label %bb5, label %bb4, !dbg !1858

bb4:                                              ; preds = %start
  store i8 0, ptr %_4, align 1, !dbg !1858
  br label %bb6, !dbg !1858

bb5:                                              ; preds = %start
  %3 = getelementptr inbounds %"interrupt_descriptor_table::SafeInterruptDescriptorTable", ptr %self, i32 0, i32 2, !dbg !1859
  %4 = load i8, ptr %3, align 1, !dbg !1859, !range !810, !noundef !18
  %_6 = trunc i8 %4 to i1, !dbg !1859
  %5 = zext i1 %_6 to i8, !dbg !1858
  store i8 %5, ptr %_4, align 1, !dbg !1858
  br label %bb6, !dbg !1858

bb6:                                              ; preds = %bb4, %bb5
  %6 = load i8, ptr %_4, align 1, !dbg !1860, !range !810, !noundef !18
  %7 = trunc i8 %6 to i1, !dbg !1860
  br i1 %7, label %bb2, label %bb1, !dbg !1860

bb1:                                              ; preds = %bb6
  store i8 0, ptr %_3, align 1, !dbg !1860
  br label %bb3, !dbg !1860

bb2:                                              ; preds = %bb6
  %8 = getelementptr inbounds %"interrupt_descriptor_table::SafeInterruptDescriptorTable", ptr %self, i32 0, i32 3, !dbg !1861
  %9 = load i8, ptr %8, align 2, !dbg !1861, !range !810, !noundef !18
  %_7 = trunc i8 %9 to i1, !dbg !1861
  %10 = zext i1 %_7 to i8, !dbg !1860
  store i8 %10, ptr %_3, align 1, !dbg !1860
  br label %bb3, !dbg !1860

bb3:                                              ; preds = %bb1, %bb2
  %11 = load i8, ptr %_3, align 1, !dbg !1862, !range !810, !noundef !18
  %12 = trunc i8 %11 to i1, !dbg !1862
  %_2 = xor i1 %12, true, !dbg !1862
  br i1 %_2, label %bb7, label %bb8, !dbg !1862

bb8:                                              ; preds = %bb3
; call x86_64::structures::idt::InterruptDescriptorTable::load
  call void @_ZN6x86_6410structures3idt24InterruptDescriptorTable4load17h4933d6eca7034fe0E(ptr align 16 %self) #8, !dbg !1863
  %13 = getelementptr inbounds %"core::result::Result<bool, &str>::Ok", ptr %0, i32 0, i32 1, !dbg !1864
  store i8 1, ptr %13, align 8, !dbg !1864
  store ptr null, ptr %0, align 8, !dbg !1864
  br label %bb10, !dbg !1865

bb7:                                              ; preds = %bb3
  %14 = getelementptr inbounds { ptr, i64 }, ptr %0, i32 0, i32 0, !dbg !1866
  store ptr @alloc_cdf29e36748ce97224f9a0c64e37a3c9, ptr %14, align 8, !dbg !1866
  %15 = getelementptr inbounds { ptr, i64 }, ptr %0, i32 0, i32 1, !dbg !1866
  store i64 37, ptr %15, align 8, !dbg !1866
  br label %bb10, !dbg !1865

bb10:                                             ; preds = %bb8, %bb7
  ret void, !dbg !1865
}

; cpu_interrupts::programmable_interface_controller::initialize
; Function Attrs: noredzone nounwind
define void @_ZN14cpu_interrupts33programmable_interface_controller10initialize17h7b75dd260cfc3a75E() unnamed_addr #1 !dbg !1867 {
start:
  %self.dbg.spill.i2 = alloca ptr, align 8
  %_3.i = alloca i8, align 1
  %self.dbg.spill.i.i = alloca ptr, align 8
  %self.dbg.spill.i1 = alloca ptr, align 8
  %_7.i = alloca i8, align 1
  %_6.i = alloca i8, align 1
  %_4.i = alloca { i8, i8 }, align 1
  %0 = alloca { ptr, ptr }, align 8
  %self.dbg.spill.i = alloca ptr, align 8
  %1 = alloca { ptr, ptr }, align 8
  %_5 = alloca { ptr, ptr }, align 8
  store ptr @_ZN14cpu_interrupts33programmable_interface_controller12CHAINED_PICS17h66c30a221ba57870E, ptr %self.dbg.spill.i, align 8
  call void @llvm.dbg.declare(metadata ptr %self.dbg.spill.i, metadata !1868, metadata !DIExpression()), !dbg !1874
  store ptr @_ZN14cpu_interrupts33programmable_interface_controller12CHAINED_PICS17h66c30a221ba57870E, ptr %self.dbg.spill.i1, align 8
  call void @llvm.dbg.declare(metadata ptr %self.dbg.spill.i1, metadata !1876, metadata !DIExpression()), !dbg !1882
  br label %bb1.i, !dbg !1884

bb1.i:                                            ; preds = %bb4.i, %start
  store i8 2, ptr %_6.i, align 1, !dbg !1885
  store i8 0, ptr %_7.i, align 1, !dbg !1886
  %2 = load i8, ptr %_6.i, align 1, !dbg !1887, !range !867, !noundef !18
  %3 = load i8, ptr %_7.i, align 1, !dbg !1887, !range !867, !noundef !18
; call core::sync::atomic::AtomicBool::compare_exchange_weak
  %4 = call { i8, i8 } @_ZN4core4sync6atomic10AtomicBool21compare_exchange_weak17h16b321a5c62164c2E(ptr align 1 @_ZN14cpu_interrupts33programmable_interface_controller12CHAINED_PICS17h66c30a221ba57870E, i1 zeroext false, i1 zeroext true, i8 %2, i8 %3) #8, !dbg !1887
  store { i8, i8 } %4, ptr %_4.i, align 1, !dbg !1887
; call core::result::Result<T,E>::is_err
  %_2.i = call zeroext i1 @"_ZN4core6result19Result$LT$T$C$E$GT$6is_err17h549152b18be4854fE"(ptr align 1 %_4.i) #8, !dbg !1887
  br i1 %_2.i, label %bb4.i, label %"_ZN4spin5mutex4spin22SpinMutex$LT$T$C$R$GT$4lock17h66944a0e9ebdc3e3E.exit", !dbg !1887

bb4.i:                                            ; preds = %bb6.i, %bb1.i
  store ptr @_ZN14cpu_interrupts33programmable_interface_controller12CHAINED_PICS17h66c30a221ba57870E, ptr %self.dbg.spill.i2, align 8
  call void @llvm.dbg.declare(metadata ptr %self.dbg.spill.i2, metadata !1888, metadata !DIExpression()), !dbg !1893
  store i8 0, ptr %_3.i, align 1, !dbg !1895
  %5 = load i8, ptr %_3.i, align 1, !dbg !1896, !range !867, !noundef !18
; call core::sync::atomic::AtomicBool::load
  %6 = call zeroext i1 @_ZN4core4sync6atomic10AtomicBool4load17h30ea13e1dbce3c31E(ptr align 1 @_ZN14cpu_interrupts33programmable_interface_controller12CHAINED_PICS17h66c30a221ba57870E, i8 %5) #8, !dbg !1896
  br i1 %6, label %bb6.i, label %bb1.i, !dbg !1897

bb6.i:                                            ; preds = %bb4.i
; call core::sync::atomic::spin_loop_hint
  call void @_ZN4core4sync6atomic14spin_loop_hint17h672cd9eba4280658E() #8, !dbg !1898
  br label %bb4.i, !dbg !1903

"_ZN4spin5mutex4spin22SpinMutex$LT$T$C$R$GT$4lock17h66944a0e9ebdc3e3E.exit": ; preds = %bb1.i
  store ptr getelementptr inbounds (<{ [1 x i8], [1 x i8], [5 x i8], [1 x i8], [5 x i8], [1 x i8] }>, ptr @_ZN14cpu_interrupts33programmable_interface_controller12CHAINED_PICS17h66c30a221ba57870E, i64 0, i32 2, i64 0), ptr %self.dbg.spill.i.i, align 8
  call void @llvm.dbg.declare(metadata ptr %self.dbg.spill.i.i, metadata !1904, metadata !DIExpression()), !dbg !1910
  %7 = getelementptr inbounds { ptr, ptr }, ptr %0, i32 0, i32 1, !dbg !1912
  store ptr @_ZN14cpu_interrupts33programmable_interface_controller12CHAINED_PICS17h66c30a221ba57870E, ptr %7, align 8, !dbg !1912
  store ptr getelementptr inbounds (<{ [1 x i8], [1 x i8], [5 x i8], [1 x i8], [5 x i8], [1 x i8] }>, ptr @_ZN14cpu_interrupts33programmable_interface_controller12CHAINED_PICS17h66c30a221ba57870E, i64 0, i32 2, i64 0), ptr %0, align 8, !dbg !1912
  %8 = load ptr, ptr %0, align 8, !dbg !1913, !noundef !18
  %9 = getelementptr inbounds { ptr, ptr }, ptr %0, i32 0, i32 1, !dbg !1913
  %10 = load ptr, ptr %9, align 8, !dbg !1913, !nonnull !18, !align !530, !noundef !18
  %11 = insertvalue { ptr, ptr } poison, ptr %8, 0, !dbg !1913
  %12 = insertvalue { ptr, ptr } %11, ptr %10, 1, !dbg !1913
  %_2.0.i = extractvalue { ptr, ptr } %12, 0, !dbg !1914
  %_2.1.i = extractvalue { ptr, ptr } %12, 1, !dbg !1914
  store ptr %_2.0.i, ptr %1, align 8, !dbg !1915
  %13 = getelementptr inbounds { ptr, ptr }, ptr %1, i32 0, i32 1, !dbg !1915
  store ptr %_2.1.i, ptr %13, align 8, !dbg !1915
  %14 = load ptr, ptr %1, align 8, !dbg !1916, !noundef !18
  %15 = getelementptr inbounds { ptr, ptr }, ptr %1, i32 0, i32 1, !dbg !1916
  %16 = load ptr, ptr %15, align 8, !dbg !1916, !nonnull !18, !align !530, !noundef !18
  %17 = insertvalue { ptr, ptr } poison, ptr %14, 0, !dbg !1916
  %18 = insertvalue { ptr, ptr } %17, ptr %16, 1, !dbg !1916
  store { ptr, ptr } %18, ptr %_5, align 8, !dbg !1917
; call <spin::mutex::MutexGuard<T> as core::ops::deref::DerefMut>::deref_mut
  %_3 = call align 2 ptr @"_ZN79_$LT$spin..mutex..MutexGuard$LT$T$GT$$u20$as$u20$core..ops..deref..DerefMut$GT$9deref_mut17ha7b3faa844ba08deE"(ptr align 8 %_5) #8, !dbg !1917
; call pic8259::ChainedPics::initialize
  call void @_ZN7pic825911ChainedPics10initialize17hbcfd13d796e63549E(ptr align 2 %_3) #8, !dbg !1917
; call core::ptr::drop_in_place<spin::mutex::MutexGuard<pic8259::ChainedPics>>
  call void @"_ZN4core3ptr72drop_in_place$LT$spin..mutex..MutexGuard$LT$pic8259..ChainedPics$GT$$GT$17hc060ad52e0f0a588E"(ptr %_5) #8, !dbg !1918
  ret void, !dbg !1919
}

; cpu_interrupts::programmable_interface_controller::notify_end_of_timer_interrupt
; Function Attrs: noredzone nounwind
define void @_ZN14cpu_interrupts33programmable_interface_controller29notify_end_of_timer_interrupt17h736257cf2beb9e9dE() unnamed_addr #1 !dbg !1920 {
start:
  %self.dbg.spill.i2 = alloca ptr, align 8
  %_3.i = alloca i8, align 1
  %self.dbg.spill.i.i = alloca ptr, align 8
  %self.dbg.spill.i1 = alloca ptr, align 8
  %_7.i = alloca i8, align 1
  %_6.i = alloca i8, align 1
  %_4.i = alloca { i8, i8 }, align 1
  %0 = alloca { ptr, ptr }, align 8
  %self.dbg.spill.i = alloca ptr, align 8
  %1 = alloca { ptr, ptr }, align 8
  %_4 = alloca { ptr, ptr }, align 8
  store ptr @_ZN14cpu_interrupts33programmable_interface_controller12CHAINED_PICS17h66c30a221ba57870E, ptr %self.dbg.spill.i, align 8
  call void @llvm.dbg.declare(metadata ptr %self.dbg.spill.i, metadata !1868, metadata !DIExpression()), !dbg !1921
  store ptr @_ZN14cpu_interrupts33programmable_interface_controller12CHAINED_PICS17h66c30a221ba57870E, ptr %self.dbg.spill.i1, align 8
  call void @llvm.dbg.declare(metadata ptr %self.dbg.spill.i1, metadata !1876, metadata !DIExpression()), !dbg !1923
  br label %bb1.i, !dbg !1925

bb1.i:                                            ; preds = %bb4.i, %start
  store i8 2, ptr %_6.i, align 1, !dbg !1926
  store i8 0, ptr %_7.i, align 1, !dbg !1927
  %2 = load i8, ptr %_6.i, align 1, !dbg !1928, !range !867, !noundef !18
  %3 = load i8, ptr %_7.i, align 1, !dbg !1928, !range !867, !noundef !18
; call core::sync::atomic::AtomicBool::compare_exchange_weak
  %4 = call { i8, i8 } @_ZN4core4sync6atomic10AtomicBool21compare_exchange_weak17h16b321a5c62164c2E(ptr align 1 @_ZN14cpu_interrupts33programmable_interface_controller12CHAINED_PICS17h66c30a221ba57870E, i1 zeroext false, i1 zeroext true, i8 %2, i8 %3) #8, !dbg !1928
  store { i8, i8 } %4, ptr %_4.i, align 1, !dbg !1928
; call core::result::Result<T,E>::is_err
  %_2.i = call zeroext i1 @"_ZN4core6result19Result$LT$T$C$E$GT$6is_err17h549152b18be4854fE"(ptr align 1 %_4.i) #8, !dbg !1928
  br i1 %_2.i, label %bb4.i, label %"_ZN4spin5mutex4spin22SpinMutex$LT$T$C$R$GT$4lock17h66944a0e9ebdc3e3E.exit", !dbg !1928

bb4.i:                                            ; preds = %bb6.i, %bb1.i
  store ptr @_ZN14cpu_interrupts33programmable_interface_controller12CHAINED_PICS17h66c30a221ba57870E, ptr %self.dbg.spill.i2, align 8
  call void @llvm.dbg.declare(metadata ptr %self.dbg.spill.i2, metadata !1888, metadata !DIExpression()), !dbg !1929
  store i8 0, ptr %_3.i, align 1, !dbg !1931
  %5 = load i8, ptr %_3.i, align 1, !dbg !1932, !range !867, !noundef !18
; call core::sync::atomic::AtomicBool::load
  %6 = call zeroext i1 @_ZN4core4sync6atomic10AtomicBool4load17h30ea13e1dbce3c31E(ptr align 1 @_ZN14cpu_interrupts33programmable_interface_controller12CHAINED_PICS17h66c30a221ba57870E, i8 %5) #8, !dbg !1932
  br i1 %6, label %bb6.i, label %bb1.i, !dbg !1933

bb6.i:                                            ; preds = %bb4.i
; call core::sync::atomic::spin_loop_hint
  call void @_ZN4core4sync6atomic14spin_loop_hint17h672cd9eba4280658E() #8, !dbg !1934
  br label %bb4.i, !dbg !1936

"_ZN4spin5mutex4spin22SpinMutex$LT$T$C$R$GT$4lock17h66944a0e9ebdc3e3E.exit": ; preds = %bb1.i
  store ptr getelementptr inbounds (<{ [1 x i8], [1 x i8], [5 x i8], [1 x i8], [5 x i8], [1 x i8] }>, ptr @_ZN14cpu_interrupts33programmable_interface_controller12CHAINED_PICS17h66c30a221ba57870E, i64 0, i32 2, i64 0), ptr %self.dbg.spill.i.i, align 8
  call void @llvm.dbg.declare(metadata ptr %self.dbg.spill.i.i, metadata !1904, metadata !DIExpression()), !dbg !1937
  %7 = getelementptr inbounds { ptr, ptr }, ptr %0, i32 0, i32 1, !dbg !1939
  store ptr @_ZN14cpu_interrupts33programmable_interface_controller12CHAINED_PICS17h66c30a221ba57870E, ptr %7, align 8, !dbg !1939
  store ptr getelementptr inbounds (<{ [1 x i8], [1 x i8], [5 x i8], [1 x i8], [5 x i8], [1 x i8] }>, ptr @_ZN14cpu_interrupts33programmable_interface_controller12CHAINED_PICS17h66c30a221ba57870E, i64 0, i32 2, i64 0), ptr %0, align 8, !dbg !1939
  %8 = load ptr, ptr %0, align 8, !dbg !1940, !noundef !18
  %9 = getelementptr inbounds { ptr, ptr }, ptr %0, i32 0, i32 1, !dbg !1940
  %10 = load ptr, ptr %9, align 8, !dbg !1940, !nonnull !18, !align !530, !noundef !18
  %11 = insertvalue { ptr, ptr } poison, ptr %8, 0, !dbg !1940
  %12 = insertvalue { ptr, ptr } %11, ptr %10, 1, !dbg !1940
  %_2.0.i = extractvalue { ptr, ptr } %12, 0, !dbg !1941
  %_2.1.i = extractvalue { ptr, ptr } %12, 1, !dbg !1941
  store ptr %_2.0.i, ptr %1, align 8, !dbg !1942
  %13 = getelementptr inbounds { ptr, ptr }, ptr %1, i32 0, i32 1, !dbg !1942
  store ptr %_2.1.i, ptr %13, align 8, !dbg !1942
  %14 = load ptr, ptr %1, align 8, !dbg !1943, !noundef !18
  %15 = getelementptr inbounds { ptr, ptr }, ptr %1, i32 0, i32 1, !dbg !1943
  %16 = load ptr, ptr %15, align 8, !dbg !1943, !nonnull !18, !align !530, !noundef !18
  %17 = insertvalue { ptr, ptr } poison, ptr %14, 0, !dbg !1943
  %18 = insertvalue { ptr, ptr } %17, ptr %16, 1, !dbg !1943
  store { ptr, ptr } %18, ptr %_4, align 8, !dbg !1944
; call <spin::mutex::MutexGuard<T> as core::ops::deref::DerefMut>::deref_mut
  %_2 = call align 2 ptr @"_ZN79_$LT$spin..mutex..MutexGuard$LT$T$GT$$u20$as$u20$core..ops..deref..DerefMut$GT$9deref_mut17ha7b3faa844ba08deE"(ptr align 8 %_4) #8, !dbg !1944
  %19 = call { i64, i1 } @llvm.uadd.with.overflow.i64(i64 40, i64 0), !dbg !1945
  %_8.0 = extractvalue { i64, i1 } %19, 0, !dbg !1945
  %_8.1 = extractvalue { i64, i1 } %19, 1, !dbg !1945
  %20 = call i1 @llvm.expect.i1(i1 %_8.1, i1 false), !dbg !1945
  br i1 %20, label %panic, label %bb3, !dbg !1945

bb3:                                              ; preds = %"_ZN4spin5mutex4spin22SpinMutex$LT$T$C$R$GT$4lock17h66944a0e9ebdc3e3E.exit"
  %_6 = trunc i64 %_8.0 to i8, !dbg !1945
; call pic8259::ChainedPics::notify_end_of_interrupt
  call void @_ZN7pic825911ChainedPics23notify_end_of_interrupt17h0390c8431816936cE(ptr align 2 %_2, i8 %_6) #8, !dbg !1944
; call core::ptr::drop_in_place<spin::mutex::MutexGuard<pic8259::ChainedPics>>
  call void @"_ZN4core3ptr72drop_in_place$LT$spin..mutex..MutexGuard$LT$pic8259..ChainedPics$GT$$GT$17hc060ad52e0f0a588E"(ptr %_4) #8, !dbg !1946
  ret void, !dbg !1947

panic:                                            ; preds = %"_ZN4spin5mutex4spin22SpinMutex$LT$T$C$R$GT$4lock17h66944a0e9ebdc3e3E.exit"
; call core::panicking::panic
  call void @_ZN4core9panicking5panic17h277234a6cd982fe5E(ptr align 1 @str.3, i64 28, ptr align 8 @alloc_55aff9cb6f5a47319b31e59e4245d58b) #11, !dbg !1945
  unreachable, !dbg !1945
}

; <cpu_interrupts::global_descriptor_table::GLOBAL_DESCRIPTOR_TABLE as core::ops::deref::Deref>::deref
; Function Attrs: noredzone nounwind
define align 8 ptr @"_ZN108_$LT$cpu_interrupts..global_descriptor_table..GLOBAL_DESCRIPTOR_TABLE$u20$as$u20$core..ops..deref..Deref$GT$5deref17hc7662a1e275c1968E"(ptr align 1 %self) unnamed_addr #1 !dbg !1948 {
start:
  %self.dbg.spill.i.i = alloca ptr, align 8
  %self.dbg.spill = alloca ptr, align 8
  store ptr %self, ptr %self.dbg.spill, align 8
  call void @llvm.dbg.declare(metadata ptr %self.dbg.spill, metadata !1953, metadata !DIExpression()), !dbg !1954
  store ptr @"_ZN108_$LT$cpu_interrupts..global_descriptor_table..GLOBAL_DESCRIPTOR_TABLE$u20$as$u20$core..ops..deref..Deref$GT$5deref11__stability4LAZY17h6fc25aedcad6eb96E", ptr %self.dbg.spill.i.i, align 8
  call void @llvm.dbg.declare(metadata ptr %self.dbg.spill.i.i, metadata !1955, metadata !DIExpression()), !dbg !1962
  call void @llvm.dbg.declare(metadata ptr undef, metadata !1961, metadata !DIExpression()), !dbg !1968
; call spin::once::Once<T>::call_once
  %0 = call align 8 ptr @"_ZN4spin4once13Once$LT$T$GT$9call_once17h1416d3e4b4d8859dE"(ptr align 8 @"_ZN108_$LT$cpu_interrupts..global_descriptor_table..GLOBAL_DESCRIPTOR_TABLE$u20$as$u20$core..ops..deref..Deref$GT$5deref11__stability4LAZY17h6fc25aedcad6eb96E") #8, !dbg !1969
  ret ptr %0, !dbg !1970
}

; <cpu_interrupts::global_descriptor_table::GLOBAL_DESCRIPTOR_TABLE as lazy_static::LazyStatic>::initialize
; Function Attrs: noredzone nounwind
define void @"_ZN108_$LT$cpu_interrupts..global_descriptor_table..GLOBAL_DESCRIPTOR_TABLE$u20$as$u20$lazy_static..LazyStatic$GT$10initialize17h83c08edc662f754cE"(ptr align 1 %lazy) unnamed_addr #1 !dbg !1971 {
start:
  %lazy.dbg.spill = alloca ptr, align 8
  store ptr %lazy, ptr %lazy.dbg.spill, align 8
  call void @llvm.dbg.declare(metadata ptr %lazy.dbg.spill, metadata !1976, metadata !DIExpression()), !dbg !1977
; call <cpu_interrupts::global_descriptor_table::GLOBAL_DESCRIPTOR_TABLE as core::ops::deref::Deref>::deref
  %_2 = call align 8 ptr @"_ZN108_$LT$cpu_interrupts..global_descriptor_table..GLOBAL_DESCRIPTOR_TABLE$u20$as$u20$core..ops..deref..Deref$GT$5deref17hc7662a1e275c1968E"(ptr align 1 %lazy) #8, !dbg !1978
  ret void, !dbg !1979
}

; <cpu_interrupts::interrupt_descriptor_table::SafeInterruptDescriptorTable as core::fmt::Debug>::fmt
; Function Attrs: noredzone nounwind
define zeroext i1 @"_ZN109_$LT$cpu_interrupts..interrupt_descriptor_table..SafeInterruptDescriptorTable$u20$as$u20$core..fmt..Debug$GT$3fmt17h3b984c3cc60af712E"(ptr align 16 %self, ptr align 8 %f) unnamed_addr #1 !dbg !1980 {
start:
  %f.dbg.spill = alloca ptr, align 8
  %self.dbg.spill = alloca ptr, align 8
  %_16 = alloca ptr, align 8
  store ptr %self, ptr %self.dbg.spill, align 8
  call void @llvm.dbg.declare(metadata ptr %self.dbg.spill, metadata !1985, metadata !DIExpression()), !dbg !1987
  store ptr %f, ptr %f.dbg.spill, align 8
  call void @llvm.dbg.declare(metadata ptr %f.dbg.spill, metadata !1986, metadata !DIExpression()), !dbg !1987
  %_9 = getelementptr inbounds %"interrupt_descriptor_table::SafeInterruptDescriptorTable", ptr %self, i32 0, i32 1, !dbg !1988
  %_12 = getelementptr inbounds %"interrupt_descriptor_table::SafeInterruptDescriptorTable", ptr %self, i32 0, i32 2, !dbg !1989
  %0 = getelementptr inbounds %"interrupt_descriptor_table::SafeInterruptDescriptorTable", ptr %self, i32 0, i32 3, !dbg !1990
  store ptr %0, ptr %_16, align 8, !dbg !1990
; call core::fmt::Formatter::debug_struct_field4_finish
  %1 = call zeroext i1 @_ZN4core3fmt9Formatter26debug_struct_field4_finish17ha1695794fba5b6abE(ptr align 8 %f, ptr align 1 @alloc_8dcaadb3d35c5aed4dce7044a3c0e804, i64 28, ptr align 1 @alloc_31b9803b92f4133f50a8f77a91f280cf, i64 5, ptr align 1 %self, ptr align 8 @vtable.4, ptr align 1 @alloc_73f8d4e177158ca5a0625c42ceab7070, i64 24, ptr align 1 %_9, ptr align 8 @vtable.5, ptr align 1 @alloc_8553fa4e4d80bf546be78d3fe83be056, i64 22, ptr align 1 %_12, ptr align 8 @vtable.5, ptr align 1 @alloc_6d1866eadba2fd07bbde5bb2f2707d21, i64 27, ptr align 1 %_16, ptr align 8 @vtable.6) #8, !dbg !1987
  ret i1 %1, !dbg !1991
}

; cpu_interrupts::enable
; Function Attrs: noredzone nounwind
define void @_ZN14cpu_interrupts6enable17haac886950b621a2bE() unnamed_addr #1 !dbg !1992 {
start:
; call x86_64::instructions::interrupts::enable
  call void @_ZN6x86_6412instructions10interrupts6enable17h61ef9dd0bec737feE() #8, !dbg !1993
  ret void, !dbg !1994
}

; Function Attrs: nocallback nofree nosync nounwind speculatable willreturn memory(none)
declare void @llvm.dbg.declare(metadata, metadata, metadata) #4

; <bool as core::fmt::Display>::fmt
; Function Attrs: noredzone nounwind
declare zeroext i1 @"_ZN43_$LT$bool$u20$as$u20$core..fmt..Display$GT$3fmt17h5bc4d75f2223d7a0E"(ptr align 1, ptr align 8) unnamed_addr #1

; core::panicking::panic
; Function Attrs: cold noinline noredzone noreturn nounwind
declare void @_ZN4core9panicking5panic17h277234a6cd982fe5E(ptr align 1, i64, ptr align 8) unnamed_addr #5

; Function Attrs: nocallback nofree nosync nounwind willreturn memory(none)
declare i1 @llvm.expect.i1(i1, i1) #6

; bit_field::to_regular_range
; Function Attrs: noredzone nounwind
declare { i64, i64 } @_ZN9bit_field16to_regular_range17hd874e9ed95fe94eaE(ptr align 8, i64) unnamed_addr #1

; Function Attrs: nocallback nofree nounwind willreturn memory(argmem: readwrite)
declare void @llvm.memcpy.p0.p0.i64(ptr noalias nocapture writeonly, ptr noalias nocapture readonly, i64, i1 immarg) #7

; core::panicking::panic_fmt
; Function Attrs: cold noinline noredzone noreturn nounwind
declare void @_ZN4core9panicking9panic_fmt17hcab56c0eeadf4812E(ptr, ptr align 8) unnamed_addr #5

; Function Attrs: nocallback nofree nosync nounwind speculatable willreturn memory(none)
declare i64 @llvm.usub.sat.i64(i64, i64) #4

; <spin::once::Finish as core::ops::drop::Drop>::drop
; Function Attrs: noredzone nounwind
declare void @"_ZN60_$LT$spin..once..Finish$u20$as$u20$core..ops..drop..Drop$GT$4drop17h3d98baa349190142E"(ptr align 8) unnamed_addr #1

; core::panicking::panic_nounwind
; Function Attrs: cold noinline noredzone noreturn nounwind
declare void @_ZN4core9panicking14panic_nounwind17h4573e3544b1244f5E(ptr align 1, i64) unnamed_addr #5

; core::sync::atomic::atomic_load
; Function Attrs: inlinehint noredzone nounwind
declare i8 @_ZN4core4sync6atomic11atomic_load17h9e0e36427b7b4fe2E(ptr, i8) unnamed_addr #0

; core::sync::atomic::atomic_store
; Function Attrs: inlinehint noredzone nounwind
declare void @_ZN4core4sync6atomic12atomic_store17hb670e5cb583e0b2fE(ptr, i8, i8) unnamed_addr #0

; core::sync::atomic::atomic_load
; Function Attrs: inlinehint noredzone nounwind
declare i64 @_ZN4core4sync6atomic11atomic_load17ha5853cd073b6c81dE(ptr, i8) unnamed_addr #0

; core::sync::atomic::atomic_store
; Function Attrs: inlinehint noredzone nounwind
declare void @_ZN4core4sync6atomic12atomic_store17h85fed9c0e565ac04E(ptr, i64, i8) unnamed_addr #0

; Function Attrs: nounwind
declare void @llvm.x86.sse2.pause() unnamed_addr #8

; <u64 as bit_field::BitField>::get_bits
; Function Attrs: inlinehint noredzone nounwind
declare i64 @"_ZN43_$LT$u64$u20$as$u20$bit_field..BitField$GT$8get_bits17h7f9392334ae0b20dE"(ptr align 8, i64, i64) unnamed_addr #0

; <u64 as bit_field::BitField>::set_bits
; Function Attrs: inlinehint noredzone nounwind
declare align 8 ptr @"_ZN43_$LT$u64$u20$as$u20$bit_field..BitField$GT$8set_bits17h9be41c59a201263eE"(ptr align 8, i64, i64, i64) unnamed_addr #0

; x86_64::structures::gdt::GlobalDescriptorTable::pointer
; Function Attrs: noredzone nounwind
declare void @_ZN6x86_6410structures3gdt21GlobalDescriptorTable7pointer17h70e4c3639c5b4d79E(ptr sret(%"x86_64::structures::DescriptorTablePointer"), ptr align 8) unnamed_addr #1

; Function Attrs: nocallback nofree nounwind willreturn memory(argmem: write)
declare void @llvm.memset.p0.i64(ptr nocapture writeonly, i8, i64, i1 immarg) #9

; core::panicking::panic_bounds_check
; Function Attrs: cold noinline noredzone noreturn nounwind
declare void @_ZN4core9panicking18panic_bounds_check17h19acf4b7d21fbddfE(i64, i64, ptr align 8) unnamed_addr #5

; Function Attrs: nocallback nofree nosync nounwind speculatable willreturn memory(none)
declare { i64, i1 } @llvm.uadd.with.overflow.i64(i64, i64) #4

; Function Attrs: nocallback nofree nosync nounwind speculatable willreturn memory(none)
declare { i16, i1 } @llvm.uadd.with.overflow.i16(i16, i16) #4

; x86_64::instructions::segmentation::<impl x86_64::registers::segmentation::Segment for x86_64::registers::segmentation::CS>::get_reg
; Function Attrs: noredzone nounwind
declare i16 @"_ZN6x86_6412instructions12segmentation106_$LT$impl$u20$x86_64..registers..segmentation..Segment$u20$for$u20$x86_64..registers..segmentation..CS$GT$7get_reg17h6f7b902c677d957bE"() unnamed_addr #1

; x86_64::structures::idt::InterruptDescriptorTable::pointer
; Function Attrs: noredzone nounwind
declare void @_ZN6x86_6410structures3idt24InterruptDescriptorTable7pointer17he193195a249ac91dE(ptr sret(%"x86_64::structures::DescriptorTablePointer"), ptr align 16) unnamed_addr #1

; core::result::Result<T,E>::expect
; Function Attrs: inlinehint noredzone nounwind
declare i64 @"_ZN4core6result19Result$LT$T$C$E$GT$6expect17h049fff1ad62becc6E"(i64, i64, ptr align 1, i64, ptr align 8) unnamed_addr #0

; Function Attrs: nocallback nofree nosync nounwind willreturn memory(inaccessiblemem: readwrite)
declare void @llvm.assume(i1 noundef) #10

; <x86_64::structures::idt::InterruptStackFrameValue as core::fmt::Debug>::fmt
; Function Attrs: noredzone nounwind
declare zeroext i1 @"_ZN86_$LT$x86_64..structures..idt..InterruptStackFrameValue$u20$as$u20$core..fmt..Debug$GT$3fmt17hbf752379614f28bfE"(ptr align 8, ptr align 8) unnamed_addr #1

; core::fmt::ArgumentV1::new_display
; Function Attrs: inlinehint noredzone nounwind
declare { ptr, ptr } @_ZN4core3fmt10ArgumentV111new_display17h69f24a6b2c7acd53E(ptr align 8) unnamed_addr #0

; x86_64::instructions::segmentation::<impl x86_64::registers::segmentation::Segment for x86_64::registers::segmentation::CS>::set_reg
; Function Attrs: noredzone nounwind
declare void @"_ZN6x86_6412instructions12segmentation106_$LT$impl$u20$x86_64..registers..segmentation..Segment$u20$for$u20$x86_64..registers..segmentation..CS$GT$7set_reg17h70ff26a744e5af22E"(i16) unnamed_addr #1

; pic8259::ChainedPics::initialize
; Function Attrs: noredzone nounwind
declare void @_ZN7pic825911ChainedPics10initialize17hbcfd13d796e63549E(ptr align 2) unnamed_addr #1

; pic8259::ChainedPics::notify_end_of_interrupt
; Function Attrs: noredzone nounwind
declare void @_ZN7pic825911ChainedPics23notify_end_of_interrupt17h0390c8431816936cE(ptr align 2, i8) unnamed_addr #1

; <x86_64::structures::idt::InterruptDescriptorTable as core::fmt::Debug>::fmt
; Function Attrs: noredzone nounwind
declare zeroext i1 @"_ZN86_$LT$x86_64..structures..idt..InterruptDescriptorTable$u20$as$u20$core..fmt..Debug$GT$3fmt17h9189dc1dbc1bdf8eE"(ptr align 16, ptr align 8) unnamed_addr #1

; <&T as core::fmt::Debug>::fmt
; Function Attrs: noredzone nounwind
declare zeroext i1 @"_ZN42_$LT$$RF$T$u20$as$u20$core..fmt..Debug$GT$3fmt17h14d6a82af64876b2E"(ptr align 8, ptr align 8) unnamed_addr #1

; core::fmt::Formatter::debug_struct_field4_finish
; Function Attrs: noredzone nounwind
declare zeroext i1 @_ZN4core3fmt9Formatter26debug_struct_field4_finish17ha1695794fba5b6abE(ptr align 8, ptr align 1, i64, ptr align 1, i64, ptr align 1, ptr align 8, ptr align 1, i64, ptr align 1, ptr align 8, ptr align 1, i64, ptr align 1, ptr align 8, ptr align 1, i64, ptr align 1, ptr align 8) unnamed_addr #1

attributes #0 = { inlinehint noredzone nounwind "target-cpu"="generic" "target-features"="-mmx,-sse,+soft-float" }
attributes #1 = { noredzone nounwind "target-cpu"="generic" "target-features"="-mmx,-sse,+soft-float" }
attributes #2 = { inlinehint noredzone noreturn nounwind "target-cpu"="generic" "target-features"="-mmx,-sse,+soft-float" }
attributes #3 = { noredzone noreturn nounwind "target-cpu"="generic" "target-features"="-mmx,-sse,+soft-float" }
attributes #4 = { nocallback nofree nosync nounwind speculatable willreturn memory(none) }
attributes #5 = { cold noinline noredzone noreturn nounwind "target-cpu"="generic" "target-features"="-mmx,-sse,+soft-float" }
attributes #6 = { nocallback nofree nosync nounwind willreturn memory(none) }
attributes #7 = { nocallback nofree nounwind willreturn memory(argmem: readwrite) }
attributes #8 = { nounwind }
attributes #9 = { nocallback nofree nounwind willreturn memory(argmem: write) }
attributes #10 = { nocallback nofree nosync nounwind willreturn memory(inaccessiblemem: readwrite) }
attributes #11 = { noreturn nounwind }
attributes #12 = { memory(inaccessiblemem: readwrite) }

!llvm.module.flags = !{!343, !344, !345}
!llvm.dbg.cu = !{!346}

!0 = !DIGlobalVariableExpression(var: !1, expr: !DIExpression())
!1 = distinct !DIGlobalVariable(name: "CHAINED_PICS", linkageName: "_ZN14cpu_interrupts33programmable_interface_controller12CHAINED_PICS17h66c30a221ba57870E", scope: !2, file: !4, line: 5, type: !5, isLocal: false, isDefinition: true, align: 16)
!2 = !DINamespace(name: "programmable_interface_controller", scope: !3)
!3 = !DINamespace(name: "cpu_interrupts", scope: null)
!4 = !DIFile(filename: "cpu_interrupts/src/programmable_interface_controller.rs", directory: "/Users/yaw/self/theo", checksumkind: CSK_MD5, checksum: "00b9e4e0bae32cc34f3cf3b92f8991f5")
!5 = !DICompositeType(tag: DW_TAG_structure_type, name: "Mutex<pic8259::ChainedPics, spin::relax::Spin>", scope: !7, file: !6, size: 112, align: 16, elements: !9, templateParams: !75, identifier: "3001648fc91db5bb58241b16a9b122f4")
!6 = !DIFile(filename: "<unknown>", directory: "")
!7 = !DINamespace(name: "mutex", scope: !8)
!8 = !DINamespace(name: "spin", scope: null)
!9 = !{!10}
!10 = !DIDerivedType(tag: DW_TAG_member, name: "inner", scope: !5, file: !6, baseType: !11, size: 112, align: 16)
!11 = !DICompositeType(tag: DW_TAG_structure_type, name: "SpinMutex<pic8259::ChainedPics, spin::relax::Spin>", scope: !12, file: !6, size: 112, align: 16, elements: !13, templateParams: !75, identifier: "af6f3a8ec43d1f6c12c337ae2b19bc9e")
!12 = !DINamespace(name: "spin", scope: !7)
!13 = !{!14, !23, !36}
!14 = !DIDerivedType(tag: DW_TAG_member, name: "phantom", scope: !11, file: !6, baseType: !15, align: 8)
!15 = !DICompositeType(tag: DW_TAG_structure_type, name: "PhantomData<spin::relax::Spin>", scope: !16, file: !6, align: 8, elements: !18, templateParams: !19, identifier: "79f81c459de6dca4d9657eb000118ae2")
!16 = !DINamespace(name: "marker", scope: !17)
!17 = !DINamespace(name: "core", scope: null)
!18 = !{}
!19 = !{!20}
!20 = !DITemplateTypeParameter(name: "T", type: !21)
!21 = !DICompositeType(tag: DW_TAG_structure_type, name: "Spin", scope: !22, file: !6, align: 8, elements: !18, identifier: "739be00bff07a22810bf86daf420515a")
!22 = !DINamespace(name: "relax", scope: !8)
!23 = !DIDerivedType(tag: DW_TAG_member, name: "lock", scope: !11, file: !6, baseType: !24, size: 8, align: 8)
!24 = !DICompositeType(tag: DW_TAG_structure_type, name: "AtomicBool", scope: !25, file: !6, size: 8, align: 8, elements: !27, templateParams: !18, identifier: "e2364d2a6ff719de740e5eb5e910ee4d")
!25 = !DINamespace(name: "atomic", scope: !26)
!26 = !DINamespace(name: "sync", scope: !17)
!27 = !{!28}
!28 = !DIDerivedType(tag: DW_TAG_member, name: "v", scope: !24, file: !6, baseType: !29, size: 8, align: 8)
!29 = !DICompositeType(tag: DW_TAG_structure_type, name: "UnsafeCell<u8>", scope: !30, file: !6, size: 8, align: 8, elements: !31, templateParams: !34, identifier: "e5c1894a60a57e2d6018f7e1849f9cfb")
!30 = !DINamespace(name: "cell", scope: !17)
!31 = !{!32}
!32 = !DIDerivedType(tag: DW_TAG_member, name: "value", scope: !29, file: !6, baseType: !33, size: 8, align: 8)
!33 = !DIBasicType(name: "u8", size: 8, encoding: DW_ATE_unsigned)
!34 = !{!35}
!35 = !DITemplateTypeParameter(name: "T", type: !33)
!36 = !DIDerivedType(tag: DW_TAG_member, name: "data", scope: !11, file: !6, baseType: !37, size: 96, align: 16, offset: 16)
!37 = !DICompositeType(tag: DW_TAG_structure_type, name: "UnsafeCell<pic8259::ChainedPics>", scope: !30, file: !6, size: 96, align: 16, elements: !38, templateParams: !73, identifier: "f0039a9ebced358731b26b5e7305cf0f")
!38 = !{!39}
!39 = !DIDerivedType(tag: DW_TAG_member, name: "value", scope: !37, file: !6, baseType: !40, size: 96, align: 16)
!40 = !DICompositeType(tag: DW_TAG_structure_type, name: "ChainedPics", scope: !41, file: !6, size: 96, align: 16, elements: !42, templateParams: !18, identifier: "704cbec41c2a43b54a6a76883cbdf978")
!41 = !DINamespace(name: "pic8259", scope: null)
!42 = !{!43}
!43 = !DIDerivedType(tag: DW_TAG_member, name: "pics", scope: !40, file: !6, baseType: !44, size: 96, align: 16)
!44 = !DICompositeType(tag: DW_TAG_array_type, baseType: !45, size: 96, align: 16, elements: !71)
!45 = !DICompositeType(tag: DW_TAG_structure_type, name: "Pic", scope: !41, file: !6, size: 48, align: 16, elements: !46, templateParams: !18, identifier: "6e2aa6dc121bbbddee06b586a5b4764a")
!46 = !{!47, !48, !70}
!47 = !DIDerivedType(tag: DW_TAG_member, name: "offset", scope: !45, file: !6, baseType: !33, size: 8, align: 8, offset: 32)
!48 = !DIDerivedType(tag: DW_TAG_member, name: "command", scope: !45, file: !6, baseType: !49, size: 16, align: 16)
!49 = !DICompositeType(tag: DW_TAG_structure_type, name: "PortGeneric<u8, x86_64::instructions::port::ReadWriteAccess>", scope: !50, file: !6, size: 16, align: 16, elements: !53, templateParams: !68, identifier: "a8eb19b2ce088a9b7e474711afc9a3ab")
!50 = !DINamespace(name: "port", scope: !51)
!51 = !DINamespace(name: "instructions", scope: !52)
!52 = !DINamespace(name: "x86_64", scope: null)
!53 = !{!54, !56}
!54 = !DIDerivedType(tag: DW_TAG_member, name: "port", scope: !49, file: !6, baseType: !55, size: 16, align: 16)
!55 = !DIBasicType(name: "u16", size: 16, encoding: DW_ATE_unsigned)
!56 = !DIDerivedType(tag: DW_TAG_member, name: "phantom", scope: !49, file: !6, baseType: !57, align: 8)
!57 = !DICompositeType(tag: DW_TAG_structure_type, name: "PhantomData<(u8, x86_64::instructions::port::ReadWriteAccess)>", scope: !16, file: !6, align: 8, elements: !18, templateParams: !58, identifier: "8d33ffc0710a4c2f1f458093d077c9a3")
!58 = !{!59}
!59 = !DITemplateTypeParameter(name: "T", type: !60)
!60 = !DICompositeType(tag: DW_TAG_structure_type, name: "(u8, x86_64::instructions::port::ReadWriteAccess)", file: !6, size: 8, align: 8, elements: !61, templateParams: !18, identifier: "61129a9fb5f505dc2c1bda9fef39cabd")
!61 = !{!62, !63}
!62 = !DIDerivedType(tag: DW_TAG_member, name: "__0", scope: !60, file: !6, baseType: !33, size: 8, align: 8)
!63 = !DIDerivedType(tag: DW_TAG_member, name: "__1", scope: !60, file: !6, baseType: !64, align: 8, offset: 8)
!64 = !DICompositeType(tag: DW_TAG_structure_type, name: "ReadWriteAccess", scope: !50, file: !6, align: 8, elements: !65, templateParams: !18, identifier: "7b61641c06de0483f7557b84ccab5a8b")
!65 = !{!66}
!66 = !DIDerivedType(tag: DW_TAG_member, name: "__0", scope: !64, file: !6, baseType: !67, align: 8)
!67 = !DIBasicType(name: "()", encoding: DW_ATE_unsigned)
!68 = !{!35, !69}
!69 = !DITemplateTypeParameter(name: "A", type: !64)
!70 = !DIDerivedType(tag: DW_TAG_member, name: "data", scope: !45, file: !6, baseType: !49, size: 16, align: 16, offset: 16)
!71 = !{!72}
!72 = !DISubrange(count: 2, lowerBound: 0)
!73 = !{!74}
!74 = !DITemplateTypeParameter(name: "T", type: !40)
!75 = !{!74, !76}
!76 = !DITemplateTypeParameter(name: "R", type: !21)
!77 = !DIGlobalVariableExpression(var: !78, expr: !DIExpression())
!78 = distinct !DIGlobalVariable(name: "GLOBAL_DESCRIPTOR_TABLE", linkageName: "_ZN14cpu_interrupts23global_descriptor_table23GLOBAL_DESCRIPTOR_TABLE17h94906d1d65cd9ab0E", scope: !79, file: !80, line: 161, type: !81, isLocal: false, isDefinition: true, align: 8)
!79 = !DINamespace(name: "global_descriptor_table", scope: !3)
!80 = !DIFile(filename: "/Users/yaw/.cargo/registry/src/index.crates.io-6f17d22bba15001f/lazy_static-1.4.0/src/lib.rs", directory: "", checksumkind: CSK_MD5, checksum: "d828b01b82ac8e868e6840a22ef5c8cc")
!81 = !DICompositeType(tag: DW_TAG_structure_type, name: "GLOBAL_DESCRIPTOR_TABLE", scope: !79, file: !6, align: 8, elements: !82, templateParams: !18, identifier: "3f28a3918c27d1e642d641339a9cea50")
!82 = !{!83}
!83 = !DIDerivedType(tag: DW_TAG_member, name: "__private_field", scope: !81, file: !6, baseType: !67, align: 8)
!84 = !DIGlobalVariableExpression(var: !85, expr: !DIExpression())
!85 = distinct !DIGlobalVariable(name: "TASK_STATE_SEGMENT", linkageName: "_ZN108_$LT$cpu_interrupts..global_descriptor_table..GLOBAL_DESCRIPTOR_TABLE$u20$as$u20$core..ops..deref..Deref$GT$5deref23__static_ref_initialize18TASK_STATE_SEGMENT17h1ea3db7bdfbf0ddcE", scope: !86, file: !89, line: 27, type: !90, isLocal: true, isDefinition: true, align: 32)
!86 = !DINamespace(name: "__static_ref_initialize", scope: !87)
!87 = !DINamespace(name: "deref", scope: !88)
!88 = !DINamespace(name: "{impl#0}", scope: !79)
!89 = !DIFile(filename: "cpu_interrupts/src/global_descriptor_table.rs", directory: "/Users/yaw/self/theo", checksumkind: CSK_MD5, checksum: "a2e7351e681b7ba875772878a57f519c")
!90 = !DICompositeType(tag: DW_TAG_structure_type, name: "TaskStateSegment", scope: !91, file: !6, size: 832, align: 32, elements: !93, templateParams: !18, identifier: "7c53300f616d85b9a7e15537cfc3873c")
!91 = !DINamespace(name: "tss", scope: !92)
!92 = !DINamespace(name: "structures", scope: !52)
!93 = !{!94, !96, !105, !106, !110, !111, !112}
!94 = !DIDerivedType(tag: DW_TAG_member, name: "reserved_1", scope: !90, file: !6, baseType: !95, size: 32, align: 32)
!95 = !DIBasicType(name: "u32", size: 32, encoding: DW_ATE_unsigned)
!96 = !DIDerivedType(tag: DW_TAG_member, name: "privilege_stack_table", scope: !90, file: !6, baseType: !97, size: 192, align: 64, offset: 32)
!97 = !DICompositeType(tag: DW_TAG_array_type, baseType: !98, size: 192, align: 64, elements: !103)
!98 = !DICompositeType(tag: DW_TAG_structure_type, name: "VirtAddr", scope: !99, file: !6, size: 64, align: 64, elements: !100, templateParams: !18, identifier: "f319a619b938dd9d76cda81460978cdb")
!99 = !DINamespace(name: "addr", scope: !52)
!100 = !{!101}
!101 = !DIDerivedType(tag: DW_TAG_member, name: "__0", scope: !98, file: !6, baseType: !102, size: 64, align: 64)
!102 = !DIBasicType(name: "u64", size: 64, encoding: DW_ATE_unsigned)
!103 = !{!104}
!104 = !DISubrange(count: 3, lowerBound: 0)
!105 = !DIDerivedType(tag: DW_TAG_member, name: "reserved_2", scope: !90, file: !6, baseType: !102, size: 64, align: 64, offset: 224)
!106 = !DIDerivedType(tag: DW_TAG_member, name: "interrupt_stack_table", scope: !90, file: !6, baseType: !107, size: 448, align: 64, offset: 288)
!107 = !DICompositeType(tag: DW_TAG_array_type, baseType: !98, size: 448, align: 64, elements: !108)
!108 = !{!109}
!109 = !DISubrange(count: 7, lowerBound: 0)
!110 = !DIDerivedType(tag: DW_TAG_member, name: "reserved_3", scope: !90, file: !6, baseType: !102, size: 64, align: 64, offset: 736)
!111 = !DIDerivedType(tag: DW_TAG_member, name: "reserved_4", scope: !90, file: !6, baseType: !55, size: 16, align: 16, offset: 800)
!112 = !DIDerivedType(tag: DW_TAG_member, name: "iomap_base", scope: !90, file: !6, baseType: !55, size: 16, align: 16, offset: 816)
!113 = !DIGlobalVariableExpression(var: !114, expr: !DIExpression())
!114 = distinct !DIGlobalVariable(name: "STACK", linkageName: "_ZN108_$LT$cpu_interrupts..global_descriptor_table..GLOBAL_DESCRIPTOR_TABLE$u20$as$u20$core..ops..deref..Deref$GT$5deref23__static_ref_initialize5STACK17hdc0a01dd21764c33E", scope: !86, file: !89, line: 30, type: !115, isLocal: true, isDefinition: true, align: 8)
!115 = !DICompositeType(tag: DW_TAG_array_type, baseType: !33, size: 163840, align: 8, elements: !116)
!116 = !{!117}
!117 = !DISubrange(count: 20480, lowerBound: 0)
!118 = !DIGlobalVariableExpression(var: !119, expr: !DIExpression())
!119 = distinct !DIGlobalVariable(name: "LAZY", linkageName: "_ZN108_$LT$cpu_interrupts..global_descriptor_table..GLOBAL_DESCRIPTOR_TABLE$u20$as$u20$core..ops..deref..Deref$GT$5deref11__stability4LAZY17h6fc25aedcad6eb96E", scope: !120, file: !121, line: 29, type: !122, isLocal: true, isDefinition: true, align: 64)
!120 = !DINamespace(name: "__stability", scope: !87)
!121 = !DIFile(filename: "/Users/yaw/.cargo/registry/src/index.crates.io-6f17d22bba15001f/lazy_static-1.4.0/src/core_lazy.rs", directory: "", checksumkind: CSK_MD5, checksum: "a4d7117b86ca8c26c0d1ecaf6e9b6f2c")
!122 = !DICompositeType(tag: DW_TAG_structure_type, name: "Lazy<cpu_interrupts::global_descriptor_table::GlobalDescriptorTableSetup>", scope: !123, file: !6, size: 768, align: 64, elements: !125, templateParams: !151, identifier: "f7ac41e1137016b843066ba374ab9482")
!123 = !DINamespace(name: "lazy", scope: !124)
!124 = !DINamespace(name: "lazy_static", scope: null)
!125 = !{!126}
!126 = !DIDerivedType(tag: DW_TAG_member, name: "__0", scope: !122, file: !6, baseType: !127, size: 768, align: 64)
!127 = !DICompositeType(tag: DW_TAG_structure_type, name: "Once<cpu_interrupts::global_descriptor_table::GlobalDescriptorTableSetup>", scope: !128, file: !6, size: 768, align: 64, elements: !129, templateParams: !151, identifier: "f2a1948117d4f0a080a4cad67ab19892")
!128 = !DINamespace(name: "once", scope: !8)
!129 = !{!130, !140}
!130 = !DIDerivedType(tag: DW_TAG_member, name: "state", scope: !127, file: !6, baseType: !131, size: 64, align: 64)
!131 = !DICompositeType(tag: DW_TAG_structure_type, name: "AtomicUsize", scope: !25, file: !6, size: 64, align: 64, elements: !132, templateParams: !18, identifier: "2430928ce830a626955c329833891eda")
!132 = !{!133}
!133 = !DIDerivedType(tag: DW_TAG_member, name: "v", scope: !131, file: !6, baseType: !134, size: 64, align: 64)
!134 = !DICompositeType(tag: DW_TAG_structure_type, name: "UnsafeCell<usize>", scope: !30, file: !6, size: 64, align: 64, elements: !135, templateParams: !138, identifier: "d8ddfc9344a00bdf32bf210691c75ecb")
!135 = !{!136}
!136 = !DIDerivedType(tag: DW_TAG_member, name: "value", scope: !134, file: !6, baseType: !137, size: 64, align: 64)
!137 = !DIBasicType(name: "usize", size: 64, encoding: DW_ATE_unsigned)
!138 = !{!139}
!139 = !DITemplateTypeParameter(name: "T", type: !137)
!140 = !DIDerivedType(tag: DW_TAG_member, name: "data", scope: !127, file: !6, baseType: !141, size: 704, align: 64, offset: 64)
!141 = !DICompositeType(tag: DW_TAG_structure_type, name: "UnsafeCell<core::option::Option<cpu_interrupts::global_descriptor_table::GlobalDescriptorTableSetup>>", scope: !30, file: !6, size: 704, align: 64, elements: !142, templateParams: !179, identifier: "81e165821e1f9e74a503c68abf3b9f82")
!142 = !{!143}
!143 = !DIDerivedType(tag: DW_TAG_member, name: "value", scope: !141, file: !6, baseType: !144, size: 704, align: 64)
!144 = !DICompositeType(tag: DW_TAG_structure_type, name: "Option<cpu_interrupts::global_descriptor_table::GlobalDescriptorTableSetup>", scope: !145, file: !6, size: 704, align: 64, elements: !146, templateParams: !18, identifier: "d3cfaff6cc530eccd3cd990e2d2fbd9b")
!145 = !DINamespace(name: "option", scope: !17)
!146 = !{!147}
!147 = !DICompositeType(tag: DW_TAG_variant_part, scope: !144, file: !6, size: 704, align: 64, elements: !148, templateParams: !18, identifier: "6cbdcb11fe55f1132d28de31b1e7f911", discriminator: !178)
!148 = !{!149, !174}
!149 = !DIDerivedType(tag: DW_TAG_member, name: "None", scope: !147, file: !6, baseType: !150, size: 704, align: 64, extraData: i64 0)
!150 = !DICompositeType(tag: DW_TAG_structure_type, name: "None", scope: !144, file: !6, size: 704, align: 64, elements: !18, templateParams: !151, identifier: "9701277732d7df2444ef41659845ecfa")
!151 = !{!152}
!152 = !DITemplateTypeParameter(name: "T", type: !153)
!153 = !DICompositeType(tag: DW_TAG_structure_type, name: "GlobalDescriptorTableSetup", scope: !79, file: !6, size: 640, align: 64, elements: !154, templateParams: !18, identifier: "e5a99ae87e8762c6a0745cbc9314f8c9")
!154 = !{!155, !164}
!155 = !DIDerivedType(tag: DW_TAG_member, name: "table", scope: !153, file: !6, baseType: !156, size: 576, align: 64)
!156 = !DICompositeType(tag: DW_TAG_structure_type, name: "GlobalDescriptorTable", scope: !157, file: !6, size: 576, align: 64, elements: !158, templateParams: !18, identifier: "2ad6bb718ebbc631c647351758b53848")
!157 = !DINamespace(name: "gdt", scope: !92)
!158 = !{!159, !163}
!159 = !DIDerivedType(tag: DW_TAG_member, name: "table", scope: !156, file: !6, baseType: !160, size: 512, align: 64)
!160 = !DICompositeType(tag: DW_TAG_array_type, baseType: !102, size: 512, align: 64, elements: !161)
!161 = !{!162}
!162 = !DISubrange(count: 8, lowerBound: 0)
!163 = !DIDerivedType(tag: DW_TAG_member, name: "len", scope: !156, file: !6, baseType: !137, size: 64, align: 64, offset: 512)
