; ModuleID = '3q8zzuthoqheyuq4'
source_filename = "3q8zzuthoqheyuq4"
target datalayout = "e-m:e-i64:64-f80:128-n8:16:32:64-S128"
target triple = "x86_64-obuasi-unknown-none"

%"core::ops::range::Range<usize>" = type { i64, i64 }
%"core::fmt::Arguments<'_>" = type { { ptr, i64 }, { ptr, i64 }, %"core::option::Option<&[core::fmt::rt::Placeholder]>" }
%"core::option::Option<&[core::fmt::rt::Placeholder]>" = type { ptr, [1 x i64] }
%"core::fmt::rt::UnsafeArg" = type { {} }
%"global_descriptor_table::GlobalDescriptorTableSetup" = type { %"x86_64::structures::gdt::GlobalDescriptorTable", %"global_descriptor_table::Selectors", [2 x i16] }
%"x86_64::structures::gdt::GlobalDescriptorTable" = type { [8 x i64], i64 }
%"global_descriptor_table::Selectors" = type { i16, i16 }
%"x86_64::structures::gdt::Descriptor" = type { i64, [2 x i64] }
%"x86_64::structures::tss::TaskStateSegment" = type <{ i32, [3 x i64], i64, [7 x i64], i64, i16, i16 }>
%"core::result::Result<u8, u8>" = type { i8, [1 x i8] }
%"core::result::Result<bool, bool>" = type { i8, [1 x i8] }
%"core::result::Result<usize, usize>" = type { i64, [1 x i64] }
%"core::option::Option<global_descriptor_table::GlobalDescriptorTableSetup>::Some" = type { [1 x i64], %"global_descriptor_table::GlobalDescriptorTableSetup" }
%"core::option::Option<global_descriptor_table::GlobalDescriptorTableSetup>" = type { i64, [10 x i64] }
%"spin::once::Finish<'_>" = type { ptr, i8, [7 x i8] }
%"spin::once::Once<global_descriptor_table::GlobalDescriptorTableSetup>" = type { %"core::sync::atomic::AtomicUsize", %"core::cell::UnsafeCell<core::option::Option<global_descriptor_table::GlobalDescriptorTableSetup>>" }
%"core::sync::atomic::AtomicUsize" = type { i64 }
%"core::cell::UnsafeCell<core::option::Option<global_descriptor_table::GlobalDescriptorTableSetup>>" = type { %"core::option::Option<global_descriptor_table::GlobalDescriptorTableSetup>" }
%"x86_64::structures::gdt::Descriptor::UserSegment" = type { [1 x i64], i64 }
%"x86_64::structures::gdt::Descriptor::SystemSegment" = type { [1 x i64], i64, i64 }
%"x86_64::structures::DescriptorTablePointer" = type <{ i16, i64 }>
%"x86_64::structures::idt::Entry<extern \22x86-interrupt\22 fn(x86_64::structures::idt::InterruptStackFrame, u64) -> !>" = type { i16, i16, i16, i16, i32, i32, %"core::marker::PhantomData<extern \22x86-interrupt\22 fn(x86_64::structures::idt::InterruptStackFrame, u64) -> !>" }
%"core::marker::PhantomData<extern \22x86-interrupt\22 fn(x86_64::structures::idt::InterruptStackFrame, u64) -> !>" = type {}
%"x86_64::structures::idt::Entry<extern \22x86-interrupt\22 fn(x86_64::structures::idt::InterruptStackFrame, x86_64::structures::idt::PageFaultErrorCode)>" = type { i16, i16, i16, i16, i32, i32, %"core::marker::PhantomData<extern \22x86-interrupt\22 fn(x86_64::structures::idt::InterruptStackFrame, x86_64::structures::idt::PageFaultErrorCode)>" }
%"core::marker::PhantomData<extern \22x86-interrupt\22 fn(x86_64::structures::idt::InterruptStackFrame, x86_64::structures::idt::PageFaultErrorCode)>" = type {}
%"x86_64::structures::idt::Entry<extern \22x86-interrupt\22 fn(x86_64::structures::idt::InterruptStackFrame) -> !>" = type { i16, i16, i16, i16, i32, i32, %"core::marker::PhantomData<extern \22x86-interrupt\22 fn(x86_64::structures::idt::InterruptStackFrame) -> !>" }
%"core::marker::PhantomData<extern \22x86-interrupt\22 fn(x86_64::structures::idt::InterruptStackFrame) -> !>" = type {}
%"x86_64::structures::idt::Entry<extern \22x86-interrupt\22 fn(x86_64::structures::idt::InterruptStackFrame, u64)>" = type { i16, i16, i16, i16, i32, i32, %"core::marker::PhantomData<extern \22x86-interrupt\22 fn(x86_64::structures::idt::InterruptStackFrame, u64)>" }
%"core::marker::PhantomData<extern \22x86-interrupt\22 fn(x86_64::structures::idt::InterruptStackFrame, u64)>" = type {}
%"x86_64::structures::idt::Entry<extern \22x86-interrupt\22 fn(x86_64::structures::idt::InterruptStackFrame)>" = type { i16, i16, i16, i16, i32, i32, %"core::marker::PhantomData<extern \22x86-interrupt\22 fn(x86_64::structures::idt::InterruptStackFrame)>" }
%"core::marker::PhantomData<extern \22x86-interrupt\22 fn(x86_64::structures::idt::InterruptStackFrame)>" = type {}
%"x86_64::structures::idt::InterruptDescriptorTable" = type { %"x86_64::structures::idt::Entry<extern \22x86-interrupt\22 fn(x86_64::structures::idt::InterruptStackFrame)>", %"x86_64::structures::idt::Entry<extern \22x86-interrupt\22 fn(x86_64::structures::idt::InterruptStackFrame)>", %"x86_64::structures::idt::Entry<extern \22x86-interrupt\22 fn(x86_64::structures::idt::InterruptStackFrame)>", %"x86_64::structures::idt::Entry<extern \22x86-interrupt\22 fn(x86_64::structures::idt::InterruptStackFrame)>", %"x86_64::structures::idt::Entry<extern \22x86-interrupt\22 fn(x86_64::structures::idt::InterruptStackFrame)>", %"x86_64::structures::idt::Entry<extern \22x86-interrupt\22 fn(x86_64::structures::idt::InterruptStackFrame)>", %"x86_64::structures::idt::Entry<extern \22x86-interrupt\22 fn(x86_64::structures::idt::InterruptStackFrame)>", %"x86_64::structures::idt::Entry<extern \22x86-interrupt\22 fn(x86_64::structures::idt::InterruptStackFrame)>", %"x86_64::structures::idt::Entry<extern \22x86-interrupt\22 fn(x86_64::structures::idt::InterruptStackFrame, u64) -> !>", %"x86_64::structures::idt::Entry<extern \22x86-interrupt\22 fn(x86_64::structures::idt::InterruptStackFrame)>", %"x86_64::structures::idt::Entry<extern \22x86-interrupt\22 fn(x86_64::structures::idt::InterruptStackFrame, u64)>", %"x86_64::structures::idt::Entry<extern \22x86-interrupt\22 fn(x86_64::structures::idt::InterruptStackFrame, u64)>", %"x86_64::structures::idt::Entry<extern \22x86-interrupt\22 fn(x86_64::structures::idt::InterruptStackFrame, u64)>", %"x86_64::structures::idt::Entry<extern \22x86-interrupt\22 fn(x86_64::structures::idt::InterruptStackFrame, u64)>", %"x86_64::structures::idt::Entry<extern \22x86-interrupt\22 fn(x86_64::structures::idt::InterruptStackFrame, x86_64::structures::idt::PageFaultErrorCode)>", %"x86_64::structures::idt::Entry<extern \22x86-interrupt\22 fn(x86_64::structures::idt::InterruptStackFrame)>", %"x86_64::structures::idt::Entry<extern \22x86-interrupt\22 fn(x86_64::structures::idt::InterruptStackFrame)>", %"x86_64::structures::idt::Entry<extern \22x86-interrupt\22 fn(x86_64::structures::idt::InterruptStackFrame, u64)>", %"x86_64::structures::idt::Entry<extern \22x86-interrupt\22 fn(x86_64::structures::idt::InterruptStackFrame) -> !>", %"x86_64::structures::idt::Entry<extern \22x86-interrupt\22 fn(x86_64::structures::idt::InterruptStackFrame)>", %"x86_64::structures::idt::Entry<extern \22x86-interrupt\22 fn(x86_64::structures::idt::InterruptStackFrame)>", %"x86_64::structures::idt::Entry<extern \22x86-interrupt\22 fn(x86_64::structures::idt::InterruptStackFrame, u64)>", [6 x %"x86_64::structures::idt::Entry<extern \22x86-interrupt\22 fn(x86_64::structures::idt::InterruptStackFrame)>"], %"x86_64::structures::idt::Entry<extern \22x86-interrupt\22 fn(x86_64::structures::idt::InterruptStackFrame)>", %"x86_64::structures::idt::Entry<extern \22x86-interrupt\22 fn(x86_64::structures::idt::InterruptStackFrame, u64)>", %"x86_64::structures::idt::Entry<extern \22x86-interrupt\22 fn(x86_64::structures::idt::InterruptStackFrame, u64)>", %"x86_64::structures::idt::Entry<extern \22x86-interrupt\22 fn(x86_64::structures::idt::InterruptStackFrame)>", [224 x %"x86_64::structures::idt::Entry<extern \22x86-interrupt\22 fn(x86_64::structures::idt::InterruptStackFrame)>"] }
%"core::result::Result<x86_64::addr::VirtAddr, x86_64::addr::VirtAddrNotValid>" = type { i64, [1 x i64] }
%"x86_64::structures::idt::InterruptStackFrame" = type { %"x86_64::structures::idt::InterruptStackFrameValue" }
%"x86_64::structures::idt::InterruptStackFrameValue" = type { i64, i64, i64, i64, i64 }
%"core::fmt::rt::Argument<'_>" = type { ptr, ptr }
%"core::fmt::rt::Count" = type { i64, [1 x i64] }
%"core::fmt::rt::Placeholder" = type { %"core::fmt::rt::Count", %"core::fmt::rt::Count", i64, i32, i32, i8, [7 x i8] }
%"interrupt_descriptor_table::SafeInterruptDescriptorTable" = type { %"x86_64::structures::idt::InterruptDescriptorTable", i8, i8, i8, [13 x i8] }
%"core::result::Result<bool, &str>" = type { ptr, [1 x i64] }
%"core::result::Result<bool, &str>::Ok" = type { [8 x i8], i8 }
%"spin::mutex::spin::SpinMutexGuard<'_, pic8259::ChainedPics>" = type { ptr, ptr }
%"spin::mutex::MutexGuard<'_, pic8259::ChainedPics>" = type { %"spin::mutex::spin::SpinMutexGuard<'_, pic8259::ChainedPics>" }

@alloc_6923360c3161738641b3989c6181ce08 = private unnamed_addr constant <{ [40 x i8] }> <{ [40 x i8] c"assertion failed: bit < Self::BIT_LENGTH" }>, align 1
@alloc_89294a974a2788f895cf677d5bd697c4 = private unnamed_addr constant <{ [91 x i8] }> <{ [91 x i8] c"/Users/yaw/.cargo/registry/src/index.crates.io-6f17d22bba15001f/bit_field-0.10.1/src/lib.rs" }>, align 1
@alloc_f4d2308b1a4d364a80c06ffe6643cbed = private unnamed_addr constant <{ ptr, [16 x i8] }> <{ ptr @alloc_89294a974a2788f895cf677d5bd697c4, [16 x i8] c"[\00\00\00\00\00\00\00\11\01\00\00\01\00\00\00" }>, align 8
@str.0 = internal unnamed_addr constant [35 x i8] c"attempt to shift left with overflow"
@alloc_43d3c3e34f8fc6589b4da1b1abdd7b57 = private unnamed_addr constant <{ [48 x i8] }> <{ [48 x i8] c"assertion failed: range.start < Self::BIT_LENGTH" }>, align 1
@alloc_d3619c0864e1cd3a4478ebd6749a56b0 = private unnamed_addr constant <{ [47 x i8] }> <{ [47 x i8] c"assertion failed: range.end <= Self::BIT_LENGTH" }>, align 1
@alloc_fa3040d11952b12d3c67c30be76bc6a8 = private unnamed_addr constant <{ [41 x i8] }> <{ [41 x i8] c"assertion failed: range.start < range.end" }>, align 1
@str.1 = internal unnamed_addr constant [33 x i8] c"attempt to subtract with overflow"
@str.2 = internal unnamed_addr constant [36 x i8] c"attempt to shift right with overflow"
@alloc_8500726b2f23ea792acf9a1d33d50d56 = private unnamed_addr constant <{ [33 x i8] }> <{ [33 x i8] c"value does not fit into bit range" }>, align 1
@alloc_513570631223a12912d85da2bec3b15a = private unnamed_addr constant <{}> zeroinitializer, align 8
@alloc_91c7fa63c3cfeaa3c795652d5cf060e4 = private unnamed_addr constant <{ [12 x i8] }> <{ [12 x i8] c"invalid args" }>, align 1
@alloc_af99043bc04c419363a7f04d23183506 = private unnamed_addr constant <{ ptr, [8 x i8] }> <{ ptr @alloc_91c7fa63c3cfeaa3c795652d5cf060e4, [8 x i8] c"\0C\00\00\00\00\00\00\00" }>, align 8
@alloc_c2ea93c90919bb7b1e482f917e413fa1 = private unnamed_addr constant <{ [107 x i8] }> <{ [107 x i8] c"/Users/yaw/.rustup/toolchains/nightly-aarch64-apple-darwin/lib/rustlib/src/rust/library/core/src/fmt/mod.rs" }>, align 1
@alloc_40dc4a2e4fa36320ad05a7f7aeedf921 = private unnamed_addr constant <{ ptr, [16 x i8] }> <{ ptr @alloc_c2ea93c90919bb7b1e482f917e413fa1, [16 x i8] c"k\00\00\00\00\00\00\00C\01\00\00\0D\00\00\00" }>, align 8
@alloc_1eb6f53a157dccb32488e066ad957e6d = private unnamed_addr constant <{ [82 x i8] }> <{ [82 x i8] c"unsafe precondition(s) violated: hint::unreachable_unchecked must never be reached" }>, align 1
@alloc_7adef5546d83b439c7829602020737c6 = private unnamed_addr constant <{ [61 x i8] }> <{ [61 x i8] c"there is no such thing as an acquire-release failure ordering" }>, align 1
@alloc_dd7d8f77c173bf31726eae321f955bec = private unnamed_addr constant <{ ptr, [8 x i8] }> <{ ptr @alloc_7adef5546d83b439c7829602020737c6, [8 x i8] c"=\00\00\00\00\00\00\00" }>, align 8
@alloc_758e3eafddd83bea2c9171c5517da1cc = private unnamed_addr constant <{ [111 x i8] }> <{ [111 x i8] c"/Users/yaw/.rustup/toolchains/nightly-aarch64-apple-darwin/lib/rustlib/src/rust/library/core/src/sync/atomic.rs" }>, align 1
@alloc_122716f189323124cb0c05846480a00c = private unnamed_addr constant <{ ptr, [16 x i8] }> <{ ptr @alloc_758e3eafddd83bea2c9171c5517da1cc, [16 x i8] c"o\00\00\00\00\00\00\00\0E\03\00\00\15\00\00\00" }>, align 8
@alloc_5a43f8d94dd4505c1dba43832ce73af8 = private unnamed_addr constant <{ [52 x i8] }> <{ [52 x i8] c"there is no such thing as a release failure ordering" }>, align 1
@alloc_04ab601c54c6e0a22ff11d72dc7f4511 = private unnamed_addr constant <{ ptr, [8 x i8] }> <{ ptr @alloc_5a43f8d94dd4505c1dba43832ce73af8, [8 x i8] c"4\00\00\00\00\00\00\00" }>, align 8
@alloc_1b2d53547632b0cd8d68abf128d934e0 = private unnamed_addr constant <{ ptr, [16 x i8] }> <{ ptr @alloc_758e3eafddd83bea2c9171c5517da1cc, [16 x i8] c"o\00\00\00\00\00\00\00\14\03\00\00!\00\00\00" }>, align 8
@alloc_3a78ff04f14eb2833ab0c82d013b150b = private unnamed_addr constant <{ [50 x i8] }> <{ [50 x i8] c"there is no such thing as a relaxed compiler fence" }>, align 1
@alloc_430204769d39c3fb374968cb14137bf7 = private unnamed_addr constant <{ ptr, [8 x i8] }> <{ ptr @alloc_3a78ff04f14eb2833ab0c82d013b150b, [8 x i8] c"2\00\00\00\00\00\00\00" }>, align 8
@alloc_15e6b65a979077866e1a9c60fd8e7af9 = private unnamed_addr constant <{ ptr, [16 x i8] }> <{ ptr @alloc_758e3eafddd83bea2c9171c5517da1cc, [16 x i8] c"o\00\00\00\00\00\00\00\86\0E\00\00\18\00\00\00" }>, align 8
@alloc_a1555e0a155dca2f5083258fcbf483f1 = private unnamed_addr constant <{ ptr, [16 x i8] }> <{ ptr @alloc_758e3eafddd83bea2c9171c5517da1cc, [16 x i8] c"o\00\00\00\00\00\00\000\0D\00\00\1D\00\00\00" }>, align 8
@alloc_33885c66f3e23721de7c078c26cbbbab = private unnamed_addr constant <{ ptr, [16 x i8] }> <{ ptr @alloc_758e3eafddd83bea2c9171c5517da1cc, [16 x i8] c"o\00\00\00\00\00\00\00/\0D\00\00\1C\00\00\00" }>, align 8
@alloc_06a420d8deee50645e90f2290df13e81 = private unnamed_addr constant <{ ptr, [16 x i8] }> <{ ptr @alloc_758e3eafddd83bea2c9171c5517da1cc, [16 x i8] c"o\00\00\00\00\00\00\00S\0D\00\00\1D\00\00\00" }>, align 8
@alloc_977f08ebfb81be136063f2d5037813a1 = private unnamed_addr constant <{ ptr, [16 x i8] }> <{ ptr @alloc_758e3eafddd83bea2c9171c5517da1cc, [16 x i8] c"o\00\00\00\00\00\00\00R\0D\00\00\1C\00\00\00" }>, align 8
@alloc_a500d906b91607583596fa15e63c2ada = private unnamed_addr constant <{ [40 x i8] }> <{ [40 x i8] c"internal error: entered unreachable code" }>, align 1
@alloc_8af331a5985192ea52a41e19634f2db2 = private unnamed_addr constant <{ [86 x i8] }> <{ [86 x i8] c"/Users/yaw/.cargo/registry/src/index.crates.io-6f17d22bba15001f/spin-0.5.2/src/once.rs" }>, align 1
@alloc_5be19f098388ddfa34a5cde2d2c61c94 = private unnamed_addr constant <{ ptr, [16 x i8] }> <{ ptr @alloc_8af331a5985192ea52a41e19634f2db2, [16 x i8] c"V\00\00\00\00\00\00\00{\00\00\00\1F\00\00\00" }>, align 8
@alloc_b41ce9db6ff9e09c515cee5b4d05db5e = private unnamed_addr constant <{ [17 x i8] }> <{ [17 x i8] c"Once has panicked" }>, align 1
@alloc_cbdd636a907b817e5acd19150abaf3dc = private unnamed_addr constant <{ ptr, [16 x i8] }> <{ ptr @alloc_8af331a5985192ea52a41e19634f2db2, [16 x i8] c"V\00\00\00\00\00\00\00\80\00\00\00\1D\00\00\00" }>, align 8
@alloc_047faabbe6ef5a15898762b6e3e08ed6 = private unnamed_addr constant <{ [8 x i8] }> <{ [8 x i8] c"\FF\FF\00\00\00\9B\AF\00" }>, align 8
@alloc_a2052f5a732c6560387218d7aa6b4ca1 = private unnamed_addr constant <{ [8 x i8] }> <{ [8 x i8] c"\00\00\00\00\00\80\00\00" }>, align 8
@alloc_3d5e446dd372b9bc2aa1462898cc18a9 = private unnamed_addr constant <{ [100 x i8] }> <{ [100 x i8] c"/Users/yaw/.cargo/registry/src/index.crates.io-6f17d22bba15001f/x86_64-0.14.11/src/structures/gdt.rs" }>, align 1
@alloc_a9ca7108e83d178eaa82b672d022e96b = private unnamed_addr constant <{ ptr, [16 x i8] }> <{ ptr @alloc_3d5e446dd372b9bc2aa1462898cc18a9, [16 x i8] c"d\00\00\00\00\00\00\00c\01\00\00\1D\00\00\00" }>, align 8
@alloc_5dd4d78cc458787967df87e6f8b87088 = private unnamed_addr constant <{ [8 x i8] }> <{ [8 x i8] c"\00\00\00\00\00`\00\00" }>, align 8
@alloc_2fca64518fbcda1de6ab027e8846e0d5 = private unnamed_addr constant <{ ptr, [16 x i8] }> <{ ptr @alloc_3d5e446dd372b9bc2aa1462898cc18a9, [16 x i8] c"d\00\00\00\00\00\00\00\9C\00\00\00\09\00\00\00" }>, align 8
@alloc_ab467cc171c795d9c03993e16dbdd64a = private unnamed_addr constant <{ ptr, [16 x i8] }> <{ ptr @alloc_3d5e446dd372b9bc2aa1462898cc18a9, [16 x i8] c"d\00\00\00\00\00\00\00\9D\00\00\00\09\00\00\00" }>, align 8
@str.3 = internal unnamed_addr constant [28 x i8] c"attempt to add with overflow"
@alloc_e755bc5cd467965f69656078209bbfdc = private unnamed_addr constant <{ [8 x i8] }> <{ [8 x i8] c"GDT full" }>, align 1
@alloc_9c1a15bee5587968e67d068335f028fc = private unnamed_addr constant <{ ptr, [16 x i8] }> <{ ptr @alloc_3d5e446dd372b9bc2aa1462898cc18a9, [16 x i8] c"d\00\00\00\00\00\00\00i\00\00\00\15\00\00\00" }>, align 8
@alloc_71a7efa2492bb21c9f54a8edb2880146 = private unnamed_addr constant <{ [52 x i8] }> <{ [52 x i8] c"GDT requires two free spaces to hold a SystemSegment" }>, align 1
@alloc_35f792ca9cdbc5ad4325f075b1014a58 = private unnamed_addr constant <{ ptr, [16 x i8] }> <{ ptr @alloc_3d5e446dd372b9bc2aa1462898cc18a9, [16 x i8] c"d\00\00\00\00\00\00\00o\00\00\00\15\00\00\00" }>, align 8
@alloc_bb784ff5cbe8cf7f36955c50c05d0f35 = private unnamed_addr constant <{ [100 x i8] }> <{ [100 x i8] c"/Users/yaw/.cargo/registry/src/index.crates.io-6f17d22bba15001f/x86_64-0.14.11/src/structures/idt.rs" }>, align 1
@alloc_fa052248d4309ea78bf128fd9e97b625 = private unnamed_addr constant <{ ptr, [16 x i8] }> <{ ptr @alloc_bb784ff5cbe8cf7f36955c50c05d0f35, [16 x i8] c"d\00\00\00\00\00\00\00g\03\00\00\1F\00\00\00" }>, align 8
@alloc_a287757f26180a2bb3deef4023d41a2e = private unnamed_addr constant <{ [23 x i8] }> <{ [23 x i8] c"invalid privilege level" }>, align 1
@alloc_7806466c67c8428c48e1029d87445b68 = private unnamed_addr constant <{ [89 x i8] }> <{ [89 x i8] c"/Users/yaw/.cargo/registry/src/index.crates.io-6f17d22bba15001f/x86_64-0.14.11/src/lib.rs" }>, align 1
@alloc_c829a67337a70fa82eb3e9cc844ce777 = private unnamed_addr constant <{ ptr, [16 x i8] }> <{ ptr @alloc_7806466c67c8428c48e1029d87445b68, [16 x i8] c"Y\00\00\00\00\00\00\00=\00\00\00\12\00\00\00" }>, align 8
@alloc_3b30f3c2fe1935017d2714aa9952ea95 = private unnamed_addr constant <{ [74 x i8] }> <{ [74 x i8] c"address passed to VirtAddr::new must not contain any data in bits 48 to 64" }>, align 1
@alloc_842c6cf716507d75296fae883605a9ce = private unnamed_addr constant <{ [90 x i8] }> <{ [90 x i8] c"/Users/yaw/.cargo/registry/src/index.crates.io-6f17d22bba15001f/x86_64-0.14.11/src/addr.rs" }>, align 1
@alloc_48765f877a14fc69d0e400169d59e85e = private unnamed_addr constant <{ ptr, [16 x i8] }> <{ ptr @alloc_842c6cf716507d75296fae883605a9ce, [16 x i8] c"Z\00\00\00\00\00\00\00F\00\00\00\1D\00\00\00" }>, align 8
@alloc_7b8d3271083f2bbf295edc299dc540f1 = private unnamed_addr constant <{ ptr, [16 x i8] }> <{ ptr @alloc_842c6cf716507d75296fae883605a9ce, [16 x i8] c"Z\00\00\00\00\00\00\008\01\00\00\17\00\00\00" }>, align 8
@alloc_db71f8f2efa4491d8384d69403773686 = private unnamed_addr constant <{ [18 x i8] }> <{ [18 x i8] c"PageFaultErrorCode" }>, align 1
@vtable.4 = private constant <{ ptr, [16 x i8], ptr }> <{ ptr @"_ZN4core3ptr69drop_in_place$LT$$RF$x86_64..structures..idt.._..InternalBitFlags$GT$17h8d312a19cefd9d6eE", [16 x i8] c"\08\00\00\00\00\00\00\00\08\00\00\00\00\00\00\00", ptr @"_ZN42_$LT$$RF$T$u20$as$u20$core..fmt..Debug$GT$3fmt17h242673e519fd04b6E" }>, align 8, !dbg !0
@alloc_5979337f995b50b3b7ad2acf28efea10 = private unnamed_addr constant <{ [30 x i8] }> <{ [30 x i8] c"DOUBLE FAULT CAPTURED (errno: " }>, align 1
@alloc_85db505b151585473f2202053f9d9670 = private unnamed_addr constant <{ [6 x i8] }> <{ [6 x i8] c") -> \0A" }>, align 1
@alloc_9add2c7ee8caa8a38c0be1be55301ba9 = private unnamed_addr constant <{ ptr, [8 x i8], ptr, [8 x i8] }> <{ ptr @alloc_5979337f995b50b3b7ad2acf28efea10, [8 x i8] c"\1E\00\00\00\00\00\00\00", ptr @alloc_85db505b151585473f2202053f9d9670, [8 x i8] c"\06\00\00\00\00\00\00\00" }>, align 8
@alloc_c5fb0d085408a09540afc45a435767c8 = private unnamed_addr constant <{ [48 x i8] }> <{ [48 x i8] c"cpu_interrupts/src/default_exception_handlers.rs" }>, align 1
@alloc_06895ee293335a0ae64ace386da9c1ab = private unnamed_addr constant <{ ptr, [16 x i8] }> <{ ptr @alloc_c5fb0d085408a09540afc45a435767c8, [16 x i8] c"0\00\00\00\00\00\00\00\07\00\00\00\05\00\00\00" }>, align 8
@alloc_a5916a1819a99d12a7fcf0a9e9cbe92d = private unnamed_addr constant <{ [33 x i8] }> <{ [33 x i8] c"PAGE FAULT OCCURRED: -> \0A\09frame: " }>, align 1
@alloc_19fa5015e9afeb4a8771e16957894344 = private unnamed_addr constant <{ [18 x i8] }> <{ [18 x i8] c"\0A\09--> error_code: " }>, align 1
@alloc_6db0dbd5a8d15db99b813c29b1d97450 = private unnamed_addr constant <{ ptr, [8 x i8], ptr, [8 x i8] }> <{ ptr @alloc_a5916a1819a99d12a7fcf0a9e9cbe92d, [8 x i8] c"!\00\00\00\00\00\00\00", ptr @alloc_19fa5015e9afeb4a8771e16957894344, [8 x i8] c"\12\00\00\00\00\00\00\00" }>, align 8
@alloc_f3e2fdfe8b1dc95ed4f592e5947cd1f1 = private unnamed_addr constant <{ ptr, [16 x i8] }> <{ ptr @alloc_c5fb0d085408a09540afc45a435767c8, [16 x i8] c"0\00\00\00\00\00\00\00\0E\00\00\00\05\00\00\00" }>, align 8
@alloc_cdf29e36748ce97224f9a0c64e37a3c9 = private unnamed_addr constant <{ [37 x i8] }> <{ [37 x i8] c"some or all required handlers not set" }>, align 1
@_ZN14cpu_interrupts33programmable_interface_controller12CHAINED_PICS17h0558102ca9298ac5E = global <{ [1 x i8], [1 x i8], [5 x i8], [1 x i8], [5 x i8], [1 x i8] }> <{ [1 x i8] zeroinitializer, [1 x i8] undef, [5 x i8] c" \00!\00 ", [1 x i8] undef, [5 x i8] c"\A0\00\A1\00(", [1 x i8] undef }>, align 2, !dbg !22
@alloc_75ef2734e4964c1dbd279e33654e660b = private unnamed_addr constant <{ [55 x i8] }> <{ [55 x i8] c"cpu_interrupts/src/programmable_interface_controller.rs" }>, align 1
@alloc_dd2e65f21ea72520efdae4add4daa224 = private unnamed_addr constant <{ ptr, [16 x i8] }> <{ ptr @alloc_75ef2734e4964c1dbd279e33654e660b, [16 x i8] c"7\00\00\00\00\00\00\00\12\00\00\00&\00\00\00" }>, align 8
@_ZN14cpu_interrupts23global_descriptor_table23GLOBAL_DESCRIPTOR_TABLE17hdee7eb84949beee1E = constant <{}> zeroinitializer, align 1, !dbg !95
@"_ZN108_$LT$cpu_interrupts..global_descriptor_table..GLOBAL_DESCRIPTOR_TABLE$u20$as$u20$core..ops..deref..Deref$GT$5deref23__static_ref_initialize18TASK_STATE_SEGMENT17h81544bb680ad2020E" = internal global <{ [104 x i8] }> <{ [104 x i8] c"\00\00\00\00\00\00\00\00\00\00\00\00\00\00\00\00\00\00\00\00\00\00\00\00\00\00\00\00\00\00\00\00\00\00\00\00\00\00\00\00\00\00\00\00\00\00\00\00\00\00\00\00\00\00\00\00\00\00\00\00\00\00\00\00\00\00\00\00\00\00\00\00\00\00\00\00\00\00\00\00\00\00\00\00\00\00\00\00\00\00\00\00\00\00\00\00\00\00\00\00\00\00h\00" }>, align 4, !dbg !102
@"_ZN108_$LT$cpu_interrupts..global_descriptor_table..GLOBAL_DESCRIPTOR_TABLE$u20$as$u20$core..ops..deref..Deref$GT$5deref23__static_ref_initialize5STACK17h76fb64d6e3f7975aE" = internal global <{ [20480 x i8] }> zeroinitializer, align 1, !dbg !129
@"_ZN108_$LT$cpu_interrupts..global_descriptor_table..GLOBAL_DESCRIPTOR_TABLE$u20$as$u20$core..ops..deref..Deref$GT$5deref11__stability4LAZY17h9111ffcf214e6482E" = internal global <{ [16 x i8], [80 x i8] }> <{ [16 x i8] zeroinitializer, [80 x i8] undef }>, align 8, !dbg !134

; <&T as core::fmt::Debug>::fmt
; Function Attrs: noredzone nounwind
define zeroext i1 @"_ZN42_$LT$$RF$T$u20$as$u20$core..fmt..Debug$GT$3fmt17h242673e519fd04b6E"(ptr align 8 %self, ptr align 8 %f) unnamed_addr #0 !dbg !225 {
start:
  %f.dbg.spill = alloca ptr, align 8
  %self.dbg.spill = alloca ptr, align 8
  store ptr %self, ptr %self.dbg.spill, align 8
  call void @llvm.dbg.declare(metadata ptr %self.dbg.spill, metadata !279, metadata !DIExpression()), !dbg !283
  store ptr %f, ptr %f.dbg.spill, align 8
  call void @llvm.dbg.declare(metadata ptr %f.dbg.spill, metadata !280, metadata !DIExpression()), !dbg !284
  %_3 = load ptr, ptr %self, align 8, !dbg !285, !nonnull !21, !align !286, !noundef !21
; call <x86_64::structures::idt::_::InternalBitFlags as core::fmt::Debug>::fmt
  %_0 = call zeroext i1 @"_ZN81_$LT$x86_64..structures..idt.._..InternalBitFlags$u20$as$u20$core..fmt..Debug$GT$3fmt17h3107809a701e7e2dE"(ptr align 8 %_3, ptr align 8 %f) #7, !dbg !287
  ret i1 %_0, !dbg !288
}

; <u16 as bit_field::BitField>::set_bit
; Function Attrs: inlinehint noredzone nounwind
define internal align 2 ptr @"_ZN43_$LT$u16$u20$as$u20$bit_field..BitField$GT$7set_bit17h2a8d74e1c110d0f1E"(ptr align 2 %self, i64 %bit, i1 zeroext %value) unnamed_addr #1 !dbg !289 {
start:
  %value.dbg.spill = alloca i8, align 1
  %bit.dbg.spill = alloca i64, align 8
  %self.dbg.spill = alloca ptr, align 8
  store ptr %self, ptr %self.dbg.spill, align 8
  call void @llvm.dbg.declare(metadata ptr %self.dbg.spill, metadata !298, metadata !DIExpression()), !dbg !301
  store i64 %bit, ptr %bit.dbg.spill, align 8
  call void @llvm.dbg.declare(metadata ptr %bit.dbg.spill, metadata !299, metadata !DIExpression()), !dbg !302
  %0 = zext i1 %value to i8
  store i8 %0, ptr %value.dbg.spill, align 1
  call void @llvm.dbg.declare(metadata ptr %value.dbg.spill, metadata !300, metadata !DIExpression()), !dbg !303
  %_4 = icmp ult i64 %bit, 16, !dbg !304
  br i1 %_4, label %bb1, label %bb2, !dbg !304

bb2:                                              ; preds = %start
; call core::panicking::panic
  call void @_ZN4core9panicking5panic17h6f817e467d9b8599E(ptr align 1 @alloc_6923360c3161738641b3989c6181ce08, i64 40, ptr align 8 @alloc_f4d2308b1a4d364a80c06ffe6643cbed) #11, !dbg !305
  unreachable, !dbg !305

bb1:                                              ; preds = %start
  br i1 %value, label %bb3, label %bb4, !dbg !306

bb4:                                              ; preds = %bb1
  %_10 = icmp ult i64 %bit, 16, !dbg !307
  %1 = call i1 @llvm.expect.i1(i1 %_10, i1 true), !dbg !307
  br i1 %1, label %bb6, label %panic, !dbg !307

bb3:                                              ; preds = %bb1
  %_7 = icmp ult i64 %bit, 16, !dbg !308
  %2 = call i1 @llvm.expect.i1(i1 %_7, i1 true), !dbg !308
  br i1 %2, label %bb5, label %panic1, !dbg !308

bb6:                                              ; preds = %bb4
  %3 = trunc i64 %bit to i16, !dbg !307
  %4 = and i16 %3, 15, !dbg !307
  %_9 = shl i16 1, %4, !dbg !307
  %_8 = xor i16 %_9, -1, !dbg !309
  %5 = load i16, ptr %self, align 2, !dbg !310, !noundef !21
  %6 = and i16 %5, %_8, !dbg !310
  store i16 %6, ptr %self, align 2, !dbg !310
  br label %bb7, !dbg !311

panic:                                            ; preds = %bb4
; call core::panicking::panic
  call void @_ZN4core9panicking5panic17h6f817e467d9b8599E(ptr align 1 @str.0, i64 35, ptr align 8 @alloc_f4d2308b1a4d364a80c06ffe6643cbed) #11, !dbg !307
  unreachable, !dbg !307

bb7:                                              ; preds = %bb5, %bb6
  ret ptr %self, !dbg !312

bb5:                                              ; preds = %bb3
  %7 = trunc i64 %bit to i16, !dbg !308
  %8 = and i16 %7, 15, !dbg !308
  %_6 = shl i16 1, %8, !dbg !308
  %9 = load i16, ptr %self, align 2, !dbg !313, !noundef !21
  %10 = or i16 %9, %_6, !dbg !313
  store i16 %10, ptr %self, align 2, !dbg !313
  br label %bb7, !dbg !311

panic1:                                           ; preds = %bb3
; call core::panicking::panic
  call void @_ZN4core9panicking5panic17h6f817e467d9b8599E(ptr align 1 @str.0, i64 35, ptr align 8 @alloc_f4d2308b1a4d364a80c06ffe6643cbed) #11, !dbg !308
  unreachable, !dbg !308
}

; <u16 as bit_field::BitField>::set_bits
; Function Attrs: inlinehint noredzone nounwind
define align 2 ptr @"_ZN43_$LT$u16$u20$as$u20$bit_field..BitField$GT$8set_bits17hc1abf06b94402e5bE"(ptr align 2 %self, i64 %0, i64 %1, i16 %value) unnamed_addr #1 !dbg !314 {
start:
  %bitmask.dbg.spill = alloca i16, align 2
  %range.dbg.spill = alloca %"core::ops::range::Range<usize>", align 8
  %value.dbg.spill = alloca i16, align 2
  %self.dbg.spill = alloca ptr, align 8
  %range = alloca %"core::ops::range::Range<usize>", align 8
  store i64 %0, ptr %range, align 8
  %2 = getelementptr inbounds i8, ptr %range, i64 8
  store i64 %1, ptr %2, align 8
  store ptr %self, ptr %self.dbg.spill, align 8
  call void @llvm.dbg.declare(metadata ptr %self.dbg.spill, metadata !326, metadata !DIExpression()), !dbg !335
  call void @llvm.dbg.declare(metadata ptr %range, metadata !327, metadata !DIExpression()), !dbg !336
  store i16 %value, ptr %value.dbg.spill, align 2
  call void @llvm.dbg.declare(metadata ptr %value.dbg.spill, metadata !328, metadata !DIExpression()), !dbg !337
; call bit_field::to_regular_range
  %3 = call { i64, i64 } @_ZN9bit_field16to_regular_range17h00c4c66ade5b44daE(ptr align 8 %range, i64 16) #7, !dbg !338
  %range.0 = extractvalue { i64, i64 } %3, 0, !dbg !338
  %range.1 = extractvalue { i64, i64 } %3, 1, !dbg !338
  store i64 %range.0, ptr %range.dbg.spill, align 8, !dbg !338
  %4 = getelementptr inbounds i8, ptr %range.dbg.spill, i64 8, !dbg !338
  store i64 %range.1, ptr %4, align 8, !dbg !338
  call void @llvm.dbg.declare(metadata ptr %range.dbg.spill, metadata !329, metadata !DIExpression()), !dbg !339
  %_6 = icmp ult i64 %range.0, 16, !dbg !340
  br i1 %_6, label %bb2, label %bb3, !dbg !340

bb3:                                              ; preds = %start
; call core::panicking::panic
  call void @_ZN4core9panicking5panic17h6f817e467d9b8599E(ptr align 1 @alloc_43d3c3e34f8fc6589b4da1b1abdd7b57, i64 48, ptr align 8 @alloc_f4d2308b1a4d364a80c06ffe6643cbed) #11, !dbg !341
  unreachable, !dbg !341

bb2:                                              ; preds = %start
  %_9 = icmp ule i64 %range.1, 16, !dbg !342
  br i1 %_9, label %bb4, label %bb5, !dbg !342

bb5:                                              ; preds = %bb2
; call core::panicking::panic
  call void @_ZN4core9panicking5panic17h6f817e467d9b8599E(ptr align 1 @alloc_d3619c0864e1cd3a4478ebd6749a56b0, i64 47, ptr align 8 @alloc_f4d2308b1a4d364a80c06ffe6643cbed) #11, !dbg !343
  unreachable, !dbg !343

bb4:                                              ; preds = %bb2
  %_12 = icmp ult i64 %range.0, %range.1, !dbg !344
  br i1 %_12, label %bb6, label %bb7, !dbg !344

bb7:                                              ; preds = %bb4
; call core::panicking::panic
  call void @_ZN4core9panicking5panic17h6f817e467d9b8599E(ptr align 1 @alloc_fa3040d11952b12d3c67c30be76bc6a8, i64 41, ptr align 8 @alloc_f4d2308b1a4d364a80c06ffe6643cbed) #11, !dbg !345
  unreachable, !dbg !345

bb6:                                              ; preds = %bb4
  %_23.0 = sub i64 %range.1, %range.0, !dbg !346
  %_23.1 = icmp ult i64 %range.1, %range.0, !dbg !346
  %5 = call i1 @llvm.expect.i1(i1 %_23.1, i1 false), !dbg !346
  br i1 %5, label %panic, label %bb8, !dbg !346

bb8:                                              ; preds = %bb6
  %_24.0 = sub i64 16, %_23.0, !dbg !347
  %_24.1 = icmp ult i64 16, %_23.0, !dbg !347
  %6 = call i1 @llvm.expect.i1(i1 %_24.1, i1 false), !dbg !347
  br i1 %6, label %panic1, label %bb9, !dbg !347

panic:                                            ; preds = %bb6
; call core::panicking::panic
  call void @_ZN4core9panicking5panic17h6f817e467d9b8599E(ptr align 1 @str.1, i64 33, ptr align 8 @alloc_f4d2308b1a4d364a80c06ffe6643cbed) #11, !dbg !346
  unreachable, !dbg !346

bb9:                                              ; preds = %bb8
  %_25 = icmp ult i64 %_24.0, 16, !dbg !348
  %7 = call i1 @llvm.expect.i1(i1 %_25, i1 true), !dbg !348
  br i1 %7, label %bb10, label %panic2, !dbg !348

panic1:                                           ; preds = %bb8
; call core::panicking::panic
  call void @_ZN4core9panicking5panic17h6f817e467d9b8599E(ptr align 1 @str.1, i64 33, ptr align 8 @alloc_f4d2308b1a4d364a80c06ffe6643cbed) #11, !dbg !347
  unreachable, !dbg !347

bb10:                                             ; preds = %bb9
  %8 = trunc i64 %_24.0 to i16, !dbg !348
  %9 = and i16 %8, 15, !dbg !348
  %_18 = shl i16 %value, %9, !dbg !348
  %_30.0 = sub i64 %range.1, %range.0, !dbg !349
  %_30.1 = icmp ult i64 %range.1, %range.0, !dbg !349
  %10 = call i1 @llvm.expect.i1(i1 %_30.1, i1 false), !dbg !349
  br i1 %10, label %panic3, label %bb11, !dbg !349

panic2:                                           ; preds = %bb9
; call core::panicking::panic
  call void @_ZN4core9panicking5panic17h6f817e467d9b8599E(ptr align 1 @str.0, i64 35, ptr align 8 @alloc_f4d2308b1a4d364a80c06ffe6643cbed) #11, !dbg !348
  unreachable, !dbg !348

bb11:                                             ; preds = %bb10
  %_31.0 = sub i64 16, %_30.0, !dbg !350
  %_31.1 = icmp ult i64 16, %_30.0, !dbg !350
  %11 = call i1 @llvm.expect.i1(i1 %_31.1, i1 false), !dbg !350
  br i1 %11, label %panic4, label %bb12, !dbg !350

panic3:                                           ; preds = %bb10
; call core::panicking::panic
  call void @_ZN4core9panicking5panic17h6f817e467d9b8599E(ptr align 1 @str.1, i64 33, ptr align 8 @alloc_f4d2308b1a4d364a80c06ffe6643cbed) #11, !dbg !349
  unreachable, !dbg !349

bb12:                                             ; preds = %bb11
  %_32 = icmp ult i64 %_31.0, 16, !dbg !348
  %12 = call i1 @llvm.expect.i1(i1 %_32, i1 true), !dbg !348
  br i1 %12, label %bb13, label %panic5, !dbg !348

panic4:                                           ; preds = %bb11
; call core::panicking::panic
  call void @_ZN4core9panicking5panic17h6f817e467d9b8599E(ptr align 1 @str.1, i64 33, ptr align 8 @alloc_f4d2308b1a4d364a80c06ffe6643cbed) #11, !dbg !350
  unreachable, !dbg !350

bb13:                                             ; preds = %bb12
  %13 = trunc i64 %_31.0 to i16, !dbg !348
  %14 = and i16 %13, 15, !dbg !348
  %_17 = lshr i16 %_18, %14, !dbg !348
  %_16 = icmp eq i16 %_17, %value, !dbg !348
  br i1 %_16, label %bb14, label %bb15, !dbg !348

panic5:                                           ; preds = %bb12
; call core::panicking::panic
  call void @_ZN4core9panicking5panic17h6f817e467d9b8599E(ptr align 1 @str.2, i64 36, ptr align 8 @alloc_f4d2308b1a4d364a80c06ffe6643cbed) #11, !dbg !348
  unreachable, !dbg !348

bb15:                                             ; preds = %bb13
; call core::panicking::panic
  call void @_ZN4core9panicking5panic17h6f817e467d9b8599E(ptr align 1 @alloc_8500726b2f23ea792acf9a1d33d50d56, i64 33, ptr align 8 @alloc_f4d2308b1a4d364a80c06ffe6643cbed) #11, !dbg !351
  unreachable, !dbg !351

bb14:                                             ; preds = %bb13
  %_42.0 = sub i64 16, %range.1, !dbg !352
  %_42.1 = icmp ult i64 16, %range.1, !dbg !352
  %15 = call i1 @llvm.expect.i1(i1 %_42.1, i1 false), !dbg !352
  br i1 %15, label %panic6, label %bb16, !dbg !352

bb16:                                             ; preds = %bb14
  %_43 = icmp ult i64 %_42.0, 16, !dbg !353
  %16 = call i1 @llvm.expect.i1(i1 %_43, i1 true), !dbg !353
  br i1 %16, label %bb17, label %panic7, !dbg !353

panic6:                                           ; preds = %bb14
; call core::panicking::panic
  call void @_ZN4core9panicking5panic17h6f817e467d9b8599E(ptr align 1 @str.1, i64 33, ptr align 8 @alloc_f4d2308b1a4d364a80c06ffe6643cbed) #11, !dbg !352
  unreachable, !dbg !352

bb17:                                             ; preds = %bb16
  %17 = trunc i64 %_42.0 to i16, !dbg !353
  %18 = and i16 %17, 15, !dbg !353
  %_38 = shl i16 -1, %18, !dbg !353
  %_46.0 = sub i64 16, %range.1, !dbg !354
  %_46.1 = icmp ult i64 16, %range.1, !dbg !354
  %19 = call i1 @llvm.expect.i1(i1 %_46.1, i1 false), !dbg !354
  br i1 %19, label %panic8, label %bb18, !dbg !354

panic7:                                           ; preds = %bb16
; call core::panicking::panic
  call void @_ZN4core9panicking5panic17h6f817e467d9b8599E(ptr align 1 @str.0, i64 35, ptr align 8 @alloc_f4d2308b1a4d364a80c06ffe6643cbed) #11, !dbg !353
  unreachable, !dbg !353

bb18:                                             ; preds = %bb17
  %_47 = icmp ult i64 %_46.0, 16, !dbg !353
  %20 = call i1 @llvm.expect.i1(i1 %_47, i1 true), !dbg !353
  br i1 %20, label %bb19, label %panic9, !dbg !353

panic8:                                           ; preds = %bb17
; call core::panicking::panic
  call void @_ZN4core9panicking5panic17h6f817e467d9b8599E(ptr align 1 @str.1, i64 33, ptr align 8 @alloc_f4d2308b1a4d364a80c06ffe6643cbed) #11, !dbg !354
  unreachable, !dbg !354

bb19:                                             ; preds = %bb18
  %21 = trunc i64 %_46.0 to i16, !dbg !353
  %22 = and i16 %21, 15, !dbg !353
  %_37 = lshr i16 %_38, %22, !dbg !353
  %_49 = icmp ult i64 %range.0, 16, !dbg !353
  %23 = call i1 @llvm.expect.i1(i1 %_49, i1 true), !dbg !353
  br i1 %23, label %bb20, label %panic10, !dbg !353

panic9:                                           ; preds = %bb18
; call core::panicking::panic
  call void @_ZN4core9panicking5panic17h6f817e467d9b8599E(ptr align 1 @str.2, i64 36, ptr align 8 @alloc_f4d2308b1a4d364a80c06ffe6643cbed) #11, !dbg !353
  unreachable, !dbg !353

bb20:                                             ; preds = %bb19
  %24 = trunc i64 %range.0 to i16, !dbg !353
  %25 = and i16 %24, 15, !dbg !353
  %_36 = lshr i16 %_37, %25, !dbg !353
  %_51 = icmp ult i64 %range.0, 16, !dbg !355
  %26 = call i1 @llvm.expect.i1(i1 %_51, i1 true), !dbg !355
  br i1 %26, label %bb21, label %panic11, !dbg !355

panic10:                                          ; preds = %bb19
; call core::panicking::panic
  call void @_ZN4core9panicking5panic17h6f817e467d9b8599E(ptr align 1 @str.2, i64 36, ptr align 8 @alloc_f4d2308b1a4d364a80c06ffe6643cbed) #11, !dbg !353
  unreachable, !dbg !353

bb21:                                             ; preds = %bb20
  %27 = trunc i64 %range.0 to i16, !dbg !355
  %28 = and i16 %27, 15, !dbg !355
  %_35 = shl i16 %_36, %28, !dbg !355
  %bitmask = xor i16 %_35, -1, !dbg !356
  store i16 %bitmask, ptr %bitmask.dbg.spill, align 2, !dbg !356
  call void @llvm.dbg.declare(metadata ptr %bitmask.dbg.spill, metadata !331, metadata !DIExpression()), !dbg !357
  %_53 = load i16, ptr %self, align 2, !dbg !358, !noundef !21
  %_52 = and i16 %_53, %bitmask, !dbg !359
  %_56 = icmp ult i64 %range.0, 16, !dbg !360
  %29 = call i1 @llvm.expect.i1(i1 %_56, i1 true), !dbg !360
  br i1 %29, label %bb22, label %panic12, !dbg !360

panic11:                                          ; preds = %bb20
; call core::panicking::panic
  call void @_ZN4core9panicking5panic17h6f817e467d9b8599E(ptr align 1 @str.0, i64 35, ptr align 8 @alloc_f4d2308b1a4d364a80c06ffe6643cbed) #11, !dbg !355
  unreachable, !dbg !355

bb22:                                             ; preds = %bb21
  %30 = trunc i64 %range.0 to i16, !dbg !360
  %31 = and i16 %30, 15, !dbg !360
  %_54 = shl i16 %value, %31, !dbg !360
  %32 = or i16 %_52, %_54, !dbg !361
  store i16 %32, ptr %self, align 2, !dbg !361
  ret ptr %self, !dbg !362

panic12:                                          ; preds = %bb21
; call core::panicking::panic
  call void @_ZN4core9panicking5panic17h6f817e467d9b8599E(ptr align 1 @str.0, i64 35, ptr align 8 @alloc_f4d2308b1a4d364a80c06ffe6643cbed) #11, !dbg !360
  unreachable, !dbg !360
}

; core::fmt::Arguments::new_v1_formatted
; Function Attrs: inlinehint noredzone nounwind
define internal void @_ZN4core3fmt9Arguments16new_v1_formatted17h8a42bdfa72dcdc5dE(ptr sret(%"core::fmt::Arguments<'_>") align 8 %_0, ptr align 8 %pieces.0, i64 %pieces.1, ptr align 8 %args.0, i64 %args.1, ptr align 8 %fmt.0, i64 %fmt.1) unnamed_addr #1 !dbg !363 {
start:
  %_4.dbg.spill = alloca %"core::fmt::rt::UnsafeArg", align 1
  %fmt.dbg.spill = alloca { ptr, i64 }, align 8
  %args.dbg.spill = alloca { ptr, i64 }, align 8
  %pieces.dbg.spill = alloca { ptr, i64 }, align 8
  %_5 = alloca %"core::option::Option<&[core::fmt::rt::Placeholder]>", align 8
  %_unsafe_arg.dbg.spill = alloca %"core::fmt::rt::UnsafeArg", align 1
  call void @llvm.dbg.declare(metadata ptr %_unsafe_arg.dbg.spill, metadata !445, metadata !DIExpression()), !dbg !447
  store ptr %pieces.0, ptr %pieces.dbg.spill, align 8, !dbg !447
  %0 = getelementptr inbounds i8, ptr %pieces.dbg.spill, i64 8, !dbg !447
  store i64 %pieces.1, ptr %0, align 8, !dbg !447
  call void @llvm.dbg.declare(metadata ptr %pieces.dbg.spill, metadata !442, metadata !DIExpression()), !dbg !448
  store ptr %args.0, ptr %args.dbg.spill, align 8, !dbg !447
  %1 = getelementptr inbounds i8, ptr %args.dbg.spill, i64 8, !dbg !447
  store i64 %args.1, ptr %1, align 8, !dbg !447
  call void @llvm.dbg.declare(metadata ptr %args.dbg.spill, metadata !443, metadata !DIExpression()), !dbg !449
  store ptr %fmt.0, ptr %fmt.dbg.spill, align 8, !dbg !447
  %2 = getelementptr inbounds i8, ptr %fmt.dbg.spill, i64 8, !dbg !447
  store i64 %fmt.1, ptr %2, align 8, !dbg !447
  call void @llvm.dbg.declare(metadata ptr %fmt.dbg.spill, metadata !444, metadata !DIExpression()), !dbg !450
  call void @llvm.dbg.declare(metadata ptr %_4.dbg.spill, metadata !446, metadata !DIExpression()), !dbg !447
  store ptr %fmt.0, ptr %_5, align 8, !dbg !451
  %3 = getelementptr inbounds i8, ptr %_5, i64 8, !dbg !451
  store i64 %fmt.1, ptr %3, align 8, !dbg !451
  store ptr %pieces.0, ptr %_0, align 8, !dbg !452
  %4 = getelementptr inbounds i8, ptr %_0, i64 8, !dbg !452
  store i64 %pieces.1, ptr %4, align 8, !dbg !452
  %5 = load ptr, ptr %_5, align 8, !dbg !452, !align !286, !noundef !21
  %6 = getelementptr inbounds i8, ptr %_5, i64 8, !dbg !452
  %7 = load i64, ptr %6, align 8, !dbg !452
  %8 = getelementptr inbounds %"core::fmt::Arguments<'_>", ptr %_0, i32 0, i32 2, !dbg !452
  store ptr %5, ptr %8, align 8, !dbg !452
  %9 = getelementptr inbounds i8, ptr %8, i64 8, !dbg !452
  store i64 %7, ptr %9, align 8, !dbg !452
  %10 = getelementptr inbounds %"core::fmt::Arguments<'_>", ptr %_0, i32 0, i32 1, !dbg !452
  store ptr %args.0, ptr %10, align 8, !dbg !452
  %11 = getelementptr inbounds i8, ptr %10, i64 8, !dbg !452
  store i64 %args.1, ptr %11, align 8, !dbg !452
  ret void, !dbg !453
}

; core::fmt::Arguments::new_const
; Function Attrs: inlinehint noredzone nounwind
define internal void @_ZN4core3fmt9Arguments9new_const17h7b81b5943543e2b6E(ptr sret(%"core::fmt::Arguments<'_>") align 8 %_0, ptr align 8 %pieces.0, i64 %pieces.1) unnamed_addr #1 !dbg !454 {
start:
  %pieces.dbg.spill = alloca { ptr, i64 }, align 8
  %_7 = alloca %"core::option::Option<&[core::fmt::rt::Placeholder]>", align 8
  %_5 = alloca %"core::fmt::Arguments<'_>", align 8
  store ptr %pieces.0, ptr %pieces.dbg.spill, align 8
  %0 = getelementptr inbounds i8, ptr %pieces.dbg.spill, i64 8
  store i64 %pieces.1, ptr %0, align 8
  call void @llvm.dbg.declare(metadata ptr %pieces.dbg.spill, metadata !459, metadata !DIExpression()), !dbg !460
  %_2 = icmp ugt i64 %pieces.1, 1, !dbg !461
  br i1 %_2, label %bb1, label %bb3, !dbg !461

bb3:                                              ; preds = %start
  store ptr null, ptr %_7, align 8, !dbg !462
  store ptr %pieces.0, ptr %_0, align 8, !dbg !463
  %1 = getelementptr inbounds i8, ptr %_0, i64 8, !dbg !463
  store i64 %pieces.1, ptr %1, align 8, !dbg !463
  %2 = load ptr, ptr %_7, align 8, !dbg !463, !align !286, !noundef !21
  %3 = getelementptr inbounds i8, ptr %_7, i64 8, !dbg !463
  %4 = load i64, ptr %3, align 8, !dbg !463
  %5 = getelementptr inbounds %"core::fmt::Arguments<'_>", ptr %_0, i32 0, i32 2, !dbg !463
  store ptr %2, ptr %5, align 8, !dbg !463
  %6 = getelementptr inbounds i8, ptr %5, i64 8, !dbg !463
  store i64 %4, ptr %6, align 8, !dbg !463
  %7 = getelementptr inbounds %"core::fmt::Arguments<'_>", ptr %_0, i32 0, i32 1, !dbg !463
  store ptr @alloc_513570631223a12912d85da2bec3b15a, ptr %7, align 8, !dbg !463
  %8 = getelementptr inbounds i8, ptr %7, i64 8, !dbg !463
  store i64 0, ptr %8, align 8, !dbg !463
  ret void, !dbg !464

bb1:                                              ; preds = %start
; call core::fmt::Arguments::new_const
  call void @_ZN4core3fmt9Arguments9new_const17h7b81b5943543e2b6E(ptr sret(%"core::fmt::Arguments<'_>") align 8 %_5, ptr align 8 @alloc_af99043bc04c419363a7f04d23183506, i64 1) #7, !dbg !465
; call core::panicking::panic_fmt
  call void @_ZN4core9panicking9panic_fmt17ha5e30ccfbdd0aed8E(ptr align 8 %_5, ptr align 8 @alloc_40dc4a2e4fa36320ad05a7f7aeedf921) #11, !dbg !465
  unreachable, !dbg !465
}

; core::ops::function::FnOnce::call_once
; Function Attrs: inlinehint noredzone nounwind
define internal void @_ZN4core3ops8function6FnOnce9call_once17hd8a267932d887b67E(ptr sret(%"global_descriptor_table::GlobalDescriptorTableSetup") align 8 %_0) unnamed_addr #1 !dbg !466 {
start:
  %code_selector.dbg.spill.i = alloca i16, align 2
  %tss_selector.dbg.spill.i = alloca i16, align 2
  %stack_end.dbg.spill.i = alloca i64, align 8
  %stack_start.dbg.spill.i = alloca i64, align 8
  %_20.i = alloca %"global_descriptor_table::Selectors", align 2
  %_19.i = alloca %"x86_64::structures::gdt::GlobalDescriptorTable", align 8
  %_18.i = alloca %"x86_64::structures::gdt::Descriptor", align 8
  %_13.i = alloca %"x86_64::structures::gdt::Descriptor", align 8
  %global_descriptor_table.i = alloca %"x86_64::structures::gdt::GlobalDescriptorTable", align 8
  %_1.dbg.spill = alloca {}, align 1
  %_2 = alloca {}, align 1
  call void @llvm.dbg.declare(metadata ptr %_1.dbg.spill, metadata !476, metadata !DIExpression()), !dbg !481
  call void @llvm.dbg.declare(metadata ptr %_2, metadata !477, metadata !DIExpression()), !dbg !481
  call void @llvm.dbg.declare(metadata ptr %global_descriptor_table.i, metadata !482, metadata !DIExpression()), !dbg !494
; call x86_64::structures::gdt::GlobalDescriptorTable::new
  call void @_ZN6x86_6410structures3gdt21GlobalDescriptorTable3new17hd8c49ff4cb459adfE(ptr sret(%"x86_64::structures::gdt::GlobalDescriptorTable") align 8 %global_descriptor_table.i) #7, !dbg !496
; call x86_64::addr::VirtAddr::from_ptr
  %stack_start.i = call i64 @_ZN6x86_644addr8VirtAddr8from_ptr17h5aa3ddfb06042738E(ptr @"_ZN108_$LT$cpu_interrupts..global_descriptor_table..GLOBAL_DESCRIPTOR_TABLE$u20$as$u20$core..ops..deref..Deref$GT$5deref23__static_ref_initialize5STACK17h76fb64d6e3f7975aE") #7, !dbg !498
  store i64 %stack_start.i, ptr %stack_start.dbg.spill.i, align 8, !dbg !498
  call void @llvm.dbg.declare(metadata ptr %stack_start.dbg.spill.i, metadata !486, metadata !DIExpression()), !dbg !499
; call <x86_64::addr::VirtAddr as core::ops::arith::Add<usize>>::add
  %stack_end.i = call i64 @"_ZN77_$LT$x86_64..addr..VirtAddr$u20$as$u20$core..ops..arith..Add$LT$usize$GT$$GT$3add17he6e46cf48975daeaE"(i64 %stack_start.i, i64 20480) #7, !dbg !500
  store i64 %stack_end.i, ptr %stack_end.dbg.spill.i, align 8, !dbg !500
  call void @llvm.dbg.declare(metadata ptr %stack_end.dbg.spill.i, metadata !488, metadata !DIExpression()), !dbg !501
  store i64 %stack_end.i, ptr getelementptr inbounds (%"x86_64::structures::tss::TaskStateSegment", ptr @"_ZN108_$LT$cpu_interrupts..global_descriptor_table..GLOBAL_DESCRIPTOR_TABLE$u20$as$u20$core..ops..deref..Deref$GT$5deref23__static_ref_initialize18TASK_STATE_SEGMENT17h81544bb680ad2020E", i32 0, i32 3), align 4, !dbg !502
; call x86_64::structures::gdt::Descriptor::tss_segment
  call void @_ZN6x86_6410structures3gdt10Descriptor11tss_segment17ha9cbcf7c59d30595E(ptr sret(%"x86_64::structures::gdt::Descriptor") align 8 %_13.i, ptr align 4 @"_ZN108_$LT$cpu_interrupts..global_descriptor_table..GLOBAL_DESCRIPTOR_TABLE$u20$as$u20$core..ops..deref..Deref$GT$5deref23__static_ref_initialize18TASK_STATE_SEGMENT17h81544bb680ad2020E") #7, !dbg !503
; call x86_64::structures::gdt::GlobalDescriptorTable::add_entry
  %tss_selector.i = call i16 @_ZN6x86_6410structures3gdt21GlobalDescriptorTable9add_entry17h035851bd5061d477E(ptr align 8 %global_descriptor_table.i, ptr align 8 %_13.i) #7, !dbg !504
  store i16 %tss_selector.i, ptr %tss_selector.dbg.spill.i, align 2, !dbg !504
  call void @llvm.dbg.declare(metadata ptr %tss_selector.dbg.spill.i, metadata !490, metadata !DIExpression()), !dbg !505
; call x86_64::structures::gdt::Descriptor::kernel_code_segment
  call void @_ZN6x86_6410structures3gdt10Descriptor19kernel_code_segment17h6802161c0f4b25feE(ptr sret(%"x86_64::structures::gdt::Descriptor") align 8 %_18.i) #7, !dbg !506
; call x86_64::structures::gdt::GlobalDescriptorTable::add_entry
  %code_selector.i = call i16 @_ZN6x86_6410structures3gdt21GlobalDescriptorTable9add_entry17h035851bd5061d477E(ptr align 8 %global_descriptor_table.i, ptr align 8 %_18.i) #7, !dbg !507
  store i16 %code_selector.i, ptr %code_selector.dbg.spill.i, align 2, !dbg !507
  call void @llvm.dbg.declare(metadata ptr %code_selector.dbg.spill.i, metadata !492, metadata !DIExpression()), !dbg !508
  call void @llvm.memcpy.p0.p0.i64(ptr align 8 %_19.i, ptr align 8 %global_descriptor_table.i, i64 72, i1 false), !dbg !509
  store i16 %code_selector.i, ptr %_20.i, align 2, !dbg !510
  %0 = getelementptr inbounds i8, ptr %_20.i, i64 2, !dbg !510
  store i16 %tss_selector.i, ptr %0, align 2, !dbg !510
  call void @llvm.memcpy.p0.p0.i64(ptr align 8 %_0, ptr align 8 %_19.i, i64 72, i1 false), !dbg !511
  %1 = load i16, ptr %_20.i, align 2, !dbg !511, !noundef !21
  %2 = getelementptr inbounds i8, ptr %_20.i, i64 2, !dbg !511
  %3 = load i16, ptr %2, align 2, !dbg !511, !noundef !21
  %4 = getelementptr inbounds %"global_descriptor_table::GlobalDescriptorTableSetup", ptr %_0, i32 0, i32 1, !dbg !511
  store i16 %1, ptr %4, align 8, !dbg !511
  %5 = getelementptr inbounds i8, ptr %4, i64 2, !dbg !511
  store i16 %3, ptr %5, align 2, !dbg !511
  ret void, !dbg !481
}

; core::ptr::drop_in_place<spin::once::Finish>
; Function Attrs: noredzone nounwind
define void @"_ZN4core3ptr39drop_in_place$LT$spin..once..Finish$GT$17h555ec6f99d097d21E"(ptr align 8 %_1) unnamed_addr #0 !dbg !512 {
start:
  %_1.dbg.spill = alloca ptr, align 8
  store ptr %_1, ptr %_1.dbg.spill, align 8
  call void @llvm.dbg.declare(metadata ptr %_1.dbg.spill, metadata !524, metadata !DIExpression()), !dbg !527
; call <spin::once::Finish as core::ops::drop::Drop>::drop
  call void @"_ZN60_$LT$spin..once..Finish$u20$as$u20$core..ops..drop..Drop$GT$4drop17h66387cf7ff18ec41E"(ptr align 8 %_1) #7, !dbg !527
  ret void, !dbg !527
}

; core::ptr::drop_in_place<&x86_64::structures::idt::_::InternalBitFlags>
; Function Attrs: inlinehint noredzone nounwind
define internal void @"_ZN4core3ptr69drop_in_place$LT$$RF$x86_64..structures..idt.._..InternalBitFlags$GT$17h8d312a19cefd9d6eE"(ptr align 8 %_1) unnamed_addr #1 !dbg !528 {
start:
  %_1.dbg.spill = alloca ptr, align 8
  store ptr %_1, ptr %_1.dbg.spill, align 8
  call void @llvm.dbg.declare(metadata ptr %_1.dbg.spill, metadata !533, metadata !DIExpression()), !dbg !536
  ret void, !dbg !536
}

; core::ptr::drop_in_place<spin::mutex::MutexGuard<pic8259::ChainedPics>>
; Function Attrs: noredzone nounwind
define void @"_ZN4core3ptr72drop_in_place$LT$spin..mutex..MutexGuard$LT$pic8259..ChainedPics$GT$$GT$17h919914e76d568542E"(ptr align 8 %_1) unnamed_addr #0 !dbg !537 {
start:
  %_1.dbg.spill = alloca ptr, align 8
  store ptr %_1, ptr %_1.dbg.spill, align 8
  call void @llvm.dbg.declare(metadata ptr %_1.dbg.spill, metadata !551, metadata !DIExpression()), !dbg !554
; call core::ptr::drop_in_place<spin::mutex::spin::SpinMutexGuard<pic8259::ChainedPics>>
  call void @"_ZN4core3ptr82drop_in_place$LT$spin..mutex..spin..SpinMutexGuard$LT$pic8259..ChainedPics$GT$$GT$17hf243276b58278c80E"(ptr align 8 %_1) #7, !dbg !554
  ret void, !dbg !554
}

; core::ptr::drop_in_place<spin::mutex::spin::SpinMutexGuard<pic8259::ChainedPics>>
; Function Attrs: noredzone nounwind
define void @"_ZN4core3ptr82drop_in_place$LT$spin..mutex..spin..SpinMutexGuard$LT$pic8259..ChainedPics$GT$$GT$17hf243276b58278c80E"(ptr align 8 %_1) unnamed_addr #0 !dbg !555 {
start:
  %_1.dbg.spill = alloca ptr, align 8
  store ptr %_1, ptr %_1.dbg.spill, align 8
  call void @llvm.dbg.declare(metadata ptr %_1.dbg.spill, metadata !560, metadata !DIExpression()), !dbg !563
; call <spin::mutex::spin::SpinMutexGuard<T> as core::ops::drop::Drop>::drop
  call void @"_ZN84_$LT$spin..mutex..spin..SpinMutexGuard$LT$T$GT$$u20$as$u20$core..ops..drop..Drop$GT$4drop17h039b122c07eadc07E"(ptr align 8 %_1) #7, !dbg !563
  ret void, !dbg !563
}

; core::hint::unreachable_unchecked
; Function Attrs: inlinehint noredzone noreturn nounwind
define internal void @_ZN4core4hint21unreachable_unchecked17h83abffa6aff08e2cE() unnamed_addr #2 !dbg !564 {
start:
  br i1 true, label %bb1, label %bb2, !dbg !569

bb2:                                              ; preds = %_ZN4core4hint21unreachable_unchecked7runtime17ha4858de340ff3557E.exit, %start
  unreachable, !dbg !570

bb1:                                              ; preds = %start
; call core::panicking::panic_nounwind
  call void @_ZN4core9panicking14panic_nounwind17hfeb2aacdf3037a06E(ptr align 1 @alloc_1eb6f53a157dccb32488e066ad957e6d, i64 82) #11, !dbg !571
  unreachable, !dbg !571

_ZN4core4hint21unreachable_unchecked7runtime17ha4858de340ff3557E.exit: ; No predecessors!
  br label %bb2, !dbg !569
}

; core::sync::atomic::AtomicBool::compare_exchange
; Function Attrs: inlinehint noredzone nounwind
define internal { i1, i8 } @_ZN4core4sync6atomic10AtomicBool16compare_exchange17h1b2eb7417185af6aE(ptr align 1 %self, i1 zeroext %current, i1 zeroext %new, i8 %success, i8 %failure) unnamed_addr #1 !dbg !576 {
start:
  %self.dbg.spill.i = alloca ptr, align 8
  %x.dbg.spill2 = alloca i8, align 1
  %x.dbg.spill = alloca i8, align 1
  %failure.dbg.spill = alloca i8, align 1
  %success.dbg.spill = alloca i8, align 1
  %new.dbg.spill = alloca i8, align 1
  %current.dbg.spill = alloca i8, align 1
  %self.dbg.spill = alloca ptr, align 8
  %_31 = alloca %"core::result::Result<u8, u8>", align 1
  %old = alloca i8, align 1
  %_21 = alloca %"core::fmt::Arguments<'_>", align 8
  %_18 = alloca %"core::fmt::Arguments<'_>", align 8
  %_8 = alloca { i8, i8 }, align 1
  %order = alloca i8, align 1
  %_0 = alloca %"core::result::Result<bool, bool>", align 1
  store ptr %self, ptr %self.dbg.spill, align 8
  call void @llvm.dbg.declare(metadata ptr %self.dbg.spill, metadata !598, metadata !DIExpression()), !dbg !611
  %0 = zext i1 %current to i8
  store i8 %0, ptr %current.dbg.spill, align 1
  call void @llvm.dbg.declare(metadata ptr %current.dbg.spill, metadata !599, metadata !DIExpression()), !dbg !612
  %1 = zext i1 %new to i8
  store i8 %1, ptr %new.dbg.spill, align 1
  call void @llvm.dbg.declare(metadata ptr %new.dbg.spill, metadata !600, metadata !DIExpression()), !dbg !613
  store i8 %success, ptr %success.dbg.spill, align 1
  call void @llvm.dbg.declare(metadata ptr %success.dbg.spill, metadata !601, metadata !DIExpression()), !dbg !614
  store i8 %failure, ptr %failure.dbg.spill, align 1
  call void @llvm.dbg.declare(metadata ptr %failure.dbg.spill, metadata !602, metadata !DIExpression()), !dbg !615
  call void @llvm.dbg.declare(metadata ptr %order, metadata !603, metadata !DIExpression()), !dbg !616
  call void @llvm.dbg.declare(metadata ptr %old, metadata !605, metadata !DIExpression()), !dbg !617
  br i1 false, label %bb1, label %bb28, !dbg !618

bb28:                                             ; preds = %start
  store ptr %self, ptr %self.dbg.spill.i, align 8
  call void @llvm.dbg.declare(metadata ptr %self.dbg.spill.i, metadata !619, metadata !DIExpression()), !dbg !628
  %_34 = zext i1 %current to i8, !dbg !630
  %_35 = zext i1 %new to i8, !dbg !631
; call core::sync::atomic::atomic_compare_exchange
  %2 = call { i1, i8 } @_ZN4core4sync6atomic23atomic_compare_exchange17h1b848a47486232f3E(ptr %self, i8 %_34, i8 %_35, i8 %success, i8 %failure) #7, !dbg !632
  %3 = extractvalue { i1, i8 } %2, 0, !dbg !632
  %4 = extractvalue { i1, i8 } %2, 1, !dbg !632
  %5 = zext i1 %3 to i8, !dbg !632
  store i8 %5, ptr %_31, align 1, !dbg !632
  %6 = getelementptr inbounds i8, ptr %_31, i64 1, !dbg !632
  store i8 %4, ptr %6, align 1, !dbg !632
  %7 = load i8, ptr %_31, align 1, !dbg !633, !range !634, !noundef !21
  %8 = trunc i8 %7 to i1, !dbg !633
  %_36 = zext i1 %8 to i64, !dbg !633
  %9 = icmp eq i64 %_36, 0, !dbg !635
  br i1 %9, label %bb32, label %bb31, !dbg !635

bb1:                                              ; preds = %start
  store i8 %success, ptr %_8, align 1, !dbg !636
  %10 = getelementptr inbounds i8, ptr %_8, i64 1, !dbg !636
  store i8 %failure, ptr %10, align 1, !dbg !636
  %11 = load i8, ptr %_8, align 1, !dbg !636, !range !637, !noundef !21
  %_16 = zext i8 %11 to i64, !dbg !636
  %12 = icmp eq i64 %_16, 4, !dbg !638
  br i1 %12, label %bb11, label %bb2, !dbg !638

bb32:                                             ; preds = %bb28
  %13 = getelementptr inbounds i8, ptr %_31, i64 1, !dbg !639
  %x = load i8, ptr %13, align 1, !dbg !639, !noundef !21
  store i8 %x, ptr %x.dbg.spill, align 1, !dbg !639
  call void @llvm.dbg.declare(metadata ptr %x.dbg.spill, metadata !607, metadata !DIExpression()), !dbg !640
  %_38 = icmp ne i8 %x, 0, !dbg !641
  %14 = getelementptr inbounds i8, ptr %_0, i64 1, !dbg !642
  %15 = zext i1 %_38 to i8, !dbg !642
  store i8 %15, ptr %14, align 1, !dbg !642
  store i8 0, ptr %_0, align 1, !dbg !642
  br label %bb33, !dbg !643

bb31:                                             ; preds = %bb28
  %16 = getelementptr inbounds i8, ptr %_31, i64 1, !dbg !644
  %x1 = load i8, ptr %16, align 1, !dbg !644, !noundef !21
  store i8 %x1, ptr %x.dbg.spill2, align 1, !dbg !644
  call void @llvm.dbg.declare(metadata ptr %x.dbg.spill2, metadata !609, metadata !DIExpression()), !dbg !645
  %_40 = icmp ne i8 %x1, 0, !dbg !646
  %17 = getelementptr inbounds i8, ptr %_0, i64 1, !dbg !647
  %18 = zext i1 %_40 to i8, !dbg !647
  store i8 %18, ptr %17, align 1, !dbg !647
  store i8 1, ptr %_0, align 1, !dbg !647
  br label %bb33, !dbg !648

bb33:                                             ; preds = %bb26, %bb27, %bb31, %bb32
  %19 = load i8, ptr %_0, align 1, !dbg !649, !range !634, !noundef !21
  %20 = trunc i8 %19 to i1, !dbg !649
  %21 = getelementptr inbounds i8, ptr %_0, i64 1, !dbg !649
  %22 = load i8, ptr %21, align 1, !dbg !649, !noundef !21
  %23 = insertvalue { i1, i8 } poison, i1 %20, 0, !dbg !649
  %24 = insertvalue { i1, i8 } %23, i8 %22, 1, !dbg !649
  ret { i1, i8 } %24, !dbg !649

bb11:                                             ; preds = %bb1
  store i8 4, ptr %order, align 1, !dbg !650
  br label %bb22, !dbg !650

bb2:                                              ; preds = %bb1
  %25 = getelementptr inbounds i8, ptr %_8, i64 1, !dbg !636
  %26 = load i8, ptr %25, align 1, !dbg !636, !range !637, !noundef !21
  %_15 = zext i8 %26 to i64, !dbg !636
  %27 = icmp eq i64 %_15, 4, !dbg !638
  br i1 %27, label %bb12, label %bb3, !dbg !638

bb22:                                             ; preds = %bb18, %bb19, %bb9, %bb17, %bb16, %bb13, %bb12, %bb11
  %_24 = icmp eq i1 %current, %new, !dbg !651
  br i1 %_24, label %bb23, label %bb24, !dbg !651

bb12:                                             ; preds = %bb2
  store i8 4, ptr %order, align 1, !dbg !652
  br label %bb22, !dbg !652

bb3:                                              ; preds = %bb2
  %28 = load i8, ptr %_8, align 1, !dbg !636, !range !637, !noundef !21
  %_14 = zext i8 %28 to i64, !dbg !636
  %29 = icmp eq i64 %_14, 3, !dbg !638
  br i1 %29, label %bb13, label %bb4, !dbg !638

bb13:                                             ; preds = %bb3
  store i8 3, ptr %order, align 1, !dbg !653
  br label %bb22, !dbg !653

bb4:                                              ; preds = %bb3
  %30 = getelementptr inbounds i8, ptr %_8, i64 1, !dbg !636
  %31 = load i8, ptr %30, align 1, !dbg !636, !range !637, !noundef !21
  %_13 = zext i8 %31 to i64, !dbg !636
  switch i64 %_13, label %bb5 [
    i64 2, label %bb6
    i64 3, label %bb14
  ], !dbg !638

bb5:                                              ; preds = %bb6, %bb4
  %32 = load i8, ptr %_8, align 1, !dbg !636, !range !637, !noundef !21
  %_12 = zext i8 %32 to i64, !dbg !636
  %33 = icmp eq i64 %_12, 2, !dbg !638
  br i1 %33, label %bb17, label %bb7, !dbg !638

bb6:                                              ; preds = %bb4
  %34 = load i8, ptr %_8, align 1, !dbg !636, !range !637, !noundef !21
  %_9 = zext i8 %34 to i64, !dbg !636
  %35 = icmp eq i64 %_9, 1, !dbg !638
  br i1 %35, label %bb16, label %bb5, !dbg !638

bb14:                                             ; preds = %bb4
; call core::fmt::Arguments::new_const
  call void @_ZN4core3fmt9Arguments9new_const17h7b81b5943543e2b6E(ptr sret(%"core::fmt::Arguments<'_>") align 8 %_18, ptr align 8 @alloc_dd7d8f77c173bf31726eae321f955bec, i64 1) #7, !dbg !654
; call core::panicking::panic_fmt
  call void @_ZN4core9panicking9panic_fmt17ha5e30ccfbdd0aed8E(ptr align 8 %_18, ptr align 8 @alloc_122716f189323124cb0c05846480a00c) #11, !dbg !654
  unreachable, !dbg !654

bb16:                                             ; preds = %bb6
  store i8 3, ptr %order, align 1, !dbg !655
  br label %bb22, !dbg !655

bb17:                                             ; preds = %bb5
  store i8 2, ptr %order, align 1, !dbg !656
  br label %bb22, !dbg !656

bb7:                                              ; preds = %bb5
  %36 = getelementptr inbounds i8, ptr %_8, i64 1, !dbg !636
  %37 = load i8, ptr %36, align 1, !dbg !636, !range !637, !noundef !21
  %_11 = zext i8 %37 to i64, !dbg !636
  switch i64 %_11, label %bb10 [
    i64 0, label %bb8
    i64 1, label %bb20
    i64 2, label %bb18
  ], !dbg !638

bb10:                                             ; preds = %bb7
  unreachable, !dbg !636

bb8:                                              ; preds = %bb7
  %38 = load i8, ptr %_8, align 1, !dbg !636, !range !637, !noundef !21
  %_10 = zext i8 %38 to i64, !dbg !636
  %39 = icmp eq i64 %_10, 0, !dbg !638
  br i1 %39, label %bb9, label %bb19, !dbg !638

bb20:                                             ; preds = %bb7
; call core::fmt::Arguments::new_const
  call void @_ZN4core3fmt9Arguments9new_const17h7b81b5943543e2b6E(ptr sret(%"core::fmt::Arguments<'_>") align 8 %_21, ptr align 8 @alloc_04ab601c54c6e0a22ff11d72dc7f4511, i64 1) #7, !dbg !657
; call core::panicking::panic_fmt
  call void @_ZN4core9panicking9panic_fmt17ha5e30ccfbdd0aed8E(ptr align 8 %_21, ptr align 8 @alloc_1b2d53547632b0cd8d68abf128d934e0) #11, !dbg !657
  unreachable, !dbg !657

bb18:                                             ; preds = %bb7
  store i8 2, ptr %order, align 1, !dbg !658
  br label %bb22, !dbg !658

bb9:                                              ; preds = %bb8
  store i8 0, ptr %order, align 1, !dbg !659
  br label %bb22, !dbg !659

bb19:                                             ; preds = %bb8
  store i8 1, ptr %order, align 1, !dbg !660
  br label %bb22, !dbg !660

bb24:                                             ; preds = %bb22
  %_26 = load i8, ptr %order, align 1, !dbg !661, !range !637, !noundef !21
; call core::sync::atomic::AtomicBool::swap
  %40 = call zeroext i1 @_ZN4core4sync6atomic10AtomicBool4swap17ha1562e5e528239e0E(ptr align 1 %self, i1 zeroext %new, i8 %_26) #7, !dbg !662
  %41 = zext i1 %40 to i8, !dbg !662
  store i8 %41, ptr %old, align 1, !dbg !662
  br label %bb25, !dbg !662

bb23:                                             ; preds = %bb22
  %_25 = load i8, ptr %order, align 1, !dbg !663, !range !637, !noundef !21
; call core::sync::atomic::AtomicBool::fetch_or
  %42 = call zeroext i1 @_ZN4core4sync6atomic10AtomicBool8fetch_or17he448d2362ad319aaE(ptr align 1 %self, i1 zeroext false, i8 %_25) #7, !dbg !664
  %43 = zext i1 %42 to i8, !dbg !664
  store i8 %43, ptr %old, align 1, !dbg !664
  br label %bb25, !dbg !664

bb25:                                             ; preds = %bb23, %bb24
  %44 = load i8, ptr %old, align 1, !dbg !665, !range !634, !noundef !21
  %_28 = trunc i8 %44 to i1, !dbg !665
  %_27 = icmp eq i1 %_28, %current, !dbg !665
  br i1 %_27, label %bb26, label %bb27, !dbg !665

bb27:                                             ; preds = %bb25
  %45 = load i8, ptr %old, align 1, !dbg !666, !range !634, !noundef !21
  %_30 = trunc i8 %45 to i1, !dbg !666
  %46 = getelementptr inbounds i8, ptr %_0, i64 1, !dbg !667
  %47 = zext i1 %_30 to i8, !dbg !667
  store i8 %47, ptr %46, align 1, !dbg !667
  store i8 1, ptr %_0, align 1, !dbg !667
  br label %bb33, !dbg !668

bb26:                                             ; preds = %bb25
  %48 = load i8, ptr %old, align 1, !dbg !669, !range !634, !noundef !21
  %_29 = trunc i8 %48 to i1, !dbg !669
  %49 = getelementptr inbounds i8, ptr %_0, i64 1, !dbg !670
  %50 = zext i1 %_29 to i8, !dbg !670
  store i8 %50, ptr %49, align 1, !dbg !670
  store i8 0, ptr %_0, align 1, !dbg !670
  br label %bb33, !dbg !668
}

; core::sync::atomic::AtomicBool::compare_exchange_weak
; Function Attrs: inlinehint noredzone nounwind
define internal { i1, i8 } @_ZN4core4sync6atomic10AtomicBool21compare_exchange_weak17h22b499c8a7a06b08E(ptr align 1 %self, i1 zeroext %current, i1 zeroext %new, i8 %success, i8 %failure) unnamed_addr #1 !dbg !671 {
start:
  %self.dbg.spill.i = alloca ptr, align 8
  %x.dbg.spill2 = alloca i8, align 1
  %x.dbg.spill = alloca i8, align 1
  %failure.dbg.spill = alloca i8, align 1
  %success.dbg.spill = alloca i8, align 1
  %new.dbg.spill = alloca i8, align 1
  %current.dbg.spill = alloca i8, align 1
  %self.dbg.spill = alloca ptr, align 8
  %_7 = alloca %"core::result::Result<u8, u8>", align 1
  %_0 = alloca %"core::result::Result<bool, bool>", align 1
  store ptr %self, ptr %self.dbg.spill, align 8
  call void @llvm.dbg.declare(metadata ptr %self.dbg.spill, metadata !674, metadata !DIExpression()), !dbg !683
  %0 = zext i1 %current to i8
  store i8 %0, ptr %current.dbg.spill, align 1
  call void @llvm.dbg.declare(metadata ptr %current.dbg.spill, metadata !675, metadata !DIExpression()), !dbg !684
  %1 = zext i1 %new to i8
  store i8 %1, ptr %new.dbg.spill, align 1
  call void @llvm.dbg.declare(metadata ptr %new.dbg.spill, metadata !676, metadata !DIExpression()), !dbg !685
  store i8 %success, ptr %success.dbg.spill, align 1
  call void @llvm.dbg.declare(metadata ptr %success.dbg.spill, metadata !677, metadata !DIExpression()), !dbg !686
  store i8 %failure, ptr %failure.dbg.spill, align 1
  call void @llvm.dbg.declare(metadata ptr %failure.dbg.spill, metadata !678, metadata !DIExpression()), !dbg !687
  br i1 false, label %bb1, label %bb2, !dbg !688

bb2:                                              ; preds = %start
  store ptr %self, ptr %self.dbg.spill.i, align 8
  call void @llvm.dbg.declare(metadata ptr %self.dbg.spill.i, metadata !619, metadata !DIExpression()), !dbg !689
  %_10 = zext i1 %current to i8, !dbg !691
  %_11 = zext i1 %new to i8, !dbg !692
; call core::sync::atomic::atomic_compare_exchange_weak
  %2 = call { i1, i8 } @_ZN4core4sync6atomic28atomic_compare_exchange_weak17hbb41bba15314bed2E(ptr %self, i8 %_10, i8 %_11, i8 %success, i8 %failure) #7, !dbg !693
  %3 = extractvalue { i1, i8 } %2, 0, !dbg !693
  %4 = extractvalue { i1, i8 } %2, 1, !dbg !693
  %5 = zext i1 %3 to i8, !dbg !693
  store i8 %5, ptr %_7, align 1, !dbg !693
  %6 = getelementptr inbounds i8, ptr %_7, i64 1, !dbg !693
  store i8 %4, ptr %6, align 1, !dbg !693
  %7 = load i8, ptr %_7, align 1, !dbg !694, !range !634, !noundef !21
  %8 = trunc i8 %7 to i1, !dbg !694
  %_12 = zext i1 %8 to i64, !dbg !694
  %9 = icmp eq i64 %_12, 0, !dbg !695
  br i1 %9, label %bb6, label %bb5, !dbg !695

bb1:                                              ; preds = %start
; call core::sync::atomic::AtomicBool::compare_exchange
  %10 = call { i1, i8 } @_ZN4core4sync6atomic10AtomicBool16compare_exchange17h1b2eb7417185af6aE(ptr align 1 %self, i1 zeroext %current, i1 zeroext %new, i8 %success, i8 %failure) #7, !dbg !696
  %11 = extractvalue { i1, i8 } %10, 0, !dbg !696
  %12 = extractvalue { i1, i8 } %10, 1, !dbg !696
  %13 = zext i1 %11 to i8, !dbg !696
  store i8 %13, ptr %_0, align 1, !dbg !696
  %14 = getelementptr inbounds i8, ptr %_0, i64 1, !dbg !696
  store i8 %12, ptr %14, align 1, !dbg !696
  br label %bb7, !dbg !696

bb6:                                              ; preds = %bb2
  %15 = getelementptr inbounds i8, ptr %_7, i64 1, !dbg !697
  %x = load i8, ptr %15, align 1, !dbg !697, !noundef !21
  store i8 %x, ptr %x.dbg.spill, align 1, !dbg !697
  call void @llvm.dbg.declare(metadata ptr %x.dbg.spill, metadata !679, metadata !DIExpression()), !dbg !698
  %_14 = icmp ne i8 %x, 0, !dbg !699
  %16 = getelementptr inbounds i8, ptr %_0, i64 1, !dbg !700
  %17 = zext i1 %_14 to i8, !dbg !700
  store i8 %17, ptr %16, align 1, !dbg !700
  store i8 0, ptr %_0, align 1, !dbg !700
  br label %bb7, !dbg !701

bb5:                                              ; preds = %bb2
  %18 = getelementptr inbounds i8, ptr %_7, i64 1, !dbg !702
  %x1 = load i8, ptr %18, align 1, !dbg !702, !noundef !21
  store i8 %x1, ptr %x.dbg.spill2, align 1, !dbg !702
  call void @llvm.dbg.declare(metadata ptr %x.dbg.spill2, metadata !681, metadata !DIExpression()), !dbg !703
  %_16 = icmp ne i8 %x1, 0, !dbg !704
  %19 = getelementptr inbounds i8, ptr %_0, i64 1, !dbg !705
  %20 = zext i1 %_16 to i8, !dbg !705
  store i8 %20, ptr %19, align 1, !dbg !705
  store i8 1, ptr %_0, align 1, !dbg !705
  br label %bb7, !dbg !706

bb7:                                              ; preds = %bb1, %bb5, %bb6
  %21 = load i8, ptr %_0, align 1, !dbg !707, !range !634, !noundef !21
  %22 = trunc i8 %21 to i1, !dbg !707
  %23 = getelementptr inbounds i8, ptr %_0, i64 1, !dbg !707
  %24 = load i8, ptr %23, align 1, !dbg !707, !noundef !21
  %25 = insertvalue { i1, i8 } poison, i1 %22, 0, !dbg !707
  %26 = insertvalue { i1, i8 } %25, i8 %24, 1, !dbg !707
  ret { i1, i8 } %26, !dbg !707

bb8:                                              ; No predecessors!
  unreachable, !dbg !695
}

; core::sync::atomic::AtomicBool::load
; Function Attrs: inlinehint noredzone nounwind
define internal zeroext i1 @_ZN4core4sync6atomic10AtomicBool4load17h673bb3c4822fd6a6E(ptr align 1 %self, i8 %order) unnamed_addr #1 !dbg !708 {
start:
  %self.dbg.spill.i = alloca ptr, align 8
  %order.dbg.spill = alloca i8, align 1
  %self.dbg.spill = alloca ptr, align 8
  store ptr %self, ptr %self.dbg.spill, align 8
  call void @llvm.dbg.declare(metadata ptr %self.dbg.spill, metadata !713, metadata !DIExpression()), !dbg !715
  store i8 %order, ptr %order.dbg.spill, align 1
  call void @llvm.dbg.declare(metadata ptr %order.dbg.spill, metadata !714, metadata !DIExpression()), !dbg !716
  store ptr %self, ptr %self.dbg.spill.i, align 8
  call void @llvm.dbg.declare(metadata ptr %self.dbg.spill.i, metadata !619, metadata !DIExpression()), !dbg !717
; call core::sync::atomic::atomic_load
  %_3 = call i8 @_ZN4core4sync6atomic11atomic_load17h920a6f17ad0fd776E(ptr %self, i8 %order) #7, !dbg !719
  %_0 = icmp ne i8 %_3, 0, !dbg !719
  ret i1 %_0, !dbg !720
}

; core::sync::atomic::AtomicBool::swap
; Function Attrs: inlinehint noredzone nounwind
define internal zeroext i1 @_ZN4core4sync6atomic10AtomicBool4swap17ha1562e5e528239e0E(ptr align 1 %self, i1 zeroext %val, i8 %order) unnamed_addr #1 !dbg !721 {
start:
  %self.dbg.spill.i = alloca ptr, align 8
  %order.dbg.spill = alloca i8, align 1
  %val.dbg.spill = alloca i8, align 1
  %self.dbg.spill = alloca ptr, align 8
  %_0 = alloca i8, align 1
  store ptr %self, ptr %self.dbg.spill, align 8
  call void @llvm.dbg.declare(metadata ptr %self.dbg.spill, metadata !726, metadata !DIExpression()), !dbg !729
  %0 = zext i1 %val to i8
  store i8 %0, ptr %val.dbg.spill, align 1
  call void @llvm.dbg.declare(metadata ptr %val.dbg.spill, metadata !727, metadata !DIExpression()), !dbg !730
  store i8 %order, ptr %order.dbg.spill, align 1
  call void @llvm.dbg.declare(metadata ptr %order.dbg.spill, metadata !728, metadata !DIExpression()), !dbg !731
  br i1 false, label %bb1, label %bb4, !dbg !732

bb4:                                              ; preds = %start
  store ptr %self, ptr %self.dbg.spill.i, align 8
  call void @llvm.dbg.declare(metadata ptr %self.dbg.spill.i, metadata !619, metadata !DIExpression()), !dbg !733
  %_8 = zext i1 %val to i8, !dbg !735
; call core::sync::atomic::atomic_swap
  %_5 = call i8 @_ZN4core4sync6atomic11atomic_swap17h72234664e3127d00E(ptr %self, i8 %_8, i8 %order) #7, !dbg !736
  %1 = icmp ne i8 %_5, 0, !dbg !736
  %2 = zext i1 %1 to i8, !dbg !736
  store i8 %2, ptr %_0, align 1, !dbg !736
  br label %bb7, !dbg !737

bb1:                                              ; preds = %start
  br i1 %val, label %bb2, label %bb3, !dbg !738

bb7:                                              ; preds = %bb2, %bb3, %bb4
  %3 = load i8, ptr %_0, align 1, !dbg !739, !range !634, !noundef !21
  %4 = trunc i8 %3 to i1, !dbg !739
  ret i1 %4, !dbg !739

bb3:                                              ; preds = %bb1
; call core::sync::atomic::AtomicBool::fetch_and
  %5 = call zeroext i1 @_ZN4core4sync6atomic10AtomicBool9fetch_and17hac77e74f7f72065fE(ptr align 1 %self, i1 zeroext false, i8 %order) #7, !dbg !740
  %6 = zext i1 %5 to i8, !dbg !740
  store i8 %6, ptr %_0, align 1, !dbg !740
  br label %bb7, !dbg !740

bb2:                                              ; preds = %bb1
; call core::sync::atomic::AtomicBool::fetch_or
  %7 = call zeroext i1 @_ZN4core4sync6atomic10AtomicBool8fetch_or17he448d2362ad319aaE(ptr align 1 %self, i1 zeroext true, i8 %order) #7, !dbg !741
  %8 = zext i1 %7 to i8, !dbg !741
  store i8 %8, ptr %_0, align 1, !dbg !741
  br label %bb7, !dbg !741
}

; core::sync::atomic::AtomicBool::store
; Function Attrs: inlinehint noredzone nounwind
define internal void @_ZN4core4sync6atomic10AtomicBool5store17h943b4777cf292ee7E(ptr align 1 %self, i1 zeroext %val, i8 %order) unnamed_addr #1 !dbg !742 {
start:
  %self.dbg.spill.i = alloca ptr, align 8
  %order.dbg.spill = alloca i8, align 1
  %val.dbg.spill = alloca i8, align 1
  %self.dbg.spill = alloca ptr, align 8
  store ptr %self, ptr %self.dbg.spill, align 8
  call void @llvm.dbg.declare(metadata ptr %self.dbg.spill, metadata !747, metadata !DIExpression()), !dbg !750
  %0 = zext i1 %val to i8
  store i8 %0, ptr %val.dbg.spill, align 1
  call void @llvm.dbg.declare(metadata ptr %val.dbg.spill, metadata !748, metadata !DIExpression()), !dbg !751
  store i8 %order, ptr %order.dbg.spill, align 1
  call void @llvm.dbg.declare(metadata ptr %order.dbg.spill, metadata !749, metadata !DIExpression()), !dbg !752
  store ptr %self, ptr %self.dbg.spill.i, align 8
  call void @llvm.dbg.declare(metadata ptr %self.dbg.spill.i, metadata !619, metadata !DIExpression()), !dbg !753
  %_7 = zext i1 %val to i8, !dbg !755
; call core::sync::atomic::atomic_store
  call void @_ZN4core4sync6atomic12atomic_store17hff60b3e143c4209bE(ptr %self, i8 %_7, i8 %order) #7, !dbg !756
  ret void, !dbg !757
}

; core::sync::atomic::AtomicBool::fetch_or
; Function Attrs: inlinehint noredzone nounwind
define internal zeroext i1 @_ZN4core4sync6atomic10AtomicBool8fetch_or17he448d2362ad319aaE(ptr align 1 %self, i1 zeroext %val, i8 %order) unnamed_addr #1 !dbg !758 {
start:
  %self.dbg.spill.i = alloca ptr, align 8
  %order.dbg.spill = alloca i8, align 1
  %val.dbg.spill = alloca i8, align 1
  %self.dbg.spill = alloca ptr, align 8
  store ptr %self, ptr %self.dbg.spill, align 8
  call void @llvm.dbg.declare(metadata ptr %self.dbg.spill, metadata !761, metadata !DIExpression()), !dbg !764
  %0 = zext i1 %val to i8
  store i8 %0, ptr %val.dbg.spill, align 1
  call void @llvm.dbg.declare(metadata ptr %val.dbg.spill, metadata !762, metadata !DIExpression()), !dbg !765
  store i8 %order, ptr %order.dbg.spill, align 1
  call void @llvm.dbg.declare(metadata ptr %order.dbg.spill, metadata !763, metadata !DIExpression()), !dbg !766
  store ptr %self, ptr %self.dbg.spill.i, align 8
  call void @llvm.dbg.declare(metadata ptr %self.dbg.spill.i, metadata !619, metadata !DIExpression()), !dbg !767
  %_7 = zext i1 %val to i8, !dbg !769
; call core::sync::atomic::atomic_or
  %_4 = call i8 @_ZN4core4sync6atomic9atomic_or17hd4b48d2f72998a5cE(ptr %self, i8 %_7, i8 %order) #7, !dbg !770
  %_0 = icmp ne i8 %_4, 0, !dbg !770
  ret i1 %_0, !dbg !771
}

; core::sync::atomic::AtomicBool::fetch_and
; Function Attrs: inlinehint noredzone nounwind
define internal zeroext i1 @_ZN4core4sync6atomic10AtomicBool9fetch_and17hac77e74f7f72065fE(ptr align 1 %self, i1 zeroext %val, i8 %order) unnamed_addr #1 !dbg !772 {
start:
  %self.dbg.spill.i = alloca ptr, align 8
  %order.dbg.spill = alloca i8, align 1
  %val.dbg.spill = alloca i8, align 1
  %self.dbg.spill = alloca ptr, align 8
  store ptr %self, ptr %self.dbg.spill, align 8
  call void @llvm.dbg.declare(metadata ptr %self.dbg.spill, metadata !775, metadata !DIExpression()), !dbg !778
  %0 = zext i1 %val to i8
  store i8 %0, ptr %val.dbg.spill, align 1
  call void @llvm.dbg.declare(metadata ptr %val.dbg.spill, metadata !776, metadata !DIExpression()), !dbg !779
  store i8 %order, ptr %order.dbg.spill, align 1
  call void @llvm.dbg.declare(metadata ptr %order.dbg.spill, metadata !777, metadata !DIExpression()), !dbg !780
  store ptr %self, ptr %self.dbg.spill.i, align 8
  call void @llvm.dbg.declare(metadata ptr %self.dbg.spill.i, metadata !619, metadata !DIExpression()), !dbg !781
  %_7 = zext i1 %val to i8, !dbg !783
; call core::sync::atomic::atomic_and
  %_4 = call i8 @_ZN4core4sync6atomic10atomic_and17h1d538db602baa5a0E(ptr %self, i8 %_7, i8 %order) #7, !dbg !784
  %_0 = icmp ne i8 %_4, 0, !dbg !784
  ret i1 %_0, !dbg !785
}

; core::sync::atomic::atomic_and
; Function Attrs: inlinehint noredzone nounwind
define i8 @_ZN4core4sync6atomic10atomic_and17h1d538db602baa5a0E(ptr %dst, i8 %val, i8 %0) unnamed_addr #1 !dbg !786 {
start:
  %val.dbg.spill = alloca i8, align 1
  %dst.dbg.spill = alloca ptr, align 8
  %_0 = alloca i8, align 1
  %order = alloca i8, align 1
  store i8 %0, ptr %order, align 1
  store ptr %dst, ptr %dst.dbg.spill, align 8
  call void @llvm.dbg.declare(metadata ptr %dst.dbg.spill, metadata !790, metadata !DIExpression()), !dbg !793
  store i8 %val, ptr %val.dbg.spill, align 1
  call void @llvm.dbg.declare(metadata ptr %val.dbg.spill, metadata !791, metadata !DIExpression()), !dbg !794
  call void @llvm.dbg.declare(metadata ptr %order, metadata !792, metadata !DIExpression()), !dbg !795
  %1 = load i8, ptr %order, align 1, !dbg !796, !range !637, !noundef !21
  %_4 = zext i8 %1 to i64, !dbg !796
  switch i64 %_4, label %bb7 [
    i64 0, label %bb2
    i64 1, label %bb4
    i64 2, label %bb3
    i64 3, label %bb5
    i64 4, label %bb1
  ], !dbg !797

bb7:                                              ; preds = %start
  unreachable, !dbg !797

bb2:                                              ; preds = %start
  %2 = atomicrmw and ptr %dst, i8 %val monotonic, align 1, !dbg !798
  store i8 %2, ptr %_0, align 1, !dbg !798
  br label %bb6, !dbg !798

bb4:                                              ; preds = %start
  %3 = atomicrmw and ptr %dst, i8 %val release, align 1, !dbg !799
  store i8 %3, ptr %_0, align 1, !dbg !799
  br label %bb6, !dbg !799

bb3:                                              ; preds = %start
  %4 = atomicrmw and ptr %dst, i8 %val acquire, align 1, !dbg !800
  store i8 %4, ptr %_0, align 1, !dbg !800
  br label %bb6, !dbg !800

bb5:                                              ; preds = %start
  %5 = atomicrmw and ptr %dst, i8 %val acq_rel, align 1, !dbg !801
  store i8 %5, ptr %_0, align 1, !dbg !801
  br label %bb6, !dbg !801

bb1:                                              ; preds = %start
  %6 = atomicrmw and ptr %dst, i8 %val seq_cst, align 1, !dbg !802
  store i8 %6, ptr %_0, align 1, !dbg !802
  br label %bb6, !dbg !802

bb6:                                              ; preds = %bb1, %bb5, %bb3, %bb4, %bb2
  %7 = load i8, ptr %_0, align 1, !dbg !803, !noundef !21
  ret i8 %7, !dbg !803
}

; core::sync::atomic::AtomicUsize::compare_and_swap
; Function Attrs: inlinehint noredzone nounwind
define internal i64 @_ZN4core4sync6atomic11AtomicUsize16compare_and_swap17hfacb15461b73825bE(ptr align 8 %self, i64 %current, i64 %new, i8 %order) unnamed_addr #1 !dbg !804 {
start:
  %x.dbg.spill2 = alloca i64, align 8
  %x.dbg.spill = alloca i64, align 8
  %order.dbg.spill = alloca i8, align 1
  %new.dbg.spill = alloca i64, align 8
  %current.dbg.spill = alloca i64, align 8
  %self.dbg.spill = alloca ptr, align 8
  %_5 = alloca %"core::result::Result<usize, usize>", align 8
  %_0 = alloca i64, align 8
  store ptr %self, ptr %self.dbg.spill, align 8
  call void @llvm.dbg.declare(metadata ptr %self.dbg.spill, metadata !809, metadata !DIExpression()), !dbg !817
  store i64 %current, ptr %current.dbg.spill, align 8
  call void @llvm.dbg.declare(metadata ptr %current.dbg.spill, metadata !810, metadata !DIExpression()), !dbg !818
  store i64 %new, ptr %new.dbg.spill, align 8
  call void @llvm.dbg.declare(metadata ptr %new.dbg.spill, metadata !811, metadata !DIExpression()), !dbg !819
  store i8 %order, ptr %order.dbg.spill, align 1
  call void @llvm.dbg.declare(metadata ptr %order.dbg.spill, metadata !812, metadata !DIExpression()), !dbg !820
; call core::sync::atomic::strongest_failure_ordering
  %_6 = call i8 @_ZN4core4sync6atomic26strongest_failure_ordering17h178fa35f52e638beE(i8 %order) #7, !dbg !821, !range !637
; call core::sync::atomic::AtomicUsize::compare_exchange
  %0 = call { i64, i64 } @_ZN4core4sync6atomic11AtomicUsize16compare_exchange17hd4039a17f4acc2a7E(ptr align 8 %self, i64 %current, i64 %new, i8 %order, i8 %_6) #7, !dbg !822
  %1 = extractvalue { i64, i64 } %0, 0, !dbg !822
  %2 = extractvalue { i64, i64 } %0, 1, !dbg !822
  store i64 %1, ptr %_5, align 8, !dbg !822
  %3 = getelementptr inbounds i8, ptr %_5, i64 8, !dbg !822
  store i64 %2, ptr %3, align 8, !dbg !822
  %_7 = load i64, ptr %_5, align 8, !dbg !822, !range !823, !noundef !21
  %4 = icmp eq i64 %_7, 0, !dbg !824
  br i1 %4, label %bb4, label %bb3, !dbg !824

bb4:                                              ; preds = %start
  %5 = getelementptr inbounds i8, ptr %_5, i64 8, !dbg !825
  %x = load i64, ptr %5, align 8, !dbg !825, !noundef !21
  store i64 %x, ptr %x.dbg.spill, align 8, !dbg !825
  call void @llvm.dbg.declare(metadata ptr %x.dbg.spill, metadata !813, metadata !DIExpression()), !dbg !826
  store i64 %x, ptr %_0, align 8, !dbg !827
  br label %bb5, !dbg !828

bb3:                                              ; preds = %start
  %6 = getelementptr inbounds i8, ptr %_5, i64 8, !dbg !829
  %x1 = load i64, ptr %6, align 8, !dbg !829, !noundef !21
  store i64 %x1, ptr %x.dbg.spill2, align 8, !dbg !829
  call void @llvm.dbg.declare(metadata ptr %x.dbg.spill2, metadata !815, metadata !DIExpression()), !dbg !830
  store i64 %x1, ptr %_0, align 8, !dbg !831
  br label %bb5, !dbg !832

bb5:                                              ; preds = %bb3, %bb4
  %7 = load i64, ptr %_0, align 8, !dbg !833, !noundef !21
  ret i64 %7, !dbg !833

bb6:                                              ; No predecessors!
  unreachable, !dbg !824
}

; core::sync::atomic::AtomicUsize::compare_exchange
; Function Attrs: inlinehint noredzone nounwind
define internal { i64, i64 } @_ZN4core4sync6atomic11AtomicUsize16compare_exchange17hd4039a17f4acc2a7E(ptr align 8 %self, i64 %current, i64 %new, i8 %success, i8 %failure) unnamed_addr #1 !dbg !834 {
start:
  %self.dbg.spill.i = alloca ptr, align 8
  %failure.dbg.spill = alloca i8, align 1
  %success.dbg.spill = alloca i8, align 1
  %new.dbg.spill = alloca i64, align 8
  %current.dbg.spill = alloca i64, align 8
  %self.dbg.spill = alloca ptr, align 8
  store ptr %self, ptr %self.dbg.spill, align 8
  call void @llvm.dbg.declare(metadata ptr %self.dbg.spill, metadata !854, metadata !DIExpression()), !dbg !859
  store i64 %current, ptr %current.dbg.spill, align 8
  call void @llvm.dbg.declare(metadata ptr %current.dbg.spill, metadata !855, metadata !DIExpression()), !dbg !860
  store i64 %new, ptr %new.dbg.spill, align 8
  call void @llvm.dbg.declare(metadata ptr %new.dbg.spill, metadata !856, metadata !DIExpression()), !dbg !861
  store i8 %success, ptr %success.dbg.spill, align 1
  call void @llvm.dbg.declare(metadata ptr %success.dbg.spill, metadata !857, metadata !DIExpression()), !dbg !862
  store i8 %failure, ptr %failure.dbg.spill, align 1
  call void @llvm.dbg.declare(metadata ptr %failure.dbg.spill, metadata !858, metadata !DIExpression()), !dbg !863
  store ptr %self, ptr %self.dbg.spill.i, align 8
  call void @llvm.dbg.declare(metadata ptr %self.dbg.spill.i, metadata !864, metadata !DIExpression()), !dbg !872
; call core::sync::atomic::atomic_compare_exchange
  %0 = call { i64, i64 } @_ZN4core4sync6atomic23atomic_compare_exchange17hd0bb8bfbde34c5bdE(ptr %self, i64 %current, i64 %new, i8 %success, i8 %failure) #7, !dbg !874
  %_0.0 = extractvalue { i64, i64 } %0, 0, !dbg !874
  %_0.1 = extractvalue { i64, i64 } %0, 1, !dbg !874
  %1 = insertvalue { i64, i64 } poison, i64 %_0.0, 0, !dbg !875
  %2 = insertvalue { i64, i64 } %1, i64 %_0.1, 1, !dbg !875
  ret { i64, i64 } %2, !dbg !875
}

; core::sync::atomic::AtomicUsize::load
; Function Attrs: inlinehint noredzone nounwind
define internal i64 @_ZN4core4sync6atomic11AtomicUsize4load17h0c8053239923f58dE(ptr align 8 %self, i8 %order) unnamed_addr #1 !dbg !876 {
start:
  %self.dbg.spill.i = alloca ptr, align 8
  %order.dbg.spill = alloca i8, align 1
  %self.dbg.spill = alloca ptr, align 8
  store ptr %self, ptr %self.dbg.spill, align 8
  call void @llvm.dbg.declare(metadata ptr %self.dbg.spill, metadata !881, metadata !DIExpression()), !dbg !883
  store i8 %order, ptr %order.dbg.spill, align 1
  call void @llvm.dbg.declare(metadata ptr %order.dbg.spill, metadata !882, metadata !DIExpression()), !dbg !884
  store ptr %self, ptr %self.dbg.spill.i, align 8
  call void @llvm.dbg.declare(metadata ptr %self.dbg.spill.i, metadata !864, metadata !DIExpression()), !dbg !885
; call core::sync::atomic::atomic_load
  %_0 = call i64 @_ZN4core4sync6atomic11atomic_load17hd2e5b788ff22c2a4E(ptr %self, i8 %order) #7, !dbg !887
  ret i64 %_0, !dbg !888
}

; core::sync::atomic::AtomicUsize::store
; Function Attrs: inlinehint noredzone nounwind
define internal void @_ZN4core4sync6atomic11AtomicUsize5store17h1d0536202c2ff1abE(ptr align 8 %self, i64 %val, i8 %order) unnamed_addr #1 !dbg !889 {
start:
  %self.dbg.spill.i = alloca ptr, align 8
  %order.dbg.spill = alloca i8, align 1
  %val.dbg.spill = alloca i64, align 8
  %self.dbg.spill = alloca ptr, align 8
  store ptr %self, ptr %self.dbg.spill, align 8
  call void @llvm.dbg.declare(metadata ptr %self.dbg.spill, metadata !894, metadata !DIExpression()), !dbg !897
  store i64 %val, ptr %val.dbg.spill, align 8
  call void @llvm.dbg.declare(metadata ptr %val.dbg.spill, metadata !895, metadata !DIExpression()), !dbg !898
  store i8 %order, ptr %order.dbg.spill, align 1
  call void @llvm.dbg.declare(metadata ptr %order.dbg.spill, metadata !896, metadata !DIExpression()), !dbg !899
  store ptr %self, ptr %self.dbg.spill.i, align 8
  call void @llvm.dbg.declare(metadata ptr %self.dbg.spill.i, metadata !864, metadata !DIExpression()), !dbg !900
; call core::sync::atomic::atomic_store
  call void @_ZN4core4sync6atomic12atomic_store17h4916bcb32fe064b2E(ptr %self, i64 %val, i8 %order) #7, !dbg !902
  ret void, !dbg !903
}

; core::sync::atomic::atomic_swap
; Function Attrs: inlinehint noredzone nounwind
define i8 @_ZN4core4sync6atomic11atomic_swap17h72234664e3127d00E(ptr %dst, i8 %val, i8 %0) unnamed_addr #1 !dbg !904 {
start:
  %val.dbg.spill = alloca i8, align 1
  %dst.dbg.spill = alloca ptr, align 8
  %_0 = alloca i8, align 1
  %order = alloca i8, align 1
  store i8 %0, ptr %order, align 1
  store ptr %dst, ptr %dst.dbg.spill, align 8
  call void @llvm.dbg.declare(metadata ptr %dst.dbg.spill, metadata !906, metadata !DIExpression()), !dbg !909
  store i8 %val, ptr %val.dbg.spill, align 1
  call void @llvm.dbg.declare(metadata ptr %val.dbg.spill, metadata !907, metadata !DIExpression()), !dbg !910
  call void @llvm.dbg.declare(metadata ptr %order, metadata !908, metadata !DIExpression()), !dbg !911
  %1 = load i8, ptr %order, align 1, !dbg !912, !range !637, !noundef !21
  %_4 = zext i8 %1 to i64, !dbg !912
  switch i64 %_4, label %bb7 [
    i64 0, label %bb2
    i64 1, label %bb4
    i64 2, label %bb3
    i64 3, label %bb5
    i64 4, label %bb1
  ], !dbg !913

bb7:                                              ; preds = %start
  unreachable, !dbg !913

bb2:                                              ; preds = %start
  %2 = atomicrmw xchg ptr %dst, i8 %val monotonic, align 1, !dbg !914
  store i8 %2, ptr %_0, align 1, !dbg !914
  br label %bb6, !dbg !914

bb4:                                              ; preds = %start
  %3 = atomicrmw xchg ptr %dst, i8 %val release, align 1, !dbg !915
  store i8 %3, ptr %_0, align 1, !dbg !915
  br label %bb6, !dbg !915

bb3:                                              ; preds = %start
  %4 = atomicrmw xchg ptr %dst, i8 %val acquire, align 1, !dbg !916
  store i8 %4, ptr %_0, align 1, !dbg !916
  br label %bb6, !dbg !916

bb5:                                              ; preds = %start
  %5 = atomicrmw xchg ptr %dst, i8 %val acq_rel, align 1, !dbg !917
  store i8 %5, ptr %_0, align 1, !dbg !917
  br label %bb6, !dbg !917

bb1:                                              ; preds = %start
  %6 = atomicrmw xchg ptr %dst, i8 %val seq_cst, align 1, !dbg !918
  store i8 %6, ptr %_0, align 1, !dbg !918
  br label %bb6, !dbg !918

bb6:                                              ; preds = %bb1, %bb5, %bb3, %bb4, %bb2
  %7 = load i8, ptr %_0, align 1, !dbg !919, !noundef !21
  ret i8 %7, !dbg !919
}

; core::sync::atomic::compiler_fence
; Function Attrs: inlinehint noredzone nounwind
define internal void @_ZN4core4sync6atomic14compiler_fence17h15951ef92675f7beE(i8 %0) unnamed_addr #1 !dbg !920 {
start:
  %_4 = alloca %"core::fmt::Arguments<'_>", align 8
  %order = alloca i8, align 1
  store i8 %0, ptr %order, align 1
  call void @llvm.dbg.declare(metadata ptr %order, metadata !924, metadata !DIExpression()), !dbg !925
  %1 = load i8, ptr %order, align 1, !dbg !926, !range !637, !noundef !21
  %_2 = zext i8 %1 to i64, !dbg !926
  switch i64 %_2, label %bb8 [
    i64 0, label %bb1
    i64 1, label %bb3
    i64 2, label %bb2
    i64 3, label %bb4
    i64 4, label %bb5
  ], !dbg !927

bb8:                                              ; preds = %start
  unreachable, !dbg !927

bb1:                                              ; preds = %start
; call core::fmt::Arguments::new_const
  call void @_ZN4core3fmt9Arguments9new_const17h7b81b5943543e2b6E(ptr sret(%"core::fmt::Arguments<'_>") align 8 %_4, ptr align 8 @alloc_430204769d39c3fb374968cb14137bf7, i64 1) #7, !dbg !928
; call core::panicking::panic_fmt
  call void @_ZN4core9panicking9panic_fmt17ha5e30ccfbdd0aed8E(ptr align 8 %_4, ptr align 8 @alloc_15e6b65a979077866e1a9c60fd8e7af9) #11, !dbg !928
  unreachable, !dbg !928

bb3:                                              ; preds = %start
  fence syncscope("singlethread") release, !dbg !929
  br label %bb7, !dbg !929

bb2:                                              ; preds = %start
  fence syncscope("singlethread") acquire, !dbg !930
  br label %bb7, !dbg !930

bb4:                                              ; preds = %start
  fence syncscope("singlethread") acq_rel, !dbg !931
  br label %bb7, !dbg !931

bb5:                                              ; preds = %start
  fence syncscope("singlethread") seq_cst, !dbg !932
  br label %bb7, !dbg !932

bb7:                                              ; preds = %bb5, %bb4, %bb2, %bb3
  ret void, !dbg !933
}

; core::sync::atomic::spin_loop_hint
; Function Attrs: inlinehint noredzone nounwind
define internal void @_ZN4core4sync6atomic14spin_loop_hint17h14dba7e6e7ddc98aE() unnamed_addr #1 !dbg !934 {
start:
; call core::core_arch::x86::sse2::_mm_pause
  call void @_ZN4core9core_arch3x864sse29_mm_pause17h2fc206aa006dff08E() #7, !dbg !935
  ret void, !dbg !938
}

; core::sync::atomic::atomic_compare_exchange
; Function Attrs: inlinehint noredzone nounwind
define { i1, i8 } @_ZN4core4sync6atomic23atomic_compare_exchange17h1b848a47486232f3E(ptr %dst, i8 %old, i8 %new, i8 %success, i8 %failure) unnamed_addr #1 !dbg !939 {
start:
  %ok.dbg.spill = alloca i8, align 1
  %val.dbg.spill = alloca i8, align 1
  %failure.dbg.spill = alloca i8, align 1
  %success.dbg.spill = alloca i8, align 1
  %new.dbg.spill = alloca i8, align 1
  %old.dbg.spill = alloca i8, align 1
  %dst.dbg.spill = alloca ptr, align 8
  %_21 = alloca %"core::fmt::Arguments<'_>", align 8
  %_18 = alloca %"core::fmt::Arguments<'_>", align 8
  %_9 = alloca { i8, i8 }, align 1
  %_8 = alloca { i8, i8 }, align 1
  %_0 = alloca %"core::result::Result<u8, u8>", align 1
  store ptr %dst, ptr %dst.dbg.spill, align 8
  call void @llvm.dbg.declare(metadata ptr %dst.dbg.spill, metadata !958, metadata !DIExpression()), !dbg !966
  store i8 %old, ptr %old.dbg.spill, align 1
  call void @llvm.dbg.declare(metadata ptr %old.dbg.spill, metadata !959, metadata !DIExpression()), !dbg !967
  store i8 %new, ptr %new.dbg.spill, align 1
  call void @llvm.dbg.declare(metadata ptr %new.dbg.spill, metadata !960, metadata !DIExpression()), !dbg !968
  store i8 %success, ptr %success.dbg.spill, align 1
  call void @llvm.dbg.declare(metadata ptr %success.dbg.spill, metadata !961, metadata !DIExpression()), !dbg !969
  store i8 %failure, ptr %failure.dbg.spill, align 1
  call void @llvm.dbg.declare(metadata ptr %failure.dbg.spill, metadata !962, metadata !DIExpression()), !dbg !970
  store i8 %success, ptr %_9, align 1, !dbg !971
  %0 = getelementptr inbounds i8, ptr %_9, i64 1, !dbg !971
  store i8 %failure, ptr %0, align 1, !dbg !971
  %1 = load i8, ptr %_9, align 1, !dbg !971, !range !637, !noundef !21
  %_16 = zext i8 %1 to i64, !dbg !971
  switch i64 %_16, label %bb7 [
    i64 0, label %bb1
    i64 1, label %bb3
    i64 2, label %bb4
    i64 3, label %bb5
    i64 4, label %bb6
  ], !dbg !972

bb7:                                              ; preds = %start
  unreachable, !dbg !971

bb1:                                              ; preds = %start
  %2 = getelementptr inbounds i8, ptr %_9, i64 1, !dbg !971
  %3 = load i8, ptr %2, align 1, !dbg !971, !range !637, !noundef !21
  %_10 = zext i8 %3 to i64, !dbg !971
  switch i64 %_10, label %bb2 [
    i64 0, label %bb9
    i64 2, label %bb10
    i64 4, label %bb11
  ], !dbg !972

bb3:                                              ; preds = %start
  %4 = getelementptr inbounds i8, ptr %_9, i64 1, !dbg !971
  %5 = load i8, ptr %4, align 1, !dbg !971, !range !637, !noundef !21
  %_11 = zext i8 %5 to i64, !dbg !971
  switch i64 %_11, label %bb2 [
    i64 0, label %bb15
    i64 2, label %bb16
    i64 4, label %bb17
  ], !dbg !972

bb4:                                              ; preds = %start
  %6 = getelementptr inbounds i8, ptr %_9, i64 1, !dbg !971
  %7 = load i8, ptr %6, align 1, !dbg !971, !range !637, !noundef !21
  %_12 = zext i8 %7 to i64, !dbg !971
  switch i64 %_12, label %bb2 [
    i64 0, label %bb12
    i64 2, label %bb13
    i64 4, label %bb14
  ], !dbg !972

bb5:                                              ; preds = %start
  %8 = getelementptr inbounds i8, ptr %_9, i64 1, !dbg !971
  %9 = load i8, ptr %8, align 1, !dbg !971, !range !637, !noundef !21
  %_13 = zext i8 %9 to i64, !dbg !971
  switch i64 %_13, label %bb2 [
    i64 0, label %bb18
    i64 2, label %bb19
    i64 4, label %bb20
  ], !dbg !972

bb6:                                              ; preds = %start
  %10 = getelementptr inbounds i8, ptr %_9, i64 1, !dbg !971
  %11 = load i8, ptr %10, align 1, !dbg !971, !range !637, !noundef !21
  %_14 = zext i8 %11 to i64, !dbg !971
  switch i64 %_14, label %bb2 [
    i64 0, label %bb21
    i64 2, label %bb22
    i64 4, label %bb23
  ], !dbg !972

bb2:                                              ; preds = %bb6, %bb5, %bb4, %bb3, %bb1
  %12 = getelementptr inbounds i8, ptr %_9, i64 1, !dbg !971
  %13 = load i8, ptr %12, align 1, !dbg !971, !range !637, !noundef !21
  %_15 = zext i8 %13 to i64, !dbg !971
  %14 = icmp eq i64 %_15, 1, !dbg !972
  br i1 %14, label %bb8, label %bb24, !dbg !972

bb9:                                              ; preds = %bb1
  %15 = cmpxchg ptr %dst, i8 %old, i8 %new monotonic monotonic, align 1, !dbg !973
  %16 = extractvalue { i8, i1 } %15, 0, !dbg !973
  %17 = extractvalue { i8, i1 } %15, 1, !dbg !973
  %18 = zext i1 %17 to i8, !dbg !973
  store i8 %16, ptr %_8, align 1, !dbg !973
  %19 = getelementptr inbounds i8, ptr %_8, i64 1, !dbg !973
  store i8 %18, ptr %19, align 1, !dbg !973
  br label %bb27, !dbg !973

bb10:                                             ; preds = %bb1
  %20 = cmpxchg ptr %dst, i8 %old, i8 %new monotonic acquire, align 1, !dbg !974
  %21 = extractvalue { i8, i1 } %20, 0, !dbg !974
  %22 = extractvalue { i8, i1 } %20, 1, !dbg !974
  %23 = zext i1 %22 to i8, !dbg !974
  store i8 %21, ptr %_8, align 1, !dbg !974
  %24 = getelementptr inbounds i8, ptr %_8, i64 1, !dbg !974
  store i8 %23, ptr %24, align 1, !dbg !974
  br label %bb27, !dbg !974

bb11:                                             ; preds = %bb1
  %25 = cmpxchg ptr %dst, i8 %old, i8 %new monotonic seq_cst, align 1, !dbg !975
  %26 = extractvalue { i8, i1 } %25, 0, !dbg !975
  %27 = extractvalue { i8, i1 } %25, 1, !dbg !975
  %28 = zext i1 %27 to i8, !dbg !975
  store i8 %26, ptr %_8, align 1, !dbg !975
  %29 = getelementptr inbounds i8, ptr %_8, i64 1, !dbg !975
  store i8 %28, ptr %29, align 1, !dbg !975
  br label %bb27, !dbg !975

bb27:                                             ; preds = %bb23, %bb22, %bb21, %bb20, %bb19, %bb18, %bb14, %bb13, %bb12, %bb17, %bb16, %bb15, %bb11, %bb10, %bb9
  %val = load i8, ptr %_8, align 1, !dbg !976, !noundef !21
  store i8 %val, ptr %val.dbg.spill, align 1, !dbg !976
  call void @llvm.dbg.declare(metadata ptr %val.dbg.spill, metadata !963, metadata !DIExpression()), !dbg !977
  %30 = getelementptr inbounds i8, ptr %_8, i64 1, !dbg !978
  %31 = load i8, ptr %30, align 1, !dbg !978, !range !634, !noundef !21
  %ok = trunc i8 %31 to i1, !dbg !978
  %32 = zext i1 %ok to i8, !dbg !978
  store i8 %32, ptr %ok.dbg.spill, align 1, !dbg !978
  call void @llvm.dbg.declare(metadata ptr %ok.dbg.spill, metadata !965, metadata !DIExpression()), !dbg !979
  br i1 %ok, label %bb28, label %bb29, !dbg !980

bb15:                                             ; preds = %bb3
  %33 = cmpxchg ptr %dst, i8 %old, i8 %new release monotonic, align 1, !dbg !981
  %34 = extractvalue { i8, i1 } %33, 0, !dbg !981
  %35 = extractvalue { i8, i1 } %33, 1, !dbg !981
  %36 = zext i1 %35 to i8, !dbg !981
  store i8 %34, ptr %_8, align 1, !dbg !981
  %37 = getelementptr inbounds i8, ptr %_8, i64 1, !dbg !981
  store i8 %36, ptr %37, align 1, !dbg !981
  br label %bb27, !dbg !981

bb16:                                             ; preds = %bb3
  %38 = cmpxchg ptr %dst, i8 %old, i8 %new release acquire, align 1, !dbg !982
  %39 = extractvalue { i8, i1 } %38, 0, !dbg !982
  %40 = extractvalue { i8, i1 } %38, 1, !dbg !982
  %41 = zext i1 %40 to i8, !dbg !982
  store i8 %39, ptr %_8, align 1, !dbg !982
  %42 = getelementptr inbounds i8, ptr %_8, i64 1, !dbg !982
  store i8 %41, ptr %42, align 1, !dbg !982
  br label %bb27, !dbg !982

bb17:                                             ; preds = %bb3
  %43 = cmpxchg ptr %dst, i8 %old, i8 %new release seq_cst, align 1, !dbg !983
  %44 = extractvalue { i8, i1 } %43, 0, !dbg !983
  %45 = extractvalue { i8, i1 } %43, 1, !dbg !983
  %46 = zext i1 %45 to i8, !dbg !983
  store i8 %44, ptr %_8, align 1, !dbg !983
  %47 = getelementptr inbounds i8, ptr %_8, i64 1, !dbg !983
  store i8 %46, ptr %47, align 1, !dbg !983
  br label %bb27, !dbg !983

bb12:                                             ; preds = %bb4
  %48 = cmpxchg ptr %dst, i8 %old, i8 %new acquire monotonic, align 1, !dbg !984
  %49 = extractvalue { i8, i1 } %48, 0, !dbg !984
  %50 = extractvalue { i8, i1 } %48, 1, !dbg !984
  %51 = zext i1 %50 to i8, !dbg !984
  store i8 %49, ptr %_8, align 1, !dbg !984
  %52 = getelementptr inbounds i8, ptr %_8, i64 1, !dbg !984
  store i8 %51, ptr %52, align 1, !dbg !984
  br label %bb27, !dbg !984

bb13:                                             ; preds = %bb4
  %53 = cmpxchg ptr %dst, i8 %old, i8 %new acquire acquire, align 1, !dbg !985
  %54 = extractvalue { i8, i1 } %53, 0, !dbg !985
  %55 = extractvalue { i8, i1 } %53, 1, !dbg !985
  %56 = zext i1 %55 to i8, !dbg !985
  store i8 %54, ptr %_8, align 1, !dbg !985
  %57 = getelementptr inbounds i8, ptr %_8, i64 1, !dbg !985
  store i8 %56, ptr %57, align 1, !dbg !985
  br label %bb27, !dbg !985

bb14:                                             ; preds = %bb4
  %58 = cmpxchg ptr %dst, i8 %old, i8 %new acquire seq_cst, align 1, !dbg !986
  %59 = extractvalue { i8, i1 } %58, 0, !dbg !986
  %60 = extractvalue { i8, i1 } %58, 1, !dbg !986
  %61 = zext i1 %60 to i8, !dbg !986
  store i8 %59, ptr %_8, align 1, !dbg !986
  %62 = getelementptr inbounds i8, ptr %_8, i64 1, !dbg !986
  store i8 %61, ptr %62, align 1, !dbg !986
  br label %bb27, !dbg !986

bb18:                                             ; preds = %bb5
  %63 = cmpxchg ptr %dst, i8 %old, i8 %new acq_rel monotonic, align 1, !dbg !987
  %64 = extractvalue { i8, i1 } %63, 0, !dbg !987
  %65 = extractvalue { i8, i1 } %63, 1, !dbg !987
  %66 = zext i1 %65 to i8, !dbg !987
  store i8 %64, ptr %_8, align 1, !dbg !987
  %67 = getelementptr inbounds i8, ptr %_8, i64 1, !dbg !987
  store i8 %66, ptr %67, align 1, !dbg !987
  br label %bb27, !dbg !987

bb19:                                             ; preds = %bb5
  %68 = cmpxchg ptr %dst, i8 %old, i8 %new acq_rel acquire, align 1, !dbg !988
  %69 = extractvalue { i8, i1 } %68, 0, !dbg !988
  %70 = extractvalue { i8, i1 } %68, 1, !dbg !988
  %71 = zext i1 %70 to i8, !dbg !988
  store i8 %69, ptr %_8, align 1, !dbg !988
  %72 = getelementptr inbounds i8, ptr %_8, i64 1, !dbg !988
  store i8 %71, ptr %72, align 1, !dbg !988
  br label %bb27, !dbg !988

bb20:                                             ; preds = %bb5
  %73 = cmpxchg ptr %dst, i8 %old, i8 %new acq_rel seq_cst, align 1, !dbg !989
  %74 = extractvalue { i8, i1 } %73, 0, !dbg !989
  %75 = extractvalue { i8, i1 } %73, 1, !dbg !989
  %76 = zext i1 %75 to i8, !dbg !989
  store i8 %74, ptr %_8, align 1, !dbg !989
  %77 = getelementptr inbounds i8, ptr %_8, i64 1, !dbg !989
  store i8 %76, ptr %77, align 1, !dbg !989
  br label %bb27, !dbg !989

bb21:                                             ; preds = %bb6
  %78 = cmpxchg ptr %dst, i8 %old, i8 %new seq_cst monotonic, align 1, !dbg !990
  %79 = extractvalue { i8, i1 } %78, 0, !dbg !990
  %80 = extractvalue { i8, i1 } %78, 1, !dbg !990
  %81 = zext i1 %80 to i8, !dbg !990
  store i8 %79, ptr %_8, align 1, !dbg !990
  %82 = getelementptr inbounds i8, ptr %_8, i64 1, !dbg !990
  store i8 %81, ptr %82, align 1, !dbg !990
  br label %bb27, !dbg !990

bb22:                                             ; preds = %bb6
  %83 = cmpxchg ptr %dst, i8 %old, i8 %new seq_cst acquire, align 1, !dbg !991
  %84 = extractvalue { i8, i1 } %83, 0, !dbg !991
  %85 = extractvalue { i8, i1 } %83, 1, !dbg !991
  %86 = zext i1 %85 to i8, !dbg !991
  store i8 %84, ptr %_8, align 1, !dbg !991
  %87 = getelementptr inbounds i8, ptr %_8, i64 1, !dbg !991
  store i8 %86, ptr %87, align 1, !dbg !991
  br label %bb27, !dbg !991

bb23:                                             ; preds = %bb6
  %88 = cmpxchg ptr %dst, i8 %old, i8 %new seq_cst seq_cst, align 1, !dbg !992
  %89 = extractvalue { i8, i1 } %88, 0, !dbg !992
  %90 = extractvalue { i8, i1 } %88, 1, !dbg !992
  %91 = zext i1 %90 to i8, !dbg !992
  store i8 %89, ptr %_8, align 1, !dbg !992
  %92 = getelementptr inbounds i8, ptr %_8, i64 1, !dbg !992
  store i8 %91, ptr %92, align 1, !dbg !992
  br label %bb27, !dbg !992

bb29:                                             ; preds = %bb27
  %93 = getelementptr inbounds i8, ptr %_0, i64 1, !dbg !993
  store i8 %val, ptr %93, align 1, !dbg !993
  store i8 1, ptr %_0, align 1, !dbg !993
  br label %bb30, !dbg !994

bb28:                                             ; preds = %bb27
  %94 = getelementptr inbounds i8, ptr %_0, i64 1, !dbg !995
  store i8 %val, ptr %94, align 1, !dbg !995
  store i8 0, ptr %_0, align 1, !dbg !995
  br label %bb30, !dbg !994

bb30:                                             ; preds = %bb28, %bb29
  %95 = load i8, ptr %_0, align 1, !dbg !996, !range !634, !noundef !21
  %96 = trunc i8 %95 to i1, !dbg !996
  %97 = getelementptr inbounds i8, ptr %_0, i64 1, !dbg !996
  %98 = load i8, ptr %97, align 1, !dbg !996, !noundef !21
  %99 = insertvalue { i1, i8 } poison, i1 %96, 0, !dbg !996
  %100 = insertvalue { i1, i8 } %99, i8 %98, 1, !dbg !996
  ret { i1, i8 } %100, !dbg !996

bb8:                                              ; preds = %bb2
; call core::fmt::Arguments::new_const
  call void @_ZN4core3fmt9Arguments9new_const17h7b81b5943543e2b6E(ptr sret(%"core::fmt::Arguments<'_>") align 8 %_21, ptr align 8 @alloc_04ab601c54c6e0a22ff11d72dc7f4511, i64 1) #7, !dbg !997
; call core::panicking::panic_fmt
  call void @_ZN4core9panicking9panic_fmt17ha5e30ccfbdd0aed8E(ptr align 8 %_21, ptr align 8 @alloc_a1555e0a155dca2f5083258fcbf483f1) #11, !dbg !997
  unreachable, !dbg !997

bb24:                                             ; preds = %bb2
; call core::fmt::Arguments::new_const
  call void @_ZN4core3fmt9Arguments9new_const17h7b81b5943543e2b6E(ptr sret(%"core::fmt::Arguments<'_>") align 8 %_18, ptr align 8 @alloc_dd7d8f77c173bf31726eae321f955bec, i64 1) #7, !dbg !998
; call core::panicking::panic_fmt
  call void @_ZN4core9panicking9panic_fmt17ha5e30ccfbdd0aed8E(ptr align 8 %_18, ptr align 8 @alloc_33885c66f3e23721de7c078c26cbbbab) #11, !dbg !998
  unreachable, !dbg !998
}

; core::sync::atomic::atomic_compare_exchange
; Function Attrs: inlinehint noredzone nounwind
define { i64, i64 } @_ZN4core4sync6atomic23atomic_compare_exchange17hd0bb8bfbde34c5bdE(ptr %dst, i64 %old, i64 %new, i8 %success, i8 %failure) unnamed_addr #1 !dbg !999 {
start:
  %ok.dbg.spill = alloca i8, align 1
  %val.dbg.spill = alloca i64, align 8
  %failure.dbg.spill = alloca i8, align 1
  %success.dbg.spill = alloca i8, align 1
  %new.dbg.spill = alloca i64, align 8
  %old.dbg.spill = alloca i64, align 8
  %dst.dbg.spill = alloca ptr, align 8
  %_21 = alloca %"core::fmt::Arguments<'_>", align 8
  %_18 = alloca %"core::fmt::Arguments<'_>", align 8
  %_9 = alloca { i8, i8 }, align 1
  %_8 = alloca { i64, i8, [7 x i8] }, align 8
  %_0 = alloca %"core::result::Result<usize, usize>", align 8
  store ptr %dst, ptr %dst.dbg.spill, align 8
  call void @llvm.dbg.declare(metadata ptr %dst.dbg.spill, metadata !1003, metadata !DIExpression()), !dbg !1011
  store i64 %old, ptr %old.dbg.spill, align 8
  call void @llvm.dbg.declare(metadata ptr %old.dbg.spill, metadata !1004, metadata !DIExpression()), !dbg !1012
  store i64 %new, ptr %new.dbg.spill, align 8
  call void @llvm.dbg.declare(metadata ptr %new.dbg.spill, metadata !1005, metadata !DIExpression()), !dbg !1013
  store i8 %success, ptr %success.dbg.spill, align 1
  call void @llvm.dbg.declare(metadata ptr %success.dbg.spill, metadata !1006, metadata !DIExpression()), !dbg !1014
  store i8 %failure, ptr %failure.dbg.spill, align 1
  call void @llvm.dbg.declare(metadata ptr %failure.dbg.spill, metadata !1007, metadata !DIExpression()), !dbg !1015
  store i8 %success, ptr %_9, align 1, !dbg !1016
  %0 = getelementptr inbounds i8, ptr %_9, i64 1, !dbg !1016
  store i8 %failure, ptr %0, align 1, !dbg !1016
  %1 = load i8, ptr %_9, align 1, !dbg !1016, !range !637, !noundef !21
  %_16 = zext i8 %1 to i64, !dbg !1016
  switch i64 %_16, label %bb7 [
    i64 0, label %bb1
    i64 1, label %bb3
    i64 2, label %bb4
    i64 3, label %bb5
    i64 4, label %bb6
  ], !dbg !1017

bb7:                                              ; preds = %start
  unreachable, !dbg !1016

bb1:                                              ; preds = %start
  %2 = getelementptr inbounds i8, ptr %_9, i64 1, !dbg !1016
  %3 = load i8, ptr %2, align 1, !dbg !1016, !range !637, !noundef !21
  %_10 = zext i8 %3 to i64, !dbg !1016
  switch i64 %_10, label %bb2 [
    i64 0, label %bb9
    i64 2, label %bb10
    i64 4, label %bb11
  ], !dbg !1017

bb3:                                              ; preds = %start
  %4 = getelementptr inbounds i8, ptr %_9, i64 1, !dbg !1016
  %5 = load i8, ptr %4, align 1, !dbg !1016, !range !637, !noundef !21
  %_11 = zext i8 %5 to i64, !dbg !1016
  switch i64 %_11, label %bb2 [
    i64 0, label %bb15
    i64 2, label %bb16
    i64 4, label %bb17
  ], !dbg !1017

bb4:                                              ; preds = %start
  %6 = getelementptr inbounds i8, ptr %_9, i64 1, !dbg !1016
  %7 = load i8, ptr %6, align 1, !dbg !1016, !range !637, !noundef !21
  %_12 = zext i8 %7 to i64, !dbg !1016
  switch i64 %_12, label %bb2 [
    i64 0, label %bb12
    i64 2, label %bb13
    i64 4, label %bb14
  ], !dbg !1017

bb5:                                              ; preds = %start
  %8 = getelementptr inbounds i8, ptr %_9, i64 1, !dbg !1016
  %9 = load i8, ptr %8, align 1, !dbg !1016, !range !637, !noundef !21
  %_13 = zext i8 %9 to i64, !dbg !1016
  switch i64 %_13, label %bb2 [
    i64 0, label %bb18
    i64 2, label %bb19
    i64 4, label %bb20
  ], !dbg !1017

bb6:                                              ; preds = %start
  %10 = getelementptr inbounds i8, ptr %_9, i64 1, !dbg !1016
  %11 = load i8, ptr %10, align 1, !dbg !1016, !range !637, !noundef !21
  %_14 = zext i8 %11 to i64, !dbg !1016
  switch i64 %_14, label %bb2 [
    i64 0, label %bb21
    i64 2, label %bb22
    i64 4, label %bb23
  ], !dbg !1017

bb2:                                              ; preds = %bb6, %bb5, %bb4, %bb3, %bb1
  %12 = getelementptr inbounds i8, ptr %_9, i64 1, !dbg !1016
  %13 = load i8, ptr %12, align 1, !dbg !1016, !range !637, !noundef !21
  %_15 = zext i8 %13 to i64, !dbg !1016
  %14 = icmp eq i64 %_15, 1, !dbg !1017
  br i1 %14, label %bb8, label %bb24, !dbg !1017

bb9:                                              ; preds = %bb1
  %15 = cmpxchg ptr %dst, i64 %old, i64 %new monotonic monotonic, align 8, !dbg !1018
  %16 = extractvalue { i64, i1 } %15, 0, !dbg !1018
  %17 = extractvalue { i64, i1 } %15, 1, !dbg !1018
  %18 = zext i1 %17 to i8, !dbg !1018
  store i64 %16, ptr %_8, align 8, !dbg !1018
  %19 = getelementptr inbounds i8, ptr %_8, i64 8, !dbg !1018
  store i8 %18, ptr %19, align 8, !dbg !1018
  br label %bb27, !dbg !1018

bb10:                                             ; preds = %bb1
  %20 = cmpxchg ptr %dst, i64 %old, i64 %new monotonic acquire, align 8, !dbg !1019
  %21 = extractvalue { i64, i1 } %20, 0, !dbg !1019
  %22 = extractvalue { i64, i1 } %20, 1, !dbg !1019
  %23 = zext i1 %22 to i8, !dbg !1019
  store i64 %21, ptr %_8, align 8, !dbg !1019
  %24 = getelementptr inbounds i8, ptr %_8, i64 8, !dbg !1019
  store i8 %23, ptr %24, align 8, !dbg !1019
  br label %bb27, !dbg !1019

bb11:                                             ; preds = %bb1
  %25 = cmpxchg ptr %dst, i64 %old, i64 %new monotonic seq_cst, align 8, !dbg !1020
  %26 = extractvalue { i64, i1 } %25, 0, !dbg !1020
  %27 = extractvalue { i64, i1 } %25, 1, !dbg !1020
  %28 = zext i1 %27 to i8, !dbg !1020
  store i64 %26, ptr %_8, align 8, !dbg !1020
  %29 = getelementptr inbounds i8, ptr %_8, i64 8, !dbg !1020
  store i8 %28, ptr %29, align 8, !dbg !1020
  br label %bb27, !dbg !1020

bb27:                                             ; preds = %bb23, %bb22, %bb21, %bb20, %bb19, %bb18, %bb14, %bb13, %bb12, %bb17, %bb16, %bb15, %bb11, %bb10, %bb9
  %val = load i64, ptr %_8, align 8, !dbg !1021, !noundef !21
  store i64 %val, ptr %val.dbg.spill, align 8, !dbg !1021
  call void @llvm.dbg.declare(metadata ptr %val.dbg.spill, metadata !1008, metadata !DIExpression()), !dbg !1022
  %30 = getelementptr inbounds i8, ptr %_8, i64 8, !dbg !1023
  %31 = load i8, ptr %30, align 8, !dbg !1023, !range !634, !noundef !21
  %ok = trunc i8 %31 to i1, !dbg !1023
  %32 = zext i1 %ok to i8, !dbg !1023
  store i8 %32, ptr %ok.dbg.spill, align 1, !dbg !1023
  call void @llvm.dbg.declare(metadata ptr %ok.dbg.spill, metadata !1010, metadata !DIExpression()), !dbg !1024
  br i1 %ok, label %bb28, label %bb29, !dbg !1025

bb15:                                             ; preds = %bb3
  %33 = cmpxchg ptr %dst, i64 %old, i64 %new release monotonic, align 8, !dbg !1026
  %34 = extractvalue { i64, i1 } %33, 0, !dbg !1026
  %35 = extractvalue { i64, i1 } %33, 1, !dbg !1026
  %36 = zext i1 %35 to i8, !dbg !1026
  store i64 %34, ptr %_8, align 8, !dbg !1026
  %37 = getelementptr inbounds i8, ptr %_8, i64 8, !dbg !1026
  store i8 %36, ptr %37, align 8, !dbg !1026
  br label %bb27, !dbg !1026

bb16:                                             ; preds = %bb3
  %38 = cmpxchg ptr %dst, i64 %old, i64 %new release acquire, align 8, !dbg !1027
  %39 = extractvalue { i64, i1 } %38, 0, !dbg !1027
  %40 = extractvalue { i64, i1 } %38, 1, !dbg !1027
  %41 = zext i1 %40 to i8, !dbg !1027
  store i64 %39, ptr %_8, align 8, !dbg !1027
  %42 = getelementptr inbounds i8, ptr %_8, i64 8, !dbg !1027
  store i8 %41, ptr %42, align 8, !dbg !1027
  br label %bb27, !dbg !1027

bb17:                                             ; preds = %bb3
  %43 = cmpxchg ptr %dst, i64 %old, i64 %new release seq_cst, align 8, !dbg !1028
  %44 = extractvalue { i64, i1 } %43, 0, !dbg !1028
  %45 = extractvalue { i64, i1 } %43, 1, !dbg !1028
  %46 = zext i1 %45 to i8, !dbg !1028
  store i64 %44, ptr %_8, align 8, !dbg !1028
  %47 = getelementptr inbounds i8, ptr %_8, i64 8, !dbg !1028
  store i8 %46, ptr %47, align 8, !dbg !1028
  br label %bb27, !dbg !1028

bb12:                                             ; preds = %bb4
  %48 = cmpxchg ptr %dst, i64 %old, i64 %new acquire monotonic, align 8, !dbg !1029
  %49 = extractvalue { i64, i1 } %48, 0, !dbg !1029
  %50 = extractvalue { i64, i1 } %48, 1, !dbg !1029
  %51 = zext i1 %50 to i8, !dbg !1029
  store i64 %49, ptr %_8, align 8, !dbg !1029
  %52 = getelementptr inbounds i8, ptr %_8, i64 8, !dbg !1029
  store i8 %51, ptr %52, align 8, !dbg !1029
  br label %bb27, !dbg !1029

bb13:                                             ; preds = %bb4
  %53 = cmpxchg ptr %dst, i64 %old, i64 %new acquire acquire, align 8, !dbg !1030
  %54 = extractvalue { i64, i1 } %53, 0, !dbg !1030
  %55 = extractvalue { i64, i1 } %53, 1, !dbg !1030
  %56 = zext i1 %55 to i8, !dbg !1030
  store i64 %54, ptr %_8, align 8, !dbg !1030
  %57 = getelementptr inbounds i8, ptr %_8, i64 8, !dbg !1030
  store i8 %56, ptr %57, align 8, !dbg !1030
  br label %bb27, !dbg !1030

bb14:                                             ; preds = %bb4
  %58 = cmpxchg ptr %dst, i64 %old, i64 %new acquire seq_cst, align 8, !dbg !1031
  %59 = extractvalue { i64, i1 } %58, 0, !dbg !1031
  %60 = extractvalue { i64, i1 } %58, 1, !dbg !1031
  %61 = zext i1 %60 to i8, !dbg !1031
  store i64 %59, ptr %_8, align 8, !dbg !1031
  %62 = getelementptr inbounds i8, ptr %_8, i64 8, !dbg !1031
  store i8 %61, ptr %62, align 8, !dbg !1031
  br label %bb27, !dbg !1031

bb18:                                             ; preds = %bb5
  %63 = cmpxchg ptr %dst, i64 %old, i64 %new acq_rel monotonic, align 8, !dbg !1032
  %64 = extractvalue { i64, i1 } %63, 0, !dbg !1032
  %65 = extractvalue { i64, i1 } %63, 1, !dbg !1032
  %66 = zext i1 %65 to i8, !dbg !1032
  store i64 %64, ptr %_8, align 8, !dbg !1032
  %67 = getelementptr inbounds i8, ptr %_8, i64 8, !dbg !1032
  store i8 %66, ptr %67, align 8, !dbg !1032
  br label %bb27, !dbg !1032

bb19:                                             ; preds = %bb5
  %68 = cmpxchg ptr %dst, i64 %old, i64 %new acq_rel acquire, align 8, !dbg !1033
  %69 = extractvalue { i64, i1 } %68, 0, !dbg !1033
  %70 = extractvalue { i64, i1 } %68, 1, !dbg !1033
  %71 = zext i1 %70 to i8, !dbg !1033
  store i64 %69, ptr %_8, align 8, !dbg !1033
  %72 = getelementptr inbounds i8, ptr %_8, i64 8, !dbg !1033
  store i8 %71, ptr %72, align 8, !dbg !1033
  br label %bb27, !dbg !1033

bb20:                                             ; preds = %bb5
  %73 = cmpxchg ptr %dst, i64 %old, i64 %new acq_rel seq_cst, align 8, !dbg !1034
  %74 = extractvalue { i64, i1 } %73, 0, !dbg !1034
  %75 = extractvalue { i64, i1 } %73, 1, !dbg !1034
  %76 = zext i1 %75 to i8, !dbg !1034
  store i64 %74, ptr %_8, align 8, !dbg !1034
  %77 = getelementptr inbounds i8, ptr %_8, i64 8, !dbg !1034
  store i8 %76, ptr %77, align 8, !dbg !1034
  br label %bb27, !dbg !1034

bb21:                                             ; preds = %bb6
  %78 = cmpxchg ptr %dst, i64 %old, i64 %new seq_cst monotonic, align 8, !dbg !1035
  %79 = extractvalue { i64, i1 } %78, 0, !dbg !1035
  %80 = extractvalue { i64, i1 } %78, 1, !dbg !1035
  %81 = zext i1 %80 to i8, !dbg !1035
  store i64 %79, ptr %_8, align 8, !dbg !1035
  %82 = getelementptr inbounds i8, ptr %_8, i64 8, !dbg !1035
  store i8 %81, ptr %82, align 8, !dbg !1035
  br label %bb27, !dbg !1035

bb22:                                             ; preds = %bb6
  %83 = cmpxchg ptr %dst, i64 %old, i64 %new seq_cst acquire, align 8, !dbg !1036
  %84 = extractvalue { i64, i1 } %83, 0, !dbg !1036
  %85 = extractvalue { i64, i1 } %83, 1, !dbg !1036
  %86 = zext i1 %85 to i8, !dbg !1036
  store i64 %84, ptr %_8, align 8, !dbg !1036
  %87 = getelementptr inbounds i8, ptr %_8, i64 8, !dbg !1036
  store i8 %86, ptr %87, align 8, !dbg !1036
  br label %bb27, !dbg !1036

bb23:                                             ; preds = %bb6
  %88 = cmpxchg ptr %dst, i64 %old, i64 %new seq_cst seq_cst, align 8, !dbg !1037
  %89 = extractvalue { i64, i1 } %88, 0, !dbg !1037
  %90 = extractvalue { i64, i1 } %88, 1, !dbg !1037
  %91 = zext i1 %90 to i8, !dbg !1037
  store i64 %89, ptr %_8, align 8, !dbg !1037
  %92 = getelementptr inbounds i8, ptr %_8, i64 8, !dbg !1037
  store i8 %91, ptr %92, align 8, !dbg !1037
  br label %bb27, !dbg !1037

bb29:                                             ; preds = %bb27
  %93 = getelementptr inbounds i8, ptr %_0, i64 8, !dbg !1038
  store i64 %val, ptr %93, align 8, !dbg !1038
  store i64 1, ptr %_0, align 8, !dbg !1038
  br label %bb30, !dbg !1039

bb28:                                             ; preds = %bb27
  %94 = getelementptr inbounds i8, ptr %_0, i64 8, !dbg !1040
  store i64 %val, ptr %94, align 8, !dbg !1040
  store i64 0, ptr %_0, align 8, !dbg !1040
  br label %bb30, !dbg !1039

bb30:                                             ; preds = %bb28, %bb29
  %95 = load i64, ptr %_0, align 8, !dbg !1041, !range !823, !noundef !21
  %96 = getelementptr inbounds i8, ptr %_0, i64 8, !dbg !1041
  %97 = load i64, ptr %96, align 8, !dbg !1041, !noundef !21
  %98 = insertvalue { i64, i64 } poison, i64 %95, 0, !dbg !1041
  %99 = insertvalue { i64, i64 } %98, i64 %97, 1, !dbg !1041
  ret { i64, i64 } %99, !dbg !1041

bb8:                                              ; preds = %bb2
; call core::fmt::Arguments::new_const
  call void @_ZN4core3fmt9Arguments9new_const17h7b81b5943543e2b6E(ptr sret(%"core::fmt::Arguments<'_>") align 8 %_21, ptr align 8 @alloc_04ab601c54c6e0a22ff11d72dc7f4511, i64 1) #7, !dbg !1042
; call core::panicking::panic_fmt
  call void @_ZN4core9panicking9panic_fmt17ha5e30ccfbdd0aed8E(ptr align 8 %_21, ptr align 8 @alloc_a1555e0a155dca2f5083258fcbf483f1) #11, !dbg !1042
  unreachable, !dbg !1042

bb24:                                             ; preds = %bb2
; call core::fmt::Arguments::new_const
  call void @_ZN4core3fmt9Arguments9new_const17h7b81b5943543e2b6E(ptr sret(%"core::fmt::Arguments<'_>") align 8 %_18, ptr align 8 @alloc_dd7d8f77c173bf31726eae321f955bec, i64 1) #7, !dbg !1043
; call core::panicking::panic_fmt
  call void @_ZN4core9panicking9panic_fmt17ha5e30ccfbdd0aed8E(ptr align 8 %_18, ptr align 8 @alloc_33885c66f3e23721de7c078c26cbbbab) #11, !dbg !1043
  unreachable, !dbg !1043
}

; core::sync::atomic::strongest_failure_ordering
; Function Attrs: inlinehint noredzone nounwind
define internal i8 @_ZN4core4sync6atomic26strongest_failure_ordering17h178fa35f52e638beE(i8 %0) unnamed_addr #1 !dbg !1044 {
start:
  %_0 = alloca i8, align 1
  %order = alloca i8, align 1
  store i8 %0, ptr %order, align 1
  call void @llvm.dbg.declare(metadata ptr %order, metadata !1048, metadata !DIExpression()), !dbg !1049
  %1 = load i8, ptr %order, align 1, !dbg !1050, !range !637, !noundef !21
  %_2 = zext i8 %1 to i64, !dbg !1050
  switch i64 %_2, label %bb7 [
    i64 0, label %bb3
    i64 1, label %bb2
    i64 2, label %bb5
    i64 3, label %bb1
    i64 4, label %bb4
  ], !dbg !1051

bb7:                                              ; preds = %start
  unreachable, !dbg !1051

bb3:                                              ; preds = %start
  store i8 0, ptr %_0, align 1, !dbg !1052
  br label %bb6, !dbg !1052

bb2:                                              ; preds = %start
  store i8 0, ptr %_0, align 1, !dbg !1053
  br label %bb6, !dbg !1053

bb5:                                              ; preds = %start
  store i8 2, ptr %_0, align 1, !dbg !1054
  br label %bb6, !dbg !1054

bb1:                                              ; preds = %start
  store i8 2, ptr %_0, align 1, !dbg !1055
  br label %bb6, !dbg !1055

bb4:                                              ; preds = %start
  store i8 4, ptr %_0, align 1, !dbg !1056
  br label %bb6, !dbg !1056

bb6:                                              ; preds = %bb4, %bb1, %bb5, %bb2, %bb3
  %2 = load i8, ptr %_0, align 1, !dbg !1057, !range !637, !noundef !21
  ret i8 %2, !dbg !1057
}

; core::sync::atomic::atomic_compare_exchange_weak
; Function Attrs: inlinehint noredzone nounwind
define { i1, i8 } @_ZN4core4sync6atomic28atomic_compare_exchange_weak17hbb41bba15314bed2E(ptr %dst, i8 %old, i8 %new, i8 %success, i8 %failure) unnamed_addr #1 !dbg !1058 {
start:
  %ok.dbg.spill = alloca i8, align 1
  %val.dbg.spill = alloca i8, align 1
  %failure.dbg.spill = alloca i8, align 1
  %success.dbg.spill = alloca i8, align 1
  %new.dbg.spill = alloca i8, align 1
  %old.dbg.spill = alloca i8, align 1
  %dst.dbg.spill = alloca ptr, align 8
  %_21 = alloca %"core::fmt::Arguments<'_>", align 8
  %_18 = alloca %"core::fmt::Arguments<'_>", align 8
  %_9 = alloca { i8, i8 }, align 1
  %_8 = alloca { i8, i8 }, align 1
  %_0 = alloca %"core::result::Result<u8, u8>", align 1
  store ptr %dst, ptr %dst.dbg.spill, align 8
  call void @llvm.dbg.declare(metadata ptr %dst.dbg.spill, metadata !1060, metadata !DIExpression()), !dbg !1068
  store i8 %old, ptr %old.dbg.spill, align 1
  call void @llvm.dbg.declare(metadata ptr %old.dbg.spill, metadata !1061, metadata !DIExpression()), !dbg !1069
  store i8 %new, ptr %new.dbg.spill, align 1
  call void @llvm.dbg.declare(metadata ptr %new.dbg.spill, metadata !1062, metadata !DIExpression()), !dbg !1070
  store i8 %success, ptr %success.dbg.spill, align 1
  call void @llvm.dbg.declare(metadata ptr %success.dbg.spill, metadata !1063, metadata !DIExpression()), !dbg !1071
  store i8 %failure, ptr %failure.dbg.spill, align 1
  call void @llvm.dbg.declare(metadata ptr %failure.dbg.spill, metadata !1064, metadata !DIExpression()), !dbg !1072
  store i8 %success, ptr %_9, align 1, !dbg !1073
  %0 = getelementptr inbounds i8, ptr %_9, i64 1, !dbg !1073
  store i8 %failure, ptr %0, align 1, !dbg !1073
  %1 = load i8, ptr %_9, align 1, !dbg !1073, !range !637, !noundef !21
  %_16 = zext i8 %1 to i64, !dbg !1073
  switch i64 %_16, label %bb7 [
    i64 0, label %bb1
    i64 1, label %bb3
    i64 2, label %bb4
    i64 3, label %bb5
    i64 4, label %bb6
  ], !dbg !1074

bb7:                                              ; preds = %start
  unreachable, !dbg !1073

bb1:                                              ; preds = %start
  %2 = getelementptr inbounds i8, ptr %_9, i64 1, !dbg !1073
  %3 = load i8, ptr %2, align 1, !dbg !1073, !range !637, !noundef !21
  %_10 = zext i8 %3 to i64, !dbg !1073
  switch i64 %_10, label %bb2 [
    i64 0, label %bb9
    i64 2, label %bb10
    i64 4, label %bb11
  ], !dbg !1074

bb3:                                              ; preds = %start
  %4 = getelementptr inbounds i8, ptr %_9, i64 1, !dbg !1073
  %5 = load i8, ptr %4, align 1, !dbg !1073, !range !637, !noundef !21
  %_11 = zext i8 %5 to i64, !dbg !1073
  switch i64 %_11, label %bb2 [
    i64 0, label %bb15
    i64 2, label %bb16
    i64 4, label %bb17
  ], !dbg !1074

bb4:                                              ; preds = %start
  %6 = getelementptr inbounds i8, ptr %_9, i64 1, !dbg !1073
  %7 = load i8, ptr %6, align 1, !dbg !1073, !range !637, !noundef !21
  %_12 = zext i8 %7 to i64, !dbg !1073
  switch i64 %_12, label %bb2 [
    i64 0, label %bb12
    i64 2, label %bb13
    i64 4, label %bb14
  ], !dbg !1074

bb5:                                              ; preds = %start
  %8 = getelementptr inbounds i8, ptr %_9, i64 1, !dbg !1073
  %9 = load i8, ptr %8, align 1, !dbg !1073, !range !637, !noundef !21
  %_13 = zext i8 %9 to i64, !dbg !1073
  switch i64 %_13, label %bb2 [
    i64 0, label %bb18
    i64 2, label %bb19
    i64 4, label %bb20
  ], !dbg !1074

bb6:                                              ; preds = %start
  %10 = getelementptr inbounds i8, ptr %_9, i64 1, !dbg !1073
  %11 = load i8, ptr %10, align 1, !dbg !1073, !range !637, !noundef !21
  %_14 = zext i8 %11 to i64, !dbg !1073
  switch i64 %_14, label %bb2 [
    i64 0, label %bb21
    i64 2, label %bb22
    i64 4, label %bb23
  ], !dbg !1074

bb2:                                              ; preds = %bb6, %bb5, %bb4, %bb3, %bb1
  %12 = getelementptr inbounds i8, ptr %_9, i64 1, !dbg !1073
  %13 = load i8, ptr %12, align 1, !dbg !1073, !range !637, !noundef !21
  %_15 = zext i8 %13 to i64, !dbg !1073
  %14 = icmp eq i64 %_15, 1, !dbg !1074
  br i1 %14, label %bb8, label %bb24, !dbg !1074

bb9:                                              ; preds = %bb1
  %15 = cmpxchg weak ptr %dst, i8 %old, i8 %new monotonic monotonic, align 1, !dbg !1075
  %16 = extractvalue { i8, i1 } %15, 0, !dbg !1075
  %17 = extractvalue { i8, i1 } %15, 1, !dbg !1075
  %18 = zext i1 %17 to i8, !dbg !1075
  store i8 %16, ptr %_8, align 1, !dbg !1075
  %19 = getelementptr inbounds i8, ptr %_8, i64 1, !dbg !1075
  store i8 %18, ptr %19, align 1, !dbg !1075
  br label %bb27, !dbg !1075

bb10:                                             ; preds = %bb1
  %20 = cmpxchg weak ptr %dst, i8 %old, i8 %new monotonic acquire, align 1, !dbg !1076
  %21 = extractvalue { i8, i1 } %20, 0, !dbg !1076
  %22 = extractvalue { i8, i1 } %20, 1, !dbg !1076
  %23 = zext i1 %22 to i8, !dbg !1076
  store i8 %21, ptr %_8, align 1, !dbg !1076
  %24 = getelementptr inbounds i8, ptr %_8, i64 1, !dbg !1076
  store i8 %23, ptr %24, align 1, !dbg !1076
  br label %bb27, !dbg !1076

bb11:                                             ; preds = %bb1
  %25 = cmpxchg weak ptr %dst, i8 %old, i8 %new monotonic seq_cst, align 1, !dbg !1077
  %26 = extractvalue { i8, i1 } %25, 0, !dbg !1077
  %27 = extractvalue { i8, i1 } %25, 1, !dbg !1077
  %28 = zext i1 %27 to i8, !dbg !1077
  store i8 %26, ptr %_8, align 1, !dbg !1077
  %29 = getelementptr inbounds i8, ptr %_8, i64 1, !dbg !1077
  store i8 %28, ptr %29, align 1, !dbg !1077
  br label %bb27, !dbg !1077

bb27:                                             ; preds = %bb23, %bb22, %bb21, %bb20, %bb19, %bb18, %bb14, %bb13, %bb12, %bb17, %bb16, %bb15, %bb11, %bb10, %bb9
  %val = load i8, ptr %_8, align 1, !dbg !1078, !noundef !21
  store i8 %val, ptr %val.dbg.spill, align 1, !dbg !1078
  call void @llvm.dbg.declare(metadata ptr %val.dbg.spill, metadata !1065, metadata !DIExpression()), !dbg !1079
  %30 = getelementptr inbounds i8, ptr %_8, i64 1, !dbg !1080
  %31 = load i8, ptr %30, align 1, !dbg !1080, !range !634, !noundef !21
  %ok = trunc i8 %31 to i1, !dbg !1080
  %32 = zext i1 %ok to i8, !dbg !1080
  store i8 %32, ptr %ok.dbg.spill, align 1, !dbg !1080
  call void @llvm.dbg.declare(metadata ptr %ok.dbg.spill, metadata !1067, metadata !DIExpression()), !dbg !1081
  br i1 %ok, label %bb28, label %bb29, !dbg !1082

bb15:                                             ; preds = %bb3
  %33 = cmpxchg weak ptr %dst, i8 %old, i8 %new release monotonic, align 1, !dbg !1083
  %34 = extractvalue { i8, i1 } %33, 0, !dbg !1083
  %35 = extractvalue { i8, i1 } %33, 1, !dbg !1083
  %36 = zext i1 %35 to i8, !dbg !1083
  store i8 %34, ptr %_8, align 1, !dbg !1083
  %37 = getelementptr inbounds i8, ptr %_8, i64 1, !dbg !1083
  store i8 %36, ptr %37, align 1, !dbg !1083
  br label %bb27, !dbg !1083

bb16:                                             ; preds = %bb3
  %38 = cmpxchg weak ptr %dst, i8 %old, i8 %new release acquire, align 1, !dbg !1084
  %39 = extractvalue { i8, i1 } %38, 0, !dbg !1084
  %40 = extractvalue { i8, i1 } %38, 1, !dbg !1084
  %41 = zext i1 %40 to i8, !dbg !1084
  store i8 %39, ptr %_8, align 1, !dbg !1084
  %42 = getelementptr inbounds i8, ptr %_8, i64 1, !dbg !1084
  store i8 %41, ptr %42, align 1, !dbg !1084
  br label %bb27, !dbg !1084

bb17:                                             ; preds = %bb3
  %43 = cmpxchg weak ptr %dst, i8 %old, i8 %new release seq_cst, align 1, !dbg !1085
  %44 = extractvalue { i8, i1 } %43, 0, !dbg !1085
  %45 = extractvalue { i8, i1 } %43, 1, !dbg !1085
  %46 = zext i1 %45 to i8, !dbg !1085
  store i8 %44, ptr %_8, align 1, !dbg !1085
  %47 = getelementptr inbounds i8, ptr %_8, i64 1, !dbg !1085
  store i8 %46, ptr %47, align 1, !dbg !1085
  br label %bb27, !dbg !1085

bb12:                                             ; preds = %bb4
  %48 = cmpxchg weak ptr %dst, i8 %old, i8 %new acquire monotonic, align 1, !dbg !1086
  %49 = extractvalue { i8, i1 } %48, 0, !dbg !1086
  %50 = extractvalue { i8, i1 } %48, 1, !dbg !1086
  %51 = zext i1 %50 to i8, !dbg !1086
  store i8 %49, ptr %_8, align 1, !dbg !1086
  %52 = getelementptr inbounds i8, ptr %_8, i64 1, !dbg !1086
  store i8 %51, ptr %52, align 1, !dbg !1086
  br label %bb27, !dbg !1086

bb13:                                             ; preds = %bb4
  %53 = cmpxchg weak ptr %dst, i8 %old, i8 %new acquire acquire, align 1, !dbg !1087
  %54 = extractvalue { i8, i1 } %53, 0, !dbg !1087
  %55 = extractvalue { i8, i1 } %53, 1, !dbg !1087
  %56 = zext i1 %55 to i8, !dbg !1087
  store i8 %54, ptr %_8, align 1, !dbg !1087
  %57 = getelementptr inbounds i8, ptr %_8, i64 1, !dbg !1087
  store i8 %56, ptr %57, align 1, !dbg !1087
  br label %bb27, !dbg !1087

bb14:                                             ; preds = %bb4
  %58 = cmpxchg weak ptr %dst, i8 %old, i8 %new acquire seq_cst, align 1, !dbg !1088
  %59 = extractvalue { i8, i1 } %58, 0, !dbg !1088
  %60 = extractvalue { i8, i1 } %58, 1, !dbg !1088
  %61 = zext i1 %60 to i8, !dbg !1088
  store i8 %59, ptr %_8, align 1, !dbg !1088
  %62 = getelementptr inbounds i8, ptr %_8, i64 1, !dbg !1088
  store i8 %61, ptr %62, align 1, !dbg !1088
  br label %bb27, !dbg !1088

bb18:                                             ; preds = %bb5
  %63 = cmpxchg weak ptr %dst, i8 %old, i8 %new acq_rel monotonic, align 1, !dbg !1089
  %64 = extractvalue { i8, i1 } %63, 0, !dbg !1089
  %65 = extractvalue { i8, i1 } %63, 1, !dbg !1089
  %66 = zext i1 %65 to i8, !dbg !1089
  store i8 %64, ptr %_8, align 1, !dbg !1089
  %67 = getelementptr inbounds i8, ptr %_8, i64 1, !dbg !1089
  store i8 %66, ptr %67, align 1, !dbg !1089
  br label %bb27, !dbg !1089

bb19:                                             ; preds = %bb5
  %68 = cmpxchg weak ptr %dst, i8 %old, i8 %new acq_rel acquire, align 1, !dbg !1090
  %69 = extractvalue { i8, i1 } %68, 0, !dbg !1090
  %70 = extractvalue { i8, i1 } %68, 1, !dbg !1090
  %71 = zext i1 %70 to i8, !dbg !1090
  store i8 %69, ptr %_8, align 1, !dbg !1090
  %72 = getelementptr inbounds i8, ptr %_8, i64 1, !dbg !1090
  store i8 %71, ptr %72, align 1, !dbg !1090
  br label %bb27, !dbg !1090

bb20:                                             ; preds = %bb5
  %73 = cmpxchg weak ptr %dst, i8 %old, i8 %new acq_rel seq_cst, align 1, !dbg !1091
  %74 = extractvalue { i8, i1 } %73, 0, !dbg !1091
  %75 = extractvalue { i8, i1 } %73, 1, !dbg !1091
  %76 = zext i1 %75 to i8, !dbg !1091
  store i8 %74, ptr %_8, align 1, !dbg !1091
  %77 = getelementptr inbounds i8, ptr %_8, i64 1, !dbg !1091
  store i8 %76, ptr %77, align 1, !dbg !1091
  br label %bb27, !dbg !1091

bb21:                                             ; preds = %bb6
  %78 = cmpxchg weak ptr %dst, i8 %old, i8 %new seq_cst monotonic, align 1, !dbg !1092
  %79 = extractvalue { i8, i1 } %78, 0, !dbg !1092
  %80 = extractvalue { i8, i1 } %78, 1, !dbg !1092
  %81 = zext i1 %80 to i8, !dbg !1092
  store i8 %79, ptr %_8, align 1, !dbg !1092
  %82 = getelementptr inbounds i8, ptr %_8, i64 1, !dbg !1092
  store i8 %81, ptr %82, align 1, !dbg !1092
  br label %bb27, !dbg !1092

bb22:                                             ; preds = %bb6
  %83 = cmpxchg weak ptr %dst, i8 %old, i8 %new seq_cst acquire, align 1, !dbg !1093
  %84 = extractvalue { i8, i1 } %83, 0, !dbg !1093
  %85 = extractvalue { i8, i1 } %83, 1, !dbg !1093
  %86 = zext i1 %85 to i8, !dbg !1093
  store i8 %84, ptr %_8, align 1, !dbg !1093
  %87 = getelementptr inbounds i8, ptr %_8, i64 1, !dbg !1093
  store i8 %86, ptr %87, align 1, !dbg !1093
  br label %bb27, !dbg !1093

bb23:                                             ; preds = %bb6
  %88 = cmpxchg weak ptr %dst, i8 %old, i8 %new seq_cst seq_cst, align 1, !dbg !1094
  %89 = extractvalue { i8, i1 } %88, 0, !dbg !1094
  %90 = extractvalue { i8, i1 } %88, 1, !dbg !1094
  %91 = zext i1 %90 to i8, !dbg !1094
  store i8 %89, ptr %_8, align 1, !dbg !1094
  %92 = getelementptr inbounds i8, ptr %_8, i64 1, !dbg !1094
  store i8 %91, ptr %92, align 1, !dbg !1094
  br label %bb27, !dbg !1094

bb29:                                             ; preds = %bb27
  %93 = getelementptr inbounds i8, ptr %_0, i64 1, !dbg !1095
  store i8 %val, ptr %93, align 1, !dbg !1095
  store i8 1, ptr %_0, align 1, !dbg !1095
  br label %bb30, !dbg !1096

bb28:                                             ; preds = %bb27
  %94 = getelementptr inbounds i8, ptr %_0, i64 1, !dbg !1097
  store i8 %val, ptr %94, align 1, !dbg !1097
  store i8 0, ptr %_0, align 1, !dbg !1097
  br label %bb30, !dbg !1096

bb30:                                             ; preds = %bb28, %bb29
  %95 = load i8, ptr %_0, align 1, !dbg !1098, !range !634, !noundef !21
  %96 = trunc i8 %95 to i1, !dbg !1098
  %97 = getelementptr inbounds i8, ptr %_0, i64 1, !dbg !1098
  %98 = load i8, ptr %97, align 1, !dbg !1098, !noundef !21
  %99 = insertvalue { i1, i8 } poison, i1 %96, 0, !dbg !1098
  %100 = insertvalue { i1, i8 } %99, i8 %98, 1, !dbg !1098
  ret { i1, i8 } %100, !dbg !1098

bb8:                                              ; preds = %bb2
; call core::fmt::Arguments::new_const
  call void @_ZN4core3fmt9Arguments9new_const17h7b81b5943543e2b6E(ptr sret(%"core::fmt::Arguments<'_>") align 8 %_21, ptr align 8 @alloc_04ab601c54c6e0a22ff11d72dc7f4511, i64 1) #7, !dbg !1099
; call core::panicking::panic_fmt
  call void @_ZN4core9panicking9panic_fmt17ha5e30ccfbdd0aed8E(ptr align 8 %_21, ptr align 8 @alloc_06a420d8deee50645e90f2290df13e81) #11, !dbg !1099
  unreachable, !dbg !1099

bb24:                                             ; preds = %bb2
; call core::fmt::Arguments::new_const
  call void @_ZN4core3fmt9Arguments9new_const17h7b81b5943543e2b6E(ptr sret(%"core::fmt::Arguments<'_>") align 8 %_18, ptr align 8 @alloc_dd7d8f77c173bf31726eae321f955bec, i64 1) #7, !dbg !1100
; call core::panicking::panic_fmt
  call void @_ZN4core9panicking9panic_fmt17ha5e30ccfbdd0aed8E(ptr align 8 %_18, ptr align 8 @alloc_977f08ebfb81be136063f2d5037813a1) #11, !dbg !1100
  unreachable, !dbg !1100
}

; core::sync::atomic::atomic_or
; Function Attrs: inlinehint noredzone nounwind
define i8 @_ZN4core4sync6atomic9atomic_or17hd4b48d2f72998a5cE(ptr %dst, i8 %val, i8 %0) unnamed_addr #1 !dbg !1101 {
start:
  %val.dbg.spill = alloca i8, align 1
  %dst.dbg.spill = alloca ptr, align 8
  %_0 = alloca i8, align 1
  %order = alloca i8, align 1
  store i8 %0, ptr %order, align 1
  store ptr %dst, ptr %dst.dbg.spill, align 8
  call void @llvm.dbg.declare(metadata ptr %dst.dbg.spill, metadata !1103, metadata !DIExpression()), !dbg !1106
  store i8 %val, ptr %val.dbg.spill, align 1
  call void @llvm.dbg.declare(metadata ptr %val.dbg.spill, metadata !1104, metadata !DIExpression()), !dbg !1107
  call void @llvm.dbg.declare(metadata ptr %order, metadata !1105, metadata !DIExpression()), !dbg !1108
  %1 = load i8, ptr %order, align 1, !dbg !1109, !range !637, !noundef !21
  %_4 = zext i8 %1 to i64, !dbg !1109
  switch i64 %_4, label %bb7 [
    i64 0, label %bb1
    i64 1, label %bb4
    i64 2, label %bb3
    i64 3, label %bb5
    i64 4, label %bb2
  ], !dbg !1110

bb7:                                              ; preds = %start
  unreachable, !dbg !1110

bb1:                                              ; preds = %start
  %2 = atomicrmw or ptr %dst, i8 %val monotonic, align 1, !dbg !1111
  store i8 %2, ptr %_0, align 1, !dbg !1111
  br label %bb6, !dbg !1111

bb4:                                              ; preds = %start
  %3 = atomicrmw or ptr %dst, i8 %val release, align 1, !dbg !1112
  store i8 %3, ptr %_0, align 1, !dbg !1112
  br label %bb6, !dbg !1112

bb3:                                              ; preds = %start
  %4 = atomicrmw or ptr %dst, i8 %val acquire, align 1, !dbg !1113
  store i8 %4, ptr %_0, align 1, !dbg !1113
  br label %bb6, !dbg !1113

bb5:                                              ; preds = %start
  %5 = atomicrmw or ptr %dst, i8 %val acq_rel, align 1, !dbg !1114
  store i8 %5, ptr %_0, align 1, !dbg !1114
  br label %bb6, !dbg !1114

bb2:                                              ; preds = %start
  %6 = atomicrmw or ptr %dst, i8 %val seq_cst, align 1, !dbg !1115
  store i8 %6, ptr %_0, align 1, !dbg !1115
  br label %bb6, !dbg !1115

bb6:                                              ; preds = %bb2, %bb5, %bb3, %bb4, %bb1
  %7 = load i8, ptr %_0, align 1, !dbg !1116, !noundef !21
  ret i8 %7, !dbg !1116
}

; core::option::Option<T>::as_ref
; Function Attrs: inlinehint noredzone nounwind
define align 8 ptr @"_ZN4core6option15Option$LT$T$GT$6as_ref17h62ab772e288a1863E"(ptr align 8 %self) unnamed_addr #1 !dbg !1117 {
start:
  %x.dbg.spill = alloca ptr, align 8
  %self.dbg.spill = alloca ptr, align 8
  %_0 = alloca ptr, align 8
  store ptr %self, ptr %self.dbg.spill, align 8
  call void @llvm.dbg.declare(metadata ptr %self.dbg.spill, metadata !1138, metadata !DIExpression()), !dbg !1141
  %_2 = load i64, ptr %self, align 8, !dbg !1142, !range !823, !noundef !21
  %0 = icmp eq i64 %_2, 0, !dbg !1143
  br i1 %0, label %bb1, label %bb3, !dbg !1143

bb1:                                              ; preds = %start
  store ptr null, ptr %_0, align 8, !dbg !1144
  br label %bb4, !dbg !1144

bb3:                                              ; preds = %start
  %x = getelementptr inbounds %"core::option::Option<global_descriptor_table::GlobalDescriptorTableSetup>::Some", ptr %self, i32 0, i32 1, !dbg !1145
  store ptr %x, ptr %x.dbg.spill, align 8, !dbg !1145
  call void @llvm.dbg.declare(metadata ptr %x.dbg.spill, metadata !1139, metadata !DIExpression()), !dbg !1146
  store ptr %x, ptr %_0, align 8, !dbg !1147
  br label %bb4, !dbg !1148

bb4:                                              ; preds = %bb3, %bb1
  %1 = load ptr, ptr %_0, align 8, !dbg !1149, !align !286, !noundef !21
  ret ptr %1, !dbg !1149

bb2:                                              ; No predecessors!
  unreachable, !dbg !1142
}

; core::result::Result<T,E>::is_ok
; Function Attrs: inlinehint noredzone nounwind
define zeroext i1 @"_ZN4core6result19Result$LT$T$C$E$GT$5is_ok17h7defa65858842dd7E"(ptr align 1 %self) unnamed_addr #1 !dbg !1150 {
start:
  %self.dbg.spill = alloca ptr, align 8
  store ptr %self, ptr %self.dbg.spill, align 8
  call void @llvm.dbg.declare(metadata ptr %self.dbg.spill, metadata !1157, metadata !DIExpression()), !dbg !1158
  %0 = load i8, ptr %self, align 1, !dbg !1159, !range !634, !noundef !21
  %1 = trunc i8 %0 to i1, !dbg !1159
  %_2 = zext i1 %1 to i64, !dbg !1159
  %_0 = icmp eq i64 %_2, 0, !dbg !1160
  ret i1 %_0, !dbg !1161
}

; core::result::Result<T,E>::is_err
; Function Attrs: inlinehint noredzone nounwind
define zeroext i1 @"_ZN4core6result19Result$LT$T$C$E$GT$6is_err17h8269d6d291908066E"(ptr align 1 %self) unnamed_addr #1 !dbg !1162 {
start:
  %self.dbg.spill = alloca ptr, align 8
  store ptr %self, ptr %self.dbg.spill, align 8
  call void @llvm.dbg.declare(metadata ptr %self.dbg.spill, metadata !1165, metadata !DIExpression()), !dbg !1166
; call core::result::Result<T,E>::is_ok
  %_2 = call zeroext i1 @"_ZN4core6result19Result$LT$T$C$E$GT$5is_ok17h7defa65858842dd7E"(ptr align 1 %self) #7, !dbg !1167
  %_0 = xor i1 %_2, true, !dbg !1168
  ret i1 %_0, !dbg !1169
}

; core::core_arch::x86::sse2::_mm_pause
; Function Attrs: inlinehint noredzone nounwind
define internal void @_ZN4core9core_arch3x864sse29_mm_pause17h2fc206aa006dff08E() unnamed_addr #1 !dbg !1170 {
start:
  call void @llvm.x86.sse2.pause() #7, !dbg !1175
  ret void, !dbg !1176
}

; spin::once::Once<T>::call_once
; Function Attrs: noredzone nounwind
define align 8 ptr @"_ZN4spin4once13Once$LT$T$GT$9call_once17hbc572ada3c0baf7cE"(ptr align 8 %self) unnamed_addr #0 !dbg !1177 {
start:
  %self.dbg.spill.i = alloca ptr, align 8
  %builder.dbg.spill = alloca {}, align 1
  %self.dbg.spill = alloca ptr, align 8
  %_33 = alloca i8, align 1
  %_29 = alloca i8, align 1
  %_23 = alloca i8, align 1
  %_16 = alloca %"global_descriptor_table::GlobalDescriptorTableSetup", align 8
  %_15 = alloca %"core::option::Option<global_descriptor_table::GlobalDescriptorTableSetup>", align 8
  %finish = alloca %"spin::once::Finish<'_>", align 8
  %_10 = alloca i8, align 1
  %_5 = alloca i8, align 1
  %status = alloca i64, align 8
  %_0 = alloca ptr, align 8
  store ptr %self, ptr %self.dbg.spill, align 8
  call void @llvm.dbg.declare(metadata ptr %self.dbg.spill, metadata !1186, metadata !DIExpression()), !dbg !1192
  call void @llvm.dbg.declare(metadata ptr %builder.dbg.spill, metadata !1187, metadata !DIExpression()), !dbg !1193
  call void @llvm.dbg.declare(metadata ptr %status, metadata !1188, metadata !DIExpression()), !dbg !1194
  call void @llvm.dbg.declare(metadata ptr %finish, metadata !1190, metadata !DIExpression()), !dbg !1195
  store i8 0, ptr %_33, align 1, !dbg !1196
  store i8 1, ptr %_33, align 1, !dbg !1196
  store i8 4, ptr %_5, align 1, !dbg !1197
  %0 = load i8, ptr %_5, align 1, !dbg !1198, !range !637, !noundef !21
; call core::sync::atomic::AtomicUsize::load
  %1 = call i64 @_ZN4core4sync6atomic11AtomicUsize4load17h0c8053239923f58dE(ptr align 8 %self, i8 %0) #7, !dbg !1198
  store i64 %1, ptr %status, align 8, !dbg !1198
  %_7 = load i64, ptr %status, align 8, !dbg !1199, !noundef !21
  %_6 = icmp eq i64 %_7, 0, !dbg !1199
  br i1 %_6, label %bb2, label %bb10, !dbg !1199

bb10:                                             ; preds = %bb13, %bb2, %start
  %2 = load i64, ptr %status, align 8, !dbg !1200, !noundef !21
  switch i64 %2, label %bb11 [
    i64 0, label %bb12
    i64 1, label %bb13
    i64 3, label %bb16
    i64 2, label %bb17
  ], !dbg !1200

bb2:                                              ; preds = %start
  store i8 4, ptr %_10, align 1, !dbg !1201
  %3 = load i8, ptr %_10, align 1, !dbg !1202, !range !637, !noundef !21
; call core::sync::atomic::AtomicUsize::compare_and_swap
  %_8 = call i64 @_ZN4core4sync6atomic11AtomicUsize16compare_and_swap17hfacb15461b73825bE(ptr align 8 %self, i64 0, i64 1, i8 %3) #7, !dbg !1202
  store i64 %_8, ptr %status, align 8, !dbg !1203
  %_12 = load i64, ptr %status, align 8, !dbg !1204, !noundef !21
  %_11 = icmp eq i64 %_12, 0, !dbg !1204
  br i1 %_11, label %bb4, label %bb10, !dbg !1204

bb4:                                              ; preds = %bb2
  store ptr %self, ptr %finish, align 8, !dbg !1205
  %4 = getelementptr inbounds i8, ptr %finish, i64 8, !dbg !1205
  store i8 1, ptr %4, align 8, !dbg !1205
  store i8 0, ptr %_33, align 1, !dbg !1206
; call core::ops::function::FnOnce::call_once
  call void @_ZN4core3ops8function6FnOnce9call_once17hd8a267932d887b67E(ptr sret(%"global_descriptor_table::GlobalDescriptorTableSetup") align 8 %_16) #7, !dbg !1206
  %5 = getelementptr inbounds %"core::option::Option<global_descriptor_table::GlobalDescriptorTableSetup>::Some", ptr %_15, i32 0, i32 1, !dbg !1207
  call void @llvm.memcpy.p0.p0.i64(ptr align 8 %5, ptr align 8 %_16, i64 80, i1 false), !dbg !1207
  store i64 1, ptr %_15, align 8, !dbg !1207
  %_19 = getelementptr inbounds %"spin::once::Once<global_descriptor_table::GlobalDescriptorTableSetup>", ptr %self, i32 0, i32 1, !dbg !1208
  store ptr %_19, ptr %self.dbg.spill.i, align 8
  call void @llvm.dbg.declare(metadata ptr %self.dbg.spill.i, metadata !1209, metadata !DIExpression()), !dbg !1217
  call void @llvm.memcpy.p0.p0.i64(ptr align 8 %_19, ptr align 8 %_15, i64 88, i1 false), !dbg !1219
  %6 = getelementptr inbounds i8, ptr %finish, i64 8, !dbg !1220
  store i8 0, ptr %6, align 8, !dbg !1220
  store i64 2, ptr %status, align 8, !dbg !1221
  %_22 = load i64, ptr %status, align 8, !dbg !1222, !noundef !21
  store i8 4, ptr %_23, align 1, !dbg !1223
  %7 = load i8, ptr %_23, align 1, !dbg !1224, !range !637, !noundef !21
; call core::sync::atomic::AtomicUsize::store
  call void @_ZN4core4sync6atomic11AtomicUsize5store17h1d0536202c2ff1abE(ptr align 8 %self, i64 %_22, i8 %7) #7, !dbg !1224
; call spin::once::Once<T>::force_get
  %_24 = call align 8 ptr @"_ZN4spin4once13Once$LT$T$GT$9force_get17h18a65f80272be668E"(ptr align 8 %self) #7, !dbg !1225
  store ptr %_24, ptr %_0, align 8, !dbg !1225
; call core::ptr::drop_in_place<spin::once::Finish>
  call void @"_ZN4core3ptr39drop_in_place$LT$spin..once..Finish$GT$17h555ec6f99d097d21E"(ptr align 8 %finish) #7, !dbg !1226
  br label %bb19, !dbg !1226

bb11:                                             ; preds = %bb10
; call core::hint::unreachable_unchecked
  call void @_ZN4core4hint21unreachable_unchecked17h83abffa6aff08e2cE() #11, !dbg !1227
  unreachable, !dbg !1227

bb12:                                             ; preds = %bb10
; call core::panicking::panic
  call void @_ZN4core9panicking5panic17h6f817e467d9b8599E(ptr align 1 @alloc_a500d906b91607583596fa15e63c2ada, i64 40, ptr align 8 @alloc_5be19f098388ddfa34a5cde2d2c61c94) #11, !dbg !1228
  unreachable, !dbg !1228

bb13:                                             ; preds = %bb10
; call core::sync::atomic::spin_loop_hint
  call void @_ZN4core4sync6atomic14spin_loop_hint17h14dba7e6e7ddc98aE() #7, !dbg !1229
  store i8 4, ptr %_29, align 1, !dbg !1230
  %8 = load i8, ptr %_29, align 1, !dbg !1231, !range !637, !noundef !21
; call core::sync::atomic::AtomicUsize::load
  %_27 = call i64 @_ZN4core4sync6atomic11AtomicUsize4load17h0c8053239923f58dE(ptr align 8 %self, i8 %8) #7, !dbg !1231
  store i64 %_27, ptr %status, align 8, !dbg !1232
  br label %bb10, !dbg !1233

bb16:                                             ; preds = %bb10
; call core::panicking::panic
  call void @_ZN4core9panicking5panic17h6f817e467d9b8599E(ptr align 1 @alloc_b41ce9db6ff9e09c515cee5b4d05db5e, i64 17, ptr align 8 @alloc_cbdd636a907b817e5acd19150abaf3dc) #11, !dbg !1234
  unreachable, !dbg !1234

bb17:                                             ; preds = %bb10
; call spin::once::Once<T>::force_get
  %_31 = call align 8 ptr @"_ZN4spin4once13Once$LT$T$GT$9force_get17h18a65f80272be668E"(ptr align 8 %self) #7, !dbg !1235
  store ptr %_31, ptr %_0, align 8, !dbg !1235
  br label %bb19, !dbg !1236

bb19:                                             ; preds = %bb4, %bb17
  %9 = load i8, ptr %_33, align 1, !dbg !1239, !range !634, !noundef !21
  %10 = trunc i8 %9 to i1, !dbg !1239
  br i1 %10, label %bb21, label %bb20, !dbg !1239

bb20:                                             ; preds = %bb21, %bb19
  %11 = load ptr, ptr %_0, align 8, !dbg !1240, !nonnull !21, !align !286, !noundef !21
  ret ptr %11, !dbg !1240

bb21:                                             ; preds = %bb19
  br label %bb20, !dbg !1239
}

; spin::once::Once<T>::force_get
; Function Attrs: noredzone nounwind
define align 8 ptr @"_ZN4spin4once13Once$LT$T$GT$9force_get17h18a65f80272be668E"(ptr align 8 %self) unnamed_addr #0 !dbg !1241 {
start:
  %self.dbg.spill.i = alloca ptr, align 8
  %p.dbg.spill = alloca ptr, align 8
  %self.dbg.spill = alloca ptr, align 8
  %_2 = alloca ptr, align 8
  store ptr %self, ptr %self.dbg.spill, align 8
  call void @llvm.dbg.declare(metadata ptr %self.dbg.spill, metadata !1246, metadata !DIExpression()), !dbg !1249
  %_5 = getelementptr inbounds %"spin::once::Once<global_descriptor_table::GlobalDescriptorTableSetup>", ptr %self, i32 0, i32 1, !dbg !1250
  store ptr %_5, ptr %self.dbg.spill.i, align 8
  call void @llvm.dbg.declare(metadata ptr %self.dbg.spill.i, metadata !1209, metadata !DIExpression()), !dbg !1251
; call core::option::Option<T>::as_ref
  %0 = call align 8 ptr @"_ZN4core6option15Option$LT$T$GT$6as_ref17h62ab772e288a1863E"(ptr align 8 %_5) #7, !dbg !1253
  store ptr %0, ptr %_2, align 8, !dbg !1253
  %1 = load ptr, ptr %_2, align 8, !dbg !1253, !noundef !21
  %2 = ptrtoint ptr %1 to i64, !dbg !1253
  %3 = icmp eq i64 %2, 0, !dbg !1253
  %_6 = select i1 %3, i64 0, i64 1, !dbg !1253
  %4 = icmp eq i64 %_6, 0, !dbg !1254
  br i1 %4, label %bb4, label %bb3, !dbg !1254

bb4:                                              ; preds = %start
; call core::hint::unreachable_unchecked
  call void @_ZN4core4hint21unreachable_unchecked17h83abffa6aff08e2cE() #11, !dbg !1255
  unreachable, !dbg !1255

bb3:                                              ; preds = %start
  %p = load ptr, ptr %_2, align 8, !dbg !1256, !nonnull !21, !align !286, !noundef !21
  store ptr %p, ptr %p.dbg.spill, align 8, !dbg !1256
  call void @llvm.dbg.declare(metadata ptr %p.dbg.spill, metadata !1247, metadata !DIExpression()), !dbg !1257
  ret ptr %p, !dbg !1258

bb5:                                              ; No predecessors!
  unreachable, !dbg !1254
}

; x86_64::structures::gdt::Descriptor::tss_segment
; Function Attrs: inlinehint noredzone nounwind
define internal void @_ZN6x86_6410structures3gdt10Descriptor11tss_segment17ha9cbcf7c59d30595E(ptr sret(%"x86_64::structures::gdt::Descriptor") align 8 %_0, ptr align 4 %tss) unnamed_addr #1 !dbg !1259 {
start:
  %tss.dbg.spill = alloca ptr, align 8
  store ptr %tss, ptr %tss.dbg.spill, align 8
  call void @llvm.dbg.declare(metadata ptr %tss.dbg.spill, metadata !1280, metadata !DIExpression()), !dbg !1281
; call x86_64::structures::gdt::Descriptor::tss_segment_unchecked
  call void @_ZN6x86_6410structures3gdt10Descriptor21tss_segment_unchecked17he0b0d07309633a0dE(ptr sret(%"x86_64::structures::gdt::Descriptor") align 8 %_0, ptr %tss) #7, !dbg !1282
  ret void, !dbg !1283
}

; x86_64::structures::gdt::Descriptor::kernel_code_segment
; Function Attrs: inlinehint noredzone nounwind
define internal void @_ZN6x86_6410structures3gdt10Descriptor19kernel_code_segment17h6802161c0f4b25feE(ptr sret(%"x86_64::structures::gdt::Descriptor") align 8 %_0) unnamed_addr #1 !dbg !1284 {
start:
; call x86_64::structures::gdt::_::<impl x86_64::structures::gdt::DescriptorFlags>::bits
  %_1 = call i64 @"_ZN6x86_6410structures3gdt1_58_$LT$impl$u20$x86_64..structures..gdt..DescriptorFlags$GT$4bits17h87be423ed757fd1eE"(ptr align 8 @alloc_047faabbe6ef5a15898762b6e3e08ed6) #7, !dbg !1288
  %0 = getelementptr inbounds %"x86_64::structures::gdt::Descriptor::UserSegment", ptr %_0, i32 0, i32 1, !dbg !1289
  store i64 %_1, ptr %0, align 8, !dbg !1289
  store i64 0, ptr %_0, align 8, !dbg !1289
  ret void, !dbg !1290
}

; x86_64::structures::gdt::Descriptor::tss_segment_unchecked
; Function Attrs: inlinehint noredzone nounwind
define internal void @_ZN6x86_6410structures3gdt10Descriptor21tss_segment_unchecked17he0b0d07309633a0dE(ptr sret(%"x86_64::structures::gdt::Descriptor") align 8 %_0, ptr %tss) unnamed_addr #1 !dbg !1291 {
start:
  %tss.dbg.spill = alloca ptr, align 8
  %_32 = alloca %"core::ops::range::Range<usize>", align 8
  %_29 = alloca %"core::ops::range::Range<usize>", align 8
  %high = alloca i64, align 8
  %_25 = alloca %"core::ops::range::Range<usize>", align 8
  %_18 = alloca %"core::ops::range::Range<usize>", align 8
  %_15 = alloca %"core::ops::range::Range<usize>", align 8
  %_12 = alloca %"core::ops::range::Range<usize>", align 8
  %_9 = alloca %"core::ops::range::Range<usize>", align 8
  %_6 = alloca %"core::ops::range::Range<usize>", align 8
  %low = alloca i64, align 8
  %ptr = alloca i64, align 8
  store ptr %tss, ptr %tss.dbg.spill, align 8
  call void @llvm.dbg.declare(metadata ptr %tss.dbg.spill, metadata !1297, metadata !DIExpression()), !dbg !1304
  call void @llvm.dbg.declare(metadata ptr %ptr, metadata !1298, metadata !DIExpression()), !dbg !1305
  call void @llvm.dbg.declare(metadata ptr %low, metadata !1300, metadata !DIExpression()), !dbg !1306
  call void @llvm.dbg.declare(metadata ptr %high, metadata !1302, metadata !DIExpression()), !dbg !1307
  %0 = ptrtoint ptr %tss to i64, !dbg !1308
  store i64 %0, ptr %ptr, align 8, !dbg !1308
; call x86_64::structures::gdt::_::<impl x86_64::structures::gdt::DescriptorFlags>::bits
  %1 = call i64 @"_ZN6x86_6410structures3gdt1_58_$LT$impl$u20$x86_64..structures..gdt..DescriptorFlags$GT$4bits17h87be423ed757fd1eE"(ptr align 8 @alloc_a2052f5a732c6560387218d7aa6b4ca1) #7, !dbg !1309
  store i64 %1, ptr %low, align 8, !dbg !1309
  store i64 16, ptr %_6, align 8, !dbg !1310
  %2 = getelementptr inbounds i8, ptr %_6, i64 8, !dbg !1310
  store i64 40, ptr %2, align 8, !dbg !1310
  store i64 0, ptr %_9, align 8, !dbg !1311
  %3 = getelementptr inbounds i8, ptr %_9, i64 8, !dbg !1311
  store i64 24, ptr %3, align 8, !dbg !1311
  %4 = load i64, ptr %_9, align 8, !dbg !1312, !noundef !21
  %5 = getelementptr inbounds i8, ptr %_9, i64 8, !dbg !1312
  %6 = load i64, ptr %5, align 8, !dbg !1312, !noundef !21
; call <u64 as bit_field::BitField>::get_bits
  %_7 = call i64 @"_ZN43_$LT$u64$u20$as$u20$bit_field..BitField$GT$8get_bits17hd5ec38978b171225E"(ptr align 8 %ptr, i64 %4, i64 %6) #7, !dbg !1312
  %7 = load i64, ptr %_6, align 8, !dbg !1313, !noundef !21
  %8 = getelementptr inbounds i8, ptr %_6, i64 8, !dbg !1313
  %9 = load i64, ptr %8, align 8, !dbg !1313, !noundef !21
; call <u64 as bit_field::BitField>::set_bits
  %_4 = call align 8 ptr @"_ZN43_$LT$u64$u20$as$u20$bit_field..BitField$GT$8set_bits17h9800aceb3a7949caE"(ptr align 8 %low, i64 %7, i64 %9, i64 %_7) #7, !dbg !1313
  store i64 56, ptr %_12, align 8, !dbg !1314
  %10 = getelementptr inbounds i8, ptr %_12, i64 8, !dbg !1314
  store i64 64, ptr %10, align 8, !dbg !1314
  store i64 24, ptr %_15, align 8, !dbg !1315
  %11 = getelementptr inbounds i8, ptr %_15, i64 8, !dbg !1315
  store i64 32, ptr %11, align 8, !dbg !1315
  %12 = load i64, ptr %_15, align 8, !dbg !1316, !noundef !21
  %13 = getelementptr inbounds i8, ptr %_15, i64 8, !dbg !1316
  %14 = load i64, ptr %13, align 8, !dbg !1316, !noundef !21
; call <u64 as bit_field::BitField>::get_bits
  %_13 = call i64 @"_ZN43_$LT$u64$u20$as$u20$bit_field..BitField$GT$8get_bits17hd5ec38978b171225E"(ptr align 8 %ptr, i64 %12, i64 %14) #7, !dbg !1316
  %15 = load i64, ptr %_12, align 8, !dbg !1317, !noundef !21
  %16 = getelementptr inbounds i8, ptr %_12, i64 8, !dbg !1317
  %17 = load i64, ptr %16, align 8, !dbg !1317, !noundef !21
; call <u64 as bit_field::BitField>::set_bits
  %_10 = call align 8 ptr @"_ZN43_$LT$u64$u20$as$u20$bit_field..BitField$GT$8set_bits17h9800aceb3a7949caE"(ptr align 8 %low, i64 %15, i64 %17, i64 %_13) #7, !dbg !1317
  store i64 0, ptr %_18, align 8, !dbg !1318
  %18 = getelementptr inbounds i8, ptr %_18, i64 8, !dbg !1318
  store i64 16, ptr %18, align 8, !dbg !1318
  %_22.0 = sub i64 104, 1, !dbg !1319
  %_22.1 = icmp ult i64 104, 1, !dbg !1319
  %19 = call i1 @llvm.expect.i1(i1 %_22.1, i1 false), !dbg !1319
  br i1 %19, label %panic, label %bb7, !dbg !1319

bb7:                                              ; preds = %start
  %20 = load i64, ptr %_18, align 8, !dbg !1320, !noundef !21
  %21 = getelementptr inbounds i8, ptr %_18, i64 8, !dbg !1320
  %22 = load i64, ptr %21, align 8, !dbg !1320, !noundef !21
; call <u64 as bit_field::BitField>::set_bits
  %_16 = call align 8 ptr @"_ZN43_$LT$u64$u20$as$u20$bit_field..BitField$GT$8set_bits17h9800aceb3a7949caE"(ptr align 8 %low, i64 %20, i64 %22, i64 %_22.0) #7, !dbg !1320
  store i64 40, ptr %_25, align 8, !dbg !1321
  %23 = getelementptr inbounds i8, ptr %_25, i64 8, !dbg !1321
  store i64 44, ptr %23, align 8, !dbg !1321
  %24 = load i64, ptr %_25, align 8, !dbg !1322, !noundef !21
  %25 = getelementptr inbounds i8, ptr %_25, i64 8, !dbg !1322
  %26 = load i64, ptr %25, align 8, !dbg !1322, !noundef !21
; call <u64 as bit_field::BitField>::set_bits
  %_23 = call align 8 ptr @"_ZN43_$LT$u64$u20$as$u20$bit_field..BitField$GT$8set_bits17h9800aceb3a7949caE"(ptr align 8 %low, i64 %24, i64 %26, i64 9) #7, !dbg !1322
  store i64 0, ptr %high, align 8, !dbg !1323
  store i64 0, ptr %_29, align 8, !dbg !1324
  %27 = getelementptr inbounds i8, ptr %_29, i64 8, !dbg !1324
  store i64 32, ptr %27, align 8, !dbg !1324
  store i64 32, ptr %_32, align 8, !dbg !1325
  %28 = getelementptr inbounds i8, ptr %_32, i64 8, !dbg !1325
  store i64 64, ptr %28, align 8, !dbg !1325
  %29 = load i64, ptr %_32, align 8, !dbg !1326, !noundef !21
  %30 = getelementptr inbounds i8, ptr %_32, i64 8, !dbg !1326
  %31 = load i64, ptr %30, align 8, !dbg !1326, !noundef !21
; call <u64 as bit_field::BitField>::get_bits
  %_30 = call i64 @"_ZN43_$LT$u64$u20$as$u20$bit_field..BitField$GT$8get_bits17hd5ec38978b171225E"(ptr align 8 %ptr, i64 %29, i64 %31) #7, !dbg !1326
  %32 = load i64, ptr %_29, align 8, !dbg !1327, !noundef !21
  %33 = getelementptr inbounds i8, ptr %_29, i64 8, !dbg !1327
  %34 = load i64, ptr %33, align 8, !dbg !1327, !noundef !21
; call <u64 as bit_field::BitField>::set_bits
  %_27 = call align 8 ptr @"_ZN43_$LT$u64$u20$as$u20$bit_field..BitField$GT$8set_bits17h9800aceb3a7949caE"(ptr align 8 %high, i64 %32, i64 %34, i64 %_30) #7, !dbg !1327
  %_33 = load i64, ptr %low, align 8, !dbg !1328, !noundef !21
  %_34 = load i64, ptr %high, align 8, !dbg !1329, !noundef !21
  %35 = getelementptr inbounds %"x86_64::structures::gdt::Descriptor::SystemSegment", ptr %_0, i32 0, i32 1, !dbg !1330
  store i64 %_33, ptr %35, align 8, !dbg !1330
  %36 = getelementptr inbounds %"x86_64::structures::gdt::Descriptor::SystemSegment", ptr %_0, i32 0, i32 2, !dbg !1330
  store i64 %_34, ptr %36, align 8, !dbg !1330
  store i64 1, ptr %_0, align 8, !dbg !1330
  ret void, !dbg !1331

panic:                                            ; preds = %start
; call core::panicking::panic
  call void @_ZN4core9panicking5panic17h6f817e467d9b8599E(ptr align 1 @str.1, i64 33, ptr align 8 @alloc_a9ca7108e83d178eaa82b672d022e96b) #11, !dbg !1319
  unreachable, !dbg !1319
}

; x86_64::structures::gdt::Descriptor::dpl
; Function Attrs: inlinehint noredzone nounwind
define internal i8 @_ZN6x86_6410structures3gdt10Descriptor3dpl17hca08deb609f396adE(ptr align 8 %self) unnamed_addr #1 !dbg !1332 {
start:
  %dpl.dbg.spill = alloca i64, align 8
  %v.dbg.spill2 = alloca i64, align 8
  %v.dbg.spill = alloca i64, align 8
  %value_low = alloca i64, align 8
  call void @llvm.dbg.declare(metadata ptr %self, metadata !1337, metadata !DIExpression()), !dbg !1346
  call void @llvm.dbg.declare(metadata ptr %value_low, metadata !1338, metadata !DIExpression()), !dbg !1347
  %_3 = load i64, ptr %self, align 8, !dbg !1348, !range !823, !noundef !21
  %0 = icmp eq i64 %_3, 0, !dbg !1349
  br i1 %0, label %bb2, label %bb1, !dbg !1349

bb2:                                              ; preds = %start
  %1 = getelementptr inbounds %"x86_64::structures::gdt::Descriptor::UserSegment", ptr %self, i32 0, i32 1, !dbg !1350
  %v = load i64, ptr %1, align 8, !dbg !1350, !noundef !21
  store i64 %v, ptr %v.dbg.spill, align 8, !dbg !1350
  call void @llvm.dbg.declare(metadata ptr %v.dbg.spill, metadata !1340, metadata !DIExpression()), !dbg !1351
  store i64 %v, ptr %value_low, align 8, !dbg !1352
  br label %bb3, !dbg !1353

bb1:                                              ; preds = %start
  %2 = getelementptr inbounds %"x86_64::structures::gdt::Descriptor::SystemSegment", ptr %self, i32 0, i32 1, !dbg !1354
  %v1 = load i64, ptr %2, align 8, !dbg !1354, !noundef !21
  store i64 %v1, ptr %v.dbg.spill2, align 8, !dbg !1354
  call void @llvm.dbg.declare(metadata ptr %v.dbg.spill2, metadata !1342, metadata !DIExpression()), !dbg !1355
  store i64 %v1, ptr %value_low, align 8, !dbg !1356
  br label %bb3, !dbg !1357

bb3:                                              ; preds = %bb1, %bb2
  %_8 = load i64, ptr %value_low, align 8, !dbg !1358, !noundef !21
; call x86_64::structures::gdt::_::<impl x86_64::structures::gdt::DescriptorFlags>::bits
  %_9 = call i64 @"_ZN6x86_6410structures3gdt1_58_$LT$impl$u20$x86_64..structures..gdt..DescriptorFlags$GT$4bits17h87be423ed757fd1eE"(ptr align 8 @alloc_5dd4d78cc458787967df87e6f8b87088) #7, !dbg !1359
  %_7 = and i64 %_8, %_9, !dbg !1360
  %dpl = lshr i64 %_7, 45, !dbg !1360
  store i64 %dpl, ptr %dpl.dbg.spill, align 8, !dbg !1360
  call void @llvm.dbg.declare(metadata ptr %dpl.dbg.spill, metadata !1344, metadata !DIExpression()), !dbg !1361
  %_12 = trunc i64 %dpl to i16, !dbg !1362
; call x86_64::PrivilegeLevel::from_u16
  %_0 = call i8 @_ZN6x86_6414PrivilegeLevel8from_u1617hda1c20071d21f9d4E(i16 %_12) #7, !dbg !1363, !range !1364
  ret i8 %_0, !dbg !1365

bb7:                                              ; No predecessors!
  unreachable, !dbg !1349
}

; x86_64::structures::gdt::_::InternalBitFlags::bits
; Function Attrs: inlinehint noredzone nounwind
define internal i64 @_ZN6x86_6410structures3gdt1_16InternalBitFlags4bits17h12c5049b7d5d5309E(ptr align 8 %self) unnamed_addr #1 !dbg !1366 {
start:
  %self.dbg.spill = alloca ptr, align 8
  store ptr %self, ptr %self.dbg.spill, align 8
  call void @llvm.dbg.declare(metadata ptr %self.dbg.spill, metadata !1377, metadata !DIExpression()), !dbg !1380
  call void @llvm.dbg.declare(metadata ptr %self.dbg.spill, metadata !1378, metadata !DIExpression()), !dbg !1381
  %_0 = load i64, ptr %self, align 8, !dbg !1382, !noundef !21
  ret i64 %_0, !dbg !1384
}

; x86_64::structures::gdt::_::<impl x86_64::structures::gdt::DescriptorFlags>::bits
; Function Attrs: inlinehint noredzone nounwind
define internal i64 @"_ZN6x86_6410structures3gdt1_58_$LT$impl$u20$x86_64..structures..gdt..DescriptorFlags$GT$4bits17h87be423ed757fd1eE"(ptr align 8 %self) unnamed_addr #1 !dbg !1385 {
start:
  %self.dbg.spill = alloca ptr, align 8
  store ptr %self, ptr %self.dbg.spill, align 8
  call void @llvm.dbg.declare(metadata ptr %self.dbg.spill, metadata !1394, metadata !DIExpression()), !dbg !1397
  call void @llvm.dbg.declare(metadata ptr %self.dbg.spill, metadata !1395, metadata !DIExpression()), !dbg !1398
; call x86_64::structures::gdt::_::InternalBitFlags::bits
  %_0 = call i64 @_ZN6x86_6410structures3gdt1_16InternalBitFlags4bits17h12c5049b7d5d5309E(ptr align 8 %self) #7, !dbg !1399
  ret i64 %_0, !dbg !1401
}

; x86_64::structures::gdt::GlobalDescriptorTable::load_unsafe
; Function Attrs: inlinehint noredzone nounwind
define internal void @_ZN6x86_6410structures3gdt21GlobalDescriptorTable11load_unsafe17h8ac517d45a1e50a7E(ptr align 8 %self) unnamed_addr #1 !dbg !1402 {
start:
  %self.dbg.spill = alloca ptr, align 8
  %_4 = alloca %"x86_64::structures::DescriptorTablePointer", align 2
  store ptr %self, ptr %self.dbg.spill, align 8
  call void @llvm.dbg.declare(metadata ptr %self.dbg.spill, metadata !1408, metadata !DIExpression()), !dbg !1409
; call x86_64::structures::gdt::GlobalDescriptorTable::pointer
  call void @_ZN6x86_6410structures3gdt21GlobalDescriptorTable7pointer17h16fa23ad6ed47c26E(ptr sret(%"x86_64::structures::DescriptorTablePointer") align 2 %_4, ptr align 8 %self) #7, !dbg !1410
; call x86_64::instructions::tables::lgdt
  call void @_ZN6x86_6412instructions6tables4lgdt17h699edf8408d99d33E(ptr align 2 %_4) #7, !dbg !1411
  ret void, !dbg !1412
}

; x86_64::structures::gdt::GlobalDescriptorTable::new
; Function Attrs: inlinehint noredzone nounwind
define internal void @_ZN6x86_6410structures3gdt21GlobalDescriptorTable3new17hd8c49ff4cb459adfE(ptr sret(%"x86_64::structures::gdt::GlobalDescriptorTable") align 8 %_0) unnamed_addr #1 !dbg !1413 {
start:
  %_1 = alloca [8 x i64], align 8
  %0 = getelementptr inbounds [8 x i64], ptr %_1, i64 0, i64 0, !dbg !1417
  call void @llvm.memset.p0.i64(ptr align 8 %0, i8 0, i64 64, i1 false), !dbg !1417
  call void @llvm.memcpy.p0.p0.i64(ptr align 8 %_0, ptr align 8 %_1, i64 64, i1 false), !dbg !1418
  %1 = getelementptr inbounds %"x86_64::structures::gdt::GlobalDescriptorTable", ptr %_0, i32 0, i32 1, !dbg !1418
  store i64 1, ptr %1, align 8, !dbg !1418
  ret void, !dbg !1419
}

; x86_64::structures::gdt::GlobalDescriptorTable::load
; Function Attrs: inlinehint noredzone nounwind
define internal void @_ZN6x86_6410structures3gdt21GlobalDescriptorTable4load17h6842f86b9dbdd797E(ptr align 8 %self) unnamed_addr #1 !dbg !1420 {
start:
  %self.dbg.spill = alloca ptr, align 8
  store ptr %self, ptr %self.dbg.spill, align 8
  call void @llvm.dbg.declare(metadata ptr %self.dbg.spill, metadata !1423, metadata !DIExpression()), !dbg !1424
; call x86_64::structures::gdt::GlobalDescriptorTable::load_unsafe
  call void @_ZN6x86_6410structures3gdt21GlobalDescriptorTable11load_unsafe17h8ac517d45a1e50a7E(ptr align 8 %self) #7, !dbg !1425
  ret void, !dbg !1426
}

; x86_64::structures::gdt::GlobalDescriptorTable::push
; Function Attrs: inlinehint noredzone nounwind
define internal i64 @_ZN6x86_6410structures3gdt21GlobalDescriptorTable4push17h5b2b37fadb450d10E(ptr align 8 %self, i64 %value) unnamed_addr #1 !dbg !1427 {
start:
  %index.dbg.spill = alloca i64, align 8
  %value.dbg.spill = alloca i64, align 8
  %self.dbg.spill = alloca ptr, align 8
  store ptr %self, ptr %self.dbg.spill, align 8
  call void @llvm.dbg.declare(metadata ptr %self.dbg.spill, metadata !1433, metadata !DIExpression()), !dbg !1437
  store i64 %value, ptr %value.dbg.spill, align 8
  call void @llvm.dbg.declare(metadata ptr %value.dbg.spill, metadata !1434, metadata !DIExpression()), !dbg !1438
  %0 = getelementptr inbounds %"x86_64::structures::gdt::GlobalDescriptorTable", ptr %self, i32 0, i32 1, !dbg !1439
  %index = load i64, ptr %0, align 8, !dbg !1439, !noundef !21
  store i64 %index, ptr %index.dbg.spill, align 8, !dbg !1439
  call void @llvm.dbg.declare(metadata ptr %index.dbg.spill, metadata !1435, metadata !DIExpression()), !dbg !1440
  %_4 = icmp ult i64 %index, 8, !dbg !1441
  %1 = call i1 @llvm.expect.i1(i1 %_4, i1 true), !dbg !1441
  br i1 %1, label %bb1, label %panic, !dbg !1441

bb1:                                              ; preds = %start
  %2 = getelementptr inbounds [8 x i64], ptr %self, i64 0, i64 %index, !dbg !1441
  store i64 %value, ptr %2, align 8, !dbg !1441
  %3 = getelementptr inbounds %"x86_64::structures::gdt::GlobalDescriptorTable", ptr %self, i32 0, i32 1, !dbg !1442
  %4 = load i64, ptr %3, align 8, !dbg !1442, !noundef !21
  %5 = call { i64, i1 } @llvm.uadd.with.overflow.i64(i64 %4, i64 1), !dbg !1442
  %_5.0 = extractvalue { i64, i1 } %5, 0, !dbg !1442
  %_5.1 = extractvalue { i64, i1 } %5, 1, !dbg !1442
  %6 = call i1 @llvm.expect.i1(i1 %_5.1, i1 false), !dbg !1442
  br i1 %6, label %panic1, label %bb2, !dbg !1442

panic:                                            ; preds = %start
; call core::panicking::panic_bounds_check
  call void @_ZN4core9panicking18panic_bounds_check17h202556bd4b07cb18E(i64 %index, i64 8, ptr align 8 @alloc_2fca64518fbcda1de6ab027e8846e0d5) #11, !dbg !1441
  unreachable, !dbg !1441

bb2:                                              ; preds = %bb1
  %7 = getelementptr inbounds %"x86_64::structures::gdt::GlobalDescriptorTable", ptr %self, i32 0, i32 1, !dbg !1442
  store i64 %_5.0, ptr %7, align 8, !dbg !1442
  ret i64 %index, !dbg !1443

panic1:                                           ; preds = %bb1
; call core::panicking::panic
  call void @_ZN4core9panicking5panic17h6f817e467d9b8599E(ptr align 1 @str.3, i64 28, ptr align 8 @alloc_ab467cc171c795d9c03993e16dbdd64a) #11, !dbg !1442
  unreachable, !dbg !1442
}

; x86_64::structures::gdt::GlobalDescriptorTable::add_entry
; Function Attrs: inlinehint noredzone nounwind
define internal i16 @_ZN6x86_6410structures3gdt21GlobalDescriptorTable9add_entry17h035851bd5061d477E(ptr align 8 %self, ptr align 8 %entry) unnamed_addr #1 !dbg !1444 {
start:
  %0 = alloca i64, align 8
  %rhs.dbg.spill.i2 = alloca i64, align 8
  %self.dbg.spill.i3 = alloca i64, align 8
  %1 = alloca i64, align 8
  %rhs.dbg.spill.i = alloca i64, align 8
  %self.dbg.spill.i = alloca i64, align 8
  %2 = alloca %"x86_64::structures::gdt::Descriptor", align 8
  %index.dbg.spill = alloca i64, align 8
  %value_high.dbg.spill = alloca i64, align 8
  %value_low.dbg.spill = alloca i64, align 8
  %value.dbg.spill = alloca i64, align 8
  %self.dbg.spill = alloca ptr, align 8
  %index = alloca i64, align 8
  store ptr %self, ptr %self.dbg.spill, align 8
  call void @llvm.dbg.declare(metadata ptr %self.dbg.spill, metadata !1449, metadata !DIExpression()), !dbg !1460
  call void @llvm.dbg.declare(metadata ptr %entry, metadata !1450, metadata !DIExpression()), !dbg !1461
  call void @llvm.dbg.declare(metadata ptr %index, metadata !1451, metadata !DIExpression()), !dbg !1462
  %_4 = load i64, ptr %entry, align 8, !dbg !1463, !range !823, !noundef !21
  %3 = icmp eq i64 %_4, 0, !dbg !1464
  br i1 %3, label %bb2, label %bb1, !dbg !1464

bb2:                                              ; preds = %start
  %4 = getelementptr inbounds %"x86_64::structures::gdt::Descriptor::UserSegment", ptr %entry, i32 0, i32 1, !dbg !1465
  %value = load i64, ptr %4, align 8, !dbg !1465, !noundef !21
  store i64 %value, ptr %value.dbg.spill, align 8, !dbg !1465
  call void @llvm.dbg.declare(metadata ptr %value.dbg.spill, metadata !1453, metadata !DIExpression()), !dbg !1466
  %5 = getelementptr inbounds %"x86_64::structures::gdt::GlobalDescriptorTable", ptr %self, i32 0, i32 1, !dbg !1467
  %_7 = load i64, ptr %5, align 8, !dbg !1467, !noundef !21
  store i64 8, ptr %self.dbg.spill.i3, align 8
  call void @llvm.dbg.declare(metadata ptr %self.dbg.spill.i3, metadata !1468, metadata !DIExpression()), !dbg !1477
  store i64 1, ptr %rhs.dbg.spill.i2, align 8
  call void @llvm.dbg.declare(metadata ptr %rhs.dbg.spill.i2, metadata !1476, metadata !DIExpression()), !dbg !1479
  store i64 7, ptr %0, align 8, !dbg !1480
  %_0.i4 = load i64, ptr %0, align 8, !dbg !1480, !noundef !21
  %_6 = icmp ugt i64 %_7, %_0.i4, !dbg !1467
  br i1 %_6, label %bb4, label %bb5, !dbg !1467

bb1:                                              ; preds = %start
  %6 = getelementptr inbounds %"x86_64::structures::gdt::Descriptor::SystemSegment", ptr %entry, i32 0, i32 1, !dbg !1481
  %value_low = load i64, ptr %6, align 8, !dbg !1481, !noundef !21
  store i64 %value_low, ptr %value_low.dbg.spill, align 8, !dbg !1481
  call void @llvm.dbg.declare(metadata ptr %value_low.dbg.spill, metadata !1455, metadata !DIExpression()), !dbg !1482
  %7 = getelementptr inbounds %"x86_64::structures::gdt::Descriptor::SystemSegment", ptr %entry, i32 0, i32 2, !dbg !1483
  %value_high = load i64, ptr %7, align 8, !dbg !1483, !noundef !21
  store i64 %value_high, ptr %value_high.dbg.spill, align 8, !dbg !1483
  call void @llvm.dbg.declare(metadata ptr %value_high.dbg.spill, metadata !1457, metadata !DIExpression()), !dbg !1484
  %8 = getelementptr inbounds %"x86_64::structures::gdt::GlobalDescriptorTable", ptr %self, i32 0, i32 1, !dbg !1485
  %_16 = load i64, ptr %8, align 8, !dbg !1485, !noundef !21
  store i64 8, ptr %self.dbg.spill.i, align 8
  call void @llvm.dbg.declare(metadata ptr %self.dbg.spill.i, metadata !1468, metadata !DIExpression()), !dbg !1486
  store i64 2, ptr %rhs.dbg.spill.i, align 8
  call void @llvm.dbg.declare(metadata ptr %rhs.dbg.spill.i, metadata !1476, metadata !DIExpression()), !dbg !1488
  store i64 6, ptr %1, align 8, !dbg !1489
  %_0.i = load i64, ptr %1, align 8, !dbg !1489, !noundef !21
  %_15 = icmp ugt i64 %_16, %_0.i, !dbg !1485
  br i1 %_15, label %bb7, label %bb8, !dbg !1485

bb5:                                              ; preds = %bb2
; call x86_64::structures::gdt::GlobalDescriptorTable::push
  %9 = call i64 @_ZN6x86_6410structures3gdt21GlobalDescriptorTable4push17h5b2b37fadb450d10E(ptr align 8 %self, i64 %value) #7, !dbg !1490
  store i64 %9, ptr %index, align 8, !dbg !1490
  br label %bb11, !dbg !1490

bb4:                                              ; preds = %bb2
; call core::panicking::panic
  call void @_ZN4core9panicking5panic17h6f817e467d9b8599E(ptr align 1 @alloc_e755bc5cd467965f69656078209bbfdc, i64 8, ptr align 8 @alloc_9c1a15bee5587968e67d068335f028fc) #11, !dbg !1491
  unreachable, !dbg !1491

bb11:                                             ; preds = %bb8, %bb5
  %_25 = load i64, ptr %index, align 8, !dbg !1492, !noundef !21
  %_24 = trunc i64 %_25 to i16, !dbg !1492
  call void @llvm.memcpy.p0.p0.i64(ptr align 8 %2, ptr align 8 %entry, i64 24, i1 false), !dbg !1493
; call x86_64::structures::gdt::Descriptor::dpl
  %_26 = call i8 @_ZN6x86_6410structures3gdt10Descriptor3dpl17hca08deb609f396adE(ptr align 8 %2) #7, !dbg !1493, !range !1364
; call x86_64::registers::segmentation::SegmentSelector::new
  %_0 = call i16 @_ZN6x86_649registers12segmentation15SegmentSelector3new17h57c8af961fb198c4E(i16 %_24, i8 %_26) #7, !dbg !1494
  ret i16 %_0, !dbg !1495

bb8:                                              ; preds = %bb1
; call x86_64::structures::gdt::GlobalDescriptorTable::push
  %index1 = call i64 @_ZN6x86_6410structures3gdt21GlobalDescriptorTable4push17h5b2b37fadb450d10E(ptr align 8 %self, i64 %value_low) #7, !dbg !1496
  store i64 %index1, ptr %index.dbg.spill, align 8, !dbg !1496
  call void @llvm.dbg.declare(metadata ptr %index.dbg.spill, metadata !1458, metadata !DIExpression()), !dbg !1497
; call x86_64::structures::gdt::GlobalDescriptorTable::push
  %_23 = call i64 @_ZN6x86_6410structures3gdt21GlobalDescriptorTable4push17h5b2b37fadb450d10E(ptr align 8 %self, i64 %value_high) #7, !dbg !1498
  store i64 %index1, ptr %index, align 8, !dbg !1499
  br label %bb11, !dbg !1500

bb7:                                              ; preds = %bb1
; call core::panicking::panic
  call void @_ZN4core9panicking5panic17h6f817e467d9b8599E(ptr align 1 @alloc_71a7efa2492bb21c9f54a8edb2880146, i64 52, ptr align 8 @alloc_35f792ca9cdbc5ad4325f075b1014a58) #11, !dbg !1501
  unreachable, !dbg !1501

bb14:                                             ; No predecessors!
  unreachable, !dbg !1464
}

; x86_64::structures::idt::EntryOptions::set_present
; Function Attrs: inlinehint noredzone nounwind
define internal align 2 ptr @_ZN6x86_6410structures3idt12EntryOptions11set_present17hee53914bc90293f3E(ptr align 2 %self, i1 zeroext %present) unnamed_addr #1 !dbg !1502 {
start:
  %present.dbg.spill = alloca i8, align 1
  %self.dbg.spill = alloca ptr, align 8
  store ptr %self, ptr %self.dbg.spill, align 8
  call void @llvm.dbg.declare(metadata ptr %self.dbg.spill, metadata !1512, metadata !DIExpression()), !dbg !1514
  %0 = zext i1 %present to i8
  store i8 %0, ptr %present.dbg.spill, align 1
  call void @llvm.dbg.declare(metadata ptr %present.dbg.spill, metadata !1513, metadata !DIExpression()), !dbg !1515
; call <u16 as bit_field::BitField>::set_bit
  %_3 = call align 2 ptr @"_ZN43_$LT$u16$u20$as$u20$bit_field..BitField$GT$7set_bit17h2a8d74e1c110d0f1E"(ptr align 2 %self, i64 15, i1 zeroext %present) #7, !dbg !1516
  ret ptr %self, !dbg !1517
}

; x86_64::structures::idt::EntryOptions::set_stack_index
; Function Attrs: inlinehint noredzone nounwind
define internal align 2 ptr @_ZN6x86_6410structures3idt12EntryOptions15set_stack_index17hb763a74ff53f1cfdE(ptr align 2 %self, i16 %index) unnamed_addr #1 !dbg !1518 {
start:
  %index.dbg.spill = alloca i16, align 2
  %self.dbg.spill = alloca ptr, align 8
  %_5 = alloca %"core::ops::range::Range<usize>", align 8
  store ptr %self, ptr %self.dbg.spill, align 8
  call void @llvm.dbg.declare(metadata ptr %self.dbg.spill, metadata !1523, metadata !DIExpression()), !dbg !1525
  store i16 %index, ptr %index.dbg.spill, align 2
  call void @llvm.dbg.declare(metadata ptr %index.dbg.spill, metadata !1524, metadata !DIExpression()), !dbg !1526
  store i64 0, ptr %_5, align 8, !dbg !1527
  %0 = getelementptr inbounds i8, ptr %_5, i64 8, !dbg !1527
  store i64 3, ptr %0, align 8, !dbg !1527
  %1 = call { i16, i1 } @llvm.uadd.with.overflow.i16(i16 %index, i16 1), !dbg !1528
  %_7.0 = extractvalue { i16, i1 } %1, 0, !dbg !1528
  %_7.1 = extractvalue { i16, i1 } %1, 1, !dbg !1528
  %2 = call i1 @llvm.expect.i1(i1 %_7.1, i1 false), !dbg !1528
  br i1 %2, label %panic, label %bb1, !dbg !1528

bb1:                                              ; preds = %start
  %3 = load i64, ptr %_5, align 8, !dbg !1529, !noundef !21
  %4 = getelementptr inbounds i8, ptr %_5, i64 8, !dbg !1529
  %5 = load i64, ptr %4, align 8, !dbg !1529, !noundef !21
; call <u16 as bit_field::BitField>::set_bits
  %_3 = call align 2 ptr @"_ZN43_$LT$u16$u20$as$u20$bit_field..BitField$GT$8set_bits17hc1abf06b94402e5bE"(ptr align 2 %self, i64 %3, i64 %5, i16 %_7.0) #7, !dbg !1529
  ret ptr %self, !dbg !1530

panic:                                            ; preds = %start
; call core::panicking::panic
  call void @_ZN4core9panicking5panic17h6f817e467d9b8599E(ptr align 1 @str.3, i64 28, ptr align 8 @alloc_fa052248d4309ea78bf128fd9e97b625) #11, !dbg !1528
  unreachable, !dbg !1528
}

; x86_64::structures::idt::EntryOptions::minimal
; Function Attrs: inlinehint noredzone nounwind
define internal i16 @_ZN6x86_6410structures3idt12EntryOptions7minimal17h91d8f875fec8f44aE() unnamed_addr #1 !dbg !1531 {
start:
  %_0 = alloca i16, align 2
  store i16 3584, ptr %_0, align 2, !dbg !1535
  %0 = load i16, ptr %_0, align 2, !dbg !1536, !noundef !21
  ret i16 %0, !dbg !1536
}

; x86_64::structures::idt::Entry<extern "x86.interrupt" fn(x86_64::structures::idt::InterruptStackFrame,u64) .> !>::set_handler_fn
; Function Attrs: inlinehint noredzone nounwind
define internal align 2 ptr @"_ZN6x86_6410structures3idt132Entry$LT$extern$u20$$u22$x86.interrupt$u22$$u20$fn$LP$x86_64..structures..idt..InterruptStackFrame$C$u64$RP$$u20$.$GT$$u20$$u21$$GT$14set_handler_fn17h99247c986e93ba2bE"(ptr align 4 %self, ptr %handler) unnamed_addr #1 !dbg !1537 {
start:
  %handler.dbg.spill2 = alloca i64, align 8
  %handler.dbg.spill = alloca ptr, align 8
  %self.dbg.spill = alloca ptr, align 8
  store ptr %self, ptr %self.dbg.spill, align 8
  call void @llvm.dbg.declare(metadata ptr %self.dbg.spill, metadata !1571, metadata !DIExpression()), !dbg !1575
  store ptr %handler, ptr %handler.dbg.spill, align 8
  call void @llvm.dbg.declare(metadata ptr %handler.dbg.spill, metadata !1572, metadata !DIExpression()), !dbg !1576
  %_4 = ptrtoint ptr %handler to i64, !dbg !1577
; call x86_64::addr::VirtAddr::new
  %handler1 = call i64 @_ZN6x86_644addr8VirtAddr3new17h1c914d1881d8f861E(i64 %_4) #7, !dbg !1578
  store i64 %handler1, ptr %handler.dbg.spill2, align 8, !dbg !1578
  call void @llvm.dbg.declare(metadata ptr %handler.dbg.spill2, metadata !1573, metadata !DIExpression()), !dbg !1579
; call x86_64::structures::idt::Entry<F>::set_handler_addr
  %_0 = call align 2 ptr @"_ZN6x86_6410structures3idt14Entry$LT$F$GT$16set_handler_addr17h09a81aabf168d401E"(ptr align 4 %self, i64 %handler1) #7, !dbg !1580
  ret ptr %_0, !dbg !1581
}

; x86_64::structures::idt::Entry<F>::set_handler_addr
; Function Attrs: inlinehint noredzone nounwind
define align 2 ptr @"_ZN6x86_6410structures3idt14Entry$LT$F$GT$16set_handler_addr17h09a81aabf168d401E"(ptr align 4 %self, i64 %addr) unnamed_addr #1 !dbg !1582 {
start:
  %addr.dbg.spill2 = alloca i64, align 8
  %addr.dbg.spill = alloca i64, align 8
  %self.dbg.spill = alloca ptr, align 8
  store ptr %self, ptr %self.dbg.spill, align 8
  call void @llvm.dbg.declare(metadata ptr %self.dbg.spill, metadata !1587, metadata !DIExpression()), !dbg !1591
  store i64 %addr, ptr %addr.dbg.spill, align 8
  call void @llvm.dbg.declare(metadata ptr %addr.dbg.spill, metadata !1588, metadata !DIExpression()), !dbg !1592
; call x86_64::addr::VirtAddr::as_u64
  %addr1 = call i64 @_ZN6x86_644addr8VirtAddr6as_u6417h260af74e775ab5d1E(i64 %addr) #7, !dbg !1593
  store i64 %addr1, ptr %addr.dbg.spill2, align 8, !dbg !1593
  call void @llvm.dbg.declare(metadata ptr %addr.dbg.spill2, metadata !1589, metadata !DIExpression()), !dbg !1594
  %0 = trunc i64 %addr1 to i16, !dbg !1595
  store i16 %0, ptr %self, align 4, !dbg !1595
  %_4 = lshr i64 %addr1, 16, !dbg !1596
  %1 = getelementptr inbounds %"x86_64::structures::idt::Entry<extern \22x86-interrupt\22 fn(x86_64::structures::idt::InterruptStackFrame, u64) -> !>", ptr %self, i32 0, i32 3, !dbg !1597
  %2 = trunc i64 %_4 to i16, !dbg !1597
  store i16 %2, ptr %1, align 2, !dbg !1597
  %_7 = lshr i64 %addr1, 32, !dbg !1598
  %3 = getelementptr inbounds %"x86_64::structures::idt::Entry<extern \22x86-interrupt\22 fn(x86_64::structures::idt::InterruptStackFrame, u64) -> !>", ptr %self, i32 0, i32 4, !dbg !1599
  %4 = trunc i64 %_7 to i32, !dbg !1599
  store i32 %4, ptr %3, align 4, !dbg !1599
; call x86_64::instructions::segmentation::<impl x86_64::registers::segmentation::Segment for x86_64::registers::segmentation::CS>::get_reg
  %_11 = call i16 @"_ZN6x86_6412instructions12segmentation106_$LT$impl$u20$x86_64..registers..segmentation..Segment$u20$for$u20$x86_64..registers..segmentation..CS$GT$7get_reg17h5916ce3fada161fcE"() #7, !dbg !1600
  %5 = getelementptr inbounds %"x86_64::structures::idt::Entry<extern \22x86-interrupt\22 fn(x86_64::structures::idt::InterruptStackFrame, u64) -> !>", ptr %self, i32 0, i32 1, !dbg !1601
  store i16 %_11, ptr %5, align 2, !dbg !1601
  %_13 = getelementptr inbounds %"x86_64::structures::idt::Entry<extern \22x86-interrupt\22 fn(x86_64::structures::idt::InterruptStackFrame, u64) -> !>", ptr %self, i32 0, i32 2, !dbg !1602
; call x86_64::structures::idt::EntryOptions::set_present
  %_12 = call align 2 ptr @_ZN6x86_6410structures3idt12EntryOptions11set_present17hee53914bc90293f3E(ptr align 2 %_13, i1 zeroext true) #7, !dbg !1602
  %_0 = getelementptr inbounds %"x86_64::structures::idt::Entry<extern \22x86-interrupt\22 fn(x86_64::structures::idt::InterruptStackFrame, u64) -> !>", ptr %self, i32 0, i32 2, !dbg !1603
  ret ptr %_0, !dbg !1604
}

; x86_64::structures::idt::Entry<F>::set_handler_addr
; Function Attrs: inlinehint noredzone nounwind
define align 2 ptr @"_ZN6x86_6410structures3idt14Entry$LT$F$GT$16set_handler_addr17h9f26dbc8176aadc3E"(ptr align 4 %self, i64 %addr) unnamed_addr #1 !dbg !1605 {
start:
  %addr.dbg.spill2 = alloca i64, align 8
  %addr.dbg.spill = alloca i64, align 8
  %self.dbg.spill = alloca ptr, align 8
  store ptr %self, ptr %self.dbg.spill, align 8
  call void @llvm.dbg.declare(metadata ptr %self.dbg.spill, metadata !1631, metadata !DIExpression()), !dbg !1635
  store i64 %addr, ptr %addr.dbg.spill, align 8
  call void @llvm.dbg.declare(metadata ptr %addr.dbg.spill, metadata !1632, metadata !DIExpression()), !dbg !1636
; call x86_64::addr::VirtAddr::as_u64
  %addr1 = call i64 @_ZN6x86_644addr8VirtAddr6as_u6417h260af74e775ab5d1E(i64 %addr) #7, !dbg !1637
  store i64 %addr1, ptr %addr.dbg.spill2, align 8, !dbg !1637
  call void @llvm.dbg.declare(metadata ptr %addr.dbg.spill2, metadata !1633, metadata !DIExpression()), !dbg !1638
  %0 = trunc i64 %addr1 to i16, !dbg !1639
  store i16 %0, ptr %self, align 4, !dbg !1639
  %_4 = lshr i64 %addr1, 16, !dbg !1640
  %1 = getelementptr inbounds %"x86_64::structures::idt::Entry<extern \22x86-interrupt\22 fn(x86_64::structures::idt::InterruptStackFrame, x86_64::structures::idt::PageFaultErrorCode)>", ptr %self, i32 0, i32 3, !dbg !1641
  %2 = trunc i64 %_4 to i16, !dbg !1641
  store i16 %2, ptr %1, align 2, !dbg !1641
  %_7 = lshr i64 %addr1, 32, !dbg !1642
  %3 = getelementptr inbounds %"x86_64::structures::idt::Entry<extern \22x86-interrupt\22 fn(x86_64::structures::idt::InterruptStackFrame, x86_64::structures::idt::PageFaultErrorCode)>", ptr %self, i32 0, i32 4, !dbg !1643
  %4 = trunc i64 %_7 to i32, !dbg !1643
  store i32 %4, ptr %3, align 4, !dbg !1643
; call x86_64::instructions::segmentation::<impl x86_64::registers::segmentation::Segment for x86_64::registers::segmentation::CS>::get_reg
  %_11 = call i16 @"_ZN6x86_6412instructions12segmentation106_$LT$impl$u20$x86_64..registers..segmentation..Segment$u20$for$u20$x86_64..registers..segmentation..CS$GT$7get_reg17h5916ce3fada161fcE"() #7, !dbg !1644
  %5 = getelementptr inbounds %"x86_64::structures::idt::Entry<extern \22x86-interrupt\22 fn(x86_64::structures::idt::InterruptStackFrame, x86_64::structures::idt::PageFaultErrorCode)>", ptr %self, i32 0, i32 1, !dbg !1645
  store i16 %_11, ptr %5, align 2, !dbg !1645
  %_13 = getelementptr inbounds %"x86_64::structures::idt::Entry<extern \22x86-interrupt\22 fn(x86_64::structures::idt::InterruptStackFrame, x86_64::structures::idt::PageFaultErrorCode)>", ptr %self, i32 0, i32 2, !dbg !1646
; call x86_64::structures::idt::EntryOptions::set_present
  %_12 = call align 2 ptr @_ZN6x86_6410structures3idt12EntryOptions11set_present17hee53914bc90293f3E(ptr align 2 %_13, i1 zeroext true) #7, !dbg !1646
  %_0 = getelementptr inbounds %"x86_64::structures::idt::Entry<extern \22x86-interrupt\22 fn(x86_64::structures::idt::InterruptStackFrame, x86_64::structures::idt::PageFaultErrorCode)>", ptr %self, i32 0, i32 2, !dbg !1647
  ret ptr %_0, !dbg !1648
}

; x86_64::structures::idt::Entry<F>::missing
; Function Attrs: inlinehint noredzone nounwind
define void @"_ZN6x86_6410structures3idt14Entry$LT$F$GT$7missing17h0425f6367d16d4b0E"(ptr sret(%"x86_64::structures::idt::Entry<extern \22x86-interrupt\22 fn(x86_64::structures::idt::InterruptStackFrame) -> !>") align 4 %_0) unnamed_addr #1 !dbg !1649 {
start:
; call x86_64::structures::idt::EntryOptions::minimal
  %_1 = call i16 @_ZN6x86_6410structures3idt12EntryOptions7minimal17h91d8f875fec8f44aE() #7, !dbg !1670
  store i16 0, ptr %_0, align 4, !dbg !1671
  %0 = getelementptr inbounds %"x86_64::structures::idt::Entry<extern \22x86-interrupt\22 fn(x86_64::structures::idt::InterruptStackFrame) -> !>", ptr %_0, i32 0, i32 1, !dbg !1671
  store i16 0, ptr %0, align 2, !dbg !1671
  %1 = getelementptr inbounds %"x86_64::structures::idt::Entry<extern \22x86-interrupt\22 fn(x86_64::structures::idt::InterruptStackFrame) -> !>", ptr %_0, i32 0, i32 2, !dbg !1671
  store i16 %_1, ptr %1, align 4, !dbg !1671
  %2 = getelementptr inbounds %"x86_64::structures::idt::Entry<extern \22x86-interrupt\22 fn(x86_64::structures::idt::InterruptStackFrame) -> !>", ptr %_0, i32 0, i32 3, !dbg !1671
  store i16 0, ptr %2, align 2, !dbg !1671
  %3 = getelementptr inbounds %"x86_64::structures::idt::Entry<extern \22x86-interrupt\22 fn(x86_64::structures::idt::InterruptStackFrame) -> !>", ptr %_0, i32 0, i32 4, !dbg !1671
  store i32 0, ptr %3, align 4, !dbg !1671
  %4 = getelementptr inbounds %"x86_64::structures::idt::Entry<extern \22x86-interrupt\22 fn(x86_64::structures::idt::InterruptStackFrame) -> !>", ptr %_0, i32 0, i32 5, !dbg !1671
  store i32 0, ptr %4, align 4, !dbg !1671
  ret void, !dbg !1672
}

; x86_64::structures::idt::Entry<F>::missing
; Function Attrs: inlinehint noredzone nounwind
define void @"_ZN6x86_6410structures3idt14Entry$LT$F$GT$7missing17h0a74f4128ab15f15E"(ptr sret(%"x86_64::structures::idt::Entry<extern \22x86-interrupt\22 fn(x86_64::structures::idt::InterruptStackFrame, u64)>") align 4 %_0) unnamed_addr #1 !dbg !1673 {
start:
; call x86_64::structures::idt::EntryOptions::minimal
  %_1 = call i16 @_ZN6x86_6410structures3idt12EntryOptions7minimal17h91d8f875fec8f44aE() #7, !dbg !1694
  store i16 0, ptr %_0, align 4, !dbg !1695
  %0 = getelementptr inbounds %"x86_64::structures::idt::Entry<extern \22x86-interrupt\22 fn(x86_64::structures::idt::InterruptStackFrame, u64)>", ptr %_0, i32 0, i32 1, !dbg !1695
  store i16 0, ptr %0, align 2, !dbg !1695
  %1 = getelementptr inbounds %"x86_64::structures::idt::Entry<extern \22x86-interrupt\22 fn(x86_64::structures::idt::InterruptStackFrame, u64)>", ptr %_0, i32 0, i32 2, !dbg !1695
  store i16 %_1, ptr %1, align 4, !dbg !1695
  %2 = getelementptr inbounds %"x86_64::structures::idt::Entry<extern \22x86-interrupt\22 fn(x86_64::structures::idt::InterruptStackFrame, u64)>", ptr %_0, i32 0, i32 3, !dbg !1695
  store i16 0, ptr %2, align 2, !dbg !1695
  %3 = getelementptr inbounds %"x86_64::structures::idt::Entry<extern \22x86-interrupt\22 fn(x86_64::structures::idt::InterruptStackFrame, u64)>", ptr %_0, i32 0, i32 4, !dbg !1695
  store i32 0, ptr %3, align 4, !dbg !1695
  %4 = getelementptr inbounds %"x86_64::structures::idt::Entry<extern \22x86-interrupt\22 fn(x86_64::structures::idt::InterruptStackFrame, u64)>", ptr %_0, i32 0, i32 5, !dbg !1695
  store i32 0, ptr %4, align 4, !dbg !1695
  ret void, !dbg !1696
}

; x86_64::structures::idt::Entry<F>::missing
; Function Attrs: inlinehint noredzone nounwind
define void @"_ZN6x86_6410structures3idt14Entry$LT$F$GT$7missing17h7975fe0fc70fd548E"(ptr sret(%"x86_64::structures::idt::Entry<extern \22x86-interrupt\22 fn(x86_64::structures::idt::InterruptStackFrame)>") align 4 %_0) unnamed_addr #1 !dbg !1697 {
start:
; call x86_64::structures::idt::EntryOptions::minimal
  %_1 = call i16 @_ZN6x86_6410structures3idt12EntryOptions7minimal17h91d8f875fec8f44aE() #7, !dbg !1718
  store i16 0, ptr %_0, align 4, !dbg !1719
  %0 = getelementptr inbounds %"x86_64::structures::idt::Entry<extern \22x86-interrupt\22 fn(x86_64::structures::idt::InterruptStackFrame)>", ptr %_0, i32 0, i32 1, !dbg !1719
  store i16 0, ptr %0, align 2, !dbg !1719
  %1 = getelementptr inbounds %"x86_64::structures::idt::Entry<extern \22x86-interrupt\22 fn(x86_64::structures::idt::InterruptStackFrame)>", ptr %_0, i32 0, i32 2, !dbg !1719
  store i16 %_1, ptr %1, align 4, !dbg !1719
  %2 = getelementptr inbounds %"x86_64::structures::idt::Entry<extern \22x86-interrupt\22 fn(x86_64::structures::idt::InterruptStackFrame)>", ptr %_0, i32 0, i32 3, !dbg !1719
  store i16 0, ptr %2, align 2, !dbg !1719
  %3 = getelementptr inbounds %"x86_64::structures::idt::Entry<extern \22x86-interrupt\22 fn(x86_64::structures::idt::InterruptStackFrame)>", ptr %_0, i32 0, i32 4, !dbg !1719
  store i32 0, ptr %3, align 4, !dbg !1719
  %4 = getelementptr inbounds %"x86_64::structures::idt::Entry<extern \22x86-interrupt\22 fn(x86_64::structures::idt::InterruptStackFrame)>", ptr %_0, i32 0, i32 5, !dbg !1719
  store i32 0, ptr %4, align 4, !dbg !1719
  ret void, !dbg !1720
}

; x86_64::structures::idt::Entry<F>::missing
; Function Attrs: inlinehint noredzone nounwind
define void @"_ZN6x86_6410structures3idt14Entry$LT$F$GT$7missing17hcefecbba7ac30689E"(ptr sret(%"x86_64::structures::idt::Entry<extern \22x86-interrupt\22 fn(x86_64::structures::idt::InterruptStackFrame, u64) -> !>") align 4 %_0) unnamed_addr #1 !dbg !1721 {
start:
; call x86_64::structures::idt::EntryOptions::minimal
  %_1 = call i16 @_ZN6x86_6410structures3idt12EntryOptions7minimal17h91d8f875fec8f44aE() #7, !dbg !1725
  store i16 0, ptr %_0, align 4, !dbg !1726
  %0 = getelementptr inbounds %"x86_64::structures::idt::Entry<extern \22x86-interrupt\22 fn(x86_64::structures::idt::InterruptStackFrame, u64) -> !>", ptr %_0, i32 0, i32 1, !dbg !1726
  store i16 0, ptr %0, align 2, !dbg !1726
  %1 = getelementptr inbounds %"x86_64::structures::idt::Entry<extern \22x86-interrupt\22 fn(x86_64::structures::idt::InterruptStackFrame, u64) -> !>", ptr %_0, i32 0, i32 2, !dbg !1726
  store i16 %_1, ptr %1, align 4, !dbg !1726
  %2 = getelementptr inbounds %"x86_64::structures::idt::Entry<extern \22x86-interrupt\22 fn(x86_64::structures::idt::InterruptStackFrame, u64) -> !>", ptr %_0, i32 0, i32 3, !dbg !1726
  store i16 0, ptr %2, align 2, !dbg !1726
  %3 = getelementptr inbounds %"x86_64::structures::idt::Entry<extern \22x86-interrupt\22 fn(x86_64::structures::idt::InterruptStackFrame, u64) -> !>", ptr %_0, i32 0, i32 4, !dbg !1726
  store i32 0, ptr %3, align 4, !dbg !1726
  %4 = getelementptr inbounds %"x86_64::structures::idt::Entry<extern \22x86-interrupt\22 fn(x86_64::structures::idt::InterruptStackFrame, u64) -> !>", ptr %_0, i32 0, i32 5, !dbg !1726
  store i32 0, ptr %4, align 4, !dbg !1726
  ret void, !dbg !1727
}

; x86_64::structures::idt::Entry<F>::missing
; Function Attrs: inlinehint noredzone nounwind
define void @"_ZN6x86_6410structures3idt14Entry$LT$F$GT$7missing17hef76abe0239ed454E"(ptr sret(%"x86_64::structures::idt::Entry<extern \22x86-interrupt\22 fn(x86_64::structures::idt::InterruptStackFrame, x86_64::structures::idt::PageFaultErrorCode)>") align 4 %_0) unnamed_addr #1 !dbg !1728 {
start:
; call x86_64::structures::idt::EntryOptions::minimal
  %_1 = call i16 @_ZN6x86_6410structures3idt12EntryOptions7minimal17h91d8f875fec8f44aE() #7, !dbg !1732
  store i16 0, ptr %_0, align 4, !dbg !1733
  %0 = getelementptr inbounds %"x86_64::structures::idt::Entry<extern \22x86-interrupt\22 fn(x86_64::structures::idt::InterruptStackFrame, x86_64::structures::idt::PageFaultErrorCode)>", ptr %_0, i32 0, i32 1, !dbg !1733
  store i16 0, ptr %0, align 2, !dbg !1733
  %1 = getelementptr inbounds %"x86_64::structures::idt::Entry<extern \22x86-interrupt\22 fn(x86_64::structures::idt::InterruptStackFrame, x86_64::structures::idt::PageFaultErrorCode)>", ptr %_0, i32 0, i32 2, !dbg !1733
  store i16 %_1, ptr %1, align 4, !dbg !1733
  %2 = getelementptr inbounds %"x86_64::structures::idt::Entry<extern \22x86-interrupt\22 fn(x86_64::structures::idt::InterruptStackFrame, x86_64::structures::idt::PageFaultErrorCode)>", ptr %_0, i32 0, i32 3, !dbg !1733
  store i16 0, ptr %2, align 2, !dbg !1733
  %3 = getelementptr inbounds %"x86_64::structures::idt::Entry<extern \22x86-interrupt\22 fn(x86_64::structures::idt::InterruptStackFrame, x86_64::structures::idt::PageFaultErrorCode)>", ptr %_0, i32 0, i32 4, !dbg !1733
  store i32 0, ptr %3, align 4, !dbg !1733
  %4 = getelementptr inbounds %"x86_64::structures::idt::Entry<extern \22x86-interrupt\22 fn(x86_64::structures::idt::InterruptStackFrame, x86_64::structures::idt::PageFaultErrorCode)>", ptr %_0, i32 0, i32 5, !dbg !1733
  store i32 0, ptr %4, align 4, !dbg !1733
  ret void, !dbg !1734
}

; x86_64::structures::idt::Entry<extern "x86.interrupt" fn(x86_64::structures::idt::InterruptStackFrame,x86_64::structures::idt::PageFaultErrorCode)>::set_handler_fn
; Function Attrs: inlinehint noredzone nounwind
define internal align 2 ptr @"_ZN6x86_6410structures3idt152Entry$LT$extern$u20$$u22$x86.interrupt$u22$$u20$fn$LP$x86_64..structures..idt..InterruptStackFrame$C$x86_64..structures..idt..PageFaultErrorCode$RP$$GT$14set_handler_fn17hba6a94845f9e9797E"(ptr align 4 %self, ptr %handler) unnamed_addr #1 !dbg !1735 {
start:
  %handler.dbg.spill2 = alloca i64, align 8
  %handler.dbg.spill = alloca ptr, align 8
  %self.dbg.spill = alloca ptr, align 8
  store ptr %self, ptr %self.dbg.spill, align 8
  call void @llvm.dbg.declare(metadata ptr %self.dbg.spill, metadata !1740, metadata !DIExpression()), !dbg !1744
  store ptr %handler, ptr %handler.dbg.spill, align 8
  call void @llvm.dbg.declare(metadata ptr %handler.dbg.spill, metadata !1741, metadata !DIExpression()), !dbg !1745
  %_4 = ptrtoint ptr %handler to i64, !dbg !1746
; call x86_64::addr::VirtAddr::new
  %handler1 = call i64 @_ZN6x86_644addr8VirtAddr3new17h1c914d1881d8f861E(i64 %_4) #7, !dbg !1747
  store i64 %handler1, ptr %handler.dbg.spill2, align 8, !dbg !1747
  call void @llvm.dbg.declare(metadata ptr %handler.dbg.spill2, metadata !1742, metadata !DIExpression()), !dbg !1748
; call x86_64::structures::idt::Entry<F>::set_handler_addr
  %_0 = call align 2 ptr @"_ZN6x86_6410structures3idt14Entry$LT$F$GT$16set_handler_addr17h9f26dbc8176aadc3E"(ptr align 4 %self, i64 %handler1) #7, !dbg !1749
  ret ptr %_0, !dbg !1750
}

; x86_64::structures::idt::InterruptDescriptorTable::load_unsafe
; Function Attrs: inlinehint noredzone nounwind
define internal void @_ZN6x86_6410structures3idt24InterruptDescriptorTable11load_unsafe17h28a8bd6a5446ce83E(ptr align 16 %self) unnamed_addr #1 !dbg !1751 {
start:
  %self.dbg.spill = alloca ptr, align 8
  %_4 = alloca %"x86_64::structures::DescriptorTablePointer", align 2
  store ptr %self, ptr %self.dbg.spill, align 8
  call void @llvm.dbg.declare(metadata ptr %self.dbg.spill, metadata !1793, metadata !DIExpression()), !dbg !1794
; call x86_64::structures::idt::InterruptDescriptorTable::pointer
  call void @_ZN6x86_6410structures3idt24InterruptDescriptorTable7pointer17ha0457ead241bb2e4E(ptr sret(%"x86_64::structures::DescriptorTablePointer") align 2 %_4, ptr align 16 %self) #7, !dbg !1795
; call x86_64::instructions::tables::lidt
  call void @_ZN6x86_6412instructions6tables4lidt17h062c7987632075d3E(ptr align 2 %_4) #7, !dbg !1796
  ret void, !dbg !1797
}

; x86_64::structures::idt::InterruptDescriptorTable::new
; Function Attrs: inlinehint noredzone nounwind
define internal void @_ZN6x86_6410structures3idt24InterruptDescriptorTable3new17hd26793fa67b04c7fE(ptr sret(%"x86_64::structures::idt::InterruptDescriptorTable") align 16 %_0) unnamed_addr #1 !dbg !1798 {
start:
  %_30 = alloca %"x86_64::structures::idt::Entry<extern \22x86-interrupt\22 fn(x86_64::structures::idt::InterruptStackFrame)>", align 4
  %_29 = alloca [224 x %"x86_64::structures::idt::Entry<extern \22x86-interrupt\22 fn(x86_64::structures::idt::InterruptStackFrame)>"], align 4
  %_28 = alloca %"x86_64::structures::idt::Entry<extern \22x86-interrupt\22 fn(x86_64::structures::idt::InterruptStackFrame)>", align 4
  %_27 = alloca %"x86_64::structures::idt::Entry<extern \22x86-interrupt\22 fn(x86_64::structures::idt::InterruptStackFrame, u64)>", align 4
  %_26 = alloca %"x86_64::structures::idt::Entry<extern \22x86-interrupt\22 fn(x86_64::structures::idt::InterruptStackFrame, u64)>", align 4
  %_25 = alloca %"x86_64::structures::idt::Entry<extern \22x86-interrupt\22 fn(x86_64::structures::idt::InterruptStackFrame)>", align 4
  %_24 = alloca %"x86_64::structures::idt::Entry<extern \22x86-interrupt\22 fn(x86_64::structures::idt::InterruptStackFrame)>", align 4
  %_23 = alloca [6 x %"x86_64::structures::idt::Entry<extern \22x86-interrupt\22 fn(x86_64::structures::idt::InterruptStackFrame)>"], align 4
  %_22 = alloca %"x86_64::structures::idt::Entry<extern \22x86-interrupt\22 fn(x86_64::structures::idt::InterruptStackFrame, u64)>", align 4
  %_21 = alloca %"x86_64::structures::idt::Entry<extern \22x86-interrupt\22 fn(x86_64::structures::idt::InterruptStackFrame)>", align 4
  %_20 = alloca %"x86_64::structures::idt::Entry<extern \22x86-interrupt\22 fn(x86_64::structures::idt::InterruptStackFrame)>", align 4
  %_19 = alloca %"x86_64::structures::idt::Entry<extern \22x86-interrupt\22 fn(x86_64::structures::idt::InterruptStackFrame) -> !>", align 4
  %_18 = alloca %"x86_64::structures::idt::Entry<extern \22x86-interrupt\22 fn(x86_64::structures::idt::InterruptStackFrame, u64)>", align 4
  %_17 = alloca %"x86_64::structures::idt::Entry<extern \22x86-interrupt\22 fn(x86_64::structures::idt::InterruptStackFrame)>", align 4
  %_16 = alloca %"x86_64::structures::idt::Entry<extern \22x86-interrupt\22 fn(x86_64::structures::idt::InterruptStackFrame)>", align 4
  %_15 = alloca %"x86_64::structures::idt::Entry<extern \22x86-interrupt\22 fn(x86_64::structures::idt::InterruptStackFrame, x86_64::structures::idt::PageFaultErrorCode)>", align 4
  %_14 = alloca %"x86_64::structures::idt::Entry<extern \22x86-interrupt\22 fn(x86_64::structures::idt::InterruptStackFrame, u64)>", align 4
  %_13 = alloca %"x86_64::structures::idt::Entry<extern \22x86-interrupt\22 fn(x86_64::structures::idt::InterruptStackFrame, u64)>", align 4
  %_12 = alloca %"x86_64::structures::idt::Entry<extern \22x86-interrupt\22 fn(x86_64::structures::idt::InterruptStackFrame, u64)>", align 4
  %_11 = alloca %"x86_64::structures::idt::Entry<extern \22x86-interrupt\22 fn(x86_64::structures::idt::InterruptStackFrame, u64)>", align 4
  %_10 = alloca %"x86_64::structures::idt::Entry<extern \22x86-interrupt\22 fn(x86_64::structures::idt::InterruptStackFrame)>", align 4
  %_9 = alloca %"x86_64::structures::idt::Entry<extern \22x86-interrupt\22 fn(x86_64::structures::idt::InterruptStackFrame, u64) -> !>", align 4
  %_8 = alloca %"x86_64::structures::idt::Entry<extern \22x86-interrupt\22 fn(x86_64::structures::idt::InterruptStackFrame)>", align 4
  %_7 = alloca %"x86_64::structures::idt::Entry<extern \22x86-interrupt\22 fn(x86_64::structures::idt::InterruptStackFrame)>", align 4
  %_6 = alloca %"x86_64::structures::idt::Entry<extern \22x86-interrupt\22 fn(x86_64::structures::idt::InterruptStackFrame)>", align 4
  %_5 = alloca %"x86_64::structures::idt::Entry<extern \22x86-interrupt\22 fn(x86_64::structures::idt::InterruptStackFrame)>", align 4
  %_4 = alloca %"x86_64::structures::idt::Entry<extern \22x86-interrupt\22 fn(x86_64::structures::idt::InterruptStackFrame)>", align 4
  %_3 = alloca %"x86_64::structures::idt::Entry<extern \22x86-interrupt\22 fn(x86_64::structures::idt::InterruptStackFrame)>", align 4
  %_2 = alloca %"x86_64::structures::idt::Entry<extern \22x86-interrupt\22 fn(x86_64::structures::idt::InterruptStackFrame)>", align 4
  %_1 = alloca %"x86_64::structures::idt::Entry<extern \22x86-interrupt\22 fn(x86_64::structures::idt::InterruptStackFrame)>", align 4
; call x86_64::structures::idt::Entry<F>::missing
  call void @"_ZN6x86_6410structures3idt14Entry$LT$F$GT$7missing17h7975fe0fc70fd548E"(ptr sret(%"x86_64::structures::idt::Entry<extern \22x86-interrupt\22 fn(x86_64::structures::idt::InterruptStackFrame)>") align 4 %_1) #7, !dbg !1802
; call x86_64::structures::idt::Entry<F>::missing
  call void @"_ZN6x86_6410structures3idt14Entry$LT$F$GT$7missing17h7975fe0fc70fd548E"(ptr sret(%"x86_64::structures::idt::Entry<extern \22x86-interrupt\22 fn(x86_64::structures::idt::InterruptStackFrame)>") align 4 %_2) #7, !dbg !1803
; call x86_64::structures::idt::Entry<F>::missing
  call void @"_ZN6x86_6410structures3idt14Entry$LT$F$GT$7missing17h7975fe0fc70fd548E"(ptr sret(%"x86_64::structures::idt::Entry<extern \22x86-interrupt\22 fn(x86_64::structures::idt::InterruptStackFrame)>") align 4 %_3) #7, !dbg !1804
; call x86_64::structures::idt::Entry<F>::missing
  call void @"_ZN6x86_6410structures3idt14Entry$LT$F$GT$7missing17h7975fe0fc70fd548E"(ptr sret(%"x86_64::structures::idt::Entry<extern \22x86-interrupt\22 fn(x86_64::structures::idt::InterruptStackFrame)>") align 4 %_4) #7, !dbg !1805
; call x86_64::structures::idt::Entry<F>::missing
  call void @"_ZN6x86_6410structures3idt14Entry$LT$F$GT$7missing17h7975fe0fc70fd548E"(ptr sret(%"x86_64::structures::idt::Entry<extern \22x86-interrupt\22 fn(x86_64::structures::idt::InterruptStackFrame)>") align 4 %_5) #7, !dbg !1806
; call x86_64::structures::idt::Entry<F>::missing
  call void @"_ZN6x86_6410structures3idt14Entry$LT$F$GT$7missing17h7975fe0fc70fd548E"(ptr sret(%"x86_64::structures::idt::Entry<extern \22x86-interrupt\22 fn(x86_64::structures::idt::InterruptStackFrame)>") align 4 %_6) #7, !dbg !1807
; call x86_64::structures::idt::Entry<F>::missing
  call void @"_ZN6x86_6410structures3idt14Entry$LT$F$GT$7missing17h7975fe0fc70fd548E"(ptr sret(%"x86_64::structures::idt::Entry<extern \22x86-interrupt\22 fn(x86_64::structures::idt::InterruptStackFrame)>") align 4 %_7) #7, !dbg !1808
; call x86_64::structures::idt::Entry<F>::missing
  call void @"_ZN6x86_6410structures3idt14Entry$LT$F$GT$7missing17h7975fe0fc70fd548E"(ptr sret(%"x86_64::structures::idt::Entry<extern \22x86-interrupt\22 fn(x86_64::structures::idt::InterruptStackFrame)>") align 4 %_8) #7, !dbg !1809
; call x86_64::structures::idt::Entry<F>::missing
  call void @"_ZN6x86_6410structures3idt14Entry$LT$F$GT$7missing17hcefecbba7ac30689E"(ptr sret(%"x86_64::structures::idt::Entry<extern \22x86-interrupt\22 fn(x86_64::structures::idt::InterruptStackFrame, u64) -> !>") align 4 %_9) #7, !dbg !1810
; call x86_64::structures::idt::Entry<F>::missing
  call void @"_ZN6x86_6410structures3idt14Entry$LT$F$GT$7missing17h7975fe0fc70fd548E"(ptr sret(%"x86_64::structures::idt::Entry<extern \22x86-interrupt\22 fn(x86_64::structures::idt::InterruptStackFrame)>") align 4 %_10) #7, !dbg !1811
; call x86_64::structures::idt::Entry<F>::missing
  call void @"_ZN6x86_6410structures3idt14Entry$LT$F$GT$7missing17h0a74f4128ab15f15E"(ptr sret(%"x86_64::structures::idt::Entry<extern \22x86-interrupt\22 fn(x86_64::structures::idt::InterruptStackFrame, u64)>") align 4 %_11) #7, !dbg !1812
; call x86_64::structures::idt::Entry<F>::missing
  call void @"_ZN6x86_6410structures3idt14Entry$LT$F$GT$7missing17h0a74f4128ab15f15E"(ptr sret(%"x86_64::structures::idt::Entry<extern \22x86-interrupt\22 fn(x86_64::structures::idt::InterruptStackFrame, u64)>") align 4 %_12) #7, !dbg !1813
; call x86_64::structures::idt::Entry<F>::missing
  call void @"_ZN6x86_6410structures3idt14Entry$LT$F$GT$7missing17h0a74f4128ab15f15E"(ptr sret(%"x86_64::structures::idt::Entry<extern \22x86-interrupt\22 fn(x86_64::structures::idt::InterruptStackFrame, u64)>") align 4 %_13) #7, !dbg !1814
; call x86_64::structures::idt::Entry<F>::missing
  call void @"_ZN6x86_6410structures3idt14Entry$LT$F$GT$7missing17h0a74f4128ab15f15E"(ptr sret(%"x86_64::structures::idt::Entry<extern \22x86-interrupt\22 fn(x86_64::structures::idt::InterruptStackFrame, u64)>") align 4 %_14) #7, !dbg !1815
; call x86_64::structures::idt::Entry<F>::missing
  call void @"_ZN6x86_6410structures3idt14Entry$LT$F$GT$7missing17hef76abe0239ed454E"(ptr sret(%"x86_64::structures::idt::Entry<extern \22x86-interrupt\22 fn(x86_64::structures::idt::InterruptStackFrame, x86_64::structures::idt::PageFaultErrorCode)>") align 4 %_15) #7, !dbg !1816
; call x86_64::structures::idt::Entry<F>::missing
  call void @"_ZN6x86_6410structures3idt14Entry$LT$F$GT$7missing17h7975fe0fc70fd548E"(ptr sret(%"x86_64::structures::idt::Entry<extern \22x86-interrupt\22 fn(x86_64::structures::idt::InterruptStackFrame)>") align 4 %_16) #7, !dbg !1817
; call x86_64::structures::idt::Entry<F>::missing
  call void @"_ZN6x86_6410structures3idt14Entry$LT$F$GT$7missing17h7975fe0fc70fd548E"(ptr sret(%"x86_64::structures::idt::Entry<extern \22x86-interrupt\22 fn(x86_64::structures::idt::InterruptStackFrame)>") align 4 %_17) #7, !dbg !1818
; call x86_64::structures::idt::Entry<F>::missing
  call void @"_ZN6x86_6410structures3idt14Entry$LT$F$GT$7missing17h0a74f4128ab15f15E"(ptr sret(%"x86_64::structures::idt::Entry<extern \22x86-interrupt\22 fn(x86_64::structures::idt::InterruptStackFrame, u64)>") align 4 %_18) #7, !dbg !1819
; call x86_64::structures::idt::Entry<F>::missing
  call void @"_ZN6x86_6410structures3idt14Entry$LT$F$GT$7missing17h0425f6367d16d4b0E"(ptr sret(%"x86_64::structures::idt::Entry<extern \22x86-interrupt\22 fn(x86_64::structures::idt::InterruptStackFrame) -> !>") align 4 %_19) #7, !dbg !1820
; call x86_64::structures::idt::Entry<F>::missing
  call void @"_ZN6x86_6410structures3idt14Entry$LT$F$GT$7missing17h7975fe0fc70fd548E"(ptr sret(%"x86_64::structures::idt::Entry<extern \22x86-interrupt\22 fn(x86_64::structures::idt::InterruptStackFrame)>") align 4 %_20) #7, !dbg !1821
; call x86_64::structures::idt::Entry<F>::missing
  call void @"_ZN6x86_6410structures3idt14Entry$LT$F$GT$7missing17h7975fe0fc70fd548E"(ptr sret(%"x86_64::structures::idt::Entry<extern \22x86-interrupt\22 fn(x86_64::structures::idt::InterruptStackFrame)>") align 4 %_21) #7, !dbg !1822
; call x86_64::structures::idt::Entry<F>::missing
  call void @"_ZN6x86_6410structures3idt14Entry$LT$F$GT$7missing17h0a74f4128ab15f15E"(ptr sret(%"x86_64::structures::idt::Entry<extern \22x86-interrupt\22 fn(x86_64::structures::idt::InterruptStackFrame, u64)>") align 4 %_22) #7, !dbg !1823
; call x86_64::structures::idt::Entry<F>::missing
  call void @"_ZN6x86_6410structures3idt14Entry$LT$F$GT$7missing17h7975fe0fc70fd548E"(ptr sret(%"x86_64::structures::idt::Entry<extern \22x86-interrupt\22 fn(x86_64::structures::idt::InterruptStackFrame)>") align 4 %_24) #7, !dbg !1824
  br label %repeat_loop_header, !dbg !1825

repeat_loop_header:                               ; preds = %repeat_loop_body, %start
  %0 = phi i64 [ 0, %start ], [ %3, %repeat_loop_body ]
  %1 = icmp ult i64 %0, 6
  br i1 %1, label %repeat_loop_body, label %repeat_loop_next

repeat_loop_body:                                 ; preds = %repeat_loop_header
  %2 = getelementptr inbounds [6 x %"x86_64::structures::idt::Entry<extern \22x86-interrupt\22 fn(x86_64::structures::idt::InterruptStackFrame)>"], ptr %_23, i64 0, i64 %0
  call void @llvm.memcpy.p0.p0.i64(ptr align 4 %2, ptr align 4 %_24, i64 16, i1 false)
  %3 = add nuw i64 %0, 1
  br label %repeat_loop_header

repeat_loop_next:                                 ; preds = %repeat_loop_header
; call x86_64::structures::idt::Entry<F>::missing
  call void @"_ZN6x86_6410structures3idt14Entry$LT$F$GT$7missing17h7975fe0fc70fd548E"(ptr sret(%"x86_64::structures::idt::Entry<extern \22x86-interrupt\22 fn(x86_64::structures::idt::InterruptStackFrame)>") align 4 %_25) #7, !dbg !1826
; call x86_64::structures::idt::Entry<F>::missing
  call void @"_ZN6x86_6410structures3idt14Entry$LT$F$GT$7missing17h0a74f4128ab15f15E"(ptr sret(%"x86_64::structures::idt::Entry<extern \22x86-interrupt\22 fn(x86_64::structures::idt::InterruptStackFrame, u64)>") align 4 %_26) #7, !dbg !1827
; call x86_64::structures::idt::Entry<F>::missing
  call void @"_ZN6x86_6410structures3idt14Entry$LT$F$GT$7missing17h0a74f4128ab15f15E"(ptr sret(%"x86_64::structures::idt::Entry<extern \22x86-interrupt\22 fn(x86_64::structures::idt::InterruptStackFrame, u64)>") align 4 %_27) #7, !dbg !1828
; call x86_64::structures::idt::Entry<F>::missing
  call void @"_ZN6x86_6410structures3idt14Entry$LT$F$GT$7missing17h7975fe0fc70fd548E"(ptr sret(%"x86_64::structures::idt::Entry<extern \22x86-interrupt\22 fn(x86_64::structures::idt::InterruptStackFrame)>") align 4 %_28) #7, !dbg !1829
; call x86_64::structures::idt::Entry<F>::missing
  call void @"_ZN6x86_6410structures3idt14Entry$LT$F$GT$7missing17h7975fe0fc70fd548E"(ptr sret(%"x86_64::structures::idt::Entry<extern \22x86-interrupt\22 fn(x86_64::structures::idt::InterruptStackFrame)>") align 4 %_30) #7, !dbg !1830
  br label %repeat_loop_header1, !dbg !1831

repeat_loop_header1:                              ; preds = %repeat_loop_body2, %repeat_loop_next
  %4 = phi i64 [ 0, %repeat_loop_next ], [ %7, %repeat_loop_body2 ]
  %5 = icmp ult i64 %4, 224
  br i1 %5, label %repeat_loop_body2, label %repeat_loop_next3

repeat_loop_body2:                                ; preds = %repeat_loop_header1
  %6 = getelementptr inbounds [224 x %"x86_64::structures::idt::Entry<extern \22x86-interrupt\22 fn(x86_64::structures::idt::InterruptStackFrame)>"], ptr %_29, i64 0, i64 %4
  call void @llvm.memcpy.p0.p0.i64(ptr align 4 %6, ptr align 4 %_30, i64 16, i1 false)
  %7 = add nuw i64 %4, 1
  br label %repeat_loop_header1

repeat_loop_next3:                                ; preds = %repeat_loop_header1
  call void @llvm.memcpy.p0.p0.i64(ptr align 16 %_0, ptr align 4 %_1, i64 16, i1 false), !dbg !1832
  %8 = getelementptr inbounds %"x86_64::structures::idt::InterruptDescriptorTable", ptr %_0, i32 0, i32 1, !dbg !1832
  call void @llvm.memcpy.p0.p0.i64(ptr align 16 %8, ptr align 4 %_2, i64 16, i1 false), !dbg !1832
  %9 = getelementptr inbounds %"x86_64::structures::idt::InterruptDescriptorTable", ptr %_0, i32 0, i32 2, !dbg !1832
  call void @llvm.memcpy.p0.p0.i64(ptr align 16 %9, ptr align 4 %_3, i64 16, i1 false), !dbg !1832
  %10 = getelementptr inbounds %"x86_64::structures::idt::InterruptDescriptorTable", ptr %_0, i32 0, i32 3, !dbg !1832
  call void @llvm.memcpy.p0.p0.i64(ptr align 16 %10, ptr align 4 %_4, i64 16, i1 false), !dbg !1832
  %11 = getelementptr inbounds %"x86_64::structures::idt::InterruptDescriptorTable", ptr %_0, i32 0, i32 4, !dbg !1832
  call void @llvm.memcpy.p0.p0.i64(ptr align 16 %11, ptr align 4 %_5, i64 16, i1 false), !dbg !1832
  %12 = getelementptr inbounds %"x86_64::structures::idt::InterruptDescriptorTable", ptr %_0, i32 0, i32 5, !dbg !1832
  call void @llvm.memcpy.p0.p0.i64(ptr align 16 %12, ptr align 4 %_6, i64 16, i1 false), !dbg !1832
  %13 = getelementptr inbounds %"x86_64::structures::idt::InterruptDescriptorTable", ptr %_0, i32 0, i32 6, !dbg !1832
  call void @llvm.memcpy.p0.p0.i64(ptr align 16 %13, ptr align 4 %_7, i64 16, i1 false), !dbg !1832
  %14 = getelementptr inbounds %"x86_64::structures::idt::InterruptDescriptorTable", ptr %_0, i32 0, i32 7, !dbg !1832
  call void @llvm.memcpy.p0.p0.i64(ptr align 16 %14, ptr align 4 %_8, i64 16, i1 false), !dbg !1832
  %15 = getelementptr inbounds %"x86_64::structures::idt::InterruptDescriptorTable", ptr %_0, i32 0, i32 8, !dbg !1832
  call void @llvm.memcpy.p0.p0.i64(ptr align 16 %15, ptr align 4 %_9, i64 16, i1 false), !dbg !1832
  %16 = getelementptr inbounds %"x86_64::structures::idt::InterruptDescriptorTable", ptr %_0, i32 0, i32 9, !dbg !1832
  call void @llvm.memcpy.p0.p0.i64(ptr align 16 %16, ptr align 4 %_10, i64 16, i1 false), !dbg !1832
  %17 = getelementptr inbounds %"x86_64::structures::idt::InterruptDescriptorTable", ptr %_0, i32 0, i32 10, !dbg !1832
  call void @llvm.memcpy.p0.p0.i64(ptr align 16 %17, ptr align 4 %_11, i64 16, i1 false), !dbg !1832
  %18 = getelementptr inbounds %"x86_64::structures::idt::InterruptDescriptorTable", ptr %_0, i32 0, i32 11, !dbg !1832
  call void @llvm.memcpy.p0.p0.i64(ptr align 16 %18, ptr align 4 %_12, i64 16, i1 false), !dbg !1832
  %19 = getelementptr inbounds %"x86_64::structures::idt::InterruptDescriptorTable", ptr %_0, i32 0, i32 12, !dbg !1832
  call void @llvm.memcpy.p0.p0.i64(ptr align 16 %19, ptr align 4 %_13, i64 16, i1 false), !dbg !1832
  %20 = getelementptr inbounds %"x86_64::structures::idt::InterruptDescriptorTable", ptr %_0, i32 0, i32 13, !dbg !1832
  call void @llvm.memcpy.p0.p0.i64(ptr align 16 %20, ptr align 4 %_14, i64 16, i1 false), !dbg !1832
  %21 = getelementptr inbounds %"x86_64::structures::idt::InterruptDescriptorTable", ptr %_0, i32 0, i32 14, !dbg !1832
  call void @llvm.memcpy.p0.p0.i64(ptr align 16 %21, ptr align 4 %_15, i64 16, i1 false), !dbg !1832
  %22 = getelementptr inbounds %"x86_64::structures::idt::InterruptDescriptorTable", ptr %_0, i32 0, i32 15, !dbg !1832
  call void @llvm.memcpy.p0.p0.i64(ptr align 16 %22, ptr align 4 %_16, i64 16, i1 false), !dbg !1832
  %23 = getelementptr inbounds %"x86_64::structures::idt::InterruptDescriptorTable", ptr %_0, i32 0, i32 16, !dbg !1832
  call void @llvm.memcpy.p0.p0.i64(ptr align 16 %23, ptr align 4 %_17, i64 16, i1 false), !dbg !1832
  %24 = getelementptr inbounds %"x86_64::structures::idt::InterruptDescriptorTable", ptr %_0, i32 0, i32 17, !dbg !1832
  call void @llvm.memcpy.p0.p0.i64(ptr align 16 %24, ptr align 4 %_18, i64 16, i1 false), !dbg !1832
  %25 = getelementptr inbounds %"x86_64::structures::idt::InterruptDescriptorTable", ptr %_0, i32 0, i32 18, !dbg !1832
  call void @llvm.memcpy.p0.p0.i64(ptr align 16 %25, ptr align 4 %_19, i64 16, i1 false), !dbg !1832
  %26 = getelementptr inbounds %"x86_64::structures::idt::InterruptDescriptorTable", ptr %_0, i32 0, i32 19, !dbg !1832
  call void @llvm.memcpy.p0.p0.i64(ptr align 16 %26, ptr align 4 %_20, i64 16, i1 false), !dbg !1832
  %27 = getelementptr inbounds %"x86_64::structures::idt::InterruptDescriptorTable", ptr %_0, i32 0, i32 20, !dbg !1832
  call void @llvm.memcpy.p0.p0.i64(ptr align 16 %27, ptr align 4 %_21, i64 16, i1 false), !dbg !1832
  %28 = getelementptr inbounds %"x86_64::structures::idt::InterruptDescriptorTable", ptr %_0, i32 0, i32 21, !dbg !1832
  call void @llvm.memcpy.p0.p0.i64(ptr align 16 %28, ptr align 4 %_22, i64 16, i1 false), !dbg !1832
  %29 = getelementptr inbounds %"x86_64::structures::idt::InterruptDescriptorTable", ptr %_0, i32 0, i32 22, !dbg !1832
  call void @llvm.memcpy.p0.p0.i64(ptr align 16 %29, ptr align 4 %_23, i64 96, i1 false), !dbg !1832
  %30 = getelementptr inbounds %"x86_64::structures::idt::InterruptDescriptorTable", ptr %_0, i32 0, i32 23, !dbg !1832
  call void @llvm.memcpy.p0.p0.i64(ptr align 16 %30, ptr align 4 %_25, i64 16, i1 false), !dbg !1832
  %31 = getelementptr inbounds %"x86_64::structures::idt::InterruptDescriptorTable", ptr %_0, i32 0, i32 24, !dbg !1832
  call void @llvm.memcpy.p0.p0.i64(ptr align 16 %31, ptr align 4 %_26, i64 16, i1 false), !dbg !1832
  %32 = getelementptr inbounds %"x86_64::structures::idt::InterruptDescriptorTable", ptr %_0, i32 0, i32 25, !dbg !1832
  call void @llvm.memcpy.p0.p0.i64(ptr align 16 %32, ptr align 4 %_27, i64 16, i1 false), !dbg !1832
  %33 = getelementptr inbounds %"x86_64::structures::idt::InterruptDescriptorTable", ptr %_0, i32 0, i32 26, !dbg !1832
  call void @llvm.memcpy.p0.p0.i64(ptr align 16 %33, ptr align 4 %_28, i64 16, i1 false), !dbg !1832
  %34 = getelementptr inbounds %"x86_64::structures::idt::InterruptDescriptorTable", ptr %_0, i32 0, i32 27, !dbg !1832
  call void @llvm.memcpy.p0.p0.i64(ptr align 16 %34, ptr align 4 %_29, i64 3584, i1 false), !dbg !1832
  ret void, !dbg !1833
}

; x86_64::structures::idt::InterruptDescriptorTable::load
; Function Attrs: inlinehint noredzone nounwind
define internal void @_ZN6x86_6410structures3idt24InterruptDescriptorTable4load17h674064f7c964ff31E(ptr align 16 %self) unnamed_addr #1 !dbg !1834 {
start:
  %self.dbg.spill = alloca ptr, align 8
  store ptr %self, ptr %self.dbg.spill, align 8
  call void @llvm.dbg.declare(metadata ptr %self.dbg.spill, metadata !1837, metadata !DIExpression()), !dbg !1838
; call x86_64::structures::idt::InterruptDescriptorTable::load_unsafe
  call void @_ZN6x86_6410structures3idt24InterruptDescriptorTable11load_unsafe17h28a8bd6a5446ce83E(ptr align 16 %self) #7, !dbg !1839
  ret void, !dbg !1840
}

; x86_64::instructions::interrupts::enable
; Function Attrs: inlinehint noredzone nounwind
define internal void @_ZN6x86_6412instructions10interrupts6enable17ha1e4ff5e11182e00E() unnamed_addr #1 !dbg !1841 {
start:
  %_2 = alloca i8, align 1
  store i8 1, ptr %_2, align 1, !dbg !1844
  %0 = load i8, ptr %_2, align 1, !dbg !1845, !range !637, !noundef !21
; call core::sync::atomic::compiler_fence
  call void @_ZN4core4sync6atomic14compiler_fence17h15951ef92675f7beE(i8 %0) #7, !dbg !1845
  call void asm sideeffect inteldialect "sti", "~{dirflag},~{fpsr},~{flags}"() #12, !dbg !1846, !srcloc !1847
  ret void, !dbg !1848
}

; x86_64::instructions::segmentation::<impl x86_64::registers::segmentation::Segment for x86_64::registers::segmentation::CS>::get_reg
; Function Attrs: inlinehint noredzone nounwind
define internal i16 @"_ZN6x86_6412instructions12segmentation106_$LT$impl$u20$x86_64..registers..segmentation..Segment$u20$for$u20$x86_64..registers..segmentation..CS$GT$7get_reg17h5916ce3fada161fcE"() unnamed_addr #1 !dbg !1849 {
start:
  %segment = alloca i16, align 2
  %_0 = alloca i16, align 2
  call void @llvm.dbg.declare(metadata ptr %segment, metadata !1856, metadata !DIExpression()), !dbg !1858
  %0 = call i16 asm sideeffect inteldialect "mov ${0:w}, cs", "=&r"() #12, !dbg !1859, !srcloc !1860
  store i16 %0, ptr %segment, align 2, !dbg !1859
  %_2 = load i16, ptr %segment, align 2, !dbg !1861, !noundef !21
  store i16 %_2, ptr %_0, align 2, !dbg !1862
  %1 = load i16, ptr %_0, align 2, !dbg !1863, !noundef !21
  ret i16 %1, !dbg !1863
}

; x86_64::instructions::segmentation::<impl x86_64::registers::segmentation::Segment for x86_64::registers::segmentation::CS>::set_reg
; Function Attrs: inlinehint noredzone nounwind
define internal void @"_ZN6x86_6412instructions12segmentation106_$LT$impl$u20$x86_64..registers..segmentation..Segment$u20$for$u20$x86_64..registers..segmentation..CS$GT$7set_reg17h7948adf757fafeb7E"(i16 %sel) unnamed_addr #1 !dbg !1864 {
start:
  %small.dbg.spill.i = alloca i16, align 2
  %sel.dbg.spill = alloca i16, align 2
  store i16 %sel, ptr %sel.dbg.spill, align 2
  call void @llvm.dbg.declare(metadata ptr %sel.dbg.spill, metadata !1868, metadata !DIExpression()), !dbg !1869
  store i16 %sel, ptr %small.dbg.spill.i, align 2
  call void @llvm.dbg.declare(metadata ptr %small.dbg.spill.i, metadata !1870, metadata !DIExpression()), !dbg !1879
  %_0.i = zext i16 %sel to i64, !dbg !1881
  %0 = call i32 asm sideeffect alignstack inteldialect "push ${1:q}\0Alea ${0:q}, [1f + rip]\0Apush ${0:q}\0Aretfq\0A1:", "=r,r,~{memory}"(i64 %_0.i), !dbg !1882, !srcloc !1883
  ret void, !dbg !1884
}

; x86_64::instructions::tables::lgdt
; Function Attrs: inlinehint noredzone nounwind
define internal void @_ZN6x86_6412instructions6tables4lgdt17h699edf8408d99d33E(ptr align 2 %gdt) unnamed_addr #1 !dbg !1885 {
start:
  %gdt.dbg.spill = alloca ptr, align 8
  store ptr %gdt, ptr %gdt.dbg.spill, align 8
  call void @llvm.dbg.declare(metadata ptr %gdt.dbg.spill, metadata !1896, metadata !DIExpression()), !dbg !1897
  call void asm sideeffect inteldialect "lgdt [${0:q}]", "r,~{memory}"(ptr %gdt), !dbg !1898, !srcloc !1899
  ret void, !dbg !1900
}

; x86_64::instructions::tables::lidt
; Function Attrs: inlinehint noredzone nounwind
define internal void @_ZN6x86_6412instructions6tables4lidt17h062c7987632075d3E(ptr align 2 %idt) unnamed_addr #1 !dbg !1901 {
start:
  %idt.dbg.spill = alloca ptr, align 8
  store ptr %idt, ptr %idt.dbg.spill, align 8
  call void @llvm.dbg.declare(metadata ptr %idt.dbg.spill, metadata !1903, metadata !DIExpression()), !dbg !1904
  call void asm sideeffect inteldialect "lidt [${0:q}]", "r,~{memory}"(ptr %idt), !dbg !1905, !srcloc !1906
  ret void, !dbg !1907
}

; x86_64::instructions::tables::load_tss
; Function Attrs: inlinehint noredzone nounwind
define internal void @_ZN6x86_6412instructions6tables8load_tss17h5114bcba0e739f3cE(i16 %sel) unnamed_addr #1 !dbg !1908 {
start:
  %sel.dbg.spill = alloca i16, align 2
  store i16 %sel, ptr %sel.dbg.spill, align 2
  call void @llvm.dbg.declare(metadata ptr %sel.dbg.spill, metadata !1910, metadata !DIExpression()), !dbg !1911
  call void asm sideeffect inteldialect "ltr ${0:w}", "r,~{memory}"(i16 %sel), !dbg !1912, !srcloc !1913
  ret void, !dbg !1914
}

; x86_64::PrivilegeLevel::from_u16
; Function Attrs: inlinehint noredzone nounwind
define internal i8 @_ZN6x86_6414PrivilegeLevel8from_u1617hda1c20071d21f9d4E(i16 %value) unnamed_addr #1 !dbg !1915 {
start:
  %value.dbg.spill = alloca i16, align 2
  %_0 = alloca i8, align 1
  store i16 %value, ptr %value.dbg.spill, align 2
  call void @llvm.dbg.declare(metadata ptr %value.dbg.spill, metadata !1921, metadata !DIExpression()), !dbg !1922
  switch i16 %value, label %bb1 [
    i16 0, label %bb2
    i16 1, label %bb3
    i16 2, label %bb4
    i16 3, label %bb5
  ], !dbg !1923

bb1:                                              ; preds = %start
; call core::panicking::panic
  call void @_ZN4core9panicking5panic17h6f817e467d9b8599E(ptr align 1 @alloc_a287757f26180a2bb3deef4023d41a2e, i64 23, ptr align 8 @alloc_c829a67337a70fa82eb3e9cc844ce777) #11, !dbg !1924
  unreachable, !dbg !1924

bb2:                                              ; preds = %start
  store i8 0, ptr %_0, align 1, !dbg !1925
  br label %bb6, !dbg !1925

bb3:                                              ; preds = %start
  store i8 1, ptr %_0, align 1, !dbg !1926
  br label %bb6, !dbg !1926

bb4:                                              ; preds = %start
  store i8 2, ptr %_0, align 1, !dbg !1927
  br label %bb6, !dbg !1927

bb5:                                              ; preds = %start
  store i8 3, ptr %_0, align 1, !dbg !1928
  br label %bb6, !dbg !1928

bb6:                                              ; preds = %bb5, %bb4, %bb3, %bb2
  %0 = load i8, ptr %_0, align 1, !dbg !1929, !range !1364, !noundef !21
  ret i8 %0, !dbg !1929
}

; x86_64::addr::VirtAddr::new_truncate
; Function Attrs: inlinehint noredzone nounwind
define internal i64 @_ZN6x86_644addr8VirtAddr12new_truncate17hd90d3414a7b7f8dcE(i64 %addr) unnamed_addr #1 !dbg !1930 {
start:
  %addr.dbg.spill = alloca i64, align 8
  %_0 = alloca i64, align 8
  store i64 %addr, ptr %addr.dbg.spill, align 8
  call void @llvm.dbg.declare(metadata ptr %addr.dbg.spill, metadata !1936, metadata !DIExpression()), !dbg !1937
  %_5 = shl i64 %addr, 16, !dbg !1938
  %_3 = ashr i64 %_5, 16, !dbg !1939
  store i64 %_3, ptr %_0, align 8, !dbg !1940
  %0 = load i64, ptr %_0, align 8, !dbg !1941, !noundef !21
  ret i64 %0, !dbg !1941
}

; x86_64::addr::VirtAddr::new
; Function Attrs: inlinehint noredzone nounwind
define internal i64 @_ZN6x86_644addr8VirtAddr3new17h1c914d1881d8f861E(i64 %addr) unnamed_addr #1 !dbg !1942 {
start:
  %addr.dbg.spill = alloca i64, align 8
  store i64 %addr, ptr %addr.dbg.spill, align 8
  call void @llvm.dbg.declare(metadata ptr %addr.dbg.spill, metadata !1945, metadata !DIExpression()), !dbg !1946
; call x86_64::addr::VirtAddr::try_new
  %0 = call { i64, i64 } @_ZN6x86_644addr8VirtAddr7try_new17hb1aabefa68729b92E(i64 %addr) #7, !dbg !1947
  %_2.0 = extractvalue { i64, i64 } %0, 0, !dbg !1947
  %_2.1 = extractvalue { i64, i64 } %0, 1, !dbg !1947
; call core::result::Result<T,E>::expect
  %_0 = call i64 @"_ZN4core6result19Result$LT$T$C$E$GT$6expect17hdd24e5fa2de9d701E"(i64 %_2.0, i64 %_2.1, ptr align 1 @alloc_3b30f3c2fe1935017d2714aa9952ea95, i64 74, ptr align 8 @alloc_48765f877a14fc69d0e400169d59e85e) #7, !dbg !1947
  ret i64 %_0, !dbg !1948
}

; x86_64::addr::VirtAddr::as_u64
; Function Attrs: inlinehint noredzone nounwind
define internal i64 @_ZN6x86_644addr8VirtAddr6as_u6417h260af74e775ab5d1E(i64 %self) unnamed_addr #1 !dbg !1949 {
start:
  %self.dbg.spill = alloca i64, align 8
  store i64 %self, ptr %self.dbg.spill, align 8
  call void @llvm.dbg.declare(metadata ptr %self.dbg.spill, metadata !1954, metadata !DIExpression()), !dbg !1955
  ret i64 %self, !dbg !1956
}

; x86_64::addr::VirtAddr::try_new
; Function Attrs: inlinehint noredzone nounwind
define internal { i64, i64 } @_ZN6x86_644addr8VirtAddr7try_new17hb1aabefa68729b92E(i64 %0) unnamed_addr #1 !dbg !1957 {
start:
  %_9 = alloca i64, align 8
  %_5 = alloca i64, align 8
  %_4 = alloca %"core::ops::range::Range<usize>", align 8
  %_0 = alloca %"core::result::Result<x86_64::addr::VirtAddr, x86_64::addr::VirtAddrNotValid>", align 8
  %addr = alloca i64, align 8
  store i64 %0, ptr %addr, align 8
  call void @llvm.dbg.declare(metadata ptr %addr, metadata !1981, metadata !DIExpression()), !dbg !1982
  store i64 47, ptr %_4, align 8, !dbg !1983
  %1 = getelementptr inbounds i8, ptr %_4, i64 8, !dbg !1983
  store i64 64, ptr %1, align 8, !dbg !1983
  %2 = load i64, ptr %_4, align 8, !dbg !1984, !noundef !21
  %3 = getelementptr inbounds i8, ptr %_4, i64 8, !dbg !1984
  %4 = load i64, ptr %3, align 8, !dbg !1984, !noundef !21
; call <u64 as bit_field::BitField>::get_bits
  %_2 = call i64 @"_ZN43_$LT$u64$u20$as$u20$bit_field..BitField$GT$8get_bits17hd5ec38978b171225E"(ptr align 8 %addr, i64 %2, i64 %4) #7, !dbg !1984
  switch i64 %_2, label %bb2 [
    i64 0, label %bb3
    i64 131071, label %bb3
    i64 1, label %bb4
  ], !dbg !1985

bb2:                                              ; preds = %start
  %_10 = load i64, ptr %addr, align 8, !dbg !1986, !noundef !21
  store i64 %_10, ptr %_9, align 8, !dbg !1987
  %5 = load i64, ptr %_9, align 8, !dbg !1988, !noundef !21
  %6 = getelementptr inbounds i8, ptr %_0, i64 8, !dbg !1988
  store i64 %5, ptr %6, align 8, !dbg !1988
  store i64 1, ptr %_0, align 8, !dbg !1988
  br label %bb6, !dbg !1989

bb3:                                              ; preds = %start, %start
  %_6 = load i64, ptr %addr, align 8, !dbg !1990, !noundef !21
  store i64 %_6, ptr %_5, align 8, !dbg !1991
  %7 = load i64, ptr %_5, align 8, !dbg !1992, !noundef !21
  %8 = getelementptr inbounds i8, ptr %_0, i64 8, !dbg !1992
  store i64 %7, ptr %8, align 8, !dbg !1992
  store i64 0, ptr %_0, align 8, !dbg !1992
  br label %bb6, !dbg !1993

bb4:                                              ; preds = %start
  %_8 = load i64, ptr %addr, align 8, !dbg !1994, !noundef !21
; call x86_64::addr::VirtAddr::new_truncate
  %_7 = call i64 @_ZN6x86_644addr8VirtAddr12new_truncate17hd90d3414a7b7f8dcE(i64 %_8) #7, !dbg !1995
  %9 = getelementptr inbounds i8, ptr %_0, i64 8, !dbg !1996
  store i64 %_7, ptr %9, align 8, !dbg !1996
  store i64 0, ptr %_0, align 8, !dbg !1996
  br label %bb6, !dbg !1997

bb6:                                              ; preds = %bb2, %bb4, %bb3
  %10 = load i64, ptr %_0, align 8, !dbg !1998, !range !823, !noundef !21
  %11 = getelementptr inbounds i8, ptr %_0, i64 8, !dbg !1998
  %12 = load i64, ptr %11, align 8, !dbg !1998, !noundef !21
  %13 = insertvalue { i64, i64 } poison, i64 %10, 0, !dbg !1998
  %14 = insertvalue { i64, i64 } %13, i64 %12, 1, !dbg !1998
  ret { i64, i64 } %14, !dbg !1998
}

; x86_64::addr::VirtAddr::from_ptr
; Function Attrs: inlinehint noredzone nounwind
define i64 @_ZN6x86_644addr8VirtAddr8from_ptr17h5aa3ddfb06042738E(ptr %ptr) unnamed_addr #1 !dbg !1999 {
start:
  %ptr.dbg.spill = alloca ptr, align 8
  store ptr %ptr, ptr %ptr.dbg.spill, align 8
  call void @llvm.dbg.declare(metadata ptr %ptr.dbg.spill, metadata !2007, metadata !DIExpression()), !dbg !2008
  %_2 = ptrtoint ptr %ptr to i64, !dbg !2009
; call x86_64::addr::VirtAddr::new
  %_0 = call i64 @_ZN6x86_644addr8VirtAddr3new17h1c914d1881d8f861E(i64 %_2) #7, !dbg !2010
  ret i64 %_0, !dbg !2011
}

; x86_64::registers::segmentation::SegmentSelector::new
; Function Attrs: inlinehint noredzone nounwind
define internal i16 @_ZN6x86_649registers12segmentation15SegmentSelector3new17h57c8af961fb198c4E(i16 %index, i8 %0) unnamed_addr #1 !dbg !2012 {
start:
  %index.dbg.spill = alloca i16, align 2
  %_0 = alloca i16, align 2
  %rpl = alloca i8, align 1
  store i8 %0, ptr %rpl, align 1
  store i16 %index, ptr %index.dbg.spill, align 2
  call void @llvm.dbg.declare(metadata ptr %index.dbg.spill, metadata !2018, metadata !DIExpression()), !dbg !2020
  call void @llvm.dbg.declare(metadata ptr %rpl, metadata !2019, metadata !DIExpression()), !dbg !2021
  %_4 = shl i16 %index, 3, !dbg !2022
  %_8 = load i8, ptr %rpl, align 1, !dbg !2023, !range !1364, !noundef !21
  %_9 = icmp ule i8 %_8, 3, !dbg !2023
  call void @llvm.assume(i1 %_9), !dbg !2023
  %_7 = zext i8 %_8 to i16, !dbg !2023
  %_3 = or i16 %_4, %_7, !dbg !2022
  store i16 %_3, ptr %_0, align 2, !dbg !2024
  %1 = load i16, ptr %_0, align 2, !dbg !2025, !noundef !21
  ret i16 %1, !dbg !2025
}

; <x86_64::addr::VirtAddr as core::ops::arith::Add<u64>>::add
; Function Attrs: inlinehint noredzone nounwind
define internal i64 @"_ZN75_$LT$x86_64..addr..VirtAddr$u20$as$u20$core..ops..arith..Add$LT$u64$GT$$GT$3add17h660732e90d87bc8eE"(i64 %self, i64 %rhs) unnamed_addr #1 !dbg !2026 {
start:
  %rhs.dbg.spill = alloca i64, align 8
  %self.dbg.spill = alloca i64, align 8
  store i64 %self, ptr %self.dbg.spill, align 8
  call void @llvm.dbg.declare(metadata ptr %self.dbg.spill, metadata !2031, metadata !DIExpression()), !dbg !2033
  store i64 %rhs, ptr %rhs.dbg.spill, align 8
  call void @llvm.dbg.declare(metadata ptr %rhs.dbg.spill, metadata !2032, metadata !DIExpression()), !dbg !2034
  %0 = call { i64, i1 } @llvm.uadd.with.overflow.i64(i64 %self, i64 %rhs), !dbg !2035
  %_5.0 = extractvalue { i64, i1 } %0, 0, !dbg !2035
  %_5.1 = extractvalue { i64, i1 } %0, 1, !dbg !2035
  %1 = call i1 @llvm.expect.i1(i1 %_5.1, i1 false), !dbg !2035
  br i1 %1, label %panic, label %bb1, !dbg !2035

bb1:                                              ; preds = %start
; call x86_64::addr::VirtAddr::new
  %_0 = call i64 @_ZN6x86_644addr8VirtAddr3new17h1c914d1881d8f861E(i64 %_5.0) #7, !dbg !2036
  ret i64 %_0, !dbg !2037

panic:                                            ; preds = %start
; call core::panicking::panic
  call void @_ZN4core9panicking5panic17h6f817e467d9b8599E(ptr align 1 @str.3, i64 28, ptr align 8 @alloc_7b8d3271083f2bbf295edc299dc540f1) #11, !dbg !2035
  unreachable, !dbg !2035
}

; <x86_64::addr::VirtAddr as core::ops::arith::Add<usize>>::add
; Function Attrs: inlinehint noredzone nounwind
define internal i64 @"_ZN77_$LT$x86_64..addr..VirtAddr$u20$as$u20$core..ops..arith..Add$LT$usize$GT$$GT$3add17he6e46cf48975daeaE"(i64 %self, i64 %rhs) unnamed_addr #1 !dbg !2038 {
start:
  %rhs.dbg.spill = alloca i64, align 8
  %self.dbg.spill = alloca i64, align 8
  store i64 %self, ptr %self.dbg.spill, align 8
  call void @llvm.dbg.declare(metadata ptr %self.dbg.spill, metadata !2043, metadata !DIExpression()), !dbg !2045
  store i64 %rhs, ptr %rhs.dbg.spill, align 8
  call void @llvm.dbg.declare(metadata ptr %rhs.dbg.spill, metadata !2044, metadata !DIExpression()), !dbg !2046
; call <x86_64::addr::VirtAddr as core::ops::arith::Add<u64>>::add
  %_0 = call i64 @"_ZN75_$LT$x86_64..addr..VirtAddr$u20$as$u20$core..ops..arith..Add$LT$u64$GT$$GT$3add17h660732e90d87bc8eE"(i64 %self, i64 %rhs) #7, !dbg !2047
  ret i64 %_0, !dbg !2048
}

; <spin::mutex::MutexGuard<T> as core::ops::deref::DerefMut>::deref_mut
; Function Attrs: noredzone nounwind
define align 2 ptr @"_ZN79_$LT$spin..mutex..MutexGuard$LT$T$GT$$u20$as$u20$core..ops..deref..DerefMut$GT$9deref_mut17h96c5f8d2fca6fd56E"(ptr align 8 %self) unnamed_addr #0 !dbg !2049 {
start:
  %self.dbg.spill = alloca ptr, align 8
  store ptr %self, ptr %self.dbg.spill, align 8
  call void @llvm.dbg.declare(metadata ptr %self.dbg.spill, metadata !2057, metadata !DIExpression()), !dbg !2058
; call <spin::mutex::spin::SpinMutexGuard<T> as core::ops::deref::DerefMut>::deref_mut
  %_0 = call align 2 ptr @"_ZN89_$LT$spin..mutex..spin..SpinMutexGuard$LT$T$GT$$u20$as$u20$core..ops..deref..DerefMut$GT$9deref_mut17h1a468b83ee61f7a7E"(ptr align 8 %self) #7, !dbg !2059
  ret ptr %_0, !dbg !2060
}

; <x86_64::structures::idt::PageFaultErrorCode as core::fmt::Debug>::fmt
; Function Attrs: inlinehint noredzone nounwind
define internal zeroext i1 @"_ZN80_$LT$x86_64..structures..idt..PageFaultErrorCode$u20$as$u20$core..fmt..Debug$GT$3fmt17hf78506571bbc3b56E"(ptr align 8 %self, ptr align 8 %f) unnamed_addr #1 !dbg !2061 {
start:
  %f.dbg.spill = alloca ptr, align 8
  %self.dbg.spill = alloca ptr, align 8
  %_6 = alloca ptr, align 8
  store ptr %self, ptr %self.dbg.spill, align 8
  call void @llvm.dbg.declare(metadata ptr %self.dbg.spill, metadata !2067, metadata !DIExpression()), !dbg !2069
  store ptr %f, ptr %f.dbg.spill, align 8
  call void @llvm.dbg.declare(metadata ptr %f.dbg.spill, metadata !2068, metadata !DIExpression()), !dbg !2069
  store ptr %self, ptr %_6, align 8, !dbg !2070
; call core::fmt::Formatter::debug_tuple_field1_finish
  %_0 = call zeroext i1 @_ZN4core3fmt9Formatter25debug_tuple_field1_finish17hf98b2a347cc02345E(ptr align 8 %f, ptr align 1 @alloc_db71f8f2efa4491d8384d69403773686, i64 18, ptr align 1 %_6, ptr align 8 @vtable.4) #7, !dbg !2069
  ret i1 %_0, !dbg !2073
}

; <x86_64::structures::idt::InterruptStackFrame as core::fmt::Debug>::fmt
; Function Attrs: inlinehint noredzone nounwind
define internal zeroext i1 @"_ZN81_$LT$x86_64..structures..idt..InterruptStackFrame$u20$as$u20$core..fmt..Debug$GT$3fmt17h584a6814ccff815dE"(ptr align 8 %self, ptr align 8 %f) unnamed_addr #1 !dbg !2074 {
start:
  %f.dbg.spill = alloca ptr, align 8
  %self.dbg.spill = alloca ptr, align 8
  store ptr %self, ptr %self.dbg.spill, align 8
  call void @llvm.dbg.declare(metadata ptr %self.dbg.spill, metadata !2080, metadata !DIExpression()), !dbg !2082
  store ptr %f, ptr %f.dbg.spill, align 8
  call void @llvm.dbg.declare(metadata ptr %f.dbg.spill, metadata !2081, metadata !DIExpression()), !dbg !2083
; call <x86_64::structures::idt::InterruptStackFrameValue as core::fmt::Debug>::fmt
  %_0 = call zeroext i1 @"_ZN86_$LT$x86_64..structures..idt..InterruptStackFrameValue$u20$as$u20$core..fmt..Debug$GT$3fmt17h155ee31db928caf6E"(ptr align 8 %self, ptr align 8 %f) #7, !dbg !2084
  ret i1 %_0, !dbg !2085
}

; <spin::mutex::spin::SpinMutexGuard<T> as core::ops::drop::Drop>::drop
; Function Attrs: noredzone nounwind
define void @"_ZN84_$LT$spin..mutex..spin..SpinMutexGuard$LT$T$GT$$u20$as$u20$core..ops..drop..Drop$GT$4drop17h039b122c07eadc07E"(ptr align 8 %self) unnamed_addr #0 !dbg !2086 {
start:
  %self.dbg.spill = alloca ptr, align 8
  %_3 = alloca i8, align 1
  store ptr %self, ptr %self.dbg.spill, align 8
  call void @llvm.dbg.declare(metadata ptr %self.dbg.spill, metadata !2093, metadata !DIExpression()), !dbg !2094
  %_4 = load ptr, ptr %self, align 8, !dbg !2095, !nonnull !21, !align !2096, !noundef !21
  store i8 1, ptr %_3, align 1, !dbg !2097
  %0 = load i8, ptr %_3, align 1, !dbg !2095, !range !637, !noundef !21
; call core::sync::atomic::AtomicBool::store
  call void @_ZN4core4sync6atomic10AtomicBool5store17h943b4777cf292ee7E(ptr align 1 %_4, i1 zeroext false, i8 %0) #7, !dbg !2095
  ret void, !dbg !2098
}

; <spin::mutex::spin::SpinMutexGuard<T> as core::ops::deref::DerefMut>::deref_mut
; Function Attrs: noredzone nounwind
define align 2 ptr @"_ZN89_$LT$spin..mutex..spin..SpinMutexGuard$LT$T$GT$$u20$as$u20$core..ops..deref..DerefMut$GT$9deref_mut17h1a468b83ee61f7a7E"(ptr align 8 %self) unnamed_addr #0 !dbg !2099 {
start:
  %self.dbg.spill = alloca ptr, align 8
  store ptr %self, ptr %self.dbg.spill, align 8
  call void @llvm.dbg.declare(metadata ptr %self.dbg.spill, metadata !2104, metadata !DIExpression()), !dbg !2105
  %0 = getelementptr inbounds i8, ptr %self, i64 8, !dbg !2106
  %_2 = load ptr, ptr %0, align 8, !dbg !2106, !noundef !21
  ret ptr %_2, !dbg !2107
}

; cpu_interrupts::default_exception_handlers::double_fault_handler
; Function Attrs: noredzone noreturn nounwind
define x86_intrcc void @_ZN14cpu_interrupts26default_exception_handlers20double_fault_handler17h785c938931d28e3eE(ptr byval(%"x86_64::structures::idt::InterruptStackFrame") align 8 %isf, i64 %0) unnamed_addr #3 !dbg !2108 {
start:
  %f.dbg.spill.i.i = alloca ptr, align 8
  %x.dbg.spill.i.i = alloca ptr, align 8
  %_0.i.i = alloca %"core::fmt::rt::Argument<'_>", align 8
  %x.dbg.spill.i8 = alloca ptr, align 8
  %f.dbg.spill.i = alloca ptr, align 8
  %x.dbg.spill.i7 = alloca ptr, align 8
  %_0.i = alloca %"core::fmt::rt::Argument<'_>", align 8
  %x.dbg.spill.i = alloca ptr, align 8
  %width.dbg.spill.i1 = alloca %"core::fmt::rt::Count", align 8
  %precision.dbg.spill.i2 = alloca %"core::fmt::rt::Count", align 8
  %flags.dbg.spill.i3 = alloca i32, align 4
  %align.dbg.spill.i4 = alloca i8, align 1
  %fill.dbg.spill.i5 = alloca i32, align 4
  %position.dbg.spill.i6 = alloca i64, align 8
  %width.dbg.spill.i = alloca %"core::fmt::rt::Count", align 8
  %precision.dbg.spill.i = alloca %"core::fmt::rt::Count", align 8
  %flags.dbg.spill.i = alloca i32, align 4
  %align.dbg.spill.i = alloca i8, align 1
  %fill.dbg.spill.i = alloca i32, align 4
  %position.dbg.spill.i = alloca i64, align 8
  %_24 = alloca %"core::fmt::rt::Count", align 8
  %_23 = alloca %"core::fmt::rt::Count", align 8
  %_22 = alloca i8, align 1
  %_21 = alloca %"core::fmt::rt::Placeholder", align 8
  %_20 = alloca %"core::fmt::rt::Count", align 8
  %_19 = alloca %"core::fmt::rt::Count", align 8
  %_18 = alloca i8, align 1
  %_17 = alloca %"core::fmt::rt::Placeholder", align 8
  %_16 = alloca [2 x %"core::fmt::rt::Placeholder"], align 8
  %args = alloca { ptr, ptr }, align 8
  %_8 = alloca [2 x %"core::fmt::rt::Argument<'_>"], align 8
  %_4 = alloca %"core::fmt::Arguments<'_>", align 8
  %errno = alloca i64, align 8
  store i64 %0, ptr %errno, align 8
  call void @llvm.dbg.declare(metadata ptr %isf, metadata !2112, metadata !DIExpression()), !dbg !2123
  call void @llvm.dbg.declare(metadata ptr %errno, metadata !2113, metadata !DIExpression()), !dbg !2124
  call void @llvm.dbg.declare(metadata ptr %args, metadata !2114, metadata !DIExpression()), !dbg !2125
  store ptr %isf, ptr %args, align 8, !dbg !2126
  %1 = getelementptr inbounds i8, ptr %args, i64 8, !dbg !2126
  store ptr %errno, ptr %1, align 8, !dbg !2126
  %2 = getelementptr inbounds i8, ptr %args, i64 8, !dbg !2125
  %_27 = load ptr, ptr %2, align 8, !dbg !2125, !nonnull !21, !align !286, !noundef !21
  store ptr %_27, ptr %x.dbg.spill.i, align 8
  call void @llvm.dbg.declare(metadata ptr %x.dbg.spill.i, metadata !2127, metadata !DIExpression()), !dbg !2136
  store ptr %_27, ptr %x.dbg.spill.i7, align 8
  call void @llvm.dbg.declare(metadata ptr %x.dbg.spill.i7, metadata !2138, metadata !DIExpression()), !dbg !2148
  store ptr @"_ZN4core3fmt3num3imp52_$LT$impl$u20$core..fmt..Display$u20$for$u20$u64$GT$3fmt17h835325439b0fba07E", ptr %f.dbg.spill.i, align 8
  call void @llvm.dbg.declare(metadata ptr %f.dbg.spill.i, metadata !2147, metadata !DIExpression()), !dbg !2150
  store ptr %_27, ptr %_0.i, align 8, !dbg !2151
  %3 = getelementptr inbounds i8, ptr %_0.i, i64 8, !dbg !2151
  store ptr @"_ZN4core3fmt3num3imp52_$LT$impl$u20$core..fmt..Display$u20$for$u20$u64$GT$3fmt17h835325439b0fba07E", ptr %3, align 8, !dbg !2151
  %4 = load ptr, ptr %_0.i, align 8, !dbg !2152, !nonnull !21, !align !2096, !noundef !21
  %5 = getelementptr inbounds i8, ptr %_0.i, i64 8, !dbg !2152
  %6 = load ptr, ptr %5, align 8, !dbg !2152, !nonnull !21, !noundef !21
  %7 = insertvalue { ptr, ptr } poison, ptr %4, 0, !dbg !2152
  %8 = insertvalue { ptr, ptr } %7, ptr %6, 1, !dbg !2152
  %_0.0.i = extractvalue { ptr, ptr } %8, 0, !dbg !2153
  %_0.1.i = extractvalue { ptr, ptr } %8, 1, !dbg !2153
  %_12.0 = extractvalue { ptr, ptr } %8, 0, !dbg !2125
  %_12.1 = extractvalue { ptr, ptr } %8, 1, !dbg !2125
  %_28 = load ptr, ptr %args, align 8, !dbg !2125, !nonnull !21, !align !286, !noundef !21
  store ptr %_28, ptr %x.dbg.spill.i8, align 8
  call void @llvm.dbg.declare(metadata ptr %x.dbg.spill.i8, metadata !2154, metadata !DIExpression()), !dbg !2162
  store ptr %_28, ptr %x.dbg.spill.i.i, align 8
  call void @llvm.dbg.declare(metadata ptr %x.dbg.spill.i.i, metadata !2164, metadata !DIExpression()), !dbg !2172
  store ptr @"_ZN81_$LT$x86_64..structures..idt..InterruptStackFrame$u20$as$u20$core..fmt..Debug$GT$3fmt17h584a6814ccff815dE", ptr %f.dbg.spill.i.i, align 8
  call void @llvm.dbg.declare(metadata ptr %f.dbg.spill.i.i, metadata !2171, metadata !DIExpression()), !dbg !2174
  store ptr %_28, ptr %_0.i.i, align 8, !dbg !2175
  %9 = getelementptr inbounds i8, ptr %_0.i.i, i64 8, !dbg !2175
  store ptr @"_ZN81_$LT$x86_64..structures..idt..InterruptStackFrame$u20$as$u20$core..fmt..Debug$GT$3fmt17h584a6814ccff815dE", ptr %9, align 8, !dbg !2175
  %10 = load ptr, ptr %_0.i.i, align 8, !dbg !2176, !nonnull !21, !align !2096, !noundef !21
  %11 = getelementptr inbounds i8, ptr %_0.i.i, i64 8, !dbg !2176
  %12 = load ptr, ptr %11, align 8, !dbg !2176, !nonnull !21, !noundef !21
  %13 = insertvalue { ptr, ptr } poison, ptr %10, 0, !dbg !2176
  %14 = insertvalue { ptr, ptr } %13, ptr %12, 1, !dbg !2176
  %15 = insertvalue { ptr, ptr } poison, ptr %10, 0, !dbg !2177
  %16 = insertvalue { ptr, ptr } %15, ptr %12, 1, !dbg !2177
  %_13.0 = extractvalue { ptr, ptr } %16, 0, !dbg !2125
  %_13.1 = extractvalue { ptr, ptr } %16, 1, !dbg !2125
  %17 = getelementptr inbounds [2 x %"core::fmt::rt::Argument<'_>"], ptr %_8, i64 0, i64 0, !dbg !2125
  store ptr %_12.0, ptr %17, align 8, !dbg !2125
  %18 = getelementptr inbounds i8, ptr %17, i64 8, !dbg !2125
  store ptr %_12.1, ptr %18, align 8, !dbg !2125
  %19 = getelementptr inbounds [2 x %"core::fmt::rt::Argument<'_>"], ptr %_8, i64 0, i64 1, !dbg !2125
  store ptr %_13.0, ptr %19, align 8, !dbg !2125
  %20 = getelementptr inbounds i8, ptr %19, i64 8, !dbg !2125
  store ptr %_13.1, ptr %20, align 8, !dbg !2125
  store i8 3, ptr %_18, align 1, !dbg !2126
  store i64 2, ptr %_19, align 8, !dbg !2126
  store i64 2, ptr %_20, align 8, !dbg !2126
  %21 = load i8, ptr %_18, align 1, !dbg !2126, !range !1364, !noundef !21
  %22 = load i64, ptr %_19, align 8, !dbg !2126, !range !2178, !noundef !21
  %23 = getelementptr inbounds i8, ptr %_19, i64 8, !dbg !2126
  %24 = load i64, ptr %23, align 8, !dbg !2126
  %25 = load i64, ptr %_20, align 8, !dbg !2126, !range !2178, !noundef !21
  %26 = getelementptr inbounds i8, ptr %_20, i64 8, !dbg !2126
  %27 = load i64, ptr %26, align 8, !dbg !2126
  store i64 0, ptr %position.dbg.spill.i6, align 8
  call void @llvm.dbg.declare(metadata ptr %position.dbg.spill.i6, metadata !2179, metadata !DIExpression()), !dbg !2190
  store i32 32, ptr %fill.dbg.spill.i5, align 4
  call void @llvm.dbg.declare(metadata ptr %fill.dbg.spill.i5, metadata !2185, metadata !DIExpression()), !dbg !2192
  store i8 %21, ptr %align.dbg.spill.i4, align 1
  call void @llvm.dbg.declare(metadata ptr %align.dbg.spill.i4, metadata !2186, metadata !DIExpression()), !dbg !2193
  store i32 0, ptr %flags.dbg.spill.i3, align 4
  call void @llvm.dbg.declare(metadata ptr %flags.dbg.spill.i3, metadata !2187, metadata !DIExpression()), !dbg !2194
  store i64 %22, ptr %precision.dbg.spill.i2, align 8
  %28 = getelementptr inbounds i8, ptr %precision.dbg.spill.i2, i64 8
  store i64 %24, ptr %28, align 8
  call void @llvm.dbg.declare(metadata ptr %precision.dbg.spill.i2, metadata !2188, metadata !DIExpression()), !dbg !2195
  store i64 %25, ptr %width.dbg.spill.i1, align 8
  %29 = getelementptr inbounds i8, ptr %width.dbg.spill.i1, i64 8
  store i64 %27, ptr %29, align 8
  call void @llvm.dbg.declare(metadata ptr %width.dbg.spill.i1, metadata !2189, metadata !DIExpression()), !dbg !2196
  %30 = getelementptr inbounds %"core::fmt::rt::Placeholder", ptr %_17, i32 0, i32 2, !dbg !2197
  store i64 0, ptr %30, align 8, !dbg !2197
  %31 = getelementptr inbounds %"core::fmt::rt::Placeholder", ptr %_17, i32 0, i32 3, !dbg !2197
  store i32 32, ptr %31, align 8, !dbg !2197
  %32 = getelementptr inbounds %"core::fmt::rt::Placeholder", ptr %_17, i32 0, i32 5, !dbg !2197
  store i8 %21, ptr %32, align 8, !dbg !2197
  %33 = getelementptr inbounds %"core::fmt::rt::Placeholder", ptr %_17, i32 0, i32 4, !dbg !2197
  store i32 0, ptr %33, align 4, !dbg !2197
  store i64 %22, ptr %_17, align 8, !dbg !2197
  %34 = getelementptr inbounds i8, ptr %_17, i64 8, !dbg !2197
  store i64 %24, ptr %34, align 8, !dbg !2197
  %35 = getelementptr inbounds %"core::fmt::rt::Placeholder", ptr %_17, i32 0, i32 1, !dbg !2197
  store i64 %25, ptr %35, align 8, !dbg !2197
  %36 = getelementptr inbounds i8, ptr %35, i64 8, !dbg !2197
  store i64 %27, ptr %36, align 8, !dbg !2197
  store i8 3, ptr %_22, align 1, !dbg !2126
  store i64 2, ptr %_23, align 8, !dbg !2126
  store i64 2, ptr %_24, align 8, !dbg !2126
  %37 = load i8, ptr %_22, align 1, !dbg !2126, !range !1364, !noundef !21
  %38 = load i64, ptr %_23, align 8, !dbg !2126, !range !2178, !noundef !21
  %39 = getelementptr inbounds i8, ptr %_23, i64 8, !dbg !2126
  %40 = load i64, ptr %39, align 8, !dbg !2126
  %41 = load i64, ptr %_24, align 8, !dbg !2126, !range !2178, !noundef !21
  %42 = getelementptr inbounds i8, ptr %_24, i64 8, !dbg !2126
  %43 = load i64, ptr %42, align 8, !dbg !2126
  store i64 1, ptr %position.dbg.spill.i, align 8
  call void @llvm.dbg.declare(metadata ptr %position.dbg.spill.i, metadata !2179, metadata !DIExpression()), !dbg !2198
  store i32 32, ptr %fill.dbg.spill.i, align 4
  call void @llvm.dbg.declare(metadata ptr %fill.dbg.spill.i, metadata !2185, metadata !DIExpression()), !dbg !2200
  store i8 %37, ptr %align.dbg.spill.i, align 1
  call void @llvm.dbg.declare(metadata ptr %align.dbg.spill.i, metadata !2186, metadata !DIExpression()), !dbg !2201
  store i32 4, ptr %flags.dbg.spill.i, align 4
  call void @llvm.dbg.declare(metadata ptr %flags.dbg.spill.i, metadata !2187, metadata !DIExpression()), !dbg !2202
  store i64 %38, ptr %precision.dbg.spill.i, align 8
  %44 = getelementptr inbounds i8, ptr %precision.dbg.spill.i, i64 8
  store i64 %40, ptr %44, align 8
  call void @llvm.dbg.declare(metadata ptr %precision.dbg.spill.i, metadata !2188, metadata !DIExpression()), !dbg !2203
  store i64 %41, ptr %width.dbg.spill.i, align 8
  %45 = getelementptr inbounds i8, ptr %width.dbg.spill.i, i64 8
  store i64 %43, ptr %45, align 8
  call void @llvm.dbg.declare(metadata ptr %width.dbg.spill.i, metadata !2189, metadata !DIExpression()), !dbg !2204
  %46 = getelementptr inbounds %"core::fmt::rt::Placeholder", ptr %_21, i32 0, i32 2, !dbg !2205
  store i64 1, ptr %46, align 8, !dbg !2205
  %47 = getelementptr inbounds %"core::fmt::rt::Placeholder", ptr %_21, i32 0, i32 3, !dbg !2205
  store i32 32, ptr %47, align 8, !dbg !2205
  %48 = getelementptr inbounds %"core::fmt::rt::Placeholder", ptr %_21, i32 0, i32 5, !dbg !2205
  store i8 %37, ptr %48, align 8, !dbg !2205
  %49 = getelementptr inbounds %"core::fmt::rt::Placeholder", ptr %_21, i32 0, i32 4, !dbg !2205
  store i32 4, ptr %49, align 4, !dbg !2205
  store i64 %38, ptr %_21, align 8, !dbg !2205
  %50 = getelementptr inbounds i8, ptr %_21, i64 8, !dbg !2205
  store i64 %40, ptr %50, align 8, !dbg !2205
  %51 = getelementptr inbounds %"core::fmt::rt::Placeholder", ptr %_21, i32 0, i32 1, !dbg !2205
  store i64 %41, ptr %51, align 8, !dbg !2205
  %52 = getelementptr inbounds i8, ptr %51, i64 8, !dbg !2205
  store i64 %43, ptr %52, align 8, !dbg !2205
  %53 = getelementptr inbounds [2 x %"core::fmt::rt::Placeholder"], ptr %_16, i64 0, i64 0, !dbg !2126
  call void @llvm.memcpy.p0.p0.i64(ptr align 8 %53, ptr align 8 %_17, i64 56, i1 false), !dbg !2126
  %54 = getelementptr inbounds [2 x %"core::fmt::rt::Placeholder"], ptr %_16, i64 0, i64 1, !dbg !2126
  call void @llvm.memcpy.p0.p0.i64(ptr align 8 %54, ptr align 8 %_21, i64 56, i1 false), !dbg !2126
; call core::fmt::Arguments::new_v1_formatted
  call void @_ZN4core3fmt9Arguments16new_v1_formatted17h8a42bdfa72dcdc5dE(ptr sret(%"core::fmt::Arguments<'_>") align 8 %_4, ptr align 8 @alloc_9add2c7ee8caa8a38c0be1be55301ba9, i64 2, ptr align 8 %_8, i64 2, ptr align 8 %_16, i64 2) #7, !dbg !2126
; call core::panicking::panic_fmt
  call void @_ZN4core9panicking9panic_fmt17ha5e30ccfbdd0aed8E(ptr align 8 %_4, ptr align 8 @alloc_06895ee293335a0ae64ace386da9c1ab) #11, !dbg !2126
  unreachable, !dbg !2126
}

; cpu_interrupts::default_exception_handlers::page_fault_handler
; Function Attrs: noredzone nounwind
