; ModuleID = '3mytfyo678bdv4ve'
source_filename = "3mytfyo678bdv4ve"
target datalayout = "e-m:e-i64:64-f80:128-n8:16:32:64-S128"
target triple = "x86_64-obuasi-unknown-none"

%"core::iter::adapters::map::Map<core::ops::range::Range<usize>, {closure@x86_64::structures::paging::page_table::PageTable::iter::{closure#0}}>" = type { ptr, %"core::ops::range::Range<usize>" }
%"core::ops::range::Range<usize>" = type { i64, i64 }
%"core::fmt::rt::Argument<'_>" = type { ptr, ptr }
%"core::fmt::Arguments<'_>" = type { { ptr, i64 }, { ptr, i64 }, %"core::option::Option<&[core::fmt::rt::Placeholder]>" }
%"core::option::Option<&[core::fmt::rt::Placeholder]>" = type { ptr, [1 x i64] }
%"x86_64::structures::idt::InterruptDescriptorTable" = type { %"x86_64::structures::idt::Entry<extern \22x86-interrupt\22 fn(x86_64::structures::idt::InterruptStackFrame)>", %"x86_64::structures::idt::Entry<extern \22x86-interrupt\22 fn(x86_64::structures::idt::InterruptStackFrame)>", %"x86_64::structures::idt::Entry<extern \22x86-interrupt\22 fn(x86_64::structures::idt::InterruptStackFrame)>", %"x86_64::structures::idt::Entry<extern \22x86-interrupt\22 fn(x86_64::structures::idt::InterruptStackFrame)>", %"x86_64::structures::idt::Entry<extern \22x86-interrupt\22 fn(x86_64::structures::idt::InterruptStackFrame)>", %"x86_64::structures::idt::Entry<extern \22x86-interrupt\22 fn(x86_64::structures::idt::InterruptStackFrame)>", %"x86_64::structures::idt::Entry<extern \22x86-interrupt\22 fn(x86_64::structures::idt::InterruptStackFrame)>", %"x86_64::structures::idt::Entry<extern \22x86-interrupt\22 fn(x86_64::structures::idt::InterruptStackFrame)>", %"x86_64::structures::idt::Entry<extern \22x86-interrupt\22 fn(x86_64::structures::idt::InterruptStackFrame, u64) -> !>", %"x86_64::structures::idt::Entry<extern \22x86-interrupt\22 fn(x86_64::structures::idt::InterruptStackFrame)>", %"x86_64::structures::idt::Entry<extern \22x86-interrupt\22 fn(x86_64::structures::idt::InterruptStackFrame, u64)>", %"x86_64::structures::idt::Entry<extern \22x86-interrupt\22 fn(x86_64::structures::idt::InterruptStackFrame, u64)>", %"x86_64::structures::idt::Entry<extern \22x86-interrupt\22 fn(x86_64::structures::idt::InterruptStackFrame, u64)>", %"x86_64::structures::idt::Entry<extern \22x86-interrupt\22 fn(x86_64::structures::idt::InterruptStackFrame, u64)>", %"x86_64::structures::idt::Entry<extern \22x86-interrupt\22 fn(x86_64::structures::idt::InterruptStackFrame, x86_64::structures::idt::PageFaultErrorCode)>", %"x86_64::structures::idt::Entry<extern \22x86-interrupt\22 fn(x86_64::structures::idt::InterruptStackFrame)>", %"x86_64::structures::idt::Entry<extern \22x86-interrupt\22 fn(x86_64::structures::idt::InterruptStackFrame)>", %"x86_64::structures::idt::Entry<extern \22x86-interrupt\22 fn(x86_64::structures::idt::InterruptStackFrame, u64)>", %"x86_64::structures::idt::Entry<extern \22x86-interrupt\22 fn(x86_64::structures::idt::InterruptStackFrame) -> !>", %"x86_64::structures::idt::Entry<extern \22x86-interrupt\22 fn(x86_64::structures::idt::InterruptStackFrame)>", %"x86_64::structures::idt::Entry<extern \22x86-interrupt\22 fn(x86_64::structures::idt::InterruptStackFrame)>", %"x86_64::structures::idt::Entry<extern \22x86-interrupt\22 fn(x86_64::structures::idt::InterruptStackFrame, u64)>", [6 x %"x86_64::structures::idt::Entry<extern \22x86-interrupt\22 fn(x86_64::structures::idt::InterruptStackFrame)>"], %"x86_64::structures::idt::Entry<extern \22x86-interrupt\22 fn(x86_64::structures::idt::InterruptStackFrame)>", %"x86_64::structures::idt::Entry<extern \22x86-interrupt\22 fn(x86_64::structures::idt::InterruptStackFrame, u64)>", %"x86_64::structures::idt::Entry<extern \22x86-interrupt\22 fn(x86_64::structures::idt::InterruptStackFrame, u64)>", %"x86_64::structures::idt::Entry<extern \22x86-interrupt\22 fn(x86_64::structures::idt::InterruptStackFrame)>", [224 x %"x86_64::structures::idt::Entry<extern \22x86-interrupt\22 fn(x86_64::structures::idt::InterruptStackFrame)>"] }
%"x86_64::structures::idt::Entry<extern \22x86-interrupt\22 fn(x86_64::structures::idt::InterruptStackFrame, u64) -> !>" = type { i16, i16, i16, i16, i32, i32, %"core::marker::PhantomData<extern \22x86-interrupt\22 fn(x86_64::structures::idt::InterruptStackFrame, u64) -> !>" }
%"core::marker::PhantomData<extern \22x86-interrupt\22 fn(x86_64::structures::idt::InterruptStackFrame, u64) -> !>" = type {}
%"x86_64::structures::idt::Entry<extern \22x86-interrupt\22 fn(x86_64::structures::idt::InterruptStackFrame, x86_64::structures::idt::PageFaultErrorCode)>" = type { i16, i16, i16, i16, i32, i32, %"core::marker::PhantomData<extern \22x86-interrupt\22 fn(x86_64::structures::idt::InterruptStackFrame, x86_64::structures::idt::PageFaultErrorCode)>" }
%"core::marker::PhantomData<extern \22x86-interrupt\22 fn(x86_64::structures::idt::InterruptStackFrame, x86_64::structures::idt::PageFaultErrorCode)>" = type {}
%"x86_64::structures::idt::Entry<extern \22x86-interrupt\22 fn(x86_64::structures::idt::InterruptStackFrame) -> !>" = type { i16, i16, i16, i16, i32, i32, %"core::marker::PhantomData<extern \22x86-interrupt\22 fn(x86_64::structures::idt::InterruptStackFrame) -> !>" }
%"core::marker::PhantomData<extern \22x86-interrupt\22 fn(x86_64::structures::idt::InterruptStackFrame) -> !>" = type {}
%"x86_64::structures::idt::Entry<extern \22x86-interrupt\22 fn(x86_64::structures::idt::InterruptStackFrame, u64)>" = type { i16, i16, i16, i16, i32, i32, %"core::marker::PhantomData<extern \22x86-interrupt\22 fn(x86_64::structures::idt::InterruptStackFrame, u64)>" }
%"core::marker::PhantomData<extern \22x86-interrupt\22 fn(x86_64::structures::idt::InterruptStackFrame, u64)>" = type {}
%"x86_64::structures::idt::Entry<extern \22x86-interrupt\22 fn(x86_64::structures::idt::InterruptStackFrame)>" = type { i16, i16, i16, i16, i32, i32, %"core::marker::PhantomData<extern \22x86-interrupt\22 fn(x86_64::structures::idt::InterruptStackFrame)>" }
%"core::marker::PhantomData<extern \22x86-interrupt\22 fn(x86_64::structures::idt::InterruptStackFrame)>" = type {}
%"core::option::Option<(usize, &x86_64::structures::paging::page_table::PageTableEntry)>" = type { [1 x i64], ptr }
%"core::option::Option<core::convert::Infallible>::None" = type {}
%"core::iter::adapters::enumerate::Enumerate<core::iter::adapters::map::Map<core::ops::range::Range<usize>, {closure@x86_64::structures::paging::page_table::PageTable::iter::{closure#0}}>>" = type { %"core::iter::adapters::map::Map<core::ops::range::Range<usize>, {closure@x86_64::structures::paging::page_table::PageTable::iter::{closure#0}}>", i64 }
%"pc_keyboard::DecodedKey" = type { i8, [7 x i8] }
%"core::option::Option<pc_keyboard::DecodedKey>" = type { i8, [7 x i8] }
%"pc_keyboard::KeyEvent" = type { i8, i8 }
%"pc_keyboard::EventDecoder<pc_keyboard::layouts::us104::Us104Key>" = type { i8, %"pc_keyboard::Modifiers", %"pc_keyboard::layouts::us104::Us104Key" }
%"pc_keyboard::Modifiers" = type { i8, i8, i8, i8, i8, i8, i8, i8 }
%"pc_keyboard::layouts::us104::Us104Key" = type {}
%"pc_keyboard::DecodedKey::RawKey" = type { [1 x i8], i8 }
%"pc_keyboard::Keyboard<pc_keyboard::layouts::us104::Us104Key, pc_keyboard::scancodes::set1::ScancodeSet1>" = type { %"pc_keyboard::Ps2Decoder", %"pc_keyboard::EventDecoder<pc_keyboard::layouts::us104::Us104Key>", i8 }
%"pc_keyboard::Ps2Decoder" = type { i16, i8, [1 x i8] }
%"core::result::Result<core::option::Option<pc_keyboard::KeyEvent>, pc_keyboard::Error>" = type { i8, [1 x i8] }
%"core::option::Option<u64>" = type { i64, [1 x i64] }
%"bootloader_api::info::Optional<u64>" = type { i32, [3 x i32] }
%"core::fmt::rt::UnsafeArg" = type { {} }
%"spin::mutex::Mutex<vga::Screen>" = type { %"spin::mutex::spin::SpinMutex<vga::Screen>" }
%"spin::mutex::spin::SpinMutex<vga::Screen>" = type { %"core::marker::PhantomData<spin::relax::Spin>", %"core::sync::atomic::AtomicBool", [7 x i8], %"core::cell::UnsafeCell<vga::Screen>" }
%"core::marker::PhantomData<spin::relax::Spin>" = type {}
%"core::sync::atomic::AtomicBool" = type { i8 }
%"core::cell::UnsafeCell<vga::Screen>" = type { %"vga::Screen" }
%"vga::Screen" = type { ptr, i64, %"vga::Cursor", %"vga::Dot", [80 x %"vga::ScreenChar"], i8, [7 x i8] }
%"vga::Cursor" = type { %"vga::Dot" }
%"vga::Dot" = type { i64, i64 }
%"vga::ScreenChar" = type { i8, i8 }
%"cpu_interrupts::interrupt_descriptor_table::SafeInterruptDescriptorTable" = type { %"x86_64::structures::idt::InterruptDescriptorTable", i8, i8, i8, [13 x i8] }
%"spin::mutex::Mutex<keyboard::Keyboard<pc_keyboard::layouts::us104::Us104Key, pc_keyboard::scancodes::set1::ScancodeSet1>>" = type { %"spin::mutex::spin::SpinMutex<keyboard::Keyboard<pc_keyboard::layouts::us104::Us104Key, pc_keyboard::scancodes::set1::ScancodeSet1>>" }
%"spin::mutex::spin::SpinMutex<keyboard::Keyboard<pc_keyboard::layouts::us104::Us104Key, pc_keyboard::scancodes::set1::ScancodeSet1>>" = type { %"core::marker::PhantomData<spin::relax::Spin>", %"core::sync::atomic::AtomicBool", [1 x i8], %"core::cell::UnsafeCell<keyboard::Keyboard<pc_keyboard::layouts::us104::Us104Key, pc_keyboard::scancodes::set1::ScancodeSet1>>" }
%"core::cell::UnsafeCell<keyboard::Keyboard<pc_keyboard::layouts::us104::Us104Key, pc_keyboard::scancodes::set1::ScancodeSet1>>" = type { %"keyboard::Keyboard<pc_keyboard::layouts::us104::Us104Key, pc_keyboard::scancodes::set1::ScancodeSet1>" }
%"keyboard::Keyboard<pc_keyboard::layouts::us104::Us104Key, pc_keyboard::scancodes::set1::ScancodeSet1>" = type { %"pc_keyboard::Keyboard<pc_keyboard::layouts::us104::Us104Key, pc_keyboard::scancodes::set1::ScancodeSet1>", i16 }
%"core::result::Result<u8, u8>" = type { i8, [1 x i8] }
%"core::result::Result<bool, bool>" = type { i8, [1 x i8] }
%"core::result::Result<usize, usize>" = type { i64, [1 x i64] }
%"core::option::Option<usize>" = type { i64, [1 x i64] }
%"core::option::Option<cpu_interrupts::interrupt_descriptor_table::SafeInterruptDescriptorTable>" = type { [4098 x i8], i8, [13 x i8] }
%"core::option::Option<spin::mutex::Mutex<keyboard::Keyboard<pc_keyboard::layouts::us104::Us104Key, pc_keyboard::scancodes::set1::ScancodeSet1>>>::Some" = type { [1 x i16], %"spin::mutex::Mutex<keyboard::Keyboard<pc_keyboard::layouts::us104::Us104Key, pc_keyboard::scancodes::set1::ScancodeSet1>>" }
%"core::option::Option<spin::mutex::Mutex<vga::Screen>>::Some" = type { [1 x i64], %"spin::mutex::Mutex<vga::Screen>" }
%"core::option::Option<spin::mutex::Mutex<keyboard::Keyboard<pc_keyboard::layouts::us104::Us104Key, pc_keyboard::scancodes::set1::ScancodeSet1>>>" = type { i16, [9 x i16] }
%"spin::once::Finish<'_>" = type { ptr, i8, [7 x i8] }
%"spin::once::Once<spin::mutex::Mutex<keyboard::Keyboard<pc_keyboard::layouts::us104::Us104Key, pc_keyboard::scancodes::set1::ScancodeSet1>>>" = type { %"core::sync::atomic::AtomicUsize", %"core::cell::UnsafeCell<core::option::Option<spin::mutex::Mutex<keyboard::Keyboard<pc_keyboard::layouts::us104::Us104Key, pc_keyboard::scancodes::set1::ScancodeSet1>>>>", [2 x i16] }
%"core::sync::atomic::AtomicUsize" = type { i64 }
%"core::cell::UnsafeCell<core::option::Option<spin::mutex::Mutex<keyboard::Keyboard<pc_keyboard::layouts::us104::Us104Key, pc_keyboard::scancodes::set1::ScancodeSet1>>>>" = type { %"core::option::Option<spin::mutex::Mutex<keyboard::Keyboard<pc_keyboard::layouts::us104::Us104Key, pc_keyboard::scancodes::set1::ScancodeSet1>>>" }
%"spin::once::Once<cpu_interrupts::interrupt_descriptor_table::SafeInterruptDescriptorTable>" = type { %"core::cell::UnsafeCell<core::option::Option<cpu_interrupts::interrupt_descriptor_table::SafeInterruptDescriptorTable>>", %"core::sync::atomic::AtomicUsize", [1 x i64] }
%"core::cell::UnsafeCell<core::option::Option<cpu_interrupts::interrupt_descriptor_table::SafeInterruptDescriptorTable>>" = type { %"core::option::Option<cpu_interrupts::interrupt_descriptor_table::SafeInterruptDescriptorTable>" }
%"core::option::Option<spin::mutex::Mutex<vga::Screen>>" = type { i64, [28 x i64] }
%"spin::once::Once<spin::mutex::Mutex<vga::Screen>>" = type { %"core::sync::atomic::AtomicUsize", %"core::cell::UnsafeCell<core::option::Option<spin::mutex::Mutex<vga::Screen>>>" }
%"core::cell::UnsafeCell<core::option::Option<spin::mutex::Mutex<vga::Screen>>>" = type { %"core::option::Option<spin::mutex::Mutex<vga::Screen>>" }
%"core::panic::location::Location<'_>" = type { { ptr, i64 }, i32, i32 }
%"core::result::Result<x86_64::addr::VirtAddr, x86_64::addr::VirtAddrNotValid>" = type { i64, [1 x i64] }
%"bitflags::traits::Flag<x86_64::registers::rflags::RFlags>" = type { { ptr, i64 }, i64 }
%"core::panic::panic_info::PanicInfo<'_>" = type { { ptr, ptr }, ptr, ptr, i8, i8, [6 x i8] }
%"{closure@src/interrupts.rs:62:34: 62:59}" = type {}
%"x86_64::structures::idt::InterruptStackFrame" = type { %"x86_64::structures::idt::InterruptStackFrameValue" }
%"x86_64::structures::idt::InterruptStackFrameValue" = type { i64, i64, i64, i64, i64 }
%"core::fmt::rt::Count" = type { i64, [1 x i64] }
%"core::fmt::rt::Placeholder" = type { %"core::fmt::rt::Count", %"core::fmt::rt::Count", i64, i32, i32, i8, [7 x i8] }
%"spin::mutex::spin::SpinMutexGuard<'_, keyboard::Keyboard<pc_keyboard::layouts::us104::Us104Key, pc_keyboard::scancodes::set1::ScancodeSet1>>" = type { ptr, ptr }
%"spin::mutex::MutexGuard<'_, keyboard::Keyboard<pc_keyboard::layouts::us104::Us104Key, pc_keyboard::scancodes::set1::ScancodeSet1>>" = type { %"spin::mutex::spin::SpinMutexGuard<'_, keyboard::Keyboard<pc_keyboard::layouts::us104::Us104Key, pc_keyboard::scancodes::set1::ScancodeSet1>>" }
%"pc_keyboard::DecodedKey::Unicode" = type { [1 x i32], i32 }
%"core::result::Result<bool, &str>" = type { ptr, [1 x i64] }
%"memory::Mem" = type { %"bootloader_api::info::Optional<u64>" }
%"bootloader_api::info::BootInfo" = type { %"bootloader_api::config::ApiVersion", %"bootloader_api::info::MemoryRegions", %"bootloader_api::info::Optional<bootloader_api::info::FrameBuffer>", %"bootloader_api::info::Optional<u64>", %"bootloader_api::info::Optional<u16>", %"bootloader_api::info::Optional<u64>", %"bootloader_api::info::Optional<bootloader_api::info::TlsTemplate>", %"bootloader_api::info::Optional<u64>", i64, i64, i64, i64, i64 }
%"bootloader_api::config::ApiVersion" = type { i16, i16, i16, i8, [1 x i8] }
%"bootloader_api::info::MemoryRegions" = type { ptr, i64 }
%"bootloader_api::info::Optional<bootloader_api::info::FrameBuffer>" = type { i32, [15 x i32] }
%"bootloader_api::info::Optional<u16>" = type { i32, [1 x i32] }
%"bootloader_api::info::Optional<bootloader_api::info::TlsTemplate>" = type { i32, [7 x i32] }
%"spin::mutex::spin::SpinMutexGuard<'_, vga::Screen>" = type { ptr, ptr }
%"spin::mutex::MutexGuard<'_, vga::Screen>" = type { %"spin::mutex::spin::SpinMutexGuard<'_, vga::Screen>" }

@alloc_523248e34db904eab55c5eb570cbbcf7 = private unnamed_addr constant <{ [6 x i8] }> <{ [6 x i8] c"entry " }>, align 1
@alloc_8888ebfef96191fe59f3dccdfd1e2e9f = private unnamed_addr constant <{ [44 x i8] }> <{ [44 x i8] c" is an diverging exception (must not return)" }>, align 1
@alloc_362de21a3b2781033660bc1868b9ea1e = private unnamed_addr constant <{ ptr, [8 x i8], ptr, [8 x i8] }> <{ ptr @alloc_523248e34db904eab55c5eb570cbbcf7, [8 x i8] c"\06\00\00\00\00\00\00\00", ptr @alloc_8888ebfef96191fe59f3dccdfd1e2e9f, [8 x i8] c",\00\00\00\00\00\00\00" }>, align 8
@alloc_0e0a5c012db1f29e764f54ddf0c3fc28 = private unnamed_addr constant <{ [20 x i8] }> <{ [20 x i8] c"no entry with index " }>, align 1
@alloc_f7251b02c1cd4a8e77f6d028b4651e6c = private unnamed_addr constant <{ ptr, [8 x i8] }> <{ ptr @alloc_0e0a5c012db1f29e764f54ddf0c3fc28, [8 x i8] c"\14\00\00\00\00\00\00\00" }>, align 8
@alloc_5b44ce981640fea4344a6f6575fa5f67 = private unnamed_addr constant <{ [32 x i8] }> <{ [32 x i8] c" is an exception with error code" }>, align 1
@alloc_7f336354b9c7f960a1b1b29efe6dd878 = private unnamed_addr constant <{ ptr, [8 x i8], ptr, [8 x i8] }> <{ ptr @alloc_523248e34db904eab55c5eb570cbbcf7, [8 x i8] c"\06\00\00\00\00\00\00\00", ptr @alloc_5b44ce981640fea4344a6f6575fa5f67, [8 x i8] c" \00\00\00\00\00\00\00" }>, align 8
@alloc_b715a46a74cc820188211befedfe4ec3 = private unnamed_addr constant <{ [12 x i8] }> <{ [12 x i8] c" is reserved" }>, align 1
@alloc_d17f5c2ab765710fed33d58538e5bbab = private unnamed_addr constant <{ ptr, [8 x i8], ptr, [8 x i8] }> <{ ptr @alloc_523248e34db904eab55c5eb570cbbcf7, [8 x i8] c"\06\00\00\00\00\00\00\00", ptr @alloc_b715a46a74cc820188211befedfe4ec3, [8 x i8] c"\0C\00\00\00\00\00\00\00" }>, align 8
@str.0 = internal unnamed_addr constant [33 x i8] c"attempt to subtract with overflow"
@alloc_ff61e35f87ccff3974cbadbe215f1a36 = private unnamed_addr constant <{ [123 x i8] }> <{ [123 x i8] c"/Users/yaw/.rustup/toolchains/nightly-aarch64-apple-darwin/lib/rustlib/src/rust/library/core/src/iter/adapters/enumerate.rs" }>, align 1
@alloc_cac8d3c25a55e6f9ece85c24c6eacbf5 = private unnamed_addr constant <{ ptr, [16 x i8] }> <{ ptr @alloc_ff61e35f87ccff3974cbadbe215f1a36, [16 x i8] c"{\00\00\00\00\00\00\001\00\00\00\09\00\00\00" }>, align 8
@str.1 = internal unnamed_addr constant [28 x i8] c"attempt to add with overflow"
@alloc_6923360c3161738641b3989c6181ce08 = private unnamed_addr constant <{ [40 x i8] }> <{ [40 x i8] c"assertion failed: bit < Self::BIT_LENGTH" }>, align 1
@alloc_89294a974a2788f895cf677d5bd697c4 = private unnamed_addr constant <{ [91 x i8] }> <{ [91 x i8] c"/Users/yaw/.cargo/registry/src/index.crates.io-6f17d22bba15001f/bit_field-0.10.1/src/lib.rs" }>, align 1
@alloc_f4d2308b1a4d364a80c06ffe6643cbed = private unnamed_addr constant <{ ptr, [16 x i8] }> <{ ptr @alloc_89294a974a2788f895cf677d5bd697c4, [16 x i8] c"[\00\00\00\00\00\00\00\11\01\00\00\01\00\00\00" }>, align 8
@str.2 = internal unnamed_addr constant [35 x i8] c"attempt to shift left with overflow"
@alloc_c2ea93c90919bb7b1e482f917e413fa1 = private unnamed_addr constant <{ [107 x i8] }> <{ [107 x i8] c"/Users/yaw/.rustup/toolchains/nightly-aarch64-apple-darwin/lib/rustlib/src/rust/library/core/src/fmt/mod.rs" }>, align 1
@alloc_1d488b18c5f7c1d3858ca9f0071c91c8 = private unnamed_addr constant <{ ptr, [16 x i8] }> <{ ptr @alloc_c2ea93c90919bb7b1e482f917e413fa1, [16 x i8] c"k\00\00\00\00\00\00\00L\01\00\008\00\00\00" }>, align 8
@alloc_91c7fa63c3cfeaa3c795652d5cf060e4 = private unnamed_addr constant <{ [12 x i8] }> <{ [12 x i8] c"invalid args" }>, align 1
@alloc_af99043bc04c419363a7f04d23183506 = private unnamed_addr constant <{ ptr, [8 x i8] }> <{ ptr @alloc_91c7fa63c3cfeaa3c795652d5cf060e4, [8 x i8] c"\0C\00\00\00\00\00\00\00" }>, align 8
@alloc_a128bb0331e9cbfe13a5df140fd20243 = private unnamed_addr constant <{ ptr, [16 x i8] }> <{ ptr @alloc_c2ea93c90919bb7b1e482f917e413fa1, [16 x i8] c"k\00\00\00\00\00\00\00M\01\00\00\0D\00\00\00" }>, align 8
@alloc_513570631223a12912d85da2bec3b15a = private unnamed_addr constant <{}> zeroinitializer, align 8
@alloc_40dc4a2e4fa36320ad05a7f7aeedf921 = private unnamed_addr constant <{ ptr, [16 x i8] }> <{ ptr @alloc_c2ea93c90919bb7b1e482f917e413fa1, [16 x i8] c"k\00\00\00\00\00\00\00C\01\00\00\0D\00\00\00" }>, align 8
@alloc_2220c7a1feeb6edab819c8e7f64b7daa = private unnamed_addr constant <{ [112 x i8] }> <{ [112 x i8] c"/Users/yaw/.rustup/toolchains/nightly-aarch64-apple-darwin/lib/rustlib/src/rust/library/core/src/char/methods.rs" }>, align 1
@alloc_2ed0ddeddb532c1b94163078c0508318 = private unnamed_addr constant <{ ptr, [16 x i8] }> <{ ptr @alloc_2220c7a1feeb6edab819c8e7f64b7daa, [16 x i8] c"p\00\00\00\00\00\00\00\EB\06\00\00\19\00\00\00" }>, align 8
@alloc_9db81bec73d48154ecb538ccd002e626 = private unnamed_addr constant <{ ptr, [16 x i8] }> <{ ptr @alloc_2220c7a1feeb6edab819c8e7f64b7daa, [16 x i8] c"p\00\00\00\00\00\00\00\05\07\00\00\0D\00\00\00" }>, align 8
@alloc_6b031f9bca8204235732c7c365d04a1d = private unnamed_addr constant <{ [18 x i8] }> <{ [18 x i8] c"encode_utf8: need " }>, align 1
@alloc_28d13efb0f9a95ccb5d02ec33dd195cf = private unnamed_addr constant <{ [19 x i8] }> <{ [19 x i8] c" bytes to encode U+" }>, align 1
@alloc_0d928972d2befd736e581c7fcc5a2f9a = private unnamed_addr constant <{ [21 x i8] }> <{ [21 x i8] c", but the buffer has " }>, align 1
@alloc_d51214f097f67314513b76e97e13aa6b = private unnamed_addr constant <{ ptr, [8 x i8], ptr, [8 x i8], ptr, [8 x i8] }> <{ ptr @alloc_6b031f9bca8204235732c7c365d04a1d, [8 x i8] c"\12\00\00\00\00\00\00\00", ptr @alloc_28d13efb0f9a95ccb5d02ec33dd195cf, [8 x i8] c"\13\00\00\00\00\00\00\00", ptr @alloc_0d928972d2befd736e581c7fcc5a2f9a, [8 x i8] c"\15\00\00\00\00\00\00\00" }>, align 8
@alloc_24ea739765840a624c78c8023d612164 = private unnamed_addr constant <{ ptr, [16 x i8] }> <{ ptr @alloc_2220c7a1feeb6edab819c8e7f64b7daa, [16 x i8] c"p\00\00\00\00\00\00\00\FE\06\00\00\0E\00\00\00" }>, align 8
@alloc_1eb6f53a157dccb32488e066ad957e6d = private unnamed_addr constant <{ [82 x i8] }> <{ [82 x i8] c"unsafe precondition(s) violated: hint::unreachable_unchecked must never be reached" }>, align 1
@alloc_7adef5546d83b439c7829602020737c6 = private unnamed_addr constant <{ [61 x i8] }> <{ [61 x i8] c"there is no such thing as an acquire-release failure ordering" }>, align 1
@alloc_dd7d8f77c173bf31726eae321f955bec = private unnamed_addr constant <{ ptr, [8 x i8] }> <{ ptr @alloc_7adef5546d83b439c7829602020737c6, [8 x i8] c"=\00\00\00\00\00\00\00" }>, align 8
@alloc_758e3eafddd83bea2c9171c5517da1cc = private unnamed_addr constant <{ [111 x i8] }> <{ [111 x i8] c"/Users/yaw/.rustup/toolchains/nightly-aarch64-apple-darwin/lib/rustlib/src/rust/library/core/src/sync/atomic.rs" }>, align 1
@alloc_122716f189323124cb0c05846480a00c = private unnamed_addr constant <{ ptr, [16 x i8] }> <{ ptr @alloc_758e3eafddd83bea2c9171c5517da1cc, [16 x i8] c"o\00\00\00\00\00\00\00\0E\03\00\00\15\00\00\00" }>, align 8
@alloc_5a43f8d94dd4505c1dba43832ce73af8 = private unnamed_addr constant <{ [52 x i8] }> <{ [52 x i8] c"there is no such thing as a release failure ordering" }>, align 1
@alloc_04ab601c54c6e0a22ff11d72dc7f4511 = private unnamed_addr constant <{ ptr, [8 x i8] }> <{ ptr @alloc_5a43f8d94dd4505c1dba43832ce73af8, [8 x i8] c"4\00\00\00\00\00\00\00" }>, align 8
@alloc_1b2d53547632b0cd8d68abf128d934e0 = private unnamed_addr constant <{ ptr, [16 x i8] }> <{ ptr @alloc_758e3eafddd83bea2c9171c5517da1cc, [16 x i8] c"o\00\00\00\00\00\00\00\14\03\00\00!\00\00\00" }>, align 8
@alloc_3a78ff04f14eb2833ab0c82d013b150b = private unnamed_addr constant <{ [50 x i8] }> <{ [50 x i8] c"there is no such thing as a relaxed compiler fence" }>, align 1
@alloc_430204769d39c3fb374968cb14137bf7 = private unnamed_addr constant <{ ptr, [8 x i8] }> <{ ptr @alloc_3a78ff04f14eb2833ab0c82d013b150b, [8 x i8] c"2\00\00\00\00\00\00\00" }>, align 8
@alloc_15e6b65a979077866e1a9c60fd8e7af9 = private unnamed_addr constant <{ ptr, [16 x i8] }> <{ ptr @alloc_758e3eafddd83bea2c9171c5517da1cc, [16 x i8] c"o\00\00\00\00\00\00\00\86\0E\00\00\18\00\00\00" }>, align 8
@alloc_a500d906b91607583596fa15e63c2ada = private unnamed_addr constant <{ [40 x i8] }> <{ [40 x i8] c"internal error: entered unreachable code" }>, align 1
@alloc_8af331a5985192ea52a41e19634f2db2 = private unnamed_addr constant <{ [86 x i8] }> <{ [86 x i8] c"/Users/yaw/.cargo/registry/src/index.crates.io-6f17d22bba15001f/spin-0.5.2/src/once.rs" }>, align 1
@alloc_5be19f098388ddfa34a5cde2d2c61c94 = private unnamed_addr constant <{ ptr, [16 x i8] }> <{ ptr @alloc_8af331a5985192ea52a41e19634f2db2, [16 x i8] c"V\00\00\00\00\00\00\00{\00\00\00\1F\00\00\00" }>, align 8
@alloc_b41ce9db6ff9e09c515cee5b4d05db5e = private unnamed_addr constant <{ [17 x i8] }> <{ [17 x i8] c"Once has panicked" }>, align 1
@alloc_cbdd636a907b817e5acd19150abaf3dc = private unnamed_addr constant <{ ptr, [16 x i8] }> <{ ptr @alloc_8af331a5985192ea52a41e19634f2db2, [16 x i8] c"V\00\00\00\00\00\00\00\80\00\00\00\1D\00\00\00" }>, align 8
@alloc_19cd6c80ce59a410e8578725a730da5c = private unnamed_addr constant <{ [6 x i8] }> <{ [6 x i8] c"Escape" }>, align 1
@alloc_9ff749aff927f8d090966fe240c4e695 = private unnamed_addr constant <{ [2 x i8] }> <{ [2 x i8] c"F1" }>, align 1
@alloc_7ba3eac29fd37a66236c8d94e035bd27 = private unnamed_addr constant <{ [2 x i8] }> <{ [2 x i8] c"F2" }>, align 1
@alloc_7e5925bb32e6ddc10413748db15aedc1 = private unnamed_addr constant <{ [2 x i8] }> <{ [2 x i8] c"F3" }>, align 1
@alloc_ad4a26886425876944e9ac70af24612e = private unnamed_addr constant <{ [2 x i8] }> <{ [2 x i8] c"F4" }>, align 1
@alloc_b8b552324caa75181bf95423d30d9d3e = private unnamed_addr constant <{ [2 x i8] }> <{ [2 x i8] c"F5" }>, align 1
@alloc_803d7c3eb1dc8f97176d60c50390be93 = private unnamed_addr constant <{ [2 x i8] }> <{ [2 x i8] c"F6" }>, align 1
@alloc_a329cfd77d44ac522813eee8f967e517 = private unnamed_addr constant <{ [2 x i8] }> <{ [2 x i8] c"F7" }>, align 1
@alloc_89328f52c97b3aa7efe7e9860f69134b = private unnamed_addr constant <{ [2 x i8] }> <{ [2 x i8] c"F8" }>, align 1
@alloc_3ff614e073820cbd14453aa2d34fb8ee = private unnamed_addr constant <{ [2 x i8] }> <{ [2 x i8] c"F9" }>, align 1
@alloc_436c7befa4f654e90e24370bc2362a60 = private unnamed_addr constant <{ [3 x i8] }> <{ [3 x i8] c"F10" }>, align 1
@alloc_f1c2446ef77a7c9641ff1b259f12e490 = private unnamed_addr constant <{ [3 x i8] }> <{ [3 x i8] c"F11" }>, align 1
@alloc_837edbe37e9292f7a2f805d5cf701847 = private unnamed_addr constant <{ [3 x i8] }> <{ [3 x i8] c"F12" }>, align 1
@alloc_5a99b7b169b35d424cdbaa69da88ce20 = private unnamed_addr constant <{ [11 x i8] }> <{ [11 x i8] c"PrintScreen" }>, align 1
@alloc_051ffee1bd081861cd5ac52f07a030f6 = private unnamed_addr constant <{ [5 x i8] }> <{ [5 x i8] c"SysRq" }>, align 1
@alloc_ed2a3aad61ce67daec7cc9525b6401af = private unnamed_addr constant <{ [10 x i8] }> <{ [10 x i8] c"ScrollLock" }>, align 1
@alloc_d13ca35acdcffd25a064df640bb00c41 = private unnamed_addr constant <{ [10 x i8] }> <{ [10 x i8] c"PauseBreak" }>, align 1
@alloc_390431f3d4f9b3ecbb24051fe28fd7d1 = private unnamed_addr constant <{ [4 x i8] }> <{ [4 x i8] c"Oem8" }>, align 1
@alloc_4b3feff012798da2ed40c71f7ab51605 = private unnamed_addr constant <{ [4 x i8] }> <{ [4 x i8] c"Key1" }>, align 1
@alloc_589f89a19e4de1c340b5184876effcfc = private unnamed_addr constant <{ [4 x i8] }> <{ [4 x i8] c"Key2" }>, align 1
@alloc_833877d992ecf0b9fa45647cf572cd07 = private unnamed_addr constant <{ [4 x i8] }> <{ [4 x i8] c"Key3" }>, align 1
@alloc_d24de9133d7514ad3ff36035ec0b29a5 = private unnamed_addr constant <{ [4 x i8] }> <{ [4 x i8] c"Key4" }>, align 1
@alloc_522a122a325dad215bcb5d2a777e0391 = private unnamed_addr constant <{ [4 x i8] }> <{ [4 x i8] c"Key5" }>, align 1
@alloc_a439b75783cf15abcd8fab3bbd2bab20 = private unnamed_addr constant <{ [4 x i8] }> <{ [4 x i8] c"Key6" }>, align 1
@alloc_89b8be877a18651f91389eb6c79e7968 = private unnamed_addr constant <{ [4 x i8] }> <{ [4 x i8] c"Key7" }>, align 1
@alloc_8241519fc823a48f5cb0772b07ae58f1 = private unnamed_addr constant <{ [4 x i8] }> <{ [4 x i8] c"Key8" }>, align 1
@alloc_1e1aff20d1c69c3354184a1953a6b0fb = private unnamed_addr constant <{ [4 x i8] }> <{ [4 x i8] c"Key9" }>, align 1
@alloc_a4646ba148650ddd626b9417a28ca60e = private unnamed_addr constant <{ [4 x i8] }> <{ [4 x i8] c"Key0" }>, align 1
@alloc_4eaec360ed11f0410d47d39e6d3b5832 = private unnamed_addr constant <{ [8 x i8] }> <{ [8 x i8] c"OemMinus" }>, align 1
@alloc_d3fe36ca0018fb384206e5a01b306676 = private unnamed_addr constant <{ [7 x i8] }> <{ [7 x i8] c"OemPlus" }>, align 1
@alloc_60d03198e63ba120825e7e99e9817972 = private unnamed_addr constant <{ [9 x i8] }> <{ [9 x i8] c"Backspace" }>, align 1
@alloc_5fa8bd54e3adbaa44986228d4c9c47ed = private unnamed_addr constant <{ [6 x i8] }> <{ [6 x i8] c"Insert" }>, align 1
@alloc_b6ab41493105ba4f8653b0ac72d6fa1a = private unnamed_addr constant <{ [4 x i8] }> <{ [4 x i8] c"Home" }>, align 1
@alloc_46cd31a7994e8b04c8bf0ae80e8a6f70 = private unnamed_addr constant <{ [6 x i8] }> <{ [6 x i8] c"PageUp" }>, align 1
@alloc_82552013d9bcaa6f9226aef36cf82ce8 = private unnamed_addr constant <{ [10 x i8] }> <{ [10 x i8] c"NumpadLock" }>, align 1
@alloc_51afa5de7ddfdd1969fe02fb5aea4743 = private unnamed_addr constant <{ [12 x i8] }> <{ [12 x i8] c"NumpadDivide" }>, align 1
@alloc_9bdda514be4a30e0ce14f25c08a83a16 = private unnamed_addr constant <{ [14 x i8] }> <{ [14 x i8] c"NumpadMultiply" }>, align 1
@alloc_35fb7ad637c3b942697789eccc824a79 = private unnamed_addr constant <{ [14 x i8] }> <{ [14 x i8] c"NumpadSubtract" }>, align 1
@alloc_6c1508deece4789b42ac73369c697db1 = private unnamed_addr constant <{ [3 x i8] }> <{ [3 x i8] c"Tab" }>, align 1
@alloc_7feebe4f384e098923f41ff61a9ee22e = private unnamed_addr constant <{ [1 x i8] }> <{ [1 x i8] c"Q" }>, align 1
@alloc_578ba253fc8f9f06c4806197b895a238 = private unnamed_addr constant <{ [1 x i8] }> <{ [1 x i8] c"W" }>, align 1
@alloc_c92bab2dec2582f45f478f51a76e64ac = private unnamed_addr constant <{ [1 x i8] }> <{ [1 x i8] c"E" }>, align 1
@alloc_58c582d907f9ddae351da71a93c31ad4 = private unnamed_addr constant <{ [1 x i8] }> <{ [1 x i8] c"R" }>, align 1
@alloc_8488b46b1090aa1f460173af0eed1272 = private unnamed_addr constant <{ [1 x i8] }> <{ [1 x i8] c"T" }>, align 1
@alloc_ffc197f78acd086a7c8e7e4d7eac7b7e = private unnamed_addr constant <{ [1 x i8] }> <{ [1 x i8] c"Y" }>, align 1
@alloc_6f4e89f151d599c92cfef340ac6cd0d8 = private unnamed_addr constant <{ [1 x i8] }> <{ [1 x i8] c"U" }>, align 1
@alloc_7c2a4bb1f8fbe61b8f86d0de46516e43 = private unnamed_addr constant <{ [1 x i8] }> <{ [1 x i8] c"I" }>, align 1
@alloc_f2f9ac1c22f8a03e1f59c3ee47ea8305 = private unnamed_addr constant <{ [1 x i8] }> <{ [1 x i8] c"O" }>, align 1
@alloc_c29e55c84125b0bc64bfbcda361e43c7 = private unnamed_addr constant <{ [1 x i8] }> <{ [1 x i8] c"P" }>, align 1
@alloc_ce0cbdb2bb9910d84f6547b67d533700 = private unnamed_addr constant <{ [4 x i8] }> <{ [4 x i8] c"Oem4" }>, align 1
@alloc_6ee984b139b03809220fffc7afb21d78 = private unnamed_addr constant <{ [4 x i8] }> <{ [4 x i8] c"Oem6" }>, align 1
@alloc_da7e8cccb768af88d0032c4733f02ad7 = private unnamed_addr constant <{ [4 x i8] }> <{ [4 x i8] c"Oem5" }>, align 1
@alloc_ddc453a1b9cc6fb21188044ce297212f = private unnamed_addr constant <{ [4 x i8] }> <{ [4 x i8] c"Oem7" }>, align 1
@alloc_efd1fe2c06548781fde69e80c848e6af = private unnamed_addr constant <{ [6 x i8] }> <{ [6 x i8] c"Delete" }>, align 1
@alloc_4654569f7df05abd2cc61c745c38f037 = private unnamed_addr constant <{ [3 x i8] }> <{ [3 x i8] c"End" }>, align 1
@alloc_3e2c58eed6aa9b0136c2d827edbd879e = private unnamed_addr constant <{ [8 x i8] }> <{ [8 x i8] c"PageDown" }>, align 1
@alloc_f0bbb4bb3b9e67806bd719c1ebacaed9 = private unnamed_addr constant <{ [7 x i8] }> <{ [7 x i8] c"Numpad7" }>, align 1
@alloc_07548a2bb15cc195c5642352ab3ba085 = private unnamed_addr constant <{ [7 x i8] }> <{ [7 x i8] c"Numpad8" }>, align 1
@alloc_c0d967b52193c23a52f97ed4dbe0f3dd = private unnamed_addr constant <{ [7 x i8] }> <{ [7 x i8] c"Numpad9" }>, align 1
@alloc_ca1e5632b894c8a2b031cfd3bce42d32 = private unnamed_addr constant <{ [9 x i8] }> <{ [9 x i8] c"NumpadAdd" }>, align 1
@alloc_776daa82451202b14ed33e31bddd98fe = private unnamed_addr constant <{ [8 x i8] }> <{ [8 x i8] c"CapsLock" }>, align 1
@alloc_e2ead6761956d440a2a6c3412b417ffa = private unnamed_addr constant <{ [1 x i8] }> <{ [1 x i8] c"A" }>, align 1
@alloc_3d819d96158b16428dc573e77dae6c30 = private unnamed_addr constant <{ [1 x i8] }> <{ [1 x i8] c"S" }>, align 1
@alloc_fba4efe8e4f7fab8265f1b3a352c9317 = private unnamed_addr constant <{ [1 x i8] }> <{ [1 x i8] c"D" }>, align 1
@alloc_4b372b42a7e59c4e87186c5d2ddb750d = private unnamed_addr constant <{ [1 x i8] }> <{ [1 x i8] c"F" }>, align 1
@alloc_b9a77d17410e0d1e6ff9596fd12d3c82 = private unnamed_addr constant <{ [1 x i8] }> <{ [1 x i8] c"G" }>, align 1
@alloc_f37ac9214caa3f4fd6c4175f3238ef85 = private unnamed_addr constant <{ [1 x i8] }> <{ [1 x i8] c"H" }>, align 1
@alloc_9d76ab58755b3c4c2669e548a41c93ec = private unnamed_addr constant <{ [1 x i8] }> <{ [1 x i8] c"J" }>, align 1
@alloc_f5bc76ebbc4970eaed11587cfaa67b0c = private unnamed_addr constant <{ [1 x i8] }> <{ [1 x i8] c"K" }>, align 1
@alloc_7db32c6e93a18198f433b0c9f7863f8d = private unnamed_addr constant <{ [1 x i8] }> <{ [1 x i8] c"L" }>, align 1
@alloc_2aabfbf067a195e6fc5c6cdb1ae94be5 = private unnamed_addr constant <{ [4 x i8] }> <{ [4 x i8] c"Oem1" }>, align 1
@alloc_a3c92fe487bf5a236d7ffbfa31239596 = private unnamed_addr constant <{ [4 x i8] }> <{ [4 x i8] c"Oem3" }>, align 1
@alloc_5e9a928e5425e69889c35d2ee8b73730 = private unnamed_addr constant <{ [6 x i8] }> <{ [6 x i8] c"Return" }>, align 1
@alloc_2fa222d5d37750def90c677ecaa38265 = private unnamed_addr constant <{ [7 x i8] }> <{ [7 x i8] c"Numpad4" }>, align 1
@alloc_c7a22ce763e7843f16c7e8812385e552 = private unnamed_addr constant <{ [7 x i8] }> <{ [7 x i8] c"Numpad5" }>, align 1
@alloc_28c6aae305f0e24087f3375957f16204 = private unnamed_addr constant <{ [7 x i8] }> <{ [7 x i8] c"Numpad6" }>, align 1
@alloc_221216dd635025c9324150654e982d9d = private unnamed_addr constant <{ [6 x i8] }> <{ [6 x i8] c"LShift" }>, align 1
@alloc_38ea2406a8c8f86dee62ab1a553c7a1c = private unnamed_addr constant <{ [1 x i8] }> <{ [1 x i8] c"Z" }>, align 1
@alloc_73d6b93d5407e95288a133ffe41f2f08 = private unnamed_addr constant <{ [1 x i8] }> <{ [1 x i8] c"X" }>, align 1
@alloc_e57470275a219d8492d489e56910499e = private unnamed_addr constant <{ [1 x i8] }> <{ [1 x i8] c"C" }>, align 1
@alloc_c3553bff04f59f8e41233c684c2f24fb = private unnamed_addr constant <{ [1 x i8] }> <{ [1 x i8] c"V" }>, align 1
@alloc_d3bbdebcd7d668a59dc59a90afdc2fa1 = private unnamed_addr constant <{ [1 x i8] }> <{ [1 x i8] c"B" }>, align 1
@alloc_e8a1566664e7ab844da933420b59a9f6 = private unnamed_addr constant <{ [1 x i8] }> <{ [1 x i8] c"N" }>, align 1
@alloc_f9b235d2a210ccd74228e3ef41714c41 = private unnamed_addr constant <{ [1 x i8] }> <{ [1 x i8] c"M" }>, align 1
@alloc_3b02b041a793bff5e8e17a2d621577cb = private unnamed_addr constant <{ [8 x i8] }> <{ [8 x i8] c"OemComma" }>, align 1
@alloc_42e3dc723afb320f0c5b6ba1928689b8 = private unnamed_addr constant <{ [9 x i8] }> <{ [9 x i8] c"OemPeriod" }>, align 1
@alloc_9b2b361b23f1835c8fd2bfae29f22566 = private unnamed_addr constant <{ [4 x i8] }> <{ [4 x i8] c"Oem2" }>, align 1
@alloc_b8857b7d70c7ce73178148cb942cc015 = private unnamed_addr constant <{ [6 x i8] }> <{ [6 x i8] c"RShift" }>, align 1
@alloc_2abc2f401526f4696d5bbfa918a4dbc4 = private unnamed_addr constant <{ [7 x i8] }> <{ [7 x i8] c"ArrowUp" }>, align 1
@alloc_c2ecef526da2793766ce19fcb15fa9e0 = private unnamed_addr constant <{ [7 x i8] }> <{ [7 x i8] c"Numpad1" }>, align 1
@alloc_db85cc0802c1c0ee4587cf3ef0a95305 = private unnamed_addr constant <{ [7 x i8] }> <{ [7 x i8] c"Numpad2" }>, align 1
@alloc_e00cb3a197f9dbd483b10618ca3209f8 = private unnamed_addr constant <{ [7 x i8] }> <{ [7 x i8] c"Numpad3" }>, align 1
@alloc_4d39189fab64e62425c108b92b96374e = private unnamed_addr constant <{ [11 x i8] }> <{ [11 x i8] c"NumpadEnter" }>, align 1
@alloc_6087164cc980a8385e3c96b817f08cf9 = private unnamed_addr constant <{ [8 x i8] }> <{ [8 x i8] c"LControl" }>, align 1
@alloc_65ee1a5242f940ee58b99bc040bb0cb9 = private unnamed_addr constant <{ [4 x i8] }> <{ [4 x i8] c"LWin" }>, align 1
@alloc_abb5bb4ed9d0cefb17d2b9cdd630291b = private unnamed_addr constant <{ [4 x i8] }> <{ [4 x i8] c"LAlt" }>, align 1
@alloc_4059db41a1f4402b5f438b58d952e58c = private unnamed_addr constant <{ [8 x i8] }> <{ [8 x i8] c"Spacebar" }>, align 1
@alloc_1059377bc2d71e433b9da7a3295f7ffe = private unnamed_addr constant <{ [6 x i8] }> <{ [6 x i8] c"RAltGr" }>, align 1
@alloc_c5e8cc6f921ee43bffb725f686bd7ecd = private unnamed_addr constant <{ [4 x i8] }> <{ [4 x i8] c"RWin" }>, align 1
@alloc_7cbef06d8c47760d51d80850a9a4c019 = private unnamed_addr constant <{ [4 x i8] }> <{ [4 x i8] c"Apps" }>, align 1
@alloc_06cf96e9365cff5faa0fd9fb6a339b33 = private unnamed_addr constant <{ [8 x i8] }> <{ [8 x i8] c"RControl" }>, align 1
@alloc_3072842045c378ab33d0bc94c49fd483 = private unnamed_addr constant <{ [9 x i8] }> <{ [9 x i8] c"ArrowLeft" }>, align 1
@alloc_e5bac97012bb8484ddeaae108d46208e = private unnamed_addr constant <{ [9 x i8] }> <{ [9 x i8] c"ArrowDown" }>, align 1
@alloc_8f129076e20f335f344bda71add693ca = private unnamed_addr constant <{ [10 x i8] }> <{ [10 x i8] c"ArrowRight" }>, align 1
@alloc_0dba4d1281e66656f6ba1c89532142dc = private unnamed_addr constant <{ [7 x i8] }> <{ [7 x i8] c"Numpad0" }>, align 1
@alloc_8b321291d1dd74cfadae41c0246011d9 = private unnamed_addr constant <{ [12 x i8] }> <{ [12 x i8] c"NumpadPeriod" }>, align 1
@alloc_ec8db314e932799a48fa04823595fdc4 = private unnamed_addr constant <{ [4 x i8] }> <{ [4 x i8] c"Oem9" }>, align 1
@alloc_ee50e49af8eced5dd17754b98eccb61a = private unnamed_addr constant <{ [5 x i8] }> <{ [5 x i8] c"Oem10" }>, align 1
@alloc_973be59a8816ff5e91a1dc7155aeb880 = private unnamed_addr constant <{ [5 x i8] }> <{ [5 x i8] c"Oem11" }>, align 1
@alloc_04d35ebcb718902c0ed17eca413c380f = private unnamed_addr constant <{ [5 x i8] }> <{ [5 x i8] c"Oem12" }>, align 1
@alloc_60934ef955a45f49d2f6887c3daa1a82 = private unnamed_addr constant <{ [5 x i8] }> <{ [5 x i8] c"Oem13" }>, align 1
@alloc_04991ee96bdc6ace7b8eba84a394e173 = private unnamed_addr constant <{ [9 x i8] }> <{ [9 x i8] c"PrevTrack" }>, align 1
@alloc_02362fec7ddd822ef0ccf43dabb6a869 = private unnamed_addr constant <{ [9 x i8] }> <{ [9 x i8] c"NextTrack" }>, align 1
@alloc_3a2a760a0450ba5ea0958ac8503f35c0 = private unnamed_addr constant <{ [4 x i8] }> <{ [4 x i8] c"Mute" }>, align 1
@alloc_bf4279fbd6075ceaf989f75d9643e8c6 = private unnamed_addr constant <{ [10 x i8] }> <{ [10 x i8] c"Calculator" }>, align 1
@alloc_bdc941ee42bb12b93d0ece87945ac03d = private unnamed_addr constant <{ [4 x i8] }> <{ [4 x i8] c"Play" }>, align 1
@alloc_e6d79413b6016226a02b301598378ba1 = private unnamed_addr constant <{ [4 x i8] }> <{ [4 x i8] c"Stop" }>, align 1
@alloc_a0a306cb083c6a40ed075f4bddb68abd = private unnamed_addr constant <{ [10 x i8] }> <{ [10 x i8] c"VolumeDown" }>, align 1
@alloc_9c6a03da2a18eef3b2554500a125f600 = private unnamed_addr constant <{ [8 x i8] }> <{ [8 x i8] c"VolumeUp" }>, align 1
@alloc_358776950fcb9f366a9635f664f9cdb2 = private unnamed_addr constant <{ [7 x i8] }> <{ [7 x i8] c"WWWHome" }>, align 1
@alloc_3cf27ccf095dcc570814dde94e3825dd = private unnamed_addr constant <{ [13 x i8] }> <{ [13 x i8] c"PowerOnTestOk" }>, align 1
@alloc_337da9a90bc57e9b78d587e70fdb801f = private unnamed_addr constant <{ [11 x i8] }> <{ [11 x i8] c"TooManyKeys" }>, align 1
@alloc_4b4d63478f22cc8f9168a5804eedfea0 = private unnamed_addr constant <{ [9 x i8] }> <{ [9 x i8] c"RControl2" }>, align 1
@alloc_270be35c7f3a49e5fd2275f10baac0c5 = private unnamed_addr constant <{ [5 x i8] }> <{ [5 x i8] c"RAlt2" }>, align 1
@alloc_37d2e53432a03a1f90b3e7253015eaf9 = private unnamed_addr constant <{ [4 x i8] }> <{ [4 x i8] c"None" }>, align 1
@alloc_9535bf4c204f3eb9b19ec2c83e446e52 = private unnamed_addr constant <{ [4 x i8] }> <{ [4 x i8] c"Some" }>, align 1
@vtable.3 = private constant <{ ptr, [16 x i8], ptr }> <{ ptr @"_ZN4core3ptr49drop_in_place$LT$$RF$$RF$core..fmt..Arguments$GT$17h6a4c79cf50d1cc66E", [16 x i8] c"\08\00\00\00\00\00\00\00\08\00\00\00\00\00\00\00", ptr @"_ZN42_$LT$$RF$T$u20$as$u20$core..fmt..Debug$GT$3fmt17h4385645e1b722ed5E" }>, align 8, !dbg !0
@alloc_52b747f34eef2d0ab36546d7f9354b2c = private unnamed_addr constant <{ [8 x i8] }> <{ [8 x i8] c"Location" }>, align 1
@alloc_de7c89bfbe8cfcddfe41d5ea20bd02ee = private unnamed_addr constant <{ [4 x i8] }> <{ [4 x i8] c"file" }>, align 1
@vtable.4 = private constant <{ ptr, [16 x i8], ptr }> <{ ptr @"_ZN4core3ptr28drop_in_place$LT$$RF$str$GT$17h2aac017f2201e95dE", [16 x i8] c"\10\00\00\00\00\00\00\00\08\00\00\00\00\00\00\00", ptr @"_ZN42_$LT$$RF$T$u20$as$u20$core..fmt..Debug$GT$3fmt17h872dbed52f0bcd04E" }>, align 8, !dbg !150
@alloc_228b951a53cd2b066a5833c8dc256a67 = private unnamed_addr constant <{ [4 x i8] }> <{ [4 x i8] c"line" }>, align 1
@vtable.5 = private constant <{ ptr, [16 x i8], ptr }> <{ ptr @"_ZN4core3ptr24drop_in_place$LT$u32$GT$17h3e28be04197e3931E", [16 x i8] c"\04\00\00\00\00\00\00\00\04\00\00\00\00\00\00\00", ptr @"_ZN4core3fmt3num50_$LT$impl$u20$core..fmt..Debug$u20$for$u20$u32$GT$3fmt17h6320902afa155103E" }>, align 8, !dbg !158
@alloc_815fae241ec812a028357de4283490f5 = private unnamed_addr constant <{ [3 x i8] }> <{ [3 x i8] c"col" }>, align 1
@vtable.6 = private constant <{ ptr, [16 x i8], ptr }> <{ ptr @"_ZN4core3ptr28drop_in_place$LT$$RF$u32$GT$17hfa714a7701f4beaeE", [16 x i8] c"\08\00\00\00\00\00\00\00\08\00\00\00\00\00\00\00", ptr @"_ZN42_$LT$$RF$T$u20$as$u20$core..fmt..Debug$GT$3fmt17hea1585ae768ca0a3E" }>, align 8, !dbg !166
@alloc_bb784ff5cbe8cf7f36955c50c05d0f35 = private unnamed_addr constant <{ [100 x i8] }> <{ [100 x i8] c"/Users/yaw/.cargo/registry/src/index.crates.io-6f17d22bba15001f/x86_64-0.14.11/src/structures/idt.rs" }>, align 1
@alloc_fa052248d4309ea78bf128fd9e97b625 = private unnamed_addr constant <{ ptr, [16 x i8] }> <{ ptr @alloc_bb784ff5cbe8cf7f36955c50c05d0f35, [16 x i8] c"d\00\00\00\00\00\00\00g\03\00\00\1F\00\00\00" }>, align 8
@alloc_0f9c1258d6528621fda74eb4563be0eb = private unnamed_addr constant <{ [114 x i8] }> <{ [114 x i8] c"/Users/yaw/.cargo/registry/src/index.crates.io-6f17d22bba15001f/x86_64-0.14.11/src/structures/paging/page_table.rs" }>, align 1
@alloc_e33adc17165a5441c1c0b4fab57655d5 = private unnamed_addr constant <{ ptr, [16 x i8] }> <{ ptr @alloc_0f9c1258d6528621fda74eb4563be0eb, [16 x i8] c"r\00\00\00\00\00\00\00\DC\00\00\00 \00\00\00" }>, align 8
@alloc_3b30f3c2fe1935017d2714aa9952ea95 = private unnamed_addr constant <{ [74 x i8] }> <{ [74 x i8] c"address passed to VirtAddr::new must not contain any data in bits 48 to 64" }>, align 1
@alloc_842c6cf716507d75296fae883605a9ce = private unnamed_addr constant <{ [90 x i8] }> <{ [90 x i8] c"/Users/yaw/.cargo/registry/src/index.crates.io-6f17d22bba15001f/x86_64-0.14.11/src/addr.rs" }>, align 1
@alloc_48765f877a14fc69d0e400169d59e85e = private unnamed_addr constant <{ ptr, [16 x i8] }> <{ ptr @alloc_842c6cf716507d75296fae883605a9ce, [16 x i8] c"Z\00\00\00\00\00\00\00F\00\00\00\1D\00\00\00" }>, align 8
@alloc_ec5b1b162c2450c572509f04758eccff = private unnamed_addr constant <{ [2 x i8] }> <{ [2 x i8] c"ID" }>, align 1
@alloc_c6278bda13d4e203e2ffdae4ef6347fb = private unnamed_addr constant <{ [25 x i8] }> <{ [25 x i8] c"VIRTUAL_INTERRUPT_PENDING" }>, align 1
@alloc_3ebb970fb6c33a3b0fe01f3bf4af376e = private unnamed_addr constant <{ [17 x i8] }> <{ [17 x i8] c"VIRTUAL_INTERRUPT" }>, align 1
@alloc_3a1e4c5d12171e7bfcd85ba51395866c = private unnamed_addr constant <{ [15 x i8] }> <{ [15 x i8] c"ALIGNMENT_CHECK" }>, align 1
@alloc_1528d1162bff7baa34e9aa2de578cb61 = private unnamed_addr constant <{ [17 x i8] }> <{ [17 x i8] c"VIRTUAL_8086_MODE" }>, align 1
@alloc_1d6fa5f529e55e2b73521861ceb2d701 = private unnamed_addr constant <{ [11 x i8] }> <{ [11 x i8] c"RESUME_FLAG" }>, align 1
@alloc_48ab5e7fe39f3329897899f9db12fc81 = private unnamed_addr constant <{ [11 x i8] }> <{ [11 x i8] c"NESTED_TASK" }>, align 1
@alloc_9b5da51e8e50cb45b94d88b16558de7d = private unnamed_addr constant <{ [9 x i8] }> <{ [9 x i8] c"IOPL_HIGH" }>, align 1
@alloc_ca8f9c3c90ddb14657eef011778f0d79 = private unnamed_addr constant <{ [8 x i8] }> <{ [8 x i8] c"IOPL_LOW" }>, align 1
@alloc_248573dbdb1f23c6f8497ef162ca133f = private unnamed_addr constant <{ [13 x i8] }> <{ [13 x i8] c"OVERFLOW_FLAG" }>, align 1
@alloc_33e28c56fe990dd47deb92a17608e414 = private unnamed_addr constant <{ [14 x i8] }> <{ [14 x i8] c"DIRECTION_FLAG" }>, align 1
@alloc_301ac14af0c7742428f03f6fb56cbb88 = private unnamed_addr constant <{ [14 x i8] }> <{ [14 x i8] c"INTERRUPT_FLAG" }>, align 1
@alloc_4a4b1b5fd7f29778851f88943a80f7e2 = private unnamed_addr constant <{ [9 x i8] }> <{ [9 x i8] c"TRAP_FLAG" }>, align 1
@alloc_99472ab79f8778654111cd8cd4dce1f6 = private unnamed_addr constant <{ [9 x i8] }> <{ [9 x i8] c"SIGN_FLAG" }>, align 1
@alloc_233a007a17452bb68262e3c1f40af172 = private unnamed_addr constant <{ [9 x i8] }> <{ [9 x i8] c"ZERO_FLAG" }>, align 1
@alloc_28c2c26bc7b83b08dda497f27d5e048a = private unnamed_addr constant <{ [20 x i8] }> <{ [20 x i8] c"AUXILIARY_CARRY_FLAG" }>, align 1
@alloc_4ac2882683871e4ddfd9eb00ed3ca0f8 = private unnamed_addr constant <{ [11 x i8] }> <{ [11 x i8] c"PARITY_FLAG" }>, align 1
@alloc_7fde2caa5e786cf03241bc614c426f83 = private unnamed_addr constant <{ [10 x i8] }> <{ [10 x i8] c"CARRY_FLAG" }>, align 1
@alloc_214f316402f280d5b584e67c906e34a1 = private unnamed_addr constant <{ ptr, [16 x i8], ptr, [16 x i8], ptr, [16 x i8], ptr, [16 x i8], ptr, [16 x i8], ptr, [16 x i8], ptr, [16 x i8], ptr, [16 x i8], ptr, [16 x i8], ptr, [16 x i8], ptr, [16 x i8], ptr, [16 x i8], ptr, [16 x i8], ptr, [16 x i8], ptr, [16 x i8], ptr, [16 x i8], ptr, [16 x i8], ptr, [16 x i8] }> <{ ptr @alloc_ec5b1b162c2450c572509f04758eccff, [16 x i8] c"\02\00\00\00\00\00\00\00\00\00 \00\00\00\00\00", ptr @alloc_c6278bda13d4e203e2ffdae4ef6347fb, [16 x i8] c"\19\00\00\00\00\00\00\00\00\00\10\00\00\00\00\00", ptr @alloc_3ebb970fb6c33a3b0fe01f3bf4af376e, [16 x i8] c"\11\00\00\00\00\00\00\00\00\00\08\00\00\00\00\00", ptr @alloc_3a1e4c5d12171e7bfcd85ba51395866c, [16 x i8] c"\0F\00\00\00\00\00\00\00\00\00\04\00\00\00\00\00", ptr @alloc_1528d1162bff7baa34e9aa2de578cb61, [16 x i8] c"\11\00\00\00\00\00\00\00\00\00\02\00\00\00\00\00", ptr @alloc_1d6fa5f529e55e2b73521861ceb2d701, [16 x i8] c"\0B\00\00\00\00\00\00\00\00\00\01\00\00\00\00\00", ptr @alloc_48ab5e7fe39f3329897899f9db12fc81, [16 x i8] c"\0B\00\00\00\00\00\00\00\00@\00\00\00\00\00\00", ptr @alloc_9b5da51e8e50cb45b94d88b16558de7d, [16 x i8] c"\09\00\00\00\00\00\00\00\00 \00\00\00\00\00\00", ptr @alloc_ca8f9c3c90ddb14657eef011778f0d79, [16 x i8] c"\08\00\00\00\00\00\00\00\00\10\00\00\00\00\00\00", ptr @alloc_248573dbdb1f23c6f8497ef162ca133f, [16 x i8] c"\0D\00\00\00\00\00\00\00\00\08\00\00\00\00\00\00", ptr @alloc_33e28c56fe990dd47deb92a17608e414, [16 x i8] c"\0E\00\00\00\00\00\00\00\00\04\00\00\00\00\00\00", ptr @alloc_301ac14af0c7742428f03f6fb56cbb88, [16 x i8] c"\0E\00\00\00\00\00\00\00\00\02\00\00\00\00\00\00", ptr @alloc_4a4b1b5fd7f29778851f88943a80f7e2, [16 x i8] c"\09\00\00\00\00\00\00\00\00\01\00\00\00\00\00\00", ptr @alloc_99472ab79f8778654111cd8cd4dce1f6, [16 x i8] c"\09\00\00\00\00\00\00\00\80\00\00\00\00\00\00\00", ptr @alloc_233a007a17452bb68262e3c1f40af172, [16 x i8] c"\09\00\00\00\00\00\00\00@\00\00\00\00\00\00\00", ptr @alloc_28c2c26bc7b83b08dda497f27d5e048a, [16 x i8] c"\14\00\00\00\00\00\00\00\10\00\00\00\00\00\00\00", ptr @alloc_4ac2882683871e4ddfd9eb00ed3ca0f8, [16 x i8] c"\0B\00\00\00\00\00\00\00\04\00\00\00\00\00\00\00", ptr @alloc_7fde2caa5e786cf03241bc614c426f83, [16 x i8] c"\0A\00\00\00\00\00\00\00\01\00\00\00\00\00\00\00" }>, align 8
@alloc_934ababc09c475581af068f0c652185c = private unnamed_addr constant <{ [102 x i8] }> <{ [102 x i8] c"/Users/yaw/.cargo/registry/src/index.crates.io-6f17d22bba15001f/x86_64-0.14.11/src/registers/rflags.rs" }>, align 1
@alloc_0d35ac2d9f3c602a78d8eba6062ec8d5 = private unnamed_addr constant <{ ptr, [16 x i8] }> <{ ptr @alloc_934ababc09c475581af068f0c652185c, [16 x i8] c"f\00\00\00\00\00\00\00\08\00\00\00\01\00\00\00" }>, align 8
@alloc_01ae796963a0c2ee02f1ad0340da23db = private unnamed_addr constant <{ [9 x i8] }> <{ [9 x i8] c"PanicInfo" }>, align 1
@alloc_f4ff7dcdfeff1625bf761bb3163823e9 = private unnamed_addr constant <{ [7 x i8] }> <{ [7 x i8] c"payload" }>, align 1
@vtable.7 = private constant <{ ptr, [16 x i8], ptr }> <{ ptr @"_ZN4core3ptr70drop_in_place$LT$$RF$dyn$u20$core..any..Any$u2b$core..marker..Send$GT$17h819ac95864651a47E", [16 x i8] c"\10\00\00\00\00\00\00\00\08\00\00\00\00\00\00\00", ptr @"_ZN42_$LT$$RF$T$u20$as$u20$core..fmt..Debug$GT$3fmt17h22be3a583cc71d1aE" }>, align 8, !dbg !175
@alloc_96af468510ea8f5f9cb1c5ccd138c101 = private unnamed_addr constant <{ [7 x i8] }> <{ [7 x i8] c"message" }>, align 1
@vtable.8 = private constant <{ ptr, [16 x i8], ptr }> <{ ptr @"_ZN4core3ptr73drop_in_place$LT$core..option..Option$LT$$RF$core..fmt..Arguments$GT$$GT$17h99ec4da07ce46419E", [16 x i8] c"\08\00\00\00\00\00\00\00\08\00\00\00\00\00\00\00", ptr @"_ZN66_$LT$core..option..Option$LT$T$GT$$u20$as$u20$core..fmt..Debug$GT$3fmt17h0af911676cc47317E" }>, align 8, !dbg !189
@alloc_574d1a2219ebd7ae8db35e273d007636 = private unnamed_addr constant <{ [8 x i8] }> <{ [8 x i8] c"location" }>, align 1
@vtable.9 = private constant <{ ptr, [16 x i8], ptr }> <{ ptr @"_ZN4core3ptr56drop_in_place$LT$$RF$core..panic..location..Location$GT$17h769dcb7cf7c3b8e3E", [16 x i8] c"\08\00\00\00\00\00\00\00\08\00\00\00\00\00\00\00", ptr @"_ZN42_$LT$$RF$T$u20$as$u20$core..fmt..Debug$GT$3fmt17h838621f0e2cf0b84E" }>, align 8, !dbg !210
@alloc_575da4ed8184512500a740f5175c45b3 = private unnamed_addr constant <{ [10 x i8] }> <{ [10 x i8] c"can_unwind" }>, align 1
@vtable.a = private constant <{ ptr, [16 x i8], ptr }> <{ ptr @"_ZN4core3ptr25drop_in_place$LT$bool$GT$17h3332b70a580a04d5E", [16 x i8] c"\01\00\00\00\00\00\00\00\01\00\00\00\00\00\00\00", ptr @"_ZN41_$LT$bool$u20$as$u20$core..fmt..Debug$GT$3fmt17hc808545771bfe5dfE" }>, align 8, !dbg !226
@alloc_1345bb1b7804d17c32eca7c37789ad73 = private unnamed_addr constant <{ [18 x i8] }> <{ [18 x i8] c"force_no_backtrace" }>, align 1
@vtable.b = private constant <{ ptr, [16 x i8], ptr }> <{ ptr @"_ZN4core3ptr29drop_in_place$LT$$RF$bool$GT$17h5a2038aaa9ac62b1E", [16 x i8] c"\08\00\00\00\00\00\00\00\08\00\00\00\00\00\00\00", ptr @"_ZN42_$LT$$RF$T$u20$as$u20$core..fmt..Debug$GT$3fmt17ha42ebfcb7559d66cE" }>, align 8, !dbg !235
@vtable.c = private constant <{ ptr, [16 x i8], ptr, ptr, ptr }> <{ ptr @"_ZN4core3ptr32drop_in_place$LT$vga..Screen$GT$17h47bc60bcaae77c41E", [16 x i8] c"\D8\00\00\00\00\00\00\00\08\00\00\00\00\00\00\00", ptr @"_ZN48_$LT$vga..Screen$u20$as$u20$core..fmt..Write$GT$9write_str17h927957bcd12df6c8E", ptr @_ZN4core3fmt5Write10write_char17h5913d6fadd9e51b5E, ptr @_ZN4core3fmt5Write9write_fmt17hbacf93c51d373761E }>, align 8, !dbg !244
@alloc_db71f8f2efa4491d8384d69403773686 = private unnamed_addr constant <{ [18 x i8] }> <{ [18 x i8] c"PageFaultErrorCode" }>, align 1
@vtable.d = private constant <{ ptr, [16 x i8], ptr }> <{ ptr @"_ZN4core3ptr69drop_in_place$LT$$RF$x86_64..structures..idt.._..InternalBitFlags$GT$17h028bbe1fe7c5dc61E", [16 x i8] c"\08\00\00\00\00\00\00\00\08\00\00\00\00\00\00\00", ptr @"_ZN42_$LT$$RF$T$u20$as$u20$core..fmt..Debug$GT$3fmt17h242673e519fd04b6E" }>, align 8, !dbg !291
@alloc_129868e99993fac393d02de2e84e1958 = private unnamed_addr constant <{ [34 x i8] }> <{ [34 x i8] c"<<<>>> PAGE FAULT OCCURRED <<<>>>\0A" }>, align 1
@alloc_393144d6dced93512440edf10ad5ea1f = private unnamed_addr constant <{ ptr, [8 x i8] }> <{ ptr @alloc_129868e99993fac393d02de2e84e1958, [8 x i8] c"\22\00\00\00\00\00\00\00" }>, align 8
@alloc_eef79925bc8360bea2bb272d2060a854 = private unnamed_addr constant <{ [9 x i8] }> <{ [9 x i8] c"Address: " }>, align 1
@alloc_49a1e817e911805af64bbc7efb390101 = private unnamed_addr constant <{ [1 x i8] }> <{ [1 x i8] c"\0A" }>, align 1
@alloc_d77bbcfcc4bfb3cf23d98b48bf012dae = private unnamed_addr constant <{ ptr, [8 x i8], ptr, [8 x i8] }> <{ ptr @alloc_eef79925bc8360bea2bb272d2060a854, [8 x i8] c"\09\00\00\00\00\00\00\00", ptr @alloc_49a1e817e911805af64bbc7efb390101, [8 x i8] c"\01\00\00\00\00\00\00\00" }>, align 8
@alloc_fd244c13268f0232abf2181a35879f5a = private unnamed_addr constant <{ [12 x i8] }> <{ [12 x i8] c"Error code: " }>, align 1
@alloc_1ac2c68dfbb11869efc6036ae6609a72 = private unnamed_addr constant <{ ptr, [8 x i8], ptr, [8 x i8] }> <{ ptr @alloc_fd244c13268f0232abf2181a35879f5a, [8 x i8] c"\0C\00\00\00\00\00\00\00", ptr @alloc_49a1e817e911805af64bbc7efb390101, [8 x i8] c"\01\00\00\00\00\00\00\00" }>, align 8
@alloc_3cf8a28b1a0b9f6efeedeb779c4e30d8 = private unnamed_addr constant <{ ptr, [8 x i8], ptr, [8 x i8] }> <{ ptr @alloc_513570631223a12912d85da2bec3b15a, [8 x i8] zeroinitializer, ptr @alloc_49a1e817e911805af64bbc7efb390101, [8 x i8] c"\01\00\00\00\00\00\00\00" }>, align 8
@alloc_0f52f98e9fa44caf6668aeb0b1c94ca5 = private unnamed_addr constant <{ [1 x i8] }> <{ [1 x i8] c"." }>, align 1
@alloc_4a9496f62a8e8df8cc2e6d37900e803f = private unnamed_addr constant <{ ptr, [8 x i8] }> <{ ptr @alloc_0f52f98e9fa44caf6668aeb0b1c94ca5, [8 x i8] c"\01\00\00\00\00\00\00\00" }>, align 8
@alloc_b99730e73100e73a81f4fbfe74b3821d = private unnamed_addr constant <{ ptr, [8 x i8] }> <{ ptr @alloc_513570631223a12912d85da2bec3b15a, [8 x i8] zeroinitializer }>, align 8
@alloc_336fab64cf280841146f9adb6c51a626 = private unnamed_addr constant <{ [29 x i8] }> <{ [29 x i8] c"IDT initialization failed -> " }>, align 1
@alloc_3c7de12acb76abac95e5db0e9d04aea9 = private unnamed_addr constant <{ ptr, [8 x i8] }> <{ ptr @alloc_336fab64cf280841146f9adb6c51a626, [8 x i8] c"\1D\00\00\00\00\00\00\00" }>, align 8
@alloc_ceb4379b47ed1f7ed9f46a275cc711f0 = private unnamed_addr constant <{ [17 x i8] }> <{ [17 x i8] c"src/interrupts.rs" }>, align 1
@alloc_60ee0a99f07fb9bbc730367e03a2d0a4 = private unnamed_addr constant <{ ptr, [16 x i8] }> <{ ptr @alloc_ceb4379b47ed1f7ed9f46a275cc711f0, [16 x i8] c"\11\00\00\00\00\00\00\00I\00\00\00\13\00\00\00" }>, align 8
@alloc_c93a4ffa9727a1bb49e05bf87dcfdf04 = private unnamed_addr constant <{ [13 x i8] }> <{ [13 x i8] c"src/memory.rs" }>, align 1
@alloc_d5cf8c43a8bbb5d86eb441389302f9a9 = private unnamed_addr constant <{ ptr, [16 x i8] }> <{ ptr @alloc_c93a4ffa9727a1bb49e05bf87dcfdf04, [16 x i8] c"\0D\00\00\00\00\00\00\00:\00\00\00Y\00\00\00" }>, align 8
@alloc_8bf6e2a89d3a6de72f722a6da74569b5 = private unnamed_addr constant <{ [2 x i8] }> <{ [2 x i8] c"<<" }>, align 1
@alloc_0ef75c82ba7f3313d93f8bd446d3d9f0 = private unnamed_addr constant <{ [6 x i8] }> <{ [6 x i8] c">>: <<" }>, align 1
@alloc_6f0aab1c9ceb4ef854dc4ee83f7483bb = private unnamed_addr constant <{ [3 x i8] }> <{ [3 x i8] c">>\0A" }>, align 1
@alloc_bc7c3823fe2506bbd861160a883ad4cd = private unnamed_addr constant <{ ptr, [8 x i8], ptr, [8 x i8], ptr, [8 x i8] }> <{ ptr @alloc_8bf6e2a89d3a6de72f722a6da74569b5, [8 x i8] c"\02\00\00\00\00\00\00\00", ptr @alloc_0ef75c82ba7f3313d93f8bd446d3d9f0, [8 x i8] c"\06\00\00\00\00\00\00\00", ptr @alloc_6f0aab1c9ceb4ef854dc4ee83f7483bb, [8 x i8] c"\03\00\00\00\00\00\00\00" }>, align 8
@alloc_a5f8feb4a3586cc3d2cc627130027a8e = private unnamed_addr constant <{ [34 x i8] }> <{ [34 x i8] c"not sure how to enumerate this yet" }>, align 1
@alloc_146e34fdbc17458366160448cd702def = private unnamed_addr constant <{ ptr, [8 x i8] }> <{ ptr @alloc_a5f8feb4a3586cc3d2cc627130027a8e, [8 x i8] c"\22\00\00\00\00\00\00\00" }>, align 8
@alloc_679860508bd8912ef25fa90e89baf5dd = private unnamed_addr constant <{ ptr, [16 x i8] }> <{ ptr @alloc_c93a4ffa9727a1bb49e05bf87dcfdf04, [16 x i8] c"\0D\00\00\00\00\00\00\00B\00\00\00\12\00\00\00" }>, align 8
@alloc_604802f3d78c33b0b3552b3c7940e5df = private unnamed_addr constant <{ [18 x i8] }> <{ [18 x i8] c"src/peripherals.rs" }>, align 1
@alloc_d08997a3b514c27721e31730cc8f2b02 = private unnamed_addr constant <{ ptr, [16 x i8] }> <{ ptr @alloc_604802f3d78c33b0b3552b3c7940e5df, [16 x i8] c"\12\00\00\00\00\00\00\00\1D\00\00\00U\00\00\00" }>, align 8
@_ZN4theo17BOOTLOADER_CONFIG17h19b6408aebd9b887E = internal constant <{ [184 x i8] }> <{ [184 x i8] c"\00\00\00\00\00\00\00\00\00\00\00\00\00\00\00\00\00\00\00\00\00\00\00\00\00\00\00\00\00\00\00\00\00\00\00\00\00\00\00\00\00\00\00\00\00\00\00\00\00\00\00\00\00\00\00\00\00\00\00\00\00\00\00\00\00\00\00\00\00\00\00\00\00\00\00\00\00\00\00\00\00\00\00\00\00\00\00\00\00\00\00\00\00\00\00\00\00\00\00\00\00\00\00\00\00\00\00\00\00\00\00\00\02\00\00\00\00\00\00\00\00\00\00\00\00\00\00\00\00\00\00\00\00\00\00\00\00\00\00\00\00\00\00\00\00\00\00\00\00\00\00\00\00\00\00\00\00\00\00\00\00\00\00\00\00\00\00\00\00\00\0B\00\05\00\00\00\00@\01\00\00\00\00\00" }>, align 8, !dbg !307
@alloc_e57360d3cab7b504edab5d53bcd8a2bf = private unnamed_addr constant <{ [46 x i8] }> <{ [46 x i8] c"ave imperator, morituri te salutant \F0\9F\96\96!\0A\0A\0A\0A\0A" }>, align 1
@alloc_576604a614cb5cfb7f9953ac415f68be = private unnamed_addr constant <{ ptr, [8 x i8] }> <{ ptr @alloc_e57360d3cab7b504edab5d53bcd8a2bf, [8 x i8] c".\00\00\00\00\00\00\00" }>, align 8
@alloc_ac6f105be24c55b3d87791790b6d9f81 = private unnamed_addr constant <{ [44 x i8] }> <{ [44 x i8] c"this text should appear on last but one row\0A" }>, align 1
@alloc_dcb3216fa9f669e64c3d6aa687dcf74b = private unnamed_addr constant <{ ptr, [8 x i8] }> <{ ptr @alloc_ac6f105be24c55b3d87791790b6d9f81, [8 x i8] c",\00\00\00\00\00\00\00" }>, align 8
@alloc_840f7d7801fd0a18e678824978a17a2e = private unnamed_addr constant <{ [39 x i8] }> <{ [39 x i8] c"last row of text, with empty row below\0A" }>, align 1
@alloc_a919a9755b1f61d299fc3c06ce7d99aa = private unnamed_addr constant <{ ptr, [8 x i8] }> <{ ptr @alloc_840f7d7801fd0a18e678824978a17a2e, [8 x i8] c"'\00\00\00\00\00\00\00" }>, align 8
@_ZN4theo10interrupts8SAFE_IDT17hcd027a0dc1b4df7aE = internal constant <{}> zeroinitializer, align 1, !dbg !378
@alloc_8e31913bb1280612bd3b769187e5eba9 = private unnamed_addr constant <{ ptr, [16 x i8] }> <{ ptr @alloc_ceb4379b47ed1f7ed9f46a275cc711f0, [16 x i8] c"\11\00\00\00\00\00\00\00\1B\00\00\00\11\00\00\00" }>, align 8
@alloc_aab49787549470fd70facaad108c77a4 = private unnamed_addr constant <{ ptr, [16 x i8] }> <{ ptr @alloc_ceb4379b47ed1f7ed9f46a275cc711f0, [16 x i8] c"\11\00\00\00\00\00\00\00\1B\00\00\00\10\00\00\00" }>, align 8
@alloc_bbed2470a1e4ffba3a375ea33e907c1f = private unnamed_addr constant <{ ptr, [16 x i8] }> <{ ptr @alloc_ceb4379b47ed1f7ed9f46a275cc711f0, [16 x i8] c"\11\00\00\00\00\00\00\00\1C\00\00\00\11\00\00\00" }>, align 8
@alloc_89145f0e94d32249f13126908daaef05 = private unnamed_addr constant <{ ptr, [16 x i8] }> <{ ptr @alloc_ceb4379b47ed1f7ed9f46a275cc711f0, [16 x i8] c"\11\00\00\00\00\00\00\00\1C\00\00\00\10\00\00\00" }>, align 8
@"_ZN70_$LT$theo..interrupts..SAFE_IDT$u20$as$u20$core..ops..deref..Deref$GT$5deref11__stability4LAZY17h9cd6bf497b66c077E" = internal global <{ [4098 x i8], [1 x i8], [13 x i8], [8 x i8], [8 x i8] }> <{ [4098 x i8] undef, [1 x i8] c"\02", [13 x i8] undef, [8 x i8] zeroinitializer, [8 x i8] undef }>, align 16, !dbg !385
@_ZN4theo11peripherals24VGA_DISPLAY_IN_TEXT_MODE17h1126cb4cf797ea1cE = internal constant <{}> zeroinitializer, align 1, !dbg !580
@"_ZN87_$LT$theo..peripherals..VGA_DISPLAY_IN_TEXT_MODE$u20$as$u20$core..ops..deref..Deref$GT$5deref11__stability4LAZY17h990dd612b592a6a8E" = internal global <{ [16 x i8], [224 x i8] }> <{ [16 x i8] zeroinitializer, [224 x i8] undef }>, align 8, !dbg !586
@_ZN4theo11peripherals8KEYBOARD17h8de25e2078b9955aE = internal constant <{}> zeroinitializer, align 1, !dbg !646
@"_ZN71_$LT$theo..peripherals..KEYBOARD$u20$as$u20$core..ops..deref..Deref$GT$5deref11__stability4LAZY17h289de5092f7fa060E" = internal global <{ [10 x i8], [22 x i8] }> <{ [10 x i8] zeroinitializer, [22 x i8] undef }>, align 8, !dbg !651
@_ZN4theo6serial7SERIAL117h965f48109ccf4522E = internal constant <{}> zeroinitializer, align 1, !dbg !767
@"_ZN65_$LT$theo..serial..SERIAL1$u20$as$u20$core..ops..deref..Deref$GT$5deref11__stability4LAZY17hf7ac88771eb75508E" = internal global <{ [2 x i8], [14 x i8], [8 x i8] }> <{ [2 x i8] zeroinitializer, [14 x i8] undef, [8 x i8] zeroinitializer }>, align 8, !dbg !773
@_ZN4theo1_19__BOOTLOADER_CONFIG17h8d16d1062cc3470bE = internal constant <{ [124 x i8] }> <{ [124 x i8] c"t<\A9a\096F\A0\BBU\\\15\89\15%=\00\00\0B\00\05\00\00\00@\01\00\00\00\00\00\00\00\00\00\00\00\00\00\00\00\00\00\00\00\00\00\00\00\00\00\00\00\00\00\00\00\00\01\00\00\00\00\00\00\00\00\00\00\00\00\00\00\00\00\00\00\00\00\00\00\00\00\00\00\00\00\00\00\00\00\00\00\00\00\00\00\00\00\00\00\00\00\00\00\00\00\00\00\00\00\00\00\00\00\00\00\00\00\00\00\00\00\00" }>, section ".bootloader-config", align 1, !dbg !859
@__rustc_debug_gdb_scripts_section__ = linkonce_odr unnamed_addr constant [34 x i8] c"\01gdb_load_rust_pretty_printers.py\00", section ".debug_gdb_scripts", align 1

; <core::iter::adapters::map::Map<I,F> as core::iter::traits::iterator::Iterator>::next
; Function Attrs: inlinehint noredzone nounwind
define internal align 8 ptr @"_ZN102_$LT$core..iter..adapters..map..Map$LT$I$C$F$GT$$u20$as$u20$core..iter..traits..iterator..Iterator$GT$4next17h9bdae38c416b4105E"(ptr align 8 %self) unnamed_addr #0 !dbg !1027 {
start:
  %self.dbg.spill = alloca ptr, align 8
  store ptr %self, ptr %self.dbg.spill, align 8
  call void @llvm.dbg.declare(metadata ptr %self.dbg.spill, metadata !1083, metadata !DIExpression()), !dbg !1086
  %_3 = getelementptr inbounds %"core::iter::adapters::map::Map<core::ops::range::Range<usize>, {closure@x86_64::structures::paging::page_table::PageTable::iter::{closure#0}}>", ptr %self, i32 0, i32 1, !dbg !1087
; call core::iter::range::<impl core::iter::traits::iterator::Iterator for core::ops::range::Range<A>>::next
  %0 = call { i64, i64 } @"_ZN4core4iter5range101_$LT$impl$u20$core..iter..traits..iterator..Iterator$u20$for$u20$core..ops..range..Range$LT$A$GT$$GT$4next17ha580437e2b71c010E"(ptr align 8 %_3) #9, !dbg !1087
  %_2.0 = extractvalue { i64, i64 } %0, 0, !dbg !1087
  %_2.1 = extractvalue { i64, i64 } %0, 1, !dbg !1087
; call core::option::Option<T>::map
  %_0 = call align 8 ptr @"_ZN4core6option15Option$LT$T$GT$3map17h7c90101ad603b515E"(i64 %_2.0, i64 %_2.1, ptr align 8 %self) #9, !dbg !1087
  ret ptr %_0, !dbg !1088
}

; <x86_64::structures::idt::InterruptDescriptorTable as core::ops::index::IndexMut<usize>>::index_mut
; Function Attrs: inlinehint noredzone nounwind
define internal align 4 ptr @"_ZN109_$LT$x86_64..structures..idt..InterruptDescriptorTable$u20$as$u20$core..ops..index..IndexMut$LT$usize$GT$$GT$9index_mut17hade7b6830a6e754eE"(ptr align 16 %self, i64 %index, ptr align 8 %0) unnamed_addr #0 !dbg !1089 {
start:
  %f.dbg.spill.i21 = alloca ptr, align 8
  %x.dbg.spill.i22 = alloca ptr, align 8
  %_0.i23 = alloca %"core::fmt::rt::Argument<'_>", align 8
  %f.dbg.spill.i18 = alloca ptr, align 8
  %x.dbg.spill.i19 = alloca ptr, align 8
  %_0.i20 = alloca %"core::fmt::rt::Argument<'_>", align 8
  %f.dbg.spill.i15 = alloca ptr, align 8
  %x.dbg.spill.i16 = alloca ptr, align 8
  %_0.i17 = alloca %"core::fmt::rt::Argument<'_>", align 8
  %f.dbg.spill.i = alloca ptr, align 8
  %x.dbg.spill.i14 = alloca ptr, align 8
  %_0.i = alloca %"core::fmt::rt::Argument<'_>", align 8
  %x.dbg.spill.i11 = alloca ptr, align 8
  %x.dbg.spill.i8 = alloca ptr, align 8
  %x.dbg.spill.i5 = alloca ptr, align 8
  %x.dbg.spill.i = alloca ptr, align 8
  %index.dbg.spill = alloca i64, align 8
  %self.dbg.spill = alloca ptr, align 8
  %_61 = alloca [1 x %"core::fmt::rt::Argument<'_>"], align 8
  %_57 = alloca %"core::fmt::Arguments<'_>", align 8
  %i3 = alloca i64, align 8
  %_52 = alloca [1 x %"core::fmt::rt::Argument<'_>"], align 8
  %_48 = alloca %"core::fmt::Arguments<'_>", align 8
  %i2 = alloca i64, align 8
  %_43 = alloca [1 x %"core::fmt::rt::Argument<'_>"], align 8
  %_39 = alloca %"core::fmt::Arguments<'_>", align 8
  %i1 = alloca i64, align 8
  %_34 = alloca [1 x %"core::fmt::rt::Argument<'_>"], align 8
  %_30 = alloca %"core::fmt::Arguments<'_>", align 8
  %i = alloca i64, align 8
  %_3 = alloca ptr, align 8
  store ptr %self, ptr %self.dbg.spill, align 8
  call void @llvm.dbg.declare(metadata ptr %self.dbg.spill, metadata !1097, metadata !DIExpression()), !dbg !1109
  store i64 %index, ptr %index.dbg.spill, align 8
  call void @llvm.dbg.declare(metadata ptr %index.dbg.spill, metadata !1098, metadata !DIExpression()), !dbg !1110
  call void @llvm.dbg.declare(metadata ptr %index.dbg.spill, metadata !1099, metadata !DIExpression()), !dbg !1111
  call void @llvm.dbg.declare(metadata ptr %i, metadata !1101, metadata !DIExpression()), !dbg !1112
  call void @llvm.dbg.declare(metadata ptr %i1, metadata !1103, metadata !DIExpression()), !dbg !1113
  call void @llvm.dbg.declare(metadata ptr %i2, metadata !1105, metadata !DIExpression()), !dbg !1114
  call void @llvm.dbg.declare(metadata ptr %i3, metadata !1107, metadata !DIExpression()), !dbg !1115
  switch i64 %index, label %bb1 [
    i64 0, label %bb11
    i64 1, label %bb12
    i64 2, label %bb13
    i64 3, label %bb14
    i64 4, label %bb15
    i64 5, label %bb16
    i64 6, label %bb17
    i64 7, label %bb18
    i64 9, label %bb19
    i64 16, label %bb20
    i64 19, label %bb21
    i64 20, label %bb22
    i64 28, label %bb23
    i64 15, label %bb27
    i64 31, label %bb28
    i64 8, label %bb32
    i64 17, label %bb33
    i64 21, label %bb34
    i64 29, label %bb35
    i64 30, label %bb36
    i64 18, label %bb39
  ], !dbg !1116

bb1:                                              ; preds = %start
  %_8 = icmp ule i64 32, %index, !dbg !1117
  br i1 %_8, label %bb10, label %bb3, !dbg !1117

bb11:                                             ; preds = %start
  store ptr %self, ptr %_3, align 8, !dbg !1118
  br label %bb44, !dbg !1119

bb12:                                             ; preds = %start
  %_11 = getelementptr inbounds %"x86_64::structures::idt::InterruptDescriptorTable", ptr %self, i32 0, i32 1, !dbg !1120
  store ptr %_11, ptr %_3, align 8, !dbg !1120
  br label %bb44, !dbg !1121

bb13:                                             ; preds = %start
  %_12 = getelementptr inbounds %"x86_64::structures::idt::InterruptDescriptorTable", ptr %self, i32 0, i32 2, !dbg !1122
  store ptr %_12, ptr %_3, align 8, !dbg !1122
  br label %bb44, !dbg !1123

bb14:                                             ; preds = %start
  %_13 = getelementptr inbounds %"x86_64::structures::idt::InterruptDescriptorTable", ptr %self, i32 0, i32 3, !dbg !1124
  store ptr %_13, ptr %_3, align 8, !dbg !1124
  br label %bb44, !dbg !1125

bb15:                                             ; preds = %start
  %_14 = getelementptr inbounds %"x86_64::structures::idt::InterruptDescriptorTable", ptr %self, i32 0, i32 4, !dbg !1126
  store ptr %_14, ptr %_3, align 8, !dbg !1126
  br label %bb44, !dbg !1127

bb16:                                             ; preds = %start
  %_15 = getelementptr inbounds %"x86_64::structures::idt::InterruptDescriptorTable", ptr %self, i32 0, i32 5, !dbg !1128
  store ptr %_15, ptr %_3, align 8, !dbg !1128
  br label %bb44, !dbg !1129

bb17:                                             ; preds = %start
  %_16 = getelementptr inbounds %"x86_64::structures::idt::InterruptDescriptorTable", ptr %self, i32 0, i32 6, !dbg !1130
  store ptr %_16, ptr %_3, align 8, !dbg !1130
  br label %bb44, !dbg !1131

bb18:                                             ; preds = %start
  %_17 = getelementptr inbounds %"x86_64::structures::idt::InterruptDescriptorTable", ptr %self, i32 0, i32 7, !dbg !1132
  store ptr %_17, ptr %_3, align 8, !dbg !1132
  br label %bb44, !dbg !1133

bb19:                                             ; preds = %start
  %_18 = getelementptr inbounds %"x86_64::structures::idt::InterruptDescriptorTable", ptr %self, i32 0, i32 9, !dbg !1134
  store ptr %_18, ptr %_3, align 8, !dbg !1134
  br label %bb44, !dbg !1135

bb20:                                             ; preds = %start
  %_19 = getelementptr inbounds %"x86_64::structures::idt::InterruptDescriptorTable", ptr %self, i32 0, i32 16, !dbg !1136
  store ptr %_19, ptr %_3, align 8, !dbg !1136
  br label %bb44, !dbg !1137

bb21:                                             ; preds = %start
  %_20 = getelementptr inbounds %"x86_64::structures::idt::InterruptDescriptorTable", ptr %self, i32 0, i32 19, !dbg !1138
  store ptr %_20, ptr %_3, align 8, !dbg !1138
  br label %bb44, !dbg !1139

bb22:                                             ; preds = %start
  %_21 = getelementptr inbounds %"x86_64::structures::idt::InterruptDescriptorTable", ptr %self, i32 0, i32 20, !dbg !1140
  store ptr %_21, ptr %_3, align 8, !dbg !1140
  br label %bb44, !dbg !1141

bb23:                                             ; preds = %start
  %_22 = getelementptr inbounds %"x86_64::structures::idt::InterruptDescriptorTable", ptr %self, i32 0, i32 23, !dbg !1142
  store ptr %_22, ptr %_3, align 8, !dbg !1142
  br label %bb44, !dbg !1143

bb27:                                             ; preds = %start
  store i64 %index, ptr %i, align 8, !dbg !1144
  br label %bb26, !dbg !1116

bb28:                                             ; preds = %start
  store i64 %index, ptr %i, align 8, !dbg !1145
  br label %bb26, !dbg !1116

bb32:                                             ; preds = %start
  store i64 %index, ptr %i1, align 8, !dbg !1146
  br label %bb31, !dbg !1116

bb33:                                             ; preds = %start
  store i64 %index, ptr %i1, align 8, !dbg !1147
  br label %bb31, !dbg !1116

bb34:                                             ; preds = %start
  store i64 %index, ptr %i1, align 8, !dbg !1148
  br label %bb31, !dbg !1116

bb35:                                             ; preds = %start
  store i64 %index, ptr %i1, align 8, !dbg !1149
  br label %bb31, !dbg !1116

bb36:                                             ; preds = %start
  store i64 %index, ptr %i1, align 8, !dbg !1150
  br label %bb31, !dbg !1116

bb39:                                             ; preds = %start
  store i64 %index, ptr %i2, align 8, !dbg !1151
  store ptr %i2, ptr %x.dbg.spill.i11, align 8
  call void @llvm.dbg.declare(metadata ptr %x.dbg.spill.i11, metadata !1152, metadata !DIExpression()), !dbg !1160
  store ptr %i2, ptr %x.dbg.spill.i14, align 8
  call void @llvm.dbg.declare(metadata ptr %x.dbg.spill.i14, metadata !1162, metadata !DIExpression()), !dbg !1172
  store ptr @"_ZN4core3fmt3num3imp54_$LT$impl$u20$core..fmt..Display$u20$for$u20$usize$GT$3fmt17h80a10afcf66c16d6E", ptr %f.dbg.spill.i, align 8
  call void @llvm.dbg.declare(metadata ptr %f.dbg.spill.i, metadata !1171, metadata !DIExpression()), !dbg !1174
  store ptr %i2, ptr %_0.i, align 8, !dbg !1175
  %1 = getelementptr inbounds i8, ptr %_0.i, i64 8, !dbg !1175
  store ptr @"_ZN4core3fmt3num3imp54_$LT$impl$u20$core..fmt..Display$u20$for$u20$usize$GT$3fmt17h80a10afcf66c16d6E", ptr %1, align 8, !dbg !1175
  %2 = load ptr, ptr %_0.i, align 8, !dbg !1176, !nonnull !29, !align !1177, !noundef !29
  %3 = getelementptr inbounds i8, ptr %_0.i, i64 8, !dbg !1176
  %4 = load ptr, ptr %3, align 8, !dbg !1176, !nonnull !29, !noundef !29
  %5 = insertvalue { ptr, ptr } poison, ptr %2, 0, !dbg !1176
  %6 = insertvalue { ptr, ptr } %5, ptr %4, 1, !dbg !1176
  %_0.0.i12 = extractvalue { ptr, ptr } %6, 0, !dbg !1178
  %_0.1.i13 = extractvalue { ptr, ptr } %6, 1, !dbg !1178
  %_53.0 = extractvalue { ptr, ptr } %6, 0, !dbg !1179
  %_53.1 = extractvalue { ptr, ptr } %6, 1, !dbg !1179
  %7 = getelementptr inbounds [1 x %"core::fmt::rt::Argument<'_>"], ptr %_52, i64 0, i64 0, !dbg !1179
  store ptr %_53.0, ptr %7, align 8, !dbg !1179
  %8 = getelementptr inbounds i8, ptr %7, i64 8, !dbg !1179
  store ptr %_53.1, ptr %8, align 8, !dbg !1179
; call core::fmt::Arguments::new_v1
  call void @_ZN4core3fmt9Arguments6new_v117ha494606c5fd7a7a7E(ptr sret(%"core::fmt::Arguments<'_>") align 8 %_48, ptr align 8 @alloc_362de21a3b2781033660bc1868b9ea1e, i64 2, ptr align 8 %_52, i64 1) #9, !dbg !1179
; call core::panicking::panic_fmt
  call void @_ZN4core9panicking9panic_fmt17ha5e30ccfbdd0aed8E(ptr align 8 %_48, ptr align 8 %0) #11, !dbg !1179
  unreachable, !dbg !1179

bb44:                                             ; preds = %bb25, %bb23, %bb22, %bb21, %bb20, %bb19, %bb18, %bb17, %bb16, %bb15, %bb14, %bb13, %bb12, %bb11
  %_0 = load ptr, ptr %_3, align 8, !dbg !1116, !nonnull !29, !align !1180, !noundef !29
  ret ptr %_0, !dbg !1181

bb26:                                             ; preds = %bb4, %bb28, %bb27
  store ptr %i, ptr %x.dbg.spill.i, align 8
  call void @llvm.dbg.declare(metadata ptr %x.dbg.spill.i, metadata !1152, metadata !DIExpression()), !dbg !1182
  store ptr %i, ptr %x.dbg.spill.i22, align 8
  call void @llvm.dbg.declare(metadata ptr %x.dbg.spill.i22, metadata !1162, metadata !DIExpression()), !dbg !1184
  store ptr @"_ZN4core3fmt3num3imp54_$LT$impl$u20$core..fmt..Display$u20$for$u20$usize$GT$3fmt17h80a10afcf66c16d6E", ptr %f.dbg.spill.i21, align 8
  call void @llvm.dbg.declare(metadata ptr %f.dbg.spill.i21, metadata !1171, metadata !DIExpression()), !dbg !1186
  store ptr %i, ptr %_0.i23, align 8, !dbg !1187
  %9 = getelementptr inbounds i8, ptr %_0.i23, i64 8, !dbg !1187
  store ptr @"_ZN4core3fmt3num3imp54_$LT$impl$u20$core..fmt..Display$u20$for$u20$usize$GT$3fmt17h80a10afcf66c16d6E", ptr %9, align 8, !dbg !1187
  %10 = load ptr, ptr %_0.i23, align 8, !dbg !1188, !nonnull !29, !align !1177, !noundef !29
  %11 = getelementptr inbounds i8, ptr %_0.i23, i64 8, !dbg !1188
  %12 = load ptr, ptr %11, align 8, !dbg !1188, !nonnull !29, !noundef !29
  %13 = insertvalue { ptr, ptr } poison, ptr %10, 0, !dbg !1188
  %14 = insertvalue { ptr, ptr } %13, ptr %12, 1, !dbg !1188
  %_0.0.i = extractvalue { ptr, ptr } %14, 0, !dbg !1189
  %_0.1.i = extractvalue { ptr, ptr } %14, 1, !dbg !1189
  %_35.0 = extractvalue { ptr, ptr } %14, 0, !dbg !1190
  %_35.1 = extractvalue { ptr, ptr } %14, 1, !dbg !1190
  %15 = getelementptr inbounds [1 x %"core::fmt::rt::Argument<'_>"], ptr %_34, i64 0, i64 0, !dbg !1190
  store ptr %_35.0, ptr %15, align 8, !dbg !1190
  %16 = getelementptr inbounds i8, ptr %15, i64 8, !dbg !1190
  store ptr %_35.1, ptr %16, align 8, !dbg !1190
; call core::fmt::Arguments::new_v1
  call void @_ZN4core3fmt9Arguments6new_v117ha494606c5fd7a7a7E(ptr sret(%"core::fmt::Arguments<'_>") align 8 %_30, ptr align 8 @alloc_d17f5c2ab765710fed33d58538e5bbab, i64 2, ptr align 8 %_34, i64 1) #9, !dbg !1190
; call core::panicking::panic_fmt
  call void @_ZN4core9panicking9panic_fmt17ha5e30ccfbdd0aed8E(ptr align 8 %_30, ptr align 8 %0) #11, !dbg !1190
  unreachable, !dbg !1190

bb31:                                             ; preds = %bb6, %bb36, %bb35, %bb34, %bb33, %bb32
  store ptr %i1, ptr %x.dbg.spill.i5, align 8
  call void @llvm.dbg.declare(metadata ptr %x.dbg.spill.i5, metadata !1152, metadata !DIExpression()), !dbg !1191
  store ptr %i1, ptr %x.dbg.spill.i19, align 8
  call void @llvm.dbg.declare(metadata ptr %x.dbg.spill.i19, metadata !1162, metadata !DIExpression()), !dbg !1193
  store ptr @"_ZN4core3fmt3num3imp54_$LT$impl$u20$core..fmt..Display$u20$for$u20$usize$GT$3fmt17h80a10afcf66c16d6E", ptr %f.dbg.spill.i18, align 8
  call void @llvm.dbg.declare(metadata ptr %f.dbg.spill.i18, metadata !1171, metadata !DIExpression()), !dbg !1195
  store ptr %i1, ptr %_0.i20, align 8, !dbg !1196
  %17 = getelementptr inbounds i8, ptr %_0.i20, i64 8, !dbg !1196
  store ptr @"_ZN4core3fmt3num3imp54_$LT$impl$u20$core..fmt..Display$u20$for$u20$usize$GT$3fmt17h80a10afcf66c16d6E", ptr %17, align 8, !dbg !1196
  %18 = load ptr, ptr %_0.i20, align 8, !dbg !1197, !nonnull !29, !align !1177, !noundef !29
  %19 = getelementptr inbounds i8, ptr %_0.i20, i64 8, !dbg !1197
  %20 = load ptr, ptr %19, align 8, !dbg !1197, !nonnull !29, !noundef !29
  %21 = insertvalue { ptr, ptr } poison, ptr %18, 0, !dbg !1197
  %22 = insertvalue { ptr, ptr } %21, ptr %20, 1, !dbg !1197
  %_0.0.i6 = extractvalue { ptr, ptr } %22, 0, !dbg !1198
  %_0.1.i7 = extractvalue { ptr, ptr } %22, 1, !dbg !1198
  %_44.0 = extractvalue { ptr, ptr } %22, 0, !dbg !1199
  %_44.1 = extractvalue { ptr, ptr } %22, 1, !dbg !1199
  %23 = getelementptr inbounds [1 x %"core::fmt::rt::Argument<'_>"], ptr %_43, i64 0, i64 0, !dbg !1199
  store ptr %_44.0, ptr %23, align 8, !dbg !1199
  %24 = getelementptr inbounds i8, ptr %23, i64 8, !dbg !1199
  store ptr %_44.1, ptr %24, align 8, !dbg !1199
; call core::fmt::Arguments::new_v1
  call void @_ZN4core3fmt9Arguments6new_v117ha494606c5fd7a7a7E(ptr sret(%"core::fmt::Arguments<'_>") align 8 %_39, ptr align 8 @alloc_7f336354b9c7f960a1b1b29efe6dd878, i64 2, ptr align 8 %_43, i64 1) #9, !dbg !1199
; call core::panicking::panic_fmt
  call void @_ZN4core9panicking9panic_fmt17ha5e30ccfbdd0aed8E(ptr align 8 %_39, ptr align 8 %0) #11, !dbg !1199
  unreachable, !dbg !1199

bb3:                                              ; preds = %bb10, %bb1
  %_6 = icmp ule i64 22, %index, !dbg !1200
  br i1 %_6, label %bb9, label %bb5, !dbg !1200

bb10:                                             ; preds = %bb1
  %_9 = icmp ule i64 %index, 255, !dbg !1117
  br i1 %_9, label %bb2, label %bb3, !dbg !1117

bb2:                                              ; preds = %bb10
  %_25.0 = sub i64 %index, 32, !dbg !1201
  %_25.1 = icmp ult i64 %index, 32, !dbg !1201
  %25 = call i1 @llvm.expect.i1(i1 %_25.1, i1 false), !dbg !1201
  br i1 %25, label %panic, label %bb24, !dbg !1201

bb5:                                              ; preds = %bb9, %bb3
  %_4 = icmp ule i64 10, %index, !dbg !1202
  br i1 %_4, label %bb8, label %bb7, !dbg !1202

bb9:                                              ; preds = %bb3
  %_7 = icmp ule i64 %index, 27, !dbg !1200
  br i1 %_7, label %bb4, label %bb5, !dbg !1200

bb4:                                              ; preds = %bb9
  store i64 %index, ptr %i, align 8, !dbg !1203
  br label %bb26, !dbg !1116

bb7:                                              ; preds = %bb8, %bb5
  store i64 %index, ptr %i3, align 8, !dbg !1204
  store ptr %i3, ptr %x.dbg.spill.i8, align 8
  call void @llvm.dbg.declare(metadata ptr %x.dbg.spill.i8, metadata !1152, metadata !DIExpression()), !dbg !1205
  store ptr %i3, ptr %x.dbg.spill.i16, align 8
  call void @llvm.dbg.declare(metadata ptr %x.dbg.spill.i16, metadata !1162, metadata !DIExpression()), !dbg !1207
  store ptr @"_ZN4core3fmt3num3imp54_$LT$impl$u20$core..fmt..Display$u20$for$u20$usize$GT$3fmt17h80a10afcf66c16d6E", ptr %f.dbg.spill.i15, align 8
  call void @llvm.dbg.declare(metadata ptr %f.dbg.spill.i15, metadata !1171, metadata !DIExpression()), !dbg !1209
  store ptr %i3, ptr %_0.i17, align 8, !dbg !1210
  %26 = getelementptr inbounds i8, ptr %_0.i17, i64 8, !dbg !1210
  store ptr @"_ZN4core3fmt3num3imp54_$LT$impl$u20$core..fmt..Display$u20$for$u20$usize$GT$3fmt17h80a10afcf66c16d6E", ptr %26, align 8, !dbg !1210
  %27 = load ptr, ptr %_0.i17, align 8, !dbg !1211, !nonnull !29, !align !1177, !noundef !29
  %28 = getelementptr inbounds i8, ptr %_0.i17, i64 8, !dbg !1211
  %29 = load ptr, ptr %28, align 8, !dbg !1211, !nonnull !29, !noundef !29
  %30 = insertvalue { ptr, ptr } poison, ptr %27, 0, !dbg !1211
  %31 = insertvalue { ptr, ptr } %30, ptr %29, 1, !dbg !1211
  %_0.0.i9 = extractvalue { ptr, ptr } %31, 0, !dbg !1212
  %_0.1.i10 = extractvalue { ptr, ptr } %31, 1, !dbg !1212
  %_62.0 = extractvalue { ptr, ptr } %31, 0, !dbg !1213
  %_62.1 = extractvalue { ptr, ptr } %31, 1, !dbg !1213
  %32 = getelementptr inbounds [1 x %"core::fmt::rt::Argument<'_>"], ptr %_61, i64 0, i64 0, !dbg !1213
  store ptr %_62.0, ptr %32, align 8, !dbg !1213
  %33 = getelementptr inbounds i8, ptr %32, i64 8, !dbg !1213
  store ptr %_62.1, ptr %33, align 8, !dbg !1213
; call core::fmt::Arguments::new_v1
  call void @_ZN4core3fmt9Arguments6new_v117ha494606c5fd7a7a7E(ptr sret(%"core::fmt::Arguments<'_>") align 8 %_57, ptr align 8 @alloc_f7251b02c1cd4a8e77f6d028b4651e6c, i64 1, ptr align 8 %_61, i64 1) #9, !dbg !1213
; call core::panicking::panic_fmt
  call void @_ZN4core9panicking9panic_fmt17ha5e30ccfbdd0aed8E(ptr align 8 %_57, ptr align 8 %0) #11, !dbg !1213
  unreachable, !dbg !1213

bb8:                                              ; preds = %bb5
  %_5 = icmp ule i64 %index, 14, !dbg !1202
  br i1 %_5, label %bb6, label %bb7, !dbg !1202

bb6:                                              ; preds = %bb8
  store i64 %index, ptr %i1, align 8, !dbg !1214
  br label %bb31, !dbg !1116

bb24:                                             ; preds = %bb2
  %_27 = icmp ult i64 %_25.0, 224, !dbg !1215
  %34 = call i1 @llvm.expect.i1(i1 %_27, i1 true), !dbg !1215
  br i1 %34, label %bb25, label %panic4, !dbg !1215

panic:                                            ; preds = %bb2
; call core::panicking::panic
  call void @_ZN4core9panicking5panic17h6f817e467d9b8599E(ptr align 1 @str.0, i64 33, ptr align 8 %0) #11, !dbg !1201
  unreachable, !dbg !1201

bb25:                                             ; preds = %bb24
  %35 = getelementptr inbounds %"x86_64::structures::idt::InterruptDescriptorTable", ptr %self, i32 0, i32 27, !dbg !1216
  %_23 = getelementptr inbounds [224 x %"x86_64::structures::idt::Entry<extern \22x86-interrupt\22 fn(x86_64::structures::idt::InterruptStackFrame)>"], ptr %35, i64 0, i64 %_25.0, !dbg !1216
  store ptr %_23, ptr %_3, align 8, !dbg !1216
  br label %bb44, !dbg !1217

panic4:                                           ; preds = %bb24
; call core::panicking::panic_bounds_check
  call void @_ZN4core9panicking18panic_bounds_check17h202556bd4b07cb18E(i64 %_25.0, i64 224, ptr align 8 %0) #11, !dbg !1215
  unreachable, !dbg !1215
}

; <core::iter::adapters::enumerate::Enumerate<I> as core::iter::traits::iterator::Iterator>::next
; Function Attrs: inlinehint noredzone nounwind
define internal { i64, ptr } @"_ZN110_$LT$core..iter..adapters..enumerate..Enumerate$LT$I$GT$$u20$as$u20$core..iter..traits..iterator..Iterator$GT$4next17heec7ef0650f6bcb5E"(ptr align 8 %self) unnamed_addr #0 !dbg !1218 {
start:
  %i.dbg.spill = alloca i64, align 8
  %a.dbg.spill = alloca ptr, align 8
  %self.dbg.spill = alloca ptr, align 8
  %_9 = alloca { i64, ptr }, align 8
  %_2 = alloca ptr, align 8
  %_0 = alloca %"core::option::Option<(usize, &x86_64::structures::paging::page_table::PageTableEntry)>", align 8
  %residual.dbg.spill = alloca %"core::option::Option<core::convert::Infallible>::None", align 1
  call void @llvm.dbg.declare(metadata ptr %residual.dbg.spill, metadata !1252, metadata !DIExpression()), !dbg !1274
  store ptr %self, ptr %self.dbg.spill, align 8, !dbg !1274
  call void @llvm.dbg.declare(metadata ptr %self.dbg.spill, metadata !1249, metadata !DIExpression()), !dbg !1275
; call <core::iter::adapters::map::Map<I,F> as core::iter::traits::iterator::Iterator>::next
  %_3 = call align 8 ptr @"_ZN102_$LT$core..iter..adapters..map..Map$LT$I$C$F$GT$$u20$as$u20$core..iter..traits..iterator..Iterator$GT$4next17h9bdae38c416b4105E"(ptr align 8 %self) #9, !dbg !1276
; call <core::option::Option<T> as core::ops::try_trait::Try>::branch
  %0 = call align 8 ptr @"_ZN75_$LT$core..option..Option$LT$T$GT$$u20$as$u20$core..ops..try_trait..Try$GT$6branch17h9f963f71818d6059E"(ptr align 8 %_3) #9, !dbg !1276
  store ptr %0, ptr %_2, align 8, !dbg !1276
  %1 = load ptr, ptr %_2, align 8, !dbg !1276, !noundef !29
  %2 = ptrtoint ptr %1 to i64, !dbg !1276
  %3 = icmp eq i64 %2, 0, !dbg !1276
  %_5 = select i1 %3, i64 1, i64 0, !dbg !1276
  %4 = icmp eq i64 %_5, 0, !dbg !1276
  br i1 %4, label %bb3, label %bb5, !dbg !1276

bb3:                                              ; preds = %start
  %a = load ptr, ptr %_2, align 8, !dbg !1276, !nonnull !29, !align !1277, !noundef !29
  store ptr %a, ptr %a.dbg.spill, align 8, !dbg !1276
  call void @llvm.dbg.declare(metadata ptr %a.dbg.spill, metadata !1250, metadata !DIExpression()), !dbg !1278
  call void @llvm.dbg.declare(metadata ptr %a.dbg.spill, metadata !1270, metadata !DIExpression()), !dbg !1279
  %5 = getelementptr inbounds %"core::iter::adapters::enumerate::Enumerate<core::iter::adapters::map::Map<core::ops::range::Range<usize>, {closure@x86_64::structures::paging::page_table::PageTable::iter::{closure#0}}>>", ptr %self, i32 0, i32 1, !dbg !1280
  %i = load i64, ptr %5, align 8, !dbg !1280, !noundef !29
  store i64 %i, ptr %i.dbg.spill, align 8, !dbg !1280
  call void @llvm.dbg.declare(metadata ptr %i.dbg.spill, metadata !1272, metadata !DIExpression()), !dbg !1281
  %6 = getelementptr inbounds %"core::iter::adapters::enumerate::Enumerate<core::iter::adapters::map::Map<core::ops::range::Range<usize>, {closure@x86_64::structures::paging::page_table::PageTable::iter::{closure#0}}>>", ptr %self, i32 0, i32 1, !dbg !1282
  %7 = load i64, ptr %6, align 8, !dbg !1282, !noundef !29
  %8 = call { i64, i1 } @llvm.uadd.with.overflow.i64(i64 %7, i64 1), !dbg !1282
  %_8.0 = extractvalue { i64, i1 } %8, 0, !dbg !1282
  %_8.1 = extractvalue { i64, i1 } %8, 1, !dbg !1282
  %9 = call i1 @llvm.expect.i1(i1 %_8.1, i1 false), !dbg !1282
  br i1 %9, label %panic, label %bb6, !dbg !1282

bb5:                                              ; preds = %start
; call <core::option::Option<T> as core::ops::try_trait::FromResidual>::from_residual
  %10 = call { i64, ptr } @"_ZN84_$LT$core..option..Option$LT$T$GT$$u20$as$u20$core..ops..try_trait..FromResidual$GT$13from_residual17h19976875d83c735fE"() #9, !dbg !1283
  %11 = extractvalue { i64, ptr } %10, 0, !dbg !1283
  %12 = extractvalue { i64, ptr } %10, 1, !dbg !1283
  store i64 %11, ptr %_0, align 8, !dbg !1283
  %13 = getelementptr inbounds i8, ptr %_0, i64 8, !dbg !1283
  store ptr %12, ptr %13, align 8, !dbg !1283
  br label %bb7, !dbg !1283

bb6:                                              ; preds = %bb3
  %14 = getelementptr inbounds %"core::iter::adapters::enumerate::Enumerate<core::iter::adapters::map::Map<core::ops::range::Range<usize>, {closure@x86_64::structures::paging::page_table::PageTable::iter::{closure#0}}>>", ptr %self, i32 0, i32 1, !dbg !1282
  store i64 %_8.0, ptr %14, align 8, !dbg !1282
  store i64 %i, ptr %_9, align 8, !dbg !1284
  %15 = getelementptr inbounds i8, ptr %_9, i64 8, !dbg !1284
  store ptr %a, ptr %15, align 8, !dbg !1284
  %16 = load i64, ptr %_9, align 8, !dbg !1285, !noundef !29
  %17 = getelementptr inbounds i8, ptr %_9, i64 8, !dbg !1285
  %18 = load ptr, ptr %17, align 8, !dbg !1285, !nonnull !29, !align !1277, !noundef !29
  store i64 %16, ptr %_0, align 8, !dbg !1285
  %19 = getelementptr inbounds i8, ptr %_0, i64 8, !dbg !1285
  store ptr %18, ptr %19, align 8, !dbg !1285
  br label %bb7, !dbg !1286

panic:                                            ; preds = %bb3
; call core::panicking::panic
  call void @_ZN4core9panicking5panic17h6f817e467d9b8599E(ptr align 1 @str.1, i64 28, ptr align 8 @alloc_cac8d3c25a55e6f9ece85c24c6eacbf5) #11, !dbg !1282
  unreachable, !dbg !1282

bb7:                                              ; preds = %bb5, %bb6
  %20 = load i64, ptr %_0, align 8, !dbg !1286
  %21 = getelementptr inbounds i8, ptr %_0, i64 8, !dbg !1286
  %22 = load ptr, ptr %21, align 8, !dbg !1286, !align !1277, !noundef !29
  %23 = insertvalue { i64, ptr } poison, i64 %20, 0, !dbg !1286
  %24 = insertvalue { i64, ptr } %23, ptr %22, 1, !dbg !1286
  ret { i64, ptr } %24, !dbg !1286

bb4:                                              ; No predecessors!
  unreachable, !dbg !1276
}

; pc_keyboard::EventDecoder<L>::process_keyevent
; Function Attrs: noredzone nounwind
define internal i64 @"_ZN11pc_keyboard21EventDecoder$LT$L$GT$16process_keyevent17h8f617fe1a7f739eeE"(ptr align 1 %self, i8 %0, i8 %1) unnamed_addr #1 !dbg !1287 {
start:
  %2 = alloca i64, align 8
  %c.dbg.spill = alloca i8, align 1
  %self.dbg.spill = alloca ptr, align 8
  %_35 = alloca %"pc_keyboard::DecodedKey", align 4
  %_33 = alloca i8, align 1
  %_32 = alloca %"pc_keyboard::DecodedKey", align 4
  %_31 = alloca i8, align 1
  %_30 = alloca %"pc_keyboard::DecodedKey", align 4
  %_29 = alloca i8, align 1
  %_28 = alloca %"pc_keyboard::DecodedKey", align 4
  %_27 = alloca i8, align 1
  %_26 = alloca %"pc_keyboard::DecodedKey", align 4
  %_25 = alloca i8, align 1
  %_24 = alloca %"pc_keyboard::DecodedKey", align 4
  %_22 = alloca i8, align 1
  %_21 = alloca %"pc_keyboard::DecodedKey", align 4
  %_19 = alloca i8, align 1
  %_18 = alloca %"pc_keyboard::DecodedKey", align 4
  %_16 = alloca i8, align 1
  %_15 = alloca %"pc_keyboard::DecodedKey", align 4
  %_14 = alloca i8, align 1
  %_13 = alloca %"pc_keyboard::DecodedKey", align 4
  %_0 = alloca %"core::option::Option<pc_keyboard::DecodedKey>", align 4
  %ev = alloca %"pc_keyboard::KeyEvent", align 1
  store i8 %0, ptr %ev, align 1
  %3 = getelementptr inbounds i8, ptr %ev, i64 1
  store i8 %1, ptr %3, align 1
  store ptr %self, ptr %self.dbg.spill, align 8
  call void @llvm.dbg.declare(metadata ptr %self.dbg.spill, metadata !1324, metadata !DIExpression()), !dbg !1328
  call void @llvm.dbg.declare(metadata ptr %ev, metadata !1325, metadata !DIExpression()), !dbg !1329
  %4 = getelementptr inbounds i8, ptr %ev, i64 1, !dbg !1330
  %_12 = load i8, ptr %4, align 1, !dbg !1330, !range !1331, !noundef !29
  switch i8 %_12, label %bb1 [
    i8 34, label %bb2
    i8 60, label %bb3
    i8 76, label %bb4
    i8 87, label %bb5
    i8 93, label %bb6
    i8 97, label %bb7
    i8 100, label %bb8
    i8 122, label %bb9
  ], !dbg !1332

bb1:                                              ; preds = %bb9, %bb8, %bb7, %bb6, %bb5, %bb4, %bb3, %bb2, %start
  %5 = load i8, ptr %ev, align 1, !dbg !1330, !range !1333, !noundef !29
  %_11 = zext i8 %5 to i64, !dbg !1330
  %6 = icmp eq i64 %_11, 1, !dbg !1332
  br i1 %6, label %bb27, label %bb10, !dbg !1332

bb2:                                              ; preds = %start
  %7 = load i8, ptr %ev, align 1, !dbg !1330, !range !1333, !noundef !29
  %_3 = zext i8 %7 to i64, !dbg !1330
  %8 = icmp eq i64 %_3, 1, !dbg !1332
  br i1 %8, label %bb16, label %bb1, !dbg !1332

bb3:                                              ; preds = %start
  %9 = load i8, ptr %ev, align 1, !dbg !1330, !range !1333, !noundef !29
  %_4 = zext i8 %9 to i64, !dbg !1330
  %10 = icmp eq i64 %_4, 1, !dbg !1332
  br i1 %10, label %bb15, label %bb1, !dbg !1332

bb4:                                              ; preds = %start
  %11 = load i8, ptr %ev, align 1, !dbg !1330, !range !1333, !noundef !29
  %_5 = zext i8 %11 to i64, !dbg !1330
  switch i64 %_5, label %bb1 [
    i64 0, label %bb13
    i64 1, label %bb11
  ], !dbg !1332

bb5:                                              ; preds = %start
  %12 = load i8, ptr %ev, align 1, !dbg !1330, !range !1333, !noundef !29
  %_6 = zext i8 %12 to i64, !dbg !1330
  switch i64 %_6, label %bb1 [
    i64 0, label %bb14
    i64 1, label %bb12
  ], !dbg !1332

bb6:                                              ; preds = %start
  %13 = load i8, ptr %ev, align 1, !dbg !1330, !range !1333, !noundef !29
  %_7 = zext i8 %13 to i64, !dbg !1330
  switch i64 %_7, label %bb1 [
    i64 0, label %bb20
    i64 1, label %bb19
  ], !dbg !1332

bb7:                                              ; preds = %start
  %14 = load i8, ptr %ev, align 1, !dbg !1330, !range !1333, !noundef !29
  %_8 = zext i8 %14 to i64, !dbg !1330
  switch i64 %_8, label %bb1 [
    i64 0, label %bb24
    i64 1, label %bb23
  ], !dbg !1332

bb8:                                              ; preds = %start
  %15 = load i8, ptr %ev, align 1, !dbg !1330, !range !1333, !noundef !29
  %_9 = zext i8 %15 to i64, !dbg !1330
  switch i64 %_9, label %bb1 [
    i64 0, label %bb22
    i64 1, label %bb21
  ], !dbg !1332

bb9:                                              ; preds = %start
  %16 = load i8, ptr %ev, align 1, !dbg !1330, !range !1333, !noundef !29
  %_10 = zext i8 %16 to i64, !dbg !1330
  switch i64 %_10, label %bb1 [
    i64 0, label %bb26
    i64 1, label %bb25
  ], !dbg !1332

bb16:                                             ; preds = %bb2
  %17 = getelementptr inbounds %"pc_keyboard::EventDecoder<pc_keyboard::layouts::us104::Us104Key>", ptr %self, i32 0, i32 1, !dbg !1334
  %18 = getelementptr inbounds %"pc_keyboard::Modifiers", ptr %17, i32 0, i32 7, !dbg !1334
  %19 = load i8, ptr %18, align 1, !dbg !1334, !range !1335, !noundef !29
  %_20 = trunc i8 %19 to i1, !dbg !1334
  br i1 %_20, label %bb17, label %bb18, !dbg !1334

bb18:                                             ; preds = %bb16
  %20 = getelementptr inbounds %"pc_keyboard::EventDecoder<pc_keyboard::layouts::us104::Us104Key>", ptr %self, i32 0, i32 1, !dbg !1336
  %21 = getelementptr inbounds %"pc_keyboard::Modifiers", ptr %20, i32 0, i32 4, !dbg !1336
  %22 = load i8, ptr %21, align 1, !dbg !1336, !range !1335, !noundef !29
  %_23 = trunc i8 %22 to i1, !dbg !1336
  %23 = getelementptr inbounds %"pc_keyboard::EventDecoder<pc_keyboard::layouts::us104::Us104Key>", ptr %self, i32 0, i32 1, !dbg !1337
  %24 = getelementptr inbounds %"pc_keyboard::Modifiers", ptr %23, i32 0, i32 4, !dbg !1337
  %25 = xor i1 %_23, true, !dbg !1337
  %26 = zext i1 %25 to i8, !dbg !1337
  store i8 %26, ptr %24, align 1, !dbg !1337
  store i8 34, ptr %_25, align 1, !dbg !1338
  %27 = load i8, ptr %_25, align 1, !dbg !1339, !range !1331, !noundef !29
  %28 = getelementptr inbounds %"pc_keyboard::DecodedKey::RawKey", ptr %_24, i32 0, i32 1, !dbg !1339
  store i8 %27, ptr %28, align 1, !dbg !1339
  store i8 0, ptr %_24, align 4, !dbg !1339
  call void @llvm.memcpy.p0.p0.i64(ptr align 4 %_0, ptr align 4 %_24, i64 8, i1 false), !dbg !1340
  br label %bb29, !dbg !1341

bb17:                                             ; preds = %bb16
  store i8 16, ptr %_22, align 1, !dbg !1342
  %29 = load i8, ptr %_22, align 1, !dbg !1343, !range !1331, !noundef !29
  %30 = getelementptr inbounds %"pc_keyboard::DecodedKey::RawKey", ptr %_21, i32 0, i32 1, !dbg !1343
  store i8 %29, ptr %30, align 1, !dbg !1343
  store i8 0, ptr %_21, align 4, !dbg !1343
  call void @llvm.memcpy.p0.p0.i64(ptr align 4 %_0, ptr align 4 %_21, i64 8, i1 false), !dbg !1344
  br label %bb29, !dbg !1341

bb29:                                             ; preds = %bb10, %bb27, %bb25, %bb26, %bb21, %bb22, %bb23, %bb24, %bb19, %bb20, %bb12, %bb14, %bb11, %bb13, %bb15, %bb17, %bb18
  %31 = load i64, ptr %_0, align 4, !dbg !1345
  ret i64 %31, !dbg !1345

bb15:                                             ; preds = %bb3
  %32 = getelementptr inbounds %"pc_keyboard::EventDecoder<pc_keyboard::layouts::us104::Us104Key>", ptr %self, i32 0, i32 1, !dbg !1346
  %33 = getelementptr inbounds %"pc_keyboard::Modifiers", ptr %32, i32 0, i32 5, !dbg !1346
  %34 = load i8, ptr %33, align 1, !dbg !1346, !range !1335, !noundef !29
  %_17 = trunc i8 %34 to i1, !dbg !1346
  %35 = getelementptr inbounds %"pc_keyboard::EventDecoder<pc_keyboard::layouts::us104::Us104Key>", ptr %self, i32 0, i32 1, !dbg !1347
  %36 = getelementptr inbounds %"pc_keyboard::Modifiers", ptr %35, i32 0, i32 5, !dbg !1347
  %37 = xor i1 %_17, true, !dbg !1347
  %38 = zext i1 %37 to i8, !dbg !1347
  store i8 %38, ptr %36, align 1, !dbg !1347
  store i8 60, ptr %_19, align 1, !dbg !1348
  %39 = load i8, ptr %_19, align 1, !dbg !1349, !range !1331, !noundef !29
  %40 = getelementptr inbounds %"pc_keyboard::DecodedKey::RawKey", ptr %_18, i32 0, i32 1, !dbg !1349
  store i8 %39, ptr %40, align 1, !dbg !1349
  store i8 0, ptr %_18, align 4, !dbg !1349
  call void @llvm.memcpy.p0.p0.i64(ptr align 4 %_0, ptr align 4 %_18, i64 8, i1 false), !dbg !1350
  br label %bb29, !dbg !1351

bb13:                                             ; preds = %bb4
  %41 = getelementptr inbounds %"pc_keyboard::EventDecoder<pc_keyboard::layouts::us104::Us104Key>", ptr %self, i32 0, i32 1, !dbg !1352
  store i8 0, ptr %41, align 1, !dbg !1352
  store i8 2, ptr %_0, align 4, !dbg !1353
  br label %bb29, !dbg !1353

bb11:                                             ; preds = %bb4
  %42 = getelementptr inbounds %"pc_keyboard::EventDecoder<pc_keyboard::layouts::us104::Us104Key>", ptr %self, i32 0, i32 1, !dbg !1354
  store i8 1, ptr %42, align 1, !dbg !1354
  store i8 76, ptr %_14, align 1, !dbg !1355
  %43 = load i8, ptr %_14, align 1, !dbg !1356, !range !1331, !noundef !29
  %44 = getelementptr inbounds %"pc_keyboard::DecodedKey::RawKey", ptr %_13, i32 0, i32 1, !dbg !1356
  store i8 %43, ptr %44, align 1, !dbg !1356
  store i8 0, ptr %_13, align 4, !dbg !1356
  call void @llvm.memcpy.p0.p0.i64(ptr align 4 %_0, ptr align 4 %_13, i64 8, i1 false), !dbg !1357
  br label %bb29, !dbg !1358

bb14:                                             ; preds = %bb5
  %45 = getelementptr inbounds %"pc_keyboard::EventDecoder<pc_keyboard::layouts::us104::Us104Key>", ptr %self, i32 0, i32 1, !dbg !1359
  %46 = getelementptr inbounds %"pc_keyboard::Modifiers", ptr %45, i32 0, i32 1, !dbg !1359
  store i8 0, ptr %46, align 1, !dbg !1359
  store i8 2, ptr %_0, align 4, !dbg !1360
  br label %bb29, !dbg !1360

bb12:                                             ; preds = %bb5
  %47 = getelementptr inbounds %"pc_keyboard::EventDecoder<pc_keyboard::layouts::us104::Us104Key>", ptr %self, i32 0, i32 1, !dbg !1361
  %48 = getelementptr inbounds %"pc_keyboard::Modifiers", ptr %47, i32 0, i32 1, !dbg !1361
  store i8 1, ptr %48, align 1, !dbg !1361
  store i8 87, ptr %_16, align 1, !dbg !1362
  %49 = load i8, ptr %_16, align 1, !dbg !1363, !range !1331, !noundef !29
  %50 = getelementptr inbounds %"pc_keyboard::DecodedKey::RawKey", ptr %_15, i32 0, i32 1, !dbg !1363
  store i8 %49, ptr %50, align 1, !dbg !1363
  store i8 0, ptr %_15, align 4, !dbg !1363
  call void @llvm.memcpy.p0.p0.i64(ptr align 4 %_0, ptr align 4 %_15, i64 8, i1 false), !dbg !1364
  br label %bb29, !dbg !1365

bb20:                                             ; preds = %bb6
  %51 = getelementptr inbounds %"pc_keyboard::EventDecoder<pc_keyboard::layouts::us104::Us104Key>", ptr %self, i32 0, i32 1, !dbg !1366
  %52 = getelementptr inbounds %"pc_keyboard::Modifiers", ptr %51, i32 0, i32 2, !dbg !1366
  store i8 0, ptr %52, align 1, !dbg !1366
  store i8 2, ptr %_0, align 4, !dbg !1367
  br label %bb29, !dbg !1367

bb19:                                             ; preds = %bb6
  %53 = getelementptr inbounds %"pc_keyboard::EventDecoder<pc_keyboard::layouts::us104::Us104Key>", ptr %self, i32 0, i32 1, !dbg !1368
  %54 = getelementptr inbounds %"pc_keyboard::Modifiers", ptr %53, i32 0, i32 2, !dbg !1368
  store i8 1, ptr %54, align 1, !dbg !1368
  store i8 93, ptr %_27, align 1, !dbg !1369
  %55 = load i8, ptr %_27, align 1, !dbg !1370, !range !1331, !noundef !29
  %56 = getelementptr inbounds %"pc_keyboard::DecodedKey::RawKey", ptr %_26, i32 0, i32 1, !dbg !1370
  store i8 %55, ptr %56, align 1, !dbg !1370
  store i8 0, ptr %_26, align 4, !dbg !1370
  call void @llvm.memcpy.p0.p0.i64(ptr align 4 %_0, ptr align 4 %_26, i64 8, i1 false), !dbg !1371
  br label %bb29, !dbg !1372

bb24:                                             ; preds = %bb7
  %57 = getelementptr inbounds %"pc_keyboard::EventDecoder<pc_keyboard::layouts::us104::Us104Key>", ptr %self, i32 0, i32 1, !dbg !1373
  %58 = getelementptr inbounds %"pc_keyboard::Modifiers", ptr %57, i32 0, i32 6, !dbg !1373
  store i8 0, ptr %58, align 1, !dbg !1373
  store i8 2, ptr %_0, align 4, !dbg !1374
  br label %bb29, !dbg !1374

bb23:                                             ; preds = %bb7
  %59 = getelementptr inbounds %"pc_keyboard::EventDecoder<pc_keyboard::layouts::us104::Us104Key>", ptr %self, i32 0, i32 1, !dbg !1375
  %60 = getelementptr inbounds %"pc_keyboard::Modifiers", ptr %59, i32 0, i32 6, !dbg !1375
  store i8 1, ptr %60, align 1, !dbg !1375
  store i8 97, ptr %_31, align 1, !dbg !1376
  %61 = load i8, ptr %_31, align 1, !dbg !1377, !range !1331, !noundef !29
  %62 = getelementptr inbounds %"pc_keyboard::DecodedKey::RawKey", ptr %_30, i32 0, i32 1, !dbg !1377
  store i8 %61, ptr %62, align 1, !dbg !1377
  store i8 0, ptr %_30, align 4, !dbg !1377
  call void @llvm.memcpy.p0.p0.i64(ptr align 4 %_0, ptr align 4 %_30, i64 8, i1 false), !dbg !1378
  br label %bb29, !dbg !1379

bb22:                                             ; preds = %bb8
  %63 = getelementptr inbounds %"pc_keyboard::EventDecoder<pc_keyboard::layouts::us104::Us104Key>", ptr %self, i32 0, i32 1, !dbg !1380
  %64 = getelementptr inbounds %"pc_keyboard::Modifiers", ptr %63, i32 0, i32 3, !dbg !1380
  store i8 0, ptr %64, align 1, !dbg !1380
  store i8 2, ptr %_0, align 4, !dbg !1381
  br label %bb29, !dbg !1381

bb21:                                             ; preds = %bb8
  %65 = getelementptr inbounds %"pc_keyboard::EventDecoder<pc_keyboard::layouts::us104::Us104Key>", ptr %self, i32 0, i32 1, !dbg !1382
  %66 = getelementptr inbounds %"pc_keyboard::Modifiers", ptr %65, i32 0, i32 3, !dbg !1382
  store i8 1, ptr %66, align 1, !dbg !1382
  store i8 100, ptr %_29, align 1, !dbg !1383
  %67 = load i8, ptr %_29, align 1, !dbg !1384, !range !1331, !noundef !29
  %68 = getelementptr inbounds %"pc_keyboard::DecodedKey::RawKey", ptr %_28, i32 0, i32 1, !dbg !1384
  store i8 %67, ptr %68, align 1, !dbg !1384
  store i8 0, ptr %_28, align 4, !dbg !1384
  call void @llvm.memcpy.p0.p0.i64(ptr align 4 %_0, ptr align 4 %_28, i64 8, i1 false), !dbg !1385
  br label %bb29, !dbg !1386

bb26:                                             ; preds = %bb9
  %69 = getelementptr inbounds %"pc_keyboard::EventDecoder<pc_keyboard::layouts::us104::Us104Key>", ptr %self, i32 0, i32 1, !dbg !1387
  %70 = getelementptr inbounds %"pc_keyboard::Modifiers", ptr %69, i32 0, i32 7, !dbg !1387
  store i8 0, ptr %70, align 1, !dbg !1387
  store i8 2, ptr %_0, align 4, !dbg !1388
  br label %bb29, !dbg !1388

bb25:                                             ; preds = %bb9
  %71 = getelementptr inbounds %"pc_keyboard::EventDecoder<pc_keyboard::layouts::us104::Us104Key>", ptr %self, i32 0, i32 1, !dbg !1389
  %72 = getelementptr inbounds %"pc_keyboard::Modifiers", ptr %71, i32 0, i32 7, !dbg !1389
  store i8 1, ptr %72, align 1, !dbg !1389
  store i8 122, ptr %_33, align 1, !dbg !1390
  %73 = load i8, ptr %_33, align 1, !dbg !1391, !range !1331, !noundef !29
  %74 = getelementptr inbounds %"pc_keyboard::DecodedKey::RawKey", ptr %_32, i32 0, i32 1, !dbg !1391
  store i8 %73, ptr %74, align 1, !dbg !1391
  store i8 0, ptr %_32, align 4, !dbg !1391
  call void @llvm.memcpy.p0.p0.i64(ptr align 4 %_0, ptr align 4 %_32, i64 8, i1 false), !dbg !1392
  br label %bb29, !dbg !1393

bb27:                                             ; preds = %bb1
  %75 = getelementptr inbounds i8, ptr %ev, i64 1, !dbg !1394
  %c = load i8, ptr %75, align 1, !dbg !1394, !range !1331, !noundef !29
  store i8 %c, ptr %c.dbg.spill, align 1, !dbg !1394
  call void @llvm.dbg.declare(metadata ptr %c.dbg.spill, metadata !1326, metadata !DIExpression()), !dbg !1395
  %_36 = getelementptr inbounds %"pc_keyboard::EventDecoder<pc_keyboard::layouts::us104::Us104Key>", ptr %self, i32 0, i32 2, !dbg !1396
  %_37 = getelementptr inbounds %"pc_keyboard::EventDecoder<pc_keyboard::layouts::us104::Us104Key>", ptr %self, i32 0, i32 1, !dbg !1397
  %76 = load i8, ptr %self, align 1, !dbg !1398, !range !1335, !noundef !29
  %_38 = trunc i8 %76 to i1, !dbg !1398
; call <pc_keyboard::layouts::us104::Us104Key as pc_keyboard::KeyboardLayout>::map_keycode
  %77 = call i64 @"_ZN85_$LT$pc_keyboard..layouts..us104..Us104Key$u20$as$u20$pc_keyboard..KeyboardLayout$GT$11map_keycode17h374fc908832225a0E"(ptr align 1 %_36, i8 %c, ptr align 1 %_37, i1 zeroext %_38) #9, !dbg !1396
  store i64 %77, ptr %2, align 8, !dbg !1396
  call void @llvm.memcpy.p0.p0.i64(ptr align 4 %_35, ptr align 8 %2, i64 8, i1 false), !dbg !1396
  call void @llvm.memcpy.p0.p0.i64(ptr align 4 %_0, ptr align 4 %_35, i64 8, i1 false), !dbg !1399
  br label %bb29, !dbg !1400

bb10:                                             ; preds = %bb1
  store i8 2, ptr %_0, align 4, !dbg !1401
  br label %bb29, !dbg !1401
}

; pc_keyboard::EventDecoder<L>::new
; Function Attrs: noredzone nounwind
define internal void @"_ZN11pc_keyboard21EventDecoder$LT$L$GT$3new17h238a22220f8f8a09E"(ptr sret(%"pc_keyboard::EventDecoder<pc_keyboard::layouts::us104::Us104Key>") align 1 %_0, i1 zeroext %handle_ctrl) unnamed_addr #1 !dbg !1402 {
start:
  %handle_ctrl.dbg.spill = alloca i8, align 1
  %layout.dbg.spill = alloca %"pc_keyboard::layouts::us104::Us104Key", align 1
  %_3 = alloca %"pc_keyboard::Modifiers", align 1
  call void @llvm.dbg.declare(metadata ptr %layout.dbg.spill, metadata !1407, metadata !DIExpression()), !dbg !1409
  %0 = zext i1 %handle_ctrl to i8
  store i8 %0, ptr %handle_ctrl.dbg.spill, align 1
  call void @llvm.dbg.declare(metadata ptr %handle_ctrl.dbg.spill, metadata !1408, metadata !DIExpression()), !dbg !1410
  store i8 0, ptr %_3, align 1, !dbg !1411
  %1 = getelementptr inbounds %"pc_keyboard::Modifiers", ptr %_3, i32 0, i32 1, !dbg !1411
  store i8 0, ptr %1, align 1, !dbg !1411
  %2 = getelementptr inbounds %"pc_keyboard::Modifiers", ptr %_3, i32 0, i32 2, !dbg !1411
  store i8 0, ptr %2, align 1, !dbg !1411
  %3 = getelementptr inbounds %"pc_keyboard::Modifiers", ptr %_3, i32 0, i32 3, !dbg !1411
  store i8 0, ptr %3, align 1, !dbg !1411
  %4 = getelementptr inbounds %"pc_keyboard::Modifiers", ptr %_3, i32 0, i32 4, !dbg !1411
  store i8 1, ptr %4, align 1, !dbg !1411
  %5 = getelementptr inbounds %"pc_keyboard::Modifiers", ptr %_3, i32 0, i32 5, !dbg !1411
  store i8 0, ptr %5, align 1, !dbg !1411
  %6 = getelementptr inbounds %"pc_keyboard::Modifiers", ptr %_3, i32 0, i32 6, !dbg !1411
  store i8 0, ptr %6, align 1, !dbg !1411
  %7 = getelementptr inbounds %"pc_keyboard::Modifiers", ptr %_3, i32 0, i32 7, !dbg !1411
  store i8 0, ptr %7, align 1, !dbg !1411
  %8 = zext i1 %handle_ctrl to i8, !dbg !1412
  store i8 %8, ptr %_0, align 1, !dbg !1412
  %9 = getelementptr inbounds %"pc_keyboard::EventDecoder<pc_keyboard::layouts::us104::Us104Key>", ptr %_0, i32 0, i32 1, !dbg !1412
  call void @llvm.memcpy.p0.p0.i64(ptr align 1 %9, ptr align 1 %_3, i64 8, i1 false), !dbg !1412
  ret void, !dbg !1413
}

; pc_keyboard::Keyboard<L,S>::process_keyevent
; Function Attrs: noredzone nounwind
define internal i64 @"_ZN11pc_keyboard21Keyboard$LT$L$C$S$GT$16process_keyevent17ha0626ef4a5b1549cE"(ptr align 2 %self, i8 %ev.0, i8 %ev.1) unnamed_addr #1 !dbg !1414 {
start:
  %0 = alloca i64, align 8
  %ev.dbg.spill = alloca %"pc_keyboard::KeyEvent", align 1
  %self.dbg.spill = alloca ptr, align 8
  %_0 = alloca %"core::option::Option<pc_keyboard::DecodedKey>", align 4
  store ptr %self, ptr %self.dbg.spill, align 8
  call void @llvm.dbg.declare(metadata ptr %self.dbg.spill, metadata !1420, metadata !DIExpression()), !dbg !1422
  store i8 %ev.0, ptr %ev.dbg.spill, align 1
  %1 = getelementptr inbounds i8, ptr %ev.dbg.spill, i64 1
  store i8 %ev.1, ptr %1, align 1
  call void @llvm.dbg.declare(metadata ptr %ev.dbg.spill, metadata !1421, metadata !DIExpression()), !dbg !1423
  %_3 = getelementptr inbounds %"pc_keyboard::Keyboard<pc_keyboard::layouts::us104::Us104Key, pc_keyboard::scancodes::set1::ScancodeSet1>", ptr %self, i32 0, i32 1, !dbg !1424
; call pc_keyboard::EventDecoder<L>::process_keyevent
  %2 = call i64 @"_ZN11pc_keyboard21EventDecoder$LT$L$GT$16process_keyevent17h8f617fe1a7f739eeE"(ptr align 1 %_3, i8 %ev.0, i8 %ev.1) #9, !dbg !1424
  store i64 %2, ptr %0, align 8, !dbg !1424
  call void @llvm.memcpy.p0.p0.i64(ptr align 4 %_0, ptr align 8 %0, i64 8, i1 false), !dbg !1424
  %3 = load i64, ptr %_0, align 4, !dbg !1425
  ret i64 %3, !dbg !1425
}

; pc_keyboard::Keyboard<L,S>::new
; Function Attrs: noredzone nounwind
define internal void @"_ZN11pc_keyboard21Keyboard$LT$L$C$S$GT$3new17haef29cc6764d7de1E"(ptr sret(%"pc_keyboard::Keyboard<pc_keyboard::layouts::us104::Us104Key, pc_keyboard::scancodes::set1::ScancodeSet1>") align 2 %_0, i8 %scancode_set, i1 zeroext %handle_ctrl) unnamed_addr #1 !dbg !1426 {
start:
  %handle_ctrl.dbg.spill = alloca i8, align 1
  %layout.dbg.spill = alloca %"pc_keyboard::layouts::us104::Us104Key", align 1
  %scancode_set.dbg.spill = alloca i8, align 1
  %_5 = alloca %"pc_keyboard::EventDecoder<pc_keyboard::layouts::us104::Us104Key>", align 1
  store i8 %scancode_set, ptr %scancode_set.dbg.spill, align 1
  call void @llvm.dbg.declare(metadata ptr %scancode_set.dbg.spill, metadata !1431, metadata !DIExpression()), !dbg !1434
  call void @llvm.dbg.declare(metadata ptr %layout.dbg.spill, metadata !1432, metadata !DIExpression()), !dbg !1435
  %0 = zext i1 %handle_ctrl to i8
  store i8 %0, ptr %handle_ctrl.dbg.spill, align 1
  call void @llvm.dbg.declare(metadata ptr %handle_ctrl.dbg.spill, metadata !1433, metadata !DIExpression()), !dbg !1436
; call pc_keyboard::Ps2Decoder::new
  %1 = call { i16, i8 } @_ZN11pc_keyboard10Ps2Decoder3new17h2902b12fd82ac85bE() #9, !dbg !1437
  %_4.0 = extractvalue { i16, i8 } %1, 0, !dbg !1437
  %_4.1 = extractvalue { i16, i8 } %1, 1, !dbg !1437
; call pc_keyboard::EventDecoder<L>::new
  call void @"_ZN11pc_keyboard21EventDecoder$LT$L$GT$3new17h238a22220f8f8a09E"(ptr sret(%"pc_keyboard::EventDecoder<pc_keyboard::layouts::us104::Us104Key>") align 1 %_5, i1 zeroext %handle_ctrl) #9, !dbg !1438
  store i16 %_4.0, ptr %_0, align 2, !dbg !1439
  %2 = getelementptr inbounds i8, ptr %_0, i64 2, !dbg !1439
  store i8 %_4.1, ptr %2, align 2, !dbg !1439
  %3 = getelementptr inbounds %"pc_keyboard::Keyboard<pc_keyboard::layouts::us104::Us104Key, pc_keyboard::scancodes::set1::ScancodeSet1>", ptr %_0, i32 0, i32 2, !dbg !1439
  store i8 %scancode_set, ptr %3, align 1, !dbg !1439
  %4 = getelementptr inbounds %"pc_keyboard::Keyboard<pc_keyboard::layouts::us104::Us104Key, pc_keyboard::scancodes::set1::ScancodeSet1>", ptr %_0, i32 0, i32 1, !dbg !1439
  call void @llvm.memcpy.p0.p0.i64(ptr align 2 %4, ptr align 1 %_5, i64 9, i1 false), !dbg !1439
  ret void, !dbg !1440
}

; pc_keyboard::Keyboard<L,S>::add_byte
; Function Attrs: noredzone nounwind
define internal i16 @"_ZN11pc_keyboard21Keyboard$LT$L$C$S$GT$8add_byte17h9f1e8239d802e737E"(ptr align 2 %self, i8 %byte) unnamed_addr #1 !dbg !1441 {
start:
  %0 = alloca i16, align 2
  %byte.dbg.spill = alloca i8, align 1
  %self.dbg.spill = alloca ptr, align 8
  %_0 = alloca %"core::result::Result<core::option::Option<pc_keyboard::KeyEvent>, pc_keyboard::Error>", align 1
  store ptr %self, ptr %self.dbg.spill, align 8
  call void @llvm.dbg.declare(metadata ptr %self.dbg.spill, metadata !1475, metadata !DIExpression()), !dbg !1477
  store i8 %byte, ptr %byte.dbg.spill, align 1
  call void @llvm.dbg.declare(metadata ptr %byte.dbg.spill, metadata !1476, metadata !DIExpression()), !dbg !1478
  %_3 = getelementptr inbounds %"pc_keyboard::Keyboard<pc_keyboard::layouts::us104::Us104Key, pc_keyboard::scancodes::set1::ScancodeSet1>", ptr %self, i32 0, i32 2, !dbg !1479
; call <pc_keyboard::scancodes::set1::ScancodeSet1 as pc_keyboard::ScancodeSet>::advance_state
  %1 = call i16 @"_ZN87_$LT$pc_keyboard..scancodes..set1..ScancodeSet1$u20$as$u20$pc_keyboard..ScancodeSet$GT$13advance_state17h92f02d7d1c88fa37E"(ptr align 1 %_3, i8 %byte) #9, !dbg !1479
  store i16 %1, ptr %0, align 2, !dbg !1479
  call void @llvm.memcpy.p0.p0.i64(ptr align 1 %_0, ptr align 2 %0, i64 2, i1 false), !dbg !1479
  %2 = load i16, ptr %_0, align 1, !dbg !1480
  ret i16 %2, !dbg !1480
}

; bootloader_api::info::<impl core::convert::From<bootloader_api::info::Optional<T>> for core::option::Option<T>>::from
; Function Attrs: noredzone nounwind
define internal { i64, i64 } @"_ZN14bootloader_api4info126_$LT$impl$u20$core..convert..From$LT$bootloader_api..info..Optional$LT$T$GT$$GT$$u20$for$u20$core..option..Option$LT$T$GT$$GT$4from17hf3534b76d778202bE"(i32 %0, i64 %1) unnamed_addr #1 !dbg !1481 {
start:
  %v.dbg.spill = alloca i64, align 8
  %_0 = alloca %"core::option::Option<u64>", align 8
  %optional = alloca %"bootloader_api::info::Optional<u64>", align 8
  store i32 %0, ptr %optional, align 8
  %2 = getelementptr inbounds i8, ptr %optional, i64 8
  store i64 %1, ptr %2, align 8
  call void @llvm.dbg.declare(metadata ptr %optional, metadata !1499, metadata !DIExpression()), !dbg !1502
  %3 = load i32, ptr %optional, align 8, !dbg !1503, !range !1504, !noundef !29
  %_2 = zext i32 %3 to i64, !dbg !1503
  %4 = icmp eq i64 %_2, 0, !dbg !1505
  br i1 %4, label %bb3, label %bb1, !dbg !1505

bb3:                                              ; preds = %start
  %5 = getelementptr inbounds i8, ptr %optional, i64 8, !dbg !1506
  %v = load i64, ptr %5, align 8, !dbg !1506, !noundef !29
  store i64 %v, ptr %v.dbg.spill, align 8, !dbg !1506
  call void @llvm.dbg.declare(metadata ptr %v.dbg.spill, metadata !1500, metadata !DIExpression()), !dbg !1507
  %6 = getelementptr inbounds i8, ptr %_0, i64 8, !dbg !1508
  store i64 %v, ptr %6, align 8, !dbg !1508
  store i64 1, ptr %_0, align 8, !dbg !1508
  br label %bb4, !dbg !1509

bb1:                                              ; preds = %start
  store i64 0, ptr %_0, align 8, !dbg !1510
  br label %bb4, !dbg !1510

bb4:                                              ; preds = %bb1, %bb3
  %7 = load i64, ptr %_0, align 8, !dbg !1511, !range !1512, !noundef !29
  %8 = getelementptr inbounds i8, ptr %_0, i64 8, !dbg !1511
  %9 = load i64, ptr %8, align 8, !dbg !1511
  %10 = insertvalue { i64, i64 } poison, i64 %7, 0, !dbg !1511
  %11 = insertvalue { i64, i64 } %10, i64 %9, 1, !dbg !1511
  ret { i64, i64 } %11, !dbg !1511

bb2:                                              ; No predecessors!
  unreachable, !dbg !1503
}

; bootloader_api::info::Optional<T>::into_option
; Function Attrs: noredzone nounwind
define internal { i64, i64 } @"_ZN14bootloader_api4info17Optional$LT$T$GT$11into_option17h3fa286f9a0b9dac7E"(i32 %self.0, i64 %self.1) unnamed_addr #1 !dbg !1513 {
start:
  %self.dbg.spill = alloca %"bootloader_api::info::Optional<u64>", align 8
  store i32 %self.0, ptr %self.dbg.spill, align 8
  %0 = getelementptr inbounds i8, ptr %self.dbg.spill, i64 8
  store i64 %self.1, ptr %0, align 8
  call void @llvm.dbg.declare(metadata ptr %self.dbg.spill, metadata !1516, metadata !DIExpression()), !dbg !1517
; call <T as core::convert::Into<U>>::into
  %1 = call { i64, i64 } @"_ZN50_$LT$T$u20$as$u20$core..convert..Into$LT$U$GT$$GT$4into17h6b8a9daa203f912dE"(i32 %self.0, i64 %self.1) #9, !dbg !1518
  %_0.0 = extractvalue { i64, i64 } %1, 0, !dbg !1518
  %_0.1 = extractvalue { i64, i64 } %1, 1, !dbg !1518
  %2 = insertvalue { i64, i64 } poison, i64 %_0.0, 0, !dbg !1519
  %3 = insertvalue { i64, i64 } %2, i64 %_0.1, 1, !dbg !1519
  ret { i64, i64 } %3, !dbg !1519
}

; cpu_interrupts::without_interrupts
; Function Attrs: noredzone nounwind
define internal void @_ZN14cpu_interrupts18without_interrupts17h0e62cf7ca77571d5E(ptr align 8 %f) unnamed_addr #1 !dbg !1520 {
start:
  %f.dbg.spill = alloca ptr, align 8
  store ptr %f, ptr %f.dbg.spill, align 8
  call void @llvm.dbg.declare(metadata ptr %f.dbg.spill, metadata !1529, metadata !DIExpression()), !dbg !1533
; call x86_64::instructions::interrupts::without_interrupts
  call void @_ZN6x86_6412instructions10interrupts18without_interrupts17h9b78e293dfaef6caE(ptr align 8 %f) #9, !dbg !1534
  ret void, !dbg !1535
}

; <bool as core::fmt::Debug>::fmt
; Function Attrs: inlinehint noredzone nounwind
define internal zeroext i1 @"_ZN41_$LT$bool$u20$as$u20$core..fmt..Debug$GT$3fmt17hc808545771bfe5dfE"(ptr align 1 %self, ptr align 8 %f) unnamed_addr #0 !dbg !1536 {
start:
  %f.dbg.spill = alloca ptr, align 8
  %self.dbg.spill = alloca ptr, align 8
  store ptr %self, ptr %self.dbg.spill, align 8
  call void @llvm.dbg.declare(metadata ptr %self.dbg.spill, metadata !1542, metadata !DIExpression()), !dbg !1544
  store ptr %f, ptr %f.dbg.spill, align 8
  call void @llvm.dbg.declare(metadata ptr %f.dbg.spill, metadata !1543, metadata !DIExpression()), !dbg !1545
; call <bool as core::fmt::Display>::fmt
  %_0 = call zeroext i1 @"_ZN43_$LT$bool$u20$as$u20$core..fmt..Display$GT$3fmt17h640d9417dda5bd3eE"(ptr align 1 %self, ptr align 8 %f) #9, !dbg !1546
  ret i1 %_0, !dbg !1547
}

; <&T as core::fmt::Debug>::fmt
; Function Attrs: noredzone nounwind
define internal zeroext i1 @"_ZN42_$LT$$RF$T$u20$as$u20$core..fmt..Debug$GT$3fmt17h22be3a583cc71d1aE"(ptr align 8 %self, ptr align 8 %f) unnamed_addr #1 !dbg !1548 {
start:
  %f.dbg.spill = alloca ptr, align 8
  %self.dbg.spill = alloca ptr, align 8
  store ptr %self, ptr %self.dbg.spill, align 8
  call void @llvm.dbg.declare(metadata ptr %self.dbg.spill, metadata !1554, metadata !DIExpression()), !dbg !1558
  store ptr %f, ptr %f.dbg.spill, align 8
  call void @llvm.dbg.declare(metadata ptr %f.dbg.spill, metadata !1555, metadata !DIExpression()), !dbg !1559
  %_3.0 = load ptr, ptr %self, align 8, !dbg !1560, !nonnull !29, !align !1177, !noundef !29
  %0 = getelementptr inbounds i8, ptr %self, i64 8, !dbg !1560
  %_3.1 = load ptr, ptr %0, align 8, !dbg !1560, !nonnull !29, !align !1277, !noundef !29
; call <dyn core::any::Any+core::marker::Send as core::fmt::Debug>::fmt
  %_0 = call zeroext i1 @"_ZN82_$LT$dyn$u20$core..any..Any$u2b$core..marker..Send$u20$as$u20$core..fmt..Debug$GT$3fmt17h7f13df509aff01c6E"(ptr align 1 %_3.0, ptr align 8 %_3.1, ptr align 8 %f) #9, !dbg !1561
  ret i1 %_0, !dbg !1562
}

; <&T as core::fmt::Debug>::fmt
; Function Attrs: noredzone nounwind
define internal zeroext i1 @"_ZN42_$LT$$RF$T$u20$as$u20$core..fmt..Debug$GT$3fmt17h27a4fda49ac1ee1eE"(ptr align 8 %self, ptr align 8 %f) unnamed_addr #1 !dbg !1563 {
start:
  %f.dbg.spill = alloca ptr, align 8
  %self.dbg.spill = alloca ptr, align 8
  store ptr %self, ptr %self.dbg.spill, align 8
  call void @llvm.dbg.declare(metadata ptr %self.dbg.spill, metadata !1577, metadata !DIExpression()), !dbg !1581
  store ptr %f, ptr %f.dbg.spill, align 8
  call void @llvm.dbg.declare(metadata ptr %f.dbg.spill, metadata !1578, metadata !DIExpression()), !dbg !1582
  %_3 = load ptr, ptr %self, align 8, !dbg !1583, !nonnull !29, !align !1277, !noundef !29
; call <core::panic::panic_info::PanicInfo as core::fmt::Debug>::fmt
  %_0 = call zeroext i1 @"_ZN71_$LT$core..panic..panic_info..PanicInfo$u20$as$u20$core..fmt..Debug$GT$3fmt17he44d380ced25dd68E"(ptr align 8 %_3, ptr align 8 %f) #9, !dbg !1584
  ret i1 %_0, !dbg !1585
}

; <&T as core::fmt::Debug>::fmt
; Function Attrs: noredzone nounwind
define internal zeroext i1 @"_ZN42_$LT$$RF$T$u20$as$u20$core..fmt..Debug$GT$3fmt17h4385645e1b722ed5E"(ptr align 8 %self, ptr align 8 %f) unnamed_addr #1 !dbg !1586 {
start:
  %f.dbg.spill = alloca ptr, align 8
  %self.dbg.spill = alloca ptr, align 8
  store ptr %self, ptr %self.dbg.spill, align 8
  call void @llvm.dbg.declare(metadata ptr %self.dbg.spill, metadata !1591, metadata !DIExpression()), !dbg !1593
  store ptr %f, ptr %f.dbg.spill, align 8
  call void @llvm.dbg.declare(metadata ptr %f.dbg.spill, metadata !1592, metadata !DIExpression()), !dbg !1594
  %_3 = load ptr, ptr %self, align 8, !dbg !1595, !nonnull !29, !align !1277, !noundef !29
; call <&T as core::fmt::Debug>::fmt
  %_0 = call zeroext i1 @"_ZN42_$LT$$RF$T$u20$as$u20$core..fmt..Debug$GT$3fmt17hc2349e16fdcdef93E"(ptr align 8 %_3, ptr align 8 %f) #9, !dbg !1596
  ret i1 %_0, !dbg !1597
}

; <&T as core::fmt::Debug>::fmt
; Function Attrs: noredzone nounwind
define internal zeroext i1 @"_ZN42_$LT$$RF$T$u20$as$u20$core..fmt..Debug$GT$3fmt17h838621f0e2cf0b84E"(ptr align 8 %self, ptr align 8 %f) unnamed_addr #1 !dbg !1598 {
start:
  %f.dbg.spill = alloca ptr, align 8
  %self.dbg.spill = alloca ptr, align 8
  store ptr %self, ptr %self.dbg.spill, align 8
  call void @llvm.dbg.declare(metadata ptr %self.dbg.spill, metadata !1603, metadata !DIExpression()), !dbg !1607
  store ptr %f, ptr %f.dbg.spill, align 8
  call void @llvm.dbg.declare(metadata ptr %f.dbg.spill, metadata !1604, metadata !DIExpression()), !dbg !1608
  %_3 = load ptr, ptr %self, align 8, !dbg !1609, !nonnull !29, !align !1277, !noundef !29
; call <core::panic::location::Location as core::fmt::Debug>::fmt
  %_0 = call zeroext i1 @"_ZN68_$LT$core..panic..location..Location$u20$as$u20$core..fmt..Debug$GT$3fmt17h57ff787223d56bfaE"(ptr align 8 %_3, ptr align 8 %f) #9, !dbg !1610
  ret i1 %_0, !dbg !1611
}

; <&T as core::fmt::Debug>::fmt
; Function Attrs: noredzone nounwind
define internal zeroext i1 @"_ZN42_$LT$$RF$T$u20$as$u20$core..fmt..Debug$GT$3fmt17h872dbed52f0bcd04E"(ptr align 8 %self, ptr align 8 %f) unnamed_addr #1 !dbg !1612 {
start:
  %f.dbg.spill = alloca ptr, align 8
  %self.dbg.spill = alloca ptr, align 8
  store ptr %self, ptr %self.dbg.spill, align 8
  call void @llvm.dbg.declare(metadata ptr %self.dbg.spill, metadata !1617, metadata !DIExpression()), !dbg !1619
  store ptr %f, ptr %f.dbg.spill, align 8
  call void @llvm.dbg.declare(metadata ptr %f.dbg.spill, metadata !1618, metadata !DIExpression()), !dbg !1620
  %_3.0 = load ptr, ptr %self, align 8, !dbg !1621, !nonnull !29, !align !1177, !noundef !29
  %0 = getelementptr inbounds i8, ptr %self, i64 8, !dbg !1621
  %_3.1 = load i64, ptr %0, align 8, !dbg !1621, !noundef !29
; call <str as core::fmt::Debug>::fmt
  %_0 = call zeroext i1 @"_ZN40_$LT$str$u20$as$u20$core..fmt..Debug$GT$3fmt17h66e9f7165016ff59E"(ptr align 1 %_3.0, i64 %_3.1, ptr align 8 %f) #9, !dbg !1622
  ret i1 %_0, !dbg !1623
}

; <&T as core::fmt::Debug>::fmt
; Function Attrs: noredzone nounwind
define internal zeroext i1 @"_ZN42_$LT$$RF$T$u20$as$u20$core..fmt..Debug$GT$3fmt17ha42ebfcb7559d66cE"(ptr align 8 %self, ptr align 8 %f) unnamed_addr #1 !dbg !1624 {
start:
  %f.dbg.spill = alloca ptr, align 8
  %self.dbg.spill = alloca ptr, align 8
  store ptr %self, ptr %self.dbg.spill, align 8
  call void @llvm.dbg.declare(metadata ptr %self.dbg.spill, metadata !1629, metadata !DIExpression()), !dbg !1633
  store ptr %f, ptr %f.dbg.spill, align 8
  call void @llvm.dbg.declare(metadata ptr %f.dbg.spill, metadata !1630, metadata !DIExpression()), !dbg !1634
  %_3 = load ptr, ptr %self, align 8, !dbg !1635, !nonnull !29, !align !1177, !noundef !29
; call <bool as core::fmt::Debug>::fmt
  %_0 = call zeroext i1 @"_ZN41_$LT$bool$u20$as$u20$core..fmt..Debug$GT$3fmt17hc808545771bfe5dfE"(ptr align 1 %_3, ptr align 8 %f) #9, !dbg !1636
  ret i1 %_0, !dbg !1637
}

; <&T as core::fmt::Debug>::fmt
; Function Attrs: noredzone nounwind
define internal zeroext i1 @"_ZN42_$LT$$RF$T$u20$as$u20$core..fmt..Debug$GT$3fmt17hbbfebe954d50564dE"(ptr align 8 %self, ptr align 8 %f) unnamed_addr #1 !dbg !1638 {
start:
  %f.dbg.spill = alloca ptr, align 8
  %self.dbg.spill = alloca ptr, align 8
  store ptr %self, ptr %self.dbg.spill, align 8
  call void @llvm.dbg.declare(metadata ptr %self.dbg.spill, metadata !1643, metadata !DIExpression()), !dbg !1647
  store ptr %f, ptr %f.dbg.spill, align 8
  call void @llvm.dbg.declare(metadata ptr %f.dbg.spill, metadata !1644, metadata !DIExpression()), !dbg !1648
  %_3 = load ptr, ptr %self, align 8, !dbg !1649, !nonnull !29, !align !1277, !noundef !29
; call <x86_64::structures::paging::page_table::PageTableEntry as core::fmt::Debug>::fmt
  %_0 = call zeroext i1 @"_ZN91_$LT$x86_64..structures..paging..page_table..PageTableEntry$u20$as$u20$core..fmt..Debug$GT$3fmt17hac53f7122791591bE"(ptr align 8 %_3, ptr align 8 %f) #9, !dbg !1650
  ret i1 %_0, !dbg !1651
}

; <&T as core::fmt::Debug>::fmt
; Function Attrs: noredzone nounwind
define internal zeroext i1 @"_ZN42_$LT$$RF$T$u20$as$u20$core..fmt..Debug$GT$3fmt17hc2349e16fdcdef93E"(ptr align 8 %self, ptr align 8 %f) unnamed_addr #1 !dbg !1652 {
start:
  %f.dbg.spill = alloca ptr, align 8
  %self.dbg.spill = alloca ptr, align 8
  store ptr %self, ptr %self.dbg.spill, align 8
  call void @llvm.dbg.declare(metadata ptr %self.dbg.spill, metadata !1656, metadata !DIExpression()), !dbg !1660
  store ptr %f, ptr %f.dbg.spill, align 8
  call void @llvm.dbg.declare(metadata ptr %f.dbg.spill, metadata !1657, metadata !DIExpression()), !dbg !1661
  %_3 = load ptr, ptr %self, align 8, !dbg !1662, !nonnull !29, !align !1277, !noundef !29
; call <core::fmt::Arguments as core::fmt::Debug>::fmt
  %_0 = call zeroext i1 @"_ZN57_$LT$core..fmt..Arguments$u20$as$u20$core..fmt..Debug$GT$3fmt17hfde3e572920b0cebE"(ptr align 8 %_3, ptr align 8 %f) #9, !dbg !1663
  ret i1 %_0, !dbg !1664
}

; <u16 as bit_field::BitField>::set_bit
; Function Attrs: inlinehint noredzone nounwind
define internal align 2 ptr @"_ZN43_$LT$u16$u20$as$u20$bit_field..BitField$GT$7set_bit17h6affef85ae4fae88E"(ptr align 2 %self, i64 %bit, i1 zeroext %value) unnamed_addr #0 !dbg !1665 {
start:
  %value.dbg.spill = alloca i8, align 1
  %bit.dbg.spill = alloca i64, align 8
  %self.dbg.spill = alloca ptr, align 8
  store ptr %self, ptr %self.dbg.spill, align 8
  call void @llvm.dbg.declare(metadata ptr %self.dbg.spill, metadata !1673, metadata !DIExpression()), !dbg !1676
  store i64 %bit, ptr %bit.dbg.spill, align 8
  call void @llvm.dbg.declare(metadata ptr %bit.dbg.spill, metadata !1674, metadata !DIExpression()), !dbg !1677
  %0 = zext i1 %value to i8
  store i8 %0, ptr %value.dbg.spill, align 1
  call void @llvm.dbg.declare(metadata ptr %value.dbg.spill, metadata !1675, metadata !DIExpression()), !dbg !1678
  %_4 = icmp ult i64 %bit, 16, !dbg !1679
  br i1 %_4, label %bb1, label %bb2, !dbg !1679

bb2:                                              ; preds = %start
; call core::panicking::panic
  call void @_ZN4core9panicking5panic17h6f817e467d9b8599E(ptr align 1 @alloc_6923360c3161738641b3989c6181ce08, i64 40, ptr align 8 @alloc_f4d2308b1a4d364a80c06ffe6643cbed) #11, !dbg !1680
  unreachable, !dbg !1680

bb1:                                              ; preds = %start
  br i1 %value, label %bb3, label %bb4, !dbg !1681

bb4:                                              ; preds = %bb1
  %_10 = icmp ult i64 %bit, 16, !dbg !1682
  %1 = call i1 @llvm.expect.i1(i1 %_10, i1 true), !dbg !1682
  br i1 %1, label %bb6, label %panic, !dbg !1682

bb3:                                              ; preds = %bb1
  %_7 = icmp ult i64 %bit, 16, !dbg !1683
  %2 = call i1 @llvm.expect.i1(i1 %_7, i1 true), !dbg !1683
  br i1 %2, label %bb5, label %panic1, !dbg !1683

bb6:                                              ; preds = %bb4
  %3 = trunc i64 %bit to i16, !dbg !1682
  %4 = and i16 %3, 15, !dbg !1682
  %_9 = shl i16 1, %4, !dbg !1682
  %_8 = xor i16 %_9, -1, !dbg !1684
  %5 = load i16, ptr %self, align 2, !dbg !1685, !noundef !29
  %6 = and i16 %5, %_8, !dbg !1685
  store i16 %6, ptr %self, align 2, !dbg !1685
  br label %bb7, !dbg !1686

panic:                                            ; preds = %bb4
; call core::panicking::panic
  call void @_ZN4core9panicking5panic17h6f817e467d9b8599E(ptr align 1 @str.2, i64 35, ptr align 8 @alloc_f4d2308b1a4d364a80c06ffe6643cbed) #11, !dbg !1682
  unreachable, !dbg !1682

bb7:                                              ; preds = %bb5, %bb6
  ret ptr %self, !dbg !1687

bb5:                                              ; preds = %bb3
  %7 = trunc i64 %bit to i16, !dbg !1683
  %8 = and i16 %7, 15, !dbg !1683
  %_6 = shl i16 1, %8, !dbg !1683
  %9 = load i16, ptr %self, align 2, !dbg !1688, !noundef !29
  %10 = or i16 %9, %_6, !dbg !1688
  store i16 %10, ptr %self, align 2, !dbg !1688
  br label %bb7, !dbg !1686

panic1:                                           ; preds = %bb3
; call core::panicking::panic
  call void @_ZN4core9panicking5panic17h6f817e467d9b8599E(ptr align 1 @str.2, i64 35, ptr align 8 @alloc_f4d2308b1a4d364a80c06ffe6643cbed) #11, !dbg !1683
  unreachable, !dbg !1683
}

; core::fmt::num::<impl core::fmt::Debug for u32>::fmt
; Function Attrs: inlinehint noredzone nounwind
define internal zeroext i1 @"_ZN4core3fmt3num50_$LT$impl$u20$core..fmt..Debug$u20$for$u20$u32$GT$3fmt17h6320902afa155103E"(ptr align 4 %self, ptr align 8 %f) unnamed_addr #0 !dbg !1689 {
start:
  %f.dbg.spill = alloca ptr, align 8
  %self.dbg.spill = alloca ptr, align 8
  %_0 = alloca i8, align 1
  store ptr %self, ptr %self.dbg.spill, align 8
  call void @llvm.dbg.declare(metadata ptr %self.dbg.spill, metadata !1696, metadata !DIExpression()), !dbg !1698
  store ptr %f, ptr %f.dbg.spill, align 8
  call void @llvm.dbg.declare(metadata ptr %f.dbg.spill, metadata !1697, metadata !DIExpression()), !dbg !1699
; call core::fmt::Formatter::debug_lower_hex
  %_3 = call zeroext i1 @_ZN4core3fmt9Formatter15debug_lower_hex17h5b374081604c85f0E(ptr align 8 %f) #9, !dbg !1700
  br i1 %_3, label %bb2, label %bb3, !dbg !1700

bb3:                                              ; preds = %start
; call core::fmt::Formatter::debug_upper_hex
  %_5 = call zeroext i1 @_ZN4core3fmt9Formatter15debug_upper_hex17h9d9abf32bc176abbE(ptr align 8 %f) #9, !dbg !1701
  br i1 %_5, label %bb5, label %bb6, !dbg !1701

bb2:                                              ; preds = %start
; call core::fmt::num::<impl core::fmt::LowerHex for u32>::fmt
  %0 = call zeroext i1 @"_ZN4core3fmt3num53_$LT$impl$u20$core..fmt..LowerHex$u20$for$u20$u32$GT$3fmt17hee5e1002bb23ab6fE"(ptr align 4 %self, ptr align 8 %f) #9, !dbg !1702
  %1 = zext i1 %0 to i8, !dbg !1702
  store i8 %1, ptr %_0, align 1, !dbg !1702
  br label %bb7, !dbg !1702

bb6:                                              ; preds = %bb3
; call core::fmt::num::imp::<impl core::fmt::Display for u32>::fmt
  %2 = call zeroext i1 @"_ZN4core3fmt3num3imp52_$LT$impl$u20$core..fmt..Display$u20$for$u20$u32$GT$3fmt17h32944274678c4bb9E"(ptr align 4 %self, ptr align 8 %f) #9, !dbg !1703
  %3 = zext i1 %2 to i8, !dbg !1703
  store i8 %3, ptr %_0, align 1, !dbg !1703
  br label %bb7, !dbg !1703

bb5:                                              ; preds = %bb3
; call core::fmt::num::<impl core::fmt::UpperHex for u32>::fmt
  %4 = call zeroext i1 @"_ZN4core3fmt3num53_$LT$impl$u20$core..fmt..UpperHex$u20$for$u20$u32$GT$3fmt17h051b32d0612997e4E"(ptr align 4 %self, ptr align 8 %f) #9, !dbg !1704
  %5 = zext i1 %4 to i8, !dbg !1704
  store i8 %5, ptr %_0, align 1, !dbg !1704
  br label %bb7, !dbg !1704

bb7:                                              ; preds = %bb2, %bb5, %bb6
  %6 = load i8, ptr %_0, align 1, !dbg !1705, !range !1335, !noundef !29
  %7 = trunc i8 %6 to i1, !dbg !1705
  ret i1 %7, !dbg !1705
}

; core::fmt::Write::write_char
; Function Attrs: noredzone nounwind
define internal zeroext i1 @_ZN4core3fmt5Write10write_char17h5913d6fadd9e51b5E(ptr align 8 %self, i32 %c) unnamed_addr #1 !dbg !1706 {
start:
  %c.dbg.spill = alloca i32, align 4
  %self.dbg.spill = alloca ptr, align 8
  %_7 = alloca [4 x i8], align 1
  store ptr %self, ptr %self.dbg.spill, align 8
  call void @llvm.dbg.declare(metadata ptr %self.dbg.spill, metadata !1712, metadata !DIExpression()), !dbg !1716
  store i32 %c, ptr %c.dbg.spill, align 4
  call void @llvm.dbg.declare(metadata ptr %c.dbg.spill, metadata !1713, metadata !DIExpression()), !dbg !1717
  %0 = getelementptr inbounds [4 x i8], ptr %_7, i64 0, i64 0, !dbg !1718
  call void @llvm.memset.p0.i64(ptr align 1 %0, i8 0, i64 4, i1 false), !dbg !1718
; call core::char::methods::<impl char>::encode_utf8
  %1 = call { ptr, i64 } @"_ZN4core4char7methods22_$LT$impl$u20$char$GT$11encode_utf817h937ad0e1156d63c4E"(i32 %c, ptr align 1 %_7, i64 4) #9, !dbg !1719
  %_4.0 = extractvalue { ptr, i64 } %1, 0, !dbg !1719
  %_4.1 = extractvalue { ptr, i64 } %1, 1, !dbg !1719
; call <vga::Screen as core::fmt::Write>::write_str
  %_0 = call zeroext i1 @"_ZN48_$LT$vga..Screen$u20$as$u20$core..fmt..Write$GT$9write_str17h927957bcd12df6c8E"(ptr align 8 %self, ptr align 1 %_4.0, i64 %_4.1) #9, !dbg !1720
  ret i1 %_0, !dbg !1721
}

; core::fmt::Write::write_fmt
; Function Attrs: noredzone nounwind
define internal zeroext i1 @_ZN4core3fmt5Write9write_fmt17hbacf93c51d373761E(ptr align 8 %self, ptr align 8 %args) unnamed_addr #1 !dbg !1722 {
start:
  %0 = alloca %"core::fmt::Arguments<'_>", align 8
  %self.dbg.spill = alloca ptr, align 8
  store ptr %self, ptr %self.dbg.spill, align 8
  call void @llvm.dbg.declare(metadata ptr %self.dbg.spill, metadata !1726, metadata !DIExpression()), !dbg !1728
  call void @llvm.dbg.declare(metadata ptr %args, metadata !1727, metadata !DIExpression()), !dbg !1729
  call void @llvm.memcpy.p0.p0.i64(ptr align 8 %0, ptr align 8 %args, i64 48, i1 false), !dbg !1730
; call <&mut W as core::fmt::Write::write_fmt::SpecWriteFmt>::spec_write_fmt
  %_0 = call zeroext i1 @"_ZN75_$LT$$RF$mut$u20$W$u20$as$u20$core..fmt..Write..write_fmt..SpecWriteFmt$GT$14spec_write_fmt17h0c4d0463cbc2b2c4E"(ptr align 8 %self, ptr align 8 %0) #9, !dbg !1730
  ret i1 %_0, !dbg !1731
}

; core::fmt::Arguments::new_v1_formatted
; Function Attrs: inlinehint noredzone nounwind
define internal void @_ZN4core3fmt9Arguments16new_v1_formatted17he52bcba24980dcdaE(ptr sret(%"core::fmt::Arguments<'_>") align 8 %_0, ptr align 8 %pieces.0, i64 %pieces.1, ptr align 8 %args.0, i64 %args.1, ptr align 8 %fmt.0, i64 %fmt.1) unnamed_addr #0 !dbg !1732 {
start:
  %_4.dbg.spill = alloca %"core::fmt::rt::UnsafeArg", align 1
  %fmt.dbg.spill = alloca { ptr, i64 }, align 8
  %args.dbg.spill = alloca { ptr, i64 }, align 8
  %pieces.dbg.spill = alloca { ptr, i64 }, align 8
  %_5 = alloca %"core::option::Option<&[core::fmt::rt::Placeholder]>", align 8
  %_unsafe_arg.dbg.spill = alloca %"core::fmt::rt::UnsafeArg", align 1
  call void @llvm.dbg.declare(metadata ptr %_unsafe_arg.dbg.spill, metadata !1743, metadata !DIExpression()), !dbg !1745
  store ptr %pieces.0, ptr %pieces.dbg.spill, align 8, !dbg !1745
  %0 = getelementptr inbounds i8, ptr %pieces.dbg.spill, i64 8, !dbg !1745
  store i64 %pieces.1, ptr %0, align 8, !dbg !1745
  call void @llvm.dbg.declare(metadata ptr %pieces.dbg.spill, metadata !1740, metadata !DIExpression()), !dbg !1746
  store ptr %args.0, ptr %args.dbg.spill, align 8, !dbg !1745
  %1 = getelementptr inbounds i8, ptr %args.dbg.spill, i64 8, !dbg !1745
  store i64 %args.1, ptr %1, align 8, !dbg !1745
  call void @llvm.dbg.declare(metadata ptr %args.dbg.spill, metadata !1741, metadata !DIExpression()), !dbg !1747
  store ptr %fmt.0, ptr %fmt.dbg.spill, align 8, !dbg !1745
  %2 = getelementptr inbounds i8, ptr %fmt.dbg.spill, i64 8, !dbg !1745
  store i64 %fmt.1, ptr %2, align 8, !dbg !1745
  call void @llvm.dbg.declare(metadata ptr %fmt.dbg.spill, metadata !1742, metadata !DIExpression()), !dbg !1748
  call void @llvm.dbg.declare(metadata ptr %_4.dbg.spill, metadata !1744, metadata !DIExpression()), !dbg !1745
  store ptr %fmt.0, ptr %_5, align 8, !dbg !1749
  %3 = getelementptr inbounds i8, ptr %_5, i64 8, !dbg !1749
  store i64 %fmt.1, ptr %3, align 8, !dbg !1749
  store ptr %pieces.0, ptr %_0, align 8, !dbg !1750
  %4 = getelementptr inbounds i8, ptr %_0, i64 8, !dbg !1750
  store i64 %pieces.1, ptr %4, align 8, !dbg !1750
  %5 = load ptr, ptr %_5, align 8, !dbg !1750, !align !1277, !noundef !29
  %6 = getelementptr inbounds i8, ptr %_5, i64 8, !dbg !1750
  %7 = load i64, ptr %6, align 8, !dbg !1750
  %8 = getelementptr inbounds %"core::fmt::Arguments<'_>", ptr %_0, i32 0, i32 2, !dbg !1750
  store ptr %5, ptr %8, align 8, !dbg !1750
  %9 = getelementptr inbounds i8, ptr %8, i64 8, !dbg !1750
  store i64 %7, ptr %9, align 8, !dbg !1750
  %10 = getelementptr inbounds %"core::fmt::Arguments<'_>", ptr %_0, i32 0, i32 1, !dbg !1750
  store ptr %args.0, ptr %10, align 8, !dbg !1750
  %11 = getelementptr inbounds i8, ptr %10, i64 8, !dbg !1750
  store i64 %args.1, ptr %11, align 8, !dbg !1750
  ret void, !dbg !1751
}

; core::fmt::Arguments::new_v1
; Function Attrs: inlinehint noredzone nounwind
define internal void @_ZN4core3fmt9Arguments6new_v117ha494606c5fd7a7a7E(ptr sret(%"core::fmt::Arguments<'_>") align 8 %_0, ptr align 8 %pieces.0, i64 %pieces.1, ptr align 8 %args.0, i64 %args.1) unnamed_addr #0 !dbg !1752 {
start:
  %args.dbg.spill = alloca { ptr, i64 }, align 8
  %pieces.dbg.spill = alloca { ptr, i64 }, align 8
  %_14 = alloca %"core::option::Option<&[core::fmt::rt::Placeholder]>", align 8
  %_12 = alloca %"core::fmt::Arguments<'_>", align 8
  store ptr %pieces.0, ptr %pieces.dbg.spill, align 8
  %0 = getelementptr inbounds i8, ptr %pieces.dbg.spill, i64 8
  store i64 %pieces.1, ptr %0, align 8
  call void @llvm.dbg.declare(metadata ptr %pieces.dbg.spill, metadata !1757, metadata !DIExpression()), !dbg !1759
  store ptr %args.0, ptr %args.dbg.spill, align 8
  %1 = getelementptr inbounds i8, ptr %args.dbg.spill, i64 8
  store i64 %args.1, ptr %1, align 8
  call void @llvm.dbg.declare(metadata ptr %args.dbg.spill, metadata !1758, metadata !DIExpression()), !dbg !1760
  %_3 = icmp ult i64 %pieces.1, %args.1, !dbg !1761
  br i1 %_3, label %bb3, label %bb1, !dbg !1761

bb1:                                              ; preds = %start
  %2 = call { i64, i1 } @llvm.uadd.with.overflow.i64(i64 %args.1, i64 1), !dbg !1762
  %_10.0 = extractvalue { i64, i1 } %2, 0, !dbg !1762
  %_10.1 = extractvalue { i64, i1 } %2, 1, !dbg !1762
  %3 = call i1 @llvm.expect.i1(i1 %_10.1, i1 false), !dbg !1762
  br i1 %3, label %panic, label %bb2, !dbg !1762

bb3:                                              ; preds = %bb2, %start
; call core::fmt::Arguments::new_const
  call void @_ZN4core3fmt9Arguments9new_const17h150cc42a0ce49684E(ptr sret(%"core::fmt::Arguments<'_>") align 8 %_12, ptr align 8 @alloc_af99043bc04c419363a7f04d23183506, i64 1) #9, !dbg !1763
; call core::panicking::panic_fmt
  call void @_ZN4core9panicking9panic_fmt17ha5e30ccfbdd0aed8E(ptr align 8 %_12, ptr align 8 @alloc_a128bb0331e9cbfe13a5df140fd20243) #11, !dbg !1763
  unreachable, !dbg !1763

bb2:                                              ; preds = %bb1
  %_6 = icmp ugt i64 %pieces.1, %_10.0, !dbg !1764
  br i1 %_6, label %bb3, label %bb5, !dbg !1764

panic:                                            ; preds = %bb1
; call core::panicking::panic
  call void @_ZN4core9panicking5panic17h6f817e467d9b8599E(ptr align 1 @str.1, i64 28, ptr align 8 @alloc_1d488b18c5f7c1d3858ca9f0071c91c8) #11, !dbg !1762
  unreachable, !dbg !1762

bb5:                                              ; preds = %bb2
  store ptr null, ptr %_14, align 8, !dbg !1765
  store ptr %pieces.0, ptr %_0, align 8, !dbg !1766
  %4 = getelementptr inbounds i8, ptr %_0, i64 8, !dbg !1766
  store i64 %pieces.1, ptr %4, align 8, !dbg !1766
  %5 = load ptr, ptr %_14, align 8, !dbg !1766, !align !1277, !noundef !29
  %6 = getelementptr inbounds i8, ptr %_14, i64 8, !dbg !1766
  %7 = load i64, ptr %6, align 8, !dbg !1766
  %8 = getelementptr inbounds %"core::fmt::Arguments<'_>", ptr %_0, i32 0, i32 2, !dbg !1766
  store ptr %5, ptr %8, align 8, !dbg !1766
  %9 = getelementptr inbounds i8, ptr %8, i64 8, !dbg !1766
  store i64 %7, ptr %9, align 8, !dbg !1766
  %10 = getelementptr inbounds %"core::fmt::Arguments<'_>", ptr %_0, i32 0, i32 1, !dbg !1766
  store ptr %args.0, ptr %10, align 8, !dbg !1766
  %11 = getelementptr inbounds i8, ptr %10, i64 8, !dbg !1766
  store i64 %args.1, ptr %11, align 8, !dbg !1766
  ret void, !dbg !1767
}

; core::fmt::Arguments::new_const
; Function Attrs: inlinehint noredzone nounwind
define internal void @_ZN4core3fmt9Arguments9new_const17h150cc42a0ce49684E(ptr sret(%"core::fmt::Arguments<'_>") align 8 %_0, ptr align 8 %pieces.0, i64 %pieces.1) unnamed_addr #0 !dbg !1768 {
start:
  %pieces.dbg.spill = alloca { ptr, i64 }, align 8
  %_7 = alloca %"core::option::Option<&[core::fmt::rt::Placeholder]>", align 8
  %_5 = alloca %"core::fmt::Arguments<'_>", align 8
  store ptr %pieces.0, ptr %pieces.dbg.spill, align 8
  %0 = getelementptr inbounds i8, ptr %pieces.dbg.spill, i64 8
  store i64 %pieces.1, ptr %0, align 8
  call void @llvm.dbg.declare(metadata ptr %pieces.dbg.spill, metadata !1773, metadata !DIExpression()), !dbg !1774
  %_2 = icmp ugt i64 %pieces.1, 1, !dbg !1775
  br i1 %_2, label %bb1, label %bb3, !dbg !1775

bb3:                                              ; preds = %start
  store ptr null, ptr %_7, align 8, !dbg !1776
  store ptr %pieces.0, ptr %_0, align 8, !dbg !1777
  %1 = getelementptr inbounds i8, ptr %_0, i64 8, !dbg !1777
  store i64 %pieces.1, ptr %1, align 8, !dbg !1777
  %2 = load ptr, ptr %_7, align 8, !dbg !1777, !align !1277, !noundef !29
  %3 = getelementptr inbounds i8, ptr %_7, i64 8, !dbg !1777
  %4 = load i64, ptr %3, align 8, !dbg !1777
  %5 = getelementptr inbounds %"core::fmt::Arguments<'_>", ptr %_0, i32 0, i32 2, !dbg !1777
  store ptr %2, ptr %5, align 8, !dbg !1777
  %6 = getelementptr inbounds i8, ptr %5, i64 8, !dbg !1777
  store i64 %4, ptr %6, align 8, !dbg !1777
  %7 = getelementptr inbounds %"core::fmt::Arguments<'_>", ptr %_0, i32 0, i32 1, !dbg !1777
  store ptr @alloc_513570631223a12912d85da2bec3b15a, ptr %7, align 8, !dbg !1777
  %8 = getelementptr inbounds i8, ptr %7, i64 8, !dbg !1777
  store i64 0, ptr %8, align 8, !dbg !1777
  ret void, !dbg !1778

bb1:                                              ; preds = %start
; call core::fmt::Arguments::new_const
  call void @_ZN4core3fmt9Arguments9new_const17h150cc42a0ce49684E(ptr sret(%"core::fmt::Arguments<'_>") align 8 %_5, ptr align 8 @alloc_af99043bc04c419363a7f04d23183506, i64 1) #9, !dbg !1779
; call core::panicking::panic_fmt
  call void @_ZN4core9panicking9panic_fmt17ha5e30ccfbdd0aed8E(ptr align 8 %_5, ptr align 8 @alloc_40dc4a2e4fa36320ad05a7f7aeedf921) #11, !dbg !1779
  unreachable, !dbg !1779
}

; core::ops::function::impls::<impl core::ops::function::FnOnce<A> for &mut F>::call_once
; Function Attrs: noredzone nounwind
define internal align 8 ptr @"_ZN4core3ops8function5impls80_$LT$impl$u20$core..ops..function..FnOnce$LT$A$GT$$u20$for$u20$$RF$mut$u20$F$GT$9call_once17h86e2ce583b68bbc9E"(ptr align 8 %self, i64 %0) unnamed_addr #1 !dbg !1780 {
start:
  %self.dbg.spill = alloca ptr, align 8
  %args = alloca i64, align 8
  store i64 %0, ptr %args, align 8
  store ptr %self, ptr %self.dbg.spill, align 8
  call void @llvm.dbg.declare(metadata ptr %self.dbg.spill, metadata !1789, metadata !DIExpression()), !dbg !1796
  call void @llvm.dbg.declare(metadata ptr %args, metadata !1790, metadata !DIExpression()), !dbg !1797
  %1 = load i64, ptr %args, align 8, !dbg !1798, !noundef !29
; call x86_64::structures::paging::page_table::PageTable::iter::{{closure}}
  %_0 = call align 8 ptr @"_ZN6x86_6410structures6paging10page_table9PageTable4iter28_$u7b$$u7b$closure$u7d$$u7d$17hd1b9c618e908ccd2E"(ptr align 8 %self, i64 %1) #9, !dbg !1798
  ret ptr %_0, !dbg !1799
}

; core::ops::function::FnOnce::call_once
; Function Attrs: inlinehint noredzone nounwind
define internal void @_ZN4core3ops8function6FnOnce9call_once17h4625be1ff4a61bd0E(ptr sret(%"spin::mutex::Mutex<vga::Screen>") align 8 %_0) unnamed_addr #0 !dbg !1800 {
start:
  %0 = alloca i8, align 1
  %_3.i.i = alloca %"core::cell::UnsafeCell<vga::Screen>", align 8
  %_2.i1.i = alloca %"core::sync::atomic::AtomicBool", align 1
  %_2.i.i = alloca %"spin::mutex::spin::SpinMutex<vga::Screen>", align 8
  %_2.i = alloca i8, align 1
  %_1.i = alloca %"vga::Screen", align 8
  %_1.dbg.spill = alloca {}, align 1
  %_2 = alloca {}, align 1
  call void @llvm.dbg.declare(metadata ptr %_1.dbg.spill, metadata !1808, metadata !DIExpression()), !dbg !1813
  call void @llvm.dbg.declare(metadata ptr %_2, metadata !1809, metadata !DIExpression()), !dbg !1813
  store i8 1, ptr %_2.i, align 1, !dbg !1814
  %1 = load i8, ptr %_2.i, align 1, !dbg !1819, !range !1335, !noundef !29
  %2 = trunc i8 %1 to i1, !dbg !1819
; call vga::Screen::new
  call void @_ZN3vga6Screen3new17h47ec63f87da2587aE(ptr sret(%"vga::Screen") align 8 %_1.i, i1 zeroext %2, i8 32) #9, !dbg !1819
  call void @llvm.dbg.declare(metadata ptr %_1.i, metadata !1820, metadata !DIExpression()), !dbg !1827
  call void @llvm.dbg.declare(metadata ptr %_1.i, metadata !1829, metadata !DIExpression()), !dbg !1836
; call core::sync::atomic::AtomicBool::new
  %3 = call i8 @_ZN4core4sync6atomic10AtomicBool3new17h187daaa8ec0d44bcE(i1 zeroext false) #9, !dbg !1838
  store i8 %3, ptr %0, align 1, !dbg !1838
  call void @llvm.memcpy.p0.p0.i64(ptr align 1 %_2.i1.i, ptr align 1 %0, i64 1, i1 false), !dbg !1838
  call void @llvm.dbg.declare(metadata ptr %_1.i, metadata !1839, metadata !DIExpression()), !dbg !1846
  call void @llvm.memcpy.p0.p0.i64(ptr align 8 %_3.i.i, ptr align 8 %_1.i, i64 216, i1 false), !dbg !1848
  call void @llvm.memcpy.p0.p0.i64(ptr align 8 %_2.i.i, ptr align 1 %_2.i1.i, i64 1, i1 false), !dbg !1849
  %4 = getelementptr inbounds %"spin::mutex::spin::SpinMutex<vga::Screen>", ptr %_2.i.i, i32 0, i32 3, !dbg !1849
  call void @llvm.memcpy.p0.p0.i64(ptr align 8 %4, ptr align 8 %_3.i.i, i64 216, i1 false), !dbg !1849
  call void @llvm.memcpy.p0.p0.i64(ptr align 8 %_0, ptr align 8 %_2.i.i, i64 224, i1 false), !dbg !1850
  ret void, !dbg !1813
}

; core::ops::function::FnOnce::call_once
; Function Attrs: inlinehint noredzone nounwind
define internal void @_ZN4core3ops8function6FnOnce9call_once17had8963dafdd684c9E(ptr sret(%"cpu_interrupts::interrupt_descriptor_table::SafeInterruptDescriptorTable") align 16 %_0) unnamed_addr #0 !dbg !1851 {
start:
  %_27.i = alloca %"x86_64::structures::idt::InterruptDescriptorTable", align 16
  %idt.i = alloca %"x86_64::structures::idt::InterruptDescriptorTable", align 16
  %_1.dbg.spill = alloca {}, align 1
  %_2 = alloca {}, align 1
  call void @llvm.dbg.declare(metadata ptr %_1.dbg.spill, metadata !1858, metadata !DIExpression()), !dbg !1862
  call void @llvm.dbg.declare(metadata ptr %_2, metadata !1859, metadata !DIExpression()), !dbg !1862
  call void @llvm.dbg.declare(metadata ptr %idt.i, metadata !1863, metadata !DIExpression()), !dbg !1868
; call x86_64::structures::idt::InterruptDescriptorTable::new
  call void @_ZN6x86_6410structures3idt24InterruptDescriptorTable3new17h838b2250c777d599E(ptr sret(%"x86_64::structures::idt::InterruptDescriptorTable") align 16 %idt.i) #9, !dbg !1870
  %_4.i = getelementptr inbounds %"x86_64::structures::idt::InterruptDescriptorTable", ptr %idt.i, i32 0, i32 8, !dbg !1872
; call x86_64::structures::idt::Entry<extern "x86.interrupt" fn(x86_64::structures::idt::InterruptStackFrame,u64) .> !>::set_handler_fn
  %_3.i = call align 2 ptr @"_ZN6x86_6410structures3idt132Entry$LT$extern$u20$$u22$x86.interrupt$u22$$u20$fn$LP$x86_64..structures..idt..InterruptStackFrame$C$u64$RP$$u20$.$GT$$u20$$u21$$GT$14set_handler_fn17h4f7b912907bf569bE"(ptr align 4 %_4.i, ptr @_ZN14cpu_interrupts26default_exception_handlers20double_fault_handler17h785c938931d28e3eE) #9, !dbg !1872
; call x86_64::structures::idt::EntryOptions::set_stack_index
  %_2.i = call align 2 ptr @_ZN6x86_6410structures3idt12EntryOptions15set_stack_index17h03133471eb30e9d9E(ptr align 2 %_3.i, i16 0) #9, !dbg !1872
  %_8.i = getelementptr inbounds %"x86_64::structures::idt::InterruptDescriptorTable", ptr %idt.i, i32 0, i32 3, !dbg !1873
; call x86_64::structures::idt::Entry<extern "x86.interrupt" fn(x86_64::structures::idt::InterruptStackFrame)>::set_handler_fn
  %_7.i = call align 2 ptr @"_ZN6x86_6410structures3idt106Entry$LT$extern$u20$$u22$x86.interrupt$u22$$u20$fn$LP$x86_64..structures..idt..InterruptStackFrame$RP$$GT$14set_handler_fn17h81776604265f6f3eE"(ptr align 4 %_8.i, ptr @_ZN4theo10interrupts18breakpoint_handler17h321986f45fbcca01E) #9, !dbg !1873
  %_11.i = getelementptr inbounds %"x86_64::structures::idt::InterruptDescriptorTable", ptr %idt.i, i32 0, i32 14, !dbg !1874
; call x86_64::structures::idt::Entry<extern "x86.interrupt" fn(x86_64::structures::idt::InterruptStackFrame,x86_64::structures::idt::PageFaultErrorCode)>::set_handler_fn
  %_10.i = call align 2 ptr @"_ZN6x86_6410structures3idt152Entry$LT$extern$u20$$u22$x86.interrupt$u22$$u20$fn$LP$x86_64..structures..idt..InterruptStackFrame$C$x86_64..structures..idt..PageFaultErrorCode$RP$$GT$14set_handler_fn17h69606992cf0e3fe2E"(ptr align 4 %_11.i, ptr @_ZN4theo10interrupts18page_fault_handler17h0c360c1e6fba045aE) #9, !dbg !1874
  %0 = call i1 @llvm.expect.i1(i1 false, i1 false), !dbg !1875
  br i1 %0, label %panic.i, label %bb6.i, !dbg !1875

bb6.i:                                            ; preds = %start
; call <x86_64::structures::idt::InterruptDescriptorTable as core::ops::index::IndexMut<usize>>::index_mut
  %_14.i = call align 4 ptr @"_ZN109_$LT$x86_64..structures..idt..InterruptDescriptorTable$u20$as$u20$core..ops..index..IndexMut$LT$usize$GT$$GT$9index_mut17hade7b6830a6e754eE"(ptr align 16 %idt.i, i64 32, ptr align 8 @alloc_aab49787549470fd70facaad108c77a4) #9, !dbg !1876
; call x86_64::structures::idt::Entry<extern "x86.interrupt" fn(x86_64::structures::idt::InterruptStackFrame)>::set_handler_fn
  %_13.i = call align 2 ptr @"_ZN6x86_6410structures3idt106Entry$LT$extern$u20$$u22$x86.interrupt$u22$$u20$fn$LP$x86_64..structures..idt..InterruptStackFrame$RP$$GT$14set_handler_fn17h81776604265f6f3eE"(ptr align 4 %_14.i, ptr @_ZN4theo10interrupts23timer_interrupt_handler17h8f4e655dfccce835E) #9, !dbg !1877
  %1 = call i1 @llvm.expect.i1(i1 false, i1 false), !dbg !1878
  br i1 %1, label %panic1.i, label %"_ZN70_$LT$theo..interrupts..SAFE_IDT$u20$as$u20$core..ops..deref..Deref$GT$5deref23__static_ref_initialize17h6add1fc22a047919E.exit", !dbg !1878

panic.i:                                          ; preds = %start
; call core::panicking::panic
  call void @_ZN4core9panicking5panic17h6f817e467d9b8599E(ptr align 1 @str.1, i64 28, ptr align 8 @alloc_8e31913bb1280612bd3b769187e5eba9) #11, !dbg !1875
  unreachable, !dbg !1875

panic1.i:                                         ; preds = %bb6.i
; call core::panicking::panic
  call void @_ZN4core9panicking5panic17h6f817e467d9b8599E(ptr align 1 @str.1, i64 28, ptr align 8 @alloc_bbed2470a1e4ffba3a375ea33e907c1f) #11, !dbg !1878
  unreachable, !dbg !1878

"_ZN70_$LT$theo..interrupts..SAFE_IDT$u20$as$u20$core..ops..deref..Deref$GT$5deref23__static_ref_initialize17h6add1fc22a047919E.exit": ; preds = %bb6.i
; call <x86_64::structures::idt::InterruptDescriptorTable as core::ops::index::IndexMut<usize>>::index_mut
  %_21.i = call align 4 ptr @"_ZN109_$LT$x86_64..structures..idt..InterruptDescriptorTable$u20$as$u20$core..ops..index..IndexMut$LT$usize$GT$$GT$9index_mut17hade7b6830a6e754eE"(ptr align 16 %idt.i, i64 33, ptr align 8 @alloc_89145f0e94d32249f13126908daaef05) #9, !dbg !1879
; call x86_64::structures::idt::Entry<extern "x86.interrupt" fn(x86_64::structures::idt::InterruptStackFrame)>::set_handler_fn
  %_20.i = call align 2 ptr @"_ZN6x86_6410structures3idt106Entry$LT$extern$u20$$u22$x86.interrupt$u22$$u20$fn$LP$x86_64..structures..idt..InterruptStackFrame$RP$$GT$14set_handler_fn17h81776604265f6f3eE"(ptr align 4 %_21.i, ptr @_ZN4theo10interrupts16keyboard_handler17h34d4c75684987bc7E) #9, !dbg !1880
  call void @llvm.memcpy.p0.p0.i64(ptr align 16 %_27.i, ptr align 16 %idt.i, i64 4096, i1 false), !dbg !1881
; call cpu_interrupts::interrupt_descriptor_table::SafeInterruptDescriptorTable::from
  call void @_ZN14cpu_interrupts26interrupt_descriptor_table28SafeInterruptDescriptorTable4from17hafaa57c060e482eaE(ptr sret(%"cpu_interrupts::interrupt_descriptor_table::SafeInterruptDescriptorTable") align 16 %_0, ptr align 16 %_27.i) #9, !dbg !1882
  ret void, !dbg !1862
}

; core::ops::function::FnOnce::call_once
; Function Attrs: inlinehint noredzone nounwind
define internal void @_ZN4core3ops8function6FnOnce9call_once17hf09d7003a9f1562cE(ptr sret(%"spin::mutex::Mutex<keyboard::Keyboard<pc_keyboard::layouts::us104::Us104Key, pc_keyboard::scancodes::set1::ScancodeSet1>>") align 2 %_0) unnamed_addr #0 !dbg !1883 {
start:
  %0 = alloca i8, align 1
  %_3.i.i = alloca %"core::cell::UnsafeCell<keyboard::Keyboard<pc_keyboard::layouts::us104::Us104Key, pc_keyboard::scancodes::set1::ScancodeSet1>>", align 2
  %_2.i1.i = alloca %"core::sync::atomic::AtomicBool", align 1
  %_2.i.i = alloca %"spin::mutex::spin::SpinMutex<keyboard::Keyboard<pc_keyboard::layouts::us104::Us104Key, pc_keyboard::scancodes::set1::ScancodeSet1>>", align 2
  %_1.i = alloca %"keyboard::Keyboard<pc_keyboard::layouts::us104::Us104Key, pc_keyboard::scancodes::set1::ScancodeSet1>", align 2
  %_1.dbg.spill = alloca {}, align 1
  %_2 = alloca {}, align 1
  call void @llvm.dbg.declare(metadata ptr %_1.dbg.spill, metadata !1890, metadata !DIExpression()), !dbg !1894
  call void @llvm.dbg.declare(metadata ptr %_2, metadata !1891, metadata !DIExpression()), !dbg !1894
; call keyboard::Keyboard<L,S>::us_scancode_set_one_keyboard
  call void @"_ZN8keyboard21Keyboard$LT$L$C$S$GT$28us_scancode_set_one_keyboard17h124dec7e95546a1fE"(ptr sret(%"keyboard::Keyboard<pc_keyboard::layouts::us104::Us104Key, pc_keyboard::scancodes::set1::ScancodeSet1>") align 2 %_1.i) #9, !dbg !1895
  call void @llvm.dbg.declare(metadata ptr %_1.i, metadata !1899, metadata !DIExpression()), !dbg !1905
  call void @llvm.dbg.declare(metadata ptr %_1.i, metadata !1907, metadata !DIExpression()), !dbg !1913
; call core::sync::atomic::AtomicBool::new
  %1 = call i8 @_ZN4core4sync6atomic10AtomicBool3new17h187daaa8ec0d44bcE(i1 zeroext false) #9, !dbg !1915
  store i8 %1, ptr %0, align 1, !dbg !1915
  call void @llvm.memcpy.p0.p0.i64(ptr align 1 %_2.i1.i, ptr align 1 %0, i64 1, i1 false), !dbg !1915
  call void @llvm.dbg.declare(metadata ptr %_1.i, metadata !1916, metadata !DIExpression()), !dbg !1922
  call void @llvm.memcpy.p0.p0.i64(ptr align 2 %_3.i.i, ptr align 2 %_1.i, i64 16, i1 false), !dbg !1924
  call void @llvm.memcpy.p0.p0.i64(ptr align 2 %_2.i.i, ptr align 1 %_2.i1.i, i64 1, i1 false), !dbg !1925
  %2 = getelementptr inbounds %"spin::mutex::spin::SpinMutex<keyboard::Keyboard<pc_keyboard::layouts::us104::Us104Key, pc_keyboard::scancodes::set1::ScancodeSet1>>", ptr %_2.i.i, i32 0, i32 3, !dbg !1925
  call void @llvm.memcpy.p0.p0.i64(ptr align 2 %2, ptr align 2 %_3.i.i, i64 16, i1 false), !dbg !1925
  call void @llvm.memcpy.p0.p0.i64(ptr align 2 %_0, ptr align 2 %_2.i.i, i64 18, i1 false), !dbg !1926
  ret void, !dbg !1894
}

; core::ptr::drop_in_place<spin::mutex::MutexGuard<keyboard::Keyboard<pc_keyboard::layouts::us104::Us104Key,pc_keyboard::scancodes::set1::ScancodeSet1>>>
; Function Attrs: noredzone nounwind
define internal void @"_ZN4core3ptr160drop_in_place$LT$spin..mutex..MutexGuard$LT$keyboard..Keyboard$LT$pc_keyboard..layouts..us104..Us104Key$C$pc_keyboard..scancodes..set1..ScancodeSet1$GT$$GT$$GT$17hffc62891f34126a5E"(ptr align 8 %_1) unnamed_addr #1 !dbg !1927 {
start:
  %_1.dbg.spill = alloca ptr, align 8
  store ptr %_1, ptr %_1.dbg.spill, align 8
  call void @llvm.dbg.declare(metadata ptr %_1.dbg.spill, metadata !1943, metadata !DIExpression()), !dbg !1946
; call core::ptr::drop_in_place<spin::mutex::spin::SpinMutexGuard<keyboard::Keyboard<pc_keyboard::layouts::us104::Us104Key,pc_keyboard::scancodes::set1::ScancodeSet1>>>
  call void @"_ZN4core3ptr170drop_in_place$LT$spin..mutex..spin..SpinMutexGuard$LT$keyboard..Keyboard$LT$pc_keyboard..layouts..us104..Us104Key$C$pc_keyboard..scancodes..set1..ScancodeSet1$GT$$GT$$GT$17hdeb059d69c7bc506E"(ptr align 8 %_1) #9, !dbg !1946
  ret void, !dbg !1946
}

; core::ptr::drop_in_place<spin::mutex::spin::SpinMutexGuard<keyboard::Keyboard<pc_keyboard::layouts::us104::Us104Key,pc_keyboard::scancodes::set1::ScancodeSet1>>>
; Function Attrs: noredzone nounwind
define internal void @"_ZN4core3ptr170drop_in_place$LT$spin..mutex..spin..SpinMutexGuard$LT$keyboard..Keyboard$LT$pc_keyboard..layouts..us104..Us104Key$C$pc_keyboard..scancodes..set1..ScancodeSet1$GT$$GT$$GT$17hdeb059d69c7bc506E"(ptr align 8 %_1) unnamed_addr #1 !dbg !1947 {
start:
  %_1.dbg.spill = alloca ptr, align 8
  store ptr %_1, ptr %_1.dbg.spill, align 8
  call void @llvm.dbg.declare(metadata ptr %_1.dbg.spill, metadata !1952, metadata !DIExpression()), !dbg !1955
; call <spin::mutex::spin::SpinMutexGuard<T> as core::ops::drop::Drop>::drop
  call void @"_ZN84_$LT$spin..mutex..spin..SpinMutexGuard$LT$T$GT$$u20$as$u20$core..ops..drop..Drop$GT$4drop17h1b1b22cfd857ac43E"(ptr align 8 %_1) #9, !dbg !1955
  ret void, !dbg !1955
}

; core::ptr::drop_in_place<u32>
; Function Attrs: inlinehint noredzone nounwind
define internal void @"_ZN4core3ptr24drop_in_place$LT$u32$GT$17h3e28be04197e3931E"(ptr align 4 %_1) unnamed_addr #0 !dbg !1956 {
start:
  %_1.dbg.spill = alloca ptr, align 8
  store ptr %_1, ptr %_1.dbg.spill, align 8
  call void @llvm.dbg.declare(metadata ptr %_1.dbg.spill, metadata !1961, metadata !DIExpression()), !dbg !1964
  ret void, !dbg !1964
}

; core::ptr::drop_in_place<bool>
; Function Attrs: inlinehint noredzone nounwind
define internal void @"_ZN4core3ptr25drop_in_place$LT$bool$GT$17h3332b70a580a04d5E"(ptr align 1 %_1) unnamed_addr #0 !dbg !1965 {
start:
  %_1.dbg.spill = alloca ptr, align 8
  store ptr %_1, ptr %_1.dbg.spill, align 8
  call void @llvm.dbg.declare(metadata ptr %_1.dbg.spill, metadata !1970, metadata !DIExpression()), !dbg !1971
  ret void, !dbg !1971
}

; core::ptr::drop_in_place<&str>
; Function Attrs: inlinehint noredzone nounwind
define internal void @"_ZN4core3ptr28drop_in_place$LT$$RF$str$GT$17h2aac017f2201e95dE"(ptr align 8 %_1) unnamed_addr #0 !dbg !1972 {
start:
  %_1.dbg.spill = alloca ptr, align 8
  store ptr %_1, ptr %_1.dbg.spill, align 8
  call void @llvm.dbg.declare(metadata ptr %_1.dbg.spill, metadata !1977, metadata !DIExpression()), !dbg !1980
  ret void, !dbg !1980
}

; core::ptr::drop_in_place<&u32>
; Function Attrs: inlinehint noredzone nounwind
define internal void @"_ZN4core3ptr28drop_in_place$LT$$RF$u32$GT$17hfa714a7701f4beaeE"(ptr align 8 %_1) unnamed_addr #0 !dbg !1981 {
start:
  %_1.dbg.spill = alloca ptr, align 8
  store ptr %_1, ptr %_1.dbg.spill, align 8
  call void @llvm.dbg.declare(metadata ptr %_1.dbg.spill, metadata !1986, metadata !DIExpression()), !dbg !1989
  ret void, !dbg !1989
}

; core::ptr::drop_in_place<&bool>
; Function Attrs: inlinehint noredzone nounwind
define internal void @"_ZN4core3ptr29drop_in_place$LT$$RF$bool$GT$17h5a2038aaa9ac62b1E"(ptr align 8 %_1) unnamed_addr #0 !dbg !1990 {
start:
  %_1.dbg.spill = alloca ptr, align 8
  store ptr %_1, ptr %_1.dbg.spill, align 8
  call void @llvm.dbg.declare(metadata ptr %_1.dbg.spill, metadata !1995, metadata !DIExpression()), !dbg !1998
  ret void, !dbg !1998
}

; core::ptr::drop_in_place<vga::Screen>
; Function Attrs: inlinehint noredzone nounwind
define internal void @"_ZN4core3ptr32drop_in_place$LT$vga..Screen$GT$17h47bc60bcaae77c41E"(ptr align 8 %_1) unnamed_addr #0 !dbg !1999 {
start:
  %_1.dbg.spill = alloca ptr, align 8
  store ptr %_1, ptr %_1.dbg.spill, align 8
  call void @llvm.dbg.declare(metadata ptr %_1.dbg.spill, metadata !2004, metadata !DIExpression()), !dbg !2005
  ret void, !dbg !2005
}

; core::ptr::drop_in_place<&&core::fmt::Arguments>
; Function Attrs: inlinehint noredzone nounwind
define internal void @"_ZN4core3ptr49drop_in_place$LT$$RF$$RF$core..fmt..Arguments$GT$17h6a4c79cf50d1cc66E"(ptr align 8 %_1) unnamed_addr #0 !dbg !2006 {
start:
  %_1.dbg.spill = alloca ptr, align 8
  store ptr %_1, ptr %_1.dbg.spill, align 8
  call void @llvm.dbg.declare(metadata ptr %_1.dbg.spill, metadata !2011, metadata !DIExpression()), !dbg !2014
  ret void, !dbg !2014
}

; core::ptr::drop_in_place<&core::panic::location::Location>
; Function Attrs: inlinehint noredzone nounwind
define internal void @"_ZN4core3ptr56drop_in_place$LT$$RF$core..panic..location..Location$GT$17h769dcb7cf7c3b8e3E"(ptr align 8 %_1) unnamed_addr #0 !dbg !2015 {
start:
  %_1.dbg.spill = alloca ptr, align 8
  store ptr %_1, ptr %_1.dbg.spill, align 8
  call void @llvm.dbg.declare(metadata ptr %_1.dbg.spill, metadata !2020, metadata !DIExpression()), !dbg !2023
  ret void, !dbg !2023
}

; core::ptr::drop_in_place<spin::mutex::MutexGuard<vga::Screen>>
; Function Attrs: noredzone nounwind
define internal void @"_ZN4core3ptr63drop_in_place$LT$spin..mutex..MutexGuard$LT$vga..Screen$GT$$GT$17h22f8cfd866939958E"(ptr align 8 %_1) unnamed_addr #1 !dbg !2024 {
start:
  %_1.dbg.spill = alloca ptr, align 8
  store ptr %_1, ptr %_1.dbg.spill, align 8
  call void @llvm.dbg.declare(metadata ptr %_1.dbg.spill, metadata !2036, metadata !DIExpression()), !dbg !2039
; call core::ptr::drop_in_place<spin::mutex::spin::SpinMutexGuard<vga::Screen>>
  call void @"_ZN4core3ptr73drop_in_place$LT$spin..mutex..spin..SpinMutexGuard$LT$vga..Screen$GT$$GT$17h0b619d009a1750aaE"(ptr align 8 %_1) #9, !dbg !2039
  ret void, !dbg !2039
}

; core::ptr::drop_in_place<&x86_64::structures::idt::_::InternalBitFlags>
; Function Attrs: inlinehint noredzone nounwind
define internal void @"_ZN4core3ptr69drop_in_place$LT$$RF$x86_64..structures..idt.._..InternalBitFlags$GT$17h028bbe1fe7c5dc61E"(ptr align 8 %_1) unnamed_addr #0 !dbg !2040 {
start:
  %_1.dbg.spill = alloca ptr, align 8
  store ptr %_1, ptr %_1.dbg.spill, align 8
  call void @llvm.dbg.declare(metadata ptr %_1.dbg.spill, metadata !2045, metadata !DIExpression()), !dbg !2048
  ret void, !dbg !2048
}

; core::ptr::drop_in_place<&dyn core::any::Any+core::marker::Send>
; Function Attrs: inlinehint noredzone nounwind
define internal void @"_ZN4core3ptr70drop_in_place$LT$$RF$dyn$u20$core..any..Any$u2b$core..marker..Send$GT$17h819ac95864651a47E"(ptr align 8 %_1) unnamed_addr #0 !dbg !2049 {
start:
  %_1.dbg.spill = alloca ptr, align 8
  store ptr %_1, ptr %_1.dbg.spill, align 8
  call void @llvm.dbg.declare(metadata ptr %_1.dbg.spill, metadata !2054, metadata !DIExpression()), !dbg !2057
  ret void, !dbg !2057
}

; core::ptr::drop_in_place<core::option::Option<&core::fmt::Arguments>>
; Function Attrs: inlinehint noredzone nounwind
define internal void @"_ZN4core3ptr73drop_in_place$LT$core..option..Option$LT$$RF$core..fmt..Arguments$GT$$GT$17h99ec4da07ce46419E"(ptr align 8 %_1) unnamed_addr #0 !dbg !2058 {
start:
  %_1.dbg.spill = alloca ptr, align 8
  store ptr %_1, ptr %_1.dbg.spill, align 8
  call void @llvm.dbg.declare(metadata ptr %_1.dbg.spill, metadata !2063, metadata !DIExpression()), !dbg !2066
  ret void, !dbg !2066
}

; core::ptr::drop_in_place<spin::mutex::spin::SpinMutexGuard<vga::Screen>>
; Function Attrs: noredzone nounwind
define internal void @"_ZN4core3ptr73drop_in_place$LT$spin..mutex..spin..SpinMutexGuard$LT$vga..Screen$GT$$GT$17h0b619d009a1750aaE"(ptr align 8 %_1) unnamed_addr #1 !dbg !2067 {
start:
  %_1.dbg.spill = alloca ptr, align 8
  store ptr %_1, ptr %_1.dbg.spill, align 8
  call void @llvm.dbg.declare(metadata ptr %_1.dbg.spill, metadata !2072, metadata !DIExpression()), !dbg !2075
; call <spin::mutex::spin::SpinMutexGuard<T> as core::ops::drop::Drop>::drop
  call void @"_ZN84_$LT$spin..mutex..spin..SpinMutexGuard$LT$T$GT$$u20$as$u20$core..ops..drop..Drop$GT$4drop17h1f76c0e611e2efbeE"(ptr align 8 %_1) #9, !dbg !2075
  ret void, !dbg !2075
}

; core::str::converts::from_utf8_unchecked_mut
; Function Attrs: inlinehint noredzone nounwind
define internal { ptr, i64 } @_ZN4core3str8converts23from_utf8_unchecked_mut17h40ea98508f44d588E(ptr align 1 %v.0, i64 %v.1) unnamed_addr #0 !dbg !2076 {
start:
  %v.dbg.spill = alloca { ptr, i64 }, align 8
  store ptr %v.0, ptr %v.dbg.spill, align 8
  %0 = getelementptr inbounds i8, ptr %v.dbg.spill, i64 8
  store i64 %v.1, ptr %0, align 8
  call void @llvm.dbg.declare(metadata ptr %v.dbg.spill, metadata !2091, metadata !DIExpression()), !dbg !2092
  %1 = insertvalue { ptr, i64 } poison, ptr %v.0, 0, !dbg !2093
  %2 = insertvalue { ptr, i64 } %1, i64 %v.1, 1, !dbg !2093
  ret { ptr, i64 } %2, !dbg !2093
}

; core::char::methods::encode_utf8_raw
; Function Attrs: inlinehint noredzone nounwind
define internal { ptr, i64 } @_ZN4core4char7methods15encode_utf8_raw17h5dedff8888537872E(i32 %0, ptr align 1 %dst.0, i64 %dst.1) unnamed_addr #0 !dbg !2094 {
start:
  %f.dbg.spill.i23 = alloca ptr, align 8
  %x.dbg.spill.i24 = alloca ptr, align 8
  %_0.i25 = alloca %"core::fmt::rt::Argument<'_>", align 8
  %f.dbg.spill.i20 = alloca ptr, align 8
  %x.dbg.spill.i21 = alloca ptr, align 8
  %_0.i22 = alloca %"core::fmt::rt::Argument<'_>", align 8
  %f.dbg.spill.i = alloca ptr, align 8
  %x.dbg.spill.i19 = alloca ptr, align 8
  %_0.i = alloca %"core::fmt::rt::Argument<'_>", align 8
  %x.dbg.spill.i16 = alloca ptr, align 8
  %x.dbg.spill.i13 = alloca ptr, align 8
  %x.dbg.spill.i = alloca ptr, align 8
  %d.dbg.spill = alloca ptr, align 8
  %c.dbg.spill12 = alloca ptr, align 8
  %b.dbg.spill10 = alloca ptr, align 8
  %a.dbg.spill8 = alloca ptr, align 8
  %c.dbg.spill = alloca ptr, align 8
  %b.dbg.spill6 = alloca ptr, align 8
  %a.dbg.spill4 = alloca ptr, align 8
  %b.dbg.spill = alloca ptr, align 8
  %a.dbg.spill2 = alloca ptr, align 8
  %a.dbg.spill = alloca ptr, align 8
  %dst.dbg.spill = alloca { ptr, i64 }, align 8
  %_90 = alloca i64, align 8
  %_88 = alloca i64, align 8
  %_81 = alloca [3 x %"core::fmt::rt::Argument<'_>"], align 8
  %_77 = alloca %"core::fmt::Arguments<'_>", align 8
  %_5 = alloca { i64, { ptr, i64 } }, align 8
  %len = alloca i64, align 8
  %code = alloca i32, align 4
  store i32 %0, ptr %code, align 4
  call void @llvm.dbg.declare(metadata ptr %code, metadata !2101, metadata !DIExpression()), !dbg !2120
  store ptr %dst.0, ptr %dst.dbg.spill, align 8
  %1 = getelementptr inbounds i8, ptr %dst.dbg.spill, i64 8
  store i64 %dst.1, ptr %1, align 8
  call void @llvm.dbg.declare(metadata ptr %dst.dbg.spill, metadata !2102, metadata !DIExpression()), !dbg !2121
  call void @llvm.dbg.declare(metadata ptr %len, metadata !2103, metadata !DIExpression()), !dbg !2122
  %_4 = load i32, ptr %code, align 4, !dbg !2123, !noundef !29
; call core::char::methods::len_utf8
  %2 = call i64 @_ZN4core4char7methods8len_utf817hcdef8757b91bf382E(i32 %_4) #9, !dbg !2124
  store i64 %2, ptr %len, align 8, !dbg !2124
  %_6 = load i64, ptr %len, align 8, !dbg !2125, !noundef !29
; call core::slice::index::<impl core::ops::index::IndexMut<I> for [T]>::index_mut
  %3 = call { ptr, i64 } @"_ZN4core5slice5index77_$LT$impl$u20$core..ops..index..IndexMut$LT$I$GT$$u20$for$u20$$u5b$T$u5d$$GT$9index_mut17h778d43c2bf260498E"(ptr align 1 %dst.0, i64 %dst.1, ptr align 8 @alloc_2ed0ddeddb532c1b94163078c0508318) #9, !dbg !2126
  %_7.0 = extractvalue { ptr, i64 } %3, 0, !dbg !2126
  %_7.1 = extractvalue { ptr, i64 } %3, 1, !dbg !2126
  store i64 %_6, ptr %_5, align 8, !dbg !2127
  %4 = getelementptr inbounds { i64, { ptr, i64 } }, ptr %_5, i32 0, i32 1, !dbg !2127
  store ptr %_7.0, ptr %4, align 8, !dbg !2127
  %5 = getelementptr inbounds i8, ptr %4, i64 8, !dbg !2127
  store i64 %_7.1, ptr %5, align 8, !dbg !2127
  %6 = load i64, ptr %_5, align 8, !dbg !2128, !noundef !29
  switch i64 %6, label %bb4 [
    i64 1, label %bb3
    i64 2, label %bb5
    i64 3, label %bb6
    i64 4, label %bb7
  ], !dbg !2128

bb4:                                              ; preds = %bb7, %bb6, %bb5, %bb3, %start
  store ptr %len, ptr %x.dbg.spill.i13, align 8
  call void @llvm.dbg.declare(metadata ptr %x.dbg.spill.i13, metadata !1152, metadata !DIExpression()), !dbg !2129
  store ptr %len, ptr %x.dbg.spill.i19, align 8
  call void @llvm.dbg.declare(metadata ptr %x.dbg.spill.i19, metadata !1162, metadata !DIExpression()), !dbg !2131
  store ptr @"_ZN4core3fmt3num3imp54_$LT$impl$u20$core..fmt..Display$u20$for$u20$usize$GT$3fmt17h80a10afcf66c16d6E", ptr %f.dbg.spill.i, align 8
  call void @llvm.dbg.declare(metadata ptr %f.dbg.spill.i, metadata !1171, metadata !DIExpression()), !dbg !2133
  store ptr %len, ptr %_0.i, align 8, !dbg !2134
  %7 = getelementptr inbounds i8, ptr %_0.i, i64 8, !dbg !2134
  store ptr @"_ZN4core3fmt3num3imp54_$LT$impl$u20$core..fmt..Display$u20$for$u20$usize$GT$3fmt17h80a10afcf66c16d6E", ptr %7, align 8, !dbg !2134
  %8 = load ptr, ptr %_0.i, align 8, !dbg !2135, !nonnull !29, !align !1177, !noundef !29
  %9 = getelementptr inbounds i8, ptr %_0.i, i64 8, !dbg !2135
  %10 = load ptr, ptr %9, align 8, !dbg !2135, !nonnull !29, !noundef !29
  %11 = insertvalue { ptr, ptr } poison, ptr %8, 0, !dbg !2135
  %12 = insertvalue { ptr, ptr } %11, ptr %10, 1, !dbg !2135
  %_0.0.i14 = extractvalue { ptr, ptr } %12, 0, !dbg !2136
  %_0.1.i15 = extractvalue { ptr, ptr } %12, 1, !dbg !2136
  %_82.0 = extractvalue { ptr, ptr } %12, 0, !dbg !2137
  %_82.1 = extractvalue { ptr, ptr } %12, 1, !dbg !2137
  store ptr %code, ptr %x.dbg.spill.i16, align 8
  call void @llvm.dbg.declare(metadata ptr %x.dbg.spill.i16, metadata !2138, metadata !DIExpression()), !dbg !2144
  store ptr %code, ptr %x.dbg.spill.i24, align 8
  call void @llvm.dbg.declare(metadata ptr %x.dbg.spill.i24, metadata !2146, metadata !DIExpression()), !dbg !2154
  store ptr @"_ZN4core3fmt3num53_$LT$impl$u20$core..fmt..UpperHex$u20$for$u20$u32$GT$3fmt17h051b32d0612997e4E", ptr %f.dbg.spill.i23, align 8
  call void @llvm.dbg.declare(metadata ptr %f.dbg.spill.i23, metadata !2153, metadata !DIExpression()), !dbg !2156
  store ptr %code, ptr %_0.i25, align 8, !dbg !2157
  %13 = getelementptr inbounds i8, ptr %_0.i25, i64 8, !dbg !2157
  store ptr @"_ZN4core3fmt3num53_$LT$impl$u20$core..fmt..UpperHex$u20$for$u20$u32$GT$3fmt17h051b32d0612997e4E", ptr %13, align 8, !dbg !2157
  %14 = load ptr, ptr %_0.i25, align 8, !dbg !2158, !nonnull !29, !align !1177, !noundef !29
  %15 = getelementptr inbounds i8, ptr %_0.i25, i64 8, !dbg !2158
  %16 = load ptr, ptr %15, align 8, !dbg !2158, !nonnull !29, !noundef !29
  %17 = insertvalue { ptr, ptr } poison, ptr %14, 0, !dbg !2158
  %18 = insertvalue { ptr, ptr } %17, ptr %16, 1, !dbg !2158
  %_0.0.i17 = extractvalue { ptr, ptr } %18, 0, !dbg !2159
  %_0.1.i18 = extractvalue { ptr, ptr } %18, 1, !dbg !2159
  %_84.0 = extractvalue { ptr, ptr } %18, 0, !dbg !2137
  %_84.1 = extractvalue { ptr, ptr } %18, 1, !dbg !2137
  store i64 %dst.1, ptr %_88, align 8, !dbg !2160
  store ptr %_88, ptr %x.dbg.spill.i, align 8
  call void @llvm.dbg.declare(metadata ptr %x.dbg.spill.i, metadata !1152, metadata !DIExpression()), !dbg !2161
  store ptr %_88, ptr %x.dbg.spill.i21, align 8
  call void @llvm.dbg.declare(metadata ptr %x.dbg.spill.i21, metadata !1162, metadata !DIExpression()), !dbg !2163
  store ptr @"_ZN4core3fmt3num3imp54_$LT$impl$u20$core..fmt..Display$u20$for$u20$usize$GT$3fmt17h80a10afcf66c16d6E", ptr %f.dbg.spill.i20, align 8
  call void @llvm.dbg.declare(metadata ptr %f.dbg.spill.i20, metadata !1171, metadata !DIExpression()), !dbg !2165
  store ptr %_88, ptr %_0.i22, align 8, !dbg !2166
  %19 = getelementptr inbounds i8, ptr %_0.i22, i64 8, !dbg !2166
  store ptr @"_ZN4core3fmt3num3imp54_$LT$impl$u20$core..fmt..Display$u20$for$u20$usize$GT$3fmt17h80a10afcf66c16d6E", ptr %19, align 8, !dbg !2166
  %20 = load ptr, ptr %_0.i22, align 8, !dbg !2167, !nonnull !29, !align !1177, !noundef !29
  %21 = getelementptr inbounds i8, ptr %_0.i22, i64 8, !dbg !2167
  %22 = load ptr, ptr %21, align 8, !dbg !2167, !nonnull !29, !noundef !29
  %23 = insertvalue { ptr, ptr } poison, ptr %20, 0, !dbg !2167
  %24 = insertvalue { ptr, ptr } %23, ptr %22, 1, !dbg !2167
  %_0.0.i = extractvalue { ptr, ptr } %24, 0, !dbg !2168
  %_0.1.i = extractvalue { ptr, ptr } %24, 1, !dbg !2168
  %_86.0 = extractvalue { ptr, ptr } %24, 0, !dbg !2137
  %_86.1 = extractvalue { ptr, ptr } %24, 1, !dbg !2137
  %25 = getelementptr inbounds [3 x %"core::fmt::rt::Argument<'_>"], ptr %_81, i64 0, i64 0, !dbg !2137
  store ptr %_82.0, ptr %25, align 8, !dbg !2137
  %26 = getelementptr inbounds i8, ptr %25, i64 8, !dbg !2137
  store ptr %_82.1, ptr %26, align 8, !dbg !2137
  %27 = getelementptr inbounds [3 x %"core::fmt::rt::Argument<'_>"], ptr %_81, i64 0, i64 1, !dbg !2137
  store ptr %_84.0, ptr %27, align 8, !dbg !2137
  %28 = getelementptr inbounds i8, ptr %27, i64 8, !dbg !2137
  store ptr %_84.1, ptr %28, align 8, !dbg !2137
  %29 = getelementptr inbounds [3 x %"core::fmt::rt::Argument<'_>"], ptr %_81, i64 0, i64 2, !dbg !2137
  store ptr %_86.0, ptr %29, align 8, !dbg !2137
  %30 = getelementptr inbounds i8, ptr %29, i64 8, !dbg !2137
  store ptr %_86.1, ptr %30, align 8, !dbg !2137
; call core::fmt::Arguments::new_v1
  call void @_ZN4core3fmt9Arguments6new_v117ha494606c5fd7a7a7E(ptr sret(%"core::fmt::Arguments<'_>") align 8 %_77, ptr align 8 @alloc_d51214f097f67314513b76e97e13aa6b, i64 3, ptr align 8 %_81, i64 3) #9, !dbg !2137
; call core::panicking::panic_fmt
  call void @_ZN4core9panicking9panic_fmt17ha5e30ccfbdd0aed8E(ptr align 8 %_77, ptr align 8 @alloc_24ea739765840a624c78c8023d612164) #11, !dbg !2137
  unreachable, !dbg !2137

bb3:                                              ; preds = %start
  %31 = getelementptr inbounds { i64, { ptr, i64 } }, ptr %_5, i32 0, i32 1, !dbg !2169
  %_93.0 = load ptr, ptr %31, align 8, !dbg !2169, !nonnull !29, !align !1177, !noundef !29
  %32 = getelementptr inbounds i8, ptr %31, i64 8, !dbg !2169
  %_93.1 = load i64, ptr %32, align 8, !dbg !2169, !noundef !29
  %_10 = icmp uge i64 %_93.1, 1, !dbg !2169
  br i1 %_10, label %bb8, label %bb4, !dbg !2169

bb5:                                              ; preds = %start
  %33 = getelementptr inbounds { i64, { ptr, i64 } }, ptr %_5, i32 0, i32 1, !dbg !2170
  %_94.0 = load ptr, ptr %33, align 8, !dbg !2170, !nonnull !29, !align !1177, !noundef !29
  %34 = getelementptr inbounds i8, ptr %33, i64 8, !dbg !2170
  %_94.1 = load i64, ptr %34, align 8, !dbg !2170, !noundef !29
  %_13 = icmp uge i64 %_94.1, 2, !dbg !2170
  br i1 %_13, label %bb9, label %bb4, !dbg !2170

bb6:                                              ; preds = %start
  %35 = getelementptr inbounds { i64, { ptr, i64 } }, ptr %_5, i32 0, i32 1, !dbg !2171
  %_95.0 = load ptr, ptr %35, align 8, !dbg !2171, !nonnull !29, !align !1177, !noundef !29
  %36 = getelementptr inbounds i8, ptr %35, i64 8, !dbg !2171
  %_95.1 = load i64, ptr %36, align 8, !dbg !2171, !noundef !29
  %_16 = icmp uge i64 %_95.1, 3, !dbg !2171
  br i1 %_16, label %bb11, label %bb4, !dbg !2171

bb7:                                              ; preds = %start
  %37 = getelementptr inbounds { i64, { ptr, i64 } }, ptr %_5, i32 0, i32 1, !dbg !2172
  %_96.0 = load ptr, ptr %37, align 8, !dbg !2172, !nonnull !29, !align !1177, !noundef !29
  %38 = getelementptr inbounds i8, ptr %37, i64 8, !dbg !2172
  %_96.1 = load i64, ptr %38, align 8, !dbg !2172, !noundef !29
  %_19 = icmp uge i64 %_96.1, 4, !dbg !2172
  br i1 %_19, label %bb14, label %bb4, !dbg !2172

bb8:                                              ; preds = %bb3
  %39 = getelementptr inbounds { i64, { ptr, i64 } }, ptr %_5, i32 0, i32 1, !dbg !2173
  %_97.0 = load ptr, ptr %39, align 8, !dbg !2173, !nonnull !29, !align !1177, !noundef !29
  %40 = getelementptr inbounds i8, ptr %39, i64 8, !dbg !2173
  %_97.1 = load i64, ptr %40, align 8, !dbg !2173, !noundef !29
  %a = getelementptr inbounds [0 x i8], ptr %_97.0, i64 0, i64 0, !dbg !2173
  store ptr %a, ptr %a.dbg.spill, align 8, !dbg !2173
  call void @llvm.dbg.declare(metadata ptr %a.dbg.spill, metadata !2105, metadata !DIExpression()), !dbg !2174
  %_21 = load i32, ptr %code, align 4, !dbg !2175, !noundef !29
  %41 = trunc i32 %_21 to i8, !dbg !2176
  store i8 %41, ptr %a, align 1, !dbg !2176
  br label %bb22, !dbg !2177

bb22:                                             ; preds = %bb14, %bb11, %bb9, %bb8
  %_91 = load i64, ptr %len, align 8, !dbg !2178, !noundef !29
  store i64 %_91, ptr %_90, align 8, !dbg !2179
  %42 = load i64, ptr %_90, align 8, !dbg !2180, !noundef !29
; call core::slice::index::<impl core::ops::index::IndexMut<I> for [T]>::index_mut
  %43 = call { ptr, i64 } @"_ZN4core5slice5index77_$LT$impl$u20$core..ops..index..IndexMut$LT$I$GT$$u20$for$u20$$u5b$T$u5d$$GT$9index_mut17he299aac29fe8343dE"(ptr align 1 %dst.0, i64 %dst.1, i64 %42, ptr align 8 @alloc_9db81bec73d48154ecb538ccd002e626) #9, !dbg !2180
  %_0.0 = extractvalue { ptr, i64 } %43, 0, !dbg !2180
  %_0.1 = extractvalue { ptr, i64 } %43, 1, !dbg !2180
  %44 = insertvalue { ptr, i64 } poison, ptr %_0.0, 0, !dbg !2181
  %45 = insertvalue { ptr, i64 } %44, i64 %_0.1, 1, !dbg !2181
  ret { ptr, i64 } %45, !dbg !2181

bb9:                                              ; preds = %bb5
  %46 = getelementptr inbounds { i64, { ptr, i64 } }, ptr %_5, i32 0, i32 1, !dbg !2182
  %_98.0 = load ptr, ptr %46, align 8, !dbg !2182, !nonnull !29, !align !1177, !noundef !29
  %47 = getelementptr inbounds i8, ptr %46, i64 8, !dbg !2182
  %_98.1 = load i64, ptr %47, align 8, !dbg !2182, !noundef !29
  %a1 = getelementptr inbounds [0 x i8], ptr %_98.0, i64 0, i64 0, !dbg !2182
  store ptr %a1, ptr %a.dbg.spill2, align 8, !dbg !2182
  call void @llvm.dbg.declare(metadata ptr %a.dbg.spill2, metadata !2108, metadata !DIExpression()), !dbg !2183
  %48 = getelementptr inbounds { i64, { ptr, i64 } }, ptr %_5, i32 0, i32 1, !dbg !2184
  %_99.0 = load ptr, ptr %48, align 8, !dbg !2184, !nonnull !29, !align !1177, !noundef !29
  %49 = getelementptr inbounds i8, ptr %48, i64 8, !dbg !2184
  %_99.1 = load i64, ptr %49, align 8, !dbg !2184, !noundef !29
  %b = getelementptr inbounds [0 x i8], ptr %_99.0, i64 0, i64 1, !dbg !2184
  store ptr %b, ptr %b.dbg.spill, align 8, !dbg !2184
  call void @llvm.dbg.declare(metadata ptr %b.dbg.spill, metadata !2110, metadata !DIExpression()), !dbg !2185
  %_27 = load i32, ptr %code, align 4, !dbg !2186, !noundef !29
  %_26 = lshr i32 %_27, 6, !dbg !2186
  %_25 = and i32 %_26, 31, !dbg !2187
  %_24 = trunc i32 %_25 to i8, !dbg !2187
  %50 = or i8 %_24, -64, !dbg !2188
  store i8 %50, ptr %a1, align 1, !dbg !2188
  %_32 = load i32, ptr %code, align 4, !dbg !2189, !noundef !29
  %_31 = and i32 %_32, 63, !dbg !2190
  %_30 = trunc i32 %_31 to i8, !dbg !2190
  %51 = or i8 %_30, -128, !dbg !2191
  store i8 %51, ptr %b, align 1, !dbg !2191
  br label %bb22, !dbg !2192

bb11:                                             ; preds = %bb6
  %52 = getelementptr inbounds { i64, { ptr, i64 } }, ptr %_5, i32 0, i32 1, !dbg !2193
  %_100.0 = load ptr, ptr %52, align 8, !dbg !2193, !nonnull !29, !align !1177, !noundef !29
  %53 = getelementptr inbounds i8, ptr %52, i64 8, !dbg !2193
  %_100.1 = load i64, ptr %53, align 8, !dbg !2193, !noundef !29
  %a3 = getelementptr inbounds [0 x i8], ptr %_100.0, i64 0, i64 0, !dbg !2193
  store ptr %a3, ptr %a.dbg.spill4, align 8, !dbg !2193
  call void @llvm.dbg.declare(metadata ptr %a.dbg.spill4, metadata !2111, metadata !DIExpression()), !dbg !2194
  %54 = getelementptr inbounds { i64, { ptr, i64 } }, ptr %_5, i32 0, i32 1, !dbg !2195
  %_101.0 = load ptr, ptr %54, align 8, !dbg !2195, !nonnull !29, !align !1177, !noundef !29
  %55 = getelementptr inbounds i8, ptr %54, i64 8, !dbg !2195
  %_101.1 = load i64, ptr %55, align 8, !dbg !2195, !noundef !29
  %b5 = getelementptr inbounds [0 x i8], ptr %_101.0, i64 0, i64 1, !dbg !2195
  store ptr %b5, ptr %b.dbg.spill6, align 8, !dbg !2195
  call void @llvm.dbg.declare(metadata ptr %b.dbg.spill6, metadata !2113, metadata !DIExpression()), !dbg !2196
  %56 = getelementptr inbounds { i64, { ptr, i64 } }, ptr %_5, i32 0, i32 1, !dbg !2197
  %_102.0 = load ptr, ptr %56, align 8, !dbg !2197, !nonnull !29, !align !1177, !noundef !29
  %57 = getelementptr inbounds i8, ptr %56, i64 8, !dbg !2197
  %_102.1 = load i64, ptr %57, align 8, !dbg !2197, !noundef !29
  %c = getelementptr inbounds [0 x i8], ptr %_102.0, i64 0, i64 2, !dbg !2197
  store ptr %c, ptr %c.dbg.spill, align 8, !dbg !2197
  call void @llvm.dbg.declare(metadata ptr %c.dbg.spill, metadata !2114, metadata !DIExpression()), !dbg !2198
  %_39 = load i32, ptr %code, align 4, !dbg !2199, !noundef !29
  %_38 = lshr i32 %_39, 12, !dbg !2199
  %_37 = and i32 %_38, 15, !dbg !2200
  %_36 = trunc i32 %_37 to i8, !dbg !2200
  %58 = or i8 %_36, -32, !dbg !2201
  store i8 %58, ptr %a3, align 1, !dbg !2201
  %_45 = load i32, ptr %code, align 4, !dbg !2202, !noundef !29
  %_44 = lshr i32 %_45, 6, !dbg !2202
  %_43 = and i32 %_44, 63, !dbg !2203
  %_42 = trunc i32 %_43 to i8, !dbg !2203
  %59 = or i8 %_42, -128, !dbg !2204
  store i8 %59, ptr %b5, align 1, !dbg !2204
  %_50 = load i32, ptr %code, align 4, !dbg !2205, !noundef !29
  %_49 = and i32 %_50, 63, !dbg !2206
  %_48 = trunc i32 %_49 to i8, !dbg !2206
  %60 = or i8 %_48, -128, !dbg !2207
  store i8 %60, ptr %c, align 1, !dbg !2207
  br label %bb22, !dbg !2208

bb14:                                             ; preds = %bb7
  %61 = getelementptr inbounds { i64, { ptr, i64 } }, ptr %_5, i32 0, i32 1, !dbg !2209
  %_103.0 = load ptr, ptr %61, align 8, !dbg !2209, !nonnull !29, !align !1177, !noundef !29
  %62 = getelementptr inbounds i8, ptr %61, i64 8, !dbg !2209
  %_103.1 = load i64, ptr %62, align 8, !dbg !2209, !noundef !29
  %a7 = getelementptr inbounds [0 x i8], ptr %_103.0, i64 0, i64 0, !dbg !2209
  store ptr %a7, ptr %a.dbg.spill8, align 8, !dbg !2209
  call void @llvm.dbg.declare(metadata ptr %a.dbg.spill8, metadata !2115, metadata !DIExpression()), !dbg !2210
  %63 = getelementptr inbounds { i64, { ptr, i64 } }, ptr %_5, i32 0, i32 1, !dbg !2211
  %_104.0 = load ptr, ptr %63, align 8, !dbg !2211, !nonnull !29, !align !1177, !noundef !29
  %64 = getelementptr inbounds i8, ptr %63, i64 8, !dbg !2211
  %_104.1 = load i64, ptr %64, align 8, !dbg !2211, !noundef !29
  %b9 = getelementptr inbounds [0 x i8], ptr %_104.0, i64 0, i64 1, !dbg !2211
  store ptr %b9, ptr %b.dbg.spill10, align 8, !dbg !2211
  call void @llvm.dbg.declare(metadata ptr %b.dbg.spill10, metadata !2117, metadata !DIExpression()), !dbg !2212
  %65 = getelementptr inbounds { i64, { ptr, i64 } }, ptr %_5, i32 0, i32 1, !dbg !2213
  %_105.0 = load ptr, ptr %65, align 8, !dbg !2213, !nonnull !29, !align !1177, !noundef !29
  %66 = getelementptr inbounds i8, ptr %65, i64 8, !dbg !2213
  %_105.1 = load i64, ptr %66, align 8, !dbg !2213, !noundef !29
  %c11 = getelementptr inbounds [0 x i8], ptr %_105.0, i64 0, i64 2, !dbg !2213
  store ptr %c11, ptr %c.dbg.spill12, align 8, !dbg !2213
  call void @llvm.dbg.declare(metadata ptr %c.dbg.spill12, metadata !2118, metadata !DIExpression()), !dbg !2214
  %67 = getelementptr inbounds { i64, { ptr, i64 } }, ptr %_5, i32 0, i32 1, !dbg !2215
  %_106.0 = load ptr, ptr %67, align 8, !dbg !2215, !nonnull !29, !align !1177, !noundef !29
  %68 = getelementptr inbounds i8, ptr %67, i64 8, !dbg !2215
  %_106.1 = load i64, ptr %68, align 8, !dbg !2215, !noundef !29
  %d = getelementptr inbounds [0 x i8], ptr %_106.0, i64 0, i64 3, !dbg !2215
  store ptr %d, ptr %d.dbg.spill, align 8, !dbg !2215
  call void @llvm.dbg.declare(metadata ptr %d.dbg.spill, metadata !2119, metadata !DIExpression()), !dbg !2216
  %_58 = load i32, ptr %code, align 4, !dbg !2217, !noundef !29
  %_57 = lshr i32 %_58, 18, !dbg !2217
  %_56 = and i32 %_57, 7, !dbg !2218
  %_55 = trunc i32 %_56 to i8, !dbg !2218
  %69 = or i8 %_55, -16, !dbg !2219
  store i8 %69, ptr %a7, align 1, !dbg !2219
  %_64 = load i32, ptr %code, align 4, !dbg !2220, !noundef !29
  %_63 = lshr i32 %_64, 12, !dbg !2220
  %_62 = and i32 %_63, 63, !dbg !2221
  %_61 = trunc i32 %_62 to i8, !dbg !2221
  %70 = or i8 %_61, -128, !dbg !2222
  store i8 %70, ptr %b9, align 1, !dbg !2222
  %_70 = load i32, ptr %code, align 4, !dbg !2223, !noundef !29
  %_69 = lshr i32 %_70, 6, !dbg !2223
  %_68 = and i32 %_69, 63, !dbg !2224
  %_67 = trunc i32 %_68 to i8, !dbg !2224
  %71 = or i8 %_67, -128, !dbg !2225
  store i8 %71, ptr %c11, align 1, !dbg !2225
  %_75 = load i32, ptr %code, align 4, !dbg !2226, !noundef !29
  %_74 = and i32 %_75, 63, !dbg !2227
  %_73 = trunc i32 %_74 to i8, !dbg !2227
  %72 = or i8 %_73, -128, !dbg !2228
  store i8 %72, ptr %d, align 1, !dbg !2228
  br label %bb22, !dbg !2229
}

; core::char::methods::<impl char>::encode_utf8
; Function Attrs: inlinehint noredzone nounwind
define internal { ptr, i64 } @"_ZN4core4char7methods22_$LT$impl$u20$char$GT$11encode_utf817h937ad0e1156d63c4E"(i32 %self, ptr align 1 %dst.0, i64 %dst.1) unnamed_addr #0 !dbg !2230 {
start:
  %dst.dbg.spill = alloca { ptr, i64 }, align 8
  %self.dbg.spill = alloca i32, align 4
  store i32 %self, ptr %self.dbg.spill, align 4
  call void @llvm.dbg.declare(metadata ptr %self.dbg.spill, metadata !2235, metadata !DIExpression()), !dbg !2237
  store ptr %dst.0, ptr %dst.dbg.spill, align 8
  %0 = getelementptr inbounds i8, ptr %dst.dbg.spill, i64 8
  store i64 %dst.1, ptr %0, align 8
  call void @llvm.dbg.declare(metadata ptr %dst.dbg.spill, metadata !2236, metadata !DIExpression()), !dbg !2238
; call core::char::methods::encode_utf8_raw
  %1 = call { ptr, i64 } @_ZN4core4char7methods15encode_utf8_raw17h5dedff8888537872E(i32 %self, ptr align 1 %dst.0, i64 %dst.1) #9, !dbg !2239
  %_3.0 = extractvalue { ptr, i64 } %1, 0, !dbg !2239
  %_3.1 = extractvalue { ptr, i64 } %1, 1, !dbg !2239
; call core::str::converts::from_utf8_unchecked_mut
  %2 = call { ptr, i64 } @_ZN4core3str8converts23from_utf8_unchecked_mut17h40ea98508f44d588E(ptr align 1 %_3.0, i64 %_3.1) #9, !dbg !2240
  %_0.0 = extractvalue { ptr, i64 } %2, 0, !dbg !2240
  %_0.1 = extractvalue { ptr, i64 } %2, 1, !dbg !2240
  %3 = insertvalue { ptr, i64 } poison, ptr %_0.0, 0, !dbg !2241
  %4 = insertvalue { ptr, i64 } %3, i64 %_0.1, 1, !dbg !2241
  ret { ptr, i64 } %4, !dbg !2241
}

; core::char::methods::len_utf8
; Function Attrs: inlinehint noredzone nounwind
define internal i64 @_ZN4core4char7methods8len_utf817hcdef8757b91bf382E(i32 %code) unnamed_addr #0 !dbg !2242 {
start:
  %code.dbg.spill = alloca i32, align 4
  %_0 = alloca i64, align 8
  store i32 %code, ptr %code.dbg.spill, align 4
  call void @llvm.dbg.declare(metadata ptr %code.dbg.spill, metadata !2246, metadata !DIExpression()), !dbg !2247
  %_2 = icmp ult i32 %code, 128, !dbg !2248
  br i1 %_2, label %bb1, label %bb2, !dbg !2248

bb2:                                              ; preds = %start
  %_3 = icmp ult i32 %code, 2048, !dbg !2249
  br i1 %_3, label %bb3, label %bb4, !dbg !2249

bb1:                                              ; preds = %start
  store i64 1, ptr %_0, align 8, !dbg !2250
  br label %bb7, !dbg !2251

bb4:                                              ; preds = %bb2
  %_4 = icmp ult i32 %code, 65536, !dbg !2252
  br i1 %_4, label %bb5, label %bb6, !dbg !2252

bb3:                                              ; preds = %bb2
  store i64 2, ptr %_0, align 8, !dbg !2253
  br label %bb7, !dbg !2254

bb6:                                              ; preds = %bb4
  store i64 4, ptr %_0, align 8, !dbg !2255
  br label %bb7, !dbg !2256

bb5:                                              ; preds = %bb4
  store i64 3, ptr %_0, align 8, !dbg !2257
  br label %bb7, !dbg !2256

bb7:                                              ; preds = %bb1, %bb3, %bb5, %bb6
  %0 = load i64, ptr %_0, align 8, !dbg !2258, !noundef !29
  ret i64 %0, !dbg !2258
}

; core::hint::unreachable_unchecked
; Function Attrs: inlinehint noredzone noreturn nounwind
define internal void @_ZN4core4hint21unreachable_unchecked17hb17936b2801ed01fE() unnamed_addr #2 !dbg !2259 {
start:
  br i1 true, label %bb1, label %bb2, !dbg !2264

bb2:                                              ; preds = %_ZN4core4hint21unreachable_unchecked7runtime17ha4858de340ff3557E.exit, %start
  unreachable, !dbg !2265

bb1:                                              ; preds = %start
; call core::panicking::panic_nounwind
  call void @_ZN4core9panicking14panic_nounwind17hfeb2aacdf3037a06E(ptr align 1 @alloc_1eb6f53a157dccb32488e066ad957e6d, i64 82) #11, !dbg !2266
  unreachable, !dbg !2266

_ZN4core4hint21unreachable_unchecked7runtime17ha4858de340ff3557E.exit: ; No predecessors!
  br label %bb2, !dbg !2264
}

; core::iter::traits::iterator::Iterator::map
; Function Attrs: inlinehint noredzone nounwind
define internal void @_ZN4core4iter6traits8iterator8Iterator3map17hb94706011c029c6fE(ptr sret(%"core::iter::adapters::map::Map<core::ops::range::Range<usize>, {closure@x86_64::structures::paging::page_table::PageTable::iter::{closure#0}}>") align 8 %_0, i64 %self.0, i64 %self.1, ptr align 4096 %f) unnamed_addr #0 !dbg !2271 {
start:
  %f.dbg.spill = alloca ptr, align 8
  %self.dbg.spill = alloca %"core::ops::range::Range<usize>", align 8
  store i64 %self.0, ptr %self.dbg.spill, align 8
  %0 = getelementptr inbounds i8, ptr %self.dbg.spill, i64 8
  store i64 %self.1, ptr %0, align 8
  call void @llvm.dbg.declare(metadata ptr %self.dbg.spill, metadata !2279, metadata !DIExpression()), !dbg !2283
  store ptr %f, ptr %f.dbg.spill, align 8
  call void @llvm.dbg.declare(metadata ptr %f.dbg.spill, metadata !2280, metadata !DIExpression()), !dbg !2284
; call core::iter::adapters::map::Map<I,F>::new
  call void @"_ZN4core4iter8adapters3map16Map$LT$I$C$F$GT$3new17h1809528f1d261d1cE"(ptr sret(%"core::iter::adapters::map::Map<core::ops::range::Range<usize>, {closure@x86_64::structures::paging::page_table::PageTable::iter::{closure#0}}>") align 8 %_0, i64 %self.0, i64 %self.1, ptr align 4096 %f) #9, !dbg !2285
  ret void, !dbg !2286
}

; core::iter::traits::iterator::Iterator::enumerate
; Function Attrs: inlinehint noredzone nounwind
define internal void @_ZN4core4iter6traits8iterator8Iterator9enumerate17h47e1960bae17c025E(ptr sret(%"core::iter::adapters::enumerate::Enumerate<core::iter::adapters::map::Map<core::ops::range::Range<usize>, {closure@x86_64::structures::paging::page_table::PageTable::iter::{closure#0}}>>") align 8 %_0, ptr align 8 %self) unnamed_addr #0 !dbg !2287 {
start:
  call void @llvm.dbg.declare(metadata ptr %self, metadata !2291, metadata !DIExpression()), !dbg !2294
; call core::iter::adapters::enumerate::Enumerate<I>::new
  call void @"_ZN4core4iter8adapters9enumerate18Enumerate$LT$I$GT$3new17h7840006cbff98b35E"(ptr sret(%"core::iter::adapters::enumerate::Enumerate<core::iter::adapters::map::Map<core::ops::range::Range<usize>, {closure@x86_64::structures::paging::page_table::PageTable::iter::{closure#0}}>>") align 8 %_0, ptr align 8 %self) #9, !dbg !2295
  ret void, !dbg !2296
}

; core::iter::adapters::map::Map<I,F>::new
; Function Attrs: noredzone nounwind
define internal void @"_ZN4core4iter8adapters3map16Map$LT$I$C$F$GT$3new17h1809528f1d261d1cE"(ptr sret(%"core::iter::adapters::map::Map<core::ops::range::Range<usize>, {closure@x86_64::structures::paging::page_table::PageTable::iter::{closure#0}}>") align 8 %_0, i64 %iter.0, i64 %iter.1, ptr align 4096 %f) unnamed_addr #1 !dbg !2297 {
start:
  %f.dbg.spill = alloca ptr, align 8
  %iter.dbg.spill = alloca %"core::ops::range::Range<usize>", align 8
  store i64 %iter.0, ptr %iter.dbg.spill, align 8
  %0 = getelementptr inbounds i8, ptr %iter.dbg.spill, i64 8
  store i64 %iter.1, ptr %0, align 8
  call void @llvm.dbg.declare(metadata ptr %iter.dbg.spill, metadata !2300, metadata !DIExpression()), !dbg !2302
  store ptr %f, ptr %f.dbg.spill, align 8
  call void @llvm.dbg.declare(metadata ptr %f.dbg.spill, metadata !2301, metadata !DIExpression()), !dbg !2303
  %1 = getelementptr inbounds %"core::iter::adapters::map::Map<core::ops::range::Range<usize>, {closure@x86_64::structures::paging::page_table::PageTable::iter::{closure#0}}>", ptr %_0, i32 0, i32 1, !dbg !2304
  store i64 %iter.0, ptr %1, align 8, !dbg !2304
  %2 = getelementptr inbounds i8, ptr %1, i64 8, !dbg !2304
  store i64 %iter.1, ptr %2, align 8, !dbg !2304
  store ptr %f, ptr %_0, align 8, !dbg !2304
  ret void, !dbg !2305
}

; core::iter::adapters::enumerate::Enumerate<I>::new
; Function Attrs: noredzone nounwind
define internal void @"_ZN4core4iter8adapters9enumerate18Enumerate$LT$I$GT$3new17h7840006cbff98b35E"(ptr sret(%"core::iter::adapters::enumerate::Enumerate<core::iter::adapters::map::Map<core::ops::range::Range<usize>, {closure@x86_64::structures::paging::page_table::PageTable::iter::{closure#0}}>>") align 8 %_0, ptr align 8 %iter) unnamed_addr #1 !dbg !2306 {
start:
  call void @llvm.dbg.declare(metadata ptr %iter, metadata !2309, metadata !DIExpression()), !dbg !2310
  call void @llvm.memcpy.p0.p0.i64(ptr align 8 %_0, ptr align 8 %iter, i64 24, i1 false), !dbg !2311
  %0 = getelementptr inbounds %"core::iter::adapters::enumerate::Enumerate<core::iter::adapters::map::Map<core::ops::range::Range<usize>, {closure@x86_64::structures::paging::page_table::PageTable::iter::{closure#0}}>>", ptr %_0, i32 0, i32 1, !dbg !2311
  store i64 0, ptr %0, align 8, !dbg !2311
  ret void, !dbg !2312
}

; core::sync::atomic::AtomicBool::compare_exchange
; Function Attrs: inlinehint noredzone nounwind
define internal { i1, i8 } @_ZN4core4sync6atomic10AtomicBool16compare_exchange17hdf1bee1d3cbe6a33E(ptr align 1 %self, i1 zeroext %current, i1 zeroext %new, i8 %success, i8 %failure) unnamed_addr #0 !dbg !2313 {
start:
  %self.dbg.spill.i = alloca ptr, align 8
  %x.dbg.spill2 = alloca i8, align 1
  %x.dbg.spill = alloca i8, align 1
  %failure.dbg.spill = alloca i8, align 1
  %success.dbg.spill = alloca i8, align 1
  %new.dbg.spill = alloca i8, align 1
  %current.dbg.spill = alloca i8, align 1
  %self.dbg.spill = alloca ptr, align 8
  %_31 = alloca %"core::result::Result<u8, u8>", align 1
  %old = alloca i8, align 1
  %_21 = alloca %"core::fmt::Arguments<'_>", align 8
  %_18 = alloca %"core::fmt::Arguments<'_>", align 8
  %_8 = alloca { i8, i8 }, align 1
  %order = alloca i8, align 1
  %_0 = alloca %"core::result::Result<bool, bool>", align 1
  store ptr %self, ptr %self.dbg.spill, align 8
  call void @llvm.dbg.declare(metadata ptr %self.dbg.spill, metadata !2334, metadata !DIExpression()), !dbg !2347
  %0 = zext i1 %current to i8
  store i8 %0, ptr %current.dbg.spill, align 1
  call void @llvm.dbg.declare(metadata ptr %current.dbg.spill, metadata !2335, metadata !DIExpression()), !dbg !2348
  %1 = zext i1 %new to i8
  store i8 %1, ptr %new.dbg.spill, align 1
  call void @llvm.dbg.declare(metadata ptr %new.dbg.spill, metadata !2336, metadata !DIExpression()), !dbg !2349
  store i8 %success, ptr %success.dbg.spill, align 1
  call void @llvm.dbg.declare(metadata ptr %success.dbg.spill, metadata !2337, metadata !DIExpression()), !dbg !2350
  store i8 %failure, ptr %failure.dbg.spill, align 1
  call void @llvm.dbg.declare(metadata ptr %failure.dbg.spill, metadata !2338, metadata !DIExpression()), !dbg !2351
  call void @llvm.dbg.declare(metadata ptr %order, metadata !2339, metadata !DIExpression()), !dbg !2352
  call void @llvm.dbg.declare(metadata ptr %old, metadata !2341, metadata !DIExpression()), !dbg !2353
  br i1 false, label %bb1, label %bb28, !dbg !2354

bb28:                                             ; preds = %start
  store ptr %self, ptr %self.dbg.spill.i, align 8
  call void @llvm.dbg.declare(metadata ptr %self.dbg.spill.i, metadata !2355, metadata !DIExpression()), !dbg !2363
  %_34 = zext i1 %current to i8, !dbg !2365
  %_35 = zext i1 %new to i8, !dbg !2366
; call core::sync::atomic::atomic_compare_exchange
  %2 = call { i1, i8 } @_ZN4core4sync6atomic23atomic_compare_exchange17h1b848a47486232f3E(ptr %self, i8 %_34, i8 %_35, i8 %success, i8 %failure) #9, !dbg !2367
  %3 = extractvalue { i1, i8 } %2, 0, !dbg !2367
  %4 = extractvalue { i1, i8 } %2, 1, !dbg !2367
  %5 = zext i1 %3 to i8, !dbg !2367
  store i8 %5, ptr %_31, align 1, !dbg !2367
  %6 = getelementptr inbounds i8, ptr %_31, i64 1, !dbg !2367
  store i8 %4, ptr %6, align 1, !dbg !2367
  %7 = load i8, ptr %_31, align 1, !dbg !2368, !range !1335, !noundef !29
  %8 = trunc i8 %7 to i1, !dbg !2368
  %_36 = zext i1 %8 to i64, !dbg !2368
  %9 = icmp eq i64 %_36, 0, !dbg !2369
  br i1 %9, label %bb32, label %bb31, !dbg !2369

bb1:                                              ; preds = %start
  store i8 %success, ptr %_8, align 1, !dbg !2370
  %10 = getelementptr inbounds i8, ptr %_8, i64 1, !dbg !2370
  store i8 %failure, ptr %10, align 1, !dbg !2370
  %11 = load i8, ptr %_8, align 1, !dbg !2370, !range !2371, !noundef !29
  %_16 = zext i8 %11 to i64, !dbg !2370
  %12 = icmp eq i64 %_16, 4, !dbg !2372
  br i1 %12, label %bb11, label %bb2, !dbg !2372

bb32:                                             ; preds = %bb28
  %13 = getelementptr inbounds i8, ptr %_31, i64 1, !dbg !2373
  %x = load i8, ptr %13, align 1, !dbg !2373, !noundef !29
  store i8 %x, ptr %x.dbg.spill, align 1, !dbg !2373
  call void @llvm.dbg.declare(metadata ptr %x.dbg.spill, metadata !2343, metadata !DIExpression()), !dbg !2374
  %_38 = icmp ne i8 %x, 0, !dbg !2375
  %14 = getelementptr inbounds i8, ptr %_0, i64 1, !dbg !2376
  %15 = zext i1 %_38 to i8, !dbg !2376
  store i8 %15, ptr %14, align 1, !dbg !2376
  store i8 0, ptr %_0, align 1, !dbg !2376
  br label %bb33, !dbg !2377

bb31:                                             ; preds = %bb28
  %16 = getelementptr inbounds i8, ptr %_31, i64 1, !dbg !2378
  %x1 = load i8, ptr %16, align 1, !dbg !2378, !noundef !29
  store i8 %x1, ptr %x.dbg.spill2, align 1, !dbg !2378
  call void @llvm.dbg.declare(metadata ptr %x.dbg.spill2, metadata !2345, metadata !DIExpression()), !dbg !2379
  %_40 = icmp ne i8 %x1, 0, !dbg !2380
  %17 = getelementptr inbounds i8, ptr %_0, i64 1, !dbg !2381
  %18 = zext i1 %_40 to i8, !dbg !2381
  store i8 %18, ptr %17, align 1, !dbg !2381
  store i8 1, ptr %_0, align 1, !dbg !2381
  br label %bb33, !dbg !2382

bb33:                                             ; preds = %bb26, %bb27, %bb31, %bb32
  %19 = load i8, ptr %_0, align 1, !dbg !2383, !range !1335, !noundef !29
  %20 = trunc i8 %19 to i1, !dbg !2383
  %21 = getelementptr inbounds i8, ptr %_0, i64 1, !dbg !2383
  %22 = load i8, ptr %21, align 1, !dbg !2383, !noundef !29
  %23 = insertvalue { i1, i8 } poison, i1 %20, 0, !dbg !2383
  %24 = insertvalue { i1, i8 } %23, i8 %22, 1, !dbg !2383
  ret { i1, i8 } %24, !dbg !2383

bb11:                                             ; preds = %bb1
  store i8 4, ptr %order, align 1, !dbg !2384
  br label %bb22, !dbg !2384

bb2:                                              ; preds = %bb1
  %25 = getelementptr inbounds i8, ptr %_8, i64 1, !dbg !2370
  %26 = load i8, ptr %25, align 1, !dbg !2370, !range !2371, !noundef !29
  %_15 = zext i8 %26 to i64, !dbg !2370
  %27 = icmp eq i64 %_15, 4, !dbg !2372
  br i1 %27, label %bb12, label %bb3, !dbg !2372

bb22:                                             ; preds = %bb18, %bb19, %bb9, %bb17, %bb16, %bb13, %bb12, %bb11
  %_24 = icmp eq i1 %current, %new, !dbg !2385
  br i1 %_24, label %bb23, label %bb24, !dbg !2385

bb12:                                             ; preds = %bb2
  store i8 4, ptr %order, align 1, !dbg !2386
  br label %bb22, !dbg !2386

bb3:                                              ; preds = %bb2
  %28 = load i8, ptr %_8, align 1, !dbg !2370, !range !2371, !noundef !29
  %_14 = zext i8 %28 to i64, !dbg !2370
  %29 = icmp eq i64 %_14, 3, !dbg !2372
  br i1 %29, label %bb13, label %bb4, !dbg !2372

bb13:                                             ; preds = %bb3
  store i8 3, ptr %order, align 1, !dbg !2387
  br label %bb22, !dbg !2387

bb4:                                              ; preds = %bb3
  %30 = getelementptr inbounds i8, ptr %_8, i64 1, !dbg !2370
  %31 = load i8, ptr %30, align 1, !dbg !2370, !range !2371, !noundef !29
  %_13 = zext i8 %31 to i64, !dbg !2370
  switch i64 %_13, label %bb5 [
    i64 2, label %bb6
    i64 3, label %bb14
  ], !dbg !2372

bb5:                                              ; preds = %bb6, %bb4
  %32 = load i8, ptr %_8, align 1, !dbg !2370, !range !2371, !noundef !29
  %_12 = zext i8 %32 to i64, !dbg !2370
  %33 = icmp eq i64 %_12, 2, !dbg !2372
  br i1 %33, label %bb17, label %bb7, !dbg !2372

bb6:                                              ; preds = %bb4
  %34 = load i8, ptr %_8, align 1, !dbg !2370, !range !2371, !noundef !29
  %_9 = zext i8 %34 to i64, !dbg !2370
  %35 = icmp eq i64 %_9, 1, !dbg !2372
  br i1 %35, label %bb16, label %bb5, !dbg !2372

bb14:                                             ; preds = %bb4
; call core::fmt::Arguments::new_const
  call void @_ZN4core3fmt9Arguments9new_const17h150cc42a0ce49684E(ptr sret(%"core::fmt::Arguments<'_>") align 8 %_18, ptr align 8 @alloc_dd7d8f77c173bf31726eae321f955bec, i64 1) #9, !dbg !2388
; call core::panicking::panic_fmt
  call void @_ZN4core9panicking9panic_fmt17ha5e30ccfbdd0aed8E(ptr align 8 %_18, ptr align 8 @alloc_122716f189323124cb0c05846480a00c) #11, !dbg !2388
  unreachable, !dbg !2388

bb16:                                             ; preds = %bb6
  store i8 3, ptr %order, align 1, !dbg !2389
  br label %bb22, !dbg !2389

bb17:                                             ; preds = %bb5
  store i8 2, ptr %order, align 1, !dbg !2390
  br label %bb22, !dbg !2390

bb7:                                              ; preds = %bb5
  %36 = getelementptr inbounds i8, ptr %_8, i64 1, !dbg !2370
  %37 = load i8, ptr %36, align 1, !dbg !2370, !range !2371, !noundef !29
  %_11 = zext i8 %37 to i64, !dbg !2370
  switch i64 %_11, label %bb10 [
    i64 0, label %bb8
    i64 1, label %bb20
    i64 2, label %bb18
  ], !dbg !2372

bb10:                                             ; preds = %bb7
  unreachable, !dbg !2370

bb8:                                              ; preds = %bb7
  %38 = load i8, ptr %_8, align 1, !dbg !2370, !range !2371, !noundef !29
  %_10 = zext i8 %38 to i64, !dbg !2370
  %39 = icmp eq i64 %_10, 0, !dbg !2372
  br i1 %39, label %bb9, label %bb19, !dbg !2372

bb20:                                             ; preds = %bb7
; call core::fmt::Arguments::new_const
  call void @_ZN4core3fmt9Arguments9new_const17h150cc42a0ce49684E(ptr sret(%"core::fmt::Arguments<'_>") align 8 %_21, ptr align 8 @alloc_04ab601c54c6e0a22ff11d72dc7f4511, i64 1) #9, !dbg !2391
; call core::panicking::panic_fmt
  call void @_ZN4core9panicking9panic_fmt17ha5e30ccfbdd0aed8E(ptr align 8 %_21, ptr align 8 @alloc_1b2d53547632b0cd8d68abf128d934e0) #11, !dbg !2391
  unreachable, !dbg !2391

bb18:                                             ; preds = %bb7
  store i8 2, ptr %order, align 1, !dbg !2392
  br label %bb22, !dbg !2392

bb9:                                              ; preds = %bb8
  store i8 0, ptr %order, align 1, !dbg !2393
  br label %bb22, !dbg !2393

bb19:                                             ; preds = %bb8
  store i8 1, ptr %order, align 1, !dbg !2394
  br label %bb22, !dbg !2394

bb24:                                             ; preds = %bb22
  %_26 = load i8, ptr %order, align 1, !dbg !2395, !range !2371, !noundef !29
; call core::sync::atomic::AtomicBool::swap
  %40 = call zeroext i1 @_ZN4core4sync6atomic10AtomicBool4swap17h2fdc57d1574bab2aE(ptr align 1 %self, i1 zeroext %new, i8 %_26) #9, !dbg !2396
  %41 = zext i1 %40 to i8, !dbg !2396
  store i8 %41, ptr %old, align 1, !dbg !2396
  br label %bb25, !dbg !2396

bb23:                                             ; preds = %bb22
  %_25 = load i8, ptr %order, align 1, !dbg !2397, !range !2371, !noundef !29
; call core::sync::atomic::AtomicBool::fetch_or
  %42 = call zeroext i1 @_ZN4core4sync6atomic10AtomicBool8fetch_or17h2a566d559230f13eE(ptr align 1 %self, i1 zeroext false, i8 %_25) #9, !dbg !2398
  %43 = zext i1 %42 to i8, !dbg !2398
  store i8 %43, ptr %old, align 1, !dbg !2398
  br label %bb25, !dbg !2398

bb25:                                             ; preds = %bb23, %bb24
  %44 = load i8, ptr %old, align 1, !dbg !2399, !range !1335, !noundef !29
  %_28 = trunc i8 %44 to i1, !dbg !2399
  %_27 = icmp eq i1 %_28, %current, !dbg !2399
  br i1 %_27, label %bb26, label %bb27, !dbg !2399

bb27:                                             ; preds = %bb25
  %45 = load i8, ptr %old, align 1, !dbg !2400, !range !1335, !noundef !29
  %_30 = trunc i8 %45 to i1, !dbg !2400
  %46 = getelementptr inbounds i8, ptr %_0, i64 1, !dbg !2401
  %47 = zext i1 %_30 to i8, !dbg !2401
  store i8 %47, ptr %46, align 1, !dbg !2401
  store i8 1, ptr %_0, align 1, !dbg !2401
  br label %bb33, !dbg !2402

bb26:                                             ; preds = %bb25
  %48 = load i8, ptr %old, align 1, !dbg !2403, !range !1335, !noundef !29
  %_29 = trunc i8 %48 to i1, !dbg !2403
  %49 = getelementptr inbounds i8, ptr %_0, i64 1, !dbg !2404
  %50 = zext i1 %_29 to i8, !dbg !2404
  store i8 %50, ptr %49, align 1, !dbg !2404
  store i8 0, ptr %_0, align 1, !dbg !2404
  br label %bb33, !dbg !2402
}

; core::sync::atomic::AtomicBool::compare_exchange_weak
; Function Attrs: inlinehint noredzone nounwind
define internal { i1, i8 } @_ZN4core4sync6atomic10AtomicBool21compare_exchange_weak17h6170c52033319dc2E(ptr align 1 %self, i1 zeroext %current, i1 zeroext %new, i8 %success, i8 %failure) unnamed_addr #0 !dbg !2405 {
start:
  %self.dbg.spill.i = alloca ptr, align 8
  %x.dbg.spill2 = alloca i8, align 1
  %x.dbg.spill = alloca i8, align 1
  %failure.dbg.spill = alloca i8, align 1
  %success.dbg.spill = alloca i8, align 1
  %new.dbg.spill = alloca i8, align 1
  %current.dbg.spill = alloca i8, align 1
  %self.dbg.spill = alloca ptr, align 8
  %_7 = alloca %"core::result::Result<u8, u8>", align 1
  %_0 = alloca %"core::result::Result<bool, bool>", align 1
  store ptr %self, ptr %self.dbg.spill, align 8
  call void @llvm.dbg.declare(metadata ptr %self.dbg.spill, metadata !2408, metadata !DIExpression()), !dbg !2417
  %0 = zext i1 %current to i8
  store i8 %0, ptr %current.dbg.spill, align 1
  call void @llvm.dbg.declare(metadata ptr %current.dbg.spill, metadata !2409, metadata !DIExpression()), !dbg !2418
  %1 = zext i1 %new to i8
  store i8 %1, ptr %new.dbg.spill, align 1
  call void @llvm.dbg.declare(metadata ptr %new.dbg.spill, metadata !2410, metadata !DIExpression()), !dbg !2419
  store i8 %success, ptr %success.dbg.spill, align 1
  call void @llvm.dbg.declare(metadata ptr %success.dbg.spill, metadata !2411, metadata !DIExpression()), !dbg !2420
  store i8 %failure, ptr %failure.dbg.spill, align 1
  call void @llvm.dbg.declare(metadata ptr %failure.dbg.spill, metadata !2412, metadata !DIExpression()), !dbg !2421
  br i1 false, label %bb1, label %bb2, !dbg !2422

bb2:                                              ; preds = %start
  store ptr %self, ptr %self.dbg.spill.i, align 8
  call void @llvm.dbg.declare(metadata ptr %self.dbg.spill.i, metadata !2355, metadata !DIExpression()), !dbg !2423
  %_10 = zext i1 %current to i8, !dbg !2425
  %_11 = zext i1 %new to i8, !dbg !2426
; call core::sync::atomic::atomic_compare_exchange_weak
  %2 = call { i1, i8 } @_ZN4core4sync6atomic28atomic_compare_exchange_weak17hbb41bba15314bed2E(ptr %self, i8 %_10, i8 %_11, i8 %success, i8 %failure) #9, !dbg !2427
  %3 = extractvalue { i1, i8 } %2, 0, !dbg !2427
  %4 = extractvalue { i1, i8 } %2, 1, !dbg !2427
  %5 = zext i1 %3 to i8, !dbg !2427
  store i8 %5, ptr %_7, align 1, !dbg !2427
  %6 = getelementptr inbounds i8, ptr %_7, i64 1, !dbg !2427
  store i8 %4, ptr %6, align 1, !dbg !2427
  %7 = load i8, ptr %_7, align 1, !dbg !2428, !range !1335, !noundef !29
  %8 = trunc i8 %7 to i1, !dbg !2428
  %_12 = zext i1 %8 to i64, !dbg !2428
  %9 = icmp eq i64 %_12, 0, !dbg !2429
  br i1 %9, label %bb6, label %bb5, !dbg !2429

bb1:                                              ; preds = %start
; call core::sync::atomic::AtomicBool::compare_exchange
  %10 = call { i1, i8 } @_ZN4core4sync6atomic10AtomicBool16compare_exchange17hdf1bee1d3cbe6a33E(ptr align 1 %self, i1 zeroext %current, i1 zeroext %new, i8 %success, i8 %failure) #9, !dbg !2430
  %11 = extractvalue { i1, i8 } %10, 0, !dbg !2430
  %12 = extractvalue { i1, i8 } %10, 1, !dbg !2430
  %13 = zext i1 %11 to i8, !dbg !2430
  store i8 %13, ptr %_0, align 1, !dbg !2430
  %14 = getelementptr inbounds i8, ptr %_0, i64 1, !dbg !2430
  store i8 %12, ptr %14, align 1, !dbg !2430
  br label %bb7, !dbg !2430

bb6:                                              ; preds = %bb2
  %15 = getelementptr inbounds i8, ptr %_7, i64 1, !dbg !2431
  %x = load i8, ptr %15, align 1, !dbg !2431, !noundef !29
  store i8 %x, ptr %x.dbg.spill, align 1, !dbg !2431
  call void @llvm.dbg.declare(metadata ptr %x.dbg.spill, metadata !2413, metadata !DIExpression()), !dbg !2432
  %_14 = icmp ne i8 %x, 0, !dbg !2433
  %16 = getelementptr inbounds i8, ptr %_0, i64 1, !dbg !2434
  %17 = zext i1 %_14 to i8, !dbg !2434
  store i8 %17, ptr %16, align 1, !dbg !2434
  store i8 0, ptr %_0, align 1, !dbg !2434
  br label %bb7, !dbg !2435

bb5:                                              ; preds = %bb2
  %18 = getelementptr inbounds i8, ptr %_7, i64 1, !dbg !2436
  %x1 = load i8, ptr %18, align 1, !dbg !2436, !noundef !29
  store i8 %x1, ptr %x.dbg.spill2, align 1, !dbg !2436
  call void @llvm.dbg.declare(metadata ptr %x.dbg.spill2, metadata !2415, metadata !DIExpression()), !dbg !2437
  %_16 = icmp ne i8 %x1, 0, !dbg !2438
  %19 = getelementptr inbounds i8, ptr %_0, i64 1, !dbg !2439
  %20 = zext i1 %_16 to i8, !dbg !2439
  store i8 %20, ptr %19, align 1, !dbg !2439
  store i8 1, ptr %_0, align 1, !dbg !2439
  br label %bb7, !dbg !2440

bb7:                                              ; preds = %bb1, %bb5, %bb6
  %21 = load i8, ptr %_0, align 1, !dbg !2441, !range !1335, !noundef !29
  %22 = trunc i8 %21 to i1, !dbg !2441
  %23 = getelementptr inbounds i8, ptr %_0, i64 1, !dbg !2441
  %24 = load i8, ptr %23, align 1, !dbg !2441, !noundef !29
  %25 = insertvalue { i1, i8 } poison, i1 %22, 0, !dbg !2441
  %26 = insertvalue { i1, i8 } %25, i8 %24, 1, !dbg !2441
  ret { i1, i8 } %26, !dbg !2441

bb8:                                              ; No predecessors!
  unreachable, !dbg !2429
}

; core::sync::atomic::AtomicBool::new
; Function Attrs: inlinehint noredzone nounwind
define internal i8 @_ZN4core4sync6atomic10AtomicBool3new17h187daaa8ec0d44bcE(i1 zeroext %v) unnamed_addr #0 !dbg !2442 {
start:
  %value.dbg.spill.i = alloca i8, align 1
  %_0.i = alloca i8, align 1
  %v.dbg.spill = alloca i8, align 1
  %_0 = alloca %"core::sync::atomic::AtomicBool", align 1
  %0 = zext i1 %v to i8
  store i8 %0, ptr %v.dbg.spill, align 1
  call void @llvm.dbg.declare(metadata ptr %v.dbg.spill, metadata !2447, metadata !DIExpression()), !dbg !2448
  %_3 = zext i1 %v to i8, !dbg !2449
  store i8 %_3, ptr %value.dbg.spill.i, align 1
  call void @llvm.dbg.declare(metadata ptr %value.dbg.spill.i, metadata !2450, metadata !DIExpression()), !dbg !2456
  store i8 %_3, ptr %_0.i, align 1, !dbg !2458
  %1 = load i8, ptr %_0.i, align 1, !dbg !2459, !noundef !29
  store i8 %1, ptr %_0, align 1, !dbg !2460
  %2 = load i8, ptr %_0, align 1, !dbg !2461
  ret i8 %2, !dbg !2461
}

; core::sync::atomic::AtomicBool::load
; Function Attrs: inlinehint noredzone nounwind
define internal zeroext i1 @_ZN4core4sync6atomic10AtomicBool4load17h9e02c27498d34f21E(ptr align 1 %self, i8 %order) unnamed_addr #0 !dbg !2462 {
start:
  %self.dbg.spill.i = alloca ptr, align 8
  %order.dbg.spill = alloca i8, align 1
  %self.dbg.spill = alloca ptr, align 8
  store ptr %self, ptr %self.dbg.spill, align 8
  call void @llvm.dbg.declare(metadata ptr %self.dbg.spill, metadata !2467, metadata !DIExpression()), !dbg !2469
  store i8 %order, ptr %order.dbg.spill, align 1
  call void @llvm.dbg.declare(metadata ptr %order.dbg.spill, metadata !2468, metadata !DIExpression()), !dbg !2470
  store ptr %self, ptr %self.dbg.spill.i, align 8
  call void @llvm.dbg.declare(metadata ptr %self.dbg.spill.i, metadata !2355, metadata !DIExpression()), !dbg !2471
; call core::sync::atomic::atomic_load
  %_3 = call i8 @_ZN4core4sync6atomic11atomic_load17h920a6f17ad0fd776E(ptr %self, i8 %order) #9, !dbg !2473
  %_0 = icmp ne i8 %_3, 0, !dbg !2473
  ret i1 %_0, !dbg !2474
}

; core::sync::atomic::AtomicBool::swap
; Function Attrs: inlinehint noredzone nounwind
define internal zeroext i1 @_ZN4core4sync6atomic10AtomicBool4swap17h2fdc57d1574bab2aE(ptr align 1 %self, i1 zeroext %val, i8 %order) unnamed_addr #0 !dbg !2475 {
start:
  %self.dbg.spill.i = alloca ptr, align 8
  %order.dbg.spill = alloca i8, align 1
  %val.dbg.spill = alloca i8, align 1
  %self.dbg.spill = alloca ptr, align 8
  %_0 = alloca i8, align 1
  store ptr %self, ptr %self.dbg.spill, align 8
  call void @llvm.dbg.declare(metadata ptr %self.dbg.spill, metadata !2480, metadata !DIExpression()), !dbg !2483
  %0 = zext i1 %val to i8
  store i8 %0, ptr %val.dbg.spill, align 1
  call void @llvm.dbg.declare(metadata ptr %val.dbg.spill, metadata !2481, metadata !DIExpression()), !dbg !2484
  store i8 %order, ptr %order.dbg.spill, align 1
  call void @llvm.dbg.declare(metadata ptr %order.dbg.spill, metadata !2482, metadata !DIExpression()), !dbg !2485
  br i1 false, label %bb1, label %bb4, !dbg !2486

bb4:                                              ; preds = %start
  store ptr %self, ptr %self.dbg.spill.i, align 8
  call void @llvm.dbg.declare(metadata ptr %self.dbg.spill.i, metadata !2355, metadata !DIExpression()), !dbg !2487
  %_8 = zext i1 %val to i8, !dbg !2489
; call core::sync::atomic::atomic_swap
  %_5 = call i8 @_ZN4core4sync6atomic11atomic_swap17h72234664e3127d00E(ptr %self, i8 %_8, i8 %order) #9, !dbg !2490
  %1 = icmp ne i8 %_5, 0, !dbg !2490
  %2 = zext i1 %1 to i8, !dbg !2490
  store i8 %2, ptr %_0, align 1, !dbg !2490
  br label %bb7, !dbg !2491

bb1:                                              ; preds = %start
  br i1 %val, label %bb2, label %bb3, !dbg !2492

bb7:                                              ; preds = %bb2, %bb3, %bb4
  %3 = load i8, ptr %_0, align 1, !dbg !2493, !range !1335, !noundef !29
  %4 = trunc i8 %3 to i1, !dbg !2493
  ret i1 %4, !dbg !2493

bb3:                                              ; preds = %bb1
; call core::sync::atomic::AtomicBool::fetch_and
  %5 = call zeroext i1 @_ZN4core4sync6atomic10AtomicBool9fetch_and17hc3417b4f52f99c6dE(ptr align 1 %self, i1 zeroext false, i8 %order) #9, !dbg !2494
  %6 = zext i1 %5 to i8, !dbg !2494
  store i8 %6, ptr %_0, align 1, !dbg !2494
  br label %bb7, !dbg !2494

bb2:                                              ; preds = %bb1
; call core::sync::atomic::AtomicBool::fetch_or
  %7 = call zeroext i1 @_ZN4core4sync6atomic10AtomicBool8fetch_or17h2a566d559230f13eE(ptr align 1 %self, i1 zeroext true, i8 %order) #9, !dbg !2495
  %8 = zext i1 %7 to i8, !dbg !2495
  store i8 %8, ptr %_0, align 1, !dbg !2495
  br label %bb7, !dbg !2495
}

; core::sync::atomic::AtomicBool::store
; Function Attrs: inlinehint noredzone nounwind
define internal void @_ZN4core4sync6atomic10AtomicBool5store17ha906016f594a0e48E(ptr align 1 %self, i1 zeroext %val, i8 %order) unnamed_addr #0 !dbg !2496 {
start:
  %self.dbg.spill.i = alloca ptr, align 8
  %order.dbg.spill = alloca i8, align 1
  %val.dbg.spill = alloca i8, align 1
  %self.dbg.spill = alloca ptr, align 8
  store ptr %self, ptr %self.dbg.spill, align 8
  call void @llvm.dbg.declare(metadata ptr %self.dbg.spill, metadata !2501, metadata !DIExpression()), !dbg !2504
  %0 = zext i1 %val to i8
  store i8 %0, ptr %val.dbg.spill, align 1
  call void @llvm.dbg.declare(metadata ptr %val.dbg.spill, metadata !2502, metadata !DIExpression()), !dbg !2505
  store i8 %order, ptr %order.dbg.spill, align 1
  call void @llvm.dbg.declare(metadata ptr %order.dbg.spill, metadata !2503, metadata !DIExpression()), !dbg !2506
  store ptr %self, ptr %self.dbg.spill.i, align 8
  call void @llvm.dbg.declare(metadata ptr %self.dbg.spill.i, metadata !2355, metadata !DIExpression()), !dbg !2507
  %_7 = zext i1 %val to i8, !dbg !2509
; call core::sync::atomic::atomic_store
  call void @_ZN4core4sync6atomic12atomic_store17hff60b3e143c4209bE(ptr %self, i8 %_7, i8 %order) #9, !dbg !2510
  ret void, !dbg !2511
}

; core::sync::atomic::AtomicBool::fetch_or
; Function Attrs: inlinehint noredzone nounwind
define internal zeroext i1 @_ZN4core4sync6atomic10AtomicBool8fetch_or17h2a566d559230f13eE(ptr align 1 %self, i1 zeroext %val, i8 %order) unnamed_addr #0 !dbg !2512 {
start:
  %self.dbg.spill.i = alloca ptr, align 8
  %order.dbg.spill = alloca i8, align 1
  %val.dbg.spill = alloca i8, align 1
  %self.dbg.spill = alloca ptr, align 8
  store ptr %self, ptr %self.dbg.spill, align 8
  call void @llvm.dbg.declare(metadata ptr %self.dbg.spill, metadata !2515, metadata !DIExpression()), !dbg !2518
  %0 = zext i1 %val to i8
  store i8 %0, ptr %val.dbg.spill, align 1
  call void @llvm.dbg.declare(metadata ptr %val.dbg.spill, metadata !2516, metadata !DIExpression()), !dbg !2519
  store i8 %order, ptr %order.dbg.spill, align 1
  call void @llvm.dbg.declare(metadata ptr %order.dbg.spill, metadata !2517, metadata !DIExpression()), !dbg !2520
  store ptr %self, ptr %self.dbg.spill.i, align 8
  call void @llvm.dbg.declare(metadata ptr %self.dbg.spill.i, metadata !2355, metadata !DIExpression()), !dbg !2521
  %_7 = zext i1 %val to i8, !dbg !2523
; call core::sync::atomic::atomic_or
  %_4 = call i8 @_ZN4core4sync6atomic9atomic_or17hd4b48d2f72998a5cE(ptr %self, i8 %_7, i8 %order) #9, !dbg !2524
  %_0 = icmp ne i8 %_4, 0, !dbg !2524
  ret i1 %_0, !dbg !2525
}

; core::sync::atomic::AtomicBool::fetch_and
; Function Attrs: inlinehint noredzone nounwind
define internal zeroext i1 @_ZN4core4sync6atomic10AtomicBool9fetch_and17hc3417b4f52f99c6dE(ptr align 1 %self, i1 zeroext %val, i8 %order) unnamed_addr #0 !dbg !2526 {
start:
  %self.dbg.spill.i = alloca ptr, align 8
  %order.dbg.spill = alloca i8, align 1
  %val.dbg.spill = alloca i8, align 1
  %self.dbg.spill = alloca ptr, align 8
  store ptr %self, ptr %self.dbg.spill, align 8
  call void @llvm.dbg.declare(metadata ptr %self.dbg.spill, metadata !2529, metadata !DIExpression()), !dbg !2532
  %0 = zext i1 %val to i8
  store i8 %0, ptr %val.dbg.spill, align 1
  call void @llvm.dbg.declare(metadata ptr %val.dbg.spill, metadata !2530, metadata !DIExpression()), !dbg !2533
  store i8 %order, ptr %order.dbg.spill, align 1
  call void @llvm.dbg.declare(metadata ptr %order.dbg.spill, metadata !2531, metadata !DIExpression()), !dbg !2534
  store ptr %self, ptr %self.dbg.spill.i, align 8
  call void @llvm.dbg.declare(metadata ptr %self.dbg.spill.i, metadata !2355, metadata !DIExpression()), !dbg !2535
  %_7 = zext i1 %val to i8, !dbg !2537
; call core::sync::atomic::atomic_and
  %_4 = call i8 @_ZN4core4sync6atomic10atomic_and17h1d538db602baa5a0E(ptr %self, i8 %_7, i8 %order) #9, !dbg !2538
  %_0 = icmp ne i8 %_4, 0, !dbg !2538
  ret i1 %_0, !dbg !2539
}

; core::sync::atomic::AtomicUsize::compare_and_swap
; Function Attrs: inlinehint noredzone nounwind
define internal i64 @_ZN4core4sync6atomic11AtomicUsize16compare_and_swap17h37926aec4106a0f1E(ptr align 8 %self, i64 %current, i64 %new, i8 %order) unnamed_addr #0 !dbg !2540 {
start:
  %x.dbg.spill2 = alloca i64, align 8
  %x.dbg.spill = alloca i64, align 8
  %order.dbg.spill = alloca i8, align 1
  %new.dbg.spill = alloca i64, align 8
  %current.dbg.spill = alloca i64, align 8
  %self.dbg.spill = alloca ptr, align 8
  %_5 = alloca %"core::result::Result<usize, usize>", align 8
  %_0 = alloca i64, align 8
  store ptr %self, ptr %self.dbg.spill, align 8
  call void @llvm.dbg.declare(metadata ptr %self.dbg.spill, metadata !2546, metadata !DIExpression()), !dbg !2554
  store i64 %current, ptr %current.dbg.spill, align 8
  call void @llvm.dbg.declare(metadata ptr %current.dbg.spill, metadata !2547, metadata !DIExpression()), !dbg !2555
  store i64 %new, ptr %new.dbg.spill, align 8
  call void @llvm.dbg.declare(metadata ptr %new.dbg.spill, metadata !2548, metadata !DIExpression()), !dbg !2556
  store i8 %order, ptr %order.dbg.spill, align 1
  call void @llvm.dbg.declare(metadata ptr %order.dbg.spill, metadata !2549, metadata !DIExpression()), !dbg !2557
; call core::sync::atomic::strongest_failure_ordering
  %_6 = call i8 @_ZN4core4sync6atomic26strongest_failure_ordering17h952117af826f589cE(i8 %order) #9, !dbg !2558, !range !2371
; call core::sync::atomic::AtomicUsize::compare_exchange
  %0 = call { i64, i64 } @_ZN4core4sync6atomic11AtomicUsize16compare_exchange17hce093c499dac6758E(ptr align 8 %self, i64 %current, i64 %new, i8 %order, i8 %_6) #9, !dbg !2559
  %1 = extractvalue { i64, i64 } %0, 0, !dbg !2559
  %2 = extractvalue { i64, i64 } %0, 1, !dbg !2559
  store i64 %1, ptr %_5, align 8, !dbg !2559
  %3 = getelementptr inbounds i8, ptr %_5, i64 8, !dbg !2559
  store i64 %2, ptr %3, align 8, !dbg !2559
  %_7 = load i64, ptr %_5, align 8, !dbg !2559, !range !1512, !noundef !29
  %4 = icmp eq i64 %_7, 0, !dbg !2560
  br i1 %4, label %bb4, label %bb3, !dbg !2560

bb4:                                              ; preds = %start
  %5 = getelementptr inbounds i8, ptr %_5, i64 8, !dbg !2561
  %x = load i64, ptr %5, align 8, !dbg !2561, !noundef !29
  store i64 %x, ptr %x.dbg.spill, align 8, !dbg !2561
  call void @llvm.dbg.declare(metadata ptr %x.dbg.spill, metadata !2550, metadata !DIExpression()), !dbg !2562
  store i64 %x, ptr %_0, align 8, !dbg !2563
  br label %bb5, !dbg !2564

bb3:                                              ; preds = %start
  %6 = getelementptr inbounds i8, ptr %_5, i64 8, !dbg !2565
  %x1 = load i64, ptr %6, align 8, !dbg !2565, !noundef !29
  store i64 %x1, ptr %x.dbg.spill2, align 8, !dbg !2565
  call void @llvm.dbg.declare(metadata ptr %x.dbg.spill2, metadata !2552, metadata !DIExpression()), !dbg !2566
  store i64 %x1, ptr %_0, align 8, !dbg !2567
  br label %bb5, !dbg !2568

bb5:                                              ; preds = %bb3, %bb4
  %7 = load i64, ptr %_0, align 8, !dbg !2569, !noundef !29
  ret i64 %7, !dbg !2569

bb6:                                              ; No predecessors!
  unreachable, !dbg !2560
}

; core::sync::atomic::AtomicUsize::compare_exchange
; Function Attrs: inlinehint noredzone nounwind
define internal { i64, i64 } @_ZN4core4sync6atomic11AtomicUsize16compare_exchange17hce093c499dac6758E(ptr align 8 %self, i64 %current, i64 %new, i8 %success, i8 %failure) unnamed_addr #0 !dbg !2570 {
start:
  %self.dbg.spill.i = alloca ptr, align 8
  %failure.dbg.spill = alloca i8, align 1
  %success.dbg.spill = alloca i8, align 1
  %new.dbg.spill = alloca i64, align 8
  %current.dbg.spill = alloca i64, align 8
  %self.dbg.spill = alloca ptr, align 8
  store ptr %self, ptr %self.dbg.spill, align 8
  call void @llvm.dbg.declare(metadata ptr %self.dbg.spill, metadata !2590, metadata !DIExpression()), !dbg !2595
  store i64 %current, ptr %current.dbg.spill, align 8
  call void @llvm.dbg.declare(metadata ptr %current.dbg.spill, metadata !2591, metadata !DIExpression()), !dbg !2596
  store i64 %new, ptr %new.dbg.spill, align 8
  call void @llvm.dbg.declare(metadata ptr %new.dbg.spill, metadata !2592, metadata !DIExpression()), !dbg !2597
  store i8 %success, ptr %success.dbg.spill, align 1
  call void @llvm.dbg.declare(metadata ptr %success.dbg.spill, metadata !2593, metadata !DIExpression()), !dbg !2598
  store i8 %failure, ptr %failure.dbg.spill, align 1
  call void @llvm.dbg.declare(metadata ptr %failure.dbg.spill, metadata !2594, metadata !DIExpression()), !dbg !2599
  store ptr %self, ptr %self.dbg.spill.i, align 8
  call void @llvm.dbg.declare(metadata ptr %self.dbg.spill.i, metadata !2600, metadata !DIExpression()), !dbg !2608
; call core::sync::atomic::atomic_compare_exchange
  %0 = call { i64, i64 } @_ZN4core4sync6atomic23atomic_compare_exchange17hd0bb8bfbde34c5bdE(ptr %self, i64 %current, i64 %new, i8 %success, i8 %failure) #9, !dbg !2610
  %_0.0 = extractvalue { i64, i64 } %0, 0, !dbg !2610
  %_0.1 = extractvalue { i64, i64 } %0, 1, !dbg !2610
  %1 = insertvalue { i64, i64 } poison, i64 %_0.0, 0, !dbg !2611
  %2 = insertvalue { i64, i64 } %1, i64 %_0.1, 1, !dbg !2611
  ret { i64, i64 } %2, !dbg !2611
}

; core::sync::atomic::AtomicUsize::load
; Function Attrs: inlinehint noredzone nounwind
define internal i64 @_ZN4core4sync6atomic11AtomicUsize4load17h1770c7e888455abdE(ptr align 8 %self, i8 %order) unnamed_addr #0 !dbg !2612 {
start:
  %self.dbg.spill.i = alloca ptr, align 8
  %order.dbg.spill = alloca i8, align 1
  %self.dbg.spill = alloca ptr, align 8
  store ptr %self, ptr %self.dbg.spill, align 8
  call void @llvm.dbg.declare(metadata ptr %self.dbg.spill, metadata !2617, metadata !DIExpression()), !dbg !2619
  store i8 %order, ptr %order.dbg.spill, align 1
  call void @llvm.dbg.declare(metadata ptr %order.dbg.spill, metadata !2618, metadata !DIExpression()), !dbg !2620
  store ptr %self, ptr %self.dbg.spill.i, align 8
  call void @llvm.dbg.declare(metadata ptr %self.dbg.spill.i, metadata !2600, metadata !DIExpression()), !dbg !2621
; call core::sync::atomic::atomic_load
  %_0 = call i64 @_ZN4core4sync6atomic11atomic_load17hd2e5b788ff22c2a4E(ptr %self, i8 %order) #9, !dbg !2623
  ret i64 %_0, !dbg !2624
}

; core::sync::atomic::AtomicUsize::store
; Function Attrs: inlinehint noredzone nounwind
define internal void @_ZN4core4sync6atomic11AtomicUsize5store17h7dc943b7610f0f84E(ptr align 8 %self, i64 %val, i8 %order) unnamed_addr #0 !dbg !2625 {
start:
  %self.dbg.spill.i = alloca ptr, align 8
  %order.dbg.spill = alloca i8, align 1
  %val.dbg.spill = alloca i64, align 8
  %self.dbg.spill = alloca ptr, align 8
  store ptr %self, ptr %self.dbg.spill, align 8
  call void @llvm.dbg.declare(metadata ptr %self.dbg.spill, metadata !2630, metadata !DIExpression()), !dbg !2633
  store i64 %val, ptr %val.dbg.spill, align 8
  call void @llvm.dbg.declare(metadata ptr %val.dbg.spill, metadata !2631, metadata !DIExpression()), !dbg !2634
  store i8 %order, ptr %order.dbg.spill, align 1
  call void @llvm.dbg.declare(metadata ptr %order.dbg.spill, metadata !2632, metadata !DIExpression()), !dbg !2635
  store ptr %self, ptr %self.dbg.spill.i, align 8
  call void @llvm.dbg.declare(metadata ptr %self.dbg.spill.i, metadata !2600, metadata !DIExpression()), !dbg !2636
; call core::sync::atomic::atomic_store
  call void @_ZN4core4sync6atomic12atomic_store17h4916bcb32fe064b2E(ptr %self, i64 %val, i8 %order) #9, !dbg !2638
  ret void, !dbg !2639
}

; core::sync::atomic::compiler_fence
; Function Attrs: inlinehint noredzone nounwind
define internal void @_ZN4core4sync6atomic14compiler_fence17h35baf532ec32b228E(i8 %0) unnamed_addr #0 !dbg !2640 {
start:
  %_4 = alloca %"core::fmt::Arguments<'_>", align 8
  %order = alloca i8, align 1
  store i8 %0, ptr %order, align 1
  call void @llvm.dbg.declare(metadata ptr %order, metadata !2644, metadata !DIExpression()), !dbg !2645
  %1 = load i8, ptr %order, align 1, !dbg !2646, !range !2371, !noundef !29
  %_2 = zext i8 %1 to i64, !dbg !2646
  switch i64 %_2, label %bb8 [
    i64 0, label %bb1
    i64 1, label %bb3
    i64 2, label %bb2
    i64 3, label %bb4
    i64 4, label %bb5
  ], !dbg !2647

bb8:                                              ; preds = %start
  unreachable, !dbg !2647

bb1:                                              ; preds = %start
; call core::fmt::Arguments::new_const
  call void @_ZN4core3fmt9Arguments9new_const17h150cc42a0ce49684E(ptr sret(%"core::fmt::Arguments<'_>") align 8 %_4, ptr align 8 @alloc_430204769d39c3fb374968cb14137bf7, i64 1) #9, !dbg !2648
; call core::panicking::panic_fmt
  call void @_ZN4core9panicking9panic_fmt17ha5e30ccfbdd0aed8E(ptr align 8 %_4, ptr align 8 @alloc_15e6b65a979077866e1a9c60fd8e7af9) #11, !dbg !2648
  unreachable, !dbg !2648

bb3:                                              ; preds = %start
  fence syncscope("singlethread") release, !dbg !2649
  br label %bb7, !dbg !2649

bb2:                                              ; preds = %start
  fence syncscope("singlethread") acquire, !dbg !2650
  br label %bb7, !dbg !2650

bb4:                                              ; preds = %start
  fence syncscope("singlethread") acq_rel, !dbg !2651
  br label %bb7, !dbg !2651

bb5:                                              ; preds = %start
  fence syncscope("singlethread") seq_cst, !dbg !2652
  br label %bb7, !dbg !2652

bb7:                                              ; preds = %bb5, %bb4, %bb2, %bb3
  ret void, !dbg !2653
}

; core::sync::atomic::spin_loop_hint
; Function Attrs: inlinehint noredzone nounwind
define internal void @_ZN4core4sync6atomic14spin_loop_hint17h52f607d221b1427dE() unnamed_addr #0 !dbg !2654 {
start:
; call core::core_arch::x86::sse2::_mm_pause
  call void @_ZN4core9core_arch3x864sse29_mm_pause17h4a376c133b693f10E() #9, !dbg !2655
  ret void, !dbg !2658
}

; core::sync::atomic::strongest_failure_ordering
; Function Attrs: inlinehint noredzone nounwind
define internal i8 @_ZN4core4sync6atomic26strongest_failure_ordering17h952117af826f589cE(i8 %0) unnamed_addr #0 !dbg !2659 {
start:
  %_0 = alloca i8, align 1
  %order = alloca i8, align 1
  store i8 %0, ptr %order, align 1
  call void @llvm.dbg.declare(metadata ptr %order, metadata !2663, metadata !DIExpression()), !dbg !2664
  %1 = load i8, ptr %order, align 1, !dbg !2665, !range !2371, !noundef !29
  %_2 = zext i8 %1 to i64, !dbg !2665
  switch i64 %_2, label %bb7 [
    i64 0, label %bb3
    i64 1, label %bb2
    i64 2, label %bb5
    i64 3, label %bb1
    i64 4, label %bb4
  ], !dbg !2666

bb7:                                              ; preds = %start
  unreachable, !dbg !2666

bb3:                                              ; preds = %start
  store i8 0, ptr %_0, align 1, !dbg !2667
  br label %bb6, !dbg !2667

bb2:                                              ; preds = %start
  store i8 0, ptr %_0, align 1, !dbg !2668
  br label %bb6, !dbg !2668

bb5:                                              ; preds = %start
  store i8 2, ptr %_0, align 1, !dbg !2669
  br label %bb6, !dbg !2669

bb1:                                              ; preds = %start
  store i8 2, ptr %_0, align 1, !dbg !2670
  br label %bb6, !dbg !2670

bb4:                                              ; preds = %start
  store i8 4, ptr %_0, align 1, !dbg !2671
  br label %bb6, !dbg !2671

bb6:                                              ; preds = %bb4, %bb1, %bb5, %bb2, %bb3
  %2 = load i8, ptr %_0, align 1, !dbg !2672, !range !2371, !noundef !29
  ret i8 %2, !dbg !2672
}

; core::option::Option<T>::map
; Function Attrs: inlinehint noredzone nounwind
define internal align 8 ptr @"_ZN4core6option15Option$LT$T$GT$3map17h7c90101ad603b515E"(i64 %0, i64 %1, ptr align 8 %f) unnamed_addr #0 !dbg !2673 {
start:
  %x.dbg.spill = alloca i64, align 8
  %f.dbg.spill = alloca ptr, align 8
  %_8 = alloca i8, align 1
  %_7 = alloca i64, align 8
  %_0 = alloca ptr, align 8
  %self = alloca %"core::option::Option<usize>", align 8
  store i64 %0, ptr %self, align 8
  %2 = getelementptr inbounds i8, ptr %self, i64 8
  store i64 %1, ptr %2, align 8
  call void @llvm.dbg.declare(metadata ptr %self, metadata !2682, metadata !DIExpression()), !dbg !2686
  store ptr %f, ptr %f.dbg.spill, align 8
  call void @llvm.dbg.declare(metadata ptr %f.dbg.spill, metadata !2683, metadata !DIExpression()), !dbg !2687
  store i8 0, ptr %_8, align 1, !dbg !2688
  store i8 1, ptr %_8, align 1, !dbg !2688
  %_3 = load i64, ptr %self, align 8, !dbg !2688, !range !1512, !noundef !29
  %3 = icmp eq i64 %_3, 0, !dbg !2689
  br i1 %3, label %bb1, label %bb3, !dbg !2689

bb1:                                              ; preds = %start
  store ptr null, ptr %_0, align 8, !dbg !2690
  br label %bb7, !dbg !2690

bb3:                                              ; preds = %start
  %4 = getelementptr inbounds i8, ptr %self, i64 8, !dbg !2691
  %x = load i64, ptr %4, align 8, !dbg !2691, !noundef !29
  store i64 %x, ptr %x.dbg.spill, align 8, !dbg !2691
  call void @llvm.dbg.declare(metadata ptr %x.dbg.spill, metadata !2684, metadata !DIExpression()), !dbg !2692
  store i8 0, ptr %_8, align 1, !dbg !2693
  store i64 %x, ptr %_7, align 8, !dbg !2693
  %5 = load i64, ptr %_7, align 8, !dbg !2693, !noundef !29
; call core::ops::function::impls::<impl core::ops::function::FnOnce<A> for &mut F>::call_once
  %_5 = call align 8 ptr @"_ZN4core3ops8function5impls80_$LT$impl$u20$core..ops..function..FnOnce$LT$A$GT$$u20$for$u20$$RF$mut$u20$F$GT$9call_once17h86e2ce583b68bbc9E"(ptr align 8 %f, i64 %5) #9, !dbg !2693
  store ptr %_5, ptr %_0, align 8, !dbg !2694
  br label %bb7, !dbg !2695

bb7:                                              ; preds = %bb3, %bb1
  %6 = load i8, ptr %_8, align 1, !dbg !2696, !range !1335, !noundef !29
  %7 = trunc i8 %6 to i1, !dbg !2696
  br i1 %7, label %bb6, label %bb5, !dbg !2696

bb5:                                              ; preds = %bb6, %bb7
  %8 = load ptr, ptr %_0, align 8, !dbg !2697, !align !1277, !noundef !29
  ret ptr %8, !dbg !2697

bb6:                                              ; preds = %bb7
  br label %bb5, !dbg !2696

bb2:                                              ; No predecessors!
  unreachable, !dbg !2688
}

; core::option::Option<T>::as_ref
; Function Attrs: inlinehint noredzone nounwind
define internal align 16 ptr @"_ZN4core6option15Option$LT$T$GT$6as_ref17h4d3571f50eb8cc42E"(ptr align 16 %self) unnamed_addr #0 !dbg !2698 {
start:
  %x.dbg.spill = alloca ptr, align 8
  %self.dbg.spill = alloca ptr, align 8
  %_0 = alloca ptr, align 8
  store ptr %self, ptr %self.dbg.spill, align 8
  call void @llvm.dbg.declare(metadata ptr %self.dbg.spill, metadata !2718, metadata !DIExpression()), !dbg !2721
  %0 = getelementptr inbounds %"core::option::Option<cpu_interrupts::interrupt_descriptor_table::SafeInterruptDescriptorTable>", ptr %self, i32 0, i32 1, !dbg !2722
  %1 = load i8, ptr %0, align 2, !dbg !2722, !range !1333, !noundef !29
  %2 = icmp eq i8 %1, 2, !dbg !2722
  %_2 = select i1 %2, i64 0, i64 1, !dbg !2722
  %3 = icmp eq i64 %_2, 0, !dbg !2723
  br i1 %3, label %bb1, label %bb3, !dbg !2723

bb1:                                              ; preds = %start
  store ptr null, ptr %_0, align 8, !dbg !2724
  br label %bb4, !dbg !2724

bb3:                                              ; preds = %start
  store ptr %self, ptr %x.dbg.spill, align 8, !dbg !2725
  call void @llvm.dbg.declare(metadata ptr %x.dbg.spill, metadata !2719, metadata !DIExpression()), !dbg !2726
  store ptr %self, ptr %_0, align 8, !dbg !2727
  br label %bb4, !dbg !2728

bb4:                                              ; preds = %bb3, %bb1
  %4 = load ptr, ptr %_0, align 8, !dbg !2729, !align !2730, !noundef !29
  ret ptr %4, !dbg !2729

bb2:                                              ; No predecessors!
  unreachable, !dbg !2722
}

; core::option::Option<T>::as_ref
; Function Attrs: inlinehint noredzone nounwind
define internal align 2 ptr @"_ZN4core6option15Option$LT$T$GT$6as_ref17h7b2d0fae2038b827E"(ptr align 2 %self) unnamed_addr #0 !dbg !2731 {
start:
  %x.dbg.spill = alloca ptr, align 8
  %self.dbg.spill = alloca ptr, align 8
  %_0 = alloca ptr, align 8
  store ptr %self, ptr %self.dbg.spill, align 8
  call void @llvm.dbg.declare(metadata ptr %self.dbg.spill, metadata !2751, metadata !DIExpression()), !dbg !2754
  %0 = load i16, ptr %self, align 2, !dbg !2755, !range !2756, !noundef !29
  %_2 = zext i16 %0 to i64, !dbg !2755
  %1 = icmp eq i64 %_2, 0, !dbg !2757
  br i1 %1, label %bb1, label %bb3, !dbg !2757

bb1:                                              ; preds = %start
  store ptr null, ptr %_0, align 8, !dbg !2758
  br label %bb4, !dbg !2758

bb3:                                              ; preds = %start
  %x = getelementptr inbounds %"core::option::Option<spin::mutex::Mutex<keyboard::Keyboard<pc_keyboard::layouts::us104::Us104Key, pc_keyboard::scancodes::set1::ScancodeSet1>>>::Some", ptr %self, i32 0, i32 1, !dbg !2759
  store ptr %x, ptr %x.dbg.spill, align 8, !dbg !2759
  call void @llvm.dbg.declare(metadata ptr %x.dbg.spill, metadata !2752, metadata !DIExpression()), !dbg !2760
  store ptr %x, ptr %_0, align 8, !dbg !2761
  br label %bb4, !dbg !2762

bb4:                                              ; preds = %bb3, %bb1
  %2 = load ptr, ptr %_0, align 8, !dbg !2763, !align !2764, !noundef !29
  ret ptr %2, !dbg !2763

bb2:                                              ; No predecessors!
  unreachable, !dbg !2755
}

; core::option::Option<T>::as_ref
; Function Attrs: inlinehint noredzone nounwind
define internal align 8 ptr @"_ZN4core6option15Option$LT$T$GT$6as_ref17hb6514294b2b221acE"(ptr align 8 %self) unnamed_addr #0 !dbg !2765 {
start:
  %x.dbg.spill = alloca ptr, align 8
  %self.dbg.spill = alloca ptr, align 8
  %_0 = alloca ptr, align 8
  store ptr %self, ptr %self.dbg.spill, align 8
  call void @llvm.dbg.declare(metadata ptr %self.dbg.spill, metadata !2785, metadata !DIExpression()), !dbg !2788
  %_2 = load i64, ptr %self, align 8, !dbg !2789, !range !1512, !noundef !29
  %0 = icmp eq i64 %_2, 0, !dbg !2790
  br i1 %0, label %bb1, label %bb3, !dbg !2790

bb1:                                              ; preds = %start
  store ptr null, ptr %_0, align 8, !dbg !2791
  br label %bb4, !dbg !2791

bb3:                                              ; preds = %start
  %x = getelementptr inbounds %"core::option::Option<spin::mutex::Mutex<vga::Screen>>::Some", ptr %self, i32 0, i32 1, !dbg !2792
  store ptr %x, ptr %x.dbg.spill, align 8, !dbg !2792
  call void @llvm.dbg.declare(metadata ptr %x.dbg.spill, metadata !2786, metadata !DIExpression()), !dbg !2793
  store ptr %x, ptr %_0, align 8, !dbg !2794
  br label %bb4, !dbg !2795

bb4:                                              ; preds = %bb3, %bb1
  %1 = load ptr, ptr %_0, align 8, !dbg !2796, !align !1277, !noundef !29
  ret ptr %1, !dbg !2796

bb2:                                              ; No predecessors!
  unreachable, !dbg !2789
}

; core::core_arch::x86::sse2::_mm_pause
; Function Attrs: inlinehint noredzone nounwind
define internal void @_ZN4core9core_arch3x864sse29_mm_pause17h4a376c133b693f10E() unnamed_addr #0 !dbg !2797 {
start:
  call void @llvm.x86.sse2.pause() #9, !dbg !2802
  ret void, !dbg !2803
}

; spin::once::Once<T>::call_once
; Function Attrs: noredzone nounwind
define internal align 2 ptr @"_ZN4spin4once13Once$LT$T$GT$9call_once17h0a6d07152dae4230E"(ptr align 8 %self) unnamed_addr #1 !dbg !2804 {
start:
  %self.dbg.spill.i = alloca ptr, align 8
  %builder.dbg.spill = alloca {}, align 1
  %self.dbg.spill = alloca ptr, align 8
  %_33 = alloca i8, align 1
  %_29 = alloca i8, align 1
  %_23 = alloca i8, align 1
  %_16 = alloca %"spin::mutex::Mutex<keyboard::Keyboard<pc_keyboard::layouts::us104::Us104Key, pc_keyboard::scancodes::set1::ScancodeSet1>>", align 2
  %_15 = alloca %"core::option::Option<spin::mutex::Mutex<keyboard::Keyboard<pc_keyboard::layouts::us104::Us104Key, pc_keyboard::scancodes::set1::ScancodeSet1>>>", align 2
  %finish = alloca %"spin::once::Finish<'_>", align 8
  %_10 = alloca i8, align 1
  %_5 = alloca i8, align 1
  %status = alloca i64, align 8
  %_0 = alloca ptr, align 8
  store ptr %self, ptr %self.dbg.spill, align 8
  call void @llvm.dbg.declare(metadata ptr %self.dbg.spill, metadata !2813, metadata !DIExpression()), !dbg !2823
  call void @llvm.dbg.declare(metadata ptr %builder.dbg.spill, metadata !2814, metadata !DIExpression()), !dbg !2824
  call void @llvm.dbg.declare(metadata ptr %status, metadata !2815, metadata !DIExpression()), !dbg !2825
  call void @llvm.dbg.declare(metadata ptr %finish, metadata !2817, metadata !DIExpression()), !dbg !2826
  store i8 0, ptr %_33, align 1, !dbg !2827
  store i8 1, ptr %_33, align 1, !dbg !2827
  store i8 4, ptr %_5, align 1, !dbg !2828
  %0 = load i8, ptr %_5, align 1, !dbg !2829, !range !2371, !noundef !29
; call core::sync::atomic::AtomicUsize::load
  %1 = call i64 @_ZN4core4sync6atomic11AtomicUsize4load17h1770c7e888455abdE(ptr align 8 %self, i8 %0) #9, !dbg !2829
  store i64 %1, ptr %status, align 8, !dbg !2829
  %_7 = load i64, ptr %status, align 8, !dbg !2830, !noundef !29
  %_6 = icmp eq i64 %_7, 0, !dbg !2830
  br i1 %_6, label %bb2, label %bb10, !dbg !2830

bb10:                                             ; preds = %bb13, %bb2, %start
  %2 = load i64, ptr %status, align 8, !dbg !2831, !noundef !29
  switch i64 %2, label %bb11 [
    i64 0, label %bb12
    i64 1, label %bb13
    i64 3, label %bb16
    i64 2, label %bb17
  ], !dbg !2831

bb2:                                              ; preds = %start
  store i8 4, ptr %_10, align 1, !dbg !2832
  %3 = load i8, ptr %_10, align 1, !dbg !2833, !range !2371, !noundef !29
; call core::sync::atomic::AtomicUsize::compare_and_swap
  %_8 = call i64 @_ZN4core4sync6atomic11AtomicUsize16compare_and_swap17h37926aec4106a0f1E(ptr align 8 %self, i64 0, i64 1, i8 %3) #9, !dbg !2833
  store i64 %_8, ptr %status, align 8, !dbg !2834
  %_12 = load i64, ptr %status, align 8, !dbg !2835, !noundef !29
  %_11 = icmp eq i64 %_12, 0, !dbg !2835
  br i1 %_11, label %bb4, label %bb10, !dbg !2835

bb4:                                              ; preds = %bb2
  store ptr %self, ptr %finish, align 8, !dbg !2836
  %4 = getelementptr inbounds i8, ptr %finish, i64 8, !dbg !2836
  store i8 1, ptr %4, align 8, !dbg !2836
  store i8 0, ptr %_33, align 1, !dbg !2837
; call core::ops::function::FnOnce::call_once
  call void @_ZN4core3ops8function6FnOnce9call_once17hf09d7003a9f1562cE(ptr sret(%"spin::mutex::Mutex<keyboard::Keyboard<pc_keyboard::layouts::us104::Us104Key, pc_keyboard::scancodes::set1::ScancodeSet1>>") align 2 %_16) #9, !dbg !2837
  %5 = getelementptr inbounds %"core::option::Option<spin::mutex::Mutex<keyboard::Keyboard<pc_keyboard::layouts::us104::Us104Key, pc_keyboard::scancodes::set1::ScancodeSet1>>>::Some", ptr %_15, i32 0, i32 1, !dbg !2838
  call void @llvm.memcpy.p0.p0.i64(ptr align 2 %5, ptr align 2 %_16, i64 18, i1 false), !dbg !2838
  store i16 1, ptr %_15, align 2, !dbg !2838
  %_19 = getelementptr inbounds %"spin::once::Once<spin::mutex::Mutex<keyboard::Keyboard<pc_keyboard::layouts::us104::Us104Key, pc_keyboard::scancodes::set1::ScancodeSet1>>>", ptr %self, i32 0, i32 1, !dbg !2839
  store ptr %_19, ptr %self.dbg.spill.i, align 8
  call void @llvm.dbg.declare(metadata ptr %self.dbg.spill.i, metadata !2840, metadata !DIExpression()), !dbg !2848
  call void @llvm.memcpy.p0.p0.i64(ptr align 2 %_19, ptr align 2 %_15, i64 20, i1 false), !dbg !2850
  %6 = getelementptr inbounds i8, ptr %finish, i64 8, !dbg !2851
  store i8 0, ptr %6, align 8, !dbg !2851
  store i64 2, ptr %status, align 8, !dbg !2852
  %_22 = load i64, ptr %status, align 8, !dbg !2853, !noundef !29
  store i8 4, ptr %_23, align 1, !dbg !2854
  %7 = load i8, ptr %_23, align 1, !dbg !2855, !range !2371, !noundef !29
; call core::sync::atomic::AtomicUsize::store
  call void @_ZN4core4sync6atomic11AtomicUsize5store17h7dc943b7610f0f84E(ptr align 8 %self, i64 %_22, i8 %7) #9, !dbg !2855
; call spin::once::Once<T>::force_get
  %_24 = call align 2 ptr @"_ZN4spin4once13Once$LT$T$GT$9force_get17h6eff204ea286caf9E"(ptr align 8 %self) #9, !dbg !2856
  store ptr %_24, ptr %_0, align 8, !dbg !2856
; call core::ptr::drop_in_place<spin::once::Finish>
  call void @"_ZN4core3ptr39drop_in_place$LT$spin..once..Finish$GT$17h555ec6f99d097d21E"(ptr align 8 %finish) #9, !dbg !2857
  br label %bb19, !dbg !2857

bb11:                                             ; preds = %bb10
; call core::hint::unreachable_unchecked
  call void @_ZN4core4hint21unreachable_unchecked17hb17936b2801ed01fE() #11, !dbg !2858
  unreachable, !dbg !2858

bb12:                                             ; preds = %bb10
; call core::panicking::panic
  call void @_ZN4core9panicking5panic17h6f817e467d9b8599E(ptr align 1 @alloc_a500d906b91607583596fa15e63c2ada, i64 40, ptr align 8 @alloc_5be19f098388ddfa34a5cde2d2c61c94) #11, !dbg !2859
  unreachable, !dbg !2859

bb13:                                             ; preds = %bb10
; call core::sync::atomic::spin_loop_hint
  call void @_ZN4core4sync6atomic14spin_loop_hint17h52f607d221b1427dE() #9, !dbg !2860
  store i8 4, ptr %_29, align 1, !dbg !2861
  %8 = load i8, ptr %_29, align 1, !dbg !2862, !range !2371, !noundef !29
; call core::sync::atomic::AtomicUsize::load
  %_27 = call i64 @_ZN4core4sync6atomic11AtomicUsize4load17h1770c7e888455abdE(ptr align 8 %self, i8 %8) #9, !dbg !2862
  store i64 %_27, ptr %status, align 8, !dbg !2863
  br label %bb10, !dbg !2864

bb16:                                             ; preds = %bb10
; call core::panicking::panic
  call void @_ZN4core9panicking5panic17h6f817e467d9b8599E(ptr align 1 @alloc_b41ce9db6ff9e09c515cee5b4d05db5e, i64 17, ptr align 8 @alloc_cbdd636a907b817e5acd19150abaf3dc) #11, !dbg !2865
  unreachable, !dbg !2865

bb17:                                             ; preds = %bb10
; call spin::once::Once<T>::force_get
  %_31 = call align 2 ptr @"_ZN4spin4once13Once$LT$T$GT$9force_get17h6eff204ea286caf9E"(ptr align 8 %self) #9, !dbg !2866
  store ptr %_31, ptr %_0, align 8, !dbg !2866
  br label %bb19, !dbg !2867

bb19:                                             ; preds = %bb4, %bb17
  %9 = load i8, ptr %_33, align 1, !dbg !2869, !range !1335, !noundef !29
  %10 = trunc i8 %9 to i1, !dbg !2869
  br i1 %10, label %bb21, label %bb20, !dbg !2869

bb20:                                             ; preds = %bb21, %bb19
  %11 = load ptr, ptr %_0, align 8, !dbg !2870, !nonnull !29, !align !2764, !noundef !29
  ret ptr %11, !dbg !2870

bb21:                                             ; preds = %bb19
  br label %bb20, !dbg !2869
}

; spin::once::Once<T>::call_once
; Function Attrs: noredzone nounwind
define internal align 16 ptr @"_ZN4spin4once13Once$LT$T$GT$9call_once17h524ced28fb72061cE"(ptr align 16 %self) unnamed_addr #1 !dbg !2871 {
start:
  %self.dbg.spill.i = alloca ptr, align 8
  %builder.dbg.spill = alloca {}, align 1
  %self.dbg.spill = alloca ptr, align 8
  %_33 = alloca i8, align 1
  %_29 = alloca i8, align 1
  %_23 = alloca i8, align 1
  %_16 = alloca %"cpu_interrupts::interrupt_descriptor_table::SafeInterruptDescriptorTable", align 16
  %_15 = alloca %"core::option::Option<cpu_interrupts::interrupt_descriptor_table::SafeInterruptDescriptorTable>", align 16
  %finish = alloca %"spin::once::Finish<'_>", align 8
  %_10 = alloca i8, align 1
  %_5 = alloca i8, align 1
  %status = alloca i64, align 8
  %_0 = alloca ptr, align 8
  store ptr %self, ptr %self.dbg.spill, align 8
  call void @llvm.dbg.declare(metadata ptr %self.dbg.spill, metadata !2879, metadata !DIExpression()), !dbg !2885
  call void @llvm.dbg.declare(metadata ptr %builder.dbg.spill, metadata !2880, metadata !DIExpression()), !dbg !2886
  call void @llvm.dbg.declare(metadata ptr %status, metadata !2881, metadata !DIExpression()), !dbg !2887
  call void @llvm.dbg.declare(metadata ptr %finish, metadata !2883, metadata !DIExpression()), !dbg !2888
  store i8 0, ptr %_33, align 1, !dbg !2889
  store i8 1, ptr %_33, align 1, !dbg !2889
  %_4 = getelementptr inbounds %"spin::once::Once<cpu_interrupts::interrupt_descriptor_table::SafeInterruptDescriptorTable>", ptr %self, i32 0, i32 1, !dbg !2890
  store i8 4, ptr %_5, align 1, !dbg !2891
  %0 = load i8, ptr %_5, align 1, !dbg !2890, !range !2371, !noundef !29
; call core::sync::atomic::AtomicUsize::load
  %1 = call i64 @_ZN4core4sync6atomic11AtomicUsize4load17h1770c7e888455abdE(ptr align 8 %_4, i8 %0) #9, !dbg !2890
  store i64 %1, ptr %status, align 8, !dbg !2890
  %_7 = load i64, ptr %status, align 8, !dbg !2892, !noundef !29
  %_6 = icmp eq i64 %_7, 0, !dbg !2892
  br i1 %_6, label %bb2, label %bb10, !dbg !2892

bb10:                                             ; preds = %bb13, %bb2, %start
  %2 = load i64, ptr %status, align 8, !dbg !2893, !noundef !29
  switch i64 %2, label %bb11 [
    i64 0, label %bb12
    i64 1, label %bb13
    i64 3, label %bb16
    i64 2, label %bb17
  ], !dbg !2893

bb2:                                              ; preds = %start
  %_9 = getelementptr inbounds %"spin::once::Once<cpu_interrupts::interrupt_descriptor_table::SafeInterruptDescriptorTable>", ptr %self, i32 0, i32 1, !dbg !2894
  store i8 4, ptr %_10, align 1, !dbg !2895
  %3 = load i8, ptr %_10, align 1, !dbg !2894, !range !2371, !noundef !29
; call core::sync::atomic::AtomicUsize::compare_and_swap
  %_8 = call i64 @_ZN4core4sync6atomic11AtomicUsize16compare_and_swap17h37926aec4106a0f1E(ptr align 8 %_9, i64 0, i64 1, i8 %3) #9, !dbg !2894
  store i64 %_8, ptr %status, align 8, !dbg !2896
  %_12 = load i64, ptr %status, align 8, !dbg !2897, !noundef !29
  %_11 = icmp eq i64 %_12, 0, !dbg !2897
  br i1 %_11, label %bb4, label %bb10, !dbg !2897

bb4:                                              ; preds = %bb2
  %_14 = getelementptr inbounds %"spin::once::Once<cpu_interrupts::interrupt_descriptor_table::SafeInterruptDescriptorTable>", ptr %self, i32 0, i32 1, !dbg !2898
  store ptr %_14, ptr %finish, align 8, !dbg !2899
  %4 = getelementptr inbounds i8, ptr %finish, i64 8, !dbg !2899
  store i8 1, ptr %4, align 8, !dbg !2899
  store i8 0, ptr %_33, align 1, !dbg !2900
; call core::ops::function::FnOnce::call_once
  call void @_ZN4core3ops8function6FnOnce9call_once17had8963dafdd684c9E(ptr sret(%"cpu_interrupts::interrupt_descriptor_table::SafeInterruptDescriptorTable") align 16 %_16) #9, !dbg !2900
  call void @llvm.memcpy.p0.p0.i64(ptr align 16 %_15, ptr align 16 %_16, i64 4112, i1 false), !dbg !2901
  store ptr %self, ptr %self.dbg.spill.i, align 8
  call void @llvm.dbg.declare(metadata ptr %self.dbg.spill.i, metadata !2902, metadata !DIExpression()), !dbg !2910
  call void @llvm.memcpy.p0.p0.i64(ptr align 16 %self, ptr align 16 %_15, i64 4112, i1 false), !dbg !2912
  %5 = getelementptr inbounds i8, ptr %finish, i64 8, !dbg !2913
  store i8 0, ptr %5, align 8, !dbg !2913
  store i64 2, ptr %status, align 8, !dbg !2914
  %_21 = getelementptr inbounds %"spin::once::Once<cpu_interrupts::interrupt_descriptor_table::SafeInterruptDescriptorTable>", ptr %self, i32 0, i32 1, !dbg !2915
  %_22 = load i64, ptr %status, align 8, !dbg !2916, !noundef !29
  store i8 4, ptr %_23, align 1, !dbg !2917
  %6 = load i8, ptr %_23, align 1, !dbg !2915, !range !2371, !noundef !29
; call core::sync::atomic::AtomicUsize::store
  call void @_ZN4core4sync6atomic11AtomicUsize5store17h7dc943b7610f0f84E(ptr align 8 %_21, i64 %_22, i8 %6) #9, !dbg !2915
; call spin::once::Once<T>::force_get
  %_24 = call align 16 ptr @"_ZN4spin4once13Once$LT$T$GT$9force_get17hfecdf8d252a23e07E"(ptr align 16 %self) #9, !dbg !2918
  store ptr %_24, ptr %_0, align 8, !dbg !2918
; call core::ptr::drop_in_place<spin::once::Finish>
  call void @"_ZN4core3ptr39drop_in_place$LT$spin..once..Finish$GT$17h555ec6f99d097d21E"(ptr align 8 %finish) #9, !dbg !2919
  br label %bb19, !dbg !2919

bb11:                                             ; preds = %bb10
; call core::hint::unreachable_unchecked
  call void @_ZN4core4hint21unreachable_unchecked17hb17936b2801ed01fE() #11, !dbg !2920
  unreachable, !dbg !2920

bb12:                                             ; preds = %bb10
; call core::panicking::panic
  call void @_ZN4core9panicking5panic17h6f817e467d9b8599E(ptr align 1 @alloc_a500d906b91607583596fa15e63c2ada, i64 40, ptr align 8 @alloc_5be19f098388ddfa34a5cde2d2c61c94) #11, !dbg !2921
  unreachable, !dbg !2921

bb13:                                             ; preds = %bb10
; call core::sync::atomic::spin_loop_hint
  call void @_ZN4core4sync6atomic14spin_loop_hint17h52f607d221b1427dE() #9, !dbg !2922
  %_28 = getelementptr inbounds %"spin::once::Once<cpu_interrupts::interrupt_descriptor_table::SafeInterruptDescriptorTable>", ptr %self, i32 0, i32 1, !dbg !2923
  store i8 4, ptr %_29, align 1, !dbg !2924
  %7 = load i8, ptr %_29, align 1, !dbg !2923, !range !2371, !noundef !29
; call core::sync::atomic::AtomicUsize::load
  %_27 = call i64 @_ZN4core4sync6atomic11AtomicUsize4load17h1770c7e888455abdE(ptr align 8 %_28, i8 %7) #9, !dbg !2923
  store i64 %_27, ptr %status, align 8, !dbg !2925
  br label %bb10, !dbg !2926

bb16:                                             ; preds = %bb10
; call core::panicking::panic
  call void @_ZN4core9panicking5panic17h6f817e467d9b8599E(ptr align 1 @alloc_b41ce9db6ff9e09c515cee5b4d05db5e, i64 17, ptr align 8 @alloc_cbdd636a907b817e5acd19150abaf3dc) #11, !dbg !2927
  unreachable, !dbg !2927

bb17:                                             ; preds = %bb10
; call spin::once::Once<T>::force_get
