; ModuleID = '5go9lycto8m1beel'
source_filename = "5go9lycto8m1beel"
target datalayout = "e-m:e-i64:64-f80:128-n8:16:32:64-S128"
target triple = "x86_64-obuasi-unknown-none"

%"core::fmt::Arguments<'_>" = type { { ptr, i64 }, { ptr, i64 }, { ptr, i64 } }
%"x86_64::structures::idt::InterruptDescriptorTable" = type { %"x86_64::structures::idt::Entry<extern \22x86-interrupt\22 fn(x86_64::structures::idt::InterruptStackFrame)>", %"x86_64::structures::idt::Entry<extern \22x86-interrupt\22 fn(x86_64::structures::idt::InterruptStackFrame)>", %"x86_64::structures::idt::Entry<extern \22x86-interrupt\22 fn(x86_64::structures::idt::InterruptStackFrame)>", %"x86_64::structures::idt::Entry<extern \22x86-interrupt\22 fn(x86_64::structures::idt::InterruptStackFrame)>", %"x86_64::structures::idt::Entry<extern \22x86-interrupt\22 fn(x86_64::structures::idt::InterruptStackFrame)>", %"x86_64::structures::idt::Entry<extern \22x86-interrupt\22 fn(x86_64::structures::idt::InterruptStackFrame)>", %"x86_64::structures::idt::Entry<extern \22x86-interrupt\22 fn(x86_64::structures::idt::InterruptStackFrame)>", %"x86_64::structures::idt::Entry<extern \22x86-interrupt\22 fn(x86_64::structures::idt::InterruptStackFrame)>", %"x86_64::structures::idt::Entry<extern \22x86-interrupt\22 fn(x86_64::structures::idt::InterruptStackFrame, u64) -> !>", %"x86_64::structures::idt::Entry<extern \22x86-interrupt\22 fn(x86_64::structures::idt::InterruptStackFrame)>", %"x86_64::structures::idt::Entry<extern \22x86-interrupt\22 fn(x86_64::structures::idt::InterruptStackFrame, u64)>", %"x86_64::structures::idt::Entry<extern \22x86-interrupt\22 fn(x86_64::structures::idt::InterruptStackFrame, u64)>", %"x86_64::structures::idt::Entry<extern \22x86-interrupt\22 fn(x86_64::structures::idt::InterruptStackFrame, u64)>", %"x86_64::structures::idt::Entry<extern \22x86-interrupt\22 fn(x86_64::structures::idt::InterruptStackFrame, u64)>", %"x86_64::structures::idt::Entry<extern \22x86-interrupt\22 fn(x86_64::structures::idt::InterruptStackFrame, x86_64::structures::idt::PageFaultErrorCode)>", %"x86_64::structures::idt::Entry<extern \22x86-interrupt\22 fn(x86_64::structures::idt::InterruptStackFrame)>", %"x86_64::structures::idt::Entry<extern \22x86-interrupt\22 fn(x86_64::structures::idt::InterruptStackFrame)>", %"x86_64::structures::idt::Entry<extern \22x86-interrupt\22 fn(x86_64::structures::idt::InterruptStackFrame, u64)>", %"x86_64::structures::idt::Entry<extern \22x86-interrupt\22 fn(x86_64::structures::idt::InterruptStackFrame) -> !>", %"x86_64::structures::idt::Entry<extern \22x86-interrupt\22 fn(x86_64::structures::idt::InterruptStackFrame)>", %"x86_64::structures::idt::Entry<extern \22x86-interrupt\22 fn(x86_64::structures::idt::InterruptStackFrame)>", %"x86_64::structures::idt::Entry<extern \22x86-interrupt\22 fn(x86_64::structures::idt::InterruptStackFrame, u64)>", [6 x %"x86_64::structures::idt::Entry<extern \22x86-interrupt\22 fn(x86_64::structures::idt::InterruptStackFrame)>"], %"x86_64::structures::idt::Entry<extern \22x86-interrupt\22 fn(x86_64::structures::idt::InterruptStackFrame)>", %"x86_64::structures::idt::Entry<extern \22x86-interrupt\22 fn(x86_64::structures::idt::InterruptStackFrame, u64)>", %"x86_64::structures::idt::Entry<extern \22x86-interrupt\22 fn(x86_64::structures::idt::InterruptStackFrame, u64)>", %"x86_64::structures::idt::Entry<extern \22x86-interrupt\22 fn(x86_64::structures::idt::InterruptStackFrame)>", [224 x %"x86_64::structures::idt::Entry<extern \22x86-interrupt\22 fn(x86_64::structures::idt::InterruptStackFrame)>"] }
%"x86_64::structures::idt::Entry<extern \22x86-interrupt\22 fn(x86_64::structures::idt::InterruptStackFrame, u64) -> !>" = type { i16, i16, i16, i16, i32, i32, %"core::marker::PhantomData<extern \22x86-interrupt\22 fn(x86_64::structures::idt::InterruptStackFrame, u64) -> !>" }
%"core::marker::PhantomData<extern \22x86-interrupt\22 fn(x86_64::structures::idt::InterruptStackFrame, u64) -> !>" = type {}
%"x86_64::structures::idt::Entry<extern \22x86-interrupt\22 fn(x86_64::structures::idt::InterruptStackFrame, x86_64::structures::idt::PageFaultErrorCode)>" = type { i16, i16, i16, i16, i32, i32, %"core::marker::PhantomData<extern \22x86-interrupt\22 fn(x86_64::structures::idt::InterruptStackFrame, x86_64::structures::idt::PageFaultErrorCode)>" }
%"core::marker::PhantomData<extern \22x86-interrupt\22 fn(x86_64::structures::idt::InterruptStackFrame, x86_64::structures::idt::PageFaultErrorCode)>" = type {}
%"x86_64::structures::idt::Entry<extern \22x86-interrupt\22 fn(x86_64::structures::idt::InterruptStackFrame) -> !>" = type { i16, i16, i16, i16, i32, i32, %"core::marker::PhantomData<extern \22x86-interrupt\22 fn(x86_64::structures::idt::InterruptStackFrame) -> !>" }
%"core::marker::PhantomData<extern \22x86-interrupt\22 fn(x86_64::structures::idt::InterruptStackFrame) -> !>" = type {}
%"x86_64::structures::idt::Entry<extern \22x86-interrupt\22 fn(x86_64::structures::idt::InterruptStackFrame, u64)>" = type { i16, i16, i16, i16, i32, i32, %"core::marker::PhantomData<extern \22x86-interrupt\22 fn(x86_64::structures::idt::InterruptStackFrame, u64)>" }
%"core::marker::PhantomData<extern \22x86-interrupt\22 fn(x86_64::structures::idt::InterruptStackFrame, u64)>" = type {}
%"x86_64::structures::idt::Entry<extern \22x86-interrupt\22 fn(x86_64::structures::idt::InterruptStackFrame)>" = type { i16, i16, i16, i16, i32, i32, %"core::marker::PhantomData<extern \22x86-interrupt\22 fn(x86_64::structures::idt::InterruptStackFrame)>" }
%"core::marker::PhantomData<extern \22x86-interrupt\22 fn(x86_64::structures::idt::InterruptStackFrame)>" = type {}
%"pc_keyboard::DecodedKey" = type { i8, [7 x i8] }
%"core::option::Option<pc_keyboard::DecodedKey>" = type { i8, [7 x i8] }
%"pc_keyboard::EventDecoder<pc_keyboard::layouts::us104::Us104Key>" = type { i8, %"pc_keyboard::Modifiers", %"pc_keyboard::layouts::us104::Us104Key" }
%"pc_keyboard::Modifiers" = type { i8, i8, i8, i8, i8, i8, i8, i8 }
%"pc_keyboard::layouts::us104::Us104Key" = type {}
%"pc_keyboard::DecodedKey::RawKey" = type { [1 x i8], i8 }
%"pc_keyboard::Keyboard<pc_keyboard::layouts::us104::Us104Key, pc_keyboard::scancodes::set1::ScancodeSet1>" = type { { i16, i8 }, %"pc_keyboard::EventDecoder<pc_keyboard::layouts::us104::Us104Key>", i8 }
%"core::result::Result<core::option::Option<pc_keyboard::KeyEvent>, pc_keyboard::Error>" = type { i8, [1 x i8] }
%"core::fmt::rt::UnsafeArg" = type { {} }
%"spin::mutex::Mutex<keyboard::Keyboard<pc_keyboard::layouts::us104::Us104Key, pc_keyboard::scancodes::set1::ScancodeSet1>>" = type { %"spin::mutex::spin::SpinMutex<keyboard::Keyboard<pc_keyboard::layouts::us104::Us104Key, pc_keyboard::scancodes::set1::ScancodeSet1>>" }
%"spin::mutex::spin::SpinMutex<keyboard::Keyboard<pc_keyboard::layouts::us104::Us104Key, pc_keyboard::scancodes::set1::ScancodeSet1>>" = type { %"core::marker::PhantomData<spin::relax::Spin>", %"core::sync::atomic::AtomicBool", [1 x i8], %"core::cell::UnsafeCell<keyboard::Keyboard<pc_keyboard::layouts::us104::Us104Key, pc_keyboard::scancodes::set1::ScancodeSet1>>" }
%"core::marker::PhantomData<spin::relax::Spin>" = type {}
%"core::sync::atomic::AtomicBool" = type { i8 }
%"core::cell::UnsafeCell<keyboard::Keyboard<pc_keyboard::layouts::us104::Us104Key, pc_keyboard::scancodes::set1::ScancodeSet1>>" = type { %"keyboard::Keyboard<pc_keyboard::layouts::us104::Us104Key, pc_keyboard::scancodes::set1::ScancodeSet1>" }
%"keyboard::Keyboard<pc_keyboard::layouts::us104::Us104Key, pc_keyboard::scancodes::set1::ScancodeSet1>" = type { %"pc_keyboard::Keyboard<pc_keyboard::layouts::us104::Us104Key, pc_keyboard::scancodes::set1::ScancodeSet1>", i16 }
%"spin::mutex::Mutex<vga::Screen>" = type { %"spin::mutex::spin::SpinMutex<vga::Screen>" }
%"spin::mutex::spin::SpinMutex<vga::Screen>" = type { %"core::marker::PhantomData<spin::relax::Spin>", %"core::sync::atomic::AtomicBool", [7 x i8], %"core::cell::UnsafeCell<vga::Screen>" }
%"core::cell::UnsafeCell<vga::Screen>" = type { %"vga::Screen" }
%"vga::Screen" = type { ptr, i64, { i64, i64 }, { i64, i64 }, [80 x { i8, i8 }], i8, [7 x i8] }
%"cpu_interrupts::interrupt_descriptor_table::SafeInterruptDescriptorTable" = type { %"x86_64::structures::idt::InterruptDescriptorTable", i8, i8, i8, [13 x i8] }
%"core::option::Option<spin::mutex::Mutex<keyboard::Keyboard<pc_keyboard::layouts::us104::Us104Key, pc_keyboard::scancodes::set1::ScancodeSet1>>>::Some" = type { [1 x i16], %"spin::mutex::Mutex<keyboard::Keyboard<pc_keyboard::layouts::us104::Us104Key, pc_keyboard::scancodes::set1::ScancodeSet1>>" }
%"core::option::Option<cpu_interrupts::interrupt_descriptor_table::SafeInterruptDescriptorTable>" = type { [4098 x i8], i8, [13 x i8] }
%"core::option::Option<spin::mutex::Mutex<vga::Screen>>::Some" = type { [1 x i64], %"spin::mutex::Mutex<vga::Screen>" }
%"core::option::Option<spin::mutex::Mutex<vga::Screen>>" = type { i64, [28 x i64] }
%"spin::once::Once<spin::mutex::Mutex<vga::Screen>>" = type { %"core::sync::atomic::AtomicUsize", %"core::cell::UnsafeCell<core::option::Option<spin::mutex::Mutex<vga::Screen>>>" }
%"core::sync::atomic::AtomicUsize" = type { i64 }
%"core::cell::UnsafeCell<core::option::Option<spin::mutex::Mutex<vga::Screen>>>" = type { %"core::option::Option<spin::mutex::Mutex<vga::Screen>>" }
%"core::option::Option<spin::mutex::Mutex<keyboard::Keyboard<pc_keyboard::layouts::us104::Us104Key, pc_keyboard::scancodes::set1::ScancodeSet1>>>" = type { i16, [9 x i16] }
%"spin::once::Once<spin::mutex::Mutex<keyboard::Keyboard<pc_keyboard::layouts::us104::Us104Key, pc_keyboard::scancodes::set1::ScancodeSet1>>>" = type { %"core::sync::atomic::AtomicUsize", %"core::cell::UnsafeCell<core::option::Option<spin::mutex::Mutex<keyboard::Keyboard<pc_keyboard::layouts::us104::Us104Key, pc_keyboard::scancodes::set1::ScancodeSet1>>>>", [2 x i16] }
%"core::cell::UnsafeCell<core::option::Option<spin::mutex::Mutex<keyboard::Keyboard<pc_keyboard::layouts::us104::Us104Key, pc_keyboard::scancodes::set1::ScancodeSet1>>>>" = type { %"core::option::Option<spin::mutex::Mutex<keyboard::Keyboard<pc_keyboard::layouts::us104::Us104Key, pc_keyboard::scancodes::set1::ScancodeSet1>>>" }
%"spin::once::Once<cpu_interrupts::interrupt_descriptor_table::SafeInterruptDescriptorTable>" = type { %"core::cell::UnsafeCell<core::option::Option<cpu_interrupts::interrupt_descriptor_table::SafeInterruptDescriptorTable>>", %"core::sync::atomic::AtomicUsize", [1 x i64] }
%"core::cell::UnsafeCell<core::option::Option<cpu_interrupts::interrupt_descriptor_table::SafeInterruptDescriptorTable>>" = type { %"core::option::Option<cpu_interrupts::interrupt_descriptor_table::SafeInterruptDescriptorTable>" }
%"core::panic::location::Location<'_>" = type { { ptr, i64 }, i32, i32 }
%"bitflags::traits::Flag<x86_64::registers::rflags::RFlags>" = type { { ptr, i64 }, i64 }
%"core::panic::panic_info::PanicInfo<'_>" = type { { ptr, ptr }, ptr, ptr, i8, i8, [6 x i8] }
%"{closure@src/interrupts.rs:59:34: 59:59}" = type {}
%"x86_64::structures::idt::InterruptStackFrame" = type { %"x86_64::structures::idt::InterruptStackFrameValue" }
%"x86_64::structures::idt::InterruptStackFrameValue" = type { i64, i64, i64, i64, i64 }
%"core::fmt::rt::Placeholder" = type { { i64, i64 }, { i64, i64 }, i64, i32, i32, i8, [7 x i8] }
%"pc_keyboard::DecodedKey::Unicode" = type { [1 x i32], i32 }
%"core::result::Result<bool, &str>" = type { ptr, [1 x i64] }
%"bootloader_api::info::BootInfo" = type { %"bootloader_api::config::ApiVersion", { ptr, i64 }, %"bootloader_api::info::Optional<bootloader_api::info::FrameBuffer>", { i32, i64 }, { i32, i16 }, { i32, i64 }, %"bootloader_api::info::Optional<bootloader_api::info::TlsTemplate>", { i32, i64 }, i64, i64 }
%"bootloader_api::config::ApiVersion" = type { i16, i16, i16, i8, [1 x i8] }
%"bootloader_api::info::Optional<bootloader_api::info::FrameBuffer>" = type { i32, [15 x i32] }
%"bootloader_api::info::Optional<bootloader_api::info::TlsTemplate>" = type { i32, [7 x i32] }

@alloc_523248e34db904eab55c5eb570cbbcf7 = private unnamed_addr constant <{ [6 x i8] }> <{ [6 x i8] c"entry " }>, align 1
@alloc_8888ebfef96191fe59f3dccdfd1e2e9f = private unnamed_addr constant <{ [44 x i8] }> <{ [44 x i8] c" is an diverging exception (must not return)" }>, align 1
@alloc_362de21a3b2781033660bc1868b9ea1e = private unnamed_addr constant <{ ptr, [8 x i8], ptr, [8 x i8] }> <{ ptr @alloc_523248e34db904eab55c5eb570cbbcf7, [8 x i8] c"\06\00\00\00\00\00\00\00", ptr @alloc_8888ebfef96191fe59f3dccdfd1e2e9f, [8 x i8] c",\00\00\00\00\00\00\00" }>, align 8
@alloc_0e0a5c012db1f29e764f54ddf0c3fc28 = private unnamed_addr constant <{ [20 x i8] }> <{ [20 x i8] c"no entry with index " }>, align 1
@alloc_f7251b02c1cd4a8e77f6d028b4651e6c = private unnamed_addr constant <{ ptr, [8 x i8] }> <{ ptr @alloc_0e0a5c012db1f29e764f54ddf0c3fc28, [8 x i8] c"\14\00\00\00\00\00\00\00" }>, align 8
@alloc_5b44ce981640fea4344a6f6575fa5f67 = private unnamed_addr constant <{ [32 x i8] }> <{ [32 x i8] c" is an exception with error code" }>, align 1
@alloc_7f336354b9c7f960a1b1b29efe6dd878 = private unnamed_addr constant <{ ptr, [8 x i8], ptr, [8 x i8] }> <{ ptr @alloc_523248e34db904eab55c5eb570cbbcf7, [8 x i8] c"\06\00\00\00\00\00\00\00", ptr @alloc_5b44ce981640fea4344a6f6575fa5f67, [8 x i8] c" \00\00\00\00\00\00\00" }>, align 8
@alloc_b715a46a74cc820188211befedfe4ec3 = private unnamed_addr constant <{ [12 x i8] }> <{ [12 x i8] c" is reserved" }>, align 1
@alloc_d17f5c2ab765710fed33d58538e5bbab = private unnamed_addr constant <{ ptr, [8 x i8], ptr, [8 x i8] }> <{ ptr @alloc_523248e34db904eab55c5eb570cbbcf7, [8 x i8] c"\06\00\00\00\00\00\00\00", ptr @alloc_b715a46a74cc820188211befedfe4ec3, [8 x i8] c"\0C\00\00\00\00\00\00\00" }>, align 8
@str.0 = internal unnamed_addr constant [33 x i8] c"attempt to subtract with overflow"
@alloc_6923360c3161738641b3989c6181ce08 = private unnamed_addr constant <{ [40 x i8] }> <{ [40 x i8] c"assertion failed: bit < Self::BIT_LENGTH" }>, align 1
@alloc_89294a974a2788f895cf677d5bd697c4 = private unnamed_addr constant <{ [91 x i8] }> <{ [91 x i8] c"/Users/yaw/.cargo/registry/src/index.crates.io-6f17d22bba15001f/bit_field-0.10.1/src/lib.rs" }>, align 1
@alloc_f4d2308b1a4d364a80c06ffe6643cbed = private unnamed_addr constant <{ ptr, [16 x i8] }> <{ ptr @alloc_89294a974a2788f895cf677d5bd697c4, [16 x i8] c"[\00\00\00\00\00\00\00\11\01\00\00\01\00\00\00" }>, align 8
@str.1 = internal unnamed_addr constant [35 x i8] c"attempt to shift left with overflow"
@alloc_c2ea93c90919bb7b1e482f917e413fa1 = private unnamed_addr constant <{ [107 x i8] }> <{ [107 x i8] c"/Users/yaw/.rustup/toolchains/nightly-aarch64-apple-darwin/lib/rustlib/src/rust/library/core/src/fmt/mod.rs" }>, align 1
@alloc_1d488b18c5f7c1d3858ca9f0071c91c8 = private unnamed_addr constant <{ ptr, [16 x i8] }> <{ ptr @alloc_c2ea93c90919bb7b1e482f917e413fa1, [16 x i8] c"k\00\00\00\00\00\00\00L\01\00\008\00\00\00" }>, align 8
@str.2 = internal unnamed_addr constant [28 x i8] c"attempt to add with overflow"
@alloc_91c7fa63c3cfeaa3c795652d5cf060e4 = private unnamed_addr constant <{ [12 x i8] }> <{ [12 x i8] c"invalid args" }>, align 1
@alloc_af99043bc04c419363a7f04d23183506 = private unnamed_addr constant <{ ptr, [8 x i8] }> <{ ptr @alloc_91c7fa63c3cfeaa3c795652d5cf060e4, [8 x i8] c"\0C\00\00\00\00\00\00\00" }>, align 8
@alloc_a128bb0331e9cbfe13a5df140fd20243 = private unnamed_addr constant <{ ptr, [16 x i8] }> <{ ptr @alloc_c2ea93c90919bb7b1e482f917e413fa1, [16 x i8] c"k\00\00\00\00\00\00\00M\01\00\00\0D\00\00\00" }>, align 8
@alloc_513570631223a12912d85da2bec3b15a = private unnamed_addr constant <{}> zeroinitializer, align 8
@alloc_40dc4a2e4fa36320ad05a7f7aeedf921 = private unnamed_addr constant <{ ptr, [16 x i8] }> <{ ptr @alloc_c2ea93c90919bb7b1e482f917e413fa1, [16 x i8] c"k\00\00\00\00\00\00\00C\01\00\00\0D\00\00\00" }>, align 8
@alloc_2220c7a1feeb6edab819c8e7f64b7daa = private unnamed_addr constant <{ [112 x i8] }> <{ [112 x i8] c"/Users/yaw/.rustup/toolchains/nightly-aarch64-apple-darwin/lib/rustlib/src/rust/library/core/src/char/methods.rs" }>, align 1
@alloc_2ed0ddeddb532c1b94163078c0508318 = private unnamed_addr constant <{ ptr, [16 x i8] }> <{ ptr @alloc_2220c7a1feeb6edab819c8e7f64b7daa, [16 x i8] c"p\00\00\00\00\00\00\00\EB\06\00\00\19\00\00\00" }>, align 8
@alloc_9db81bec73d48154ecb538ccd002e626 = private unnamed_addr constant <{ ptr, [16 x i8] }> <{ ptr @alloc_2220c7a1feeb6edab819c8e7f64b7daa, [16 x i8] c"p\00\00\00\00\00\00\00\05\07\00\00\0D\00\00\00" }>, align 8
@alloc_6b031f9bca8204235732c7c365d04a1d = private unnamed_addr constant <{ [18 x i8] }> <{ [18 x i8] c"encode_utf8: need " }>, align 1
@alloc_28d13efb0f9a95ccb5d02ec33dd195cf = private unnamed_addr constant <{ [19 x i8] }> <{ [19 x i8] c" bytes to encode U+" }>, align 1
@alloc_0d928972d2befd736e581c7fcc5a2f9a = private unnamed_addr constant <{ [21 x i8] }> <{ [21 x i8] c", but the buffer has " }>, align 1
@alloc_d51214f097f67314513b76e97e13aa6b = private unnamed_addr constant <{ ptr, [8 x i8], ptr, [8 x i8], ptr, [8 x i8] }> <{ ptr @alloc_6b031f9bca8204235732c7c365d04a1d, [8 x i8] c"\12\00\00\00\00\00\00\00", ptr @alloc_28d13efb0f9a95ccb5d02ec33dd195cf, [8 x i8] c"\13\00\00\00\00\00\00\00", ptr @alloc_0d928972d2befd736e581c7fcc5a2f9a, [8 x i8] c"\15\00\00\00\00\00\00\00" }>, align 8
@alloc_24ea739765840a624c78c8023d612164 = private unnamed_addr constant <{ ptr, [16 x i8] }> <{ ptr @alloc_2220c7a1feeb6edab819c8e7f64b7daa, [16 x i8] c"p\00\00\00\00\00\00\00\FE\06\00\00\0E\00\00\00" }>, align 8
@alloc_1eb6f53a157dccb32488e066ad957e6d = private unnamed_addr constant <{ [82 x i8] }> <{ [82 x i8] c"unsafe precondition(s) violated: hint::unreachable_unchecked must never be reached" }>, align 1
@alloc_7adef5546d83b439c7829602020737c6 = private unnamed_addr constant <{ [61 x i8] }> <{ [61 x i8] c"there is no such thing as an acquire-release failure ordering" }>, align 1
@alloc_dd7d8f77c173bf31726eae321f955bec = private unnamed_addr constant <{ ptr, [8 x i8] }> <{ ptr @alloc_7adef5546d83b439c7829602020737c6, [8 x i8] c"=\00\00\00\00\00\00\00" }>, align 8
@alloc_758e3eafddd83bea2c9171c5517da1cc = private unnamed_addr constant <{ [111 x i8] }> <{ [111 x i8] c"/Users/yaw/.rustup/toolchains/nightly-aarch64-apple-darwin/lib/rustlib/src/rust/library/core/src/sync/atomic.rs" }>, align 1
@alloc_122716f189323124cb0c05846480a00c = private unnamed_addr constant <{ ptr, [16 x i8] }> <{ ptr @alloc_758e3eafddd83bea2c9171c5517da1cc, [16 x i8] c"o\00\00\00\00\00\00\00\0E\03\00\00\15\00\00\00" }>, align 8
@alloc_5a43f8d94dd4505c1dba43832ce73af8 = private unnamed_addr constant <{ [52 x i8] }> <{ [52 x i8] c"there is no such thing as a release failure ordering" }>, align 1
@alloc_04ab601c54c6e0a22ff11d72dc7f4511 = private unnamed_addr constant <{ ptr, [8 x i8] }> <{ ptr @alloc_5a43f8d94dd4505c1dba43832ce73af8, [8 x i8] c"4\00\00\00\00\00\00\00" }>, align 8
@alloc_1b2d53547632b0cd8d68abf128d934e0 = private unnamed_addr constant <{ ptr, [16 x i8] }> <{ ptr @alloc_758e3eafddd83bea2c9171c5517da1cc, [16 x i8] c"o\00\00\00\00\00\00\00\14\03\00\00!\00\00\00" }>, align 8
@alloc_3a78ff04f14eb2833ab0c82d013b150b = private unnamed_addr constant <{ [50 x i8] }> <{ [50 x i8] c"there is no such thing as a relaxed compiler fence" }>, align 1
@alloc_430204769d39c3fb374968cb14137bf7 = private unnamed_addr constant <{ ptr, [8 x i8] }> <{ ptr @alloc_3a78ff04f14eb2833ab0c82d013b150b, [8 x i8] c"2\00\00\00\00\00\00\00" }>, align 8
@alloc_15e6b65a979077866e1a9c60fd8e7af9 = private unnamed_addr constant <{ ptr, [16 x i8] }> <{ ptr @alloc_758e3eafddd83bea2c9171c5517da1cc, [16 x i8] c"o\00\00\00\00\00\00\00\86\0E\00\00\18\00\00\00" }>, align 8
@alloc_a500d906b91607583596fa15e63c2ada = private unnamed_addr constant <{ [40 x i8] }> <{ [40 x i8] c"internal error: entered unreachable code" }>, align 1
@alloc_8af331a5985192ea52a41e19634f2db2 = private unnamed_addr constant <{ [86 x i8] }> <{ [86 x i8] c"/Users/yaw/.cargo/registry/src/index.crates.io-6f17d22bba15001f/spin-0.5.2/src/once.rs" }>, align 1
@alloc_5be19f098388ddfa34a5cde2d2c61c94 = private unnamed_addr constant <{ ptr, [16 x i8] }> <{ ptr @alloc_8af331a5985192ea52a41e19634f2db2, [16 x i8] c"V\00\00\00\00\00\00\00{\00\00\00\1F\00\00\00" }>, align 8
@alloc_b41ce9db6ff9e09c515cee5b4d05db5e = private unnamed_addr constant <{ [17 x i8] }> <{ [17 x i8] c"Once has panicked" }>, align 1
@alloc_cbdd636a907b817e5acd19150abaf3dc = private unnamed_addr constant <{ ptr, [16 x i8] }> <{ ptr @alloc_8af331a5985192ea52a41e19634f2db2, [16 x i8] c"V\00\00\00\00\00\00\00\80\00\00\00\1D\00\00\00" }>, align 8
@alloc_19cd6c80ce59a410e8578725a730da5c = private unnamed_addr constant <{ [6 x i8] }> <{ [6 x i8] c"Escape" }>, align 1
@alloc_9ff749aff927f8d090966fe240c4e695 = private unnamed_addr constant <{ [2 x i8] }> <{ [2 x i8] c"F1" }>, align 1
@alloc_7ba3eac29fd37a66236c8d94e035bd27 = private unnamed_addr constant <{ [2 x i8] }> <{ [2 x i8] c"F2" }>, align 1
@alloc_7e5925bb32e6ddc10413748db15aedc1 = private unnamed_addr constant <{ [2 x i8] }> <{ [2 x i8] c"F3" }>, align 1
@alloc_ad4a26886425876944e9ac70af24612e = private unnamed_addr constant <{ [2 x i8] }> <{ [2 x i8] c"F4" }>, align 1
@alloc_b8b552324caa75181bf95423d30d9d3e = private unnamed_addr constant <{ [2 x i8] }> <{ [2 x i8] c"F5" }>, align 1
@alloc_803d7c3eb1dc8f97176d60c50390be93 = private unnamed_addr constant <{ [2 x i8] }> <{ [2 x i8] c"F6" }>, align 1
@alloc_a329cfd77d44ac522813eee8f967e517 = private unnamed_addr constant <{ [2 x i8] }> <{ [2 x i8] c"F7" }>, align 1
@alloc_89328f52c97b3aa7efe7e9860f69134b = private unnamed_addr constant <{ [2 x i8] }> <{ [2 x i8] c"F8" }>, align 1
@alloc_3ff614e073820cbd14453aa2d34fb8ee = private unnamed_addr constant <{ [2 x i8] }> <{ [2 x i8] c"F9" }>, align 1
@alloc_436c7befa4f654e90e24370bc2362a60 = private unnamed_addr constant <{ [3 x i8] }> <{ [3 x i8] c"F10" }>, align 1
@alloc_f1c2446ef77a7c9641ff1b259f12e490 = private unnamed_addr constant <{ [3 x i8] }> <{ [3 x i8] c"F11" }>, align 1
@alloc_837edbe37e9292f7a2f805d5cf701847 = private unnamed_addr constant <{ [3 x i8] }> <{ [3 x i8] c"F12" }>, align 1
@alloc_5a99b7b169b35d424cdbaa69da88ce20 = private unnamed_addr constant <{ [11 x i8] }> <{ [11 x i8] c"PrintScreen" }>, align 1
@alloc_051ffee1bd081861cd5ac52f07a030f6 = private unnamed_addr constant <{ [5 x i8] }> <{ [5 x i8] c"SysRq" }>, align 1
@alloc_ed2a3aad61ce67daec7cc9525b6401af = private unnamed_addr constant <{ [10 x i8] }> <{ [10 x i8] c"ScrollLock" }>, align 1
@alloc_d13ca35acdcffd25a064df640bb00c41 = private unnamed_addr constant <{ [10 x i8] }> <{ [10 x i8] c"PauseBreak" }>, align 1
@alloc_390431f3d4f9b3ecbb24051fe28fd7d1 = private unnamed_addr constant <{ [4 x i8] }> <{ [4 x i8] c"Oem8" }>, align 1
@alloc_4b3feff012798da2ed40c71f7ab51605 = private unnamed_addr constant <{ [4 x i8] }> <{ [4 x i8] c"Key1" }>, align 1
@alloc_589f89a19e4de1c340b5184876effcfc = private unnamed_addr constant <{ [4 x i8] }> <{ [4 x i8] c"Key2" }>, align 1
@alloc_833877d992ecf0b9fa45647cf572cd07 = private unnamed_addr constant <{ [4 x i8] }> <{ [4 x i8] c"Key3" }>, align 1
@alloc_d24de9133d7514ad3ff36035ec0b29a5 = private unnamed_addr constant <{ [4 x i8] }> <{ [4 x i8] c"Key4" }>, align 1
@alloc_522a122a325dad215bcb5d2a777e0391 = private unnamed_addr constant <{ [4 x i8] }> <{ [4 x i8] c"Key5" }>, align 1
@alloc_a439b75783cf15abcd8fab3bbd2bab20 = private unnamed_addr constant <{ [4 x i8] }> <{ [4 x i8] c"Key6" }>, align 1
@alloc_89b8be877a18651f91389eb6c79e7968 = private unnamed_addr constant <{ [4 x i8] }> <{ [4 x i8] c"Key7" }>, align 1
@alloc_8241519fc823a48f5cb0772b07ae58f1 = private unnamed_addr constant <{ [4 x i8] }> <{ [4 x i8] c"Key8" }>, align 1
@alloc_1e1aff20d1c69c3354184a1953a6b0fb = private unnamed_addr constant <{ [4 x i8] }> <{ [4 x i8] c"Key9" }>, align 1
@alloc_a4646ba148650ddd626b9417a28ca60e = private unnamed_addr constant <{ [4 x i8] }> <{ [4 x i8] c"Key0" }>, align 1
@alloc_4eaec360ed11f0410d47d39e6d3b5832 = private unnamed_addr constant <{ [8 x i8] }> <{ [8 x i8] c"OemMinus" }>, align 1
@alloc_d3fe36ca0018fb384206e5a01b306676 = private unnamed_addr constant <{ [7 x i8] }> <{ [7 x i8] c"OemPlus" }>, align 1
@alloc_60d03198e63ba120825e7e99e9817972 = private unnamed_addr constant <{ [9 x i8] }> <{ [9 x i8] c"Backspace" }>, align 1
@alloc_5fa8bd54e3adbaa44986228d4c9c47ed = private unnamed_addr constant <{ [6 x i8] }> <{ [6 x i8] c"Insert" }>, align 1
@alloc_b6ab41493105ba4f8653b0ac72d6fa1a = private unnamed_addr constant <{ [4 x i8] }> <{ [4 x i8] c"Home" }>, align 1
@alloc_46cd31a7994e8b04c8bf0ae80e8a6f70 = private unnamed_addr constant <{ [6 x i8] }> <{ [6 x i8] c"PageUp" }>, align 1
@alloc_82552013d9bcaa6f9226aef36cf82ce8 = private unnamed_addr constant <{ [10 x i8] }> <{ [10 x i8] c"NumpadLock" }>, align 1
@alloc_51afa5de7ddfdd1969fe02fb5aea4743 = private unnamed_addr constant <{ [12 x i8] }> <{ [12 x i8] c"NumpadDivide" }>, align 1
@alloc_9bdda514be4a30e0ce14f25c08a83a16 = private unnamed_addr constant <{ [14 x i8] }> <{ [14 x i8] c"NumpadMultiply" }>, align 1
@alloc_35fb7ad637c3b942697789eccc824a79 = private unnamed_addr constant <{ [14 x i8] }> <{ [14 x i8] c"NumpadSubtract" }>, align 1
@alloc_6c1508deece4789b42ac73369c697db1 = private unnamed_addr constant <{ [3 x i8] }> <{ [3 x i8] c"Tab" }>, align 1
@alloc_7feebe4f384e098923f41ff61a9ee22e = private unnamed_addr constant <{ [1 x i8] }> <{ [1 x i8] c"Q" }>, align 1
@alloc_578ba253fc8f9f06c4806197b895a238 = private unnamed_addr constant <{ [1 x i8] }> <{ [1 x i8] c"W" }>, align 1
@alloc_c92bab2dec2582f45f478f51a76e64ac = private unnamed_addr constant <{ [1 x i8] }> <{ [1 x i8] c"E" }>, align 1
@alloc_58c582d907f9ddae351da71a93c31ad4 = private unnamed_addr constant <{ [1 x i8] }> <{ [1 x i8] c"R" }>, align 1
@alloc_8488b46b1090aa1f460173af0eed1272 = private unnamed_addr constant <{ [1 x i8] }> <{ [1 x i8] c"T" }>, align 1
@alloc_ffc197f78acd086a7c8e7e4d7eac7b7e = private unnamed_addr constant <{ [1 x i8] }> <{ [1 x i8] c"Y" }>, align 1
@alloc_6f4e89f151d599c92cfef340ac6cd0d8 = private unnamed_addr constant <{ [1 x i8] }> <{ [1 x i8] c"U" }>, align 1
@alloc_7c2a4bb1f8fbe61b8f86d0de46516e43 = private unnamed_addr constant <{ [1 x i8] }> <{ [1 x i8] c"I" }>, align 1
@alloc_f2f9ac1c22f8a03e1f59c3ee47ea8305 = private unnamed_addr constant <{ [1 x i8] }> <{ [1 x i8] c"O" }>, align 1
@alloc_c29e55c84125b0bc64bfbcda361e43c7 = private unnamed_addr constant <{ [1 x i8] }> <{ [1 x i8] c"P" }>, align 1
@alloc_ce0cbdb2bb9910d84f6547b67d533700 = private unnamed_addr constant <{ [4 x i8] }> <{ [4 x i8] c"Oem4" }>, align 1
@alloc_6ee984b139b03809220fffc7afb21d78 = private unnamed_addr constant <{ [4 x i8] }> <{ [4 x i8] c"Oem6" }>, align 1
@alloc_da7e8cccb768af88d0032c4733f02ad7 = private unnamed_addr constant <{ [4 x i8] }> <{ [4 x i8] c"Oem5" }>, align 1
@alloc_ddc453a1b9cc6fb21188044ce297212f = private unnamed_addr constant <{ [4 x i8] }> <{ [4 x i8] c"Oem7" }>, align 1
@alloc_efd1fe2c06548781fde69e80c848e6af = private unnamed_addr constant <{ [6 x i8] }> <{ [6 x i8] c"Delete" }>, align 1
@alloc_4654569f7df05abd2cc61c745c38f037 = private unnamed_addr constant <{ [3 x i8] }> <{ [3 x i8] c"End" }>, align 1
@alloc_3e2c58eed6aa9b0136c2d827edbd879e = private unnamed_addr constant <{ [8 x i8] }> <{ [8 x i8] c"PageDown" }>, align 1
@alloc_f0bbb4bb3b9e67806bd719c1ebacaed9 = private unnamed_addr constant <{ [7 x i8] }> <{ [7 x i8] c"Numpad7" }>, align 1
@alloc_07548a2bb15cc195c5642352ab3ba085 = private unnamed_addr constant <{ [7 x i8] }> <{ [7 x i8] c"Numpad8" }>, align 1
@alloc_c0d967b52193c23a52f97ed4dbe0f3dd = private unnamed_addr constant <{ [7 x i8] }> <{ [7 x i8] c"Numpad9" }>, align 1
@alloc_ca1e5632b894c8a2b031cfd3bce42d32 = private unnamed_addr constant <{ [9 x i8] }> <{ [9 x i8] c"NumpadAdd" }>, align 1
@alloc_776daa82451202b14ed33e31bddd98fe = private unnamed_addr constant <{ [8 x i8] }> <{ [8 x i8] c"CapsLock" }>, align 1
@alloc_e2ead6761956d440a2a6c3412b417ffa = private unnamed_addr constant <{ [1 x i8] }> <{ [1 x i8] c"A" }>, align 1
@alloc_3d819d96158b16428dc573e77dae6c30 = private unnamed_addr constant <{ [1 x i8] }> <{ [1 x i8] c"S" }>, align 1
@alloc_fba4efe8e4f7fab8265f1b3a352c9317 = private unnamed_addr constant <{ [1 x i8] }> <{ [1 x i8] c"D" }>, align 1
@alloc_4b372b42a7e59c4e87186c5d2ddb750d = private unnamed_addr constant <{ [1 x i8] }> <{ [1 x i8] c"F" }>, align 1
@alloc_b9a77d17410e0d1e6ff9596fd12d3c82 = private unnamed_addr constant <{ [1 x i8] }> <{ [1 x i8] c"G" }>, align 1
@alloc_f37ac9214caa3f4fd6c4175f3238ef85 = private unnamed_addr constant <{ [1 x i8] }> <{ [1 x i8] c"H" }>, align 1
@alloc_9d76ab58755b3c4c2669e548a41c93ec = private unnamed_addr constant <{ [1 x i8] }> <{ [1 x i8] c"J" }>, align 1
@alloc_f5bc76ebbc4970eaed11587cfaa67b0c = private unnamed_addr constant <{ [1 x i8] }> <{ [1 x i8] c"K" }>, align 1
@alloc_7db32c6e93a18198f433b0c9f7863f8d = private unnamed_addr constant <{ [1 x i8] }> <{ [1 x i8] c"L" }>, align 1
@alloc_2aabfbf067a195e6fc5c6cdb1ae94be5 = private unnamed_addr constant <{ [4 x i8] }> <{ [4 x i8] c"Oem1" }>, align 1
@alloc_a3c92fe487bf5a236d7ffbfa31239596 = private unnamed_addr constant <{ [4 x i8] }> <{ [4 x i8] c"Oem3" }>, align 1
@alloc_5e9a928e5425e69889c35d2ee8b73730 = private unnamed_addr constant <{ [6 x i8] }> <{ [6 x i8] c"Return" }>, align 1
@alloc_2fa222d5d37750def90c677ecaa38265 = private unnamed_addr constant <{ [7 x i8] }> <{ [7 x i8] c"Numpad4" }>, align 1
@alloc_c7a22ce763e7843f16c7e8812385e552 = private unnamed_addr constant <{ [7 x i8] }> <{ [7 x i8] c"Numpad5" }>, align 1
@alloc_28c6aae305f0e24087f3375957f16204 = private unnamed_addr constant <{ [7 x i8] }> <{ [7 x i8] c"Numpad6" }>, align 1
@alloc_221216dd635025c9324150654e982d9d = private unnamed_addr constant <{ [6 x i8] }> <{ [6 x i8] c"LShift" }>, align 1
@alloc_38ea2406a8c8f86dee62ab1a553c7a1c = private unnamed_addr constant <{ [1 x i8] }> <{ [1 x i8] c"Z" }>, align 1
@alloc_73d6b93d5407e95288a133ffe41f2f08 = private unnamed_addr constant <{ [1 x i8] }> <{ [1 x i8] c"X" }>, align 1
@alloc_e57470275a219d8492d489e56910499e = private unnamed_addr constant <{ [1 x i8] }> <{ [1 x i8] c"C" }>, align 1
@alloc_c3553bff04f59f8e41233c684c2f24fb = private unnamed_addr constant <{ [1 x i8] }> <{ [1 x i8] c"V" }>, align 1
@alloc_d3bbdebcd7d668a59dc59a90afdc2fa1 = private unnamed_addr constant <{ [1 x i8] }> <{ [1 x i8] c"B" }>, align 1
@alloc_e8a1566664e7ab844da933420b59a9f6 = private unnamed_addr constant <{ [1 x i8] }> <{ [1 x i8] c"N" }>, align 1
@alloc_f9b235d2a210ccd74228e3ef41714c41 = private unnamed_addr constant <{ [1 x i8] }> <{ [1 x i8] c"M" }>, align 1
@alloc_3b02b041a793bff5e8e17a2d621577cb = private unnamed_addr constant <{ [8 x i8] }> <{ [8 x i8] c"OemComma" }>, align 1
@alloc_42e3dc723afb320f0c5b6ba1928689b8 = private unnamed_addr constant <{ [9 x i8] }> <{ [9 x i8] c"OemPeriod" }>, align 1
@alloc_9b2b361b23f1835c8fd2bfae29f22566 = private unnamed_addr constant <{ [4 x i8] }> <{ [4 x i8] c"Oem2" }>, align 1
@alloc_b8857b7d70c7ce73178148cb942cc015 = private unnamed_addr constant <{ [6 x i8] }> <{ [6 x i8] c"RShift" }>, align 1
@alloc_2abc2f401526f4696d5bbfa918a4dbc4 = private unnamed_addr constant <{ [7 x i8] }> <{ [7 x i8] c"ArrowUp" }>, align 1
@alloc_c2ecef526da2793766ce19fcb15fa9e0 = private unnamed_addr constant <{ [7 x i8] }> <{ [7 x i8] c"Numpad1" }>, align 1
@alloc_db85cc0802c1c0ee4587cf3ef0a95305 = private unnamed_addr constant <{ [7 x i8] }> <{ [7 x i8] c"Numpad2" }>, align 1
@alloc_e00cb3a197f9dbd483b10618ca3209f8 = private unnamed_addr constant <{ [7 x i8] }> <{ [7 x i8] c"Numpad3" }>, align 1
@alloc_4d39189fab64e62425c108b92b96374e = private unnamed_addr constant <{ [11 x i8] }> <{ [11 x i8] c"NumpadEnter" }>, align 1
@alloc_6087164cc980a8385e3c96b817f08cf9 = private unnamed_addr constant <{ [8 x i8] }> <{ [8 x i8] c"LControl" }>, align 1
@alloc_65ee1a5242f940ee58b99bc040bb0cb9 = private unnamed_addr constant <{ [4 x i8] }> <{ [4 x i8] c"LWin" }>, align 1
@alloc_abb5bb4ed9d0cefb17d2b9cdd630291b = private unnamed_addr constant <{ [4 x i8] }> <{ [4 x i8] c"LAlt" }>, align 1
@alloc_4059db41a1f4402b5f438b58d952e58c = private unnamed_addr constant <{ [8 x i8] }> <{ [8 x i8] c"Spacebar" }>, align 1
@alloc_1059377bc2d71e433b9da7a3295f7ffe = private unnamed_addr constant <{ [6 x i8] }> <{ [6 x i8] c"RAltGr" }>, align 1
@alloc_c5e8cc6f921ee43bffb725f686bd7ecd = private unnamed_addr constant <{ [4 x i8] }> <{ [4 x i8] c"RWin" }>, align 1
@alloc_7cbef06d8c47760d51d80850a9a4c019 = private unnamed_addr constant <{ [4 x i8] }> <{ [4 x i8] c"Apps" }>, align 1
@alloc_06cf96e9365cff5faa0fd9fb6a339b33 = private unnamed_addr constant <{ [8 x i8] }> <{ [8 x i8] c"RControl" }>, align 1
@alloc_3072842045c378ab33d0bc94c49fd483 = private unnamed_addr constant <{ [9 x i8] }> <{ [9 x i8] c"ArrowLeft" }>, align 1
@alloc_e5bac97012bb8484ddeaae108d46208e = private unnamed_addr constant <{ [9 x i8] }> <{ [9 x i8] c"ArrowDown" }>, align 1
@alloc_8f129076e20f335f344bda71add693ca = private unnamed_addr constant <{ [10 x i8] }> <{ [10 x i8] c"ArrowRight" }>, align 1
@alloc_0dba4d1281e66656f6ba1c89532142dc = private unnamed_addr constant <{ [7 x i8] }> <{ [7 x i8] c"Numpad0" }>, align 1
@alloc_8b321291d1dd74cfadae41c0246011d9 = private unnamed_addr constant <{ [12 x i8] }> <{ [12 x i8] c"NumpadPeriod" }>, align 1
@alloc_ec8db314e932799a48fa04823595fdc4 = private unnamed_addr constant <{ [4 x i8] }> <{ [4 x i8] c"Oem9" }>, align 1
@alloc_ee50e49af8eced5dd17754b98eccb61a = private unnamed_addr constant <{ [5 x i8] }> <{ [5 x i8] c"Oem10" }>, align 1
@alloc_973be59a8816ff5e91a1dc7155aeb880 = private unnamed_addr constant <{ [5 x i8] }> <{ [5 x i8] c"Oem11" }>, align 1
@alloc_04d35ebcb718902c0ed17eca413c380f = private unnamed_addr constant <{ [5 x i8] }> <{ [5 x i8] c"Oem12" }>, align 1
@alloc_60934ef955a45f49d2f6887c3daa1a82 = private unnamed_addr constant <{ [5 x i8] }> <{ [5 x i8] c"Oem13" }>, align 1
@alloc_04991ee96bdc6ace7b8eba84a394e173 = private unnamed_addr constant <{ [9 x i8] }> <{ [9 x i8] c"PrevTrack" }>, align 1
@alloc_02362fec7ddd822ef0ccf43dabb6a869 = private unnamed_addr constant <{ [9 x i8] }> <{ [9 x i8] c"NextTrack" }>, align 1
@alloc_3a2a760a0450ba5ea0958ac8503f35c0 = private unnamed_addr constant <{ [4 x i8] }> <{ [4 x i8] c"Mute" }>, align 1
@alloc_bf4279fbd6075ceaf989f75d9643e8c6 = private unnamed_addr constant <{ [10 x i8] }> <{ [10 x i8] c"Calculator" }>, align 1
@alloc_bdc941ee42bb12b93d0ece87945ac03d = private unnamed_addr constant <{ [4 x i8] }> <{ [4 x i8] c"Play" }>, align 1
@alloc_e6d79413b6016226a02b301598378ba1 = private unnamed_addr constant <{ [4 x i8] }> <{ [4 x i8] c"Stop" }>, align 1
@alloc_a0a306cb083c6a40ed075f4bddb68abd = private unnamed_addr constant <{ [10 x i8] }> <{ [10 x i8] c"VolumeDown" }>, align 1
@alloc_9c6a03da2a18eef3b2554500a125f600 = private unnamed_addr constant <{ [8 x i8] }> <{ [8 x i8] c"VolumeUp" }>, align 1
@alloc_358776950fcb9f366a9635f664f9cdb2 = private unnamed_addr constant <{ [7 x i8] }> <{ [7 x i8] c"WWWHome" }>, align 1
@alloc_3cf27ccf095dcc570814dde94e3825dd = private unnamed_addr constant <{ [13 x i8] }> <{ [13 x i8] c"PowerOnTestOk" }>, align 1
@alloc_337da9a90bc57e9b78d587e70fdb801f = private unnamed_addr constant <{ [11 x i8] }> <{ [11 x i8] c"TooManyKeys" }>, align 1
@alloc_4b4d63478f22cc8f9168a5804eedfea0 = private unnamed_addr constant <{ [9 x i8] }> <{ [9 x i8] c"RControl2" }>, align 1
@alloc_270be35c7f3a49e5fd2275f10baac0c5 = private unnamed_addr constant <{ [5 x i8] }> <{ [5 x i8] c"RAlt2" }>, align 1
@alloc_37d2e53432a03a1f90b3e7253015eaf9 = private unnamed_addr constant <{ [4 x i8] }> <{ [4 x i8] c"None" }>, align 1
@alloc_9535bf4c204f3eb9b19ec2c83e446e52 = private unnamed_addr constant <{ [4 x i8] }> <{ [4 x i8] c"Some" }>, align 1
@vtable.3 = private constant <{ ptr, [16 x i8], ptr }> <{ ptr @"_ZN4core3ptr49drop_in_place$LT$$RF$$RF$core..fmt..Arguments$GT$17he44b1bd47197396eE", [16 x i8] c"\08\00\00\00\00\00\00\00\08\00\00\00\00\00\00\00", ptr @"_ZN42_$LT$$RF$T$u20$as$u20$core..fmt..Debug$GT$3fmt17he522cb3cb2904bb7E" }>, align 8, !dbg !0
@alloc_52b747f34eef2d0ab36546d7f9354b2c = private unnamed_addr constant <{ [8 x i8] }> <{ [8 x i8] c"Location" }>, align 1
@alloc_de7c89bfbe8cfcddfe41d5ea20bd02ee = private unnamed_addr constant <{ [4 x i8] }> <{ [4 x i8] c"file" }>, align 1
@vtable.4 = private constant <{ ptr, [16 x i8], ptr }> <{ ptr @"_ZN4core3ptr28drop_in_place$LT$$RF$str$GT$17h8363d2f868086056E", [16 x i8] c"\10\00\00\00\00\00\00\00\08\00\00\00\00\00\00\00", ptr @"_ZN42_$LT$$RF$T$u20$as$u20$core..fmt..Debug$GT$3fmt17h9bc2514e87b5ab3cE" }>, align 8, !dbg !150
@alloc_228b951a53cd2b066a5833c8dc256a67 = private unnamed_addr constant <{ [4 x i8] }> <{ [4 x i8] c"line" }>, align 1
@vtable.5 = private constant <{ ptr, [16 x i8], ptr }> <{ ptr @"_ZN4core3ptr24drop_in_place$LT$u32$GT$17h54396aa091c24cf6E", [16 x i8] c"\04\00\00\00\00\00\00\00\04\00\00\00\00\00\00\00", ptr @"_ZN4core3fmt3num50_$LT$impl$u20$core..fmt..Debug$u20$for$u20$u32$GT$3fmt17h626471413d594a44E" }>, align 8, !dbg !158
@alloc_815fae241ec812a028357de4283490f5 = private unnamed_addr constant <{ [3 x i8] }> <{ [3 x i8] c"col" }>, align 1
@vtable.6 = private constant <{ ptr, [16 x i8], ptr }> <{ ptr @"_ZN4core3ptr28drop_in_place$LT$$RF$u32$GT$17h723bd2266102d9f1E", [16 x i8] c"\08\00\00\00\00\00\00\00\08\00\00\00\00\00\00\00", ptr @"_ZN42_$LT$$RF$T$u20$as$u20$core..fmt..Debug$GT$3fmt17h3f7baf6dd08562c4E" }>, align 8, !dbg !166
@alloc_bb784ff5cbe8cf7f36955c50c05d0f35 = private unnamed_addr constant <{ [100 x i8] }> <{ [100 x i8] c"/Users/yaw/.cargo/registry/src/index.crates.io-6f17d22bba15001f/x86_64-0.14.11/src/structures/idt.rs" }>, align 1
@alloc_fa052248d4309ea78bf128fd9e97b625 = private unnamed_addr constant <{ ptr, [16 x i8] }> <{ ptr @alloc_bb784ff5cbe8cf7f36955c50c05d0f35, [16 x i8] c"d\00\00\00\00\00\00\00g\03\00\00\1F\00\00\00" }>, align 8
@alloc_3b30f3c2fe1935017d2714aa9952ea95 = private unnamed_addr constant <{ [74 x i8] }> <{ [74 x i8] c"address passed to VirtAddr::new must not contain any data in bits 48 to 64" }>, align 1
@alloc_842c6cf716507d75296fae883605a9ce = private unnamed_addr constant <{ [90 x i8] }> <{ [90 x i8] c"/Users/yaw/.cargo/registry/src/index.crates.io-6f17d22bba15001f/x86_64-0.14.11/src/addr.rs" }>, align 1
@alloc_48765f877a14fc69d0e400169d59e85e = private unnamed_addr constant <{ ptr, [16 x i8] }> <{ ptr @alloc_842c6cf716507d75296fae883605a9ce, [16 x i8] c"Z\00\00\00\00\00\00\00F\00\00\00\1D\00\00\00" }>, align 8
@alloc_ec5b1b162c2450c572509f04758eccff = private unnamed_addr constant <{ [2 x i8] }> <{ [2 x i8] c"ID" }>, align 1
@alloc_c6278bda13d4e203e2ffdae4ef6347fb = private unnamed_addr constant <{ [25 x i8] }> <{ [25 x i8] c"VIRTUAL_INTERRUPT_PENDING" }>, align 1
@alloc_3ebb970fb6c33a3b0fe01f3bf4af376e = private unnamed_addr constant <{ [17 x i8] }> <{ [17 x i8] c"VIRTUAL_INTERRUPT" }>, align 1
@alloc_3a1e4c5d12171e7bfcd85ba51395866c = private unnamed_addr constant <{ [15 x i8] }> <{ [15 x i8] c"ALIGNMENT_CHECK" }>, align 1
@alloc_1528d1162bff7baa34e9aa2de578cb61 = private unnamed_addr constant <{ [17 x i8] }> <{ [17 x i8] c"VIRTUAL_8086_MODE" }>, align 1
@alloc_1d6fa5f529e55e2b73521861ceb2d701 = private unnamed_addr constant <{ [11 x i8] }> <{ [11 x i8] c"RESUME_FLAG" }>, align 1
@alloc_48ab5e7fe39f3329897899f9db12fc81 = private unnamed_addr constant <{ [11 x i8] }> <{ [11 x i8] c"NESTED_TASK" }>, align 1
@alloc_9b5da51e8e50cb45b94d88b16558de7d = private unnamed_addr constant <{ [9 x i8] }> <{ [9 x i8] c"IOPL_HIGH" }>, align 1
@alloc_ca8f9c3c90ddb14657eef011778f0d79 = private unnamed_addr constant <{ [8 x i8] }> <{ [8 x i8] c"IOPL_LOW" }>, align 1
@alloc_248573dbdb1f23c6f8497ef162ca133f = private unnamed_addr constant <{ [13 x i8] }> <{ [13 x i8] c"OVERFLOW_FLAG" }>, align 1
@alloc_33e28c56fe990dd47deb92a17608e414 = private unnamed_addr constant <{ [14 x i8] }> <{ [14 x i8] c"DIRECTION_FLAG" }>, align 1
@alloc_301ac14af0c7742428f03f6fb56cbb88 = private unnamed_addr constant <{ [14 x i8] }> <{ [14 x i8] c"INTERRUPT_FLAG" }>, align 1
@alloc_4a4b1b5fd7f29778851f88943a80f7e2 = private unnamed_addr constant <{ [9 x i8] }> <{ [9 x i8] c"TRAP_FLAG" }>, align 1
@alloc_99472ab79f8778654111cd8cd4dce1f6 = private unnamed_addr constant <{ [9 x i8] }> <{ [9 x i8] c"SIGN_FLAG" }>, align 1
@alloc_233a007a17452bb68262e3c1f40af172 = private unnamed_addr constant <{ [9 x i8] }> <{ [9 x i8] c"ZERO_FLAG" }>, align 1
@alloc_28c2c26bc7b83b08dda497f27d5e048a = private unnamed_addr constant <{ [20 x i8] }> <{ [20 x i8] c"AUXILIARY_CARRY_FLAG" }>, align 1
@alloc_4ac2882683871e4ddfd9eb00ed3ca0f8 = private unnamed_addr constant <{ [11 x i8] }> <{ [11 x i8] c"PARITY_FLAG" }>, align 1
@alloc_7fde2caa5e786cf03241bc614c426f83 = private unnamed_addr constant <{ [10 x i8] }> <{ [10 x i8] c"CARRY_FLAG" }>, align 1
@alloc_214f316402f280d5b584e67c906e34a1 = private unnamed_addr constant <{ ptr, [16 x i8], ptr, [16 x i8], ptr, [16 x i8], ptr, [16 x i8], ptr, [16 x i8], ptr, [16 x i8], ptr, [16 x i8], ptr, [16 x i8], ptr, [16 x i8], ptr, [16 x i8], ptr, [16 x i8], ptr, [16 x i8], ptr, [16 x i8], ptr, [16 x i8], ptr, [16 x i8], ptr, [16 x i8], ptr, [16 x i8], ptr, [16 x i8] }> <{ ptr @alloc_ec5b1b162c2450c572509f04758eccff, [16 x i8] c"\02\00\00\00\00\00\00\00\00\00 \00\00\00\00\00", ptr @alloc_c6278bda13d4e203e2ffdae4ef6347fb, [16 x i8] c"\19\00\00\00\00\00\00\00\00\00\10\00\00\00\00\00", ptr @alloc_3ebb970fb6c33a3b0fe01f3bf4af376e, [16 x i8] c"\11\00\00\00\00\00\00\00\00\00\08\00\00\00\00\00", ptr @alloc_3a1e4c5d12171e7bfcd85ba51395866c, [16 x i8] c"\0F\00\00\00\00\00\00\00\00\00\04\00\00\00\00\00", ptr @alloc_1528d1162bff7baa34e9aa2de578cb61, [16 x i8] c"\11\00\00\00\00\00\00\00\00\00\02\00\00\00\00\00", ptr @alloc_1d6fa5f529e55e2b73521861ceb2d701, [16 x i8] c"\0B\00\00\00\00\00\00\00\00\00\01\00\00\00\00\00", ptr @alloc_48ab5e7fe39f3329897899f9db12fc81, [16 x i8] c"\0B\00\00\00\00\00\00\00\00@\00\00\00\00\00\00", ptr @alloc_9b5da51e8e50cb45b94d88b16558de7d, [16 x i8] c"\09\00\00\00\00\00\00\00\00 \00\00\00\00\00\00", ptr @alloc_ca8f9c3c90ddb14657eef011778f0d79, [16 x i8] c"\08\00\00\00\00\00\00\00\00\10\00\00\00\00\00\00", ptr @alloc_248573dbdb1f23c6f8497ef162ca133f, [16 x i8] c"\0D\00\00\00\00\00\00\00\00\08\00\00\00\00\00\00", ptr @alloc_33e28c56fe990dd47deb92a17608e414, [16 x i8] c"\0E\00\00\00\00\00\00\00\00\04\00\00\00\00\00\00", ptr @alloc_301ac14af0c7742428f03f6fb56cbb88, [16 x i8] c"\0E\00\00\00\00\00\00\00\00\02\00\00\00\00\00\00", ptr @alloc_4a4b1b5fd7f29778851f88943a80f7e2, [16 x i8] c"\09\00\00\00\00\00\00\00\00\01\00\00\00\00\00\00", ptr @alloc_99472ab79f8778654111cd8cd4dce1f6, [16 x i8] c"\09\00\00\00\00\00\00\00\80\00\00\00\00\00\00\00", ptr @alloc_233a007a17452bb68262e3c1f40af172, [16 x i8] c"\09\00\00\00\00\00\00\00@\00\00\00\00\00\00\00", ptr @alloc_28c2c26bc7b83b08dda497f27d5e048a, [16 x i8] c"\14\00\00\00\00\00\00\00\10\00\00\00\00\00\00\00", ptr @alloc_4ac2882683871e4ddfd9eb00ed3ca0f8, [16 x i8] c"\0B\00\00\00\00\00\00\00\04\00\00\00\00\00\00\00", ptr @alloc_7fde2caa5e786cf03241bc614c426f83, [16 x i8] c"\0A\00\00\00\00\00\00\00\01\00\00\00\00\00\00\00" }>, align 8
@alloc_934ababc09c475581af068f0c652185c = private unnamed_addr constant <{ [102 x i8] }> <{ [102 x i8] c"/Users/yaw/.cargo/registry/src/index.crates.io-6f17d22bba15001f/x86_64-0.14.11/src/registers/rflags.rs" }>, align 1
@alloc_0d35ac2d9f3c602a78d8eba6062ec8d5 = private unnamed_addr constant <{ ptr, [16 x i8] }> <{ ptr @alloc_934ababc09c475581af068f0c652185c, [16 x i8] c"f\00\00\00\00\00\00\00\08\00\00\00\01\00\00\00" }>, align 8
@alloc_01ae796963a0c2ee02f1ad0340da23db = private unnamed_addr constant <{ [9 x i8] }> <{ [9 x i8] c"PanicInfo" }>, align 1
@alloc_f4ff7dcdfeff1625bf761bb3163823e9 = private unnamed_addr constant <{ [7 x i8] }> <{ [7 x i8] c"payload" }>, align 1
@vtable.7 = private constant <{ ptr, [16 x i8], ptr }> <{ ptr @"_ZN4core3ptr70drop_in_place$LT$$RF$dyn$u20$core..any..Any$u2b$core..marker..Send$GT$17h2adb906a6e336f40E", [16 x i8] c"\10\00\00\00\00\00\00\00\08\00\00\00\00\00\00\00", ptr @"_ZN42_$LT$$RF$T$u20$as$u20$core..fmt..Debug$GT$3fmt17hd4e7a63a2e789fb9E" }>, align 8, !dbg !175
@alloc_96af468510ea8f5f9cb1c5ccd138c101 = private unnamed_addr constant <{ [7 x i8] }> <{ [7 x i8] c"message" }>, align 1
@vtable.8 = private constant <{ ptr, [16 x i8], ptr }> <{ ptr @"_ZN4core3ptr73drop_in_place$LT$core..option..Option$LT$$RF$core..fmt..Arguments$GT$$GT$17hd30c8541092d1a49E", [16 x i8] c"\08\00\00\00\00\00\00\00\08\00\00\00\00\00\00\00", ptr @"_ZN66_$LT$core..option..Option$LT$T$GT$$u20$as$u20$core..fmt..Debug$GT$3fmt17h9a3e0257ab7ae75dE" }>, align 8, !dbg !189
@alloc_574d1a2219ebd7ae8db35e273d007636 = private unnamed_addr constant <{ [8 x i8] }> <{ [8 x i8] c"location" }>, align 1
@vtable.9 = private constant <{ ptr, [16 x i8], ptr }> <{ ptr @"_ZN4core3ptr56drop_in_place$LT$$RF$core..panic..location..Location$GT$17h8e539d6e868cad31E", [16 x i8] c"\08\00\00\00\00\00\00\00\08\00\00\00\00\00\00\00", ptr @"_ZN42_$LT$$RF$T$u20$as$u20$core..fmt..Debug$GT$3fmt17h2a5db5167689f2e9E" }>, align 8, !dbg !210
@alloc_575da4ed8184512500a740f5175c45b3 = private unnamed_addr constant <{ [10 x i8] }> <{ [10 x i8] c"can_unwind" }>, align 1
@vtable.a = private constant <{ ptr, [16 x i8], ptr }> <{ ptr @"_ZN4core3ptr25drop_in_place$LT$bool$GT$17h92d3b58b8a879e22E", [16 x i8] c"\01\00\00\00\00\00\00\00\01\00\00\00\00\00\00\00", ptr @"_ZN41_$LT$bool$u20$as$u20$core..fmt..Debug$GT$3fmt17h136972fc7c372488E" }>, align 8, !dbg !226
@alloc_1345bb1b7804d17c32eca7c37789ad73 = private unnamed_addr constant <{ [18 x i8] }> <{ [18 x i8] c"force_no_backtrace" }>, align 1
@vtable.b = private constant <{ ptr, [16 x i8], ptr }> <{ ptr @"_ZN4core3ptr29drop_in_place$LT$$RF$bool$GT$17h826c1bbfdba80160E", [16 x i8] c"\08\00\00\00\00\00\00\00\08\00\00\00\00\00\00\00", ptr @"_ZN42_$LT$$RF$T$u20$as$u20$core..fmt..Debug$GT$3fmt17h8c4655f75b9af87eE" }>, align 8, !dbg !235
@vtable.c = private constant <{ ptr, [16 x i8], ptr, ptr, ptr }> <{ ptr @"_ZN4core3ptr32drop_in_place$LT$vga..Screen$GT$17h363de3e1331f6db6E", [16 x i8] c"\D8\00\00\00\00\00\00\00\08\00\00\00\00\00\00\00", ptr @"_ZN48_$LT$vga..Screen$u20$as$u20$core..fmt..Write$GT$9write_str17h0177197133190629E", ptr @_ZN4core3fmt5Write10write_char17hdad71fbc2d575da8E, ptr @_ZN4core3fmt5Write9write_fmt17h494e19889fa22586E }>, align 8, !dbg !244
@alloc_db71f8f2efa4491d8384d69403773686 = private unnamed_addr constant <{ [18 x i8] }> <{ [18 x i8] c"PageFaultErrorCode" }>, align 1
@vtable.d = private constant <{ ptr, [16 x i8], ptr }> <{ ptr @"_ZN4core3ptr69drop_in_place$LT$$RF$x86_64..structures..idt.._..InternalBitFlags$GT$17h1bc8dc16a8ad089fE", [16 x i8] c"\08\00\00\00\00\00\00\00\08\00\00\00\00\00\00\00", ptr @"_ZN42_$LT$$RF$T$u20$as$u20$core..fmt..Debug$GT$3fmt17hc226f22938a619b1E" }>, align 8, !dbg !291
@alloc_129868e99993fac393d02de2e84e1958 = private unnamed_addr constant <{ [34 x i8] }> <{ [34 x i8] c"<<<>>> PAGE FAULT OCCURRED <<<>>>\0A" }>, align 1
@alloc_393144d6dced93512440edf10ad5ea1f = private unnamed_addr constant <{ ptr, [8 x i8] }> <{ ptr @alloc_129868e99993fac393d02de2e84e1958, [8 x i8] c"\22\00\00\00\00\00\00\00" }>, align 8
@alloc_eef79925bc8360bea2bb272d2060a854 = private unnamed_addr constant <{ [9 x i8] }> <{ [9 x i8] c"Address: " }>, align 1
@alloc_49a1e817e911805af64bbc7efb390101 = private unnamed_addr constant <{ [1 x i8] }> <{ [1 x i8] c"\0A" }>, align 1
@alloc_d77bbcfcc4bfb3cf23d98b48bf012dae = private unnamed_addr constant <{ ptr, [8 x i8], ptr, [8 x i8] }> <{ ptr @alloc_eef79925bc8360bea2bb272d2060a854, [8 x i8] c"\09\00\00\00\00\00\00\00", ptr @alloc_49a1e817e911805af64bbc7efb390101, [8 x i8] c"\01\00\00\00\00\00\00\00" }>, align 8
@alloc_fd244c13268f0232abf2181a35879f5a = private unnamed_addr constant <{ [12 x i8] }> <{ [12 x i8] c"Error code: " }>, align 1
@alloc_1ac2c68dfbb11869efc6036ae6609a72 = private unnamed_addr constant <{ ptr, [8 x i8], ptr, [8 x i8] }> <{ ptr @alloc_fd244c13268f0232abf2181a35879f5a, [8 x i8] c"\0C\00\00\00\00\00\00\00", ptr @alloc_49a1e817e911805af64bbc7efb390101, [8 x i8] c"\01\00\00\00\00\00\00\00" }>, align 8
@alloc_3cf8a28b1a0b9f6efeedeb779c4e30d8 = private unnamed_addr constant <{ ptr, [8 x i8], ptr, [8 x i8] }> <{ ptr @alloc_513570631223a12912d85da2bec3b15a, [8 x i8] zeroinitializer, ptr @alloc_49a1e817e911805af64bbc7efb390101, [8 x i8] c"\01\00\00\00\00\00\00\00" }>, align 8
@alloc_0f52f98e9fa44caf6668aeb0b1c94ca5 = private unnamed_addr constant <{ [1 x i8] }> <{ [1 x i8] c"." }>, align 1
@alloc_4a9496f62a8e8df8cc2e6d37900e803f = private unnamed_addr constant <{ ptr, [8 x i8] }> <{ ptr @alloc_0f52f98e9fa44caf6668aeb0b1c94ca5, [8 x i8] c"\01\00\00\00\00\00\00\00" }>, align 8
@alloc_b99730e73100e73a81f4fbfe74b3821d = private unnamed_addr constant <{ ptr, [8 x i8] }> <{ ptr @alloc_513570631223a12912d85da2bec3b15a, [8 x i8] zeroinitializer }>, align 8
@alloc_336fab64cf280841146f9adb6c51a626 = private unnamed_addr constant <{ [29 x i8] }> <{ [29 x i8] c"IDT initialization failed -> " }>, align 1
@alloc_3c7de12acb76abac95e5db0e9d04aea9 = private unnamed_addr constant <{ ptr, [8 x i8] }> <{ ptr @alloc_336fab64cf280841146f9adb6c51a626, [8 x i8] c"\1D\00\00\00\00\00\00\00" }>, align 8
@alloc_ceb4379b47ed1f7ed9f46a275cc711f0 = private unnamed_addr constant <{ [17 x i8] }> <{ [17 x i8] c"src/interrupts.rs" }>, align 1
@alloc_16659dcd8890c5f859520106eb31d8ad = private unnamed_addr constant <{ ptr, [16 x i8] }> <{ ptr @alloc_ceb4379b47ed1f7ed9f46a275cc711f0, [16 x i8] c"\11\00\00\00\00\00\00\00F\00\00\00\13\00\00\00" }>, align 8
@alloc_c93a4ffa9727a1bb49e05bf87dcfdf04 = private unnamed_addr constant <{ [13 x i8] }> <{ [13 x i8] c"src/memory.rs" }>, align 1
@alloc_450f1dcc0063df9491444b7751d01ef9 = private unnamed_addr constant <{ ptr, [16 x i8] }> <{ ptr @alloc_c93a4ffa9727a1bb49e05bf87dcfdf04, [16 x i8] c"\0D\00\00\00\00\00\00\00\0C\00\00\00I\00\00\00" }>, align 8
@alloc_a5f8feb4a3586cc3d2cc627130027a8e = private unnamed_addr constant <{ [34 x i8] }> <{ [34 x i8] c"not sure how to enumerate this yet" }>, align 1
@alloc_146e34fdbc17458366160448cd702def = private unnamed_addr constant <{ ptr, [8 x i8] }> <{ ptr @alloc_a5f8feb4a3586cc3d2cc627130027a8e, [8 x i8] c"\22\00\00\00\00\00\00\00" }>, align 8
@alloc_73abac38ff07c62187f615db545842c9 = private unnamed_addr constant <{ ptr, [16 x i8] }> <{ ptr @alloc_c93a4ffa9727a1bb49e05bf87dcfdf04, [16 x i8] c"\0D\00\00\00\00\00\00\005\00\00\00\12\00\00\00" }>, align 8
@alloc_604802f3d78c33b0b3552b3c7940e5df = private unnamed_addr constant <{ [18 x i8] }> <{ [18 x i8] c"src/peripherals.rs" }>, align 1
@alloc_d08997a3b514c27721e31730cc8f2b02 = private unnamed_addr constant <{ ptr, [16 x i8] }> <{ ptr @alloc_604802f3d78c33b0b3552b3c7940e5df, [16 x i8] c"\12\00\00\00\00\00\00\00\1D\00\00\00U\00\00\00" }>, align 8
@_ZN4theo17BOOTLOADER_CONFIG17hd11f55a425e70ab0E = internal constant <{ [184 x i8] }> <{ [184 x i8] c"\00\00\00\00\00\00\00\00\00\00\00\00\00\00\00\00\00\00\00\00\00\00\00\00\00\00\00\00\00\00\00\00\00\00\00\00\00\00\00\00\00\00\00\00\00\00\00\00\00\00\00\00\00\00\00\00\00\00\00\00\00\00\00\00\00\00\00\00\00\00\00\00\00\00\00\00\00\00\00\00\00\00\00\00\00\00\00\00\00\00\00\00\00\00\00\00\00\00\00\00\00\00\00\00\00\00\00\00\00\00\00\00\02\00\00\00\00\00\00\00\00\00\00\00\00\00\00\00\00\00\00\00\00\00\00\00\00\00\00\00\00\00\00\00\00\00\00\00\00\00\00\00\00\00\00\00\00\00\00\00\00\00\00\00\00\00\00\00\00\00\0B\00\04\00\00\00\00@\01\00\00\00\00\00" }>, align 8, !dbg !307
@alloc_e57360d3cab7b504edab5d53bcd8a2bf = private unnamed_addr constant <{ [46 x i8] }> <{ [46 x i8] c"ave imperator, morituri te salutant \F0\9F\96\96!\0A\0A\0A\0A\0A" }>, align 1
@alloc_576604a614cb5cfb7f9953ac415f68be = private unnamed_addr constant <{ ptr, [8 x i8] }> <{ ptr @alloc_e57360d3cab7b504edab5d53bcd8a2bf, [8 x i8] c".\00\00\00\00\00\00\00" }>, align 8
@alloc_ac6f105be24c55b3d87791790b6d9f81 = private unnamed_addr constant <{ [44 x i8] }> <{ [44 x i8] c"this text should appear on last but one row\0A" }>, align 1
@alloc_dcb3216fa9f669e64c3d6aa687dcf74b = private unnamed_addr constant <{ ptr, [8 x i8] }> <{ ptr @alloc_ac6f105be24c55b3d87791790b6d9f81, [8 x i8] c",\00\00\00\00\00\00\00" }>, align 8
@alloc_840f7d7801fd0a18e678824978a17a2e = private unnamed_addr constant <{ [39 x i8] }> <{ [39 x i8] c"last row of text, with empty row below\0A" }>, align 1
@alloc_a919a9755b1f61d299fc3c06ce7d99aa = private unnamed_addr constant <{ ptr, [8 x i8] }> <{ ptr @alloc_840f7d7801fd0a18e678824978a17a2e, [8 x i8] c"'\00\00\00\00\00\00\00" }>, align 8
@_ZN4theo10interrupts8SAFE_IDT17h082afaa02e826098E = internal constant <{}> zeroinitializer, align 1, !dbg !378
@alloc_4f563f7795e8c2dc373f451cbb82ed03 = private unnamed_addr constant <{ ptr, [16 x i8] }> <{ ptr @alloc_ceb4379b47ed1f7ed9f46a275cc711f0, [16 x i8] c"\11\00\00\00\00\00\00\00\18\00\00\00\11\00\00\00" }>, align 8
@alloc_5eaa8e4b63016922d126c3eac3c61848 = private unnamed_addr constant <{ ptr, [16 x i8] }> <{ ptr @alloc_ceb4379b47ed1f7ed9f46a275cc711f0, [16 x i8] c"\11\00\00\00\00\00\00\00\18\00\00\00\10\00\00\00" }>, align 8
@alloc_3657047ca73d0edc1f3d214343400582 = private unnamed_addr constant <{ ptr, [16 x i8] }> <{ ptr @alloc_ceb4379b47ed1f7ed9f46a275cc711f0, [16 x i8] c"\11\00\00\00\00\00\00\00\19\00\00\00\11\00\00\00" }>, align 8
@alloc_40b9ce323e10f5e26c17a4383756df25 = private unnamed_addr constant <{ ptr, [16 x i8] }> <{ ptr @alloc_ceb4379b47ed1f7ed9f46a275cc711f0, [16 x i8] c"\11\00\00\00\00\00\00\00\19\00\00\00\10\00\00\00" }>, align 8
@"_ZN70_$LT$theo..interrupts..SAFE_IDT$u20$as$u20$core..ops..deref..Deref$GT$5deref11__stability4LAZY17h9f0133e60de2fbe2E" = internal global <{ [4098 x i8], [1 x i8], [13 x i8], [8 x i8], [8 x i8] }> <{ [4098 x i8] undef, [1 x i8] c"\02", [13 x i8] undef, [8 x i8] zeroinitializer, [8 x i8] undef }>, align 16, !dbg !385
@_ZN4theo11peripherals24VGA_DISPLAY_IN_TEXT_MODE17h1b3751de8bfaee17E = internal constant <{}> zeroinitializer, align 1, !dbg !580
@"_ZN87_$LT$theo..peripherals..VGA_DISPLAY_IN_TEXT_MODE$u20$as$u20$core..ops..deref..Deref$GT$5deref11__stability4LAZY17hf58bee140731aebaE" = internal global <{ [16 x i8], [224 x i8] }> <{ [16 x i8] zeroinitializer, [224 x i8] undef }>, align 8, !dbg !586
@_ZN4theo11peripherals8KEYBOARD17hb6e95ccf92e0edefE = internal constant <{}> zeroinitializer, align 1, !dbg !646
@"_ZN71_$LT$theo..peripherals..KEYBOARD$u20$as$u20$core..ops..deref..Deref$GT$5deref11__stability4LAZY17ha66bd039134bdab9E" = internal global <{ [10 x i8], [22 x i8] }> <{ [10 x i8] zeroinitializer, [22 x i8] undef }>, align 8, !dbg !651
@_ZN4theo6serial7SERIAL117h51fd6111450ccb24E = internal constant <{}> zeroinitializer, align 1, !dbg !767
@"_ZN65_$LT$theo..serial..SERIAL1$u20$as$u20$core..ops..deref..Deref$GT$5deref11__stability4LAZY17hd46806227fbb0dacE" = internal global <{ [2 x i8], [14 x i8], [8 x i8] }> <{ [2 x i8] zeroinitializer, [14 x i8] undef, [8 x i8] zeroinitializer }>, align 8, !dbg !773
@_ZN4theo1_19__BOOTLOADER_CONFIG17hdb8034938dd1b52bE = internal constant <{ [124 x i8] }> <{ [124 x i8] c"t<\A9a\096F\A0\BBU\\\15\89\15%=\00\00\0B\00\04\00\00\00@\01\00\00\00\00\00\00\00\00\00\00\00\00\00\00\00\00\00\00\00\00\00\00\00\00\00\00\00\00\00\00\00\00\01\00\00\00\00\00\00\00\00\00\00\00\00\00\00\00\00\00\00\00\00\00\00\00\00\00\00\00\00\00\00\00\00\00\00\00\00\00\00\00\00\00\00\00\00\00\00\00\00\00\00\00\00\00\00\00\00\00\00\00\00\00\00\00\00\00" }>, section ".bootloader-config", align 1, !dbg !859
@__rustc_debug_gdb_scripts_section__ = linkonce_odr unnamed_addr constant [34 x i8] c"\01gdb_load_rust_pretty_printers.py\00", section ".debug_gdb_scripts", align 1

; <x86_64::structures::idt::InterruptDescriptorTable as core::ops::index::IndexMut<usize>>::index_mut
; Function Attrs: inlinehint noredzone nounwind
define internal align 4 ptr @"_ZN109_$LT$x86_64..structures..idt..InterruptDescriptorTable$u20$as$u20$core..ops..index..IndexMut$LT$usize$GT$$GT$9index_mut17h88a9833bf5afa453E"(ptr align 16 %self, i64 %index, ptr align 8 %0) unnamed_addr #0 !dbg !1027 {
start:
  %f.dbg.spill.i21 = alloca ptr, align 8
  %x.dbg.spill.i22 = alloca ptr, align 8
  %_0.i23 = alloca { ptr, ptr }, align 8
  %f.dbg.spill.i18 = alloca ptr, align 8
  %x.dbg.spill.i19 = alloca ptr, align 8
  %_0.i20 = alloca { ptr, ptr }, align 8
  %f.dbg.spill.i15 = alloca ptr, align 8
  %x.dbg.spill.i16 = alloca ptr, align 8
  %_0.i17 = alloca { ptr, ptr }, align 8
  %f.dbg.spill.i = alloca ptr, align 8
  %x.dbg.spill.i14 = alloca ptr, align 8
  %_0.i = alloca { ptr, ptr }, align 8
  %x.dbg.spill.i11 = alloca ptr, align 8
  %x.dbg.spill.i8 = alloca ptr, align 8
  %x.dbg.spill.i5 = alloca ptr, align 8
  %x.dbg.spill.i = alloca ptr, align 8
  %index.dbg.spill = alloca i64, align 8
  %self.dbg.spill = alloca ptr, align 8
  %_61 = alloca [1 x { ptr, ptr }], align 8
  %_57 = alloca %"core::fmt::Arguments<'_>", align 8
  %i3 = alloca i64, align 8
  %_52 = alloca [1 x { ptr, ptr }], align 8
  %_48 = alloca %"core::fmt::Arguments<'_>", align 8
  %i2 = alloca i64, align 8
  %_43 = alloca [1 x { ptr, ptr }], align 8
  %_39 = alloca %"core::fmt::Arguments<'_>", align 8
  %i1 = alloca i64, align 8
  %_34 = alloca [1 x { ptr, ptr }], align 8
  %_30 = alloca %"core::fmt::Arguments<'_>", align 8
  %i = alloca i64, align 8
  %_3 = alloca ptr, align 8
  store ptr %self, ptr %self.dbg.spill, align 8
  call void @llvm.dbg.declare(metadata ptr %self.dbg.spill, metadata !1035, metadata !DIExpression()), !dbg !1047
  store i64 %index, ptr %index.dbg.spill, align 8
  call void @llvm.dbg.declare(metadata ptr %index.dbg.spill, metadata !1036, metadata !DIExpression()), !dbg !1048
  call void @llvm.dbg.declare(metadata ptr %index.dbg.spill, metadata !1037, metadata !DIExpression()), !dbg !1049
  call void @llvm.dbg.declare(metadata ptr %i, metadata !1039, metadata !DIExpression()), !dbg !1050
  call void @llvm.dbg.declare(metadata ptr %i1, metadata !1041, metadata !DIExpression()), !dbg !1051
  call void @llvm.dbg.declare(metadata ptr %i2, metadata !1043, metadata !DIExpression()), !dbg !1052
  call void @llvm.dbg.declare(metadata ptr %i3, metadata !1045, metadata !DIExpression()), !dbg !1053
  switch i64 %index, label %bb1 [
    i64 0, label %bb11
    i64 1, label %bb12
    i64 2, label %bb13
    i64 3, label %bb14
    i64 4, label %bb15
    i64 5, label %bb16
    i64 6, label %bb17
    i64 7, label %bb18
    i64 9, label %bb19
    i64 16, label %bb20
    i64 19, label %bb21
    i64 20, label %bb22
    i64 28, label %bb23
    i64 15, label %bb27
    i64 31, label %bb28
    i64 8, label %bb32
    i64 17, label %bb33
    i64 21, label %bb34
    i64 29, label %bb35
    i64 30, label %bb36
    i64 18, label %bb39
  ], !dbg !1054

bb1:                                              ; preds = %start
  %_8 = icmp ule i64 32, %index, !dbg !1055
  br i1 %_8, label %bb10, label %bb3, !dbg !1055

bb11:                                             ; preds = %start
  store ptr %self, ptr %_3, align 8, !dbg !1056
  br label %bb44, !dbg !1057

bb12:                                             ; preds = %start
  %_11 = getelementptr inbounds %"x86_64::structures::idt::InterruptDescriptorTable", ptr %self, i32 0, i32 1, !dbg !1058
  store ptr %_11, ptr %_3, align 8, !dbg !1058
  br label %bb44, !dbg !1059

bb13:                                             ; preds = %start
  %_12 = getelementptr inbounds %"x86_64::structures::idt::InterruptDescriptorTable", ptr %self, i32 0, i32 2, !dbg !1060
  store ptr %_12, ptr %_3, align 8, !dbg !1060
  br label %bb44, !dbg !1061

bb14:                                             ; preds = %start
  %_13 = getelementptr inbounds %"x86_64::structures::idt::InterruptDescriptorTable", ptr %self, i32 0, i32 3, !dbg !1062
  store ptr %_13, ptr %_3, align 8, !dbg !1062
  br label %bb44, !dbg !1063

bb15:                                             ; preds = %start
  %_14 = getelementptr inbounds %"x86_64::structures::idt::InterruptDescriptorTable", ptr %self, i32 0, i32 4, !dbg !1064
  store ptr %_14, ptr %_3, align 8, !dbg !1064
  br label %bb44, !dbg !1065

bb16:                                             ; preds = %start
  %_15 = getelementptr inbounds %"x86_64::structures::idt::InterruptDescriptorTable", ptr %self, i32 0, i32 5, !dbg !1066
  store ptr %_15, ptr %_3, align 8, !dbg !1066
  br label %bb44, !dbg !1067

bb17:                                             ; preds = %start
  %_16 = getelementptr inbounds %"x86_64::structures::idt::InterruptDescriptorTable", ptr %self, i32 0, i32 6, !dbg !1068
  store ptr %_16, ptr %_3, align 8, !dbg !1068
  br label %bb44, !dbg !1069

bb18:                                             ; preds = %start
  %_17 = getelementptr inbounds %"x86_64::structures::idt::InterruptDescriptorTable", ptr %self, i32 0, i32 7, !dbg !1070
  store ptr %_17, ptr %_3, align 8, !dbg !1070
  br label %bb44, !dbg !1071

bb19:                                             ; preds = %start
  %_18 = getelementptr inbounds %"x86_64::structures::idt::InterruptDescriptorTable", ptr %self, i32 0, i32 9, !dbg !1072
  store ptr %_18, ptr %_3, align 8, !dbg !1072
  br label %bb44, !dbg !1073

bb20:                                             ; preds = %start
  %_19 = getelementptr inbounds %"x86_64::structures::idt::InterruptDescriptorTable", ptr %self, i32 0, i32 16, !dbg !1074
  store ptr %_19, ptr %_3, align 8, !dbg !1074
  br label %bb44, !dbg !1075

bb21:                                             ; preds = %start
  %_20 = getelementptr inbounds %"x86_64::structures::idt::InterruptDescriptorTable", ptr %self, i32 0, i32 19, !dbg !1076
  store ptr %_20, ptr %_3, align 8, !dbg !1076
  br label %bb44, !dbg !1077

bb22:                                             ; preds = %start
  %_21 = getelementptr inbounds %"x86_64::structures::idt::InterruptDescriptorTable", ptr %self, i32 0, i32 20, !dbg !1078
  store ptr %_21, ptr %_3, align 8, !dbg !1078
  br label %bb44, !dbg !1079

bb23:                                             ; preds = %start
  %_22 = getelementptr inbounds %"x86_64::structures::idt::InterruptDescriptorTable", ptr %self, i32 0, i32 23, !dbg !1080
  store ptr %_22, ptr %_3, align 8, !dbg !1080
  br label %bb44, !dbg !1081

bb27:                                             ; preds = %start
  store i64 %index, ptr %i, align 8, !dbg !1082
  br label %bb26, !dbg !1054

bb28:                                             ; preds = %start
  store i64 %index, ptr %i, align 8, !dbg !1083
  br label %bb26, !dbg !1054

bb32:                                             ; preds = %start
  store i64 %index, ptr %i1, align 8, !dbg !1084
  br label %bb31, !dbg !1054

bb33:                                             ; preds = %start
  store i64 %index, ptr %i1, align 8, !dbg !1085
  br label %bb31, !dbg !1054

bb34:                                             ; preds = %start
  store i64 %index, ptr %i1, align 8, !dbg !1086
  br label %bb31, !dbg !1054

bb35:                                             ; preds = %start
  store i64 %index, ptr %i1, align 8, !dbg !1087
  br label %bb31, !dbg !1054

bb36:                                             ; preds = %start
  store i64 %index, ptr %i1, align 8, !dbg !1088
  br label %bb31, !dbg !1054

bb39:                                             ; preds = %start
  store i64 %index, ptr %i2, align 8, !dbg !1089
  store ptr %i2, ptr %x.dbg.spill.i11, align 8
  call void @llvm.dbg.declare(metadata ptr %x.dbg.spill.i11, metadata !1090, metadata !DIExpression()), !dbg !1098
  store ptr %i2, ptr %x.dbg.spill.i14, align 8
  call void @llvm.dbg.declare(metadata ptr %x.dbg.spill.i14, metadata !1100, metadata !DIExpression()), !dbg !1110
  store ptr @"_ZN4core3fmt3num3imp54_$LT$impl$u20$core..fmt..Display$u20$for$u20$usize$GT$3fmt17h2ba014a520b3571cE", ptr %f.dbg.spill.i, align 8
  call void @llvm.dbg.declare(metadata ptr %f.dbg.spill.i, metadata !1109, metadata !DIExpression()), !dbg !1112
  store ptr %i2, ptr %_0.i, align 8, !dbg !1113
  %1 = getelementptr inbounds { ptr, ptr }, ptr %_0.i, i32 0, i32 1, !dbg !1113
  store ptr @"_ZN4core3fmt3num3imp54_$LT$impl$u20$core..fmt..Display$u20$for$u20$usize$GT$3fmt17h2ba014a520b3571cE", ptr %1, align 8, !dbg !1113
  %2 = load ptr, ptr %_0.i, align 8, !dbg !1114, !nonnull !29, !align !1115, !noundef !29
  %3 = getelementptr inbounds { ptr, ptr }, ptr %_0.i, i32 0, i32 1, !dbg !1114
  %4 = load ptr, ptr %3, align 8, !dbg !1114, !nonnull !29, !noundef !29
  %5 = insertvalue { ptr, ptr } poison, ptr %2, 0, !dbg !1114
  %6 = insertvalue { ptr, ptr } %5, ptr %4, 1, !dbg !1114
  %_0.0.i12 = extractvalue { ptr, ptr } %6, 0, !dbg !1116
  %_0.1.i13 = extractvalue { ptr, ptr } %6, 1, !dbg !1116
  %_53.0 = extractvalue { ptr, ptr } %6, 0, !dbg !1117
  %_53.1 = extractvalue { ptr, ptr } %6, 1, !dbg !1117
  %7 = getelementptr inbounds [1 x { ptr, ptr }], ptr %_52, i64 0, i64 0, !dbg !1117
  %8 = getelementptr inbounds { ptr, ptr }, ptr %7, i32 0, i32 0, !dbg !1117
  store ptr %_53.0, ptr %8, align 8, !dbg !1117
  %9 = getelementptr inbounds { ptr, ptr }, ptr %7, i32 0, i32 1, !dbg !1117
  store ptr %_53.1, ptr %9, align 8, !dbg !1117
; call core::fmt::Arguments::new_v1
  call void @_ZN4core3fmt9Arguments6new_v117h116c3fa86d73d58eE(ptr sret(%"core::fmt::Arguments<'_>") align 8 %_48, ptr align 8 @alloc_362de21a3b2781033660bc1868b9ea1e, i64 2, ptr align 8 %_52, i64 1) #9, !dbg !1117
; call core::panicking::panic_fmt
  call void @_ZN4core9panicking9panic_fmt17h7c3b1a7d9368f16cE(ptr align 8 %_48, ptr align 8 %0) #11, !dbg !1117
  unreachable, !dbg !1117

bb44:                                             ; preds = %bb25, %bb23, %bb22, %bb21, %bb20, %bb19, %bb18, %bb17, %bb16, %bb15, %bb14, %bb13, %bb12, %bb11
  %_0 = load ptr, ptr %_3, align 8, !dbg !1054, !nonnull !29, !align !1118, !noundef !29
  ret ptr %_0, !dbg !1119

bb26:                                             ; preds = %bb4, %bb28, %bb27
  store ptr %i, ptr %x.dbg.spill.i, align 8
  call void @llvm.dbg.declare(metadata ptr %x.dbg.spill.i, metadata !1090, metadata !DIExpression()), !dbg !1120
  store ptr %i, ptr %x.dbg.spill.i22, align 8
  call void @llvm.dbg.declare(metadata ptr %x.dbg.spill.i22, metadata !1100, metadata !DIExpression()), !dbg !1122
  store ptr @"_ZN4core3fmt3num3imp54_$LT$impl$u20$core..fmt..Display$u20$for$u20$usize$GT$3fmt17h2ba014a520b3571cE", ptr %f.dbg.spill.i21, align 8
  call void @llvm.dbg.declare(metadata ptr %f.dbg.spill.i21, metadata !1109, metadata !DIExpression()), !dbg !1124
  store ptr %i, ptr %_0.i23, align 8, !dbg !1125
  %10 = getelementptr inbounds { ptr, ptr }, ptr %_0.i23, i32 0, i32 1, !dbg !1125
  store ptr @"_ZN4core3fmt3num3imp54_$LT$impl$u20$core..fmt..Display$u20$for$u20$usize$GT$3fmt17h2ba014a520b3571cE", ptr %10, align 8, !dbg !1125
  %11 = load ptr, ptr %_0.i23, align 8, !dbg !1126, !nonnull !29, !align !1115, !noundef !29
  %12 = getelementptr inbounds { ptr, ptr }, ptr %_0.i23, i32 0, i32 1, !dbg !1126
  %13 = load ptr, ptr %12, align 8, !dbg !1126, !nonnull !29, !noundef !29
  %14 = insertvalue { ptr, ptr } poison, ptr %11, 0, !dbg !1126
  %15 = insertvalue { ptr, ptr } %14, ptr %13, 1, !dbg !1126
  %_0.0.i = extractvalue { ptr, ptr } %15, 0, !dbg !1127
  %_0.1.i = extractvalue { ptr, ptr } %15, 1, !dbg !1127
  %_35.0 = extractvalue { ptr, ptr } %15, 0, !dbg !1128
  %_35.1 = extractvalue { ptr, ptr } %15, 1, !dbg !1128
  %16 = getelementptr inbounds [1 x { ptr, ptr }], ptr %_34, i64 0, i64 0, !dbg !1128
  %17 = getelementptr inbounds { ptr, ptr }, ptr %16, i32 0, i32 0, !dbg !1128
  store ptr %_35.0, ptr %17, align 8, !dbg !1128
  %18 = getelementptr inbounds { ptr, ptr }, ptr %16, i32 0, i32 1, !dbg !1128
  store ptr %_35.1, ptr %18, align 8, !dbg !1128
; call core::fmt::Arguments::new_v1
  call void @_ZN4core3fmt9Arguments6new_v117h116c3fa86d73d58eE(ptr sret(%"core::fmt::Arguments<'_>") align 8 %_30, ptr align 8 @alloc_d17f5c2ab765710fed33d58538e5bbab, i64 2, ptr align 8 %_34, i64 1) #9, !dbg !1128
; call core::panicking::panic_fmt
  call void @_ZN4core9panicking9panic_fmt17h7c3b1a7d9368f16cE(ptr align 8 %_30, ptr align 8 %0) #11, !dbg !1128
  unreachable, !dbg !1128

bb31:                                             ; preds = %bb6, %bb36, %bb35, %bb34, %bb33, %bb32
  store ptr %i1, ptr %x.dbg.spill.i5, align 8
  call void @llvm.dbg.declare(metadata ptr %x.dbg.spill.i5, metadata !1090, metadata !DIExpression()), !dbg !1129
  store ptr %i1, ptr %x.dbg.spill.i19, align 8
  call void @llvm.dbg.declare(metadata ptr %x.dbg.spill.i19, metadata !1100, metadata !DIExpression()), !dbg !1131
  store ptr @"_ZN4core3fmt3num3imp54_$LT$impl$u20$core..fmt..Display$u20$for$u20$usize$GT$3fmt17h2ba014a520b3571cE", ptr %f.dbg.spill.i18, align 8
  call void @llvm.dbg.declare(metadata ptr %f.dbg.spill.i18, metadata !1109, metadata !DIExpression()), !dbg !1133
  store ptr %i1, ptr %_0.i20, align 8, !dbg !1134
  %19 = getelementptr inbounds { ptr, ptr }, ptr %_0.i20, i32 0, i32 1, !dbg !1134
  store ptr @"_ZN4core3fmt3num3imp54_$LT$impl$u20$core..fmt..Display$u20$for$u20$usize$GT$3fmt17h2ba014a520b3571cE", ptr %19, align 8, !dbg !1134
  %20 = load ptr, ptr %_0.i20, align 8, !dbg !1135, !nonnull !29, !align !1115, !noundef !29
  %21 = getelementptr inbounds { ptr, ptr }, ptr %_0.i20, i32 0, i32 1, !dbg !1135
  %22 = load ptr, ptr %21, align 8, !dbg !1135, !nonnull !29, !noundef !29
  %23 = insertvalue { ptr, ptr } poison, ptr %20, 0, !dbg !1135
  %24 = insertvalue { ptr, ptr } %23, ptr %22, 1, !dbg !1135
  %_0.0.i6 = extractvalue { ptr, ptr } %24, 0, !dbg !1136
  %_0.1.i7 = extractvalue { ptr, ptr } %24, 1, !dbg !1136
  %_44.0 = extractvalue { ptr, ptr } %24, 0, !dbg !1137
  %_44.1 = extractvalue { ptr, ptr } %24, 1, !dbg !1137
  %25 = getelementptr inbounds [1 x { ptr, ptr }], ptr %_43, i64 0, i64 0, !dbg !1137
  %26 = getelementptr inbounds { ptr, ptr }, ptr %25, i32 0, i32 0, !dbg !1137
  store ptr %_44.0, ptr %26, align 8, !dbg !1137
  %27 = getelementptr inbounds { ptr, ptr }, ptr %25, i32 0, i32 1, !dbg !1137
  store ptr %_44.1, ptr %27, align 8, !dbg !1137
; call core::fmt::Arguments::new_v1
  call void @_ZN4core3fmt9Arguments6new_v117h116c3fa86d73d58eE(ptr sret(%"core::fmt::Arguments<'_>") align 8 %_39, ptr align 8 @alloc_7f336354b9c7f960a1b1b29efe6dd878, i64 2, ptr align 8 %_43, i64 1) #9, !dbg !1137
; call core::panicking::panic_fmt
  call void @_ZN4core9panicking9panic_fmt17h7c3b1a7d9368f16cE(ptr align 8 %_39, ptr align 8 %0) #11, !dbg !1137
  unreachable, !dbg !1137

bb3:                                              ; preds = %bb10, %bb1
  %_6 = icmp ule i64 22, %index, !dbg !1138
  br i1 %_6, label %bb9, label %bb5, !dbg !1138

bb10:                                             ; preds = %bb1
  %_9 = icmp ule i64 %index, 255, !dbg !1055
  br i1 %_9, label %bb2, label %bb3, !dbg !1055

bb2:                                              ; preds = %bb10
  %_25.0 = sub i64 %index, 32, !dbg !1139
  %_25.1 = icmp ult i64 %index, 32, !dbg !1139
  %28 = call i1 @llvm.expect.i1(i1 %_25.1, i1 false), !dbg !1139
  br i1 %28, label %panic, label %bb24, !dbg !1139

bb5:                                              ; preds = %bb9, %bb3
  %_4 = icmp ule i64 10, %index, !dbg !1140
  br i1 %_4, label %bb8, label %bb7, !dbg !1140

bb9:                                              ; preds = %bb3
  %_7 = icmp ule i64 %index, 27, !dbg !1138
  br i1 %_7, label %bb4, label %bb5, !dbg !1138

bb4:                                              ; preds = %bb9
  store i64 %index, ptr %i, align 8, !dbg !1141
  br label %bb26, !dbg !1054

bb7:                                              ; preds = %bb8, %bb5
  store i64 %index, ptr %i3, align 8, !dbg !1142
  store ptr %i3, ptr %x.dbg.spill.i8, align 8
  call void @llvm.dbg.declare(metadata ptr %x.dbg.spill.i8, metadata !1090, metadata !DIExpression()), !dbg !1143
  store ptr %i3, ptr %x.dbg.spill.i16, align 8
  call void @llvm.dbg.declare(metadata ptr %x.dbg.spill.i16, metadata !1100, metadata !DIExpression()), !dbg !1145
  store ptr @"_ZN4core3fmt3num3imp54_$LT$impl$u20$core..fmt..Display$u20$for$u20$usize$GT$3fmt17h2ba014a520b3571cE", ptr %f.dbg.spill.i15, align 8
  call void @llvm.dbg.declare(metadata ptr %f.dbg.spill.i15, metadata !1109, metadata !DIExpression()), !dbg !1147
  store ptr %i3, ptr %_0.i17, align 8, !dbg !1148
  %29 = getelementptr inbounds { ptr, ptr }, ptr %_0.i17, i32 0, i32 1, !dbg !1148
  store ptr @"_ZN4core3fmt3num3imp54_$LT$impl$u20$core..fmt..Display$u20$for$u20$usize$GT$3fmt17h2ba014a520b3571cE", ptr %29, align 8, !dbg !1148
  %30 = load ptr, ptr %_0.i17, align 8, !dbg !1149, !nonnull !29, !align !1115, !noundef !29
  %31 = getelementptr inbounds { ptr, ptr }, ptr %_0.i17, i32 0, i32 1, !dbg !1149
  %32 = load ptr, ptr %31, align 8, !dbg !1149, !nonnull !29, !noundef !29
  %33 = insertvalue { ptr, ptr } poison, ptr %30, 0, !dbg !1149
  %34 = insertvalue { ptr, ptr } %33, ptr %32, 1, !dbg !1149
  %_0.0.i9 = extractvalue { ptr, ptr } %34, 0, !dbg !1150
  %_0.1.i10 = extractvalue { ptr, ptr } %34, 1, !dbg !1150
  %_62.0 = extractvalue { ptr, ptr } %34, 0, !dbg !1151
  %_62.1 = extractvalue { ptr, ptr } %34, 1, !dbg !1151
  %35 = getelementptr inbounds [1 x { ptr, ptr }], ptr %_61, i64 0, i64 0, !dbg !1151
  %36 = getelementptr inbounds { ptr, ptr }, ptr %35, i32 0, i32 0, !dbg !1151
  store ptr %_62.0, ptr %36, align 8, !dbg !1151
  %37 = getelementptr inbounds { ptr, ptr }, ptr %35, i32 0, i32 1, !dbg !1151
  store ptr %_62.1, ptr %37, align 8, !dbg !1151
; call core::fmt::Arguments::new_v1
  call void @_ZN4core3fmt9Arguments6new_v117h116c3fa86d73d58eE(ptr sret(%"core::fmt::Arguments<'_>") align 8 %_57, ptr align 8 @alloc_f7251b02c1cd4a8e77f6d028b4651e6c, i64 1, ptr align 8 %_61, i64 1) #9, !dbg !1151
; call core::panicking::panic_fmt
  call void @_ZN4core9panicking9panic_fmt17h7c3b1a7d9368f16cE(ptr align 8 %_57, ptr align 8 %0) #11, !dbg !1151
  unreachable, !dbg !1151

bb8:                                              ; preds = %bb5
  %_5 = icmp ule i64 %index, 14, !dbg !1140
  br i1 %_5, label %bb6, label %bb7, !dbg !1140

bb6:                                              ; preds = %bb8
  store i64 %index, ptr %i1, align 8, !dbg !1152
  br label %bb31, !dbg !1054

bb24:                                             ; preds = %bb2
  %_27 = icmp ult i64 %_25.0, 224, !dbg !1153
  %38 = call i1 @llvm.expect.i1(i1 %_27, i1 true), !dbg !1153
  br i1 %38, label %bb25, label %panic4, !dbg !1153

panic:                                            ; preds = %bb2
; call core::panicking::panic
  call void @_ZN4core9panicking5panic17h91639042aeeb9621E(ptr align 1 @str.0, i64 33, ptr align 8 %0) #11, !dbg !1139
  unreachable, !dbg !1139

bb25:                                             ; preds = %bb24
  %39 = getelementptr inbounds %"x86_64::structures::idt::InterruptDescriptorTable", ptr %self, i32 0, i32 27, !dbg !1154
  %_23 = getelementptr inbounds [224 x %"x86_64::structures::idt::Entry<extern \22x86-interrupt\22 fn(x86_64::structures::idt::InterruptStackFrame)>"], ptr %39, i64 0, i64 %_25.0, !dbg !1154
  store ptr %_23, ptr %_3, align 8, !dbg !1154
  br label %bb44, !dbg !1155

panic4:                                           ; preds = %bb24
; call core::panicking::panic_bounds_check
  call void @_ZN4core9panicking18panic_bounds_check17ha49e1f234b8b4c14E(i64 %_25.0, i64 224, ptr align 8 %0) #11, !dbg !1153
  unreachable, !dbg !1153
}

; pc_keyboard::EventDecoder<L>::process_keyevent
; Function Attrs: noredzone nounwind
define internal i64 @"_ZN11pc_keyboard21EventDecoder$LT$L$GT$16process_keyevent17hc3ba4f0fb036aa3bE"(ptr align 1 %self, i8 %0, i8 %1) unnamed_addr #1 !dbg !1156 {
start:
  %2 = alloca i64, align 8
  %c.dbg.spill = alloca i8, align 1
  %self.dbg.spill = alloca ptr, align 8
  %_35 = alloca %"pc_keyboard::DecodedKey", align 4
  %_33 = alloca i8, align 1
  %_32 = alloca %"pc_keyboard::DecodedKey", align 4
  %_31 = alloca i8, align 1
  %_30 = alloca %"pc_keyboard::DecodedKey", align 4
  %_29 = alloca i8, align 1
  %_28 = alloca %"pc_keyboard::DecodedKey", align 4
  %_27 = alloca i8, align 1
  %_26 = alloca %"pc_keyboard::DecodedKey", align 4
  %_25 = alloca i8, align 1
  %_24 = alloca %"pc_keyboard::DecodedKey", align 4
  %_22 = alloca i8, align 1
  %_21 = alloca %"pc_keyboard::DecodedKey", align 4
  %_19 = alloca i8, align 1
  %_18 = alloca %"pc_keyboard::DecodedKey", align 4
  %_16 = alloca i8, align 1
  %_15 = alloca %"pc_keyboard::DecodedKey", align 4
  %_14 = alloca i8, align 1
  %_13 = alloca %"pc_keyboard::DecodedKey", align 4
  %_0 = alloca %"core::option::Option<pc_keyboard::DecodedKey>", align 4
  %ev = alloca { i8, i8 }, align 1
  %3 = getelementptr inbounds { i8, i8 }, ptr %ev, i32 0, i32 0
  store i8 %0, ptr %3, align 1
  %4 = getelementptr inbounds { i8, i8 }, ptr %ev, i32 0, i32 1
  store i8 %1, ptr %4, align 1
  store ptr %self, ptr %self.dbg.spill, align 8
  call void @llvm.dbg.declare(metadata ptr %self.dbg.spill, metadata !1193, metadata !DIExpression()), !dbg !1197
  call void @llvm.dbg.declare(metadata ptr %ev, metadata !1194, metadata !DIExpression()), !dbg !1198
  %5 = getelementptr inbounds { i8, i8 }, ptr %ev, i32 0, i32 1, !dbg !1199
  %_12 = load i8, ptr %5, align 1, !dbg !1199, !range !1200, !noundef !29
  switch i8 %_12, label %bb1 [
    i8 34, label %bb2
    i8 60, label %bb3
    i8 76, label %bb4
    i8 87, label %bb5
    i8 93, label %bb6
    i8 97, label %bb7
    i8 100, label %bb8
    i8 122, label %bb9
  ], !dbg !1201

bb1:                                              ; preds = %bb9, %bb8, %bb7, %bb6, %bb5, %bb4, %bb3, %bb2, %start
  %6 = load i8, ptr %ev, align 1, !dbg !1199, !range !1202, !noundef !29
  %_11 = zext i8 %6 to i64, !dbg !1199
  %7 = icmp eq i64 %_11, 1, !dbg !1201
  br i1 %7, label %bb27, label %bb10, !dbg !1201

bb2:                                              ; preds = %start
  %8 = load i8, ptr %ev, align 1, !dbg !1199, !range !1202, !noundef !29
  %_3 = zext i8 %8 to i64, !dbg !1199
  %9 = icmp eq i64 %_3, 1, !dbg !1201
  br i1 %9, label %bb16, label %bb1, !dbg !1201

bb3:                                              ; preds = %start
  %10 = load i8, ptr %ev, align 1, !dbg !1199, !range !1202, !noundef !29
  %_4 = zext i8 %10 to i64, !dbg !1199
  %11 = icmp eq i64 %_4, 1, !dbg !1201
  br i1 %11, label %bb15, label %bb1, !dbg !1201

bb4:                                              ; preds = %start
  %12 = load i8, ptr %ev, align 1, !dbg !1199, !range !1202, !noundef !29
  %_5 = zext i8 %12 to i64, !dbg !1199
  switch i64 %_5, label %bb1 [
    i64 0, label %bb13
    i64 1, label %bb11
  ], !dbg !1201

bb5:                                              ; preds = %start
  %13 = load i8, ptr %ev, align 1, !dbg !1199, !range !1202, !noundef !29
  %_6 = zext i8 %13 to i64, !dbg !1199
  switch i64 %_6, label %bb1 [
    i64 0, label %bb14
    i64 1, label %bb12
  ], !dbg !1201

bb6:                                              ; preds = %start
  %14 = load i8, ptr %ev, align 1, !dbg !1199, !range !1202, !noundef !29
  %_7 = zext i8 %14 to i64, !dbg !1199
  switch i64 %_7, label %bb1 [
    i64 0, label %bb20
    i64 1, label %bb19
  ], !dbg !1201

bb7:                                              ; preds = %start
  %15 = load i8, ptr %ev, align 1, !dbg !1199, !range !1202, !noundef !29
  %_8 = zext i8 %15 to i64, !dbg !1199
  switch i64 %_8, label %bb1 [
    i64 0, label %bb24
    i64 1, label %bb23
  ], !dbg !1201

bb8:                                              ; preds = %start
  %16 = load i8, ptr %ev, align 1, !dbg !1199, !range !1202, !noundef !29
  %_9 = zext i8 %16 to i64, !dbg !1199
  switch i64 %_9, label %bb1 [
    i64 0, label %bb22
    i64 1, label %bb21
  ], !dbg !1201

bb9:                                              ; preds = %start
  %17 = load i8, ptr %ev, align 1, !dbg !1199, !range !1202, !noundef !29
  %_10 = zext i8 %17 to i64, !dbg !1199
  switch i64 %_10, label %bb1 [
    i64 0, label %bb26
    i64 1, label %bb25
  ], !dbg !1201

bb16:                                             ; preds = %bb2
  %18 = getelementptr inbounds %"pc_keyboard::EventDecoder<pc_keyboard::layouts::us104::Us104Key>", ptr %self, i32 0, i32 1, !dbg !1203
  %19 = getelementptr inbounds %"pc_keyboard::Modifiers", ptr %18, i32 0, i32 7, !dbg !1203
  %20 = load i8, ptr %19, align 1, !dbg !1203, !range !1204, !noundef !29
  %_20 = trunc i8 %20 to i1, !dbg !1203
  br i1 %_20, label %bb17, label %bb18, !dbg !1203

bb18:                                             ; preds = %bb16
  %21 = getelementptr inbounds %"pc_keyboard::EventDecoder<pc_keyboard::layouts::us104::Us104Key>", ptr %self, i32 0, i32 1, !dbg !1205
  %22 = getelementptr inbounds %"pc_keyboard::Modifiers", ptr %21, i32 0, i32 4, !dbg !1205
  %23 = load i8, ptr %22, align 1, !dbg !1205, !range !1204, !noundef !29
  %_23 = trunc i8 %23 to i1, !dbg !1205
  %24 = getelementptr inbounds %"pc_keyboard::EventDecoder<pc_keyboard::layouts::us104::Us104Key>", ptr %self, i32 0, i32 1, !dbg !1206
  %25 = getelementptr inbounds %"pc_keyboard::Modifiers", ptr %24, i32 0, i32 4, !dbg !1206
  %26 = xor i1 %_23, true, !dbg !1206
  %27 = zext i1 %26 to i8, !dbg !1206
  store i8 %27, ptr %25, align 1, !dbg !1206
  store i8 34, ptr %_25, align 1, !dbg !1207
  %28 = load i8, ptr %_25, align 1, !dbg !1208, !range !1200, !noundef !29
  %29 = getelementptr inbounds %"pc_keyboard::DecodedKey::RawKey", ptr %_24, i32 0, i32 1, !dbg !1208
  store i8 %28, ptr %29, align 1, !dbg !1208
  store i8 0, ptr %_24, align 4, !dbg !1208
  call void @llvm.memcpy.p0.p0.i64(ptr align 4 %_0, ptr align 4 %_24, i64 8, i1 false), !dbg !1209
  br label %bb29, !dbg !1210

bb17:                                             ; preds = %bb16
  store i8 16, ptr %_22, align 1, !dbg !1211
  %30 = load i8, ptr %_22, align 1, !dbg !1212, !range !1200, !noundef !29
  %31 = getelementptr inbounds %"pc_keyboard::DecodedKey::RawKey", ptr %_21, i32 0, i32 1, !dbg !1212
  store i8 %30, ptr %31, align 1, !dbg !1212
  store i8 0, ptr %_21, align 4, !dbg !1212
  call void @llvm.memcpy.p0.p0.i64(ptr align 4 %_0, ptr align 4 %_21, i64 8, i1 false), !dbg !1213
  br label %bb29, !dbg !1210

bb29:                                             ; preds = %bb10, %bb27, %bb25, %bb26, %bb21, %bb22, %bb23, %bb24, %bb19, %bb20, %bb12, %bb14, %bb11, %bb13, %bb15, %bb17, %bb18
  %32 = load i64, ptr %_0, align 4, !dbg !1214
  ret i64 %32, !dbg !1214

bb15:                                             ; preds = %bb3
  %33 = getelementptr inbounds %"pc_keyboard::EventDecoder<pc_keyboard::layouts::us104::Us104Key>", ptr %self, i32 0, i32 1, !dbg !1215
  %34 = getelementptr inbounds %"pc_keyboard::Modifiers", ptr %33, i32 0, i32 5, !dbg !1215
  %35 = load i8, ptr %34, align 1, !dbg !1215, !range !1204, !noundef !29
  %_17 = trunc i8 %35 to i1, !dbg !1215
  %36 = getelementptr inbounds %"pc_keyboard::EventDecoder<pc_keyboard::layouts::us104::Us104Key>", ptr %self, i32 0, i32 1, !dbg !1216
  %37 = getelementptr inbounds %"pc_keyboard::Modifiers", ptr %36, i32 0, i32 5, !dbg !1216
  %38 = xor i1 %_17, true, !dbg !1216
  %39 = zext i1 %38 to i8, !dbg !1216
  store i8 %39, ptr %37, align 1, !dbg !1216
  store i8 60, ptr %_19, align 1, !dbg !1217
  %40 = load i8, ptr %_19, align 1, !dbg !1218, !range !1200, !noundef !29
  %41 = getelementptr inbounds %"pc_keyboard::DecodedKey::RawKey", ptr %_18, i32 0, i32 1, !dbg !1218
  store i8 %40, ptr %41, align 1, !dbg !1218
  store i8 0, ptr %_18, align 4, !dbg !1218
  call void @llvm.memcpy.p0.p0.i64(ptr align 4 %_0, ptr align 4 %_18, i64 8, i1 false), !dbg !1219
  br label %bb29, !dbg !1220

bb13:                                             ; preds = %bb4
  %42 = getelementptr inbounds %"pc_keyboard::EventDecoder<pc_keyboard::layouts::us104::Us104Key>", ptr %self, i32 0, i32 1, !dbg !1221
  store i8 0, ptr %42, align 1, !dbg !1221
  store i8 2, ptr %_0, align 4, !dbg !1222
  br label %bb29, !dbg !1222

bb11:                                             ; preds = %bb4
  %43 = getelementptr inbounds %"pc_keyboard::EventDecoder<pc_keyboard::layouts::us104::Us104Key>", ptr %self, i32 0, i32 1, !dbg !1223
  store i8 1, ptr %43, align 1, !dbg !1223
  store i8 76, ptr %_14, align 1, !dbg !1224
  %44 = load i8, ptr %_14, align 1, !dbg !1225, !range !1200, !noundef !29
  %45 = getelementptr inbounds %"pc_keyboard::DecodedKey::RawKey", ptr %_13, i32 0, i32 1, !dbg !1225
  store i8 %44, ptr %45, align 1, !dbg !1225
  store i8 0, ptr %_13, align 4, !dbg !1225
  call void @llvm.memcpy.p0.p0.i64(ptr align 4 %_0, ptr align 4 %_13, i64 8, i1 false), !dbg !1226
  br label %bb29, !dbg !1227

bb14:                                             ; preds = %bb5
  %46 = getelementptr inbounds %"pc_keyboard::EventDecoder<pc_keyboard::layouts::us104::Us104Key>", ptr %self, i32 0, i32 1, !dbg !1228
  %47 = getelementptr inbounds %"pc_keyboard::Modifiers", ptr %46, i32 0, i32 1, !dbg !1228
  store i8 0, ptr %47, align 1, !dbg !1228
  store i8 2, ptr %_0, align 4, !dbg !1229
  br label %bb29, !dbg !1229

bb12:                                             ; preds = %bb5
  %48 = getelementptr inbounds %"pc_keyboard::EventDecoder<pc_keyboard::layouts::us104::Us104Key>", ptr %self, i32 0, i32 1, !dbg !1230
  %49 = getelementptr inbounds %"pc_keyboard::Modifiers", ptr %48, i32 0, i32 1, !dbg !1230
  store i8 1, ptr %49, align 1, !dbg !1230
  store i8 87, ptr %_16, align 1, !dbg !1231
  %50 = load i8, ptr %_16, align 1, !dbg !1232, !range !1200, !noundef !29
  %51 = getelementptr inbounds %"pc_keyboard::DecodedKey::RawKey", ptr %_15, i32 0, i32 1, !dbg !1232
  store i8 %50, ptr %51, align 1, !dbg !1232
  store i8 0, ptr %_15, align 4, !dbg !1232
  call void @llvm.memcpy.p0.p0.i64(ptr align 4 %_0, ptr align 4 %_15, i64 8, i1 false), !dbg !1233
  br label %bb29, !dbg !1234

bb20:                                             ; preds = %bb6
  %52 = getelementptr inbounds %"pc_keyboard::EventDecoder<pc_keyboard::layouts::us104::Us104Key>", ptr %self, i32 0, i32 1, !dbg !1235
  %53 = getelementptr inbounds %"pc_keyboard::Modifiers", ptr %52, i32 0, i32 2, !dbg !1235
  store i8 0, ptr %53, align 1, !dbg !1235
  store i8 2, ptr %_0, align 4, !dbg !1236
  br label %bb29, !dbg !1236

bb19:                                             ; preds = %bb6
  %54 = getelementptr inbounds %"pc_keyboard::EventDecoder<pc_keyboard::layouts::us104::Us104Key>", ptr %self, i32 0, i32 1, !dbg !1237
  %55 = getelementptr inbounds %"pc_keyboard::Modifiers", ptr %54, i32 0, i32 2, !dbg !1237
  store i8 1, ptr %55, align 1, !dbg !1237
  store i8 93, ptr %_27, align 1, !dbg !1238
  %56 = load i8, ptr %_27, align 1, !dbg !1239, !range !1200, !noundef !29
  %57 = getelementptr inbounds %"pc_keyboard::DecodedKey::RawKey", ptr %_26, i32 0, i32 1, !dbg !1239
  store i8 %56, ptr %57, align 1, !dbg !1239
  store i8 0, ptr %_26, align 4, !dbg !1239
  call void @llvm.memcpy.p0.p0.i64(ptr align 4 %_0, ptr align 4 %_26, i64 8, i1 false), !dbg !1240
  br label %bb29, !dbg !1241

bb24:                                             ; preds = %bb7
  %58 = getelementptr inbounds %"pc_keyboard::EventDecoder<pc_keyboard::layouts::us104::Us104Key>", ptr %self, i32 0, i32 1, !dbg !1242
  %59 = getelementptr inbounds %"pc_keyboard::Modifiers", ptr %58, i32 0, i32 6, !dbg !1242
  store i8 0, ptr %59, align 1, !dbg !1242
  store i8 2, ptr %_0, align 4, !dbg !1243
  br label %bb29, !dbg !1243

bb23:                                             ; preds = %bb7
  %60 = getelementptr inbounds %"pc_keyboard::EventDecoder<pc_keyboard::layouts::us104::Us104Key>", ptr %self, i32 0, i32 1, !dbg !1244
  %61 = getelementptr inbounds %"pc_keyboard::Modifiers", ptr %60, i32 0, i32 6, !dbg !1244
  store i8 1, ptr %61, align 1, !dbg !1244
  store i8 97, ptr %_31, align 1, !dbg !1245
  %62 = load i8, ptr %_31, align 1, !dbg !1246, !range !1200, !noundef !29
  %63 = getelementptr inbounds %"pc_keyboard::DecodedKey::RawKey", ptr %_30, i32 0, i32 1, !dbg !1246
  store i8 %62, ptr %63, align 1, !dbg !1246
  store i8 0, ptr %_30, align 4, !dbg !1246
  call void @llvm.memcpy.p0.p0.i64(ptr align 4 %_0, ptr align 4 %_30, i64 8, i1 false), !dbg !1247
  br label %bb29, !dbg !1248

bb22:                                             ; preds = %bb8
  %64 = getelementptr inbounds %"pc_keyboard::EventDecoder<pc_keyboard::layouts::us104::Us104Key>", ptr %self, i32 0, i32 1, !dbg !1249
  %65 = getelementptr inbounds %"pc_keyboard::Modifiers", ptr %64, i32 0, i32 3, !dbg !1249
  store i8 0, ptr %65, align 1, !dbg !1249
  store i8 2, ptr %_0, align 4, !dbg !1250
  br label %bb29, !dbg !1250

bb21:                                             ; preds = %bb8
  %66 = getelementptr inbounds %"pc_keyboard::EventDecoder<pc_keyboard::layouts::us104::Us104Key>", ptr %self, i32 0, i32 1, !dbg !1251
  %67 = getelementptr inbounds %"pc_keyboard::Modifiers", ptr %66, i32 0, i32 3, !dbg !1251
  store i8 1, ptr %67, align 1, !dbg !1251
  store i8 100, ptr %_29, align 1, !dbg !1252
  %68 = load i8, ptr %_29, align 1, !dbg !1253, !range !1200, !noundef !29
  %69 = getelementptr inbounds %"pc_keyboard::DecodedKey::RawKey", ptr %_28, i32 0, i32 1, !dbg !1253
  store i8 %68, ptr %69, align 1, !dbg !1253
  store i8 0, ptr %_28, align 4, !dbg !1253
  call void @llvm.memcpy.p0.p0.i64(ptr align 4 %_0, ptr align 4 %_28, i64 8, i1 false), !dbg !1254
  br label %bb29, !dbg !1255

bb26:                                             ; preds = %bb9
  %70 = getelementptr inbounds %"pc_keyboard::EventDecoder<pc_keyboard::layouts::us104::Us104Key>", ptr %self, i32 0, i32 1, !dbg !1256
  %71 = getelementptr inbounds %"pc_keyboard::Modifiers", ptr %70, i32 0, i32 7, !dbg !1256
  store i8 0, ptr %71, align 1, !dbg !1256
  store i8 2, ptr %_0, align 4, !dbg !1257
  br label %bb29, !dbg !1257

bb25:                                             ; preds = %bb9
  %72 = getelementptr inbounds %"pc_keyboard::EventDecoder<pc_keyboard::layouts::us104::Us104Key>", ptr %self, i32 0, i32 1, !dbg !1258
  %73 = getelementptr inbounds %"pc_keyboard::Modifiers", ptr %72, i32 0, i32 7, !dbg !1258
  store i8 1, ptr %73, align 1, !dbg !1258
  store i8 122, ptr %_33, align 1, !dbg !1259
  %74 = load i8, ptr %_33, align 1, !dbg !1260, !range !1200, !noundef !29
  %75 = getelementptr inbounds %"pc_keyboard::DecodedKey::RawKey", ptr %_32, i32 0, i32 1, !dbg !1260
  store i8 %74, ptr %75, align 1, !dbg !1260
  store i8 0, ptr %_32, align 4, !dbg !1260
  call void @llvm.memcpy.p0.p0.i64(ptr align 4 %_0, ptr align 4 %_32, i64 8, i1 false), !dbg !1261
  br label %bb29, !dbg !1262

bb27:                                             ; preds = %bb1
  %76 = getelementptr inbounds { i8, i8 }, ptr %ev, i32 0, i32 1, !dbg !1263
  %c = load i8, ptr %76, align 1, !dbg !1263, !range !1200, !noundef !29
  store i8 %c, ptr %c.dbg.spill, align 1, !dbg !1263
  call void @llvm.dbg.declare(metadata ptr %c.dbg.spill, metadata !1195, metadata !DIExpression()), !dbg !1264
  %_36 = getelementptr inbounds %"pc_keyboard::EventDecoder<pc_keyboard::layouts::us104::Us104Key>", ptr %self, i32 0, i32 2, !dbg !1265
  %_37 = getelementptr inbounds %"pc_keyboard::EventDecoder<pc_keyboard::layouts::us104::Us104Key>", ptr %self, i32 0, i32 1, !dbg !1266
  %77 = load i8, ptr %self, align 1, !dbg !1267, !range !1204, !noundef !29
  %_38 = trunc i8 %77 to i1, !dbg !1267
; call <pc_keyboard::layouts::us104::Us104Key as pc_keyboard::KeyboardLayout>::map_keycode
  %78 = call i64 @"_ZN85_$LT$pc_keyboard..layouts..us104..Us104Key$u20$as$u20$pc_keyboard..KeyboardLayout$GT$11map_keycode17hb41a3174a009a997E"(ptr align 1 %_36, i8 %c, ptr align 1 %_37, i1 zeroext %_38) #9, !dbg !1265
  store i64 %78, ptr %2, align 8, !dbg !1265
  call void @llvm.memcpy.p0.p0.i64(ptr align 4 %_35, ptr align 8 %2, i64 8, i1 false), !dbg !1265
  call void @llvm.memcpy.p0.p0.i64(ptr align 4 %_0, ptr align 4 %_35, i64 8, i1 false), !dbg !1268
  br label %bb29, !dbg !1269

bb10:                                             ; preds = %bb1
  store i8 2, ptr %_0, align 4, !dbg !1270
  br label %bb29, !dbg !1270
}

; pc_keyboard::EventDecoder<L>::new
; Function Attrs: noredzone nounwind
define internal void @"_ZN11pc_keyboard21EventDecoder$LT$L$GT$3new17h0418017593657f40E"(ptr sret(%"pc_keyboard::EventDecoder<pc_keyboard::layouts::us104::Us104Key>") align 1 %_0, i1 zeroext %handle_ctrl) unnamed_addr #1 !dbg !1271 {
start:
  %handle_ctrl.dbg.spill = alloca i8, align 1
  %layout.dbg.spill = alloca %"pc_keyboard::layouts::us104::Us104Key", align 1
  %_3 = alloca %"pc_keyboard::Modifiers", align 1
  call void @llvm.dbg.declare(metadata ptr %layout.dbg.spill, metadata !1276, metadata !DIExpression()), !dbg !1278
  %0 = zext i1 %handle_ctrl to i8
  store i8 %0, ptr %handle_ctrl.dbg.spill, align 1
  call void @llvm.dbg.declare(metadata ptr %handle_ctrl.dbg.spill, metadata !1277, metadata !DIExpression()), !dbg !1279
  store i8 0, ptr %_3, align 1, !dbg !1280
  %1 = getelementptr inbounds %"pc_keyboard::Modifiers", ptr %_3, i32 0, i32 1, !dbg !1280
  store i8 0, ptr %1, align 1, !dbg !1280
  %2 = getelementptr inbounds %"pc_keyboard::Modifiers", ptr %_3, i32 0, i32 2, !dbg !1280
  store i8 0, ptr %2, align 1, !dbg !1280
  %3 = getelementptr inbounds %"pc_keyboard::Modifiers", ptr %_3, i32 0, i32 3, !dbg !1280
  store i8 0, ptr %3, align 1, !dbg !1280
  %4 = getelementptr inbounds %"pc_keyboard::Modifiers", ptr %_3, i32 0, i32 4, !dbg !1280
  store i8 1, ptr %4, align 1, !dbg !1280
  %5 = getelementptr inbounds %"pc_keyboard::Modifiers", ptr %_3, i32 0, i32 5, !dbg !1280
  store i8 0, ptr %5, align 1, !dbg !1280
  %6 = getelementptr inbounds %"pc_keyboard::Modifiers", ptr %_3, i32 0, i32 6, !dbg !1280
  store i8 0, ptr %6, align 1, !dbg !1280
  %7 = getelementptr inbounds %"pc_keyboard::Modifiers", ptr %_3, i32 0, i32 7, !dbg !1280
  store i8 0, ptr %7, align 1, !dbg !1280
  %8 = zext i1 %handle_ctrl to i8, !dbg !1281
  store i8 %8, ptr %_0, align 1, !dbg !1281
  %9 = getelementptr inbounds %"pc_keyboard::EventDecoder<pc_keyboard::layouts::us104::Us104Key>", ptr %_0, i32 0, i32 1, !dbg !1281
  call void @llvm.memcpy.p0.p0.i64(ptr align 1 %9, ptr align 1 %_3, i64 8, i1 false), !dbg !1281
  ret void, !dbg !1282
}

; pc_keyboard::Keyboard<L,S>::process_keyevent
; Function Attrs: noredzone nounwind
define internal i64 @"_ZN11pc_keyboard21Keyboard$LT$L$C$S$GT$16process_keyevent17he8ef0f8a8daf12f6E"(ptr align 2 %self, i8 %ev.0, i8 %ev.1) unnamed_addr #1 !dbg !1283 {
start:
  %0 = alloca i64, align 8
  %ev.dbg.spill = alloca { i8, i8 }, align 1
  %self.dbg.spill = alloca ptr, align 8
  %_0 = alloca %"core::option::Option<pc_keyboard::DecodedKey>", align 4
  store ptr %self, ptr %self.dbg.spill, align 8
  call void @llvm.dbg.declare(metadata ptr %self.dbg.spill, metadata !1289, metadata !DIExpression()), !dbg !1291
  %1 = getelementptr inbounds { i8, i8 }, ptr %ev.dbg.spill, i32 0, i32 0
  store i8 %ev.0, ptr %1, align 1
  %2 = getelementptr inbounds { i8, i8 }, ptr %ev.dbg.spill, i32 0, i32 1
  store i8 %ev.1, ptr %2, align 1
  call void @llvm.dbg.declare(metadata ptr %ev.dbg.spill, metadata !1290, metadata !DIExpression()), !dbg !1292
  %_3 = getelementptr inbounds %"pc_keyboard::Keyboard<pc_keyboard::layouts::us104::Us104Key, pc_keyboard::scancodes::set1::ScancodeSet1>", ptr %self, i32 0, i32 1, !dbg !1293
; call pc_keyboard::EventDecoder<L>::process_keyevent
  %3 = call i64 @"_ZN11pc_keyboard21EventDecoder$LT$L$GT$16process_keyevent17hc3ba4f0fb036aa3bE"(ptr align 1 %_3, i8 %ev.0, i8 %ev.1) #9, !dbg !1293
  store i64 %3, ptr %0, align 8, !dbg !1293
  call void @llvm.memcpy.p0.p0.i64(ptr align 4 %_0, ptr align 8 %0, i64 8, i1 false), !dbg !1293
  %4 = load i64, ptr %_0, align 4, !dbg !1294
  ret i64 %4, !dbg !1294
}

; pc_keyboard::Keyboard<L,S>::new
; Function Attrs: noredzone nounwind
define internal void @"_ZN11pc_keyboard21Keyboard$LT$L$C$S$GT$3new17hb9dbfc8adac0fc82E"(ptr sret(%"pc_keyboard::Keyboard<pc_keyboard::layouts::us104::Us104Key, pc_keyboard::scancodes::set1::ScancodeSet1>") align 2 %_0, i8 %scancode_set, i1 zeroext %handle_ctrl) unnamed_addr #1 !dbg !1295 {
start:
  %handle_ctrl.dbg.spill = alloca i8, align 1
  %layout.dbg.spill = alloca %"pc_keyboard::layouts::us104::Us104Key", align 1
  %scancode_set.dbg.spill = alloca i8, align 1
  %_5 = alloca %"pc_keyboard::EventDecoder<pc_keyboard::layouts::us104::Us104Key>", align 1
  store i8 %scancode_set, ptr %scancode_set.dbg.spill, align 1
  call void @llvm.dbg.declare(metadata ptr %scancode_set.dbg.spill, metadata !1300, metadata !DIExpression()), !dbg !1303
  call void @llvm.dbg.declare(metadata ptr %layout.dbg.spill, metadata !1301, metadata !DIExpression()), !dbg !1304
  %0 = zext i1 %handle_ctrl to i8
  store i8 %0, ptr %handle_ctrl.dbg.spill, align 1
  call void @llvm.dbg.declare(metadata ptr %handle_ctrl.dbg.spill, metadata !1302, metadata !DIExpression()), !dbg !1305
; call pc_keyboard::Ps2Decoder::new
  %1 = call { i16, i8 } @_ZN11pc_keyboard10Ps2Decoder3new17h5e087a3538d0c77bE() #9, !dbg !1306
  %_4.0 = extractvalue { i16, i8 } %1, 0, !dbg !1306
  %_4.1 = extractvalue { i16, i8 } %1, 1, !dbg !1306
; call pc_keyboard::EventDecoder<L>::new
  call void @"_ZN11pc_keyboard21EventDecoder$LT$L$GT$3new17h0418017593657f40E"(ptr sret(%"pc_keyboard::EventDecoder<pc_keyboard::layouts::us104::Us104Key>") align 1 %_5, i1 zeroext %handle_ctrl) #9, !dbg !1307
  %2 = getelementptr inbounds { i16, i8 }, ptr %_0, i32 0, i32 0, !dbg !1308
  store i16 %_4.0, ptr %2, align 2, !dbg !1308
  %3 = getelementptr inbounds { i16, i8 }, ptr %_0, i32 0, i32 1, !dbg !1308
  store i8 %_4.1, ptr %3, align 2, !dbg !1308
  %4 = getelementptr inbounds %"pc_keyboard::Keyboard<pc_keyboard::layouts::us104::Us104Key, pc_keyboard::scancodes::set1::ScancodeSet1>", ptr %_0, i32 0, i32 2, !dbg !1308
  store i8 %scancode_set, ptr %4, align 1, !dbg !1308
  %5 = getelementptr inbounds %"pc_keyboard::Keyboard<pc_keyboard::layouts::us104::Us104Key, pc_keyboard::scancodes::set1::ScancodeSet1>", ptr %_0, i32 0, i32 1, !dbg !1308
  call void @llvm.memcpy.p0.p0.i64(ptr align 2 %5, ptr align 1 %_5, i64 9, i1 false), !dbg !1308
  ret void, !dbg !1309
}

; pc_keyboard::Keyboard<L,S>::add_byte
; Function Attrs: noredzone nounwind
define internal i16 @"_ZN11pc_keyboard21Keyboard$LT$L$C$S$GT$8add_byte17h2d6d49d54b1d61ceE"(ptr align 2 %self, i8 %byte) unnamed_addr #1 !dbg !1310 {
start:
  %0 = alloca i16, align 2
  %byte.dbg.spill = alloca i8, align 1
  %self.dbg.spill = alloca ptr, align 8
  %_0 = alloca %"core::result::Result<core::option::Option<pc_keyboard::KeyEvent>, pc_keyboard::Error>", align 1
  store ptr %self, ptr %self.dbg.spill, align 8
  call void @llvm.dbg.declare(metadata ptr %self.dbg.spill, metadata !1344, metadata !DIExpression()), !dbg !1346
  store i8 %byte, ptr %byte.dbg.spill, align 1
  call void @llvm.dbg.declare(metadata ptr %byte.dbg.spill, metadata !1345, metadata !DIExpression()), !dbg !1347
  %_3 = getelementptr inbounds %"pc_keyboard::Keyboard<pc_keyboard::layouts::us104::Us104Key, pc_keyboard::scancodes::set1::ScancodeSet1>", ptr %self, i32 0, i32 2, !dbg !1348
; call <pc_keyboard::scancodes::set1::ScancodeSet1 as pc_keyboard::ScancodeSet>::advance_state
  %1 = call i16 @"_ZN87_$LT$pc_keyboard..scancodes..set1..ScancodeSet1$u20$as$u20$pc_keyboard..ScancodeSet$GT$13advance_state17hea1f7af1116a6120E"(ptr align 1 %_3, i8 %byte) #9, !dbg !1348
  store i16 %1, ptr %0, align 2, !dbg !1348
  call void @llvm.memcpy.p0.p0.i64(ptr align 1 %_0, ptr align 2 %0, i64 2, i1 false), !dbg !1348
  %2 = load i16, ptr %_0, align 1, !dbg !1349
  ret i16 %2, !dbg !1349
}

; bootloader_api::info::<impl core::convert::From<bootloader_api::info::Optional<T>> for core::option::Option<T>>::from
; Function Attrs: noredzone nounwind
define internal { i64, i64 } @"_ZN14bootloader_api4info126_$LT$impl$u20$core..convert..From$LT$bootloader_api..info..Optional$LT$T$GT$$GT$$u20$for$u20$core..option..Option$LT$T$GT$$GT$4from17h096f5682eab24bbaE"(i32 %0, i64 %1) unnamed_addr #1 !dbg !1350 {
start:
  %v.dbg.spill = alloca i64, align 8
  %_0 = alloca { i64, i64 }, align 8
  %optional = alloca { i32, i64 }, align 8
  %2 = getelementptr inbounds { i32, i64 }, ptr %optional, i32 0, i32 0
  store i32 %0, ptr %2, align 8
  %3 = getelementptr inbounds { i32, i64 }, ptr %optional, i32 0, i32 1
  store i64 %1, ptr %3, align 8
  call void @llvm.dbg.declare(metadata ptr %optional, metadata !1368, metadata !DIExpression()), !dbg !1371
  %4 = load i32, ptr %optional, align 8, !dbg !1372, !range !1373, !noundef !29
  %_2 = zext i32 %4 to i64, !dbg !1372
  %5 = icmp eq i64 %_2, 0, !dbg !1374
  br i1 %5, label %bb3, label %bb1, !dbg !1374

bb3:                                              ; preds = %start
  %6 = getelementptr inbounds { i32, i64 }, ptr %optional, i32 0, i32 1, !dbg !1375
  %v = load i64, ptr %6, align 8, !dbg !1375, !noundef !29
  store i64 %v, ptr %v.dbg.spill, align 8, !dbg !1375
  call void @llvm.dbg.declare(metadata ptr %v.dbg.spill, metadata !1369, metadata !DIExpression()), !dbg !1376
  %7 = getelementptr inbounds { i64, i64 }, ptr %_0, i32 0, i32 1, !dbg !1377
  store i64 %v, ptr %7, align 8, !dbg !1377
  store i64 1, ptr %_0, align 8, !dbg !1377
  br label %bb4, !dbg !1378

bb1:                                              ; preds = %start
  store i64 0, ptr %_0, align 8, !dbg !1379
  br label %bb4, !dbg !1379

bb4:                                              ; preds = %bb1, %bb3
  %8 = getelementptr inbounds { i64, i64 }, ptr %_0, i32 0, i32 0, !dbg !1380
  %9 = load i64, ptr %8, align 8, !dbg !1380, !range !1381, !noundef !29
  %10 = getelementptr inbounds { i64, i64 }, ptr %_0, i32 0, i32 1, !dbg !1380
  %11 = load i64, ptr %10, align 8, !dbg !1380
  %12 = insertvalue { i64, i64 } poison, i64 %9, 0, !dbg !1380
  %13 = insertvalue { i64, i64 } %12, i64 %11, 1, !dbg !1380
  ret { i64, i64 } %13, !dbg !1380

bb2:                                              ; No predecessors!
  unreachable, !dbg !1372
}

; bootloader_api::info::Optional<T>::into_option
; Function Attrs: noredzone nounwind
define internal { i64, i64 } @"_ZN14bootloader_api4info17Optional$LT$T$GT$11into_option17h95da4ede8c201e25E"(i32 %self.0, i64 %self.1) unnamed_addr #1 !dbg !1382 {
start:
  %self.dbg.spill = alloca { i32, i64 }, align 8
  %0 = getelementptr inbounds { i32, i64 }, ptr %self.dbg.spill, i32 0, i32 0
  store i32 %self.0, ptr %0, align 8
  %1 = getelementptr inbounds { i32, i64 }, ptr %self.dbg.spill, i32 0, i32 1
  store i64 %self.1, ptr %1, align 8
  call void @llvm.dbg.declare(metadata ptr %self.dbg.spill, metadata !1385, metadata !DIExpression()), !dbg !1386
; call <T as core::convert::Into<U>>::into
  %2 = call { i64, i64 } @"_ZN50_$LT$T$u20$as$u20$core..convert..Into$LT$U$GT$$GT$4into17hb642c34ffd8c001aE"(i32 %self.0, i64 %self.1) #9, !dbg !1387
  %_0.0 = extractvalue { i64, i64 } %2, 0, !dbg !1387
  %_0.1 = extractvalue { i64, i64 } %2, 1, !dbg !1387
  %3 = insertvalue { i64, i64 } poison, i64 %_0.0, 0, !dbg !1388
  %4 = insertvalue { i64, i64 } %3, i64 %_0.1, 1, !dbg !1388
  ret { i64, i64 } %4, !dbg !1388
}

; cpu_interrupts::without_interrupts
; Function Attrs: noredzone nounwind
define internal void @_ZN14cpu_interrupts18without_interrupts17h4ffc38bcd03c9fffE(ptr align 8 %f) unnamed_addr #1 !dbg !1389 {
start:
  %f.dbg.spill = alloca ptr, align 8
  store ptr %f, ptr %f.dbg.spill, align 8
  call void @llvm.dbg.declare(metadata ptr %f.dbg.spill, metadata !1398, metadata !DIExpression()), !dbg !1402
; call x86_64::instructions::interrupts::without_interrupts
  call void @_ZN6x86_6412instructions10interrupts18without_interrupts17h15aed49e8045b0c3E(ptr align 8 %f) #9, !dbg !1403
  ret void, !dbg !1404
}

; <bool as core::fmt::Debug>::fmt
; Function Attrs: inlinehint noredzone nounwind
define internal zeroext i1 @"_ZN41_$LT$bool$u20$as$u20$core..fmt..Debug$GT$3fmt17h136972fc7c372488E"(ptr align 1 %self, ptr align 8 %f) unnamed_addr #0 !dbg !1405 {
start:
  %f.dbg.spill = alloca ptr, align 8
  %self.dbg.spill = alloca ptr, align 8
  store ptr %self, ptr %self.dbg.spill, align 8
  call void @llvm.dbg.declare(metadata ptr %self.dbg.spill, metadata !1411, metadata !DIExpression()), !dbg !1413
  store ptr %f, ptr %f.dbg.spill, align 8
  call void @llvm.dbg.declare(metadata ptr %f.dbg.spill, metadata !1412, metadata !DIExpression()), !dbg !1414
; call <bool as core::fmt::Display>::fmt
  %_0 = call zeroext i1 @"_ZN43_$LT$bool$u20$as$u20$core..fmt..Display$GT$3fmt17h21f7f70325052013E"(ptr align 1 %self, ptr align 8 %f) #9, !dbg !1415
  ret i1 %_0, !dbg !1416
}

; <&T as core::fmt::Debug>::fmt
; Function Attrs: noredzone nounwind
define internal zeroext i1 @"_ZN42_$LT$$RF$T$u20$as$u20$core..fmt..Debug$GT$3fmt17h2a5db5167689f2e9E"(ptr align 8 %self, ptr align 8 %f) unnamed_addr #1 !dbg !1417 {
start:
  %f.dbg.spill = alloca ptr, align 8
  %self.dbg.spill = alloca ptr, align 8
  store ptr %self, ptr %self.dbg.spill, align 8
  call void @llvm.dbg.declare(metadata ptr %self.dbg.spill, metadata !1423, metadata !DIExpression()), !dbg !1427
  store ptr %f, ptr %f.dbg.spill, align 8
  call void @llvm.dbg.declare(metadata ptr %f.dbg.spill, metadata !1424, metadata !DIExpression()), !dbg !1428
  %_3 = load ptr, ptr %self, align 8, !dbg !1429, !nonnull !29, !align !1430, !noundef !29
; call <core::panic::location::Location as core::fmt::Debug>::fmt
  %_0 = call zeroext i1 @"_ZN68_$LT$core..panic..location..Location$u20$as$u20$core..fmt..Debug$GT$3fmt17h252979cfa5785d00E"(ptr align 8 %_3, ptr align 8 %f) #9, !dbg !1431
  ret i1 %_0, !dbg !1432
}

; <&T as core::fmt::Debug>::fmt
; Function Attrs: noredzone nounwind
define internal zeroext i1 @"_ZN42_$LT$$RF$T$u20$as$u20$core..fmt..Debug$GT$3fmt17h648d1914c3c98f94E"(ptr align 8 %self, ptr align 8 %f) unnamed_addr #1 !dbg !1433 {
start:
  %f.dbg.spill = alloca ptr, align 8
  %self.dbg.spill = alloca ptr, align 8
  store ptr %self, ptr %self.dbg.spill, align 8
  call void @llvm.dbg.declare(metadata ptr %self.dbg.spill, metadata !1437, metadata !DIExpression()), !dbg !1441
  store ptr %f, ptr %f.dbg.spill, align 8
  call void @llvm.dbg.declare(metadata ptr %f.dbg.spill, metadata !1438, metadata !DIExpression()), !dbg !1442
  %_3 = load ptr, ptr %self, align 8, !dbg !1443, !nonnull !29, !align !1430, !noundef !29
; call <core::fmt::Arguments as core::fmt::Debug>::fmt
  %_0 = call zeroext i1 @"_ZN57_$LT$core..fmt..Arguments$u20$as$u20$core..fmt..Debug$GT$3fmt17h7b471c336c5283ebE"(ptr align 8 %_3, ptr align 8 %f) #9, !dbg !1444
  ret i1 %_0, !dbg !1445
}

; <&T as core::fmt::Debug>::fmt
; Function Attrs: noredzone nounwind
define internal zeroext i1 @"_ZN42_$LT$$RF$T$u20$as$u20$core..fmt..Debug$GT$3fmt17h6978bcb26f4dbcb3E"(ptr align 8 %self, ptr align 8 %f) unnamed_addr #1 !dbg !1446 {
start:
  %f.dbg.spill = alloca ptr, align 8
  %self.dbg.spill = alloca ptr, align 8
  store ptr %self, ptr %self.dbg.spill, align 8
  call void @llvm.dbg.declare(metadata ptr %self.dbg.spill, metadata !1460, metadata !DIExpression()), !dbg !1464
  store ptr %f, ptr %f.dbg.spill, align 8
  call void @llvm.dbg.declare(metadata ptr %f.dbg.spill, metadata !1461, metadata !DIExpression()), !dbg !1465
  %_3 = load ptr, ptr %self, align 8, !dbg !1466, !nonnull !29, !align !1430, !noundef !29
; call <core::panic::panic_info::PanicInfo as core::fmt::Debug>::fmt
  %_0 = call zeroext i1 @"_ZN71_$LT$core..panic..panic_info..PanicInfo$u20$as$u20$core..fmt..Debug$GT$3fmt17haa7a7cef6f283182E"(ptr align 8 %_3, ptr align 8 %f) #9, !dbg !1467
  ret i1 %_0, !dbg !1468
}

; <&T as core::fmt::Debug>::fmt
; Function Attrs: noredzone nounwind
define internal zeroext i1 @"_ZN42_$LT$$RF$T$u20$as$u20$core..fmt..Debug$GT$3fmt17h8c4655f75b9af87eE"(ptr align 8 %self, ptr align 8 %f) unnamed_addr #1 !dbg !1469 {
start:
  %f.dbg.spill = alloca ptr, align 8
  %self.dbg.spill = alloca ptr, align 8
  store ptr %self, ptr %self.dbg.spill, align 8
  call void @llvm.dbg.declare(metadata ptr %self.dbg.spill, metadata !1474, metadata !DIExpression()), !dbg !1478
  store ptr %f, ptr %f.dbg.spill, align 8
  call void @llvm.dbg.declare(metadata ptr %f.dbg.spill, metadata !1475, metadata !DIExpression()), !dbg !1479
  %_3 = load ptr, ptr %self, align 8, !dbg !1480, !nonnull !29, !align !1115, !noundef !29
; call <bool as core::fmt::Debug>::fmt
  %_0 = call zeroext i1 @"_ZN41_$LT$bool$u20$as$u20$core..fmt..Debug$GT$3fmt17h136972fc7c372488E"(ptr align 1 %_3, ptr align 8 %f) #9, !dbg !1481
  ret i1 %_0, !dbg !1482
}

; <&T as core::fmt::Debug>::fmt
; Function Attrs: noredzone nounwind
define internal zeroext i1 @"_ZN42_$LT$$RF$T$u20$as$u20$core..fmt..Debug$GT$3fmt17h9bc2514e87b5ab3cE"(ptr align 8 %self, ptr align 8 %f) unnamed_addr #1 !dbg !1483 {
start:
  %f.dbg.spill = alloca ptr, align 8
  %self.dbg.spill = alloca ptr, align 8
  store ptr %self, ptr %self.dbg.spill, align 8
  call void @llvm.dbg.declare(metadata ptr %self.dbg.spill, metadata !1488, metadata !DIExpression()), !dbg !1490
  store ptr %f, ptr %f.dbg.spill, align 8
  call void @llvm.dbg.declare(metadata ptr %f.dbg.spill, metadata !1489, metadata !DIExpression()), !dbg !1491
  %0 = getelementptr inbounds { ptr, i64 }, ptr %self, i32 0, i32 0, !dbg !1492
  %_3.0 = load ptr, ptr %0, align 8, !dbg !1492, !nonnull !29, !align !1115, !noundef !29
  %1 = getelementptr inbounds { ptr, i64 }, ptr %self, i32 0, i32 1, !dbg !1492
  %_3.1 = load i64, ptr %1, align 8, !dbg !1492, !noundef !29
; call <str as core::fmt::Debug>::fmt
  %_0 = call zeroext i1 @"_ZN40_$LT$str$u20$as$u20$core..fmt..Debug$GT$3fmt17h1f419b1434c473b7E"(ptr align 1 %_3.0, i64 %_3.1, ptr align 8 %f) #9, !dbg !1493
  ret i1 %_0, !dbg !1494
}

; <&T as core::fmt::Debug>::fmt
; Function Attrs: noredzone nounwind
define internal zeroext i1 @"_ZN42_$LT$$RF$T$u20$as$u20$core..fmt..Debug$GT$3fmt17hd4e7a63a2e789fb9E"(ptr align 8 %self, ptr align 8 %f) unnamed_addr #1 !dbg !1495 {
start:
  %f.dbg.spill = alloca ptr, align 8
  %self.dbg.spill = alloca ptr, align 8
  store ptr %self, ptr %self.dbg.spill, align 8
  call void @llvm.dbg.declare(metadata ptr %self.dbg.spill, metadata !1500, metadata !DIExpression()), !dbg !1504
  store ptr %f, ptr %f.dbg.spill, align 8
  call void @llvm.dbg.declare(metadata ptr %f.dbg.spill, metadata !1501, metadata !DIExpression()), !dbg !1505
  %0 = getelementptr inbounds { ptr, ptr }, ptr %self, i32 0, i32 0, !dbg !1506
  %_3.0 = load ptr, ptr %0, align 8, !dbg !1506, !nonnull !29, !align !1115, !noundef !29
  %1 = getelementptr inbounds { ptr, ptr }, ptr %self, i32 0, i32 1, !dbg !1506
  %_3.1 = load ptr, ptr %1, align 8, !dbg !1506, !nonnull !29, !align !1430, !noundef !29
; call <dyn core::any::Any+core::marker::Send as core::fmt::Debug>::fmt
  %_0 = call zeroext i1 @"_ZN82_$LT$dyn$u20$core..any..Any$u2b$core..marker..Send$u20$as$u20$core..fmt..Debug$GT$3fmt17hb947b2cb9b315b33E"(ptr align 1 %_3.0, ptr align 8 %_3.1, ptr align 8 %f) #9, !dbg !1507
  ret i1 %_0, !dbg !1508
}

; <&T as core::fmt::Debug>::fmt
; Function Attrs: noredzone nounwind
define internal zeroext i1 @"_ZN42_$LT$$RF$T$u20$as$u20$core..fmt..Debug$GT$3fmt17he522cb3cb2904bb7E"(ptr align 8 %self, ptr align 8 %f) unnamed_addr #1 !dbg !1509 {
start:
  %f.dbg.spill = alloca ptr, align 8
  %self.dbg.spill = alloca ptr, align 8
  store ptr %self, ptr %self.dbg.spill, align 8
  call void @llvm.dbg.declare(metadata ptr %self.dbg.spill, metadata !1514, metadata !DIExpression()), !dbg !1516
  store ptr %f, ptr %f.dbg.spill, align 8
  call void @llvm.dbg.declare(metadata ptr %f.dbg.spill, metadata !1515, metadata !DIExpression()), !dbg !1517
  %_3 = load ptr, ptr %self, align 8, !dbg !1518, !nonnull !29, !align !1430, !noundef !29
; call <&T as core::fmt::Debug>::fmt
  %_0 = call zeroext i1 @"_ZN42_$LT$$RF$T$u20$as$u20$core..fmt..Debug$GT$3fmt17h648d1914c3c98f94E"(ptr align 8 %_3, ptr align 8 %f) #9, !dbg !1519
  ret i1 %_0, !dbg !1520
}

; <u16 as bit_field::BitField>::set_bit
; Function Attrs: inlinehint noredzone nounwind
define internal align 2 ptr @"_ZN43_$LT$u16$u20$as$u20$bit_field..BitField$GT$7set_bit17h58b09ab82392f82bE"(ptr align 2 %self, i64 %bit, i1 zeroext %value) unnamed_addr #0 !dbg !1521 {
start:
  %value.dbg.spill = alloca i8, align 1
  %bit.dbg.spill = alloca i64, align 8
  %self.dbg.spill = alloca ptr, align 8
  store ptr %self, ptr %self.dbg.spill, align 8
  call void @llvm.dbg.declare(metadata ptr %self.dbg.spill, metadata !1529, metadata !DIExpression()), !dbg !1532
  store i64 %bit, ptr %bit.dbg.spill, align 8
  call void @llvm.dbg.declare(metadata ptr %bit.dbg.spill, metadata !1530, metadata !DIExpression()), !dbg !1533
  %0 = zext i1 %value to i8
  store i8 %0, ptr %value.dbg.spill, align 1
  call void @llvm.dbg.declare(metadata ptr %value.dbg.spill, metadata !1531, metadata !DIExpression()), !dbg !1534
  %_4 = icmp ult i64 %bit, 16, !dbg !1535
  br i1 %_4, label %bb1, label %bb2, !dbg !1535

bb2:                                              ; preds = %start
; call core::panicking::panic
  call void @_ZN4core9panicking5panic17h91639042aeeb9621E(ptr align 1 @alloc_6923360c3161738641b3989c6181ce08, i64 40, ptr align 8 @alloc_f4d2308b1a4d364a80c06ffe6643cbed) #11, !dbg !1536
  unreachable, !dbg !1536

bb1:                                              ; preds = %start
  br i1 %value, label %bb3, label %bb4, !dbg !1537

bb4:                                              ; preds = %bb1
  %_10 = icmp ult i64 %bit, 16, !dbg !1538
  %1 = call i1 @llvm.expect.i1(i1 %_10, i1 true), !dbg !1538
  br i1 %1, label %bb6, label %panic, !dbg !1538

bb3:                                              ; preds = %bb1
  %_7 = icmp ult i64 %bit, 16, !dbg !1539
  %2 = call i1 @llvm.expect.i1(i1 %_7, i1 true), !dbg !1539
  br i1 %2, label %bb5, label %panic1, !dbg !1539

bb6:                                              ; preds = %bb4
  %3 = trunc i64 %bit to i16, !dbg !1538
  %4 = and i16 %3, 15, !dbg !1538
  %_9 = shl i16 1, %4, !dbg !1538
  %_8 = xor i16 %_9, -1, !dbg !1540
  %5 = load i16, ptr %self, align 2, !dbg !1541, !noundef !29
  %6 = and i16 %5, %_8, !dbg !1541
  store i16 %6, ptr %self, align 2, !dbg !1541
  br label %bb7, !dbg !1542

panic:                                            ; preds = %bb4
; call core::panicking::panic
  call void @_ZN4core9panicking5panic17h91639042aeeb9621E(ptr align 1 @str.1, i64 35, ptr align 8 @alloc_f4d2308b1a4d364a80c06ffe6643cbed) #11, !dbg !1538
  unreachable, !dbg !1538

bb7:                                              ; preds = %bb5, %bb6
  ret ptr %self, !dbg !1543

bb5:                                              ; preds = %bb3
  %7 = trunc i64 %bit to i16, !dbg !1539
  %8 = and i16 %7, 15, !dbg !1539
  %_6 = shl i16 1, %8, !dbg !1539
  %9 = load i16, ptr %self, align 2, !dbg !1544, !noundef !29
  %10 = or i16 %9, %_6, !dbg !1544
  store i16 %10, ptr %self, align 2, !dbg !1544
  br label %bb7, !dbg !1542

panic1:                                           ; preds = %bb3
; call core::panicking::panic
  call void @_ZN4core9panicking5panic17h91639042aeeb9621E(ptr align 1 @str.1, i64 35, ptr align 8 @alloc_f4d2308b1a4d364a80c06ffe6643cbed) #11, !dbg !1539
  unreachable, !dbg !1539
}

; core::fmt::num::<impl core::fmt::Debug for u32>::fmt
; Function Attrs: inlinehint noredzone nounwind
define internal zeroext i1 @"_ZN4core3fmt3num50_$LT$impl$u20$core..fmt..Debug$u20$for$u20$u32$GT$3fmt17h626471413d594a44E"(ptr align 4 %self, ptr align 8 %f) unnamed_addr #0 !dbg !1545 {
start:
  %f.dbg.spill = alloca ptr, align 8
  %self.dbg.spill = alloca ptr, align 8
  %_0 = alloca i8, align 1
  store ptr %self, ptr %self.dbg.spill, align 8
  call void @llvm.dbg.declare(metadata ptr %self.dbg.spill, metadata !1552, metadata !DIExpression()), !dbg !1554
  store ptr %f, ptr %f.dbg.spill, align 8
  call void @llvm.dbg.declare(metadata ptr %f.dbg.spill, metadata !1553, metadata !DIExpression()), !dbg !1555
; call core::fmt::Formatter::debug_lower_hex
  %_3 = call zeroext i1 @_ZN4core3fmt9Formatter15debug_lower_hex17h55e41ffa0a34162dE(ptr align 8 %f) #9, !dbg !1556
  br i1 %_3, label %bb2, label %bb3, !dbg !1556

bb3:                                              ; preds = %start
; call core::fmt::Formatter::debug_upper_hex
  %_5 = call zeroext i1 @_ZN4core3fmt9Formatter15debug_upper_hex17heb52bce54d8bca08E(ptr align 8 %f) #9, !dbg !1557
  br i1 %_5, label %bb5, label %bb6, !dbg !1557

bb2:                                              ; preds = %start
; call core::fmt::num::<impl core::fmt::LowerHex for u32>::fmt
  %0 = call zeroext i1 @"_ZN4core3fmt3num53_$LT$impl$u20$core..fmt..LowerHex$u20$for$u20$u32$GT$3fmt17h2072ddc3a0f61fe1E"(ptr align 4 %self, ptr align 8 %f) #9, !dbg !1558
  %1 = zext i1 %0 to i8, !dbg !1558
  store i8 %1, ptr %_0, align 1, !dbg !1558
  br label %bb7, !dbg !1558

bb6:                                              ; preds = %bb3
; call core::fmt::num::imp::<impl core::fmt::Display for u32>::fmt
  %2 = call zeroext i1 @"_ZN4core3fmt3num3imp52_$LT$impl$u20$core..fmt..Display$u20$for$u20$u32$GT$3fmt17hdcad07bd240c11a9E"(ptr align 4 %self, ptr align 8 %f) #9, !dbg !1559
  %3 = zext i1 %2 to i8, !dbg !1559
  store i8 %3, ptr %_0, align 1, !dbg !1559
  br label %bb7, !dbg !1559

bb5:                                              ; preds = %bb3
; call core::fmt::num::<impl core::fmt::UpperHex for u32>::fmt
  %4 = call zeroext i1 @"_ZN4core3fmt3num53_$LT$impl$u20$core..fmt..UpperHex$u20$for$u20$u32$GT$3fmt17h0b2dfc69df54ccf1E"(ptr align 4 %self, ptr align 8 %f) #9, !dbg !1560
  %5 = zext i1 %4 to i8, !dbg !1560
  store i8 %5, ptr %_0, align 1, !dbg !1560
  br label %bb7, !dbg !1560

bb7:                                              ; preds = %bb2, %bb5, %bb6
  %6 = load i8, ptr %_0, align 1, !dbg !1561, !range !1204, !noundef !29
  %7 = trunc i8 %6 to i1, !dbg !1561
  ret i1 %7, !dbg !1561
}

; core::fmt::Write::write_char
; Function Attrs: noredzone nounwind
define internal zeroext i1 @_ZN4core3fmt5Write10write_char17hdad71fbc2d575da8E(ptr align 8 %self, i32 %c) unnamed_addr #1 !dbg !1562 {
start:
  %c.dbg.spill = alloca i32, align 4
  %self.dbg.spill = alloca ptr, align 8
  %_7 = alloca [4 x i8], align 1
  store ptr %self, ptr %self.dbg.spill, align 8
  call void @llvm.dbg.declare(metadata ptr %self.dbg.spill, metadata !1568, metadata !DIExpression()), !dbg !1572
  store i32 %c, ptr %c.dbg.spill, align 4
  call void @llvm.dbg.declare(metadata ptr %c.dbg.spill, metadata !1569, metadata !DIExpression()), !dbg !1573
  %0 = getelementptr inbounds [4 x i8], ptr %_7, i64 0, i64 0, !dbg !1574
  call void @llvm.memset.p0.i64(ptr align 1 %0, i8 0, i64 4, i1 false), !dbg !1574
; call core::char::methods::<impl char>::encode_utf8
  %1 = call { ptr, i64 } @"_ZN4core4char7methods22_$LT$impl$u20$char$GT$11encode_utf817h4225e8a5983abefeE"(i32 %c, ptr align 1 %_7, i64 4) #9, !dbg !1575
  %_4.0 = extractvalue { ptr, i64 } %1, 0, !dbg !1575
  %_4.1 = extractvalue { ptr, i64 } %1, 1, !dbg !1575
; call <vga::Screen as core::fmt::Write>::write_str
  %_0 = call zeroext i1 @"_ZN48_$LT$vga..Screen$u20$as$u20$core..fmt..Write$GT$9write_str17h0177197133190629E"(ptr align 8 %self, ptr align 1 %_4.0, i64 %_4.1) #9, !dbg !1576
  ret i1 %_0, !dbg !1577
}

; core::fmt::Write::write_fmt
; Function Attrs: noredzone nounwind
define internal zeroext i1 @_ZN4core3fmt5Write9write_fmt17h494e19889fa22586E(ptr align 8 %self, ptr align 8 %args) unnamed_addr #1 !dbg !1578 {
start:
  %0 = alloca %"core::fmt::Arguments<'_>", align 8
  %self.dbg.spill = alloca ptr, align 8
  store ptr %self, ptr %self.dbg.spill, align 8
  call void @llvm.dbg.declare(metadata ptr %self.dbg.spill, metadata !1582, metadata !DIExpression()), !dbg !1584
  call void @llvm.dbg.declare(metadata ptr %args, metadata !1583, metadata !DIExpression()), !dbg !1585
  call void @llvm.memcpy.p0.p0.i64(ptr align 8 %0, ptr align 8 %args, i64 48, i1 false), !dbg !1586
; call <&mut W as core::fmt::Write::write_fmt::SpecWriteFmt>::spec_write_fmt
  %_0 = call zeroext i1 @"_ZN75_$LT$$RF$mut$u20$W$u20$as$u20$core..fmt..Write..write_fmt..SpecWriteFmt$GT$14spec_write_fmt17h5d1aed1f4ff9c334E"(ptr align 8 %self, ptr align 8 %0) #9, !dbg !1586
  ret i1 %_0, !dbg !1587
}

; core::fmt::Arguments::new_v1_formatted
; Function Attrs: inlinehint noredzone nounwind
define internal void @_ZN4core3fmt9Arguments16new_v1_formatted17h423561ff26f9de9fE(ptr sret(%"core::fmt::Arguments<'_>") align 8 %_0, ptr align 8 %pieces.0, i64 %pieces.1, ptr align 8 %args.0, i64 %args.1, ptr align 8 %fmt.0, i64 %fmt.1) unnamed_addr #0 !dbg !1588 {
start:
  %_4.dbg.spill = alloca %"core::fmt::rt::UnsafeArg", align 1
  %fmt.dbg.spill = alloca { ptr, i64 }, align 8
  %args.dbg.spill = alloca { ptr, i64 }, align 8
  %pieces.dbg.spill = alloca { ptr, i64 }, align 8
  %_5 = alloca { ptr, i64 }, align 8
  %_unsafe_arg.dbg.spill = alloca %"core::fmt::rt::UnsafeArg", align 1
  call void @llvm.dbg.declare(metadata ptr %_unsafe_arg.dbg.spill, metadata !1599, metadata !DIExpression()), !dbg !1601
  %0 = getelementptr inbounds { ptr, i64 }, ptr %pieces.dbg.spill, i32 0, i32 0, !dbg !1601
  store ptr %pieces.0, ptr %0, align 8, !dbg !1601
  %1 = getelementptr inbounds { ptr, i64 }, ptr %pieces.dbg.spill, i32 0, i32 1, !dbg !1601
  store i64 %pieces.1, ptr %1, align 8, !dbg !1601
  call void @llvm.dbg.declare(metadata ptr %pieces.dbg.spill, metadata !1596, metadata !DIExpression()), !dbg !1602
  %2 = getelementptr inbounds { ptr, i64 }, ptr %args.dbg.spill, i32 0, i32 0, !dbg !1601
  store ptr %args.0, ptr %2, align 8, !dbg !1601
  %3 = getelementptr inbounds { ptr, i64 }, ptr %args.dbg.spill, i32 0, i32 1, !dbg !1601
  store i64 %args.1, ptr %3, align 8, !dbg !1601
  call void @llvm.dbg.declare(metadata ptr %args.dbg.spill, metadata !1597, metadata !DIExpression()), !dbg !1603
  %4 = getelementptr inbounds { ptr, i64 }, ptr %fmt.dbg.spill, i32 0, i32 0, !dbg !1601
  store ptr %fmt.0, ptr %4, align 8, !dbg !1601
  %5 = getelementptr inbounds { ptr, i64 }, ptr %fmt.dbg.spill, i32 0, i32 1, !dbg !1601
  store i64 %fmt.1, ptr %5, align 8, !dbg !1601
  call void @llvm.dbg.declare(metadata ptr %fmt.dbg.spill, metadata !1598, metadata !DIExpression()), !dbg !1604
  call void @llvm.dbg.declare(metadata ptr %_4.dbg.spill, metadata !1600, metadata !DIExpression()), !dbg !1601
  %6 = getelementptr inbounds { ptr, i64 }, ptr %_5, i32 0, i32 0, !dbg !1605
  store ptr %fmt.0, ptr %6, align 8, !dbg !1605
  %7 = getelementptr inbounds { ptr, i64 }, ptr %_5, i32 0, i32 1, !dbg !1605
  store i64 %fmt.1, ptr %7, align 8, !dbg !1605
  %8 = getelementptr inbounds { ptr, i64 }, ptr %_0, i32 0, i32 0, !dbg !1606
  store ptr %pieces.0, ptr %8, align 8, !dbg !1606
  %9 = getelementptr inbounds { ptr, i64 }, ptr %_0, i32 0, i32 1, !dbg !1606
  store i64 %pieces.1, ptr %9, align 8, !dbg !1606
  %10 = getelementptr inbounds { ptr, i64 }, ptr %_5, i32 0, i32 0, !dbg !1606
  %11 = load ptr, ptr %10, align 8, !dbg !1606, !align !1430, !noundef !29
  %12 = getelementptr inbounds { ptr, i64 }, ptr %_5, i32 0, i32 1, !dbg !1606
  %13 = load i64, ptr %12, align 8, !dbg !1606
  %14 = getelementptr inbounds %"core::fmt::Arguments<'_>", ptr %_0, i32 0, i32 2, !dbg !1606
  %15 = getelementptr inbounds { ptr, i64 }, ptr %14, i32 0, i32 0, !dbg !1606
  store ptr %11, ptr %15, align 8, !dbg !1606
  %16 = getelementptr inbounds { ptr, i64 }, ptr %14, i32 0, i32 1, !dbg !1606
  store i64 %13, ptr %16, align 8, !dbg !1606
  %17 = getelementptr inbounds %"core::fmt::Arguments<'_>", ptr %_0, i32 0, i32 1, !dbg !1606
  %18 = getelementptr inbounds { ptr, i64 }, ptr %17, i32 0, i32 0, !dbg !1606
  store ptr %args.0, ptr %18, align 8, !dbg !1606
  %19 = getelementptr inbounds { ptr, i64 }, ptr %17, i32 0, i32 1, !dbg !1606
  store i64 %args.1, ptr %19, align 8, !dbg !1606
  ret void, !dbg !1607
}

; core::fmt::Arguments::new_v1
; Function Attrs: inlinehint noredzone nounwind
define internal void @_ZN4core3fmt9Arguments6new_v117h116c3fa86d73d58eE(ptr sret(%"core::fmt::Arguments<'_>") align 8 %_0, ptr align 8 %pieces.0, i64 %pieces.1, ptr align 8 %args.0, i64 %args.1) unnamed_addr #0 !dbg !1608 {
start:
  %args.dbg.spill = alloca { ptr, i64 }, align 8
  %pieces.dbg.spill = alloca { ptr, i64 }, align 8
  %_14 = alloca { ptr, i64 }, align 8
  %_12 = alloca %"core::fmt::Arguments<'_>", align 8
  %0 = getelementptr inbounds { ptr, i64 }, ptr %pieces.dbg.spill, i32 0, i32 0
  store ptr %pieces.0, ptr %0, align 8
  %1 = getelementptr inbounds { ptr, i64 }, ptr %pieces.dbg.spill, i32 0, i32 1
  store i64 %pieces.1, ptr %1, align 8
  call void @llvm.dbg.declare(metadata ptr %pieces.dbg.spill, metadata !1613, metadata !DIExpression()), !dbg !1615
  %2 = getelementptr inbounds { ptr, i64 }, ptr %args.dbg.spill, i32 0, i32 0
  store ptr %args.0, ptr %2, align 8
  %3 = getelementptr inbounds { ptr, i64 }, ptr %args.dbg.spill, i32 0, i32 1
  store i64 %args.1, ptr %3, align 8
  call void @llvm.dbg.declare(metadata ptr %args.dbg.spill, metadata !1614, metadata !DIExpression()), !dbg !1616
  %_3 = icmp ult i64 %pieces.1, %args.1, !dbg !1617
  br i1 %_3, label %bb3, label %bb1, !dbg !1617

bb1:                                              ; preds = %start
  %4 = call { i64, i1 } @llvm.uadd.with.overflow.i64(i64 %args.1, i64 1), !dbg !1618
  %_10.0 = extractvalue { i64, i1 } %4, 0, !dbg !1618
  %_10.1 = extractvalue { i64, i1 } %4, 1, !dbg !1618
  %5 = call i1 @llvm.expect.i1(i1 %_10.1, i1 false), !dbg !1618
  br i1 %5, label %panic, label %bb2, !dbg !1618

bb3:                                              ; preds = %bb2, %start
; call core::fmt::Arguments::new_const
  call void @_ZN4core3fmt9Arguments9new_const17h7e86e3f18be9a412E(ptr sret(%"core::fmt::Arguments<'_>") align 8 %_12, ptr align 8 @alloc_af99043bc04c419363a7f04d23183506, i64 1) #9, !dbg !1619
; call core::panicking::panic_fmt
  call void @_ZN4core9panicking9panic_fmt17h7c3b1a7d9368f16cE(ptr align 8 %_12, ptr align 8 @alloc_a128bb0331e9cbfe13a5df140fd20243) #11, !dbg !1619
  unreachable, !dbg !1619

bb2:                                              ; preds = %bb1
  %_6 = icmp ugt i64 %pieces.1, %_10.0, !dbg !1620
  br i1 %_6, label %bb3, label %bb5, !dbg !1620

panic:                                            ; preds = %bb1
; call core::panicking::panic
  call void @_ZN4core9panicking5panic17h91639042aeeb9621E(ptr align 1 @str.2, i64 28, ptr align 8 @alloc_1d488b18c5f7c1d3858ca9f0071c91c8) #11, !dbg !1618
  unreachable, !dbg !1618

bb5:                                              ; preds = %bb2
  store ptr null, ptr %_14, align 8, !dbg !1621
  %6 = getelementptr inbounds { ptr, i64 }, ptr %_0, i32 0, i32 0, !dbg !1622
  store ptr %pieces.0, ptr %6, align 8, !dbg !1622
  %7 = getelementptr inbounds { ptr, i64 }, ptr %_0, i32 0, i32 1, !dbg !1622
  store i64 %pieces.1, ptr %7, align 8, !dbg !1622
  %8 = getelementptr inbounds { ptr, i64 }, ptr %_14, i32 0, i32 0, !dbg !1622
  %9 = load ptr, ptr %8, align 8, !dbg !1622, !align !1430, !noundef !29
  %10 = getelementptr inbounds { ptr, i64 }, ptr %_14, i32 0, i32 1, !dbg !1622
  %11 = load i64, ptr %10, align 8, !dbg !1622
  %12 = getelementptr inbounds %"core::fmt::Arguments<'_>", ptr %_0, i32 0, i32 2, !dbg !1622
  %13 = getelementptr inbounds { ptr, i64 }, ptr %12, i32 0, i32 0, !dbg !1622
  store ptr %9, ptr %13, align 8, !dbg !1622
  %14 = getelementptr inbounds { ptr, i64 }, ptr %12, i32 0, i32 1, !dbg !1622
  store i64 %11, ptr %14, align 8, !dbg !1622
  %15 = getelementptr inbounds %"core::fmt::Arguments<'_>", ptr %_0, i32 0, i32 1, !dbg !1622
  %16 = getelementptr inbounds { ptr, i64 }, ptr %15, i32 0, i32 0, !dbg !1622
  store ptr %args.0, ptr %16, align 8, !dbg !1622
  %17 = getelementptr inbounds { ptr, i64 }, ptr %15, i32 0, i32 1, !dbg !1622
  store i64 %args.1, ptr %17, align 8, !dbg !1622
  ret void, !dbg !1623
}

; core::fmt::Arguments::new_const
; Function Attrs: inlinehint noredzone nounwind
define internal void @_ZN4core3fmt9Arguments9new_const17h7e86e3f18be9a412E(ptr sret(%"core::fmt::Arguments<'_>") align 8 %_0, ptr align 8 %pieces.0, i64 %pieces.1) unnamed_addr #0 !dbg !1624 {
start:
  %pieces.dbg.spill = alloca { ptr, i64 }, align 8
  %_7 = alloca { ptr, i64 }, align 8
  %_5 = alloca %"core::fmt::Arguments<'_>", align 8
  %0 = getelementptr inbounds { ptr, i64 }, ptr %pieces.dbg.spill, i32 0, i32 0
  store ptr %pieces.0, ptr %0, align 8
  %1 = getelementptr inbounds { ptr, i64 }, ptr %pieces.dbg.spill, i32 0, i32 1
  store i64 %pieces.1, ptr %1, align 8
  call void @llvm.dbg.declare(metadata ptr %pieces.dbg.spill, metadata !1629, metadata !DIExpression()), !dbg !1630
  %_2 = icmp ugt i64 %pieces.1, 1, !dbg !1631
  br i1 %_2, label %bb1, label %bb3, !dbg !1631

bb3:                                              ; preds = %start
  store ptr null, ptr %_7, align 8, !dbg !1632
  %2 = getelementptr inbounds { ptr, i64 }, ptr %_0, i32 0, i32 0, !dbg !1633
  store ptr %pieces.0, ptr %2, align 8, !dbg !1633
  %3 = getelementptr inbounds { ptr, i64 }, ptr %_0, i32 0, i32 1, !dbg !1633
  store i64 %pieces.1, ptr %3, align 8, !dbg !1633
  %4 = getelementptr inbounds { ptr, i64 }, ptr %_7, i32 0, i32 0, !dbg !1633
  %5 = load ptr, ptr %4, align 8, !dbg !1633, !align !1430, !noundef !29
  %6 = getelementptr inbounds { ptr, i64 }, ptr %_7, i32 0, i32 1, !dbg !1633
  %7 = load i64, ptr %6, align 8, !dbg !1633
  %8 = getelementptr inbounds %"core::fmt::Arguments<'_>", ptr %_0, i32 0, i32 2, !dbg !1633
  %9 = getelementptr inbounds { ptr, i64 }, ptr %8, i32 0, i32 0, !dbg !1633
  store ptr %5, ptr %9, align 8, !dbg !1633
  %10 = getelementptr inbounds { ptr, i64 }, ptr %8, i32 0, i32 1, !dbg !1633
  store i64 %7, ptr %10, align 8, !dbg !1633
  %11 = getelementptr inbounds %"core::fmt::Arguments<'_>", ptr %_0, i32 0, i32 1, !dbg !1633
  %12 = getelementptr inbounds { ptr, i64 }, ptr %11, i32 0, i32 0, !dbg !1633
  store ptr @alloc_513570631223a12912d85da2bec3b15a, ptr %12, align 8, !dbg !1633
  %13 = getelementptr inbounds { ptr, i64 }, ptr %11, i32 0, i32 1, !dbg !1633
  store i64 0, ptr %13, align 8, !dbg !1633
  ret void, !dbg !1634

bb1:                                              ; preds = %start
; call core::fmt::Arguments::new_const
  call void @_ZN4core3fmt9Arguments9new_const17h7e86e3f18be9a412E(ptr sret(%"core::fmt::Arguments<'_>") align 8 %_5, ptr align 8 @alloc_af99043bc04c419363a7f04d23183506, i64 1) #9, !dbg !1635
; call core::panicking::panic_fmt
  call void @_ZN4core9panicking9panic_fmt17h7c3b1a7d9368f16cE(ptr align 8 %_5, ptr align 8 @alloc_40dc4a2e4fa36320ad05a7f7aeedf921) #11, !dbg !1635
  unreachable, !dbg !1635
}

; core::ops::function::FnOnce::call_once
; Function Attrs: inlinehint noredzone nounwind
define internal void @_ZN4core3ops8function6FnOnce9call_once17h5d2a2cebfcd1b515E(ptr sret(%"spin::mutex::Mutex<keyboard::Keyboard<pc_keyboard::layouts::us104::Us104Key, pc_keyboard::scancodes::set1::ScancodeSet1>>") align 2 %_0) unnamed_addr #0 !dbg !1636 {
start:
  %0 = alloca i8, align 1
  %_3.i.i = alloca %"core::cell::UnsafeCell<keyboard::Keyboard<pc_keyboard::layouts::us104::Us104Key, pc_keyboard::scancodes::set1::ScancodeSet1>>", align 2
  %_2.i1.i = alloca %"core::sync::atomic::AtomicBool", align 1
  %_2.i.i = alloca %"spin::mutex::spin::SpinMutex<keyboard::Keyboard<pc_keyboard::layouts::us104::Us104Key, pc_keyboard::scancodes::set1::ScancodeSet1>>", align 2
  %_1.i = alloca %"keyboard::Keyboard<pc_keyboard::layouts::us104::Us104Key, pc_keyboard::scancodes::set1::ScancodeSet1>", align 2
  %_1.dbg.spill = alloca {}, align 1
  %_2 = alloca {}, align 1
  call void @llvm.dbg.declare(metadata ptr %_1.dbg.spill, metadata !1647, metadata !DIExpression()), !dbg !1652
  call void @llvm.dbg.declare(metadata ptr %_2, metadata !1648, metadata !DIExpression()), !dbg !1652
; call keyboard::Keyboard<L,S>::us_scancode_set_one_keyboard
  call void @"_ZN8keyboard21Keyboard$LT$L$C$S$GT$28us_scancode_set_one_keyboard17h1458f54b36cdceb9E"(ptr sret(%"keyboard::Keyboard<pc_keyboard::layouts::us104::Us104Key, pc_keyboard::scancodes::set1::ScancodeSet1>") align 2 %_1.i) #9, !dbg !1653
  call void @llvm.dbg.declare(metadata ptr %_1.i, metadata !1658, metadata !DIExpression()), !dbg !1665
  call void @llvm.dbg.declare(metadata ptr %_1.i, metadata !1667, metadata !DIExpression()), !dbg !1674
; call core::sync::atomic::AtomicBool::new
  %1 = call i8 @_ZN4core4sync6atomic10AtomicBool3new17h0a5c48bacc2912a4E(i1 zeroext false) #9, !dbg !1676
  store i8 %1, ptr %0, align 1, !dbg !1676
  call void @llvm.memcpy.p0.p0.i64(ptr align 1 %_2.i1.i, ptr align 1 %0, i64 1, i1 false), !dbg !1676
  call void @llvm.dbg.declare(metadata ptr %_1.i, metadata !1677, metadata !DIExpression()), !dbg !1684
  call void @llvm.memcpy.p0.p0.i64(ptr align 2 %_3.i.i, ptr align 2 %_1.i, i64 16, i1 false), !dbg !1686
  call void @llvm.memcpy.p0.p0.i64(ptr align 2 %_2.i.i, ptr align 1 %_2.i1.i, i64 1, i1 false), !dbg !1687
  %2 = getelementptr inbounds %"spin::mutex::spin::SpinMutex<keyboard::Keyboard<pc_keyboard::layouts::us104::Us104Key, pc_keyboard::scancodes::set1::ScancodeSet1>>", ptr %_2.i.i, i32 0, i32 3, !dbg !1687
  call void @llvm.memcpy.p0.p0.i64(ptr align 2 %2, ptr align 2 %_3.i.i, i64 16, i1 false), !dbg !1687
  call void @llvm.memcpy.p0.p0.i64(ptr align 2 %_0, ptr align 2 %_2.i.i, i64 18, i1 false), !dbg !1688
  ret void, !dbg !1652
}

; core::ops::function::FnOnce::call_once
; Function Attrs: inlinehint noredzone nounwind
define internal void @_ZN4core3ops8function6FnOnce9call_once17hb314e531850c8ce3E(ptr sret(%"spin::mutex::Mutex<vga::Screen>") align 8 %_0) unnamed_addr #0 !dbg !1689 {
start:
  %0 = alloca i8, align 1
  %_3.i.i = alloca %"core::cell::UnsafeCell<vga::Screen>", align 8
  %_2.i1.i = alloca %"core::sync::atomic::AtomicBool", align 1
  %_2.i.i = alloca %"spin::mutex::spin::SpinMutex<vga::Screen>", align 8
  %_2.i = alloca i8, align 1
  %_1.i = alloca %"vga::Screen", align 8
  %_1.dbg.spill = alloca {}, align 1
  %_2 = alloca {}, align 1
  call void @llvm.dbg.declare(metadata ptr %_1.dbg.spill, metadata !1696, metadata !DIExpression()), !dbg !1700
  call void @llvm.dbg.declare(metadata ptr %_2, metadata !1697, metadata !DIExpression()), !dbg !1700
  store i8 1, ptr %_2.i, align 1, !dbg !1701
  %1 = load i8, ptr %_2.i, align 1, !dbg !1705, !range !1204, !noundef !29
  %2 = trunc i8 %1 to i1, !dbg !1705
; call vga::Screen::new
  call void @_ZN3vga6Screen3new17h8cb1875d0f5ada9bE(ptr sret(%"vga::Screen") align 8 %_1.i, i1 zeroext %2, i8 32) #9, !dbg !1705
  call void @llvm.dbg.declare(metadata ptr %_1.i, metadata !1706, metadata !DIExpression()), !dbg !1712
  call void @llvm.dbg.declare(metadata ptr %_1.i, metadata !1714, metadata !DIExpression()), !dbg !1720
; call core::sync::atomic::AtomicBool::new
  %3 = call i8 @_ZN4core4sync6atomic10AtomicBool3new17h0a5c48bacc2912a4E(i1 zeroext false) #9, !dbg !1722
  store i8 %3, ptr %0, align 1, !dbg !1722
  call void @llvm.memcpy.p0.p0.i64(ptr align 1 %_2.i1.i, ptr align 1 %0, i64 1, i1 false), !dbg !1722
  call void @llvm.dbg.declare(metadata ptr %_1.i, metadata !1723, metadata !DIExpression()), !dbg !1729
  call void @llvm.memcpy.p0.p0.i64(ptr align 8 %_3.i.i, ptr align 8 %_1.i, i64 216, i1 false), !dbg !1731
  call void @llvm.memcpy.p0.p0.i64(ptr align 8 %_2.i.i, ptr align 1 %_2.i1.i, i64 1, i1 false), !dbg !1732
  %4 = getelementptr inbounds %"spin::mutex::spin::SpinMutex<vga::Screen>", ptr %_2.i.i, i32 0, i32 3, !dbg !1732
  call void @llvm.memcpy.p0.p0.i64(ptr align 8 %4, ptr align 8 %_3.i.i, i64 216, i1 false), !dbg !1732
  call void @llvm.memcpy.p0.p0.i64(ptr align 8 %_0, ptr align 8 %_2.i.i, i64 224, i1 false), !dbg !1733
  ret void, !dbg !1700
}

; core::ops::function::FnOnce::call_once
; Function Attrs: inlinehint noredzone nounwind
define internal void @_ZN4core3ops8function6FnOnce9call_once17hbab13c0fe0949ec6E(ptr sret(%"cpu_interrupts::interrupt_descriptor_table::SafeInterruptDescriptorTable") align 16 %_0) unnamed_addr #0 !dbg !1734 {
start:
  %_27.i = alloca %"x86_64::structures::idt::InterruptDescriptorTable", align 16
  %idt.i = alloca %"x86_64::structures::idt::InterruptDescriptorTable", align 16
  %_1.dbg.spill = alloca {}, align 1
  %_2 = alloca {}, align 1
  call void @llvm.dbg.declare(metadata ptr %_1.dbg.spill, metadata !1741, metadata !DIExpression()), !dbg !1745
  call void @llvm.dbg.declare(metadata ptr %_2, metadata !1742, metadata !DIExpression()), !dbg !1745
  call void @llvm.dbg.declare(metadata ptr %idt.i, metadata !1746, metadata !DIExpression()), !dbg !1751
; call x86_64::structures::idt::InterruptDescriptorTable::new
  call void @_ZN6x86_6410structures3idt24InterruptDescriptorTable3new17hda09b8fdf11efc10E(ptr sret(%"x86_64::structures::idt::InterruptDescriptorTable") align 16 %idt.i) #9, !dbg !1753
  %_4.i = getelementptr inbounds %"x86_64::structures::idt::InterruptDescriptorTable", ptr %idt.i, i32 0, i32 8, !dbg !1755
; call x86_64::structures::idt::Entry<extern "x86.interrupt" fn(x86_64::structures::idt::InterruptStackFrame,u64) .> !>::set_handler_fn
  %_3.i = call align 2 ptr @"_ZN6x86_6410structures3idt132Entry$LT$extern$u20$$u22$x86.interrupt$u22$$u20$fn$LP$x86_64..structures..idt..InterruptStackFrame$C$u64$RP$$u20$.$GT$$u20$$u21$$GT$14set_handler_fn17h58fefa373824fe24E"(ptr align 4 %_4.i, ptr @_ZN14cpu_interrupts26default_exception_handlers20double_fault_handler17h7ce8ac3c3b2131deE) #9, !dbg !1755
; call x86_64::structures::idt::EntryOptions::set_stack_index
  %_2.i = call align 2 ptr @_ZN6x86_6410structures3idt12EntryOptions15set_stack_index17h27ce5cc56bbbfc5dE(ptr align 2 %_3.i, i16 0) #9, !dbg !1755
  %_8.i = getelementptr inbounds %"x86_64::structures::idt::InterruptDescriptorTable", ptr %idt.i, i32 0, i32 3, !dbg !1756
; call x86_64::structures::idt::Entry<extern "x86.interrupt" fn(x86_64::structures::idt::InterruptStackFrame)>::set_handler_fn
  %_7.i = call align 2 ptr @"_ZN6x86_6410structures3idt106Entry$LT$extern$u20$$u22$x86.interrupt$u22$$u20$fn$LP$x86_64..structures..idt..InterruptStackFrame$RP$$GT$14set_handler_fn17h40e546bd14b1a59bE"(ptr align 4 %_8.i, ptr @_ZN4theo10interrupts18breakpoint_handler17h67820a7ee95aa609E) #9, !dbg !1756
  %_11.i = getelementptr inbounds %"x86_64::structures::idt::InterruptDescriptorTable", ptr %idt.i, i32 0, i32 14, !dbg !1757
; call x86_64::structures::idt::Entry<extern "x86.interrupt" fn(x86_64::structures::idt::InterruptStackFrame,x86_64::structures::idt::PageFaultErrorCode)>::set_handler_fn
  %_10.i = call align 2 ptr @"_ZN6x86_6410structures3idt152Entry$LT$extern$u20$$u22$x86.interrupt$u22$$u20$fn$LP$x86_64..structures..idt..InterruptStackFrame$C$x86_64..structures..idt..PageFaultErrorCode$RP$$GT$14set_handler_fn17hd939952409699e7aE"(ptr align 4 %_11.i, ptr @_ZN4theo10interrupts18page_fault_handler17h3d336de6c740a74fE) #9, !dbg !1757
  %0 = call i1 @llvm.expect.i1(i1 false, i1 false), !dbg !1758
  br i1 %0, label %panic.i, label %bb6.i, !dbg !1758

bb6.i:                                            ; preds = %start
; call <x86_64::structures::idt::InterruptDescriptorTable as core::ops::index::IndexMut<usize>>::index_mut
  %_14.i = call align 4 ptr @"_ZN109_$LT$x86_64..structures..idt..InterruptDescriptorTable$u20$as$u20$core..ops..index..IndexMut$LT$usize$GT$$GT$9index_mut17h88a9833bf5afa453E"(ptr align 16 %idt.i, i64 32, ptr align 8 @alloc_5eaa8e4b63016922d126c3eac3c61848) #9, !dbg !1759
; call x86_64::structures::idt::Entry<extern "x86.interrupt" fn(x86_64::structures::idt::InterruptStackFrame)>::set_handler_fn
  %_13.i = call align 2 ptr @"_ZN6x86_6410structures3idt106Entry$LT$extern$u20$$u22$x86.interrupt$u22$$u20$fn$LP$x86_64..structures..idt..InterruptStackFrame$RP$$GT$14set_handler_fn17h40e546bd14b1a59bE"(ptr align 4 %_14.i, ptr @_ZN4theo10interrupts23timer_interrupt_handler17h861a385cbe6853b6E) #9, !dbg !1760
  %1 = call i1 @llvm.expect.i1(i1 false, i1 false), !dbg !1761
  br i1 %1, label %panic1.i, label %"_ZN70_$LT$theo..interrupts..SAFE_IDT$u20$as$u20$core..ops..deref..Deref$GT$5deref23__static_ref_initialize17h31072a603c0a887eE.exit", !dbg !1761

panic.i:                                          ; preds = %start
; call core::panicking::panic
  call void @_ZN4core9panicking5panic17h91639042aeeb9621E(ptr align 1 @str.2, i64 28, ptr align 8 @alloc_4f563f7795e8c2dc373f451cbb82ed03) #11, !dbg !1758
  unreachable, !dbg !1758

panic1.i:                                         ; preds = %bb6.i
; call core::panicking::panic
  call void @_ZN4core9panicking5panic17h91639042aeeb9621E(ptr align 1 @str.2, i64 28, ptr align 8 @alloc_3657047ca73d0edc1f3d214343400582) #11, !dbg !1761
  unreachable, !dbg !1761

"_ZN70_$LT$theo..interrupts..SAFE_IDT$u20$as$u20$core..ops..deref..Deref$GT$5deref23__static_ref_initialize17h31072a603c0a887eE.exit": ; preds = %bb6.i
; call <x86_64::structures::idt::InterruptDescriptorTable as core::ops::index::IndexMut<usize>>::index_mut
  %_21.i = call align 4 ptr @"_ZN109_$LT$x86_64..structures..idt..InterruptDescriptorTable$u20$as$u20$core..ops..index..IndexMut$LT$usize$GT$$GT$9index_mut17h88a9833bf5afa453E"(ptr align 16 %idt.i, i64 33, ptr align 8 @alloc_40b9ce323e10f5e26c17a4383756df25) #9, !dbg !1762
; call x86_64::structures::idt::Entry<extern "x86.interrupt" fn(x86_64::structures::idt::InterruptStackFrame)>::set_handler_fn
  %_20.i = call align 2 ptr @"_ZN6x86_6410structures3idt106Entry$LT$extern$u20$$u22$x86.interrupt$u22$$u20$fn$LP$x86_64..structures..idt..InterruptStackFrame$RP$$GT$14set_handler_fn17h40e546bd14b1a59bE"(ptr align 4 %_21.i, ptr @_ZN4theo10interrupts16keyboard_handler17hacea8cd1b1d2b6afE) #9, !dbg !1763
  call void @llvm.memcpy.p0.p0.i64(ptr align 16 %_27.i, ptr align 16 %idt.i, i64 4096, i1 false), !dbg !1764
; call cpu_interrupts::interrupt_descriptor_table::SafeInterruptDescriptorTable::from
  call void @_ZN14cpu_interrupts26interrupt_descriptor_table28SafeInterruptDescriptorTable4from17hb07d2f0383e5a790E(ptr sret(%"cpu_interrupts::interrupt_descriptor_table::SafeInterruptDescriptorTable") align 16 %_0, ptr align 16 %_27.i) #9, !dbg !1765
  ret void, !dbg !1745
}

; core::ptr::drop_in_place<spin::mutex::MutexGuard<keyboard::Keyboard<pc_keyboard::layouts::us104::Us104Key,pc_keyboard::scancodes::set1::ScancodeSet1>>>
; Function Attrs: noredzone nounwind
define internal void @"_ZN4core3ptr160drop_in_place$LT$spin..mutex..MutexGuard$LT$keyboard..Keyboard$LT$pc_keyboard..layouts..us104..Us104Key$C$pc_keyboard..scancodes..set1..ScancodeSet1$GT$$GT$$GT$17hf7bcdd8759005a4cE"(ptr align 8 %_1) unnamed_addr #1 !dbg !1766 {
start:
  %_1.dbg.spill = alloca ptr, align 8
  store ptr %_1, ptr %_1.dbg.spill, align 8
  call void @llvm.dbg.declare(metadata ptr %_1.dbg.spill, metadata !1782, metadata !DIExpression()), !dbg !1785
; call core::ptr::drop_in_place<spin::mutex::spin::SpinMutexGuard<keyboard::Keyboard<pc_keyboard::layouts::us104::Us104Key,pc_keyboard::scancodes::set1::ScancodeSet1>>>
  call void @"_ZN4core3ptr170drop_in_place$LT$spin..mutex..spin..SpinMutexGuard$LT$keyboard..Keyboard$LT$pc_keyboard..layouts..us104..Us104Key$C$pc_keyboard..scancodes..set1..ScancodeSet1$GT$$GT$$GT$17h64c1d4011f904e2cE"(ptr align 8 %_1) #9, !dbg !1785
  ret void, !dbg !1785
}

; core::ptr::drop_in_place<spin::mutex::spin::SpinMutexGuard<keyboard::Keyboard<pc_keyboard::layouts::us104::Us104Key,pc_keyboard::scancodes::set1::ScancodeSet1>>>
; Function Attrs: noredzone nounwind
define internal void @"_ZN4core3ptr170drop_in_place$LT$spin..mutex..spin..SpinMutexGuard$LT$keyboard..Keyboard$LT$pc_keyboard..layouts..us104..Us104Key$C$pc_keyboard..scancodes..set1..ScancodeSet1$GT$$GT$$GT$17h64c1d4011f904e2cE"(ptr align 8 %_1) unnamed_addr #1 !dbg !1786 {
start:
  %_1.dbg.spill = alloca ptr, align 8
  store ptr %_1, ptr %_1.dbg.spill, align 8
  call void @llvm.dbg.declare(metadata ptr %_1.dbg.spill, metadata !1791, metadata !DIExpression()), !dbg !1794
; call <spin::mutex::spin::SpinMutexGuard<T> as core::ops::drop::Drop>::drop
  call void @"_ZN84_$LT$spin..mutex..spin..SpinMutexGuard$LT$T$GT$$u20$as$u20$core..ops..drop..Drop$GT$4drop17h4fb1dd326c2fcb22E"(ptr align 8 %_1) #9, !dbg !1794
  ret void, !dbg !1794
}

; core::ptr::drop_in_place<u32>
; Function Attrs: inlinehint noredzone nounwind
define internal void @"_ZN4core3ptr24drop_in_place$LT$u32$GT$17h54396aa091c24cf6E"(ptr align 4 %_1) unnamed_addr #0 !dbg !1795 {
start:
  %_1.dbg.spill = alloca ptr, align 8
  store ptr %_1, ptr %_1.dbg.spill, align 8
  call void @llvm.dbg.declare(metadata ptr %_1.dbg.spill, metadata !1800, metadata !DIExpression()), !dbg !1803
  ret void, !dbg !1803
}

; core::ptr::drop_in_place<bool>
; Function Attrs: inlinehint noredzone nounwind
define internal void @"_ZN4core3ptr25drop_in_place$LT$bool$GT$17h92d3b58b8a879e22E"(ptr align 1 %_1) unnamed_addr #0 !dbg !1804 {
start:
  %_1.dbg.spill = alloca ptr, align 8
  store ptr %_1, ptr %_1.dbg.spill, align 8
  call void @llvm.dbg.declare(metadata ptr %_1.dbg.spill, metadata !1809, metadata !DIExpression()), !dbg !1810
  ret void, !dbg !1810
}

; core::ptr::drop_in_place<&str>
; Function Attrs: inlinehint noredzone nounwind
define internal void @"_ZN4core3ptr28drop_in_place$LT$$RF$str$GT$17h8363d2f868086056E"(ptr align 8 %_1) unnamed_addr #0 !dbg !1811 {
start:
  %_1.dbg.spill = alloca ptr, align 8
  store ptr %_1, ptr %_1.dbg.spill, align 8
  call void @llvm.dbg.declare(metadata ptr %_1.dbg.spill, metadata !1816, metadata !DIExpression()), !dbg !1819
  ret void, !dbg !1819
}

; core::ptr::drop_in_place<&u32>
; Function Attrs: inlinehint noredzone nounwind
define internal void @"_ZN4core3ptr28drop_in_place$LT$$RF$u32$GT$17h723bd2266102d9f1E"(ptr align 8 %_1) unnamed_addr #0 !dbg !1820 {
start:
  %_1.dbg.spill = alloca ptr, align 8
  store ptr %_1, ptr %_1.dbg.spill, align 8
  call void @llvm.dbg.declare(metadata ptr %_1.dbg.spill, metadata !1825, metadata !DIExpression()), !dbg !1828
  ret void, !dbg !1828
}

; core::ptr::drop_in_place<&bool>
; Function Attrs: inlinehint noredzone nounwind
define internal void @"_ZN4core3ptr29drop_in_place$LT$$RF$bool$GT$17h826c1bbfdba80160E"(ptr align 8 %_1) unnamed_addr #0 !dbg !1829 {
start:
  %_1.dbg.spill = alloca ptr, align 8
  store ptr %_1, ptr %_1.dbg.spill, align 8
  call void @llvm.dbg.declare(metadata ptr %_1.dbg.spill, metadata !1834, metadata !DIExpression()), !dbg !1837
  ret void, !dbg !1837
}

; core::ptr::drop_in_place<vga::Screen>
; Function Attrs: inlinehint noredzone nounwind
define internal void @"_ZN4core3ptr32drop_in_place$LT$vga..Screen$GT$17h363de3e1331f6db6E"(ptr align 8 %_1) unnamed_addr #0 !dbg !1838 {
start:
  %_1.dbg.spill = alloca ptr, align 8
  store ptr %_1, ptr %_1.dbg.spill, align 8
  call void @llvm.dbg.declare(metadata ptr %_1.dbg.spill, metadata !1843, metadata !DIExpression()), !dbg !1844
  ret void, !dbg !1844
}

; core::ptr::drop_in_place<&&core::fmt::Arguments>
; Function Attrs: inlinehint noredzone nounwind
define internal void @"_ZN4core3ptr49drop_in_place$LT$$RF$$RF$core..fmt..Arguments$GT$17he44b1bd47197396eE"(ptr align 8 %_1) unnamed_addr #0 !dbg !1845 {
start:
  %_1.dbg.spill = alloca ptr, align 8
  store ptr %_1, ptr %_1.dbg.spill, align 8
  call void @llvm.dbg.declare(metadata ptr %_1.dbg.spill, metadata !1850, metadata !DIExpression()), !dbg !1853
  ret void, !dbg !1853
}

; core::ptr::drop_in_place<&core::panic::location::Location>
; Function Attrs: inlinehint noredzone nounwind
define internal void @"_ZN4core3ptr56drop_in_place$LT$$RF$core..panic..location..Location$GT$17h8e539d6e868cad31E"(ptr align 8 %_1) unnamed_addr #0 !dbg !1854 {
start:
  %_1.dbg.spill = alloca ptr, align 8
  store ptr %_1, ptr %_1.dbg.spill, align 8
  call void @llvm.dbg.declare(metadata ptr %_1.dbg.spill, metadata !1859, metadata !DIExpression()), !dbg !1862
  ret void, !dbg !1862
}

; core::ptr::drop_in_place<spin::mutex::MutexGuard<vga::Screen>>
; Function Attrs: noredzone nounwind
define internal void @"_ZN4core3ptr63drop_in_place$LT$spin..mutex..MutexGuard$LT$vga..Screen$GT$$GT$17h13ec69d20bf2bccbE"(ptr align 8 %_1) unnamed_addr #1 !dbg !1863 {
start:
  %_1.dbg.spill = alloca ptr, align 8
  store ptr %_1, ptr %_1.dbg.spill, align 8
  call void @llvm.dbg.declare(metadata ptr %_1.dbg.spill, metadata !1875, metadata !DIExpression()), !dbg !1878
; call core::ptr::drop_in_place<spin::mutex::spin::SpinMutexGuard<vga::Screen>>
  call void @"_ZN4core3ptr73drop_in_place$LT$spin..mutex..spin..SpinMutexGuard$LT$vga..Screen$GT$$GT$17h89ea20e312932c3fE"(ptr align 8 %_1) #9, !dbg !1878
  ret void, !dbg !1878
}

; core::ptr::drop_in_place<&x86_64::structures::idt::_::InternalBitFlags>
; Function Attrs: inlinehint noredzone nounwind
define internal void @"_ZN4core3ptr69drop_in_place$LT$$RF$x86_64..structures..idt.._..InternalBitFlags$GT$17h1bc8dc16a8ad089fE"(ptr align 8 %_1) unnamed_addr #0 !dbg !1879 {
start:
  %_1.dbg.spill = alloca ptr, align 8
  store ptr %_1, ptr %_1.dbg.spill, align 8
  call void @llvm.dbg.declare(metadata ptr %_1.dbg.spill, metadata !1884, metadata !DIExpression()), !dbg !1887
  ret void, !dbg !1887
}

; core::ptr::drop_in_place<&dyn core::any::Any+core::marker::Send>
; Function Attrs: inlinehint noredzone nounwind
define internal void @"_ZN4core3ptr70drop_in_place$LT$$RF$dyn$u20$core..any..Any$u2b$core..marker..Send$GT$17h2adb906a6e336f40E"(ptr align 8 %_1) unnamed_addr #0 !dbg !1888 {
start:
  %_1.dbg.spill = alloca ptr, align 8
  store ptr %_1, ptr %_1.dbg.spill, align 8
  call void @llvm.dbg.declare(metadata ptr %_1.dbg.spill, metadata !1893, metadata !DIExpression()), !dbg !1896
  ret void, !dbg !1896
}

; core::ptr::drop_in_place<core::option::Option<&core::fmt::Arguments>>
; Function Attrs: inlinehint noredzone nounwind
define internal void @"_ZN4core3ptr73drop_in_place$LT$core..option..Option$LT$$RF$core..fmt..Arguments$GT$$GT$17hd30c8541092d1a49E"(ptr align 8 %_1) unnamed_addr #0 !dbg !1897 {
start:
  %_1.dbg.spill = alloca ptr, align 8
  store ptr %_1, ptr %_1.dbg.spill, align 8
  call void @llvm.dbg.declare(metadata ptr %_1.dbg.spill, metadata !1902, metadata !DIExpression()), !dbg !1905
  ret void, !dbg !1905
}

; core::ptr::drop_in_place<spin::mutex::spin::SpinMutexGuard<vga::Screen>>
; Function Attrs: noredzone nounwind
define internal void @"_ZN4core3ptr73drop_in_place$LT$spin..mutex..spin..SpinMutexGuard$LT$vga..Screen$GT$$GT$17h89ea20e312932c3fE"(ptr align 8 %_1) unnamed_addr #1 !dbg !1906 {
start:
  %_1.dbg.spill = alloca ptr, align 8
  store ptr %_1, ptr %_1.dbg.spill, align 8
  call void @llvm.dbg.declare(metadata ptr %_1.dbg.spill, metadata !1911, metadata !DIExpression()), !dbg !1914
; call <spin::mutex::spin::SpinMutexGuard<T> as core::ops::drop::Drop>::drop
  call void @"_ZN84_$LT$spin..mutex..spin..SpinMutexGuard$LT$T$GT$$u20$as$u20$core..ops..drop..Drop$GT$4drop17hf1537f3c4821fb13E"(ptr align 8 %_1) #9, !dbg !1914
  ret void, !dbg !1914
}

; core::str::converts::from_utf8_unchecked_mut
; Function Attrs: inlinehint noredzone nounwind
define internal { ptr, i64 } @_ZN4core3str8converts23from_utf8_unchecked_mut17h3417bceac93a8c5eE(ptr align 1 %v.0, i64 %v.1) unnamed_addr #0 !dbg !1915 {
start:
  %v.dbg.spill = alloca { ptr, i64 }, align 8
  %0 = getelementptr inbounds { ptr, i64 }, ptr %v.dbg.spill, i32 0, i32 0
  store ptr %v.0, ptr %0, align 8
  %1 = getelementptr inbounds { ptr, i64 }, ptr %v.dbg.spill, i32 0, i32 1
  store i64 %v.1, ptr %1, align 8
  call void @llvm.dbg.declare(metadata ptr %v.dbg.spill, metadata !1930, metadata !DIExpression()), !dbg !1931
  %2 = insertvalue { ptr, i64 } poison, ptr %v.0, 0, !dbg !1932
  %3 = insertvalue { ptr, i64 } %2, i64 %v.1, 1, !dbg !1932
  ret { ptr, i64 } %3, !dbg !1932
}

; core::char::methods::encode_utf8_raw
; Function Attrs: inlinehint noredzone nounwind
define internal { ptr, i64 } @_ZN4core4char7methods15encode_utf8_raw17h02d21af325de2609E(i32 %0, ptr align 1 %dst.0, i64 %dst.1) unnamed_addr #0 !dbg !1933 {
start:
  %f.dbg.spill.i23 = alloca ptr, align 8
  %x.dbg.spill.i24 = alloca ptr, align 8
  %_0.i25 = alloca { ptr, ptr }, align 8
  %f.dbg.spill.i20 = alloca ptr, align 8
  %x.dbg.spill.i21 = alloca ptr, align 8
  %_0.i22 = alloca { ptr, ptr }, align 8
  %f.dbg.spill.i = alloca ptr, align 8
  %x.dbg.spill.i19 = alloca ptr, align 8
  %_0.i = alloca { ptr, ptr }, align 8
  %x.dbg.spill.i16 = alloca ptr, align 8
  %x.dbg.spill.i13 = alloca ptr, align 8
  %x.dbg.spill.i = alloca ptr, align 8
  %d.dbg.spill = alloca ptr, align 8
  %c.dbg.spill12 = alloca ptr, align 8
  %b.dbg.spill10 = alloca ptr, align 8
  %a.dbg.spill8 = alloca ptr, align 8
  %c.dbg.spill = alloca ptr, align 8
  %b.dbg.spill6 = alloca ptr, align 8
  %a.dbg.spill4 = alloca ptr, align 8
  %b.dbg.spill = alloca ptr, align 8
  %a.dbg.spill2 = alloca ptr, align 8
  %a.dbg.spill = alloca ptr, align 8
  %dst.dbg.spill = alloca { ptr, i64 }, align 8
  %_90 = alloca i64, align 8
  %_88 = alloca i64, align 8
  %_81 = alloca [3 x { ptr, ptr }], align 8
  %_77 = alloca %"core::fmt::Arguments<'_>", align 8
  %_5 = alloca { i64, { ptr, i64 } }, align 8
  %len = alloca i64, align 8
  %code = alloca i32, align 4
  store i32 %0, ptr %code, align 4
  call void @llvm.dbg.declare(metadata ptr %code, metadata !1940, metadata !DIExpression()), !dbg !1959
  %1 = getelementptr inbounds { ptr, i64 }, ptr %dst.dbg.spill, i32 0, i32 0
  store ptr %dst.0, ptr %1, align 8
  %2 = getelementptr inbounds { ptr, i64 }, ptr %dst.dbg.spill, i32 0, i32 1
  store i64 %dst.1, ptr %2, align 8
  call void @llvm.dbg.declare(metadata ptr %dst.dbg.spill, metadata !1941, metadata !DIExpression()), !dbg !1960
  call void @llvm.dbg.declare(metadata ptr %len, metadata !1942, metadata !DIExpression()), !dbg !1961
  %_4 = load i32, ptr %code, align 4, !dbg !1962, !noundef !29
; call core::char::methods::len_utf8
  %3 = call i64 @_ZN4core4char7methods8len_utf817h5440ccc1019759c5E(i32 %_4) #9, !dbg !1963
  store i64 %3, ptr %len, align 8, !dbg !1963
  %_6 = load i64, ptr %len, align 8, !dbg !1964, !noundef !29
; call core::slice::index::<impl core::ops::index::IndexMut<I> for [T]>::index_mut
  %4 = call { ptr, i64 } @"_ZN4core5slice5index77_$LT$impl$u20$core..ops..index..IndexMut$LT$I$GT$$u20$for$u20$$u5b$T$u5d$$GT$9index_mut17h379532daa1cb5796E"(ptr align 1 %dst.0, i64 %dst.1, ptr align 8 @alloc_2ed0ddeddb532c1b94163078c0508318) #9, !dbg !1965
  %_7.0 = extractvalue { ptr, i64 } %4, 0, !dbg !1965
  %_7.1 = extractvalue { ptr, i64 } %4, 1, !dbg !1965
  store i64 %_6, ptr %_5, align 8, !dbg !1966
  %5 = getelementptr inbounds { i64, { ptr, i64 } }, ptr %_5, i32 0, i32 1, !dbg !1966
  %6 = getelementptr inbounds { ptr, i64 }, ptr %5, i32 0, i32 0, !dbg !1966
  store ptr %_7.0, ptr %6, align 8, !dbg !1966
  %7 = getelementptr inbounds { ptr, i64 }, ptr %5, i32 0, i32 1, !dbg !1966
  store i64 %_7.1, ptr %7, align 8, !dbg !1966
  %8 = load i64, ptr %_5, align 8, !dbg !1967, !noundef !29
  switch i64 %8, label %bb4 [
    i64 1, label %bb3
    i64 2, label %bb5
    i64 3, label %bb6
    i64 4, label %bb7
  ], !dbg !1967

bb4:                                              ; preds = %bb7, %bb6, %bb5, %bb3, %start
  store ptr %len, ptr %x.dbg.spill.i13, align 8
  call void @llvm.dbg.declare(metadata ptr %x.dbg.spill.i13, metadata !1090, metadata !DIExpression()), !dbg !1968
  store ptr %len, ptr %x.dbg.spill.i19, align 8
  call void @llvm.dbg.declare(metadata ptr %x.dbg.spill.i19, metadata !1100, metadata !DIExpression()), !dbg !1970
  store ptr @"_ZN4core3fmt3num3imp54_$LT$impl$u20$core..fmt..Display$u20$for$u20$usize$GT$3fmt17h2ba014a520b3571cE", ptr %f.dbg.spill.i, align 8
  call void @llvm.dbg.declare(metadata ptr %f.dbg.spill.i, metadata !1109, metadata !DIExpression()), !dbg !1972
  store ptr %len, ptr %_0.i, align 8, !dbg !1973
  %9 = getelementptr inbounds { ptr, ptr }, ptr %_0.i, i32 0, i32 1, !dbg !1973
  store ptr @"_ZN4core3fmt3num3imp54_$LT$impl$u20$core..fmt..Display$u20$for$u20$usize$GT$3fmt17h2ba014a520b3571cE", ptr %9, align 8, !dbg !1973
  %10 = load ptr, ptr %_0.i, align 8, !dbg !1974, !nonnull !29, !align !1115, !noundef !29
  %11 = getelementptr inbounds { ptr, ptr }, ptr %_0.i, i32 0, i32 1, !dbg !1974
  %12 = load ptr, ptr %11, align 8, !dbg !1974, !nonnull !29, !noundef !29
  %13 = insertvalue { ptr, ptr } poison, ptr %10, 0, !dbg !1974
  %14 = insertvalue { ptr, ptr } %13, ptr %12, 1, !dbg !1974
  %_0.0.i14 = extractvalue { ptr, ptr } %14, 0, !dbg !1975
  %_0.1.i15 = extractvalue { ptr, ptr } %14, 1, !dbg !1975
  %_82.0 = extractvalue { ptr, ptr } %14, 0, !dbg !1976
  %_82.1 = extractvalue { ptr, ptr } %14, 1, !dbg !1976
  store ptr %code, ptr %x.dbg.spill.i16, align 8
  call void @llvm.dbg.declare(metadata ptr %x.dbg.spill.i16, metadata !1977, metadata !DIExpression()), !dbg !1983
  store ptr %code, ptr %x.dbg.spill.i24, align 8
  call void @llvm.dbg.declare(metadata ptr %x.dbg.spill.i24, metadata !1985, metadata !DIExpression()), !dbg !1993
  store ptr @"_ZN4core3fmt3num53_$LT$impl$u20$core..fmt..UpperHex$u20$for$u20$u32$GT$3fmt17h0b2dfc69df54ccf1E", ptr %f.dbg.spill.i23, align 8
  call void @llvm.dbg.declare(metadata ptr %f.dbg.spill.i23, metadata !1992, metadata !DIExpression()), !dbg !1995
  store ptr %code, ptr %_0.i25, align 8, !dbg !1996
  %15 = getelementptr inbounds { ptr, ptr }, ptr %_0.i25, i32 0, i32 1, !dbg !1996
  store ptr @"_ZN4core3fmt3num53_$LT$impl$u20$core..fmt..UpperHex$u20$for$u20$u32$GT$3fmt17h0b2dfc69df54ccf1E", ptr %15, align 8, !dbg !1996
  %16 = load ptr, ptr %_0.i25, align 8, !dbg !1997, !nonnull !29, !align !1115, !noundef !29
  %17 = getelementptr inbounds { ptr, ptr }, ptr %_0.i25, i32 0, i32 1, !dbg !1997
  %18 = load ptr, ptr %17, align 8, !dbg !1997, !nonnull !29, !noundef !29
  %19 = insertvalue { ptr, ptr } poison, ptr %16, 0, !dbg !1997
  %20 = insertvalue { ptr, ptr } %19, ptr %18, 1, !dbg !1997
  %_0.0.i17 = extractvalue { ptr, ptr } %20, 0, !dbg !1998
  %_0.1.i18 = extractvalue { ptr, ptr } %20, 1, !dbg !1998
  %_84.0 = extractvalue { ptr, ptr } %20, 0, !dbg !1976
  %_84.1 = extractvalue { ptr, ptr } %20, 1, !dbg !1976
  store i64 %dst.1, ptr %_88, align 8, !dbg !1999
  store ptr %_88, ptr %x.dbg.spill.i, align 8
  call void @llvm.dbg.declare(metadata ptr %x.dbg.spill.i, metadata !1090, metadata !DIExpression()), !dbg !2000
  store ptr %_88, ptr %x.dbg.spill.i21, align 8
  call void @llvm.dbg.declare(metadata ptr %x.dbg.spill.i21, metadata !1100, metadata !DIExpression()), !dbg !2002
  store ptr @"_ZN4core3fmt3num3imp54_$LT$impl$u20$core..fmt..Display$u20$for$u20$usize$GT$3fmt17h2ba014a520b3571cE", ptr %f.dbg.spill.i20, align 8
  call void @llvm.dbg.declare(metadata ptr %f.dbg.spill.i20, metadata !1109, metadata !DIExpression()), !dbg !2004
  store ptr %_88, ptr %_0.i22, align 8, !dbg !2005
  %21 = getelementptr inbounds { ptr, ptr }, ptr %_0.i22, i32 0, i32 1, !dbg !2005
  store ptr @"_ZN4core3fmt3num3imp54_$LT$impl$u20$core..fmt..Display$u20$for$u20$usize$GT$3fmt17h2ba014a520b3571cE", ptr %21, align 8, !dbg !2005
  %22 = load ptr, ptr %_0.i22, align 8, !dbg !2006, !nonnull !29, !align !1115, !noundef !29
  %23 = getelementptr inbounds { ptr, ptr }, ptr %_0.i22, i32 0, i32 1, !dbg !2006
  %24 = load ptr, ptr %23, align 8, !dbg !2006, !nonnull !29, !noundef !29
  %25 = insertvalue { ptr, ptr } poison, ptr %22, 0, !dbg !2006
  %26 = insertvalue { ptr, ptr } %25, ptr %24, 1, !dbg !2006
  %_0.0.i = extractvalue { ptr, ptr } %26, 0, !dbg !2007
  %_0.1.i = extractvalue { ptr, ptr } %26, 1, !dbg !2007
  %_86.0 = extractvalue { ptr, ptr } %26, 0, !dbg !1976
  %_86.1 = extractvalue { ptr, ptr } %26, 1, !dbg !1976
  %27 = getelementptr inbounds [3 x { ptr, ptr }], ptr %_81, i64 0, i64 0, !dbg !1976
  %28 = getelementptr inbounds { ptr, ptr }, ptr %27, i32 0, i32 0, !dbg !1976
  store ptr %_82.0, ptr %28, align 8, !dbg !1976
  %29 = getelementptr inbounds { ptr, ptr }, ptr %27, i32 0, i32 1, !dbg !1976
  store ptr %_82.1, ptr %29, align 8, !dbg !1976
  %30 = getelementptr inbounds [3 x { ptr, ptr }], ptr %_81, i64 0, i64 1, !dbg !1976
  %31 = getelementptr inbounds { ptr, ptr }, ptr %30, i32 0, i32 0, !dbg !1976
  store ptr %_84.0, ptr %31, align 8, !dbg !1976
  %32 = getelementptr inbounds { ptr, ptr }, ptr %30, i32 0, i32 1, !dbg !1976
  store ptr %_84.1, ptr %32, align 8, !dbg !1976
  %33 = getelementptr inbounds [3 x { ptr, ptr }], ptr %_81, i64 0, i64 2, !dbg !1976
  %34 = getelementptr inbounds { ptr, ptr }, ptr %33, i32 0, i32 0, !dbg !1976
  store ptr %_86.0, ptr %34, align 8, !dbg !1976
  %35 = getelementptr inbounds { ptr, ptr }, ptr %33, i32 0, i32 1, !dbg !1976
  store ptr %_86.1, ptr %35, align 8, !dbg !1976
; call core::fmt::Arguments::new_v1
  call void @_ZN4core3fmt9Arguments6new_v117h116c3fa86d73d58eE(ptr sret(%"core::fmt::Arguments<'_>") align 8 %_77, ptr align 8 @alloc_d51214f097f67314513b76e97e13aa6b, i64 3, ptr align 8 %_81, i64 3) #9, !dbg !1976
; call core::panicking::panic_fmt
  call void @_ZN4core9panicking9panic_fmt17h7c3b1a7d9368f16cE(ptr align 8 %_77, ptr align 8 @alloc_24ea739765840a624c78c8023d612164) #11, !dbg !1976
  unreachable, !dbg !1976

bb3:                                              ; preds = %start
  %36 = getelementptr inbounds { i64, { ptr, i64 } }, ptr %_5, i32 0, i32 1, !dbg !2008
  %37 = getelementptr inbounds { ptr, i64 }, ptr %36, i32 0, i32 0, !dbg !2008
  %_93.0 = load ptr, ptr %37, align 8, !dbg !2008, !nonnull !29, !align !1115, !noundef !29
  %38 = getelementptr inbounds { ptr, i64 }, ptr %36, i32 0, i32 1, !dbg !2008
  %_93.1 = load i64, ptr %38, align 8, !dbg !2008, !noundef !29
  %_10 = icmp uge i64 %_93.1, 1, !dbg !2008
  br i1 %_10, label %bb8, label %bb4, !dbg !2008

bb5:                                              ; preds = %start
  %39 = getelementptr inbounds { i64, { ptr, i64 } }, ptr %_5, i32 0, i32 1, !dbg !2009
  %40 = getelementptr inbounds { ptr, i64 }, ptr %39, i32 0, i32 0, !dbg !2009
  %_94.0 = load ptr, ptr %40, align 8, !dbg !2009, !nonnull !29, !align !1115, !noundef !29
  %41 = getelementptr inbounds { ptr, i64 }, ptr %39, i32 0, i32 1, !dbg !2009
  %_94.1 = load i64, ptr %41, align 8, !dbg !2009, !noundef !29
  %_13 = icmp uge i64 %_94.1, 2, !dbg !2009
  br i1 %_13, label %bb9, label %bb4, !dbg !2009

bb6:                                              ; preds = %start
  %42 = getelementptr inbounds { i64, { ptr, i64 } }, ptr %_5, i32 0, i32 1, !dbg !2010
  %43 = getelementptr inbounds { ptr, i64 }, ptr %42, i32 0, i32 0, !dbg !2010
  %_95.0 = load ptr, ptr %43, align 8, !dbg !2010, !nonnull !29, !align !1115, !noundef !29
  %44 = getelementptr inbounds { ptr, i64 }, ptr %42, i32 0, i32 1, !dbg !2010
  %_95.1 = load i64, ptr %44, align 8, !dbg !2010, !noundef !29
  %_16 = icmp uge i64 %_95.1, 3, !dbg !2010
  br i1 %_16, label %bb11, label %bb4, !dbg !2010

bb7:                                              ; preds = %start
  %45 = getelementptr inbounds { i64, { ptr, i64 } }, ptr %_5, i32 0, i32 1, !dbg !2011
  %46 = getelementptr inbounds { ptr, i64 }, ptr %45, i32 0, i32 0, !dbg !2011
  %_96.0 = load ptr, ptr %46, align 8, !dbg !2011, !nonnull !29, !align !1115, !noundef !29
  %47 = getelementptr inbounds { ptr, i64 }, ptr %45, i32 0, i32 1, !dbg !2011
  %_96.1 = load i64, ptr %47, align 8, !dbg !2011, !noundef !29
  %_19 = icmp uge i64 %_96.1, 4, !dbg !2011
  br i1 %_19, label %bb14, label %bb4, !dbg !2011

bb8:                                              ; preds = %bb3
  %48 = getelementptr inbounds { i64, { ptr, i64 } }, ptr %_5, i32 0, i32 1, !dbg !2012
  %49 = getelementptr inbounds { ptr, i64 }, ptr %48, i32 0, i32 0, !dbg !2012
  %_97.0 = load ptr, ptr %49, align 8, !dbg !2012, !nonnull !29, !align !1115, !noundef !29
  %50 = getelementptr inbounds { ptr, i64 }, ptr %48, i32 0, i32 1, !dbg !2012
  %_97.1 = load i64, ptr %50, align 8, !dbg !2012, !noundef !29
  %a = getelementptr inbounds [0 x i8], ptr %_97.0, i64 0, i64 0, !dbg !2012
  store ptr %a, ptr %a.dbg.spill, align 8, !dbg !2012
  call void @llvm.dbg.declare(metadata ptr %a.dbg.spill, metadata !1944, metadata !DIExpression()), !dbg !2013
  %_21 = load i32, ptr %code, align 4, !dbg !2014, !noundef !29
  %51 = trunc i32 %_21 to i8, !dbg !2015
  store i8 %51, ptr %a, align 1, !dbg !2015
  br label %bb22, !dbg !2016

bb22:                                             ; preds = %bb14, %bb11, %bb9, %bb8
  %_91 = load i64, ptr %len, align 8, !dbg !2017, !noundef !29
  store i64 %_91, ptr %_90, align 8, !dbg !2018
  %52 = load i64, ptr %_90, align 8, !dbg !2019, !noundef !29
; call core::slice::index::<impl core::ops::index::IndexMut<I> for [T]>::index_mut
  %53 = call { ptr, i64 } @"_ZN4core5slice5index77_$LT$impl$u20$core..ops..index..IndexMut$LT$I$GT$$u20$for$u20$$u5b$T$u5d$$GT$9index_mut17h7d052735fa2272caE"(ptr align 1 %dst.0, i64 %dst.1, i64 %52, ptr align 8 @alloc_9db81bec73d48154ecb538ccd002e626) #9, !dbg !2019
  %_0.0 = extractvalue { ptr, i64 } %53, 0, !dbg !2019
  %_0.1 = extractvalue { ptr, i64 } %53, 1, !dbg !2019
  %54 = insertvalue { ptr, i64 } poison, ptr %_0.0, 0, !dbg !2020
  %55 = insertvalue { ptr, i64 } %54, i64 %_0.1, 1, !dbg !2020
  ret { ptr, i64 } %55, !dbg !2020

bb9:                                              ; preds = %bb5
  %56 = getelementptr inbounds { i64, { ptr, i64 } }, ptr %_5, i32 0, i32 1, !dbg !2021
  %57 = getelementptr inbounds { ptr, i64 }, ptr %56, i32 0, i32 0, !dbg !2021
  %_98.0 = load ptr, ptr %57, align 8, !dbg !2021, !nonnull !29, !align !1115, !noundef !29
  %58 = getelementptr inbounds { ptr, i64 }, ptr %56, i32 0, i32 1, !dbg !2021
  %_98.1 = load i64, ptr %58, align 8, !dbg !2021, !noundef !29
  %a1 = getelementptr inbounds [0 x i8], ptr %_98.0, i64 0, i64 0, !dbg !2021
  store ptr %a1, ptr %a.dbg.spill2, align 8, !dbg !2021
  call void @llvm.dbg.declare(metadata ptr %a.dbg.spill2, metadata !1947, metadata !DIExpression()), !dbg !2022
  %59 = getelementptr inbounds { i64, { ptr, i64 } }, ptr %_5, i32 0, i32 1, !dbg !2023
  %60 = getelementptr inbounds { ptr, i64 }, ptr %59, i32 0, i32 0, !dbg !2023
  %_99.0 = load ptr, ptr %60, align 8, !dbg !2023, !nonnull !29, !align !1115, !noundef !29
  %61 = getelementptr inbounds { ptr, i64 }, ptr %59, i32 0, i32 1, !dbg !2023
  %_99.1 = load i64, ptr %61, align 8, !dbg !2023, !noundef !29
  %b = getelementptr inbounds [0 x i8], ptr %_99.0, i64 0, i64 1, !dbg !2023
  store ptr %b, ptr %b.dbg.spill, align 8, !dbg !2023
  call void @llvm.dbg.declare(metadata ptr %b.dbg.spill, metadata !1949, metadata !DIExpression()), !dbg !2024
  %_27 = load i32, ptr %code, align 4, !dbg !2025, !noundef !29
  %_26 = lshr i32 %_27, 6, !dbg !2025
  %_25 = and i32 %_26, 31, !dbg !2026
  %_24 = trunc i32 %_25 to i8, !dbg !2026
  %62 = or i8 %_24, -64, !dbg !2027
  store i8 %62, ptr %a1, align 1, !dbg !2027
  %_32 = load i32, ptr %code, align 4, !dbg !2028, !noundef !29
  %_31 = and i32 %_32, 63, !dbg !2029
  %_30 = trunc i32 %_31 to i8, !dbg !2029
  %63 = or i8 %_30, -128, !dbg !2030
  store i8 %63, ptr %b, align 1, !dbg !2030
  br label %bb22, !dbg !2031

bb11:                                             ; preds = %bb6
  %64 = getelementptr inbounds { i64, { ptr, i64 } }, ptr %_5, i32 0, i32 1, !dbg !2032
  %65 = getelementptr inbounds { ptr, i64 }, ptr %64, i32 0, i32 0, !dbg !2032
  %_100.0 = load ptr, ptr %65, align 8, !dbg !2032, !nonnull !29, !align !1115, !noundef !29
  %66 = getelementptr inbounds { ptr, i64 }, ptr %64, i32 0, i32 1, !dbg !2032
  %_100.1 = load i64, ptr %66, align 8, !dbg !2032, !noundef !29
  %a3 = getelementptr inbounds [0 x i8], ptr %_100.0, i64 0, i64 0, !dbg !2032
  store ptr %a3, ptr %a.dbg.spill4, align 8, !dbg !2032
  call void @llvm.dbg.declare(metadata ptr %a.dbg.spill4, metadata !1950, metadata !DIExpression()), !dbg !2033
  %67 = getelementptr inbounds { i64, { ptr, i64 } }, ptr %_5, i32 0, i32 1, !dbg !2034
  %68 = getelementptr inbounds { ptr, i64 }, ptr %67, i32 0, i32 0, !dbg !2034
  %_101.0 = load ptr, ptr %68, align 8, !dbg !2034, !nonnull !29, !align !1115, !noundef !29
  %69 = getelementptr inbounds { ptr, i64 }, ptr %67, i32 0, i32 1, !dbg !2034
  %_101.1 = load i64, ptr %69, align 8, !dbg !2034, !noundef !29
  %b5 = getelementptr inbounds [0 x i8], ptr %_101.0, i64 0, i64 1, !dbg !2034
  store ptr %b5, ptr %b.dbg.spill6, align 8, !dbg !2034
  call void @llvm.dbg.declare(metadata ptr %b.dbg.spill6, metadata !1952, metadata !DIExpression()), !dbg !2035
  %70 = getelementptr inbounds { i64, { ptr, i64 } }, ptr %_5, i32 0, i32 1, !dbg !2036
  %71 = getelementptr inbounds { ptr, i64 }, ptr %70, i32 0, i32 0, !dbg !2036
  %_102.0 = load ptr, ptr %71, align 8, !dbg !2036, !nonnull !29, !align !1115, !noundef !29
  %72 = getelementptr inbounds { ptr, i64 }, ptr %70, i32 0, i32 1, !dbg !2036
  %_102.1 = load i64, ptr %72, align 8, !dbg !2036, !noundef !29
  %c = getelementptr inbounds [0 x i8], ptr %_102.0, i64 0, i64 2, !dbg !2036
  store ptr %c, ptr %c.dbg.spill, align 8, !dbg !2036
  call void @llvm.dbg.declare(metadata ptr %c.dbg.spill, metadata !1953, metadata !DIExpression()), !dbg !2037
  %_39 = load i32, ptr %code, align 4, !dbg !2038, !noundef !29
  %_38 = lshr i32 %_39, 12, !dbg !2038
  %_37 = and i32 %_38, 15, !dbg !2039
  %_36 = trunc i32 %_37 to i8, !dbg !2039
  %73 = or i8 %_36, -32, !dbg !2040
  store i8 %73, ptr %a3, align 1, !dbg !2040
  %_45 = load i32, ptr %code, align 4, !dbg !2041, !noundef !29
  %_44 = lshr i32 %_45, 6, !dbg !2041
  %_43 = and i32 %_44, 63, !dbg !2042
  %_42 = trunc i32 %_43 to i8, !dbg !2042
  %74 = or i8 %_42, -128, !dbg !2043
  store i8 %74, ptr %b5, align 1, !dbg !2043
  %_50 = load i32, ptr %code, align 4, !dbg !2044, !noundef !29
  %_49 = and i32 %_50, 63, !dbg !2045
  %_48 = trunc i32 %_49 to i8, !dbg !2045
  %75 = or i8 %_48, -128, !dbg !2046
  store i8 %75, ptr %c, align 1, !dbg !2046
  br label %bb22, !dbg !2047

bb14:                                             ; preds = %bb7
  %76 = getelementptr inbounds { i64, { ptr, i64 } }, ptr %_5, i32 0, i32 1, !dbg !2048
  %77 = getelementptr inbounds { ptr, i64 }, ptr %76, i32 0, i32 0, !dbg !2048
  %_103.0 = load ptr, ptr %77, align 8, !dbg !2048, !nonnull !29, !align !1115, !noundef !29
  %78 = getelementptr inbounds { ptr, i64 }, ptr %76, i32 0, i32 1, !dbg !2048
  %_103.1 = load i64, ptr %78, align 8, !dbg !2048, !noundef !29
  %a7 = getelementptr inbounds [0 x i8], ptr %_103.0, i64 0, i64 0, !dbg !2048
  store ptr %a7, ptr %a.dbg.spill8, align 8, !dbg !2048
  call void @llvm.dbg.declare(metadata ptr %a.dbg.spill8, metadata !1954, metadata !DIExpression()), !dbg !2049
  %79 = getelementptr inbounds { i64, { ptr, i64 } }, ptr %_5, i32 0, i32 1, !dbg !2050
  %80 = getelementptr inbounds { ptr, i64 }, ptr %79, i32 0, i32 0, !dbg !2050
  %_104.0 = load ptr, ptr %80, align 8, !dbg !2050, !nonnull !29, !align !1115, !noundef !29
  %81 = getelementptr inbounds { ptr, i64 }, ptr %79, i32 0, i32 1, !dbg !2050
  %_104.1 = load i64, ptr %81, align 8, !dbg !2050, !noundef !29
  %b9 = getelementptr inbounds [0 x i8], ptr %_104.0, i64 0, i64 1, !dbg !2050
  store ptr %b9, ptr %b.dbg.spill10, align 8, !dbg !2050
  call void @llvm.dbg.declare(metadata ptr %b.dbg.spill10, metadata !1956, metadata !DIExpression()), !dbg !2051
  %82 = getelementptr inbounds { i64, { ptr, i64 } }, ptr %_5, i32 0, i32 1, !dbg !2052
  %83 = getelementptr inbounds { ptr, i64 }, ptr %82, i32 0, i32 0, !dbg !2052
  %_105.0 = load ptr, ptr %83, align 8, !dbg !2052, !nonnull !29, !align !1115, !noundef !29
  %84 = getelementptr inbounds { ptr, i64 }, ptr %82, i32 0, i32 1, !dbg !2052
  %_105.1 = load i64, ptr %84, align 8, !dbg !2052, !noundef !29
  %c11 = getelementptr inbounds [0 x i8], ptr %_105.0, i64 0, i64 2, !dbg !2052
  store ptr %c11, ptr %c.dbg.spill12, align 8, !dbg !2052
  call void @llvm.dbg.declare(metadata ptr %c.dbg.spill12, metadata !1957, metadata !DIExpression()), !dbg !2053
  %85 = getelementptr inbounds { i64, { ptr, i64 } }, ptr %_5, i32 0, i32 1, !dbg !2054
  %86 = getelementptr inbounds { ptr, i64 }, ptr %85, i32 0, i32 0, !dbg !2054
  %_106.0 = load ptr, ptr %86, align 8, !dbg !2054, !nonnull !29, !align !1115, !noundef !29
  %87 = getelementptr inbounds { ptr, i64 }, ptr %85, i32 0, i32 1, !dbg !2054
  %_106.1 = load i64, ptr %87, align 8, !dbg !2054, !noundef !29
  %d = getelementptr inbounds [0 x i8], ptr %_106.0, i64 0, i64 3, !dbg !2054
  store ptr %d, ptr %d.dbg.spill, align 8, !dbg !2054
  call void @llvm.dbg.declare(metadata ptr %d.dbg.spill, metadata !1958, metadata !DIExpression()), !dbg !2055
  %_58 = load i32, ptr %code, align 4, !dbg !2056, !noundef !29
  %_57 = lshr i32 %_58, 18, !dbg !2056
  %_56 = and i32 %_57, 7, !dbg !2057
  %_55 = trunc i32 %_56 to i8, !dbg !2057
  %88 = or i8 %_55, -16, !dbg !2058
  store i8 %88, ptr %a7, align 1, !dbg !2058
  %_64 = load i32, ptr %code, align 4, !dbg !2059, !noundef !29
  %_63 = lshr i32 %_64, 12, !dbg !2059
  %_62 = and i32 %_63, 63, !dbg !2060
  %_61 = trunc i32 %_62 to i8, !dbg !2060
  %89 = or i8 %_61, -128, !dbg !2061
  store i8 %89, ptr %b9, align 1, !dbg !2061
  %_70 = load i32, ptr %code, align 4, !dbg !2062, !noundef !29
  %_69 = lshr i32 %_70, 6, !dbg !2062
  %_68 = and i32 %_69, 63, !dbg !2063
  %_67 = trunc i32 %_68 to i8, !dbg !2063
  %90 = or i8 %_67, -128, !dbg !2064
  store i8 %90, ptr %c11, align 1, !dbg !2064
  %_75 = load i32, ptr %code, align 4, !dbg !2065, !noundef !29
  %_74 = and i32 %_75, 63, !dbg !2066
  %_73 = trunc i32 %_74 to i8, !dbg !2066
  %91 = or i8 %_73, -128, !dbg !2067
  store i8 %91, ptr %d, align 1, !dbg !2067
  br label %bb22, !dbg !2068
}

; core::char::methods::<impl char>::encode_utf8
; Function Attrs: inlinehint noredzone nounwind
define internal { ptr, i64 } @"_ZN4core4char7methods22_$LT$impl$u20$char$GT$11encode_utf817h4225e8a5983abefeE"(i32 %self, ptr align 1 %dst.0, i64 %dst.1) unnamed_addr #0 !dbg !2069 {
start:
  %dst.dbg.spill = alloca { ptr, i64 }, align 8
  %self.dbg.spill = alloca i32, align 4
  store i32 %self, ptr %self.dbg.spill, align 4
  call void @llvm.dbg.declare(metadata ptr %self.dbg.spill, metadata !2074, metadata !DIExpression()), !dbg !2076
  %0 = getelementptr inbounds { ptr, i64 }, ptr %dst.dbg.spill, i32 0, i32 0
  store ptr %dst.0, ptr %0, align 8
  %1 = getelementptr inbounds { ptr, i64 }, ptr %dst.dbg.spill, i32 0, i32 1
  store i64 %dst.1, ptr %1, align 8
  call void @llvm.dbg.declare(metadata ptr %dst.dbg.spill, metadata !2075, metadata !DIExpression()), !dbg !2077
; call core::char::methods::encode_utf8_raw
  %2 = call { ptr, i64 } @_ZN4core4char7methods15encode_utf8_raw17h02d21af325de2609E(i32 %self, ptr align 1 %dst.0, i64 %dst.1) #9, !dbg !2078
  %_3.0 = extractvalue { ptr, i64 } %2, 0, !dbg !2078
  %_3.1 = extractvalue { ptr, i64 } %2, 1, !dbg !2078
; call core::str::converts::from_utf8_unchecked_mut
  %3 = call { ptr, i64 } @_ZN4core3str8converts23from_utf8_unchecked_mut17h3417bceac93a8c5eE(ptr align 1 %_3.0, i64 %_3.1) #9, !dbg !2079
  %_0.0 = extractvalue { ptr, i64 } %3, 0, !dbg !2079
  %_0.1 = extractvalue { ptr, i64 } %3, 1, !dbg !2079
  %4 = insertvalue { ptr, i64 } poison, ptr %_0.0, 0, !dbg !2080
  %5 = insertvalue { ptr, i64 } %4, i64 %_0.1, 1, !dbg !2080
  ret { ptr, i64 } %5, !dbg !2080
}

; core::char::methods::len_utf8
; Function Attrs: inlinehint noredzone nounwind
define internal i64 @_ZN4core4char7methods8len_utf817h5440ccc1019759c5E(i32 %code) unnamed_addr #0 !dbg !2081 {
start:
  %code.dbg.spill = alloca i32, align 4
  %_0 = alloca i64, align 8
  store i32 %code, ptr %code.dbg.spill, align 4
  call void @llvm.dbg.declare(metadata ptr %code.dbg.spill, metadata !2085, metadata !DIExpression()), !dbg !2086
  %_2 = icmp ult i32 %code, 128, !dbg !2087
  br i1 %_2, label %bb1, label %bb2, !dbg !2087

bb2:                                              ; preds = %start
  %_3 = icmp ult i32 %code, 2048, !dbg !2088
  br i1 %_3, label %bb3, label %bb4, !dbg !2088

bb1:                                              ; preds = %start
  store i64 1, ptr %_0, align 8, !dbg !2089
  br label %bb7, !dbg !2090

bb4:                                              ; preds = %bb2
  %_4 = icmp ult i32 %code, 65536, !dbg !2091
  br i1 %_4, label %bb5, label %bb6, !dbg !2091

bb3:                                              ; preds = %bb2
  store i64 2, ptr %_0, align 8, !dbg !2092
  br label %bb7, !dbg !2093

bb6:                                              ; preds = %bb4
  store i64 4, ptr %_0, align 8, !dbg !2094
  br label %bb7, !dbg !2095

bb5:                                              ; preds = %bb4
  store i64 3, ptr %_0, align 8, !dbg !2096
  br label %bb7, !dbg !2095

bb7:                                              ; preds = %bb1, %bb3, %bb5, %bb6
  %0 = load i64, ptr %_0, align 8, !dbg !2097, !noundef !29
  ret i64 %0, !dbg !2097
}

; core::hint::unreachable_unchecked
; Function Attrs: inlinehint noredzone noreturn nounwind
define internal void @_ZN4core4hint21unreachable_unchecked17hb2ab3ed44fdddc0cE() unnamed_addr #2 !dbg !2098 {
start:
  br i1 true, label %bb1, label %bb2, !dbg !2103

bb2:                                              ; preds = %_ZN4core4hint21unreachable_unchecked7runtime17he15dd8cf7b95b023E.exit, %start
  unreachable, !dbg !2104

bb1:                                              ; preds = %start
; call core::panicking::panic_nounwind
  call void @_ZN4core9panicking14panic_nounwind17h3f66d49fb2fbf08dE(ptr align 1 @alloc_1eb6f53a157dccb32488e066ad957e6d, i64 82) #11, !dbg !2105
  unreachable, !dbg !2105

_ZN4core4hint21unreachable_unchecked7runtime17he15dd8cf7b95b023E.exit: ; No predecessors!
  br label %bb2, !dbg !2103
}

; core::sync::atomic::AtomicBool::compare_exchange
; Function Attrs: inlinehint noredzone nounwind
define internal { i8, i8 } @_ZN4core4sync6atomic10AtomicBool16compare_exchange17h11144d027c804b44E(ptr align 1 %self, i1 zeroext %current, i1 zeroext %new, i8 %success, i8 %failure) unnamed_addr #0 !dbg !2110 {
start:
  %self.dbg.spill.i = alloca ptr, align 8
  %x.dbg.spill2 = alloca i8, align 1
  %x.dbg.spill = alloca i8, align 1
  %failure.dbg.spill = alloca i8, align 1
  %success.dbg.spill = alloca i8, align 1
  %new.dbg.spill = alloca i8, align 1
  %current.dbg.spill = alloca i8, align 1
  %self.dbg.spill = alloca ptr, align 8
  %_31 = alloca { i8, i8 }, align 1
  %old = alloca i8, align 1
  %_21 = alloca %"core::fmt::Arguments<'_>", align 8
  %_18 = alloca %"core::fmt::Arguments<'_>", align 8
  %_8 = alloca { i8, i8 }, align 1
  %order = alloca i8, align 1
  %_0 = alloca { i8, i8 }, align 1
  store ptr %self, ptr %self.dbg.spill, align 8
  call void @llvm.dbg.declare(metadata ptr %self.dbg.spill, metadata !2131, metadata !DIExpression()), !dbg !2144
  %0 = zext i1 %current to i8
  store i8 %0, ptr %current.dbg.spill, align 1
  call void @llvm.dbg.declare(metadata ptr %current.dbg.spill, metadata !2132, metadata !DIExpression()), !dbg !2145
  %1 = zext i1 %new to i8
  store i8 %1, ptr %new.dbg.spill, align 1
  call void @llvm.dbg.declare(metadata ptr %new.dbg.spill, metadata !2133, metadata !DIExpression()), !dbg !2146
  store i8 %success, ptr %success.dbg.spill, align 1
  call void @llvm.dbg.declare(metadata ptr %success.dbg.spill, metadata !2134, metadata !DIExpression()), !dbg !2147
  store i8 %failure, ptr %failure.dbg.spill, align 1
  call void @llvm.dbg.declare(metadata ptr %failure.dbg.spill, metadata !2135, metadata !DIExpression()), !dbg !2148
  call void @llvm.dbg.declare(metadata ptr %order, metadata !2136, metadata !DIExpression()), !dbg !2149
  call void @llvm.dbg.declare(metadata ptr %old, metadata !2138, metadata !DIExpression()), !dbg !2150
  br i1 false, label %bb1, label %bb28, !dbg !2151

bb28:                                             ; preds = %start
  store ptr %self, ptr %self.dbg.spill.i, align 8
  call void @llvm.dbg.declare(metadata ptr %self.dbg.spill.i, metadata !2152, metadata !DIExpression()), !dbg !2160
  %_34 = zext i1 %current to i8, !dbg !2162
  %_35 = zext i1 %new to i8, !dbg !2163
; call core::sync::atomic::atomic_compare_exchange
  %2 = call { i8, i8 } @_ZN4core4sync6atomic23atomic_compare_exchange17h3e9b3c9261964721E(ptr %self, i8 %_34, i8 %_35, i8 %success, i8 %failure) #9, !dbg !2164
  store { i8, i8 } %2, ptr %_31, align 1, !dbg !2164
  %3 = load i8, ptr %_31, align 1, !dbg !2165, !range !1204, !noundef !29
  %4 = trunc i8 %3 to i1, !dbg !2165
  %_36 = zext i1 %4 to i64, !dbg !2165
  %5 = icmp eq i64 %_36, 0, !dbg !2166
  br i1 %5, label %bb32, label %bb31, !dbg !2166

bb1:                                              ; preds = %start
  store i8 %success, ptr %_8, align 1, !dbg !2167
  %6 = getelementptr inbounds { i8, i8 }, ptr %_8, i32 0, i32 1, !dbg !2167
  store i8 %failure, ptr %6, align 1, !dbg !2167
  %7 = load i8, ptr %_8, align 1, !dbg !2167, !range !2168, !noundef !29
  %_16 = zext i8 %7 to i64, !dbg !2167
  %8 = icmp eq i64 %_16, 4, !dbg !2169
  br i1 %8, label %bb11, label %bb2, !dbg !2169

bb32:                                             ; preds = %bb28
  %9 = getelementptr inbounds { i8, i8 }, ptr %_31, i32 0, i32 1, !dbg !2170
  %x = load i8, ptr %9, align 1, !dbg !2170, !noundef !29
  store i8 %x, ptr %x.dbg.spill, align 1, !dbg !2170
  call void @llvm.dbg.declare(metadata ptr %x.dbg.spill, metadata !2140, metadata !DIExpression()), !dbg !2171
  %_38 = icmp ne i8 %x, 0, !dbg !2172
  %10 = getelementptr inbounds { i8, i8 }, ptr %_0, i32 0, i32 1, !dbg !2173
  %11 = zext i1 %_38 to i8, !dbg !2173
  store i8 %11, ptr %10, align 1, !dbg !2173
  store i8 0, ptr %_0, align 1, !dbg !2173
  br label %bb33, !dbg !2174

bb31:                                             ; preds = %bb28
  %12 = getelementptr inbounds { i8, i8 }, ptr %_31, i32 0, i32 1, !dbg !2175
  %x1 = load i8, ptr %12, align 1, !dbg !2175, !noundef !29
  store i8 %x1, ptr %x.dbg.spill2, align 1, !dbg !2175
  call void @llvm.dbg.declare(metadata ptr %x.dbg.spill2, metadata !2142, metadata !DIExpression()), !dbg !2176
  %_40 = icmp ne i8 %x1, 0, !dbg !2177
  %13 = getelementptr inbounds { i8, i8 }, ptr %_0, i32 0, i32 1, !dbg !2178
  %14 = zext i1 %_40 to i8, !dbg !2178
  store i8 %14, ptr %13, align 1, !dbg !2178
  store i8 1, ptr %_0, align 1, !dbg !2178
  br label %bb33, !dbg !2179

bb33:                                             ; preds = %bb26, %bb27, %bb31, %bb32
  %15 = getelementptr inbounds { i8, i8 }, ptr %_0, i32 0, i32 0, !dbg !2180
  %16 = load i8, ptr %15, align 1, !dbg !2180, !range !1204, !noundef !29
  %17 = trunc i8 %16 to i1, !dbg !2180
  %18 = getelementptr inbounds { i8, i8 }, ptr %_0, i32 0, i32 1, !dbg !2180
  %19 = load i8, ptr %18, align 1, !dbg !2180, !noundef !29
  %20 = zext i1 %17 to i8, !dbg !2180
  %21 = insertvalue { i8, i8 } poison, i8 %20, 0, !dbg !2180
  %22 = insertvalue { i8, i8 } %21, i8 %19, 1, !dbg !2180
  ret { i8, i8 } %22, !dbg !2180

bb11:                                             ; preds = %bb1
  store i8 4, ptr %order, align 1, !dbg !2181
  br label %bb22, !dbg !2181

bb2:                                              ; preds = %bb1
  %23 = getelementptr inbounds { i8, i8 }, ptr %_8, i32 0, i32 1, !dbg !2167
  %24 = load i8, ptr %23, align 1, !dbg !2167, !range !2168, !noundef !29
  %_15 = zext i8 %24 to i64, !dbg !2167
  %25 = icmp eq i64 %_15, 4, !dbg !2169
  br i1 %25, label %bb12, label %bb3, !dbg !2169

bb22:                                             ; preds = %bb18, %bb19, %bb9, %bb17, %bb16, %bb13, %bb12, %bb11
  %_24 = icmp eq i1 %current, %new, !dbg !2182
  br i1 %_24, label %bb23, label %bb24, !dbg !2182

bb12:                                             ; preds = %bb2
  store i8 4, ptr %order, align 1, !dbg !2183
  br label %bb22, !dbg !2183

bb3:                                              ; preds = %bb2
  %26 = load i8, ptr %_8, align 1, !dbg !2167, !range !2168, !noundef !29
  %_14 = zext i8 %26 to i64, !dbg !2167
  %27 = icmp eq i64 %_14, 3, !dbg !2169
  br i1 %27, label %bb13, label %bb4, !dbg !2169

bb13:                                             ; preds = %bb3
  store i8 3, ptr %order, align 1, !dbg !2184
  br label %bb22, !dbg !2184

bb4:                                              ; preds = %bb3
  %28 = getelementptr inbounds { i8, i8 }, ptr %_8, i32 0, i32 1, !dbg !2167
  %29 = load i8, ptr %28, align 1, !dbg !2167, !range !2168, !noundef !29
  %_13 = zext i8 %29 to i64, !dbg !2167
  switch i64 %_13, label %bb5 [
    i64 2, label %bb6
    i64 3, label %bb14
  ], !dbg !2169

bb5:                                              ; preds = %bb6, %bb4
  %30 = load i8, ptr %_8, align 1, !dbg !2167, !range !2168, !noundef !29
  %_12 = zext i8 %30 to i64, !dbg !2167
  %31 = icmp eq i64 %_12, 2, !dbg !2169
  br i1 %31, label %bb17, label %bb7, !dbg !2169

bb6:                                              ; preds = %bb4
  %32 = load i8, ptr %_8, align 1, !dbg !2167, !range !2168, !noundef !29
  %_9 = zext i8 %32 to i64, !dbg !2167
  %33 = icmp eq i64 %_9, 1, !dbg !2169
  br i1 %33, label %bb16, label %bb5, !dbg !2169

bb14:                                             ; preds = %bb4
; call core::fmt::Arguments::new_const
  call void @_ZN4core3fmt9Arguments9new_const17h7e86e3f18be9a412E(ptr sret(%"core::fmt::Arguments<'_>") align 8 %_18, ptr align 8 @alloc_dd7d8f77c173bf31726eae321f955bec, i64 1) #9, !dbg !2185
; call core::panicking::panic_fmt
  call void @_ZN4core9panicking9panic_fmt17h7c3b1a7d9368f16cE(ptr align 8 %_18, ptr align 8 @alloc_122716f189323124cb0c05846480a00c) #11, !dbg !2185
  unreachable, !dbg !2185

bb16:                                             ; preds = %bb6
  store i8 3, ptr %order, align 1, !dbg !2186
  br label %bb22, !dbg !2186

bb17:                                             ; preds = %bb5
  store i8 2, ptr %order, align 1, !dbg !2187
  br label %bb22, !dbg !2187

bb7:                                              ; preds = %bb5
  %34 = getelementptr inbounds { i8, i8 }, ptr %_8, i32 0, i32 1, !dbg !2167
  %35 = load i8, ptr %34, align 1, !dbg !2167, !range !2168, !noundef !29
  %_11 = zext i8 %35 to i64, !dbg !2167
  switch i64 %_11, label %bb10 [
    i64 0, label %bb8
    i64 1, label %bb20
    i64 2, label %bb18
  ], !dbg !2169

bb10:                                             ; preds = %bb7
  unreachable, !dbg !2167

bb8:                                              ; preds = %bb7
  %36 = load i8, ptr %_8, align 1, !dbg !2167, !range !2168, !noundef !29
  %_10 = zext i8 %36 to i64, !dbg !2167
  %37 = icmp eq i64 %_10, 0, !dbg !2169
  br i1 %37, label %bb9, label %bb19, !dbg !2169

bb20:                                             ; preds = %bb7
; call core::fmt::Arguments::new_const
  call void @_ZN4core3fmt9Arguments9new_const17h7e86e3f18be9a412E(ptr sret(%"core::fmt::Arguments<'_>") align 8 %_21, ptr align 8 @alloc_04ab601c54c6e0a22ff11d72dc7f4511, i64 1) #9, !dbg !2188
; call core::panicking::panic_fmt
  call void @_ZN4core9panicking9panic_fmt17h7c3b1a7d9368f16cE(ptr align 8 %_21, ptr align 8 @alloc_1b2d53547632b0cd8d68abf128d934e0) #11, !dbg !2188
  unreachable, !dbg !2188

bb18:                                             ; preds = %bb7
  store i8 2, ptr %order, align 1, !dbg !2189
  br label %bb22, !dbg !2189

bb9:                                              ; preds = %bb8
  store i8 0, ptr %order, align 1, !dbg !2190
  br label %bb22, !dbg !2190

bb19:                                             ; preds = %bb8
  store i8 1, ptr %order, align 1, !dbg !2191
  br label %bb22, !dbg !2191

bb24:                                             ; preds = %bb22
  %_26 = load i8, ptr %order, align 1, !dbg !2192, !range !2168, !noundef !29
; call core::sync::atomic::AtomicBool::swap
  %38 = call zeroext i1 @_ZN4core4sync6atomic10AtomicBool4swap17hd4a8e13e763ce416E(ptr align 1 %self, i1 zeroext %new, i8 %_26) #9, !dbg !2193
  %39 = zext i1 %38 to i8, !dbg !2193
  store i8 %39, ptr %old, align 1, !dbg !2193
  br label %bb25, !dbg !2193

bb23:                                             ; preds = %bb22
  %_25 = load i8, ptr %order, align 1, !dbg !2194, !range !2168, !noundef !29
; call core::sync::atomic::AtomicBool::fetch_or
  %40 = call zeroext i1 @_ZN4core4sync6atomic10AtomicBool8fetch_or17h30a84fbe2eabd504E(ptr align 1 %self, i1 zeroext false, i8 %_25) #9, !dbg !2195
  %41 = zext i1 %40 to i8, !dbg !2195
  store i8 %41, ptr %old, align 1, !dbg !2195
  br label %bb25, !dbg !2195

bb25:                                             ; preds = %bb23, %bb24
  %42 = load i8, ptr %old, align 1, !dbg !2196, !range !1204, !noundef !29
  %_28 = trunc i8 %42 to i1, !dbg !2196
  %_27 = icmp eq i1 %_28, %current, !dbg !2196
  br i1 %_27, label %bb26, label %bb27, !dbg !2196

bb27:                                             ; preds = %bb25
  %43 = load i8, ptr %old, align 1, !dbg !2197, !range !1204, !noundef !29
  %_30 = trunc i8 %43 to i1, !dbg !2197
  %44 = getelementptr inbounds { i8, i8 }, ptr %_0, i32 0, i32 1, !dbg !2198
  %45 = zext i1 %_30 to i8, !dbg !2198
  store i8 %45, ptr %44, align 1, !dbg !2198
  store i8 1, ptr %_0, align 1, !dbg !2198
  br label %bb33, !dbg !2199

bb26:                                             ; preds = %bb25
  %46 = load i8, ptr %old, align 1, !dbg !2200, !range !1204, !noundef !29
  %_29 = trunc i8 %46 to i1, !dbg !2200
  %47 = getelementptr inbounds { i8, i8 }, ptr %_0, i32 0, i32 1, !dbg !2201
  %48 = zext i1 %_29 to i8, !dbg !2201
  store i8 %48, ptr %47, align 1, !dbg !2201
  store i8 0, ptr %_0, align 1, !dbg !2201
  br label %bb33, !dbg !2199
}

; core::sync::atomic::AtomicBool::compare_exchange_weak
; Function Attrs: inlinehint noredzone nounwind
define internal { i8, i8 } @_ZN4core4sync6atomic10AtomicBool21compare_exchange_weak17h24c44894b7c69508E(ptr align 1 %self, i1 zeroext %current, i1 zeroext %new, i8 %success, i8 %failure) unnamed_addr #0 !dbg !2202 {
start:
  %self.dbg.spill.i = alloca ptr, align 8
  %x.dbg.spill2 = alloca i8, align 1
  %x.dbg.spill = alloca i8, align 1
  %failure.dbg.spill = alloca i8, align 1
  %success.dbg.spill = alloca i8, align 1
  %new.dbg.spill = alloca i8, align 1
  %current.dbg.spill = alloca i8, align 1
  %self.dbg.spill = alloca ptr, align 8
  %_7 = alloca { i8, i8 }, align 1
  %_0 = alloca { i8, i8 }, align 1
  store ptr %self, ptr %self.dbg.spill, align 8
  call void @llvm.dbg.declare(metadata ptr %self.dbg.spill, metadata !2205, metadata !DIExpression()), !dbg !2214
  %0 = zext i1 %current to i8
  store i8 %0, ptr %current.dbg.spill, align 1
  call void @llvm.dbg.declare(metadata ptr %current.dbg.spill, metadata !2206, metadata !DIExpression()), !dbg !2215
  %1 = zext i1 %new to i8
  store i8 %1, ptr %new.dbg.spill, align 1
  call void @llvm.dbg.declare(metadata ptr %new.dbg.spill, metadata !2207, metadata !DIExpression()), !dbg !2216
  store i8 %success, ptr %success.dbg.spill, align 1
  call void @llvm.dbg.declare(metadata ptr %success.dbg.spill, metadata !2208, metadata !DIExpression()), !dbg !2217
  store i8 %failure, ptr %failure.dbg.spill, align 1
  call void @llvm.dbg.declare(metadata ptr %failure.dbg.spill, metadata !2209, metadata !DIExpression()), !dbg !2218
  br i1 false, label %bb1, label %bb2, !dbg !2219

bb2:                                              ; preds = %start
  store ptr %self, ptr %self.dbg.spill.i, align 8
  call void @llvm.dbg.declare(metadata ptr %self.dbg.spill.i, metadata !2152, metadata !DIExpression()), !dbg !2220
  %_10 = zext i1 %current to i8, !dbg !2222
  %_11 = zext i1 %new to i8, !dbg !2223
; call core::sync::atomic::atomic_compare_exchange_weak
  %2 = call { i8, i8 } @_ZN4core4sync6atomic28atomic_compare_exchange_weak17h157bcbf70a83e135E(ptr %self, i8 %_10, i8 %_11, i8 %success, i8 %failure) #9, !dbg !2224
  store { i8, i8 } %2, ptr %_7, align 1, !dbg !2224
  %3 = load i8, ptr %_7, align 1, !dbg !2225, !range !1204, !noundef !29
  %4 = trunc i8 %3 to i1, !dbg !2225
  %_12 = zext i1 %4 to i64, !dbg !2225
  %5 = icmp eq i64 %_12, 0, !dbg !2226
  br i1 %5, label %bb7, label %bb5, !dbg !2226

bb1:                                              ; preds = %start
; call core::sync::atomic::AtomicBool::compare_exchange
  %6 = call { i8, i8 } @_ZN4core4sync6atomic10AtomicBool16compare_exchange17h11144d027c804b44E(ptr align 1 %self, i1 zeroext %current, i1 zeroext %new, i8 %success, i8 %failure) #9, !dbg !2227
  store { i8, i8 } %6, ptr %_0, align 1, !dbg !2227
  br label %bb8, !dbg !2227

bb7:                                              ; preds = %bb2
  %7 = getelementptr inbounds { i8, i8 }, ptr %_7, i32 0, i32 1, !dbg !2228
  %x = load i8, ptr %7, align 1, !dbg !2228, !noundef !29
  store i8 %x, ptr %x.dbg.spill, align 1, !dbg !2228
  call void @llvm.dbg.declare(metadata ptr %x.dbg.spill, metadata !2210, metadata !DIExpression()), !dbg !2229
  %_14 = icmp ne i8 %x, 0, !dbg !2230
  %8 = getelementptr inbounds { i8, i8 }, ptr %_0, i32 0, i32 1, !dbg !2231
  %9 = zext i1 %_14 to i8, !dbg !2231
  store i8 %9, ptr %8, align 1, !dbg !2231
  store i8 0, ptr %_0, align 1, !dbg !2231
  br label %bb8, !dbg !2232

bb5:                                              ; preds = %bb2
  %10 = getelementptr inbounds { i8, i8 }, ptr %_7, i32 0, i32 1, !dbg !2233
  %x1 = load i8, ptr %10, align 1, !dbg !2233, !noundef !29
  store i8 %x1, ptr %x.dbg.spill2, align 1, !dbg !2233
  call void @llvm.dbg.declare(metadata ptr %x.dbg.spill2, metadata !2212, metadata !DIExpression()), !dbg !2234
  %_16 = icmp ne i8 %x1, 0, !dbg !2235
  %11 = getelementptr inbounds { i8, i8 }, ptr %_0, i32 0, i32 1, !dbg !2236
  %12 = zext i1 %_16 to i8, !dbg !2236
  store i8 %12, ptr %11, align 1, !dbg !2236
  store i8 1, ptr %_0, align 1, !dbg !2236
  br label %bb8, !dbg !2237

bb8:                                              ; preds = %bb1, %bb5, %bb7
  %13 = getelementptr inbounds { i8, i8 }, ptr %_0, i32 0, i32 0, !dbg !2238
  %14 = load i8, ptr %13, align 1, !dbg !2238, !range !1204, !noundef !29
  %15 = trunc i8 %14 to i1, !dbg !2238
  %16 = getelementptr inbounds { i8, i8 }, ptr %_0, i32 0, i32 1, !dbg !2238
  %17 = load i8, ptr %16, align 1, !dbg !2238, !noundef !29
  %18 = zext i1 %15 to i8, !dbg !2238
  %19 = insertvalue { i8, i8 } poison, i8 %18, 0, !dbg !2238
  %20 = insertvalue { i8, i8 } %19, i8 %17, 1, !dbg !2238
  ret { i8, i8 } %20, !dbg !2238

bb6:                                              ; No predecessors!
  unreachable, !dbg !2225
}

; core::sync::atomic::AtomicBool::new
; Function Attrs: inlinehint noredzone nounwind
define internal i8 @_ZN4core4sync6atomic10AtomicBool3new17h0a5c48bacc2912a4E(i1 zeroext %v) unnamed_addr #0 !dbg !2239 {
start:
  %value.dbg.spill.i = alloca i8, align 1
  %_0.i = alloca i8, align 1
  %v.dbg.spill = alloca i8, align 1
  %_0 = alloca %"core::sync::atomic::AtomicBool", align 1
  %0 = zext i1 %v to i8
  store i8 %0, ptr %v.dbg.spill, align 1
  call void @llvm.dbg.declare(metadata ptr %v.dbg.spill, metadata !2244, metadata !DIExpression()), !dbg !2245
  %_3 = zext i1 %v to i8, !dbg !2246
  store i8 %_3, ptr %value.dbg.spill.i, align 1
  call void @llvm.dbg.declare(metadata ptr %value.dbg.spill.i, metadata !2247, metadata !DIExpression()), !dbg !2253
  store i8 %_3, ptr %_0.i, align 1, !dbg !2255
  %1 = load i8, ptr %_0.i, align 1, !dbg !2256, !noundef !29
  store i8 %1, ptr %_0, align 1, !dbg !2257
  %2 = load i8, ptr %_0, align 1, !dbg !2258
  ret i8 %2, !dbg !2258
}

; core::sync::atomic::AtomicBool::load
; Function Attrs: inlinehint noredzone nounwind
define internal zeroext i1 @_ZN4core4sync6atomic10AtomicBool4load17hc68e973c7b67517fE(ptr align 1 %self, i8 %order) unnamed_addr #0 !dbg !2259 {
start:
  %self.dbg.spill.i = alloca ptr, align 8
  %order.dbg.spill = alloca i8, align 1
  %self.dbg.spill = alloca ptr, align 8
  store ptr %self, ptr %self.dbg.spill, align 8
  call void @llvm.dbg.declare(metadata ptr %self.dbg.spill, metadata !2264, metadata !DIExpression()), !dbg !2266
  store i8 %order, ptr %order.dbg.spill, align 1
  call void @llvm.dbg.declare(metadata ptr %order.dbg.spill, metadata !2265, metadata !DIExpression()), !dbg !2267
  store ptr %self, ptr %self.dbg.spill.i, align 8
  call void @llvm.dbg.declare(metadata ptr %self.dbg.spill.i, metadata !2152, metadata !DIExpression()), !dbg !2268
; call core::sync::atomic::atomic_load
  %_3 = call i8 @_ZN4core4sync6atomic11atomic_load17h2089659f168563beE(ptr %self, i8 %order) #9, !dbg !2270
  %_0 = icmp ne i8 %_3, 0, !dbg !2270
  ret i1 %_0, !dbg !2271
}

; core::sync::atomic::AtomicBool::swap
; Function Attrs: inlinehint noredzone nounwind
define internal zeroext i1 @_ZN4core4sync6atomic10AtomicBool4swap17hd4a8e13e763ce416E(ptr align 1 %self, i1 zeroext %val, i8 %order) unnamed_addr #0 !dbg !2272 {
start:
  %self.dbg.spill.i = alloca ptr, align 8
  %order.dbg.spill = alloca i8, align 1
  %val.dbg.spill = alloca i8, align 1
  %self.dbg.spill = alloca ptr, align 8
  %_0 = alloca i8, align 1
  store ptr %self, ptr %self.dbg.spill, align 8
  call void @llvm.dbg.declare(metadata ptr %self.dbg.spill, metadata !2277, metadata !DIExpression()), !dbg !2280
  %0 = zext i1 %val to i8
  store i8 %0, ptr %val.dbg.spill, align 1
  call void @llvm.dbg.declare(metadata ptr %val.dbg.spill, metadata !2278, metadata !DIExpression()), !dbg !2281
  store i8 %order, ptr %order.dbg.spill, align 1
  call void @llvm.dbg.declare(metadata ptr %order.dbg.spill, metadata !2279, metadata !DIExpression()), !dbg !2282
  br i1 false, label %bb1, label %bb4, !dbg !2283

bb4:                                              ; preds = %start
  store ptr %self, ptr %self.dbg.spill.i, align 8
  call void @llvm.dbg.declare(metadata ptr %self.dbg.spill.i, metadata !2152, metadata !DIExpression()), !dbg !2284
  %_8 = zext i1 %val to i8, !dbg !2286
; call core::sync::atomic::atomic_swap
  %_5 = call i8 @_ZN4core4sync6atomic11atomic_swap17h39c183426021c437E(ptr %self, i8 %_8, i8 %order) #9, !dbg !2287
  %1 = icmp ne i8 %_5, 0, !dbg !2287
  %2 = zext i1 %1 to i8, !dbg !2287
  store i8 %2, ptr %_0, align 1, !dbg !2287
  br label %bb7, !dbg !2288

bb1:                                              ; preds = %start
  br i1 %val, label %bb2, label %bb3, !dbg !2289

bb7:                                              ; preds = %bb2, %bb3, %bb4
  %3 = load i8, ptr %_0, align 1, !dbg !2290, !range !1204, !noundef !29
  %4 = trunc i8 %3 to i1, !dbg !2290
  ret i1 %4, !dbg !2290

bb3:                                              ; preds = %bb1
; call core::sync::atomic::AtomicBool::fetch_and
  %5 = call zeroext i1 @_ZN4core4sync6atomic10AtomicBool9fetch_and17h57647f7c2dbab809E(ptr align 1 %self, i1 zeroext false, i8 %order) #9, !dbg !2291
  %6 = zext i1 %5 to i8, !dbg !2291
  store i8 %6, ptr %_0, align 1, !dbg !2291
  br label %bb7, !dbg !2291

bb2:                                              ; preds = %bb1
; call core::sync::atomic::AtomicBool::fetch_or
  %7 = call zeroext i1 @_ZN4core4sync6atomic10AtomicBool8fetch_or17h30a84fbe2eabd504E(ptr align 1 %self, i1 zeroext true, i8 %order) #9, !dbg !2292
  %8 = zext i1 %7 to i8, !dbg !2292
  store i8 %8, ptr %_0, align 1, !dbg !2292
  br label %bb7, !dbg !2292
}

; core::sync::atomic::AtomicBool::store
; Function Attrs: inlinehint noredzone nounwind
define internal void @_ZN4core4sync6atomic10AtomicBool5store17ha9e43024122ddea5E(ptr align 1 %self, i1 zeroext %val, i8 %order) unnamed_addr #0 !dbg !2293 {
start:
  %self.dbg.spill.i = alloca ptr, align 8
  %order.dbg.spill = alloca i8, align 1
  %val.dbg.spill = alloca i8, align 1
  %self.dbg.spill = alloca ptr, align 8
  store ptr %self, ptr %self.dbg.spill, align 8
  call void @llvm.dbg.declare(metadata ptr %self.dbg.spill, metadata !2298, metadata !DIExpression()), !dbg !2301
  %0 = zext i1 %val to i8
  store i8 %0, ptr %val.dbg.spill, align 1
  call void @llvm.dbg.declare(metadata ptr %val.dbg.spill, metadata !2299, metadata !DIExpression()), !dbg !2302
  store i8 %order, ptr %order.dbg.spill, align 1
  call void @llvm.dbg.declare(metadata ptr %order.dbg.spill, metadata !2300, metadata !DIExpression()), !dbg !2303
  store ptr %self, ptr %self.dbg.spill.i, align 8
  call void @llvm.dbg.declare(metadata ptr %self.dbg.spill.i, metadata !2152, metadata !DIExpression()), !dbg !2304
  %_7 = zext i1 %val to i8, !dbg !2306
; call core::sync::atomic::atomic_store
  call void @_ZN4core4sync6atomic12atomic_store17hea7dd092d572ece5E(ptr %self, i8 %_7, i8 %order) #9, !dbg !2307
  ret void, !dbg !2308
}

; core::sync::atomic::AtomicBool::fetch_or
; Function Attrs: inlinehint noredzone nounwind
define internal zeroext i1 @_ZN4core4sync6atomic10AtomicBool8fetch_or17h30a84fbe2eabd504E(ptr align 1 %self, i1 zeroext %val, i8 %order) unnamed_addr #0 !dbg !2309 {
start:
  %self.dbg.spill.i = alloca ptr, align 8
  %order.dbg.spill = alloca i8, align 1
  %val.dbg.spill = alloca i8, align 1
  %self.dbg.spill = alloca ptr, align 8
  store ptr %self, ptr %self.dbg.spill, align 8
  call void @llvm.dbg.declare(metadata ptr %self.dbg.spill, metadata !2312, metadata !DIExpression()), !dbg !2315
  %0 = zext i1 %val to i8
  store i8 %0, ptr %val.dbg.spill, align 1
  call void @llvm.dbg.declare(metadata ptr %val.dbg.spill, metadata !2313, metadata !DIExpression()), !dbg !2316
  store i8 %order, ptr %order.dbg.spill, align 1
  call void @llvm.dbg.declare(metadata ptr %order.dbg.spill, metadata !2314, metadata !DIExpression()), !dbg !2317
  store ptr %self, ptr %self.dbg.spill.i, align 8
  call void @llvm.dbg.declare(metadata ptr %self.dbg.spill.i, metadata !2152, metadata !DIExpression()), !dbg !2318
  %_7 = zext i1 %val to i8, !dbg !2320
; call core::sync::atomic::atomic_or
  %_4 = call i8 @_ZN4core4sync6atomic9atomic_or17h23cbe0de0bf8e28fE(ptr %self, i8 %_7, i8 %order) #9, !dbg !2321
  %_0 = icmp ne i8 %_4, 0, !dbg !2321
  ret i1 %_0, !dbg !2322
}

; core::sync::atomic::AtomicBool::fetch_and
; Function Attrs: inlinehint noredzone nounwind
define internal zeroext i1 @_ZN4core4sync6atomic10AtomicBool9fetch_and17h57647f7c2dbab809E(ptr align 1 %self, i1 zeroext %val, i8 %order) unnamed_addr #0 !dbg !2323 {
start:
  %self.dbg.spill.i = alloca ptr, align 8
  %order.dbg.spill = alloca i8, align 1
  %val.dbg.spill = alloca i8, align 1
  %self.dbg.spill = alloca ptr, align 8
  store ptr %self, ptr %self.dbg.spill, align 8
  call void @llvm.dbg.declare(metadata ptr %self.dbg.spill, metadata !2326, metadata !DIExpression()), !dbg !2329
  %0 = zext i1 %val to i8
  store i8 %0, ptr %val.dbg.spill, align 1
  call void @llvm.dbg.declare(metadata ptr %val.dbg.spill, metadata !2327, metadata !DIExpression()), !dbg !2330
  store i8 %order, ptr %order.dbg.spill, align 1
  call void @llvm.dbg.declare(metadata ptr %order.dbg.spill, metadata !2328, metadata !DIExpression()), !dbg !2331
  store ptr %self, ptr %self.dbg.spill.i, align 8
  call void @llvm.dbg.declare(metadata ptr %self.dbg.spill.i, metadata !2152, metadata !DIExpression()), !dbg !2332
  %_7 = zext i1 %val to i8, !dbg !2334
; call core::sync::atomic::atomic_and
  %_4 = call i8 @_ZN4core4sync6atomic10atomic_and17hba2da852b92f1b36E(ptr %self, i8 %_7, i8 %order) #9, !dbg !2335
  %_0 = icmp ne i8 %_4, 0, !dbg !2335
  ret i1 %_0, !dbg !2336
}

; core::sync::atomic::AtomicUsize::compare_and_swap
; Function Attrs: inlinehint noredzone nounwind
define internal i64 @_ZN4core4sync6atomic11AtomicUsize16compare_and_swap17h0aa75138b8c3b007E(ptr align 8 %self, i64 %current, i64 %new, i8 %order) unnamed_addr #0 !dbg !2337 {
start:
  %x.dbg.spill2 = alloca i64, align 8
  %x.dbg.spill = alloca i64, align 8
  %order.dbg.spill = alloca i8, align 1
  %new.dbg.spill = alloca i64, align 8
  %current.dbg.spill = alloca i64, align 8
  %self.dbg.spill = alloca ptr, align 8
  %_5 = alloca { i64, i64 }, align 8
  %_0 = alloca i64, align 8
  store ptr %self, ptr %self.dbg.spill, align 8
  call void @llvm.dbg.declare(metadata ptr %self.dbg.spill, metadata !2343, metadata !DIExpression()), !dbg !2351
  store i64 %current, ptr %current.dbg.spill, align 8
  call void @llvm.dbg.declare(metadata ptr %current.dbg.spill, metadata !2344, metadata !DIExpression()), !dbg !2352
  store i64 %new, ptr %new.dbg.spill, align 8
  call void @llvm.dbg.declare(metadata ptr %new.dbg.spill, metadata !2345, metadata !DIExpression()), !dbg !2353
  store i8 %order, ptr %order.dbg.spill, align 1
  call void @llvm.dbg.declare(metadata ptr %order.dbg.spill, metadata !2346, metadata !DIExpression()), !dbg !2354
; call core::sync::atomic::strongest_failure_ordering
  %_6 = call i8 @_ZN4core4sync6atomic26strongest_failure_ordering17ha8ed5fa0647073e2E(i8 %order) #9, !dbg !2355, !range !2168
; call core::sync::atomic::AtomicUsize::compare_exchange
  %0 = call { i64, i64 } @_ZN4core4sync6atomic11AtomicUsize16compare_exchange17h17cad8485391a0cdE(ptr align 8 %self, i64 %current, i64 %new, i8 %order, i8 %_6) #9, !dbg !2356
  store { i64, i64 } %0, ptr %_5, align 8, !dbg !2356
  %_7 = load i64, ptr %_5, align 8, !dbg !2356, !range !1381, !noundef !29
  %1 = icmp eq i64 %_7, 0, !dbg !2357
  br i1 %1, label %bb5, label %bb3, !dbg !2357

bb5:                                              ; preds = %start
  %2 = getelementptr inbounds { i64, i64 }, ptr %_5, i32 0, i32 1, !dbg !2358
  %x = load i64, ptr %2, align 8, !dbg !2358, !noundef !29
  store i64 %x, ptr %x.dbg.spill, align 8, !dbg !2358
  call void @llvm.dbg.declare(metadata ptr %x.dbg.spill, metadata !2347, metadata !DIExpression()), !dbg !2359
  store i64 %x, ptr %_0, align 8, !dbg !2360
  br label %bb6, !dbg !2361

bb3:                                              ; preds = %start
  %3 = getelementptr inbounds { i64, i64 }, ptr %_5, i32 0, i32 1, !dbg !2362
  %x1 = load i64, ptr %3, align 8, !dbg !2362, !noundef !29
  store i64 %x1, ptr %x.dbg.spill2, align 8, !dbg !2362
  call void @llvm.dbg.declare(metadata ptr %x.dbg.spill2, metadata !2349, metadata !DIExpression()), !dbg !2363
  store i64 %x1, ptr %_0, align 8, !dbg !2364
  br label %bb6, !dbg !2365

bb6:                                              ; preds = %bb3, %bb5
  %4 = load i64, ptr %_0, align 8, !dbg !2366, !noundef !29
  ret i64 %4, !dbg !2366

bb4:                                              ; No predecessors!
  unreachable, !dbg !2356
}

; core::sync::atomic::AtomicUsize::compare_exchange
; Function Attrs: inlinehint noredzone nounwind
define internal { i64, i64 } @_ZN4core4sync6atomic11AtomicUsize16compare_exchange17h17cad8485391a0cdE(ptr align 8 %self, i64 %current, i64 %new, i8 %success, i8 %failure) unnamed_addr #0 !dbg !2367 {
start:
  %self.dbg.spill.i = alloca ptr, align 8
  %failure.dbg.spill = alloca i8, align 1
  %success.dbg.spill = alloca i8, align 1
  %new.dbg.spill = alloca i64, align 8
  %current.dbg.spill = alloca i64, align 8
  %self.dbg.spill = alloca ptr, align 8
  store ptr %self, ptr %self.dbg.spill, align 8
  call void @llvm.dbg.declare(metadata ptr %self.dbg.spill, metadata !2387, metadata !DIExpression()), !dbg !2392
  store i64 %current, ptr %current.dbg.spill, align 8
  call void @llvm.dbg.declare(metadata ptr %current.dbg.spill, metadata !2388, metadata !DIExpression()), !dbg !2393
  store i64 %new, ptr %new.dbg.spill, align 8
  call void @llvm.dbg.declare(metadata ptr %new.dbg.spill, metadata !2389, metadata !DIExpression()), !dbg !2394
  store i8 %success, ptr %success.dbg.spill, align 1
  call void @llvm.dbg.declare(metadata ptr %success.dbg.spill, metadata !2390, metadata !DIExpression()), !dbg !2395
  store i8 %failure, ptr %failure.dbg.spill, align 1
  call void @llvm.dbg.declare(metadata ptr %failure.dbg.spill, metadata !2391, metadata !DIExpression()), !dbg !2396
  store ptr %self, ptr %self.dbg.spill.i, align 8
  call void @llvm.dbg.declare(metadata ptr %self.dbg.spill.i, metadata !2397, metadata !DIExpression()), !dbg !2405
; call core::sync::atomic::atomic_compare_exchange
  %0 = call { i64, i64 } @_ZN4core4sync6atomic23atomic_compare_exchange17hb0761ffb177c1e5fE(ptr %self, i64 %current, i64 %new, i8 %success, i8 %failure) #9, !dbg !2407
  %_0.0 = extractvalue { i64, i64 } %0, 0, !dbg !2407
  %_0.1 = extractvalue { i64, i64 } %0, 1, !dbg !2407
  %1 = insertvalue { i64, i64 } poison, i64 %_0.0, 0, !dbg !2408
  %2 = insertvalue { i64, i64 } %1, i64 %_0.1, 1, !dbg !2408
  ret { i64, i64 } %2, !dbg !2408
}

; core::sync::atomic::AtomicUsize::load
; Function Attrs: inlinehint noredzone nounwind
define internal i64 @_ZN4core4sync6atomic11AtomicUsize4load17h572622f7043d5487E(ptr align 8 %self, i8 %order) unnamed_addr #0 !dbg !2409 {
start:
  %self.dbg.spill.i = alloca ptr, align 8
  %order.dbg.spill = alloca i8, align 1
  %self.dbg.spill = alloca ptr, align 8
  store ptr %self, ptr %self.dbg.spill, align 8
  call void @llvm.dbg.declare(metadata ptr %self.dbg.spill, metadata !2414, metadata !DIExpression()), !dbg !2416
  store i8 %order, ptr %order.dbg.spill, align 1
  call void @llvm.dbg.declare(metadata ptr %order.dbg.spill, metadata !2415, metadata !DIExpression()), !dbg !2417
  store ptr %self, ptr %self.dbg.spill.i, align 8
  call void @llvm.dbg.declare(metadata ptr %self.dbg.spill.i, metadata !2397, metadata !DIExpression()), !dbg !2418
; call core::sync::atomic::atomic_load
  %_0 = call i64 @_ZN4core4sync6atomic11atomic_load17hc0fe6930d423b940E(ptr %self, i8 %order) #9, !dbg !2420
  ret i64 %_0, !dbg !2421
}

; core::sync::atomic::AtomicUsize::store
; Function Attrs: inlinehint noredzone nounwind
define internal void @_ZN4core4sync6atomic11AtomicUsize5store17h31c2d88cac9020a7E(ptr align 8 %self, i64 %val, i8 %order) unnamed_addr #0 !dbg !2422 {
start:
  %self.dbg.spill.i = alloca ptr, align 8
  %order.dbg.spill = alloca i8, align 1
  %val.dbg.spill = alloca i64, align 8
  %self.dbg.spill = alloca ptr, align 8
  store ptr %self, ptr %self.dbg.spill, align 8
  call void @llvm.dbg.declare(metadata ptr %self.dbg.spill, metadata !2427, metadata !DIExpression()), !dbg !2430
  store i64 %val, ptr %val.dbg.spill, align 8
  call void @llvm.dbg.declare(metadata ptr %val.dbg.spill, metadata !2428, metadata !DIExpression()), !dbg !2431
  store i8 %order, ptr %order.dbg.spill, align 1
  call void @llvm.dbg.declare(metadata ptr %order.dbg.spill, metadata !2429, metadata !DIExpression()), !dbg !2432
  store ptr %self, ptr %self.dbg.spill.i, align 8
  call void @llvm.dbg.declare(metadata ptr %self.dbg.spill.i, metadata !2397, metadata !DIExpression()), !dbg !2433
; call core::sync::atomic::atomic_store
  call void @_ZN4core4sync6atomic12atomic_store17h6df621f43eed357dE(ptr %self, i64 %val, i8 %order) #9, !dbg !2435
  ret void, !dbg !2436
}

; core::sync::atomic::compiler_fence
; Function Attrs: inlinehint noredzone nounwind
define internal void @_ZN4core4sync6atomic14compiler_fence17h2d60c5c25f3acba1E(i8 %0) unnamed_addr #0 !dbg !2437 {
start:
  %_4 = alloca %"core::fmt::Arguments<'_>", align 8
  %order = alloca i8, align 1
  store i8 %0, ptr %order, align 1
  call void @llvm.dbg.declare(metadata ptr %order, metadata !2441, metadata !DIExpression()), !dbg !2442
  %1 = load i8, ptr %order, align 1, !dbg !2443, !range !2168, !noundef !29
  %_2 = zext i8 %1 to i64, !dbg !2443
  switch i64 %_2, label %bb2 [
    i64 0, label %bb1
    i64 1, label %bb4
    i64 2, label %bb3
    i64 3, label %bb5
    i64 4, label %bb6
  ], !dbg !2444

bb2:                                              ; preds = %start
  unreachable, !dbg !2443

bb1:                                              ; preds = %start
; call core::fmt::Arguments::new_const
  call void @_ZN4core3fmt9Arguments9new_const17h7e86e3f18be9a412E(ptr sret(%"core::fmt::Arguments<'_>") align 8 %_4, ptr align 8 @alloc_430204769d39c3fb374968cb14137bf7, i64 1) #9, !dbg !2445
; call core::panicking::panic_fmt
  call void @_ZN4core9panicking9panic_fmt17h7c3b1a7d9368f16cE(ptr align 8 %_4, ptr align 8 @alloc_15e6b65a979077866e1a9c60fd8e7af9) #11, !dbg !2445
  unreachable, !dbg !2445

bb4:                                              ; preds = %start
  fence syncscope("singlethread") release, !dbg !2446
  br label %bb8, !dbg !2446

bb3:                                              ; preds = %start
  fence syncscope("singlethread") acquire, !dbg !2447
  br label %bb8, !dbg !2447

bb5:                                              ; preds = %start
  fence syncscope("singlethread") acq_rel, !dbg !2448
  br label %bb8, !dbg !2448

bb6:                                              ; preds = %start
  fence syncscope("singlethread") seq_cst, !dbg !2449
  br label %bb8, !dbg !2449

bb8:                                              ; preds = %bb6, %bb5, %bb3, %bb4
  ret void, !dbg !2450
}

; core::sync::atomic::spin_loop_hint
; Function Attrs: inlinehint noredzone nounwind
define internal void @_ZN4core4sync6atomic14spin_loop_hint17h9a2dfb1aeb7c19b4E() unnamed_addr #0 !dbg !2451 {
start:
; call core::core_arch::x86::sse2::_mm_pause
  call void @_ZN4core9core_arch3x864sse29_mm_pause17h3385946a52ac77f2E() #9, !dbg !2452
  ret void, !dbg !2455
}

; core::sync::atomic::strongest_failure_ordering
; Function Attrs: inlinehint noredzone nounwind
define internal i8 @_ZN4core4sync6atomic26strongest_failure_ordering17ha8ed5fa0647073e2E(i8 %0) unnamed_addr #0 !dbg !2456 {
start:
  %_0 = alloca i8, align 1
  %order = alloca i8, align 1
  store i8 %0, ptr %order, align 1
  call void @llvm.dbg.declare(metadata ptr %order, metadata !2460, metadata !DIExpression()), !dbg !2461
  %1 = load i8, ptr %order, align 1, !dbg !2462, !range !2168, !noundef !29
  %_2 = zext i8 %1 to i64, !dbg !2462
  switch i64 %_2, label %bb2 [
    i64 0, label %bb4
    i64 1, label %bb3
    i64 2, label %bb6
    i64 3, label %bb1
    i64 4, label %bb5
  ], !dbg !2463

bb2:                                              ; preds = %start
  unreachable, !dbg !2462

bb4:                                              ; preds = %start
  store i8 0, ptr %_0, align 1, !dbg !2464
  br label %bb7, !dbg !2464

bb3:                                              ; preds = %start
  store i8 0, ptr %_0, align 1, !dbg !2465
  br label %bb7, !dbg !2465

bb6:                                              ; preds = %start
  store i8 2, ptr %_0, align 1, !dbg !2466
  br label %bb7, !dbg !2466

bb1:                                              ; preds = %start
  store i8 2, ptr %_0, align 1, !dbg !2467
  br label %bb7, !dbg !2467

bb5:                                              ; preds = %start
  store i8 4, ptr %_0, align 1, !dbg !2468
  br label %bb7, !dbg !2468

bb7:                                              ; preds = %bb5, %bb1, %bb6, %bb3, %bb4
  %2 = load i8, ptr %_0, align 1, !dbg !2469, !range !2168, !noundef !29
  ret i8 %2, !dbg !2469
}

; core::option::Option<T>::as_ref
; Function Attrs: inlinehint noredzone nounwind
define internal align 2 ptr @"_ZN4core6option15Option$LT$T$GT$6as_ref17h1c0da38ff0b77ef0E"(ptr align 2 %self) unnamed_addr #0 !dbg !2470 {
start:
  %x.dbg.spill = alloca ptr, align 8
  %self.dbg.spill = alloca ptr, align 8
  %_0 = alloca ptr, align 8
  store ptr %self, ptr %self.dbg.spill, align 8
  call void @llvm.dbg.declare(metadata ptr %self.dbg.spill, metadata !2491, metadata !DIExpression()), !dbg !2494
  %0 = load i16, ptr %self, align 2, !dbg !2495, !range !2496, !noundef !29
  %_2 = zext i16 %0 to i64, !dbg !2495
  %1 = icmp eq i64 %_2, 0, !dbg !2497
  br i1 %1, label %bb1, label %bb3, !dbg !2497

bb1:                                              ; preds = %start
  store ptr null, ptr %_0, align 8, !dbg !2498
  br label %bb4, !dbg !2498

bb3:                                              ; preds = %start
  %x = getelementptr inbounds %"core::option::Option<spin::mutex::Mutex<keyboard::Keyboard<pc_keyboard::layouts::us104::Us104Key, pc_keyboard::scancodes::set1::ScancodeSet1>>>::Some", ptr %self, i32 0, i32 1, !dbg !2499
  store ptr %x, ptr %x.dbg.spill, align 8, !dbg !2499
  call void @llvm.dbg.declare(metadata ptr %x.dbg.spill, metadata !2492, metadata !DIExpression()), !dbg !2500
  store ptr %x, ptr %_0, align 8, !dbg !2501
  br label %bb4, !dbg !2502

bb4:                                              ; preds = %bb3, %bb1
  %2 = load ptr, ptr %_0, align 8, !dbg !2503, !align !2504, !noundef !29
  ret ptr %2, !dbg !2503

bb2:                                              ; No predecessors!
  unreachable, !dbg !2495
}

; core::option::Option<T>::as_ref
; Function Attrs: inlinehint noredzone nounwind
define internal align 16 ptr @"_ZN4core6option15Option$LT$T$GT$6as_ref17h315f9388c1fcb9eeE"(ptr align 16 %self) unnamed_addr #0 !dbg !2505 {
start:
  %x.dbg.spill = alloca ptr, align 8
  %self.dbg.spill = alloca ptr, align 8
  %_0 = alloca ptr, align 8
  store ptr %self, ptr %self.dbg.spill, align 8
  call void @llvm.dbg.declare(metadata ptr %self.dbg.spill, metadata !2525, metadata !DIExpression()), !dbg !2528
  %0 = getelementptr inbounds %"core::option::Option<cpu_interrupts::interrupt_descriptor_table::SafeInterruptDescriptorTable>", ptr %self, i32 0, i32 1, !dbg !2529
  %1 = load i8, ptr %0, align 2, !dbg !2529, !range !1202, !noundef !29
  %2 = icmp eq i8 %1, 2, !dbg !2529
  %_2 = select i1 %2, i64 0, i64 1, !dbg !2529
  %3 = icmp eq i64 %_2, 0, !dbg !2530
  br i1 %3, label %bb1, label %bb3, !dbg !2530

bb1:                                              ; preds = %start
  store ptr null, ptr %_0, align 8, !dbg !2531
  br label %bb4, !dbg !2531

bb3:                                              ; preds = %start
  store ptr %self, ptr %x.dbg.spill, align 8, !dbg !2532
  call void @llvm.dbg.declare(metadata ptr %x.dbg.spill, metadata !2526, metadata !DIExpression()), !dbg !2533
  store ptr %self, ptr %_0, align 8, !dbg !2534
  br label %bb4, !dbg !2535

bb4:                                              ; preds = %bb3, %bb1
  %4 = load ptr, ptr %_0, align 8, !dbg !2536, !align !2537, !noundef !29
  ret ptr %4, !dbg !2536

bb2:                                              ; No predecessors!
  unreachable, !dbg !2529
}

; core::option::Option<T>::as_ref
; Function Attrs: inlinehint noredzone nounwind
define internal align 8 ptr @"_ZN4core6option15Option$LT$T$GT$6as_ref17hb98d549bc1a00428E"(ptr align 8 %self) unnamed_addr #0 !dbg !2538 {
start:
  %x.dbg.spill = alloca ptr, align 8
  %self.dbg.spill = alloca ptr, align 8
  %_0 = alloca ptr, align 8
  store ptr %self, ptr %self.dbg.spill, align 8
  call void @llvm.dbg.declare(metadata ptr %self.dbg.spill, metadata !2558, metadata !DIExpression()), !dbg !2561
  %_2 = load i64, ptr %self, align 8, !dbg !2562, !range !1381, !noundef !29
  %0 = icmp eq i64 %_2, 0, !dbg !2563
  br i1 %0, label %bb1, label %bb3, !dbg !2563

bb1:                                              ; preds = %start
  store ptr null, ptr %_0, align 8, !dbg !2564
  br label %bb4, !dbg !2564

bb3:                                              ; preds = %start
  %x = getelementptr inbounds %"core::option::Option<spin::mutex::Mutex<vga::Screen>>::Some", ptr %self, i32 0, i32 1, !dbg !2565
  store ptr %x, ptr %x.dbg.spill, align 8, !dbg !2565
  call void @llvm.dbg.declare(metadata ptr %x.dbg.spill, metadata !2559, metadata !DIExpression()), !dbg !2566
  store ptr %x, ptr %_0, align 8, !dbg !2567
  br label %bb4, !dbg !2568

bb4:                                              ; preds = %bb3, %bb1
  %1 = load ptr, ptr %_0, align 8, !dbg !2569, !align !1430, !noundef !29
  ret ptr %1, !dbg !2569

bb2:                                              ; No predecessors!
  unreachable, !dbg !2562
}

; core::core_arch::x86::sse2::_mm_pause
; Function Attrs: inlinehint noredzone nounwind
define internal void @_ZN4core9core_arch3x864sse29_mm_pause17h3385946a52ac77f2E() unnamed_addr #0 !dbg !2570 {
start:
  call void @llvm.x86.sse2.pause() #9, !dbg !2575
  ret void, !dbg !2576
}

; spin::once::Once<T>::call_once
; Function Attrs: noredzone nounwind
define internal align 8 ptr @"_ZN4spin4once13Once$LT$T$GT$9call_once17h046577fed465c78bE"(ptr align 8 %self) unnamed_addr #1 !dbg !2577 {
start:
  %self.dbg.spill.i = alloca ptr, align 8
  %builder.dbg.spill = alloca {}, align 1
  %self.dbg.spill = alloca ptr, align 8
  %_33 = alloca i8, align 1
  %_29 = alloca i8, align 1
  %_23 = alloca i8, align 1
  %_16 = alloca %"spin::mutex::Mutex<vga::Screen>", align 8
  %_15 = alloca %"core::option::Option<spin::mutex::Mutex<vga::Screen>>", align 8
  %finish = alloca { ptr, i8 }, align 8
  %_10 = alloca i8, align 1
  %_5 = alloca i8, align 1
  %status = alloca i64, align 8
  %_0 = alloca ptr, align 8
  store ptr %self, ptr %self.dbg.spill, align 8
  call void @llvm.dbg.declare(metadata ptr %self.dbg.spill, metadata !2586, metadata !DIExpression()), !dbg !2596
  call void @llvm.dbg.declare(metadata ptr %builder.dbg.spill, metadata !2587, metadata !DIExpression()), !dbg !2597
  call void @llvm.dbg.declare(metadata ptr %status, metadata !2588, metadata !DIExpression()), !dbg !2598
  call void @llvm.dbg.declare(metadata ptr %finish, metadata !2590, metadata !DIExpression()), !dbg !2599
  store i8 0, ptr %_33, align 1, !dbg !2600
  store i8 1, ptr %_33, align 1, !dbg !2600
  store i8 4, ptr %_5, align 1, !dbg !2601
  %0 = load i8, ptr %_5, align 1, !dbg !2602, !range !2168, !noundef !29
; call core::sync::atomic::AtomicUsize::load
  %1 = call i64 @_ZN4core4sync6atomic11AtomicUsize4load17h572622f7043d5487E(ptr align 8 %self, i8 %0) #9, !dbg !2602
  store i64 %1, ptr %status, align 8, !dbg !2602
  %_7 = load i64, ptr %status, align 8, !dbg !2603, !noundef !29
  %_6 = icmp eq i64 %_7, 0, !dbg !2603
  br i1 %_6, label %bb2, label %bb10, !dbg !2603

bb10:                                             ; preds = %bb13, %bb2, %start
  %2 = load i64, ptr %status, align 8, !dbg !2604, !noundef !29
  switch i64 %2, label %bb11 [
    i64 0, label %bb12
    i64 1, label %bb13
    i64 3, label %bb16
    i64 2, label %bb17
  ], !dbg !2604

bb2:                                              ; preds = %start
  store i8 4, ptr %_10, align 1, !dbg !2605
  %3 = load i8, ptr %_10, align 1, !dbg !2606, !range !2168, !noundef !29
; call core::sync::atomic::AtomicUsize::compare_and_swap
  %_8 = call i64 @_ZN4core4sync6atomic11AtomicUsize16compare_and_swap17h0aa75138b8c3b007E(ptr align 8 %self, i64 0, i64 1, i8 %3) #9, !dbg !2606
  store i64 %_8, ptr %status, align 8, !dbg !2607
  %_12 = load i64, ptr %status, align 8, !dbg !2608, !noundef !29
  %_11 = icmp eq i64 %_12, 0, !dbg !2608
  br i1 %_11, label %bb4, label %bb10, !dbg !2608

bb4:                                              ; preds = %bb2
  store ptr %self, ptr %finish, align 8, !dbg !2609
  %4 = getelementptr inbounds { ptr, i8 }, ptr %finish, i32 0, i32 1, !dbg !2609
  store i8 1, ptr %4, align 8, !dbg !2609
  store i8 0, ptr %_33, align 1, !dbg !2610
; call core::ops::function::FnOnce::call_once
  call void @_ZN4core3ops8function6FnOnce9call_once17hb314e531850c8ce3E(ptr sret(%"spin::mutex::Mutex<vga::Screen>") align 8 %_16) #9, !dbg !2610
  %5 = getelementptr inbounds %"core::option::Option<spin::mutex::Mutex<vga::Screen>>::Some", ptr %_15, i32 0, i32 1, !dbg !2611
  call void @llvm.memcpy.p0.p0.i64(ptr align 8 %5, ptr align 8 %_16, i64 224, i1 false), !dbg !2611
  store i64 1, ptr %_15, align 8, !dbg !2611
  %_19 = getelementptr inbounds %"spin::once::Once<spin::mutex::Mutex<vga::Screen>>", ptr %self, i32 0, i32 1, !dbg !2612
  store ptr %_19, ptr %self.dbg.spill.i, align 8
  call void @llvm.dbg.declare(metadata ptr %self.dbg.spill.i, metadata !2613, metadata !DIExpression()), !dbg !2621
  call void @llvm.memcpy.p0.p0.i64(ptr align 8 %_19, ptr align 8 %_15, i64 232, i1 false), !dbg !2623
  %6 = getelementptr inbounds { ptr, i8 }, ptr %finish, i32 0, i32 1, !dbg !2624
  store i8 0, ptr %6, align 8, !dbg !2624
  store i64 2, ptr %status, align 8, !dbg !2625
  %_22 = load i64, ptr %status, align 8, !dbg !2626, !noundef !29
  store i8 4, ptr %_23, align 1, !dbg !2627
  %7 = load i8, ptr %_23, align 1, !dbg !2628, !range !2168, !noundef !29
; call core::sync::atomic::AtomicUsize::store
  call void @_ZN4core4sync6atomic11AtomicUsize5store17h31c2d88cac9020a7E(ptr align 8 %self, i64 %_22, i8 %7) #9, !dbg !2628
; call spin::once::Once<T>::force_get
  %_24 = call align 8 ptr @"_ZN4spin4once13Once$LT$T$GT$9force_get17hf36eac5b981d8326E"(ptr align 8 %self) #9, !dbg !2629
  store ptr %_24, ptr %_0, align 8, !dbg !2629
; call core::ptr::drop_in_place<spin::once::Finish>
  call void @"_ZN4core3ptr39drop_in_place$LT$spin..once..Finish$GT$17h2b09c2edc2142a94E"(ptr align 8 %finish) #9, !dbg !2630
  br label %bb19, !dbg !2630

bb11:                                             ; preds = %bb10
; call core::hint::unreachable_unchecked
  call void @_ZN4core4hint21unreachable_unchecked17hb2ab3ed44fdddc0cE() #11, !dbg !2631
  unreachable, !dbg !2631

bb12:                                             ; preds = %bb10
; call core::panicking::panic
  call void @_ZN4core9panicking5panic17h91639042aeeb9621E(ptr align 1 @alloc_a500d906b91607583596fa15e63c2ada, i64 40, ptr align 8 @alloc_5be19f098388ddfa34a5cde2d2c61c94) #11, !dbg !2632
  unreachable, !dbg !2632

bb13:                                             ; preds = %bb10
; call core::sync::atomic::spin_loop_hint
  call void @_ZN4core4sync6atomic14spin_loop_hint17h9a2dfb1aeb7c19b4E() #9, !dbg !2633
  store i8 4, ptr %_29, align 1, !dbg !2634
  %8 = load i8, ptr %_29, align 1, !dbg !2635, !range !2168, !noundef !29
; call core::sync::atomic::AtomicUsize::load
  %_27 = call i64 @_ZN4core4sync6atomic11AtomicUsize4load17h572622f7043d5487E(ptr align 8 %self, i8 %8) #9, !dbg !2635
  store i64 %_27, ptr %status, align 8, !dbg !2636
  br label %bb10, !dbg !2637

bb16:                                             ; preds = %bb10
; call core::panicking::panic
  call void @_ZN4core9panicking5panic17h91639042aeeb9621E(ptr align 1 @alloc_b41ce9db6ff9e09c515cee5b4d05db5e, i64 17, ptr align 8 @alloc_cbdd636a907b817e5acd19150abaf3dc) #11, !dbg !2638
  unreachable, !dbg !2638

bb17:                                             ; preds = %bb10
; call spin::once::Once<T>::force_get
  %_31 = call align 8 ptr @"_ZN4spin4once13Once$LT$T$GT$9force_get17hf36eac5b981d8326E"(ptr align 8 %self) #9, !dbg !2639
  store ptr %_31, ptr %_0, align 8, !dbg !2639
  br label %bb19, !dbg !2640

bb19:                                             ; preds = %bb4, %bb17
  %9 = load i8, ptr %_33, align 1, !dbg !2642, !range !1204, !noundef !29
  %10 = trunc i8 %9 to i1, !dbg !2642
  br i1 %10, label %bb21, label %bb20, !dbg !2642

bb20:                                             ; preds = %bb21, %bb19
  %11 = load ptr, ptr %_0, align 8, !dbg !2643, !nonnull !29, !align !1430, !noundef !29
  ret ptr %11, !dbg !2643

bb21:                                             ; preds = %bb19
  br label %bb20, !dbg !2642
}

; spin::once::Once<T>::call_once
; Function Attrs: noredzone nounwind
define internal align 2 ptr @"_ZN4spin4once13Once$LT$T$GT$9call_once17h5d59e21f03770193E"(ptr align 8 %self) unnamed_addr #1 !dbg !2644 {
start:
  %self.dbg.spill.i = alloca ptr, align 8
  %builder.dbg.spill = alloca {}, align 1
  %self.dbg.spill = alloca ptr, align 8
  %_33 = alloca i8, align 1
  %_29 = alloca i8, align 1
  %_23 = alloca i8, align 1
  %_16 = alloca %"spin::mutex::Mutex<keyboard::Keyboard<pc_keyboard::layouts::us104::Us104Key, pc_keyboard::scancodes::set1::ScancodeSet1>>", align 2
  %_15 = alloca %"core::option::Option<spin::mutex::Mutex<keyboard::Keyboard<pc_keyboard::layouts::us104::Us104Key, pc_keyboard::scancodes::set1::ScancodeSet1>>>", align 2
  %finish = alloca { ptr, i8 }, align 8
  %_10 = alloca i8, align 1
  %_5 = alloca i8, align 1
  %status = alloca i64, align 8
  %_0 = alloca ptr, align 8
  store ptr %self, ptr %self.dbg.spill, align 8
  call void @llvm.dbg.declare(metadata ptr %self.dbg.spill, metadata !2652, metadata !DIExpression()), !dbg !2658
  call void @llvm.dbg.declare(metadata ptr %builder.dbg.spill, metadata !2653, metadata !DIExpression()), !dbg !2659
  call void @llvm.dbg.declare(metadata ptr %status, metadata !2654, metadata !DIExpression()), !dbg !2660
  call void @llvm.dbg.declare(metadata ptr %finish, metadata !2656, metadata !DIExpression()), !dbg !2661
  store i8 0, ptr %_33, align 1, !dbg !2662
  store i8 1, ptr %_33, align 1, !dbg !2662
  store i8 4, ptr %_5, align 1, !dbg !2663
  %0 = load i8, ptr %_5, align 1, !dbg !2664, !range !2168, !noundef !29
; call core::sync::atomic::AtomicUsize::load
  %1 = call i64 @_ZN4core4sync6atomic11AtomicUsize4load17h572622f7043d5487E(ptr align 8 %self, i8 %0) #9, !dbg !2664
  store i64 %1, ptr %status, align 8, !dbg !2664
  %_7 = load i64, ptr %status, align 8, !dbg !2665, !noundef !29
  %_6 = icmp eq i64 %_7, 0, !dbg !2665
  br i1 %_6, label %bb2, label %bb10, !dbg !2665

bb10:                                             ; preds = %bb13, %bb2, %start
  %2 = load i64, ptr %status, align 8, !dbg !2666, !noundef !29
  switch i64 %2, label %bb11 [
    i64 0, label %bb12
    i64 1, label %bb13
    i64 3, label %bb16
    i64 2, label %bb17
  ], !dbg !2666

bb2:                                              ; preds = %start
  store i8 4, ptr %_10, align 1, !dbg !2667
  %3 = load i8, ptr %_10, align 1, !dbg !2668, !range !2168, !noundef !29
; call core::sync::atomic::AtomicUsize::compare_and_swap
  %_8 = call i64 @_ZN4core4sync6atomic11AtomicUsize16compare_and_swap17h0aa75138b8c3b007E(ptr align 8 %self, i64 0, i64 1, i8 %3) #9, !dbg !2668
  store i64 %_8, ptr %status, align 8, !dbg !2669
  %_12 = load i64, ptr %status, align 8, !dbg !2670, !noundef !29
  %_11 = icmp eq i64 %_12, 0, !dbg !2670
  br i1 %_11, label %bb4, label %bb10, !dbg !2670

bb4:                                              ; preds = %bb2
  store ptr %self, ptr %finish, align 8, !dbg !2671
  %4 = getelementptr inbounds { ptr, i8 }, ptr %finish, i32 0, i32 1, !dbg !2671
  store i8 1, ptr %4, align 8, !dbg !2671
  store i8 0, ptr %_33, align 1, !dbg !2672
; call core::ops::function::FnOnce::call_once
  call void @_ZN4core3ops8function6FnOnce9call_once17h5d2a2cebfcd1b515E(ptr sret(%"spin::mutex::Mutex<keyboard::Keyboard<pc_keyboard::layouts::us104::Us104Key, pc_keyboard::scancodes::set1::ScancodeSet1>>") align 2 %_16) #9, !dbg !2672
  %5 = getelementptr inbounds %"core::option::Option<spin::mutex::Mutex<keyboard::Keyboard<pc_keyboard::layouts::us104::Us104Key, pc_keyboard::scancodes::set1::ScancodeSet1>>>::Some", ptr %_15, i32 0, i32 1, !dbg !2673
  call void @llvm.memcpy.p0.p0.i64(ptr align 2 %5, ptr align 2 %_16, i64 18, i1 false), !dbg !2673
  store i16 1, ptr %_15, align 2, !dbg !2673
  %_19 = getelementptr inbounds %"spin::once::Once<spin::mutex::Mutex<keyboard::Keyboard<pc_keyboard::layouts::us104::Us104Key, pc_keyboard::scancodes::set1::ScancodeSet1>>>", ptr %self, i32 0, i32 1, !dbg !2674
  store ptr %_19, ptr %self.dbg.spill.i, align 8
  call void @llvm.dbg.declare(metadata ptr %self.dbg.spill.i, metadata !2675, metadata !DIExpression()), !dbg !2683
  call void @llvm.memcpy.p0.p0.i64(ptr align 2 %_19, ptr align 2 %_15, i64 20, i1 false), !dbg !2685
  %6 = getelementptr inbounds { ptr, i8 }, ptr %finish, i32 0, i32 1, !dbg !2686
  store i8 0, ptr %6, align 8, !dbg !2686
  store i64 2, ptr %status, align 8, !dbg !2687
  %_22 = load i64, ptr %status, align 8, !dbg !2688, !noundef !29
  store i8 4, ptr %_23, align 1, !dbg !2689
  %7 = load i8, ptr %_23, align 1, !dbg !2690, !range !2168, !noundef !29
; call core::sync::atomic::AtomicUsize::store
  call void @_ZN4core4sync6atomic11AtomicUsize5store17h31c2d88cac9020a7E(ptr align 8 %self, i64 %_22, i8 %7) #9, !dbg !2690
; call spin::once::Once<T>::force_get
  %_24 = call align 2 ptr @"_ZN4spin4once13Once$LT$T$GT$9force_get17h704da81a773413d4E"(ptr align 8 %self) #9, !dbg !2691
  store ptr %_24, ptr %_0, align 8, !dbg !2691
; call core::ptr::drop_in_place<spin::once::Finish>
  call void @"_ZN4core3ptr39drop_in_place$LT$spin..once..Finish$GT$17h2b09c2edc2142a94E"(ptr align 8 %finish) #9, !dbg !2692
  br label %bb19, !dbg !2692

bb11:                                             ; preds = %bb10
; call core::hint::unreachable_unchecked
  call void @_ZN4core4hint21unreachable_unchecked17hb2ab3ed44fdddc0cE() #11, !dbg !2693
  unreachable, !dbg !2693

bb12:                                             ; preds = %bb10
; call core::panicking::panic
  call void @_ZN4core9panicking5panic17h91639042aeeb9621E(ptr align 1 @alloc_a500d906b91607583596fa15e63c2ada, i64 40, ptr align 8 @alloc_5be19f098388ddfa34a5cde2d2c61c94) #11, !dbg !2694
  unreachable, !dbg !2694

bb13:                                             ; preds = %bb10
; call core::sync::atomic::spin_loop_hint
  call void @_ZN4core4sync6atomic14spin_loop_hint17h9a2dfb1aeb7c19b4E() #9, !dbg !2695
  store i8 4, ptr %_29, align 1, !dbg !2696
  %8 = load i8, ptr %_29, align 1, !dbg !2697, !range !2168, !noundef !29
; call core::sync::atomic::AtomicUsize::load
  %_27 = call i64 @_ZN4core4sync6atomic11AtomicUsize4load17h572622f7043d5487E(ptr align 8 %self, i8 %8) #9, !dbg !2697
  store i64 %_27, ptr %status, align 8, !dbg !2698
  br label %bb10, !dbg !2699

bb16:                                             ; preds = %bb10
; call core::panicking::panic
  call void @_ZN4core9panicking5panic17h91639042aeeb9621E(ptr align 1 @alloc_b41ce9db6ff9e09c515cee5b4d05db5e, i64 17, ptr align 8 @alloc_cbdd636a907b817e5acd19150abaf3dc) #11, !dbg !2700
  unreachable, !dbg !2700

bb17:                                             ; preds = %bb10
; call spin::once::Once<T>::force_get
  %_31 = call align 2 ptr @"_ZN4spin4once13Once$LT$T$GT$9force_get17h704da81a773413d4E"(ptr align 8 %self) #9, !dbg !2701
  store ptr %_31, ptr %_0, align 8, !dbg !2701
  br label %bb19, !dbg !2702

bb19:                                             ; preds = %bb4, %bb17
  %9 = load i8, ptr %_33, align 1, !dbg !2704, !range !1204, !noundef !29
  %10 = trunc i8 %9 to i1, !dbg !2704
  br i1 %10, label %bb21, label %bb20, !dbg !2704

bb20:                                             ; preds = %bb21, %bb19
  %11 = load ptr, ptr %_0, align 8, !dbg !2705, !nonnull !29, !align !2504, !noundef !29
  ret ptr %11, !dbg !2705

bb21:                                             ; preds = %bb19
  br label %bb20, !dbg !2704
}

; spin::once::Once<T>::call_once
; Function Attrs: noredzone nounwind
define internal align 16 ptr @"_ZN4spin4once13Once$LT$T$GT$9call_once17h97daaaf4ff66c94bE"(ptr align 16 %self) unnamed_addr #1 !dbg !2706 {
start:
  %self.dbg.spill.i = alloca ptr, align 8
  %builder.dbg.spill = alloca {}, align 1
  %self.dbg.spill = alloca ptr, align 8
  %_33 = alloca i8, align 1
  %_29 = alloca i8, align 1
  %_23 = alloca i8, align 1
  %_16 = alloca %"cpu_interrupts::interrupt_descriptor_table::SafeInterruptDescriptorTable", align 16
  %_15 = alloca %"core::option::Option<cpu_interrupts::interrupt_descriptor_table::SafeInterruptDescriptorTable>", align 16
  %finish = alloca { ptr, i8 }, align 8
  %_10 = alloca i8, align 1
  %_5 = alloca i8, align 1
  %status = alloca i64, align 8
  %_0 = alloca ptr, align 8
  store ptr %self, ptr %self.dbg.spill, align 8
  call void @llvm.dbg.declare(metadata ptr %self.dbg.spill, metadata !2714, metadata !DIExpression()), !dbg !2720
  call void @llvm.dbg.declare(metadata ptr %builder.dbg.spill, metadata !2715, metadata !DIExpression()), !dbg !2721
  call void @llvm.dbg.declare(metadata ptr %status, metadata !2716, metadata !DIExpression()), !dbg !2722
  call void @llvm.dbg.declare(metadata ptr %finish, metadata !2718, metadata !DIExpression()), !dbg !2723
  store i8 0, ptr %_33, align 1, !dbg !2724
  store i8 1, ptr %_33, align 1, !dbg !2724
  %_4 = getelementptr inbounds %"spin::once::Once<cpu_interrupts::interrupt_descriptor_table::SafeInterruptDescriptorTable>", ptr %self, i32 0, i32 1, !dbg !2725
  store i8 4, ptr %_5, align 1, !dbg !2726
  %0 = load i8, ptr %_5, align 1, !dbg !2725, !range !2168, !noundef !29
; call core::sync::atomic::AtomicUsize::load
  %1 = call i64 @_ZN4core4sync6atomic11AtomicUsize4load17h572622f7043d5487E(ptr align 8 %_4, i8 %0) #9, !dbg !2725
  store i64 %1, ptr %status, align 8, !dbg !2725
  %_7 = load i64, ptr %status, align 8, !dbg !2727, !noundef !29
  %_6 = icmp eq i64 %_7, 0, !dbg !2727
  br i1 %_6, label %bb2, label %bb10, !dbg !2727

bb10:                                             ; preds = %bb13, %bb2, %start
  %2 = load i64, ptr %status, align 8, !dbg !2728, !noundef !29
  switch i64 %2, label %bb11 [
    i64 0, label %bb12
    i64 1, label %bb13
    i64 3, label %bb16
    i64 2, label %bb17
  ], !dbg !2728

bb2:                                              ; preds = %start
  %_9 = getelementptr inbounds %"spin::once::Once<cpu_interrupts::interrupt_descriptor_table::SafeInterruptDescriptorTable>", ptr %self, i32 0, i32 1, !dbg !2729
  store i8 4, ptr %_10, align 1, !dbg !2730
  %3 = load i8, ptr %_10, align 1, !dbg !2729, !range !2168, !noundef !29
; call core::sync::atomic::AtomicUsize::compare_and_swap
  %_8 = call i64 @_ZN4core4sync6atomic11AtomicUsize16compare_and_swap17h0aa75138b8c3b007E(ptr align 8 %_9, i64 0, i64 1, i8 %3) #9, !dbg !2729
  store i64 %_8, ptr %status, align 8, !dbg !2731
  %_12 = load i64, ptr %status, align 8, !dbg !2732, !noundef !29
  %_11 = icmp eq i64 %_12, 0, !dbg !2732
  br i1 %_11, label %bb4, label %bb10, !dbg !2732

bb4:                                              ; preds = %bb2
  %_14 = getelementptr inbounds %"spin::once::Once<cpu_interrupts::interrupt_descriptor_table::SafeInterruptDescriptorTable>", ptr %self, i32 0, i32 1, !dbg !2733
  store ptr %_14, ptr %finish, align 8, !dbg !2734
  %4 = getelementptr inbounds { ptr, i8 }, ptr %finish, i32 0, i32 1, !dbg !2734
  store i8 1, ptr %4, align 8, !dbg !2734
  store i8 0, ptr %_33, align 1, !dbg !2735
; call core::ops::function::FnOnce::call_once
  call void @_ZN4core3ops8function6FnOnce9call_once17hbab13c0fe0949ec6E(ptr sret(%"cpu_interrupts::interrupt_descriptor_table::SafeInterruptDescriptorTable") align 16 %_16) #9, !dbg !2735
  call void @llvm.memcpy.p0.p0.i64(ptr align 16 %_15, ptr align 16 %_16, i64 4112, i1 false), !dbg !2736
  store ptr %self, ptr %self.dbg.spill.i, align 8
  call void @llvm.dbg.declare(metadata ptr %self.dbg.spill.i, metadata !2737, metadata !DIExpression()), !dbg !2745
  call void @llvm.memcpy.p0.p0.i64(ptr align 16 %self, ptr align 16 %_15, i64 4112, i1 false), !dbg !2747
  %5 = getelementptr inbounds { ptr, i8 }, ptr %finish, i32 0, i32 1, !dbg !2748
  store i8 0, ptr %5, align 8, !dbg !2748
  store i64 2, ptr %status, align 8, !dbg !2749
  %_21 = getelementptr inbounds %"spin::once::Once<cpu_interrupts::interrupt_descriptor_table::SafeInterruptDescriptorTable>", ptr %self, i32 0, i32 1, !dbg !2750
  %_22 = load i64, ptr %status, align 8, !dbg !2751, !noundef !29
  store i8 4, ptr %_23, align 1, !dbg !2752
  %6 = load i8, ptr %_23, align 1, !dbg !2750, !range !2168, !noundef !29
; call core::sync::atomic::AtomicUsize::store
  call void @_ZN4core4sync6atomic11AtomicUsize5store17h31c2d88cac9020a7E(ptr align 8 %_21, i64 %_22, i8 %6) #9, !dbg !2750
; call spin::once::Once<T>::force_get
  %_24 = call align 16 ptr @"_ZN4spin4once13Once$LT$T$GT$9force_get17h00e52de651f6e909E"(ptr align 16 %self) #9, !dbg !2753
  store ptr %_24, ptr %_0, align 8, !dbg !2753
; call core::ptr::drop_in_place<spin::once::Finish>
  call void @"_ZN4core3ptr39drop_in_place$LT$spin..once..Finish$GT$17h2b09c2edc2142a94E"(ptr align 8 %finish) #9, !dbg !2754
  br label %bb19, !dbg !2754

bb11:                                             ; preds = %bb10
; call core::hint::unreachable_unchecked
  call void @_ZN4core4hint21unreachable_unchecked17hb2ab3ed44fdddc0cE() #11, !dbg !2755
  unreachable, !dbg !2755

bb12:                                             ; preds = %bb10
; call core::panicking::panic
  call void @_ZN4core9panicking5panic17h91639042aeeb9621E(ptr align 1 @alloc_a500d906b91607583596fa15e63c2ada, i64 40, ptr align 8 @alloc_5be19f098388ddfa34a5cde2d2c61c94) #11, !dbg !2756
  unreachable, !dbg !2756

bb13:                                             ; preds = %bb10
; call core::sync::atomic::spin_loop_hint
  call void @_ZN4core4sync6atomic14spin_loop_hint17h9a2dfb1aeb7c19b4E() #9, !dbg !2757
  %_28 = getelementptr inbounds %"spin::once::Once<cpu_interrupts::interrupt_descriptor_table::SafeInterruptDescriptorTable>", ptr %self, i32 0, i32 1, !dbg !2758
  store i8 4, ptr %_29, align 1, !dbg !2759
  %7 = load i8, ptr %_29, align 1, !dbg !2758, !range !2168, !noundef !29
; call core::sync::atomic::AtomicUsize::load
  %_27 = call i64 @_ZN4core4sync6atomic11AtomicUsize4load17h572622f7043d5487E(ptr align 8 %_28, i8 %7) #9, !dbg !2758
  store i64 %_27, ptr %status, align 8, !dbg !2760
  br label %bb10, !dbg !2761

bb16:                                             ; preds = %bb10
; call core::panicking::panic
  call void @_ZN4core9panicking5panic17h91639042aeeb9621E(ptr align 1 @alloc_b41ce9db6ff9e09c515cee5b4d05db5e, i64 17, ptr align 8 @alloc_cbdd636a907b817e5acd19150abaf3dc) #11, !dbg !2762
  unreachable, !dbg !2762

bb17:                                             ; preds = %bb10
; call spin::once::Once<T>::force_get
  %_31 = call align 16 ptr @"_ZN4spin4once13Once$LT$T$GT$9force_get17h00e52de651f6e909E"(ptr align 16 %self) #9, !dbg !2763
  store ptr %_31, ptr %_0, align 8, !dbg !2763
  br label %bb19, !dbg !2764

bb19:                                             ; preds = %bb4, %bb17
  %8 = load i8, ptr %_33, align 1, !dbg !2766, !range !1204, !noundef !29
  %9 = trunc i8 %8 to i1, !dbg !2766
  br i1 %9, label %bb21, label %bb20, !dbg !2766

bb20:                                             ; preds = %bb21, %bb19
  %10 = load ptr, ptr %_0, align 8, !dbg !2767, !nonnull !29, !align !2537, !noundef !29
  ret ptr %10, !dbg !2767

bb21:                                             ; preds = %bb19
  br label %bb20, !dbg !2766
}

; spin::once::Once<T>::force_get
; Function Attrs: noredzone nounwind
define internal align 16 ptr @"_ZN4spin4once13Once$LT$T$GT$9force_get17h00e52de651f6e909E"(ptr align 16 %self) unnamed_addr #1 !dbg !2768 {
start:
  %self.dbg.spill.i = alloca ptr, align 8
  %p.dbg.spill = alloca ptr, align 8
  %self.dbg.spill = alloca ptr, align 8
  %_2 = alloca ptr, align 8
  store ptr %self, ptr %self.dbg.spill, align 8
  call void @llvm.dbg.declare(metadata ptr %self.dbg.spill, metadata !2773, metadata !DIExpression()), !dbg !2776
  store ptr %self, ptr %self.dbg.spill.i, align 8
  call void @llvm.dbg.declare(metadata ptr %self.dbg.spill.i, metadata !2737, metadata !DIExpression()), !dbg !2777
; call core::option::Option<T>::as_ref
  %0 = call align 16 ptr @"_ZN4core6option15Option$LT$T$GT$6as_ref17h315f9388c1fcb9eeE"(ptr align 16 %self) #9, !dbg !2779
  store ptr %0, ptr %_2, align 8, !dbg !2779
  %1 = load ptr, ptr %_2, align 8, !dbg !2779, !noundef !29
  %2 = ptrtoint ptr %1 to i64, !dbg !2779
  %3 = icmp eq i64 %2, 0, !dbg !2779
  %_6 = select i1 %3, i64 0, i64 1, !dbg !2779
  %4 = icmp eq i64 %_6, 0, !dbg !2780
  br i1 %4, label %bb5, label %bb3, !dbg !2780

bb5:                                              ; preds = %start
; call core::hint::unreachable_unchecked
  call void @_ZN4core4hint21unreachable_unchecked17hb2ab3ed44fdddc0cE() #11, !dbg !2781
  unreachable, !dbg !2781

bb3:                                              ; preds = %start
  %p = load ptr, ptr %_2, align 8, !dbg !2782, !nonnull !29, !align !2537, !noundef !29
  store ptr %p, ptr %p.dbg.spill, align 8, !dbg !2782
  call void @llvm.dbg.declare(metadata ptr %p.dbg.spill, metadata !2774, metadata !DIExpression()), !dbg !2783
  ret ptr %p, !dbg !2784

bb4:                                              ; No predecessors!
  unreachable, !dbg !2779
}

; spin::once::Once<T>::force_get
; Function Attrs: noredzone nounwind
define internal align 2 ptr @"_ZN4spin4once13Once$LT$T$GT$9force_get17h704da81a773413d4E"(ptr align 8 %self) unnamed_addr #1 !dbg !2785 {
start:
  %self.dbg.spill.i = alloca ptr, align 8
  %p.dbg.spill = alloca ptr, align 8
  %self.dbg.spill = alloca ptr, align 8
  %_2 = alloca ptr, align 8
  store ptr %self, ptr %self.dbg.spill, align 8
  call void @llvm.dbg.declare(metadata ptr %self.dbg.spill, metadata !2790, metadata !DIExpression()), !dbg !2793
  %_5 = getelementptr inbounds %"spin::once::Once<spin::mutex::Mutex<keyboard::Keyboard<pc_keyboard::layouts::us104::Us104Key, pc_keyboard::scancodes::set1::ScancodeSet1>>>", ptr %self, i32 0, i32 1, !dbg !2794
  store ptr %_5, ptr %self.dbg.spill.i, align 8
  call void @llvm.dbg.declare(metadata ptr %self.dbg.spill.i, metadata !2675, metadata !DIExpression()), !dbg !2795
; call core::option::Option<T>::as_ref
  %0 = call align 2 ptr @"_ZN4core6option15Option$LT$T$GT$6as_ref17h1c0da38ff0b77ef0E"(ptr align 2 %_5) #9, !dbg !2797
  store ptr %0, ptr %_2, align 8, !dbg !2797
  %1 = load ptr, ptr %_2, align 8, !dbg !2797, !noundef !29
  %2 = ptrtoint ptr %1 to i64, !dbg !2797
  %3 = icmp eq i64 %2, 0, !dbg !2797
  %_6 = select i1 %3, i64 0, i64 1, !dbg !2797
  %4 = icmp eq i64 %_6, 0, !dbg !2798
  br i1 %4, label %bb5, label %bb3, !dbg !2798

bb5:                                              ; preds = %start
; call core::hint::unreachable_unchecked
  call void @_ZN4core4hint21unreachable_unchecked17hb2ab3ed44fdddc0cE() #11, !dbg !2799
  unreachable, !dbg !2799

bb3:                                              ; preds = %start
  %p = load ptr, ptr %_2, align 8, !dbg !2800, !nonnull !29, !align !2504, !noundef !29
  store ptr %p, ptr %p.dbg.spill, align 8, !dbg !2800
  call void @llvm.dbg.declare(metadata ptr %p.dbg.spill, metadata !2791, metadata !DIExpression()), !dbg !2801
  ret ptr %p, !dbg !2802

bb4:                                              ; No predecessors!
  unreachable, !dbg !2797
}

; spin::once::Once<T>::force_get
; Function Attrs: noredzone nounwind
define internal align 8 ptr @"_ZN4spin4once13Once$LT$T$GT$9force_get17hf36eac5b981d8326E"(ptr align 8 %self) unnamed_addr #1 !dbg !2803 {
start:
  %self.dbg.spill.i = alloca ptr, align 8
  %p.dbg.spill = alloca ptr, align 8
  %self.dbg.spill = alloca ptr, align 8
  %_2 = alloca ptr, align 8
  store ptr %self, ptr %self.dbg.spill, align 8
  call void @llvm.dbg.declare(metadata ptr %self.dbg.spill, metadata !2808, metadata !DIExpression()), !dbg !2811
  %_5 = getelementptr inbounds %"spin::once::Once<spin::mutex::Mutex<vga::Screen>>", ptr %self, i32 0, i32 1, !dbg !2812
  store ptr %_5, ptr %self.dbg.spill.i, align 8
  call void @llvm.dbg.declare(metadata ptr %self.dbg.spill.i, metadata !2613, metadata !DIExpression()), !dbg !2813
; call core::option::Option<T>::as_ref
  %0 = call align 8 ptr @"_ZN4core6option15Option$LT$T$GT$6as_ref17hb98d549bc1a00428E"(ptr align 8 %_5) #9, !dbg !2815
  store ptr %0, ptr %_2, align 8, !dbg !2815
  %1 = load ptr, ptr %_2, align 8, !dbg !2815, !noundef !29
  %2 = ptrtoint ptr %1 to i64, !dbg !2815
  %3 = icmp eq i64 %2, 0, !dbg !2815
  %_6 = select i1 %3, i64 0, i64 1, !dbg !2815
  %4 = icmp eq i64 %_6, 0, !dbg !2816
  br i1 %4, label %bb5, label %bb3, !dbg !2816

bb5:                                              ; preds = %start
; call core::hint::unreachable_unchecked
  call void @_ZN4core4hint21unreachable_unchecked17hb2ab3ed44fdddc0cE() #11, !dbg !2817
  unreachable, !dbg !2817

bb3:                                              ; preds = %start
  %p = load ptr, ptr %_2, align 8, !dbg !2818, !nonnull !29, !align !1430, !noundef !29
  store ptr %p, ptr %p.dbg.spill, align 8, !dbg !2818
  call void @llvm.dbg.declare(metadata ptr %p.dbg.spill, metadata !2809, metadata !DIExpression()), !dbg !2819
  ret ptr %p, !dbg !2820

bb4:                                              ; No predecessors!
  unreachable, !dbg !2815
}

; <T as core::convert::Into<U>>::into
; Function Attrs: inlinehint noredzone nounwind
define internal { i64, i64 } @"_ZN50_$LT$T$u20$as$u20$core..convert..Into$LT$U$GT$$GT$4into17hb642c34ffd8c001aE"(i32 %self.0, i64 %self.1) unnamed_addr #0 !dbg !2821 {
start:
  %self.dbg.spill = alloca { i32, i64 }, align 8
  %0 = getelementptr inbounds { i32, i64 }, ptr %self.dbg.spill, i32 0, i32 0
  store i32 %self.0, ptr %0, align 8
  %1 = getelementptr inbounds { i32, i64 }, ptr %self.dbg.spill, i32 0, i32 1
  store i64 %self.1, ptr %1, align 8
  call void @llvm.dbg.declare(metadata ptr %self.dbg.spill, metadata !2826, metadata !DIExpression()), !dbg !2830
; call bootloader_api::info::<impl core::convert::From<bootloader_api::info::Optional<T>> for core::option::Option<T>>::from
  %2 = call { i64, i64 } @"_ZN14bootloader_api4info126_$LT$impl$u20$core..convert..From$LT$bootloader_api..info..Optional$LT$T$GT$$GT$$u20$for$u20$core..option..Option$LT$T$GT$$GT$4from17h096f5682eab24bbaE"(i32 %self.0, i64 %self.1) #9, !dbg !2831
  %_0.0 = extractvalue { i64, i64 } %2, 0, !dbg !2831
  %_0.1 = extractvalue { i64, i64 } %2, 1, !dbg !2831
  %3 = insertvalue { i64, i64 } poison, i64 %_0.0, 0, !dbg !2832
  %4 = insertvalue { i64, i64 } %3, i64 %_0.1, 1, !dbg !2832
  ret { i64, i64 } %4, !dbg !2832
}

; <pc_keyboard::KeyCode as core::fmt::Debug>::fmt
; Function Attrs: inlinehint noredzone nounwind
define internal zeroext i1 @"_ZN57_$LT$pc_keyboard..KeyCode$u20$as$u20$core..fmt..Debug$GT$3fmt17h011847b33b3d816dE"(ptr align 1 %self, ptr align 8 %f) unnamed_addr #0 !dbg !2833 {
start:
  %f.dbg.spill = alloca ptr, align 8
  %self.dbg.spill = alloca ptr, align 8
  %_3 = alloca { ptr, i64 }, align 8
  store ptr %self, ptr %self.dbg.spill, align 8
  call void @llvm.dbg.declare(metadata ptr %self.dbg.spill, metadata !2839, metadata !DIExpression()), !dbg !2841
  store ptr %f, ptr %f.dbg.spill, align 8
  call void @llvm.dbg.declare(metadata ptr %f.dbg.spill, metadata !2840, metadata !DIExpression()), !dbg !2841
  %_4 = load i8, ptr %self, align 1, !dbg !2841, !range !1200, !noundef !29
  switch i8 %_4, label %bb2 [
    i8 0, label %bb3
    i8 1, label %bb4
    i8 2, label %bb5
    i8 3, label %bb6
    i8 4, label %bb7
    i8 5, label %bb8
    i8 6, label %bb9
    i8 7, label %bb10
    i8 8, label %bb11
    i8 9, label %bb12
    i8 10, label %bb13
    i8 11, label %bb14
    i8 12, label %bb15
    i8 13, label %bb16
    i8 14, label %bb17
    i8 15, label %bb18
    i8 16, label %bb19
    i8 17, label %bb20
    i8 18, label %bb21
    i8 19, label %bb22
    i8 20, label %bb23
    i8 21, label %bb24
    i8 22, label %bb25
    i8 23, label %bb26
    i8 24, label %bb27
    i8 25, label %bb28
    i8 26, label %bb29
    i8 27, label %bb30
    i8 28, label %bb31
    i8 29, label %bb32
    i8 30, label %bb33
    i8 31, label %bb34
    i8 32, label %bb35
    i8 33, label %bb36
    i8 34, label %bb37
    i8 35, label %bb38
    i8 36, label %bb39
    i8 37, label %bb40
    i8 38, label %bb41
    i8 39, label %bb42
    i8 40, label %bb43
    i8 41, label %bb44
    i8 42, label %bb45
    i8 43, label %bb46
    i8 44, label %bb47
    i8 45, label %bb48
    i8 46, label %bb49
    i8 47, label %bb50
    i8 48, label %bb51
    i8 49, label %bb52
    i8 50, label %bb53
    i8 51, label %bb54
    i8 52, label %bb55
    i8 53, label %bb56
    i8 54, label %bb57
    i8 55, label %bb58
    i8 56, label %bb59
    i8 57, label %bb60
