; ModuleID = '1cnee0pmndpoluo2'
source_filename = "1cnee0pmndpoluo2"
target datalayout = "e-m:e-i64:64-f80:128-n8:16:32:64-S128"
target triple = "x86_64-obuasi-unknown-none"

%"core::fmt::Arguments<'_>" = type { { ptr, i64 }, { ptr, i64 }, { ptr, i64 } }
%"x86_64::structures::idt::InterruptDescriptorTable" = type { %"x86_64::structures::idt::Entry<extern \22x86-interrupt\22 fn(x86_64::structures::idt::InterruptStackFrame)>", %"x86_64::structures::idt::Entry<extern \22x86-interrupt\22 fn(x86_64::structures::idt::InterruptStackFrame)>", %"x86_64::structures::idt::Entry<extern \22x86-interrupt\22 fn(x86_64::structures::idt::InterruptStackFrame)>", %"x86_64::structures::idt::Entry<extern \22x86-interrupt\22 fn(x86_64::structures::idt::InterruptStackFrame)>", %"x86_64::structures::idt::Entry<extern \22x86-interrupt\22 fn(x86_64::structures::idt::InterruptStackFrame)>", %"x86_64::structures::idt::Entry<extern \22x86-interrupt\22 fn(x86_64::structures::idt::InterruptStackFrame)>", %"x86_64::structures::idt::Entry<extern \22x86-interrupt\22 fn(x86_64::structures::idt::InterruptStackFrame)>", %"x86_64::structures::idt::Entry<extern \22x86-interrupt\22 fn(x86_64::structures::idt::InterruptStackFrame)>", %"x86_64::structures::idt::Entry<extern \22x86-interrupt\22 fn(x86_64::structures::idt::InterruptStackFrame, u64) -> !>", %"x86_64::structures::idt::Entry<extern \22x86-interrupt\22 fn(x86_64::structures::idt::InterruptStackFrame)>", %"x86_64::structures::idt::Entry<extern \22x86-interrupt\22 fn(x86_64::structures::idt::InterruptStackFrame, u64)>", %"x86_64::structures::idt::Entry<extern \22x86-interrupt\22 fn(x86_64::structures::idt::InterruptStackFrame, u64)>", %"x86_64::structures::idt::Entry<extern \22x86-interrupt\22 fn(x86_64::structures::idt::InterruptStackFrame, u64)>", %"x86_64::structures::idt::Entry<extern \22x86-interrupt\22 fn(x86_64::structures::idt::InterruptStackFrame, u64)>", %"x86_64::structures::idt::Entry<extern \22x86-interrupt\22 fn(x86_64::structures::idt::InterruptStackFrame, x86_64::structures::idt::PageFaultErrorCode)>", %"x86_64::structures::idt::Entry<extern \22x86-interrupt\22 fn(x86_64::structures::idt::InterruptStackFrame)>", %"x86_64::structures::idt::Entry<extern \22x86-interrupt\22 fn(x86_64::structures::idt::InterruptStackFrame)>", %"x86_64::structures::idt::Entry<extern \22x86-interrupt\22 fn(x86_64::structures::idt::InterruptStackFrame, u64)>", %"x86_64::structures::idt::Entry<extern \22x86-interrupt\22 fn(x86_64::structures::idt::InterruptStackFrame) -> !>", %"x86_64::structures::idt::Entry<extern \22x86-interrupt\22 fn(x86_64::structures::idt::InterruptStackFrame)>", %"x86_64::structures::idt::Entry<extern \22x86-interrupt\22 fn(x86_64::structures::idt::InterruptStackFrame)>", [8 x %"x86_64::structures::idt::Entry<extern \22x86-interrupt\22 fn(x86_64::structures::idt::InterruptStackFrame)>"], %"x86_64::structures::idt::Entry<extern \22x86-interrupt\22 fn(x86_64::structures::idt::InterruptStackFrame, u64)>", %"x86_64::structures::idt::Entry<extern \22x86-interrupt\22 fn(x86_64::structures::idt::InterruptStackFrame, u64)>", %"x86_64::structures::idt::Entry<extern \22x86-interrupt\22 fn(x86_64::structures::idt::InterruptStackFrame)>", [224 x %"x86_64::structures::idt::Entry<extern \22x86-interrupt\22 fn(x86_64::structures::idt::InterruptStackFrame)>"] }
%"x86_64::structures::idt::Entry<extern \22x86-interrupt\22 fn(x86_64::structures::idt::InterruptStackFrame, u64) -> !>" = type { i16, i16, i16, i16, i32, i32, %"core::marker::PhantomData<extern \22x86-interrupt\22 fn(x86_64::structures::idt::InterruptStackFrame, u64) -> !>" }
%"core::marker::PhantomData<extern \22x86-interrupt\22 fn(x86_64::structures::idt::InterruptStackFrame, u64) -> !>" = type {}
%"x86_64::structures::idt::Entry<extern \22x86-interrupt\22 fn(x86_64::structures::idt::InterruptStackFrame, x86_64::structures::idt::PageFaultErrorCode)>" = type { i16, i16, i16, i16, i32, i32, %"core::marker::PhantomData<extern \22x86-interrupt\22 fn(x86_64::structures::idt::InterruptStackFrame, x86_64::structures::idt::PageFaultErrorCode)>" }
%"core::marker::PhantomData<extern \22x86-interrupt\22 fn(x86_64::structures::idt::InterruptStackFrame, x86_64::structures::idt::PageFaultErrorCode)>" = type {}
%"x86_64::structures::idt::Entry<extern \22x86-interrupt\22 fn(x86_64::structures::idt::InterruptStackFrame) -> !>" = type { i16, i16, i16, i16, i32, i32, %"core::marker::PhantomData<extern \22x86-interrupt\22 fn(x86_64::structures::idt::InterruptStackFrame) -> !>" }
%"core::marker::PhantomData<extern \22x86-interrupt\22 fn(x86_64::structures::idt::InterruptStackFrame) -> !>" = type {}
%"x86_64::structures::idt::Entry<extern \22x86-interrupt\22 fn(x86_64::structures::idt::InterruptStackFrame, u64)>" = type { i16, i16, i16, i16, i32, i32, %"core::marker::PhantomData<extern \22x86-interrupt\22 fn(x86_64::structures::idt::InterruptStackFrame, u64)>" }
%"core::marker::PhantomData<extern \22x86-interrupt\22 fn(x86_64::structures::idt::InterruptStackFrame, u64)>" = type {}
%"x86_64::structures::idt::Entry<extern \22x86-interrupt\22 fn(x86_64::structures::idt::InterruptStackFrame)>" = type { i16, i16, i16, i16, i32, i32, %"core::marker::PhantomData<extern \22x86-interrupt\22 fn(x86_64::structures::idt::InterruptStackFrame)>" }
%"core::marker::PhantomData<extern \22x86-interrupt\22 fn(x86_64::structures::idt::InterruptStackFrame)>" = type {}
%"pc_keyboard::EventDecoder<pc_keyboard::layouts::us104::Us104Key>" = type { %"pc_keyboard::layouts::us104::Us104Key", i8, %"pc_keyboard::Modifiers" }
%"pc_keyboard::layouts::us104::Us104Key" = type {}
%"pc_keyboard::Modifiers" = type { i8, i8, i8, i8, i8, i8, i8, i8 }
%"pc_keyboard::Keyboard<pc_keyboard::layouts::us104::Us104Key, pc_keyboard::scancodes::set1::ScancodeSet1>" = type { { i16, i8 }, %"pc_keyboard::EventDecoder<pc_keyboard::layouts::us104::Us104Key>", i8 }
%"core::fmt::rt::UnsafeArg" = type { {} }
%"spin::mutex::Mutex<keyboard::Keyboard<pc_keyboard::layouts::us104::Us104Key, pc_keyboard::scancodes::set1::ScancodeSet1>>" = type { %"spin::mutex::spin::SpinMutex<keyboard::Keyboard<pc_keyboard::layouts::us104::Us104Key, pc_keyboard::scancodes::set1::ScancodeSet1>>" }
%"spin::mutex::spin::SpinMutex<keyboard::Keyboard<pc_keyboard::layouts::us104::Us104Key, pc_keyboard::scancodes::set1::ScancodeSet1>>" = type { %"core::marker::PhantomData<spin::relax::Spin>", %"core::sync::atomic::AtomicBool", [1 x i8], %"core::cell::UnsafeCell<keyboard::Keyboard<pc_keyboard::layouts::us104::Us104Key, pc_keyboard::scancodes::set1::ScancodeSet1>>" }
%"core::marker::PhantomData<spin::relax::Spin>" = type {}
%"core::sync::atomic::AtomicBool" = type { i8 }
%"core::cell::UnsafeCell<keyboard::Keyboard<pc_keyboard::layouts::us104::Us104Key, pc_keyboard::scancodes::set1::ScancodeSet1>>" = type { %"keyboard::Keyboard<pc_keyboard::layouts::us104::Us104Key, pc_keyboard::scancodes::set1::ScancodeSet1>" }
%"keyboard::Keyboard<pc_keyboard::layouts::us104::Us104Key, pc_keyboard::scancodes::set1::ScancodeSet1>" = type { %"pc_keyboard::Keyboard<pc_keyboard::layouts::us104::Us104Key, pc_keyboard::scancodes::set1::ScancodeSet1>" }
%"spin::mutex::Mutex<vga::Screen>" = type { %"spin::mutex::spin::SpinMutex<vga::Screen>" }
%"spin::mutex::spin::SpinMutex<vga::Screen>" = type { %"core::marker::PhantomData<spin::relax::Spin>", %"core::sync::atomic::AtomicBool", [7 x i8], %"core::cell::UnsafeCell<vga::Screen>" }
%"core::cell::UnsafeCell<vga::Screen>" = type { %"vga::Screen" }
%"vga::Screen" = type { ptr, i64, { i64, i64 }, { i64, i64 }, [80 x { i8, i8 }], i8, [7 x i8] }
%"cpu_interrupts::interrupt_descriptor_table::SafeInterruptDescriptorTable" = type { %"x86_64::structures::idt::InterruptDescriptorTable", i8, i8, i8, [13 x i8] }
%"core::option::Option<spin::mutex::Mutex<keyboard::Keyboard<pc_keyboard::layouts::us104::Us104Key, pc_keyboard::scancodes::set1::ScancodeSet1>>>::Some" = type { [1 x i16], %"spin::mutex::Mutex<keyboard::Keyboard<pc_keyboard::layouts::us104::Us104Key, pc_keyboard::scancodes::set1::ScancodeSet1>>" }
%"core::option::Option<spin::mutex::Mutex<vga::Screen>>::Some" = type { [1 x i64], %"spin::mutex::Mutex<vga::Screen>" }
%"core::option::Option<cpu_interrupts::interrupt_descriptor_table::SafeInterruptDescriptorTable>" = type { [4098 x i8], i8, [13 x i8] }
%"core::option::Option<spin::mutex::Mutex<vga::Screen>>" = type { i64, [28 x i64] }
%"spin::once::Once<spin::mutex::Mutex<vga::Screen>>" = type { %"core::sync::atomic::AtomicUsize", %"core::cell::UnsafeCell<core::option::Option<spin::mutex::Mutex<vga::Screen>>>" }
%"core::sync::atomic::AtomicUsize" = type { i64 }
%"core::cell::UnsafeCell<core::option::Option<spin::mutex::Mutex<vga::Screen>>>" = type { %"core::option::Option<spin::mutex::Mutex<vga::Screen>>" }
%"spin::once::Once<cpu_interrupts::interrupt_descriptor_table::SafeInterruptDescriptorTable>" = type { %"core::cell::UnsafeCell<core::option::Option<cpu_interrupts::interrupt_descriptor_table::SafeInterruptDescriptorTable>>", %"core::sync::atomic::AtomicUsize", [1 x i64] }
%"core::cell::UnsafeCell<core::option::Option<cpu_interrupts::interrupt_descriptor_table::SafeInterruptDescriptorTable>>" = type { %"core::option::Option<cpu_interrupts::interrupt_descriptor_table::SafeInterruptDescriptorTable>" }
%"core::option::Option<spin::mutex::Mutex<keyboard::Keyboard<pc_keyboard::layouts::us104::Us104Key, pc_keyboard::scancodes::set1::ScancodeSet1>>>" = type { i16, [8 x i16] }
%"spin::once::Once<spin::mutex::Mutex<keyboard::Keyboard<pc_keyboard::layouts::us104::Us104Key, pc_keyboard::scancodes::set1::ScancodeSet1>>>" = type { %"core::sync::atomic::AtomicUsize", %"core::cell::UnsafeCell<core::option::Option<spin::mutex::Mutex<keyboard::Keyboard<pc_keyboard::layouts::us104::Us104Key, pc_keyboard::scancodes::set1::ScancodeSet1>>>>", [3 x i16] }
%"core::cell::UnsafeCell<core::option::Option<spin::mutex::Mutex<keyboard::Keyboard<pc_keyboard::layouts::us104::Us104Key, pc_keyboard::scancodes::set1::ScancodeSet1>>>>" = type { %"core::option::Option<spin::mutex::Mutex<keyboard::Keyboard<pc_keyboard::layouts::us104::Us104Key, pc_keyboard::scancodes::set1::ScancodeSet1>>>" }
%"[closure@src/interrupts.rs:42:32: 42:71]" = type {}
%"x86_64::structures::idt::InterruptStackFrame" = type { %"x86_64::structures::idt::InterruptStackFrameValue" }
%"x86_64::structures::idt::InterruptStackFrameValue" = type { i64, i64, i64, i64, i64 }
%"core::result::Result<bool, &str>" = type { ptr, [1 x i64] }
%"core::fmt::rt::Placeholder" = type { { i64, i64 }, { i64, i64 }, i64, i32, i32, i8, [7 x i8] }

@str.0 = internal constant [33 x i8] c"attempt to subtract with overflow"
@alloc_0e0a5c012db1f29e764f54ddf0c3fc28 = private unnamed_addr constant <{ [20 x i8] }> <{ [20 x i8] c"no entry with index " }>, align 1
@alloc_4407e9db65b5731fa81ce22dd51cf15b = private unnamed_addr constant <{ ptr, [8 x i8] }> <{ ptr @alloc_0e0a5c012db1f29e764f54ddf0c3fc28, [8 x i8] c"\14\00\00\00\00\00\00\00" }>, align 8
@alloc_523248e34db904eab55c5eb570cbbcf7 = private unnamed_addr constant <{ [6 x i8] }> <{ [6 x i8] c"entry " }>, align 1
@alloc_8888ebfef96191fe59f3dccdfd1e2e9f = private unnamed_addr constant <{ [44 x i8] }> <{ [44 x i8] c" is an diverging exception (must not return)" }>, align 1
@alloc_d828fab08d116782a6d84a27e7c35707 = private unnamed_addr constant <{ ptr, [8 x i8], ptr, [8 x i8] }> <{ ptr @alloc_523248e34db904eab55c5eb570cbbcf7, [8 x i8] c"\06\00\00\00\00\00\00\00", ptr @alloc_8888ebfef96191fe59f3dccdfd1e2e9f, [8 x i8] c",\00\00\00\00\00\00\00" }>, align 8
@alloc_5b44ce981640fea4344a6f6575fa5f67 = private unnamed_addr constant <{ [32 x i8] }> <{ [32 x i8] c" is an exception with error code" }>, align 1
@alloc_1fe542937cac8fb1fe1c032a3b633bce = private unnamed_addr constant <{ ptr, [8 x i8], ptr, [8 x i8] }> <{ ptr @alloc_523248e34db904eab55c5eb570cbbcf7, [8 x i8] c"\06\00\00\00\00\00\00\00", ptr @alloc_5b44ce981640fea4344a6f6575fa5f67, [8 x i8] c" \00\00\00\00\00\00\00" }>, align 8
@alloc_b715a46a74cc820188211befedfe4ec3 = private unnamed_addr constant <{ [12 x i8] }> <{ [12 x i8] c" is reserved" }>, align 1
@alloc_d743347393ab490786856fac0eec1b82 = private unnamed_addr constant <{ ptr, [8 x i8], ptr, [8 x i8] }> <{ ptr @alloc_523248e34db904eab55c5eb570cbbcf7, [8 x i8] c"\06\00\00\00\00\00\00\00", ptr @alloc_b715a46a74cc820188211befedfe4ec3, [8 x i8] c"\0C\00\00\00\00\00\00\00" }>, align 8
@alloc_6923360c3161738641b3989c6181ce08 = private unnamed_addr constant <{ [40 x i8] }> <{ [40 x i8] c"assertion failed: bit < Self::BIT_LENGTH" }>, align 1
@alloc_89294a974a2788f895cf677d5bd697c4 = private unnamed_addr constant <{ [91 x i8] }> <{ [91 x i8] c"/Users/yaw/.cargo/registry/src/index.crates.io-6f17d22bba15001f/bit_field-0.10.1/src/lib.rs" }>, align 1
@alloc_b01c63d7eb55c84e9d45ae152316a96d = private unnamed_addr constant <{ ptr, [16 x i8] }> <{ ptr @alloc_89294a974a2788f895cf677d5bd697c4, [16 x i8] c"[\00\00\00\00\00\00\00\11\01\00\00\01\00\00\00" }>, align 8
@str.1 = internal constant [35 x i8] c"attempt to shift left with overflow"
@vtable.2 = private constant <{ ptr, [16 x i8], ptr, ptr, ptr }> <{ ptr @"_ZN4core3ptr44drop_in_place$LT$$RF$mut$u20$vga..Screen$GT$17hfbad77c953d5f15cE", [16 x i8] c"\08\00\00\00\00\00\00\00\08\00\00\00\00\00\00\00", ptr @"_ZN50_$LT$$RF$mut$u20$W$u20$as$u20$core..fmt..Write$GT$9write_str17h1f30a86dc6cc5c17E", ptr @"_ZN50_$LT$$RF$mut$u20$W$u20$as$u20$core..fmt..Write$GT$10write_char17h9b6f68b4999fe0cfE", ptr @"_ZN50_$LT$$RF$mut$u20$W$u20$as$u20$core..fmt..Write$GT$9write_fmt17ha06b28e6bcbc80e6E" }>, align 8, !dbg !0
@alloc_c2ea93c90919bb7b1e482f917e413fa1 = private unnamed_addr constant <{ [107 x i8] }> <{ [107 x i8] c"/Users/yaw/.rustup/toolchains/nightly-aarch64-apple-darwin/lib/rustlib/src/rust/library/core/src/fmt/mod.rs" }>, align 1
@alloc_6efc4ec71950c88bb18b2dcebbe56926 = private unnamed_addr constant <{ ptr, [16 x i8] }> <{ ptr @alloc_c2ea93c90919bb7b1e482f917e413fa1, [16 x i8] c"k\00\00\00\00\00\00\004\01\00\008\00\00\00" }>, align 8
@str.3 = internal constant [28 x i8] c"attempt to add with overflow"
@alloc_91c7fa63c3cfeaa3c795652d5cf060e4 = private unnamed_addr constant <{ [12 x i8] }> <{ [12 x i8] c"invalid args" }>, align 1
@alloc_560206a49c61adca6f3f0639a12632eb = private unnamed_addr constant <{ ptr, [8 x i8] }> <{ ptr @alloc_91c7fa63c3cfeaa3c795652d5cf060e4, [8 x i8] c"\0C\00\00\00\00\00\00\00" }>, align 8
@alloc_d3149a254d0e3dec02e2738403904da6 = private unnamed_addr constant <{ ptr, [16 x i8] }> <{ ptr @alloc_c2ea93c90919bb7b1e482f917e413fa1, [16 x i8] c"k\00\00\00\00\00\00\005\01\00\00\0D\00\00\00" }>, align 8
@alloc_5eca5fde541bf3444e5a23d5419b88a4 = private unnamed_addr constant <{ ptr, [16 x i8] }> <{ ptr @alloc_c2ea93c90919bb7b1e482f917e413fa1, [16 x i8] c"k\00\00\00\00\00\00\00+\01\00\00\0D\00\00\00" }>, align 8
@alloc_513570631223a12912d85da2bec3b15a = private unnamed_addr constant <{}> zeroinitializer, align 8
@alloc_2220c7a1feeb6edab819c8e7f64b7daa = private unnamed_addr constant <{ [112 x i8] }> <{ [112 x i8] c"/Users/yaw/.rustup/toolchains/nightly-aarch64-apple-darwin/lib/rustlib/src/rust/library/core/src/char/methods.rs" }>, align 1
@alloc_3c304347645b5e7991f32728b55438ef = private unnamed_addr constant <{ ptr, [16 x i8] }> <{ ptr @alloc_2220c7a1feeb6edab819c8e7f64b7daa, [16 x i8] c"p\00\00\00\00\00\00\00\B3\06\00\00\16\00\00\00" }>, align 8
@alloc_63e9d1bbad54bf32f4ed5f8ce51df045 = private unnamed_addr constant <{ ptr, [16 x i8] }> <{ ptr @alloc_2220c7a1feeb6edab819c8e7f64b7daa, [16 x i8] c"p\00\00\00\00\00\00\00\CD\06\00\00\0A\00\00\00" }>, align 8
@alloc_6b031f9bca8204235732c7c365d04a1d = private unnamed_addr constant <{ [18 x i8] }> <{ [18 x i8] c"encode_utf8: need " }>, align 1
@alloc_28d13efb0f9a95ccb5d02ec33dd195cf = private unnamed_addr constant <{ [19 x i8] }> <{ [19 x i8] c" bytes to encode U+" }>, align 1
@alloc_0d928972d2befd736e581c7fcc5a2f9a = private unnamed_addr constant <{ [21 x i8] }> <{ [21 x i8] c", but the buffer has " }>, align 1
@alloc_d29a6390632466693e1aaac961799525 = private unnamed_addr constant <{ ptr, [8 x i8], ptr, [8 x i8], ptr, [8 x i8] }> <{ ptr @alloc_6b031f9bca8204235732c7c365d04a1d, [8 x i8] c"\12\00\00\00\00\00\00\00", ptr @alloc_28d13efb0f9a95ccb5d02ec33dd195cf, [8 x i8] c"\13\00\00\00\00\00\00\00", ptr @alloc_0d928972d2befd736e581c7fcc5a2f9a, [8 x i8] c"\15\00\00\00\00\00\00\00" }>, align 8
@alloc_2499ee2d6da988c4fec98e3b179629df = private unnamed_addr constant <{ ptr, [16 x i8] }> <{ ptr @alloc_2220c7a1feeb6edab819c8e7f64b7daa, [16 x i8] c"p\00\00\00\00\00\00\00\C6\06\00\00\0E\00\00\00" }>, align 8
@alloc_1eb6f53a157dccb32488e066ad957e6d = private unnamed_addr constant <{ [82 x i8] }> <{ [82 x i8] c"unsafe precondition(s) violated: hint::unreachable_unchecked must never be reached" }>, align 1
@alloc_b41ce9db6ff9e09c515cee5b4d05db5e = private unnamed_addr constant <{ [17 x i8] }> <{ [17 x i8] c"Once has panicked" }>, align 1
@alloc_8af331a5985192ea52a41e19634f2db2 = private unnamed_addr constant <{ [86 x i8] }> <{ [86 x i8] c"/Users/yaw/.cargo/registry/src/index.crates.io-6f17d22bba15001f/spin-0.5.2/src/once.rs" }>, align 1
@alloc_14083d05c803f84018d4aa0469014f28 = private unnamed_addr constant <{ ptr, [16 x i8] }> <{ ptr @alloc_8af331a5985192ea52a41e19634f2db2, [16 x i8] c"V\00\00\00\00\00\00\00\80\00\00\00\1D\00\00\00" }>, align 8
@alloc_a500d906b91607583596fa15e63c2ada = private unnamed_addr constant <{ [40 x i8] }> <{ [40 x i8] c"internal error: entered unreachable code" }>, align 1
@alloc_f6d48a4961f7d5070867936e66a7484e = private unnamed_addr constant <{ ptr, [16 x i8] }> <{ ptr @alloc_8af331a5985192ea52a41e19634f2db2, [16 x i8] c"V\00\00\00\00\00\00\00{\00\00\00\1F\00\00\00" }>, align 8
@alloc_96fe64cab8dd4680071ecfdb397425fd = private unnamed_addr constant <{ [100 x i8] }> <{ [100 x i8] c"/Users/yaw/.cargo/registry/src/index.crates.io-6f17d22bba15001f/x86_64-0.14.10/src/structures/idt.rs" }>, align 1
@alloc_684261e5bc5404f7dd08c17341b2175a = private unnamed_addr constant <{ ptr, [16 x i8] }> <{ ptr @alloc_96fe64cab8dd4680071ecfdb397425fd, [16 x i8] c"d\00\00\00\00\00\00\00E\03\00\00\1F\00\00\00" }>, align 8
@alloc_3b30f3c2fe1935017d2714aa9952ea95 = private unnamed_addr constant <{ [74 x i8] }> <{ [74 x i8] c"address passed to VirtAddr::new must not contain any data in bits 48 to 64" }>, align 1
@alloc_25db54aacf10f85b32a6b265696ce69a = private unnamed_addr constant <{ [90 x i8] }> <{ [90 x i8] c"/Users/yaw/.cargo/registry/src/index.crates.io-6f17d22bba15001f/x86_64-0.14.10/src/addr.rs" }>, align 1
@alloc_6918487e00f1778b5f784ee4db0636b1 = private unnamed_addr constant <{ ptr, [16 x i8] }> <{ ptr @alloc_25db54aacf10f85b32a6b265696ce69a, [16 x i8] c"Z\00\00\00\00\00\00\00H\00\00\00\1D\00\00\00" }>, align 8
@alloc_aa07815cbcb2365f7aca41cc8941a0c4 = private unnamed_addr constant <{ [19 x i8] }> <{ [19 x i8] c"not yet implemented" }>, align 1
@alloc_448e23eb0973fa466632527826520a8f = private unnamed_addr constant <{ [40 x i8] }> <{ [40 x i8] c"/Users/yaw/self/theo/keyboard/src/lib.rs" }>, align 1
@alloc_b9611fc786ea7421fadd0a22cc6b4ceb = private unnamed_addr constant <{ ptr, [16 x i8] }> <{ ptr @alloc_448e23eb0973fa466632527826520a8f, [16 x i8] c"(\00\00\00\00\00\00\00,\00\00\00\19\00\00\00" }>, align 8
@alloc_0f52f98e9fa44caf6668aeb0b1c94ca5 = private unnamed_addr constant <{ [1 x i8] }> <{ [1 x i8] c"." }>, align 1
@alloc_d509c061a81d387044ae882b6ca18863 = private unnamed_addr constant <{ ptr, [8 x i8] }> <{ ptr @alloc_0f52f98e9fa44caf6668aeb0b1c94ca5, [8 x i8] c"\01\00\00\00\00\00\00\00" }>, align 8
@alloc_336fab64cf280841146f9adb6c51a626 = private unnamed_addr constant <{ [29 x i8] }> <{ [29 x i8] c"IDT initialization failed -> " }>, align 1
@alloc_aab826736a6c020f2de3cc2e72f2836f = private unnamed_addr constant <{ ptr, [8 x i8] }> <{ ptr @alloc_336fab64cf280841146f9adb6c51a626, [8 x i8] c"\1D\00\00\00\00\00\00\00" }>, align 8
@alloc_ceb4379b47ed1f7ed9f46a275cc711f0 = private unnamed_addr constant <{ [17 x i8] }> <{ [17 x i8] c"src/interrupts.rs" }>, align 1
@alloc_c29d4427509bbe8bedf59e2be586cf28 = private unnamed_addr constant <{ ptr, [16 x i8] }> <{ ptr @alloc_ceb4379b47ed1f7ed9f46a275cc711f0, [16 x i8] c"\11\00\00\00\00\00\00\005\00\00\00\13\00\00\00" }>, align 8
@alloc_604802f3d78c33b0b3552b3c7940e5df = private unnamed_addr constant <{ [18 x i8] }> <{ [18 x i8] c"src/peripherals.rs" }>, align 1
@alloc_ef0ad4aa3e7bddc68765732cec6c54a4 = private unnamed_addr constant <{ ptr, [16 x i8] }> <{ ptr @alloc_604802f3d78c33b0b3552b3c7940e5df, [16 x i8] c"\12\00\00\00\00\00\00\00\1D\00\00\00W\00\00\00" }>, align 8
@alloc_e57360d3cab7b504edab5d53bcd8a2bf = private unnamed_addr constant <{ [46 x i8] }> <{ [46 x i8] c"ave imperator, morituri te salutant \F0\9F\96\96!\0A\0A\0A\0A\0A" }>, align 1
@alloc_82782b198e1ee0ea5d392793684ed2ab = private unnamed_addr constant <{ ptr, [8 x i8] }> <{ ptr @alloc_e57360d3cab7b504edab5d53bcd8a2bf, [8 x i8] c".\00\00\00\00\00\00\00" }>, align 8
@alloc_ac6f105be24c55b3d87791790b6d9f81 = private unnamed_addr constant <{ [44 x i8] }> <{ [44 x i8] c"this text should appear on last but one row\0A" }>, align 1
@alloc_e68acb5e79b62d11d1b5f7f78ea76060 = private unnamed_addr constant <{ ptr, [8 x i8] }> <{ ptr @alloc_ac6f105be24c55b3d87791790b6d9f81, [8 x i8] c",\00\00\00\00\00\00\00" }>, align 8
@alloc_840f7d7801fd0a18e678824978a17a2e = private unnamed_addr constant <{ [39 x i8] }> <{ [39 x i8] c"last row of text, with empty row below\0A" }>, align 1
@alloc_704d68ff3020df52f56b6f7f0f1219ee = private unnamed_addr constant <{ ptr, [8 x i8] }> <{ ptr @alloc_840f7d7801fd0a18e678824978a17a2e, [8 x i8] c"'\00\00\00\00\00\00\00" }>, align 8
@alloc_49a1e817e911805af64bbc7efb390101 = private unnamed_addr constant <{ [1 x i8] }> <{ [1 x i8] c"\0A" }>, align 1
@alloc_4ed11f17954caf7854f80f02ae34907e = private unnamed_addr constant <{ ptr, [8 x i8], ptr, [8 x i8] }> <{ ptr @alloc_513570631223a12912d85da2bec3b15a, [8 x i8] zeroinitializer, ptr @alloc_49a1e817e911805af64bbc7efb390101, [8 x i8] c"\01\00\00\00\00\00\00\00" }>, align 8
@_ZN4theo10interrupts8SAFE_IDT17h52459c85cf25b7a7E = internal constant <{}> zeroinitializer, align 1, !dbg !54
@alloc_ea5626d74ebc425faa3ec0d1765b954c = private unnamed_addr constant <{ ptr, [16 x i8] }> <{ ptr @alloc_ceb4379b47ed1f7ed9f46a275cc711f0, [16 x i8] c"\11\00\00\00\00\00\00\00\16\00\00\00\11\00\00\00" }>, align 8
@alloc_353e8fbc15a76549b3b1989e6ec2088d = private unnamed_addr constant <{ ptr, [16 x i8] }> <{ ptr @alloc_ceb4379b47ed1f7ed9f46a275cc711f0, [16 x i8] c"\11\00\00\00\00\00\00\00\16\00\00\00\0D\00\00\00" }>, align 8
@alloc_f90b0db9a501ea4e32af715f06dec6ba = private unnamed_addr constant <{ ptr, [16 x i8] }> <{ ptr @alloc_ceb4379b47ed1f7ed9f46a275cc711f0, [16 x i8] c"\11\00\00\00\00\00\00\00\17\00\00\00\11\00\00\00" }>, align 8
@alloc_45c30a06a14a7f7f08e893da985222d4 = private unnamed_addr constant <{ ptr, [16 x i8] }> <{ ptr @alloc_ceb4379b47ed1f7ed9f46a275cc711f0, [16 x i8] c"\11\00\00\00\00\00\00\00\17\00\00\00\0D\00\00\00" }>, align 8
@"_ZN70_$LT$theo..interrupts..SAFE_IDT$u20$as$u20$core..ops..deref..Deref$GT$5deref11__stability4LAZY17hf7bb39a147a3fe7bE" = internal global <{ [4098 x i8], [1 x i8], [13 x i8], [8 x i8], [8 x i8] }> <{ [4098 x i8] undef, [1 x i8] c"\02", [13 x i8] undef, [8 x i8] zeroinitializer, [8 x i8] undef }>, align 16, !dbg !62
@_ZN4theo11peripherals24VGA_DISPLAY_IN_TEXT_MODE17h8715e970722ff4a1E = internal constant <{}> zeroinitializer, align 1, !dbg !266
@"_ZN87_$LT$theo..peripherals..VGA_DISPLAY_IN_TEXT_MODE$u20$as$u20$core..ops..deref..Deref$GT$5deref11__stability4LAZY17h5da30a1f90e1084aE" = internal global <{ [16 x i8], [224 x i8] }> <{ [16 x i8] zeroinitializer, [224 x i8] undef }>, align 8, !dbg !272
@_ZN4theo11peripherals8KEYBOARD17hb5c519d92d20d068E = internal constant <{}> zeroinitializer, align 1, !dbg !332
@"_ZN71_$LT$theo..peripherals..KEYBOARD$u20$as$u20$core..ops..deref..Deref$GT$5deref11__stability4LAZY17h04e3159a77f9ab3dE" = internal global <{ [10 x i8], [22 x i8] }> <{ [10 x i8] zeroinitializer, [22 x i8] undef }>, align 8, !dbg !337
@_ZN4theo6serial7SERIAL117h4b048069e2da0f0cE = internal constant <{}> zeroinitializer, align 1, !dbg !434
@"_ZN65_$LT$theo..serial..SERIAL1$u20$as$u20$core..ops..deref..Deref$GT$5deref11__stability4LAZY17h592e41af2efb1654E" = internal global <{ [2 x i8], [14 x i8], [8 x i8] }> <{ [2 x i8] zeroinitializer, [14 x i8] undef, [8 x i8] zeroinitializer }>, align 8, !dbg !440
@__rustc_debug_gdb_scripts_section__ = linkonce_odr unnamed_addr constant [34 x i8] c"\01gdb_load_rust_pretty_printers.py\00", section ".debug_gdb_scripts", align 1

; <x86_64::structures::idt::InterruptDescriptorTable as core::ops::index::IndexMut<usize>>::index_mut
; Function Attrs: inlinehint noredzone nounwind
define internal align 4 ptr @"_ZN109_$LT$x86_64..structures..idt..InterruptDescriptorTable$u20$as$u20$core..ops..index..IndexMut$LT$usize$GT$$GT$9index_mut17hf70cb6bddd9533afE"(ptr align 16 %self, i64 %index, ptr align 8 %0) unnamed_addr #0 !dbg !698 {
start:
  %f.dbg.spill.i13 = alloca ptr, align 8
  %x.dbg.spill.i14 = alloca ptr, align 8
  %1 = alloca { ptr, ptr }, align 8
  %f.dbg.spill.i11 = alloca ptr, align 8
  %x.dbg.spill.i12 = alloca ptr, align 8
  %2 = alloca { ptr, ptr }, align 8
  %f.dbg.spill.i9 = alloca ptr, align 8
  %x.dbg.spill.i10 = alloca ptr, align 8
  %3 = alloca { ptr, ptr }, align 8
  %f.dbg.spill.i = alloca ptr, align 8
  %x.dbg.spill.i8 = alloca ptr, align 8
  %4 = alloca { ptr, ptr }, align 8
  %x.dbg.spill.i7 = alloca ptr, align 8
  %x.dbg.spill.i6 = alloca ptr, align 8
  %x.dbg.spill.i5 = alloca ptr, align 8
  %x.dbg.spill.i = alloca ptr, align 8
  %index.dbg.spill = alloca i64, align 8
  %self.dbg.spill = alloca ptr, align 8
  %_60 = alloca [1 x { ptr, ptr }], align 8
  %_56 = alloca %"core::fmt::Arguments<'_>", align 8
  %i3 = alloca i64, align 8
  %_51 = alloca [1 x { ptr, ptr }], align 8
  %_47 = alloca %"core::fmt::Arguments<'_>", align 8
  %i2 = alloca i64, align 8
  %_42 = alloca [1 x { ptr, ptr }], align 8
  %_38 = alloca %"core::fmt::Arguments<'_>", align 8
  %i1 = alloca i64, align 8
  %_33 = alloca [1 x { ptr, ptr }], align 8
  %_29 = alloca %"core::fmt::Arguments<'_>", align 8
  %i = alloca i64, align 8
  %_3 = alloca ptr, align 8
  store ptr %self, ptr %self.dbg.spill, align 8
  call void @llvm.dbg.declare(metadata ptr %self.dbg.spill, metadata !719, metadata !DIExpression()), !dbg !731
  store i64 %index, ptr %index.dbg.spill, align 8
  call void @llvm.dbg.declare(metadata ptr %index.dbg.spill, metadata !720, metadata !DIExpression()), !dbg !732
  call void @llvm.dbg.declare(metadata ptr %index.dbg.spill, metadata !721, metadata !DIExpression()), !dbg !733
  call void @llvm.dbg.declare(metadata ptr %i, metadata !723, metadata !DIExpression()), !dbg !734
  call void @llvm.dbg.declare(metadata ptr %i1, metadata !725, metadata !DIExpression()), !dbg !735
  call void @llvm.dbg.declare(metadata ptr %i2, metadata !727, metadata !DIExpression()), !dbg !736
  call void @llvm.dbg.declare(metadata ptr %i3, metadata !729, metadata !DIExpression()), !dbg !737
  switch i64 %index, label %bb1 [
    i64 0, label %bb8
    i64 1, label %bb9
    i64 2, label %bb10
    i64 3, label %bb11
    i64 4, label %bb12
    i64 5, label %bb13
    i64 6, label %bb14
    i64 7, label %bb15
    i64 9, label %bb16
    i64 16, label %bb17
    i64 19, label %bb18
    i64 20, label %bb19
    i64 15, label %bb24
    i64 31, label %bb25
    i64 8, label %bb30
    i64 17, label %bb32
    i64 29, label %bb33
    i64 30, label %bb34
    i64 18, label %bb37
  ], !dbg !738

bb1:                                              ; preds = %start
  %_8 = icmp ule i64 32, %index, !dbg !739
  br i1 %_8, label %bb2, label %bb3, !dbg !739

bb8:                                              ; preds = %start
  store ptr %self, ptr %_3, align 8, !dbg !740
  br label %bb42, !dbg !741

bb9:                                              ; preds = %start
  %_11 = getelementptr inbounds %"x86_64::structures::idt::InterruptDescriptorTable", ptr %self, i32 0, i32 1, !dbg !742
  store ptr %_11, ptr %_3, align 8, !dbg !742
  br label %bb42, !dbg !743

bb10:                                             ; preds = %start
  %_12 = getelementptr inbounds %"x86_64::structures::idt::InterruptDescriptorTable", ptr %self, i32 0, i32 2, !dbg !744
  store ptr %_12, ptr %_3, align 8, !dbg !744
  br label %bb42, !dbg !745

bb11:                                             ; preds = %start
  %_13 = getelementptr inbounds %"x86_64::structures::idt::InterruptDescriptorTable", ptr %self, i32 0, i32 3, !dbg !746
  store ptr %_13, ptr %_3, align 8, !dbg !746
  br label %bb42, !dbg !747

bb12:                                             ; preds = %start
  %_14 = getelementptr inbounds %"x86_64::structures::idt::InterruptDescriptorTable", ptr %self, i32 0, i32 4, !dbg !748
  store ptr %_14, ptr %_3, align 8, !dbg !748
  br label %bb42, !dbg !749

bb13:                                             ; preds = %start
  %_15 = getelementptr inbounds %"x86_64::structures::idt::InterruptDescriptorTable", ptr %self, i32 0, i32 5, !dbg !750
  store ptr %_15, ptr %_3, align 8, !dbg !750
  br label %bb42, !dbg !751

bb14:                                             ; preds = %start
  %_16 = getelementptr inbounds %"x86_64::structures::idt::InterruptDescriptorTable", ptr %self, i32 0, i32 6, !dbg !752
  store ptr %_16, ptr %_3, align 8, !dbg !752
  br label %bb42, !dbg !753

bb15:                                             ; preds = %start
  %_17 = getelementptr inbounds %"x86_64::structures::idt::InterruptDescriptorTable", ptr %self, i32 0, i32 7, !dbg !754
  store ptr %_17, ptr %_3, align 8, !dbg !754
  br label %bb42, !dbg !755

bb16:                                             ; preds = %start
  %_18 = getelementptr inbounds %"x86_64::structures::idt::InterruptDescriptorTable", ptr %self, i32 0, i32 9, !dbg !756
  store ptr %_18, ptr %_3, align 8, !dbg !756
  br label %bb42, !dbg !757

bb17:                                             ; preds = %start
  %_19 = getelementptr inbounds %"x86_64::structures::idt::InterruptDescriptorTable", ptr %self, i32 0, i32 16, !dbg !758
  store ptr %_19, ptr %_3, align 8, !dbg !758
  br label %bb42, !dbg !759

bb18:                                             ; preds = %start
  %_20 = getelementptr inbounds %"x86_64::structures::idt::InterruptDescriptorTable", ptr %self, i32 0, i32 19, !dbg !760
  store ptr %_20, ptr %_3, align 8, !dbg !760
  br label %bb42, !dbg !761

bb19:                                             ; preds = %start
  %_21 = getelementptr inbounds %"x86_64::structures::idt::InterruptDescriptorTable", ptr %self, i32 0, i32 20, !dbg !762
  store ptr %_21, ptr %_3, align 8, !dbg !762
  br label %bb42, !dbg !763

bb24:                                             ; preds = %start
  store i64 %index, ptr %i, align 8, !dbg !764
  br label %bb23, !dbg !738

bb25:                                             ; preds = %start
  store i64 %index, ptr %i, align 8, !dbg !765
  br label %bb23, !dbg !738

bb30:                                             ; preds = %start
  store i64 %index, ptr %i1, align 8, !dbg !766
  br label %bb29, !dbg !738

bb32:                                             ; preds = %start
  store i64 %index, ptr %i1, align 8, !dbg !767
  br label %bb29, !dbg !738

bb33:                                             ; preds = %start
  store i64 %index, ptr %i1, align 8, !dbg !768
  br label %bb29, !dbg !738

bb34:                                             ; preds = %start
  store i64 %index, ptr %i1, align 8, !dbg !769
  br label %bb29, !dbg !738

bb37:                                             ; preds = %start
  store i64 %index, ptr %i2, align 8, !dbg !770
  store ptr %i2, ptr %x.dbg.spill.i6, align 8
  call void @llvm.dbg.declare(metadata ptr %x.dbg.spill.i6, metadata !771, metadata !DIExpression()), !dbg !837
  store ptr %i2, ptr %x.dbg.spill.i10, align 8
  call void @llvm.dbg.declare(metadata ptr %x.dbg.spill.i10, metadata !839, metadata !DIExpression()), !dbg !848
  store ptr @"_ZN4core3fmt3num3imp54_$LT$impl$u20$core..fmt..Display$u20$for$u20$usize$GT$3fmt17h70a5820d5191e3efE", ptr %f.dbg.spill.i9, align 8
  call void @llvm.dbg.declare(metadata ptr %f.dbg.spill.i9, metadata !847, metadata !DIExpression()), !dbg !850
  store ptr %i2, ptr %3, align 8, !dbg !851
  %5 = getelementptr inbounds { ptr, ptr }, ptr %3, i32 0, i32 1, !dbg !851
  store ptr @"_ZN4core3fmt3num3imp54_$LT$impl$u20$core..fmt..Display$u20$for$u20$usize$GT$3fmt17h70a5820d5191e3efE", ptr %5, align 8, !dbg !851
  %6 = load ptr, ptr %3, align 8, !dbg !852, !nonnull !27, !align !853, !noundef !27
  %7 = getelementptr inbounds { ptr, ptr }, ptr %3, i32 0, i32 1, !dbg !852
  %8 = load ptr, ptr %7, align 8, !dbg !852, !nonnull !27, !noundef !27
  %9 = insertvalue { ptr, ptr } poison, ptr %6, 0, !dbg !852
  %10 = insertvalue { ptr, ptr } %9, ptr %8, 1, !dbg !852
  %11 = extractvalue { ptr, ptr } %10, 0, !dbg !854
  %12 = extractvalue { ptr, ptr } %10, 1, !dbg !854
  %_52.0 = extractvalue { ptr, ptr } %10, 0, !dbg !855
  %_52.1 = extractvalue { ptr, ptr } %10, 1, !dbg !855
  %13 = getelementptr inbounds [1 x { ptr, ptr }], ptr %_51, i64 0, i64 0, !dbg !855
  %14 = getelementptr inbounds { ptr, ptr }, ptr %13, i32 0, i32 0, !dbg !855
  store ptr %_52.0, ptr %14, align 8, !dbg !855
  %15 = getelementptr inbounds { ptr, ptr }, ptr %13, i32 0, i32 1, !dbg !855
  store ptr %_52.1, ptr %15, align 8, !dbg !855
; call core::fmt::Arguments::new_v1
  call void @_ZN4core3fmt9Arguments6new_v117hc523a9f23c30a71aE(ptr sret(%"core::fmt::Arguments<'_>") %_47, ptr align 8 @alloc_d828fab08d116782a6d84a27e7c35707, i64 2, ptr align 8 %_51, i64 1) #9, !dbg !855
; call core::panicking::panic_fmt
  call void @_ZN4core9panicking9panic_fmt17hdd6269d09ded55c6E(ptr %_47, ptr align 8 %0) #11, !dbg !855
  unreachable, !dbg !855

bb3:                                              ; preds = %bb2, %bb1
  %_6 = icmp ule i64 21, %index, !dbg !856
  br i1 %_6, label %bb4, label %bb5, !dbg !856

bb2:                                              ; preds = %bb1
  %_9 = icmp ule i64 %index, 255, !dbg !739
  br i1 %_9, label %bb20, label %bb3, !dbg !739

bb20:                                             ; preds = %bb2
  %_24.0 = sub i64 %index, 32, !dbg !857
  %_24.1 = icmp ult i64 %index, 32, !dbg !857
  %16 = call i1 @llvm.expect.i1(i1 %_24.1, i1 false), !dbg !857
  br i1 %16, label %panic, label %bb21, !dbg !857

bb21:                                             ; preds = %bb20
  %_26 = icmp ult i64 %_24.0, 224, !dbg !858
  %17 = call i1 @llvm.expect.i1(i1 %_26, i1 true), !dbg !858
  br i1 %17, label %bb22, label %panic4, !dbg !858

panic:                                            ; preds = %bb20
; call core::panicking::panic
  call void @_ZN4core9panicking5panic17hee5d285669f2f2eaE(ptr align 1 @str.0, i64 33, ptr align 8 %0) #11, !dbg !857
  unreachable, !dbg !857

bb22:                                             ; preds = %bb21
  %18 = getelementptr inbounds %"x86_64::structures::idt::InterruptDescriptorTable", ptr %self, i32 0, i32 25, !dbg !859
  %_22 = getelementptr inbounds [224 x %"x86_64::structures::idt::Entry<extern \22x86-interrupt\22 fn(x86_64::structures::idt::InterruptStackFrame)>"], ptr %18, i64 0, i64 %_24.0, !dbg !859
  store ptr %_22, ptr %_3, align 8, !dbg !859
  br label %bb42, !dbg !860

panic4:                                           ; preds = %bb21
; call core::panicking::panic_bounds_check
  call void @_ZN4core9panicking18panic_bounds_check17hba7ddab648238e64E(i64 %_24.0, i64 224, ptr align 8 %0) #11, !dbg !858
  unreachable, !dbg !858

bb42:                                             ; preds = %bb8, %bb9, %bb10, %bb11, %bb12, %bb13, %bb14, %bb15, %bb16, %bb17, %bb18, %bb19, %bb22
  %19 = load ptr, ptr %_3, align 8, !dbg !738, !nonnull !27, !align !861, !noundef !27
  ret ptr %19, !dbg !862

bb5:                                              ; preds = %bb4, %bb3
  %_4 = icmp ule i64 10, %index, !dbg !863
  br i1 %_4, label %bb6, label %bb7, !dbg !863

bb4:                                              ; preds = %bb3
  %_7 = icmp ule i64 %index, 28, !dbg !856
  br i1 %_7, label %bb26, label %bb5, !dbg !856

bb26:                                             ; preds = %bb4
  store i64 %index, ptr %i, align 8, !dbg !864
  br label %bb23, !dbg !738

bb23:                                             ; preds = %bb24, %bb25, %bb26
  store ptr %i, ptr %x.dbg.spill.i, align 8
  call void @llvm.dbg.declare(metadata ptr %x.dbg.spill.i, metadata !771, metadata !DIExpression()), !dbg !865
  store ptr %i, ptr %x.dbg.spill.i14, align 8
  call void @llvm.dbg.declare(metadata ptr %x.dbg.spill.i14, metadata !839, metadata !DIExpression()), !dbg !867
  store ptr @"_ZN4core3fmt3num3imp54_$LT$impl$u20$core..fmt..Display$u20$for$u20$usize$GT$3fmt17h70a5820d5191e3efE", ptr %f.dbg.spill.i13, align 8
  call void @llvm.dbg.declare(metadata ptr %f.dbg.spill.i13, metadata !847, metadata !DIExpression()), !dbg !869
  store ptr %i, ptr %1, align 8, !dbg !870
  %20 = getelementptr inbounds { ptr, ptr }, ptr %1, i32 0, i32 1, !dbg !870
  store ptr @"_ZN4core3fmt3num3imp54_$LT$impl$u20$core..fmt..Display$u20$for$u20$usize$GT$3fmt17h70a5820d5191e3efE", ptr %20, align 8, !dbg !870
  %21 = load ptr, ptr %1, align 8, !dbg !871, !nonnull !27, !align !853, !noundef !27
  %22 = getelementptr inbounds { ptr, ptr }, ptr %1, i32 0, i32 1, !dbg !871
  %23 = load ptr, ptr %22, align 8, !dbg !871, !nonnull !27, !noundef !27
  %24 = insertvalue { ptr, ptr } poison, ptr %21, 0, !dbg !871
  %25 = insertvalue { ptr, ptr } %24, ptr %23, 1, !dbg !871
  %26 = extractvalue { ptr, ptr } %25, 0, !dbg !872
  %27 = extractvalue { ptr, ptr } %25, 1, !dbg !872
  %_34.0 = extractvalue { ptr, ptr } %25, 0, !dbg !873
  %_34.1 = extractvalue { ptr, ptr } %25, 1, !dbg !873
  %28 = getelementptr inbounds [1 x { ptr, ptr }], ptr %_33, i64 0, i64 0, !dbg !873
  %29 = getelementptr inbounds { ptr, ptr }, ptr %28, i32 0, i32 0, !dbg !873
  store ptr %_34.0, ptr %29, align 8, !dbg !873
  %30 = getelementptr inbounds { ptr, ptr }, ptr %28, i32 0, i32 1, !dbg !873
  store ptr %_34.1, ptr %30, align 8, !dbg !873
; call core::fmt::Arguments::new_v1
  call void @_ZN4core3fmt9Arguments6new_v117hc523a9f23c30a71aE(ptr sret(%"core::fmt::Arguments<'_>") %_29, ptr align 8 @alloc_d743347393ab490786856fac0eec1b82, i64 2, ptr align 8 %_33, i64 1) #9, !dbg !873
; call core::panicking::panic_fmt
  call void @_ZN4core9panicking9panic_fmt17hdd6269d09ded55c6E(ptr %_29, ptr align 8 %0) #11, !dbg !873
  unreachable, !dbg !873

bb7:                                              ; preds = %bb6, %bb5
  store i64 %index, ptr %i3, align 8, !dbg !874
  store ptr %i3, ptr %x.dbg.spill.i7, align 8
  call void @llvm.dbg.declare(metadata ptr %x.dbg.spill.i7, metadata !771, metadata !DIExpression()), !dbg !875
  store ptr %i3, ptr %x.dbg.spill.i8, align 8
  call void @llvm.dbg.declare(metadata ptr %x.dbg.spill.i8, metadata !839, metadata !DIExpression()), !dbg !877
  store ptr @"_ZN4core3fmt3num3imp54_$LT$impl$u20$core..fmt..Display$u20$for$u20$usize$GT$3fmt17h70a5820d5191e3efE", ptr %f.dbg.spill.i, align 8
  call void @llvm.dbg.declare(metadata ptr %f.dbg.spill.i, metadata !847, metadata !DIExpression()), !dbg !879
  store ptr %i3, ptr %4, align 8, !dbg !880
  %31 = getelementptr inbounds { ptr, ptr }, ptr %4, i32 0, i32 1, !dbg !880
  store ptr @"_ZN4core3fmt3num3imp54_$LT$impl$u20$core..fmt..Display$u20$for$u20$usize$GT$3fmt17h70a5820d5191e3efE", ptr %31, align 8, !dbg !880
  %32 = load ptr, ptr %4, align 8, !dbg !881, !nonnull !27, !align !853, !noundef !27
  %33 = getelementptr inbounds { ptr, ptr }, ptr %4, i32 0, i32 1, !dbg !881
  %34 = load ptr, ptr %33, align 8, !dbg !881, !nonnull !27, !noundef !27
  %35 = insertvalue { ptr, ptr } poison, ptr %32, 0, !dbg !881
  %36 = insertvalue { ptr, ptr } %35, ptr %34, 1, !dbg !881
  %37 = extractvalue { ptr, ptr } %36, 0, !dbg !882
  %38 = extractvalue { ptr, ptr } %36, 1, !dbg !882
  %_61.0 = extractvalue { ptr, ptr } %36, 0, !dbg !883
  %_61.1 = extractvalue { ptr, ptr } %36, 1, !dbg !883
  %39 = getelementptr inbounds [1 x { ptr, ptr }], ptr %_60, i64 0, i64 0, !dbg !883
  %40 = getelementptr inbounds { ptr, ptr }, ptr %39, i32 0, i32 0, !dbg !883
  store ptr %_61.0, ptr %40, align 8, !dbg !883
  %41 = getelementptr inbounds { ptr, ptr }, ptr %39, i32 0, i32 1, !dbg !883
  store ptr %_61.1, ptr %41, align 8, !dbg !883
; call core::fmt::Arguments::new_v1
  call void @_ZN4core3fmt9Arguments6new_v117hc523a9f23c30a71aE(ptr sret(%"core::fmt::Arguments<'_>") %_56, ptr align 8 @alloc_4407e9db65b5731fa81ce22dd51cf15b, i64 1, ptr align 8 %_60, i64 1) #9, !dbg !883
; call core::panicking::panic_fmt
  call void @_ZN4core9panicking9panic_fmt17hdd6269d09ded55c6E(ptr %_56, ptr align 8 %0) #11, !dbg !883
  unreachable, !dbg !883

bb6:                                              ; preds = %bb5
  %_5 = icmp ule i64 %index, 14, !dbg !863
  br i1 %_5, label %bb31, label %bb7, !dbg !863

bb31:                                             ; preds = %bb6
  store i64 %index, ptr %i1, align 8, !dbg !884
  br label %bb29, !dbg !738

bb29:                                             ; preds = %bb30, %bb32, %bb33, %bb34, %bb31
  store ptr %i1, ptr %x.dbg.spill.i5, align 8
  call void @llvm.dbg.declare(metadata ptr %x.dbg.spill.i5, metadata !771, metadata !DIExpression()), !dbg !885
  store ptr %i1, ptr %x.dbg.spill.i12, align 8
  call void @llvm.dbg.declare(metadata ptr %x.dbg.spill.i12, metadata !839, metadata !DIExpression()), !dbg !887
  store ptr @"_ZN4core3fmt3num3imp54_$LT$impl$u20$core..fmt..Display$u20$for$u20$usize$GT$3fmt17h70a5820d5191e3efE", ptr %f.dbg.spill.i11, align 8
  call void @llvm.dbg.declare(metadata ptr %f.dbg.spill.i11, metadata !847, metadata !DIExpression()), !dbg !889
  store ptr %i1, ptr %2, align 8, !dbg !890
  %42 = getelementptr inbounds { ptr, ptr }, ptr %2, i32 0, i32 1, !dbg !890
  store ptr @"_ZN4core3fmt3num3imp54_$LT$impl$u20$core..fmt..Display$u20$for$u20$usize$GT$3fmt17h70a5820d5191e3efE", ptr %42, align 8, !dbg !890
  %43 = load ptr, ptr %2, align 8, !dbg !891, !nonnull !27, !align !853, !noundef !27
  %44 = getelementptr inbounds { ptr, ptr }, ptr %2, i32 0, i32 1, !dbg !891
  %45 = load ptr, ptr %44, align 8, !dbg !891, !nonnull !27, !noundef !27
  %46 = insertvalue { ptr, ptr } poison, ptr %43, 0, !dbg !891
  %47 = insertvalue { ptr, ptr } %46, ptr %45, 1, !dbg !891
  %48 = extractvalue { ptr, ptr } %47, 0, !dbg !892
  %49 = extractvalue { ptr, ptr } %47, 1, !dbg !892
  %_43.0 = extractvalue { ptr, ptr } %47, 0, !dbg !893
  %_43.1 = extractvalue { ptr, ptr } %47, 1, !dbg !893
  %50 = getelementptr inbounds [1 x { ptr, ptr }], ptr %_42, i64 0, i64 0, !dbg !893
  %51 = getelementptr inbounds { ptr, ptr }, ptr %50, i32 0, i32 0, !dbg !893
  store ptr %_43.0, ptr %51, align 8, !dbg !893
  %52 = getelementptr inbounds { ptr, ptr }, ptr %50, i32 0, i32 1, !dbg !893
  store ptr %_43.1, ptr %52, align 8, !dbg !893
; call core::fmt::Arguments::new_v1
  call void @_ZN4core3fmt9Arguments6new_v117hc523a9f23c30a71aE(ptr sret(%"core::fmt::Arguments<'_>") %_38, ptr align 8 @alloc_1fe542937cac8fb1fe1c032a3b633bce, i64 2, ptr align 8 %_42, i64 1) #9, !dbg !893
; call core::panicking::panic_fmt
  call void @_ZN4core9panicking9panic_fmt17hdd6269d09ded55c6E(ptr %_38, ptr align 8 %0) #11, !dbg !893
  unreachable, !dbg !893
}

; pc_keyboard::EventDecoder<L>::new
; Function Attrs: noredzone nounwind
define internal void @"_ZN11pc_keyboard21EventDecoder$LT$L$GT$3new17h7abb6502559a4970E"(ptr sret(%"pc_keyboard::EventDecoder<pc_keyboard::layouts::us104::Us104Key>") %0, i1 zeroext %handle_ctrl) unnamed_addr #1 !dbg !894 {
start:
  %handle_ctrl.dbg.spill = alloca i8, align 1
  %layout.dbg.spill = alloca %"pc_keyboard::layouts::us104::Us104Key", align 1
  %_3 = alloca %"pc_keyboard::Modifiers", align 1
  call void @llvm.dbg.declare(metadata ptr %layout.dbg.spill, metadata !899, metadata !DIExpression()), !dbg !901
  %1 = zext i1 %handle_ctrl to i8
  store i8 %1, ptr %handle_ctrl.dbg.spill, align 1
  call void @llvm.dbg.declare(metadata ptr %handle_ctrl.dbg.spill, metadata !900, metadata !DIExpression()), !dbg !902
  store i8 0, ptr %_3, align 1, !dbg !903
  %2 = getelementptr inbounds %"pc_keyboard::Modifiers", ptr %_3, i32 0, i32 1, !dbg !903
  store i8 0, ptr %2, align 1, !dbg !903
  %3 = getelementptr inbounds %"pc_keyboard::Modifiers", ptr %_3, i32 0, i32 2, !dbg !903
  store i8 0, ptr %3, align 1, !dbg !903
  %4 = getelementptr inbounds %"pc_keyboard::Modifiers", ptr %_3, i32 0, i32 3, !dbg !903
  store i8 0, ptr %4, align 1, !dbg !903
  %5 = getelementptr inbounds %"pc_keyboard::Modifiers", ptr %_3, i32 0, i32 4, !dbg !903
  store i8 1, ptr %5, align 1, !dbg !903
  %6 = getelementptr inbounds %"pc_keyboard::Modifiers", ptr %_3, i32 0, i32 5, !dbg !903
  store i8 0, ptr %6, align 1, !dbg !903
  %7 = getelementptr inbounds %"pc_keyboard::Modifiers", ptr %_3, i32 0, i32 6, !dbg !903
  store i8 0, ptr %7, align 1, !dbg !903
  %8 = getelementptr inbounds %"pc_keyboard::Modifiers", ptr %_3, i32 0, i32 7, !dbg !903
  store i8 0, ptr %8, align 1, !dbg !903
  %9 = zext i1 %handle_ctrl to i8, !dbg !904
  store i8 %9, ptr %0, align 1, !dbg !904
  %10 = getelementptr inbounds %"pc_keyboard::EventDecoder<pc_keyboard::layouts::us104::Us104Key>", ptr %0, i32 0, i32 2, !dbg !904
  call void @llvm.memcpy.p0.p0.i64(ptr align 1 %10, ptr align 1 %_3, i64 8, i1 false), !dbg !904
  ret void, !dbg !905
}

; pc_keyboard::Keyboard<L,S>::new
; Function Attrs: noredzone nounwind
define internal void @"_ZN11pc_keyboard21Keyboard$LT$L$C$S$GT$3new17h59087364b2e25e5cE"(ptr sret(%"pc_keyboard::Keyboard<pc_keyboard::layouts::us104::Us104Key, pc_keyboard::scancodes::set1::ScancodeSet1>") %0, i8 %scancode_set, i1 zeroext %handle_ctrl) unnamed_addr #1 !dbg !906 {
start:
  %handle_ctrl.dbg.spill = alloca i8, align 1
  %layout.dbg.spill = alloca %"pc_keyboard::layouts::us104::Us104Key", align 1
  %scancode_set.dbg.spill = alloca i8, align 1
  %_5 = alloca %"pc_keyboard::EventDecoder<pc_keyboard::layouts::us104::Us104Key>", align 1
  store i8 %scancode_set, ptr %scancode_set.dbg.spill, align 1
  call void @llvm.dbg.declare(metadata ptr %scancode_set.dbg.spill, metadata !910, metadata !DIExpression()), !dbg !913
  call void @llvm.dbg.declare(metadata ptr %layout.dbg.spill, metadata !911, metadata !DIExpression()), !dbg !914
  %1 = zext i1 %handle_ctrl to i8
  store i8 %1, ptr %handle_ctrl.dbg.spill, align 1
  call void @llvm.dbg.declare(metadata ptr %handle_ctrl.dbg.spill, metadata !912, metadata !DIExpression()), !dbg !915
; call pc_keyboard::Ps2Decoder::new
  %2 = call { i16, i8 } @_ZN11pc_keyboard10Ps2Decoder3new17hf20e7314c47c7c66E() #9, !dbg !916
  %_4.0 = extractvalue { i16, i8 } %2, 0, !dbg !916
  %_4.1 = extractvalue { i16, i8 } %2, 1, !dbg !916
; call pc_keyboard::EventDecoder<L>::new
  call void @"_ZN11pc_keyboard21EventDecoder$LT$L$GT$3new17h7abb6502559a4970E"(ptr sret(%"pc_keyboard::EventDecoder<pc_keyboard::layouts::us104::Us104Key>") %_5, i1 zeroext %handle_ctrl) #9, !dbg !917
  %3 = getelementptr inbounds { i16, i8 }, ptr %0, i32 0, i32 0, !dbg !918
  store i16 %_4.0, ptr %3, align 2, !dbg !918
  %4 = getelementptr inbounds { i16, i8 }, ptr %0, i32 0, i32 1, !dbg !918
  store i8 %_4.1, ptr %4, align 2, !dbg !918
  %5 = getelementptr inbounds %"pc_keyboard::Keyboard<pc_keyboard::layouts::us104::Us104Key, pc_keyboard::scancodes::set1::ScancodeSet1>", ptr %0, i32 0, i32 2, !dbg !918
  store i8 %scancode_set, ptr %5, align 1, !dbg !918
  %6 = getelementptr inbounds %"pc_keyboard::Keyboard<pc_keyboard::layouts::us104::Us104Key, pc_keyboard::scancodes::set1::ScancodeSet1>", ptr %0, i32 0, i32 1, !dbg !918
  call void @llvm.memcpy.p0.p0.i64(ptr align 2 %6, ptr align 1 %_5, i64 9, i1 false), !dbg !918
  ret void, !dbg !919
}

; cpu_interrupts::without_interrupts
; Function Attrs: noredzone nounwind
define internal void @_ZN14cpu_interrupts18without_interrupts17h7b4d67ff578b5d8aE(ptr align 8 %f) unnamed_addr #1 !dbg !920 {
start:
  %f.dbg.spill = alloca ptr, align 8
  store ptr %f, ptr %f.dbg.spill, align 8
  call void @llvm.dbg.declare(metadata ptr %f.dbg.spill, metadata !986, metadata !DIExpression()), !dbg !990
; call x86_64::instructions::interrupts::without_interrupts
  call void @_ZN6x86_6412instructions10interrupts18without_interrupts17h7518792d18834d10E(ptr align 8 %f) #9, !dbg !991
  ret void, !dbg !992
}

; <&T as core::fmt::Debug>::fmt
; Function Attrs: noredzone nounwind
define internal zeroext i1 @"_ZN42_$LT$$RF$T$u20$as$u20$core..fmt..Debug$GT$3fmt17h229fb95b0e890388E"(ptr align 8 %self, ptr align 8 %f) unnamed_addr #1 !dbg !993 {
start:
  %f.dbg.spill = alloca ptr, align 8
  %self.dbg.spill = alloca ptr, align 8
  store ptr %self, ptr %self.dbg.spill, align 8
  call void @llvm.dbg.declare(metadata ptr %self.dbg.spill, metadata !1027, metadata !DIExpression()), !dbg !1031
  store ptr %f, ptr %f.dbg.spill, align 8
  call void @llvm.dbg.declare(metadata ptr %f.dbg.spill, metadata !1028, metadata !DIExpression()), !dbg !1032
  %_3 = load ptr, ptr %self, align 8, !dbg !1033, !nonnull !27, !align !1034, !noundef !27
; call <core::panic::panic_info::PanicInfo as core::fmt::Debug>::fmt
  %0 = call zeroext i1 @"_ZN71_$LT$core..panic..panic_info..PanicInfo$u20$as$u20$core..fmt..Debug$GT$3fmt17hcec14fee2e60e320E"(ptr align 8 %_3, ptr align 8 %f) #9, !dbg !1035
  ret i1 %0, !dbg !1036
}

; <u16 as bit_field::BitField>::set_bit
; Function Attrs: inlinehint noredzone nounwind
define internal align 2 ptr @"_ZN43_$LT$u16$u20$as$u20$bit_field..BitField$GT$7set_bit17h363f3cdc84a7aab4E"(ptr align 2 %self, i64 %bit, i1 zeroext %value) unnamed_addr #0 !dbg !1037 {
start:
  %value.dbg.spill = alloca i8, align 1
  %bit.dbg.spill = alloca i64, align 8
  %self.dbg.spill = alloca ptr, align 8
  store ptr %self, ptr %self.dbg.spill, align 8
  call void @llvm.dbg.declare(metadata ptr %self.dbg.spill, metadata !1045, metadata !DIExpression()), !dbg !1048
  store i64 %bit, ptr %bit.dbg.spill, align 8
  call void @llvm.dbg.declare(metadata ptr %bit.dbg.spill, metadata !1046, metadata !DIExpression()), !dbg !1049
  %0 = zext i1 %value to i8
  store i8 %0, ptr %value.dbg.spill, align 1
  call void @llvm.dbg.declare(metadata ptr %value.dbg.spill, metadata !1047, metadata !DIExpression()), !dbg !1050
  %_5 = icmp ult i64 %bit, 16, !dbg !1051
  %_4 = xor i1 %_5, true, !dbg !1052
  br i1 %_4, label %bb1, label %bb2, !dbg !1052

bb2:                                              ; preds = %start
  br i1 %value, label %bb3, label %bb4, !dbg !1053

bb1:                                              ; preds = %start
; call core::panicking::panic
  call void @_ZN4core9panicking5panic17hee5d285669f2f2eaE(ptr align 1 @alloc_6923360c3161738641b3989c6181ce08, i64 40, ptr align 8 @alloc_b01c63d7eb55c84e9d45ae152316a96d) #11, !dbg !1052
  unreachable, !dbg !1052

bb4:                                              ; preds = %bb2
  %_11 = icmp ult i64 %bit, 16, !dbg !1054
  %1 = call i1 @llvm.expect.i1(i1 %_11, i1 true), !dbg !1054
  br i1 %1, label %bb6, label %panic1, !dbg !1054

bb3:                                              ; preds = %bb2
  %_8 = icmp ult i64 %bit, 16, !dbg !1055
  %2 = call i1 @llvm.expect.i1(i1 %_8, i1 true), !dbg !1055
  br i1 %2, label %bb5, label %panic, !dbg !1055

bb5:                                              ; preds = %bb3
  %3 = trunc i64 %bit to i16, !dbg !1055
  %4 = and i16 %3, 15, !dbg !1055
  %_7 = shl i16 1, %4, !dbg !1055
  %5 = load i16, ptr %self, align 2, !dbg !1056, !noundef !27
  %6 = or i16 %5, %_7, !dbg !1056
  store i16 %6, ptr %self, align 2, !dbg !1056
  br label %bb7, !dbg !1057

panic:                                            ; preds = %bb3
; call core::panicking::panic
  call void @_ZN4core9panicking5panic17hee5d285669f2f2eaE(ptr align 1 @str.1, i64 35, ptr align 8 @alloc_b01c63d7eb55c84e9d45ae152316a96d) #11, !dbg !1055
  unreachable, !dbg !1055

bb7:                                              ; preds = %bb6, %bb5
  ret ptr %self, !dbg !1058

bb6:                                              ; preds = %bb4
  %7 = trunc i64 %bit to i16, !dbg !1054
  %8 = and i16 %7, 15, !dbg !1054
  %_10 = shl i16 1, %8, !dbg !1054
  %_9 = xor i16 %_10, -1, !dbg !1059
  %9 = load i16, ptr %self, align 2, !dbg !1060, !noundef !27
  %10 = and i16 %9, %_9, !dbg !1060
  store i16 %10, ptr %self, align 2, !dbg !1060
  br label %bb7, !dbg !1057

panic1:                                           ; preds = %bb4
; call core::panicking::panic
  call void @_ZN4core9panicking5panic17hee5d285669f2f2eaE(ptr align 1 @str.1, i64 35, ptr align 8 @alloc_b01c63d7eb55c84e9d45ae152316a96d) #11, !dbg !1054
  unreachable, !dbg !1054
}

; core::fmt::Write::write_char
; Function Attrs: noredzone nounwind
define internal zeroext i1 @_ZN4core3fmt5Write10write_char17h85777d83c99fa46dE(ptr align 8 %self, i32 %c) unnamed_addr #1 !dbg !1061 {
start:
  %c.dbg.spill = alloca i32, align 4
  %self.dbg.spill = alloca ptr, align 8
  %_7 = alloca [4 x i8], align 1
  store ptr %self, ptr %self.dbg.spill, align 8
  call void @llvm.dbg.declare(metadata ptr %self.dbg.spill, metadata !1066, metadata !DIExpression()), !dbg !1070
  store i32 %c, ptr %c.dbg.spill, align 4
  call void @llvm.dbg.declare(metadata ptr %c.dbg.spill, metadata !1067, metadata !DIExpression()), !dbg !1071
  %0 = getelementptr inbounds [4 x i8], ptr %_7, i64 0, i64 0, !dbg !1072
  call void @llvm.memset.p0.i64(ptr align 1 %0, i8 0, i64 4, i1 false), !dbg !1072
; call core::char::methods::<impl char>::encode_utf8
  %1 = call { ptr, i64 } @"_ZN4core4char7methods22_$LT$impl$u20$char$GT$11encode_utf817h67adde8e9dc6d052E"(i32 %c, ptr align 1 %_7, i64 4) #9, !dbg !1073
  %_4.0 = extractvalue { ptr, i64 } %1, 0, !dbg !1073
  %_4.1 = extractvalue { ptr, i64 } %1, 1, !dbg !1073
; call <vga::Screen as core::fmt::Write>::write_str
  %2 = call zeroext i1 @"_ZN48_$LT$vga..Screen$u20$as$u20$core..fmt..Write$GT$9write_str17h4afa8fca70201c0bE"(ptr align 8 %self, ptr align 1 %_4.0, i64 %_4.1) #9, !dbg !1074
  ret i1 %2, !dbg !1075
}

; core::fmt::Write::write_fmt
; Function Attrs: noredzone nounwind
define internal zeroext i1 @_ZN4core3fmt5Write9write_fmt17h56654be2d115b4abE(ptr align 8 %0, ptr %args) unnamed_addr #1 !dbg !1076 {
start:
  %1 = alloca %"core::fmt::Arguments<'_>", align 8
  %self = alloca ptr, align 8
  store ptr %0, ptr %self, align 8
  call void @llvm.dbg.declare(metadata ptr %self, metadata !1080, metadata !DIExpression()), !dbg !1082
  call void @llvm.dbg.declare(metadata ptr %args, metadata !1081, metadata !DIExpression()), !dbg !1083
  call void @llvm.memcpy.p0.p0.i64(ptr align 8 %1, ptr align 8 %args, i64 48, i1 false), !dbg !1084
; call core::fmt::write
  %2 = call zeroext i1 @_ZN4core3fmt5write17he95e5234fc57086cE(ptr align 1 %self, ptr align 8 @vtable.2, ptr %1) #9, !dbg !1084
  ret i1 %2, !dbg !1085
}

; core::fmt::Arguments::new_v1_formatted
; Function Attrs: inlinehint noredzone nounwind
define internal void @_ZN4core3fmt9Arguments16new_v1_formatted17h41e0b514e092532bE(ptr sret(%"core::fmt::Arguments<'_>") %0, ptr align 8 %pieces.0, i64 %pieces.1, ptr align 8 %args.0, i64 %args.1, ptr align 8 %fmt.0, i64 %fmt.1) unnamed_addr #0 !dbg !1086 {
start:
  %_4.dbg.spill = alloca %"core::fmt::rt::UnsafeArg", align 1
  %fmt.dbg.spill = alloca { ptr, i64 }, align 8
  %args.dbg.spill = alloca { ptr, i64 }, align 8
  %pieces.dbg.spill = alloca { ptr, i64 }, align 8
  %_5 = alloca { ptr, i64 }, align 8
  %_unsafe_arg.dbg.spill = alloca %"core::fmt::rt::UnsafeArg", align 1
  call void @llvm.dbg.declare(metadata ptr %_unsafe_arg.dbg.spill, metadata !1096, metadata !DIExpression()), !dbg !1098
  %1 = getelementptr inbounds { ptr, i64 }, ptr %pieces.dbg.spill, i32 0, i32 0, !dbg !1098
  store ptr %pieces.0, ptr %1, align 8, !dbg !1098
  %2 = getelementptr inbounds { ptr, i64 }, ptr %pieces.dbg.spill, i32 0, i32 1, !dbg !1098
  store i64 %pieces.1, ptr %2, align 8, !dbg !1098
  call void @llvm.dbg.declare(metadata ptr %pieces.dbg.spill, metadata !1093, metadata !DIExpression()), !dbg !1099
  %3 = getelementptr inbounds { ptr, i64 }, ptr %args.dbg.spill, i32 0, i32 0, !dbg !1098
  store ptr %args.0, ptr %3, align 8, !dbg !1098
  %4 = getelementptr inbounds { ptr, i64 }, ptr %args.dbg.spill, i32 0, i32 1, !dbg !1098
  store i64 %args.1, ptr %4, align 8, !dbg !1098
  call void @llvm.dbg.declare(metadata ptr %args.dbg.spill, metadata !1094, metadata !DIExpression()), !dbg !1100
  %5 = getelementptr inbounds { ptr, i64 }, ptr %fmt.dbg.spill, i32 0, i32 0, !dbg !1098
  store ptr %fmt.0, ptr %5, align 8, !dbg !1098
  %6 = getelementptr inbounds { ptr, i64 }, ptr %fmt.dbg.spill, i32 0, i32 1, !dbg !1098
  store i64 %fmt.1, ptr %6, align 8, !dbg !1098
  call void @llvm.dbg.declare(metadata ptr %fmt.dbg.spill, metadata !1095, metadata !DIExpression()), !dbg !1101
  call void @llvm.dbg.declare(metadata ptr %_4.dbg.spill, metadata !1097, metadata !DIExpression()), !dbg !1098
  %7 = getelementptr inbounds { ptr, i64 }, ptr %_5, i32 0, i32 0, !dbg !1102
  store ptr %fmt.0, ptr %7, align 8, !dbg !1102
  %8 = getelementptr inbounds { ptr, i64 }, ptr %_5, i32 0, i32 1, !dbg !1102
  store i64 %fmt.1, ptr %8, align 8, !dbg !1102
  %9 = getelementptr inbounds { ptr, i64 }, ptr %0, i32 0, i32 0, !dbg !1103
  store ptr %pieces.0, ptr %9, align 8, !dbg !1103
  %10 = getelementptr inbounds { ptr, i64 }, ptr %0, i32 0, i32 1, !dbg !1103
  store i64 %pieces.1, ptr %10, align 8, !dbg !1103
  %11 = getelementptr inbounds { ptr, i64 }, ptr %_5, i32 0, i32 0, !dbg !1103
  %12 = load ptr, ptr %11, align 8, !dbg !1103, !align !1034, !noundef !27
  %13 = getelementptr inbounds { ptr, i64 }, ptr %_5, i32 0, i32 1, !dbg !1103
  %14 = load i64, ptr %13, align 8, !dbg !1103
  %15 = getelementptr inbounds %"core::fmt::Arguments<'_>", ptr %0, i32 0, i32 2, !dbg !1103
  %16 = getelementptr inbounds { ptr, i64 }, ptr %15, i32 0, i32 0, !dbg !1103
  store ptr %12, ptr %16, align 8, !dbg !1103
  %17 = getelementptr inbounds { ptr, i64 }, ptr %15, i32 0, i32 1, !dbg !1103
  store i64 %14, ptr %17, align 8, !dbg !1103
  %18 = getelementptr inbounds %"core::fmt::Arguments<'_>", ptr %0, i32 0, i32 1, !dbg !1103
  %19 = getelementptr inbounds { ptr, i64 }, ptr %18, i32 0, i32 0, !dbg !1103
  store ptr %args.0, ptr %19, align 8, !dbg !1103
  %20 = getelementptr inbounds { ptr, i64 }, ptr %18, i32 0, i32 1, !dbg !1103
  store i64 %args.1, ptr %20, align 8, !dbg !1103
  ret void, !dbg !1104
}

; core::fmt::Arguments::new_v1
; Function Attrs: inlinehint noredzone nounwind
define internal void @_ZN4core3fmt9Arguments6new_v117hc523a9f23c30a71aE(ptr sret(%"core::fmt::Arguments<'_>") %0, ptr align 8 %pieces.0, i64 %pieces.1, ptr align 8 %args.0, i64 %args.1) unnamed_addr #0 !dbg !1105 {
start:
  %args.dbg.spill = alloca { ptr, i64 }, align 8
  %pieces.dbg.spill = alloca { ptr, i64 }, align 8
  %_15 = alloca { ptr, i64 }, align 8
  %_13 = alloca %"core::fmt::Arguments<'_>", align 8
  %_3 = alloca i8, align 1
  %1 = getelementptr inbounds { ptr, i64 }, ptr %pieces.dbg.spill, i32 0, i32 0
  store ptr %pieces.0, ptr %1, align 8
  %2 = getelementptr inbounds { ptr, i64 }, ptr %pieces.dbg.spill, i32 0, i32 1
  store i64 %pieces.1, ptr %2, align 8
  call void @llvm.dbg.declare(metadata ptr %pieces.dbg.spill, metadata !1109, metadata !DIExpression()), !dbg !1111
  %3 = getelementptr inbounds { ptr, i64 }, ptr %args.dbg.spill, i32 0, i32 0
  store ptr %args.0, ptr %3, align 8
  %4 = getelementptr inbounds { ptr, i64 }, ptr %args.dbg.spill, i32 0, i32 1
  store i64 %args.1, ptr %4, align 8
  call void @llvm.dbg.declare(metadata ptr %args.dbg.spill, metadata !1110, metadata !DIExpression()), !dbg !1112
  %_4 = icmp ult i64 %pieces.1, %args.1, !dbg !1113
  br i1 %_4, label %bb1, label %bb2, !dbg !1113

bb2:                                              ; preds = %start
  %5 = call { i64, i1 } @llvm.uadd.with.overflow.i64(i64 %args.1, i64 1), !dbg !1114
  %_11.0 = extractvalue { i64, i1 } %5, 0, !dbg !1114
  %_11.1 = extractvalue { i64, i1 } %5, 1, !dbg !1114
  %6 = call i1 @llvm.expect.i1(i1 %_11.1, i1 false), !dbg !1114
  br i1 %6, label %panic, label %bb4, !dbg !1114

bb1:                                              ; preds = %start
  store i8 1, ptr %_3, align 1, !dbg !1113
  br label %bb3, !dbg !1113

bb3:                                              ; preds = %bb4, %bb1
  %7 = load i8, ptr %_3, align 1, !dbg !1113, !range !1115, !noundef !27
  %8 = trunc i8 %7 to i1, !dbg !1113
  br i1 %8, label %bb5, label %bb7, !dbg !1113

bb4:                                              ; preds = %bb2
  %_7 = icmp ugt i64 %pieces.1, %_11.0, !dbg !1116
  %9 = zext i1 %_7 to i8, !dbg !1113
  store i8 %9, ptr %_3, align 1, !dbg !1113
  br label %bb3, !dbg !1113

panic:                                            ; preds = %bb2
; call core::panicking::panic
  call void @_ZN4core9panicking5panic17hee5d285669f2f2eaE(ptr align 1 @str.3, i64 28, ptr align 8 @alloc_6efc4ec71950c88bb18b2dcebbe56926) #11, !dbg !1114
  unreachable, !dbg !1114

bb7:                                              ; preds = %bb3
  store ptr null, ptr %_15, align 8, !dbg !1117
  %10 = getelementptr inbounds { ptr, i64 }, ptr %0, i32 0, i32 0, !dbg !1118
  store ptr %pieces.0, ptr %10, align 8, !dbg !1118
  %11 = getelementptr inbounds { ptr, i64 }, ptr %0, i32 0, i32 1, !dbg !1118
  store i64 %pieces.1, ptr %11, align 8, !dbg !1118
  %12 = getelementptr inbounds { ptr, i64 }, ptr %_15, i32 0, i32 0, !dbg !1118
  %13 = load ptr, ptr %12, align 8, !dbg !1118, !align !1034, !noundef !27
  %14 = getelementptr inbounds { ptr, i64 }, ptr %_15, i32 0, i32 1, !dbg !1118
  %15 = load i64, ptr %14, align 8, !dbg !1118
  %16 = getelementptr inbounds %"core::fmt::Arguments<'_>", ptr %0, i32 0, i32 2, !dbg !1118
  %17 = getelementptr inbounds { ptr, i64 }, ptr %16, i32 0, i32 0, !dbg !1118
  store ptr %13, ptr %17, align 8, !dbg !1118
  %18 = getelementptr inbounds { ptr, i64 }, ptr %16, i32 0, i32 1, !dbg !1118
  store i64 %15, ptr %18, align 8, !dbg !1118
  %19 = getelementptr inbounds %"core::fmt::Arguments<'_>", ptr %0, i32 0, i32 1, !dbg !1118
  %20 = getelementptr inbounds { ptr, i64 }, ptr %19, i32 0, i32 0, !dbg !1118
  store ptr %args.0, ptr %20, align 8, !dbg !1118
  %21 = getelementptr inbounds { ptr, i64 }, ptr %19, i32 0, i32 1, !dbg !1118
  store i64 %args.1, ptr %21, align 8, !dbg !1118
  ret void, !dbg !1119

bb5:                                              ; preds = %bb3
; call core::fmt::Arguments::new_const
  call void @_ZN4core3fmt9Arguments9new_const17h0cb7155e9db6aa6aE(ptr sret(%"core::fmt::Arguments<'_>") %_13, ptr align 8 @alloc_560206a49c61adca6f3f0639a12632eb, i64 1) #9, !dbg !1120
; call core::panicking::panic_fmt
  call void @_ZN4core9panicking9panic_fmt17hdd6269d09ded55c6E(ptr %_13, ptr align 8 @alloc_d3149a254d0e3dec02e2738403904da6) #11, !dbg !1120
  unreachable, !dbg !1120
}

; core::fmt::Arguments::new_const
; Function Attrs: inlinehint noredzone nounwind
define internal void @_ZN4core3fmt9Arguments9new_const17h0cb7155e9db6aa6aE(ptr sret(%"core::fmt::Arguments<'_>") %0, ptr align 8 %pieces.0, i64 %pieces.1) unnamed_addr #0 !dbg !1121 {
start:
  %pieces.dbg.spill = alloca { ptr, i64 }, align 8
  %_7 = alloca { ptr, i64 }, align 8
  %_5 = alloca %"core::fmt::Arguments<'_>", align 8
  %1 = getelementptr inbounds { ptr, i64 }, ptr %pieces.dbg.spill, i32 0, i32 0
  store ptr %pieces.0, ptr %1, align 8
  %2 = getelementptr inbounds { ptr, i64 }, ptr %pieces.dbg.spill, i32 0, i32 1
  store i64 %pieces.1, ptr %2, align 8
  call void @llvm.dbg.declare(metadata ptr %pieces.dbg.spill, metadata !1125, metadata !DIExpression()), !dbg !1126
  %_2 = icmp ugt i64 %pieces.1, 1, !dbg !1127
  br i1 %_2, label %bb1, label %bb3, !dbg !1127

bb3:                                              ; preds = %start
  store ptr null, ptr %_7, align 8, !dbg !1128
  %3 = getelementptr inbounds { ptr, i64 }, ptr %0, i32 0, i32 0, !dbg !1129
  store ptr %pieces.0, ptr %3, align 8, !dbg !1129
  %4 = getelementptr inbounds { ptr, i64 }, ptr %0, i32 0, i32 1, !dbg !1129
  store i64 %pieces.1, ptr %4, align 8, !dbg !1129
  %5 = getelementptr inbounds { ptr, i64 }, ptr %_7, i32 0, i32 0, !dbg !1129
  %6 = load ptr, ptr %5, align 8, !dbg !1129, !align !1034, !noundef !27
  %7 = getelementptr inbounds { ptr, i64 }, ptr %_7, i32 0, i32 1, !dbg !1129
  %8 = load i64, ptr %7, align 8, !dbg !1129
  %9 = getelementptr inbounds %"core::fmt::Arguments<'_>", ptr %0, i32 0, i32 2, !dbg !1129
  %10 = getelementptr inbounds { ptr, i64 }, ptr %9, i32 0, i32 0, !dbg !1129
  store ptr %6, ptr %10, align 8, !dbg !1129
  %11 = getelementptr inbounds { ptr, i64 }, ptr %9, i32 0, i32 1, !dbg !1129
  store i64 %8, ptr %11, align 8, !dbg !1129
  %12 = getelementptr inbounds %"core::fmt::Arguments<'_>", ptr %0, i32 0, i32 1, !dbg !1129
  %13 = getelementptr inbounds { ptr, i64 }, ptr %12, i32 0, i32 0, !dbg !1129
  store ptr @alloc_513570631223a12912d85da2bec3b15a, ptr %13, align 8, !dbg !1129
  %14 = getelementptr inbounds { ptr, i64 }, ptr %12, i32 0, i32 1, !dbg !1129
  store i64 0, ptr %14, align 8, !dbg !1129
  ret void, !dbg !1130

bb1:                                              ; preds = %start
; call core::fmt::Arguments::new_const
  call void @_ZN4core3fmt9Arguments9new_const17h0cb7155e9db6aa6aE(ptr sret(%"core::fmt::Arguments<'_>") %_5, ptr align 8 @alloc_560206a49c61adca6f3f0639a12632eb, i64 1) #9, !dbg !1131
; call core::panicking::panic_fmt
  call void @_ZN4core9panicking9panic_fmt17hdd6269d09ded55c6E(ptr %_5, ptr align 8 @alloc_5eca5fde541bf3444e5a23d5419b88a4) #11, !dbg !1131
  unreachable, !dbg !1131
}

; core::ops::function::FnOnce::call_once
; Function Attrs: inlinehint noredzone nounwind
define internal void @_ZN4core3ops8function6FnOnce9call_once17h1b07fc73e9e45d5fE(ptr sret(%"spin::mutex::Mutex<keyboard::Keyboard<pc_keyboard::layouts::us104::Us104Key, pc_keyboard::scancodes::set1::ScancodeSet1>>") %0) unnamed_addr #0 !dbg !1132 {
start:
  %1 = alloca i8, align 1
  %_3.i.i = alloca %"core::cell::UnsafeCell<keyboard::Keyboard<pc_keyboard::layouts::us104::Us104Key, pc_keyboard::scancodes::set1::ScancodeSet1>>", align 2
  %_2.i1.i = alloca %"core::sync::atomic::AtomicBool", align 1
  %_2.i.i = alloca %"spin::mutex::spin::SpinMutex<keyboard::Keyboard<pc_keyboard::layouts::us104::Us104Key, pc_keyboard::scancodes::set1::ScancodeSet1>>", align 2
  %_1.i = alloca %"keyboard::Keyboard<pc_keyboard::layouts::us104::Us104Key, pc_keyboard::scancodes::set1::ScancodeSet1>", align 2
  %_1.dbg.spill = alloca {}, align 1
  %_2 = alloca {}, align 1
  call void @llvm.dbg.declare(metadata ptr %_1.dbg.spill, metadata !1143, metadata !DIExpression()), !dbg !1148
  call void @llvm.dbg.declare(metadata ptr %_2, metadata !1144, metadata !DIExpression()), !dbg !1148
; call keyboard::Keyboard<L,S>::us_scancode_set_one_keyboard
  call void @"_ZN8keyboard21Keyboard$LT$L$C$S$GT$28us_scancode_set_one_keyboard17h428c2c6f9c6952d1E"(ptr sret(%"keyboard::Keyboard<pc_keyboard::layouts::us104::Us104Key, pc_keyboard::scancodes::set1::ScancodeSet1>") %_1.i) #9, !dbg !1149
  call void @llvm.dbg.declare(metadata ptr %_1.i, metadata !1154, metadata !DIExpression()), !dbg !1160
  call void @llvm.dbg.declare(metadata ptr %_1.i, metadata !1162, metadata !DIExpression()), !dbg !1168
; call core::sync::atomic::AtomicBool::new
  %2 = call i8 @_ZN4core4sync6atomic10AtomicBool3new17hf1579ce6a5bb6478E(i1 zeroext false) #9, !dbg !1170
  store i8 %2, ptr %1, align 1, !dbg !1170
  call void @llvm.memcpy.p0.p0.i64(ptr align 1 %_2.i1.i, ptr align 1 %1, i64 1, i1 false), !dbg !1170
  call void @llvm.dbg.declare(metadata ptr %_1.i, metadata !1171, metadata !DIExpression()), !dbg !1177
  call void @llvm.memcpy.p0.p0.i64(ptr align 2 %_3.i.i, ptr align 2 %_1.i, i64 14, i1 false), !dbg !1179
  call void @llvm.memcpy.p0.p0.i64(ptr align 2 %_2.i.i, ptr align 1 %_2.i1.i, i64 1, i1 false), !dbg !1180
  %3 = getelementptr inbounds %"spin::mutex::spin::SpinMutex<keyboard::Keyboard<pc_keyboard::layouts::us104::Us104Key, pc_keyboard::scancodes::set1::ScancodeSet1>>", ptr %_2.i.i, i32 0, i32 3, !dbg !1180
  call void @llvm.memcpy.p0.p0.i64(ptr align 2 %3, ptr align 2 %_3.i.i, i64 14, i1 false), !dbg !1180
  call void @llvm.memcpy.p0.p0.i64(ptr align 2 %0, ptr align 2 %_2.i.i, i64 16, i1 false), !dbg !1181
  ret void, !dbg !1148
}

; core::ops::function::FnOnce::call_once
; Function Attrs: inlinehint noredzone nounwind
define internal void @_ZN4core3ops8function6FnOnce9call_once17ha007c99f973d877cE(ptr sret(%"spin::mutex::Mutex<vga::Screen>") %0) unnamed_addr #0 !dbg !1182 {
start:
  %1 = alloca i8, align 1
  %_3.i.i = alloca %"core::cell::UnsafeCell<vga::Screen>", align 8
  %_2.i1.i = alloca %"core::sync::atomic::AtomicBool", align 1
  %_2.i.i = alloca %"spin::mutex::spin::SpinMutex<vga::Screen>", align 8
  %_2.i = alloca i8, align 1
  %_1.i = alloca %"vga::Screen", align 8
  %_1.dbg.spill = alloca {}, align 1
  %_2 = alloca {}, align 1
  call void @llvm.dbg.declare(metadata ptr %_1.dbg.spill, metadata !1189, metadata !DIExpression()), !dbg !1193
  call void @llvm.dbg.declare(metadata ptr %_2, metadata !1190, metadata !DIExpression()), !dbg !1193
  store i8 1, ptr %_2.i, align 1, !dbg !1194
  %2 = load i8, ptr %_2.i, align 1, !dbg !1198, !range !1115, !noundef !27
  %3 = trunc i8 %2 to i1, !dbg !1198
; call vga::Screen::new
  call void @_ZN3vga6Screen3new17h947821f073993938E(ptr sret(%"vga::Screen") %_1.i, i1 zeroext %3, i8 32) #9, !dbg !1198
  call void @llvm.dbg.declare(metadata ptr %_1.i, metadata !1199, metadata !DIExpression()), !dbg !1204
  call void @llvm.dbg.declare(metadata ptr %_1.i, metadata !1206, metadata !DIExpression()), !dbg !1211
; call core::sync::atomic::AtomicBool::new
  %4 = call i8 @_ZN4core4sync6atomic10AtomicBool3new17hf1579ce6a5bb6478E(i1 zeroext false) #9, !dbg !1213
  store i8 %4, ptr %1, align 1, !dbg !1213
  call void @llvm.memcpy.p0.p0.i64(ptr align 1 %_2.i1.i, ptr align 1 %1, i64 1, i1 false), !dbg !1213
  call void @llvm.dbg.declare(metadata ptr %_1.i, metadata !1214, metadata !DIExpression()), !dbg !1219
  call void @llvm.memcpy.p0.p0.i64(ptr align 8 %_3.i.i, ptr align 8 %_1.i, i64 216, i1 false), !dbg !1221
  call void @llvm.memcpy.p0.p0.i64(ptr align 8 %_2.i.i, ptr align 1 %_2.i1.i, i64 1, i1 false), !dbg !1222
  %5 = getelementptr inbounds %"spin::mutex::spin::SpinMutex<vga::Screen>", ptr %_2.i.i, i32 0, i32 3, !dbg !1222
  call void @llvm.memcpy.p0.p0.i64(ptr align 8 %5, ptr align 8 %_3.i.i, i64 216, i1 false), !dbg !1222
  call void @llvm.memcpy.p0.p0.i64(ptr align 8 %0, ptr align 8 %_2.i.i, i64 224, i1 false), !dbg !1223
  ret void, !dbg !1193
}

; core::ops::function::FnOnce::call_once
; Function Attrs: inlinehint noredzone nounwind
define internal void @_ZN4core3ops8function6FnOnce9call_once17hbba669866d3f9626E(ptr sret(%"cpu_interrupts::interrupt_descriptor_table::SafeInterruptDescriptorTable") %0) unnamed_addr #0 !dbg !1224 {
start:
  %_27.i = alloca %"x86_64::structures::idt::InterruptDescriptorTable", align 16
  %idt.i = alloca %"x86_64::structures::idt::InterruptDescriptorTable", align 16
  %_1.dbg.spill = alloca {}, align 1
  %_2 = alloca {}, align 1
  call void @llvm.dbg.declare(metadata ptr %_1.dbg.spill, metadata !1231, metadata !DIExpression()), !dbg !1235
  call void @llvm.dbg.declare(metadata ptr %_2, metadata !1232, metadata !DIExpression()), !dbg !1235
  call void @llvm.dbg.declare(metadata ptr %idt.i, metadata !1236, metadata !DIExpression()), !dbg !1241
; call x86_64::structures::idt::InterruptDescriptorTable::new
  call void @_ZN6x86_6410structures3idt24InterruptDescriptorTable3new17h04ed3b9b67367ecfE(ptr sret(%"x86_64::structures::idt::InterruptDescriptorTable") %idt.i) #9, !dbg !1243
  %_5.i = getelementptr inbounds %"x86_64::structures::idt::InterruptDescriptorTable", ptr %idt.i, i32 0, i32 8, !dbg !1245
; call x86_64::structures::idt::Entry<extern "x86.interrupt" fn(x86_64::structures::idt::InterruptStackFrame,u64) .> !>::set_handler_fn
  %_4.i = call align 2 ptr @"_ZN6x86_6410structures3idt132Entry$LT$extern$u20$$u22$x86.interrupt$u22$$u20$fn$LP$x86_64..structures..idt..InterruptStackFrame$C$u64$RP$$u20$.$GT$$u20$$u21$$GT$14set_handler_fn17h49d72967d2f19efcE"(ptr align 4 %_5.i, ptr @_ZN14cpu_interrupts26default_exception_handlers20double_fault_handler17hf89095d5ea4fc199E) #9, !dbg !1245
; call x86_64::structures::idt::EntryOptions::set_stack_index
  %_2.i = call align 2 ptr @_ZN6x86_6410structures3idt12EntryOptions15set_stack_index17hf4d9fa4e6a391920E(ptr align 2 %_4.i, i16 0) #9, !dbg !1245
  %_9.i = getelementptr inbounds %"x86_64::structures::idt::InterruptDescriptorTable", ptr %idt.i, i32 0, i32 3, !dbg !1246
; call x86_64::structures::idt::Entry<extern "x86.interrupt" fn(x86_64::structures::idt::InterruptStackFrame)>::set_handler_fn
  %_8.i = call align 2 ptr @"_ZN6x86_6410structures3idt106Entry$LT$extern$u20$$u22$x86.interrupt$u22$$u20$fn$LP$x86_64..structures..idt..InterruptStackFrame$RP$$GT$14set_handler_fn17hfef345a5d2bc7624E"(ptr align 4 %_9.i, ptr @_ZN4theo10interrupts18breakpoint_handler17h28639b851b163771E) #9, !dbg !1246
  %1 = call i1 @llvm.expect.i1(i1 false, i1 false), !dbg !1247
  br i1 %1, label %panic.i, label %bb5.i, !dbg !1247

bb5.i:                                            ; preds = %start
; call <x86_64::structures::idt::InterruptDescriptorTable as core::ops::index::IndexMut<usize>>::index_mut
  %_13.i = call align 4 ptr @"_ZN109_$LT$x86_64..structures..idt..InterruptDescriptorTable$u20$as$u20$core..ops..index..IndexMut$LT$usize$GT$$GT$9index_mut17hf70cb6bddd9533afE"(ptr align 16 %idt.i, i64 32, ptr align 8 @alloc_353e8fbc15a76549b3b1989e6ec2088d) #9, !dbg !1248
; call x86_64::structures::idt::Entry<extern "x86.interrupt" fn(x86_64::structures::idt::InterruptStackFrame)>::set_handler_fn
  %_11.i = call align 2 ptr @"_ZN6x86_6410structures3idt106Entry$LT$extern$u20$$u22$x86.interrupt$u22$$u20$fn$LP$x86_64..structures..idt..InterruptStackFrame$RP$$GT$14set_handler_fn17hfef345a5d2bc7624E"(ptr align 4 %_13.i, ptr @_ZN4theo10interrupts23timer_interrupt_handler17h98397341344093ecE) #9, !dbg !1248
  %2 = call i1 @llvm.expect.i1(i1 false, i1 false), !dbg !1249
  br i1 %2, label %panic1.i, label %"_ZN70_$LT$theo..interrupts..SAFE_IDT$u20$as$u20$core..ops..deref..Deref$GT$5deref23__static_ref_initialize17h15bcc48f6f9234f1E.exit", !dbg !1249

panic.i:                                          ; preds = %start
; call core::panicking::panic
  call void @_ZN4core9panicking5panic17hee5d285669f2f2eaE(ptr align 1 @str.3, i64 28, ptr align 8 @alloc_ea5626d74ebc425faa3ec0d1765b954c) #11, !dbg !1247
  unreachable, !dbg !1247

panic1.i:                                         ; preds = %bb5.i
; call core::panicking::panic
  call void @_ZN4core9panicking5panic17hee5d285669f2f2eaE(ptr align 1 @str.3, i64 28, ptr align 8 @alloc_f90b0db9a501ea4e32af715f06dec6ba) #11, !dbg !1249
  unreachable, !dbg !1249

"_ZN70_$LT$theo..interrupts..SAFE_IDT$u20$as$u20$core..ops..deref..Deref$GT$5deref23__static_ref_initialize17h15bcc48f6f9234f1E.exit": ; preds = %bb5.i
; call <x86_64::structures::idt::InterruptDescriptorTable as core::ops::index::IndexMut<usize>>::index_mut
  %_21.i = call align 4 ptr @"_ZN109_$LT$x86_64..structures..idt..InterruptDescriptorTable$u20$as$u20$core..ops..index..IndexMut$LT$usize$GT$$GT$9index_mut17hf70cb6bddd9533afE"(ptr align 16 %idt.i, i64 33, ptr align 8 @alloc_45c30a06a14a7f7f08e893da985222d4) #9, !dbg !1250
; call x86_64::structures::idt::Entry<extern "x86.interrupt" fn(x86_64::structures::idt::InterruptStackFrame)>::set_handler_fn
  %_19.i = call align 2 ptr @"_ZN6x86_6410structures3idt106Entry$LT$extern$u20$$u22$x86.interrupt$u22$$u20$fn$LP$x86_64..structures..idt..InterruptStackFrame$RP$$GT$14set_handler_fn17hfef345a5d2bc7624E"(ptr align 4 %_21.i, ptr @_ZN4theo10interrupts16keyboard_handler17h5467fec573b9e839E) #9, !dbg !1250
  call void @llvm.memcpy.p0.p0.i64(ptr align 16 %_27.i, ptr align 16 %idt.i, i64 4096, i1 false), !dbg !1251
; call cpu_interrupts::interrupt_descriptor_table::SafeInterruptDescriptorTable::from
  call void @_ZN14cpu_interrupts26interrupt_descriptor_table28SafeInterruptDescriptorTable4from17h5cd6b504662c1e1aE(ptr sret(%"cpu_interrupts::interrupt_descriptor_table::SafeInterruptDescriptorTable") %0, ptr %_27.i) #9, !dbg !1252
  ret void, !dbg !1235
}

; core::ptr::drop_in_place<spin::mutex::MutexGuard<keyboard::Keyboard<pc_keyboard::layouts::us104::Us104Key,pc_keyboard::scancodes::set1::ScancodeSet1>>>
; Function Attrs: noredzone nounwind
define internal void @"_ZN4core3ptr160drop_in_place$LT$spin..mutex..MutexGuard$LT$keyboard..Keyboard$LT$pc_keyboard..layouts..us104..Us104Key$C$pc_keyboard..scancodes..set1..ScancodeSet1$GT$$GT$$GT$17h58f2ee28d5bb5aedE"(ptr %_1) unnamed_addr #1 !dbg !1253 {
start:
  %_1.dbg.spill = alloca ptr, align 8
  store ptr %_1, ptr %_1.dbg.spill, align 8
  call void @llvm.dbg.declare(metadata ptr %_1.dbg.spill, metadata !1269, metadata !DIExpression()), !dbg !1272
; call core::ptr::drop_in_place<spin::mutex::spin::SpinMutexGuard<keyboard::Keyboard<pc_keyboard::layouts::us104::Us104Key,pc_keyboard::scancodes::set1::ScancodeSet1>>>
  call void @"_ZN4core3ptr170drop_in_place$LT$spin..mutex..spin..SpinMutexGuard$LT$keyboard..Keyboard$LT$pc_keyboard..layouts..us104..Us104Key$C$pc_keyboard..scancodes..set1..ScancodeSet1$GT$$GT$$GT$17h9a24187bcf2dd7c8E"(ptr %_1) #9, !dbg !1272
  ret void, !dbg !1272
}

; core::ptr::drop_in_place<spin::mutex::spin::SpinMutexGuard<keyboard::Keyboard<pc_keyboard::layouts::us104::Us104Key,pc_keyboard::scancodes::set1::ScancodeSet1>>>
; Function Attrs: noredzone nounwind
define internal void @"_ZN4core3ptr170drop_in_place$LT$spin..mutex..spin..SpinMutexGuard$LT$keyboard..Keyboard$LT$pc_keyboard..layouts..us104..Us104Key$C$pc_keyboard..scancodes..set1..ScancodeSet1$GT$$GT$$GT$17h9a24187bcf2dd7c8E"(ptr %_1) unnamed_addr #1 !dbg !1273 {
start:
  %_1.dbg.spill = alloca ptr, align 8
  store ptr %_1, ptr %_1.dbg.spill, align 8
  call void @llvm.dbg.declare(metadata ptr %_1.dbg.spill, metadata !1278, metadata !DIExpression()), !dbg !1281
; call <spin::mutex::spin::SpinMutexGuard<T> as core::ops::drop::Drop>::drop
  call void @"_ZN84_$LT$spin..mutex..spin..SpinMutexGuard$LT$T$GT$$u20$as$u20$core..ops..drop..Drop$GT$4drop17h3e75d18c11c41bbbE"(ptr align 8 %_1) #9, !dbg !1281
  ret void, !dbg !1281
}

; core::ptr::drop_in_place<&mut vga::Screen>
; Function Attrs: inlinehint noredzone nounwind
define internal void @"_ZN4core3ptr44drop_in_place$LT$$RF$mut$u20$vga..Screen$GT$17hfbad77c953d5f15cE"(ptr %_1) unnamed_addr #0 !dbg !1282 {
start:
  %_1.dbg.spill = alloca ptr, align 8
  store ptr %_1, ptr %_1.dbg.spill, align 8
  call void @llvm.dbg.declare(metadata ptr %_1.dbg.spill, metadata !1287, metadata !DIExpression()), !dbg !1290
  ret void, !dbg !1290
}

; core::ptr::drop_in_place<spin::mutex::MutexGuard<vga::Screen>>
; Function Attrs: noredzone nounwind
define internal void @"_ZN4core3ptr63drop_in_place$LT$spin..mutex..MutexGuard$LT$vga..Screen$GT$$GT$17had8209db7791bf75E"(ptr %_1) unnamed_addr #1 !dbg !1291 {
start:
  %_1.dbg.spill = alloca ptr, align 8
  store ptr %_1, ptr %_1.dbg.spill, align 8
  call void @llvm.dbg.declare(metadata ptr %_1.dbg.spill, metadata !1304, metadata !DIExpression()), !dbg !1307
; call core::ptr::drop_in_place<spin::mutex::spin::SpinMutexGuard<vga::Screen>>
  call void @"_ZN4core3ptr73drop_in_place$LT$spin..mutex..spin..SpinMutexGuard$LT$vga..Screen$GT$$GT$17hcfeeeac5101d4291E"(ptr %_1) #9, !dbg !1307
  ret void, !dbg !1307
}

; core::ptr::drop_in_place<spin::mutex::spin::SpinMutexGuard<vga::Screen>>
; Function Attrs: noredzone nounwind
define internal void @"_ZN4core3ptr73drop_in_place$LT$spin..mutex..spin..SpinMutexGuard$LT$vga..Screen$GT$$GT$17hcfeeeac5101d4291E"(ptr %_1) unnamed_addr #1 !dbg !1308 {
start:
  %_1.dbg.spill = alloca ptr, align 8
  store ptr %_1, ptr %_1.dbg.spill, align 8
  call void @llvm.dbg.declare(metadata ptr %_1.dbg.spill, metadata !1313, metadata !DIExpression()), !dbg !1316
; call <spin::mutex::spin::SpinMutexGuard<T> as core::ops::drop::Drop>::drop
  call void @"_ZN84_$LT$spin..mutex..spin..SpinMutexGuard$LT$T$GT$$u20$as$u20$core..ops..drop..Drop$GT$4drop17h9239d41323380379E"(ptr align 8 %_1) #9, !dbg !1316
  ret void, !dbg !1316
}

; core::str::converts::from_utf8_unchecked_mut
; Function Attrs: inlinehint noredzone nounwind
define internal { ptr, i64 } @_ZN4core3str8converts23from_utf8_unchecked_mut17he3ce3cbadf93f60cE(ptr align 1 %v.0, i64 %v.1) unnamed_addr #0 !dbg !1317 {
start:
  %v.dbg.spill = alloca { ptr, i64 }, align 8
  %0 = getelementptr inbounds { ptr, i64 }, ptr %v.dbg.spill, i32 0, i32 0
  store ptr %v.0, ptr %0, align 8
  %1 = getelementptr inbounds { ptr, i64 }, ptr %v.dbg.spill, i32 0, i32 1
  store i64 %v.1, ptr %1, align 8
  call void @llvm.dbg.declare(metadata ptr %v.dbg.spill, metadata !1332, metadata !DIExpression()), !dbg !1333
  %2 = insertvalue { ptr, i64 } poison, ptr %v.0, 0, !dbg !1334
  %3 = insertvalue { ptr, i64 } %2, i64 %v.1, 1, !dbg !1334
  ret { ptr, i64 } %3, !dbg !1334
}

; core::char::methods::encode_utf8_raw
; Function Attrs: inlinehint noredzone nounwind
define internal { ptr, i64 } @_ZN4core4char7methods15encode_utf8_raw17hf49c78a82095cd35E(i32 %0, ptr align 1 %dst.0, i64 %dst.1) unnamed_addr #0 !dbg !1335 {
start:
  %f.dbg.spill.i18 = alloca ptr, align 8
  %x.dbg.spill.i19 = alloca ptr, align 8
  %1 = alloca { ptr, ptr }, align 8
  %f.dbg.spill.i16 = alloca ptr, align 8
  %x.dbg.spill.i17 = alloca ptr, align 8
  %2 = alloca { ptr, ptr }, align 8
  %f.dbg.spill.i = alloca ptr, align 8
  %x.dbg.spill.i15 = alloca ptr, align 8
  %3 = alloca { ptr, ptr }, align 8
  %x.dbg.spill.i14 = alloca ptr, align 8
  %x.dbg.spill.i13 = alloca ptr, align 8
  %x.dbg.spill.i = alloca ptr, align 8
  %a.dbg.spill12 = alloca ptr, align 8
  %b.dbg.spill10 = alloca ptr, align 8
  %a.dbg.spill8 = alloca ptr, align 8
  %c.dbg.spill6 = alloca ptr, align 8
  %b.dbg.spill4 = alloca ptr, align 8
  %a.dbg.spill2 = alloca ptr, align 8
  %d.dbg.spill = alloca ptr, align 8
  %c.dbg.spill = alloca ptr, align 8
  %b.dbg.spill = alloca ptr, align 8
  %a.dbg.spill = alloca ptr, align 8
  %dst.dbg.spill = alloca { ptr, i64 }, align 8
  %_81 = alloca i64, align 8
  %_78 = alloca i64, align 8
  %_71 = alloca [3 x { ptr, ptr }], align 8
  %_67 = alloca %"core::fmt::Arguments<'_>", align 8
  %_4 = alloca { i64, { ptr, i64 } }, align 8
  %len = alloca i64, align 8
  %code = alloca i32, align 4
  store i32 %0, ptr %code, align 4
  call void @llvm.dbg.declare(metadata ptr %code, metadata !1342, metadata !DIExpression()), !dbg !1361
  %4 = getelementptr inbounds { ptr, i64 }, ptr %dst.dbg.spill, i32 0, i32 0
  store ptr %dst.0, ptr %4, align 8
  %5 = getelementptr inbounds { ptr, i64 }, ptr %dst.dbg.spill, i32 0, i32 1
  store i64 %dst.1, ptr %5, align 8
  call void @llvm.dbg.declare(metadata ptr %dst.dbg.spill, metadata !1343, metadata !DIExpression()), !dbg !1362
  call void @llvm.dbg.declare(metadata ptr %len, metadata !1344, metadata !DIExpression()), !dbg !1363
  %6 = load i32, ptr %code, align 4, !dbg !1364, !noundef !27
; call core::char::methods::len_utf8
  %7 = call i64 @_ZN4core4char7methods8len_utf817h1cf08f4c038666d4E(i32 %6) #9, !dbg !1364
  store i64 %7, ptr %len, align 8, !dbg !1364
  %_5 = load i64, ptr %len, align 8, !dbg !1365, !noundef !27
; call core::slice::index::<impl core::ops::index::IndexMut<I> for [T]>::index_mut
  %8 = call { ptr, i64 } @"_ZN4core5slice5index77_$LT$impl$u20$core..ops..index..IndexMut$LT$I$GT$$u20$for$u20$$u5b$T$u5d$$GT$9index_mut17h77797f7ecd5682a1E"(ptr align 1 %dst.0, i64 %dst.1, ptr align 8 @alloc_3c304347645b5e7991f32728b55438ef) #9, !dbg !1366
  %_7.0 = extractvalue { ptr, i64 } %8, 0, !dbg !1366
  %_7.1 = extractvalue { ptr, i64 } %8, 1, !dbg !1366
  store i64 %_5, ptr %_4, align 8, !dbg !1367
  %9 = getelementptr inbounds { i64, { ptr, i64 } }, ptr %_4, i32 0, i32 1, !dbg !1367
  %10 = getelementptr inbounds { ptr, i64 }, ptr %9, i32 0, i32 0, !dbg !1367
  store ptr %_7.0, ptr %10, align 8, !dbg !1367
  %11 = getelementptr inbounds { ptr, i64 }, ptr %9, i32 0, i32 1, !dbg !1367
  store i64 %_7.1, ptr %11, align 8, !dbg !1367
  %12 = load i64, ptr %_4, align 8, !dbg !1368, !noundef !27
  switch i64 %12, label %bb4 [
    i64 1, label %bb3
    i64 2, label %bb5
    i64 3, label %bb6
    i64 4, label %bb7
  ], !dbg !1368

bb4:                                              ; preds = %bb3, %bb5, %bb6, %bb7, %start
  store ptr %len, ptr %x.dbg.spill.i13, align 8
  call void @llvm.dbg.declare(metadata ptr %x.dbg.spill.i13, metadata !771, metadata !DIExpression()), !dbg !1369
  store ptr %len, ptr %x.dbg.spill.i17, align 8
  call void @llvm.dbg.declare(metadata ptr %x.dbg.spill.i17, metadata !839, metadata !DIExpression()), !dbg !1371
  store ptr @"_ZN4core3fmt3num3imp54_$LT$impl$u20$core..fmt..Display$u20$for$u20$usize$GT$3fmt17h70a5820d5191e3efE", ptr %f.dbg.spill.i16, align 8
  call void @llvm.dbg.declare(metadata ptr %f.dbg.spill.i16, metadata !847, metadata !DIExpression()), !dbg !1373
  store ptr %len, ptr %2, align 8, !dbg !1374
  %13 = getelementptr inbounds { ptr, ptr }, ptr %2, i32 0, i32 1, !dbg !1374
  store ptr @"_ZN4core3fmt3num3imp54_$LT$impl$u20$core..fmt..Display$u20$for$u20$usize$GT$3fmt17h70a5820d5191e3efE", ptr %13, align 8, !dbg !1374
  %14 = load ptr, ptr %2, align 8, !dbg !1375, !nonnull !27, !align !853, !noundef !27
  %15 = getelementptr inbounds { ptr, ptr }, ptr %2, i32 0, i32 1, !dbg !1375
  %16 = load ptr, ptr %15, align 8, !dbg !1375, !nonnull !27, !noundef !27
  %17 = insertvalue { ptr, ptr } poison, ptr %14, 0, !dbg !1375
  %18 = insertvalue { ptr, ptr } %17, ptr %16, 1, !dbg !1375
  %19 = extractvalue { ptr, ptr } %18, 0, !dbg !1376
  %20 = extractvalue { ptr, ptr } %18, 1, !dbg !1376
  %_72.0 = extractvalue { ptr, ptr } %18, 0, !dbg !1377
  %_72.1 = extractvalue { ptr, ptr } %18, 1, !dbg !1377
  store ptr %code, ptr %x.dbg.spill.i14, align 8
  call void @llvm.dbg.declare(metadata ptr %x.dbg.spill.i14, metadata !1378, metadata !DIExpression()), !dbg !1386
  store ptr %code, ptr %x.dbg.spill.i15, align 8
  call void @llvm.dbg.declare(metadata ptr %x.dbg.spill.i15, metadata !1388, metadata !DIExpression()), !dbg !1397
  store ptr @"_ZN4core3fmt3num53_$LT$impl$u20$core..fmt..UpperHex$u20$for$u20$u32$GT$3fmt17hdc2678856f438f94E", ptr %f.dbg.spill.i, align 8
  call void @llvm.dbg.declare(metadata ptr %f.dbg.spill.i, metadata !1396, metadata !DIExpression()), !dbg !1399
  store ptr %code, ptr %3, align 8, !dbg !1400
  %21 = getelementptr inbounds { ptr, ptr }, ptr %3, i32 0, i32 1, !dbg !1400
  store ptr @"_ZN4core3fmt3num53_$LT$impl$u20$core..fmt..UpperHex$u20$for$u20$u32$GT$3fmt17hdc2678856f438f94E", ptr %21, align 8, !dbg !1400
  %22 = load ptr, ptr %3, align 8, !dbg !1401, !nonnull !27, !align !853, !noundef !27
  %23 = getelementptr inbounds { ptr, ptr }, ptr %3, i32 0, i32 1, !dbg !1401
  %24 = load ptr, ptr %23, align 8, !dbg !1401, !nonnull !27, !noundef !27
  %25 = insertvalue { ptr, ptr } poison, ptr %22, 0, !dbg !1401
  %26 = insertvalue { ptr, ptr } %25, ptr %24, 1, !dbg !1401
  %27 = extractvalue { ptr, ptr } %26, 0, !dbg !1402
  %28 = extractvalue { ptr, ptr } %26, 1, !dbg !1402
  %_74.0 = extractvalue { ptr, ptr } %26, 0, !dbg !1377
  %_74.1 = extractvalue { ptr, ptr } %26, 1, !dbg !1377
  store i64 %dst.1, ptr %_78, align 8, !dbg !1403
  store ptr %_78, ptr %x.dbg.spill.i, align 8
  call void @llvm.dbg.declare(metadata ptr %x.dbg.spill.i, metadata !771, metadata !DIExpression()), !dbg !1404
  store ptr %_78, ptr %x.dbg.spill.i19, align 8
  call void @llvm.dbg.declare(metadata ptr %x.dbg.spill.i19, metadata !839, metadata !DIExpression()), !dbg !1406
  store ptr @"_ZN4core3fmt3num3imp54_$LT$impl$u20$core..fmt..Display$u20$for$u20$usize$GT$3fmt17h70a5820d5191e3efE", ptr %f.dbg.spill.i18, align 8
  call void @llvm.dbg.declare(metadata ptr %f.dbg.spill.i18, metadata !847, metadata !DIExpression()), !dbg !1408
  store ptr %_78, ptr %1, align 8, !dbg !1409
  %29 = getelementptr inbounds { ptr, ptr }, ptr %1, i32 0, i32 1, !dbg !1409
  store ptr @"_ZN4core3fmt3num3imp54_$LT$impl$u20$core..fmt..Display$u20$for$u20$usize$GT$3fmt17h70a5820d5191e3efE", ptr %29, align 8, !dbg !1409
  %30 = load ptr, ptr %1, align 8, !dbg !1410, !nonnull !27, !align !853, !noundef !27
  %31 = getelementptr inbounds { ptr, ptr }, ptr %1, i32 0, i32 1, !dbg !1410
  %32 = load ptr, ptr %31, align 8, !dbg !1410, !nonnull !27, !noundef !27
  %33 = insertvalue { ptr, ptr } poison, ptr %30, 0, !dbg !1410
  %34 = insertvalue { ptr, ptr } %33, ptr %32, 1, !dbg !1410
  %35 = extractvalue { ptr, ptr } %34, 0, !dbg !1411
  %36 = extractvalue { ptr, ptr } %34, 1, !dbg !1411
  %_76.0 = extractvalue { ptr, ptr } %34, 0, !dbg !1377
  %_76.1 = extractvalue { ptr, ptr } %34, 1, !dbg !1377
  %37 = getelementptr inbounds [3 x { ptr, ptr }], ptr %_71, i64 0, i64 0, !dbg !1377
  %38 = getelementptr inbounds { ptr, ptr }, ptr %37, i32 0, i32 0, !dbg !1377
  store ptr %_72.0, ptr %38, align 8, !dbg !1377
  %39 = getelementptr inbounds { ptr, ptr }, ptr %37, i32 0, i32 1, !dbg !1377
  store ptr %_72.1, ptr %39, align 8, !dbg !1377
  %40 = getelementptr inbounds [3 x { ptr, ptr }], ptr %_71, i64 0, i64 1, !dbg !1377
  %41 = getelementptr inbounds { ptr, ptr }, ptr %40, i32 0, i32 0, !dbg !1377
  store ptr %_74.0, ptr %41, align 8, !dbg !1377
  %42 = getelementptr inbounds { ptr, ptr }, ptr %40, i32 0, i32 1, !dbg !1377
  store ptr %_74.1, ptr %42, align 8, !dbg !1377
  %43 = getelementptr inbounds [3 x { ptr, ptr }], ptr %_71, i64 0, i64 2, !dbg !1377
  %44 = getelementptr inbounds { ptr, ptr }, ptr %43, i32 0, i32 0, !dbg !1377
  store ptr %_76.0, ptr %44, align 8, !dbg !1377
  %45 = getelementptr inbounds { ptr, ptr }, ptr %43, i32 0, i32 1, !dbg !1377
  store ptr %_76.1, ptr %45, align 8, !dbg !1377
; call core::fmt::Arguments::new_v1
  call void @_ZN4core3fmt9Arguments6new_v117hc523a9f23c30a71aE(ptr sret(%"core::fmt::Arguments<'_>") %_67, ptr align 8 @alloc_d29a6390632466693e1aaac961799525, i64 3, ptr align 8 %_71, i64 3) #9, !dbg !1377
; call core::panicking::panic_fmt
  call void @_ZN4core9panicking9panic_fmt17hdd6269d09ded55c6E(ptr %_67, ptr align 8 @alloc_2499ee2d6da988c4fec98e3b179629df) #11, !dbg !1377
  unreachable, !dbg !1377

bb3:                                              ; preds = %start
  %46 = getelementptr inbounds { i64, { ptr, i64 } }, ptr %_4, i32 0, i32 1, !dbg !1412
  %47 = getelementptr inbounds { ptr, i64 }, ptr %46, i32 0, i32 0, !dbg !1412
  %_84.0 = load ptr, ptr %47, align 8, !dbg !1412, !nonnull !27, !align !853, !noundef !27
  %48 = getelementptr inbounds { ptr, i64 }, ptr %46, i32 0, i32 1, !dbg !1412
  %_84.1 = load i64, ptr %48, align 8, !dbg !1412, !noundef !27
  %_10 = icmp uge i64 %_84.1, 1, !dbg !1412
  br i1 %_10, label %bb8, label %bb4, !dbg !1412

bb5:                                              ; preds = %start
  %49 = getelementptr inbounds { i64, { ptr, i64 } }, ptr %_4, i32 0, i32 1, !dbg !1413
  %50 = getelementptr inbounds { ptr, i64 }, ptr %49, i32 0, i32 0, !dbg !1413
  %_85.0 = load ptr, ptr %50, align 8, !dbg !1413, !nonnull !27, !align !853, !noundef !27
  %51 = getelementptr inbounds { ptr, i64 }, ptr %49, i32 0, i32 1, !dbg !1413
  %_85.1 = load i64, ptr %51, align 8, !dbg !1413, !noundef !27
  %_13 = icmp uge i64 %_85.1, 2, !dbg !1413
  br i1 %_13, label %bb9, label %bb4, !dbg !1413

bb6:                                              ; preds = %start
  %52 = getelementptr inbounds { i64, { ptr, i64 } }, ptr %_4, i32 0, i32 1, !dbg !1414
  %53 = getelementptr inbounds { ptr, i64 }, ptr %52, i32 0, i32 0, !dbg !1414
  %_86.0 = load ptr, ptr %53, align 8, !dbg !1414, !nonnull !27, !align !853, !noundef !27
  %54 = getelementptr inbounds { ptr, i64 }, ptr %52, i32 0, i32 1, !dbg !1414
  %_86.1 = load i64, ptr %54, align 8, !dbg !1414, !noundef !27
  %_16 = icmp uge i64 %_86.1, 3, !dbg !1414
  br i1 %_16, label %bb11, label %bb4, !dbg !1414

bb7:                                              ; preds = %start
  %55 = getelementptr inbounds { i64, { ptr, i64 } }, ptr %_4, i32 0, i32 1, !dbg !1415
  %56 = getelementptr inbounds { ptr, i64 }, ptr %55, i32 0, i32 0, !dbg !1415
  %_87.0 = load ptr, ptr %56, align 8, !dbg !1415, !nonnull !27, !align !853, !noundef !27
  %57 = getelementptr inbounds { ptr, i64 }, ptr %55, i32 0, i32 1, !dbg !1415
  %_87.1 = load i64, ptr %57, align 8, !dbg !1415, !noundef !27
  %_19 = icmp uge i64 %_87.1, 4, !dbg !1415
  br i1 %_19, label %bb14, label %bb4, !dbg !1415

bb14:                                             ; preds = %bb7
  %58 = getelementptr inbounds { i64, { ptr, i64 } }, ptr %_4, i32 0, i32 1, !dbg !1416
  %59 = getelementptr inbounds { ptr, i64 }, ptr %58, i32 0, i32 0, !dbg !1416
  %_94.0 = load ptr, ptr %59, align 8, !dbg !1416, !nonnull !27, !align !853, !noundef !27
  %60 = getelementptr inbounds { ptr, i64 }, ptr %58, i32 0, i32 1, !dbg !1416
  %_94.1 = load i64, ptr %60, align 8, !dbg !1416, !noundef !27
  %a = getelementptr inbounds [0 x i8], ptr %_94.0, i64 0, i64 0, !dbg !1416
  store ptr %a, ptr %a.dbg.spill, align 8, !dbg !1416
  call void @llvm.dbg.declare(metadata ptr %a.dbg.spill, metadata !1356, metadata !DIExpression()), !dbg !1417
  %61 = getelementptr inbounds { i64, { ptr, i64 } }, ptr %_4, i32 0, i32 1, !dbg !1418
  %62 = getelementptr inbounds { ptr, i64 }, ptr %61, i32 0, i32 0, !dbg !1418
  %_95.0 = load ptr, ptr %62, align 8, !dbg !1418, !nonnull !27, !align !853, !noundef !27
  %63 = getelementptr inbounds { ptr, i64 }, ptr %61, i32 0, i32 1, !dbg !1418
  %_95.1 = load i64, ptr %63, align 8, !dbg !1418, !noundef !27
  %b = getelementptr inbounds [0 x i8], ptr %_95.0, i64 0, i64 1, !dbg !1418
  store ptr %b, ptr %b.dbg.spill, align 8, !dbg !1418
  call void @llvm.dbg.declare(metadata ptr %b.dbg.spill, metadata !1358, metadata !DIExpression()), !dbg !1419
  %64 = getelementptr inbounds { i64, { ptr, i64 } }, ptr %_4, i32 0, i32 1, !dbg !1420
  %65 = getelementptr inbounds { ptr, i64 }, ptr %64, i32 0, i32 0, !dbg !1420
  %_96.0 = load ptr, ptr %65, align 8, !dbg !1420, !nonnull !27, !align !853, !noundef !27
  %66 = getelementptr inbounds { ptr, i64 }, ptr %64, i32 0, i32 1, !dbg !1420
  %_96.1 = load i64, ptr %66, align 8, !dbg !1420, !noundef !27
  %c = getelementptr inbounds [0 x i8], ptr %_96.0, i64 0, i64 2, !dbg !1420
  store ptr %c, ptr %c.dbg.spill, align 8, !dbg !1420
  call void @llvm.dbg.declare(metadata ptr %c.dbg.spill, metadata !1359, metadata !DIExpression()), !dbg !1421
  %67 = getelementptr inbounds { i64, { ptr, i64 } }, ptr %_4, i32 0, i32 1, !dbg !1422
  %68 = getelementptr inbounds { ptr, i64 }, ptr %67, i32 0, i32 0, !dbg !1422
  %_97.0 = load ptr, ptr %68, align 8, !dbg !1422, !nonnull !27, !align !853, !noundef !27
  %69 = getelementptr inbounds { ptr, i64 }, ptr %67, i32 0, i32 1, !dbg !1422
  %_97.1 = load i64, ptr %69, align 8, !dbg !1422, !noundef !27
  %d = getelementptr inbounds [0 x i8], ptr %_97.0, i64 0, i64 3, !dbg !1422
  store ptr %d, ptr %d.dbg.spill, align 8, !dbg !1422
  call void @llvm.dbg.declare(metadata ptr %d.dbg.spill, metadata !1360, metadata !DIExpression()), !dbg !1423
  %70 = load i32, ptr %code, align 4, !dbg !1424, !noundef !27
  %_51 = lshr i32 %70, 18, !dbg !1424
  %_50 = and i32 %_51, 7, !dbg !1425
  %_49 = trunc i32 %_50 to i8, !dbg !1425
  %71 = or i8 %_49, -16, !dbg !1426
  store i8 %71, ptr %a, align 1, !dbg !1426
  %72 = load i32, ptr %code, align 4, !dbg !1427, !noundef !27
  %_56 = lshr i32 %72, 12, !dbg !1427
  %_55 = and i32 %_56, 63, !dbg !1428
  %_54 = trunc i32 %_55 to i8, !dbg !1428
  %73 = or i8 %_54, -128, !dbg !1429
  store i8 %73, ptr %b, align 1, !dbg !1429
  %74 = load i32, ptr %code, align 4, !dbg !1430, !noundef !27
  %_61 = lshr i32 %74, 6, !dbg !1430
  %_60 = and i32 %_61, 63, !dbg !1431
  %_59 = trunc i32 %_60 to i8, !dbg !1431
  %75 = or i8 %_59, -128, !dbg !1432
  store i8 %75, ptr %c, align 1, !dbg !1432
  %76 = load i32, ptr %code, align 4, !dbg !1433, !noundef !27
  %_65 = and i32 %76, 63, !dbg !1433
  %_64 = trunc i32 %_65 to i8, !dbg !1433
  %77 = or i8 %_64, -128, !dbg !1434
  store i8 %77, ptr %d, align 1, !dbg !1434
  br label %bb22, !dbg !1435

bb22:                                             ; preds = %bb8, %bb9, %bb11, %bb14
  %_82 = load i64, ptr %len, align 8, !dbg !1436, !noundef !27
  store i64 %_82, ptr %_81, align 8, !dbg !1437
  %78 = load i64, ptr %_81, align 8, !dbg !1438, !noundef !27
; call core::slice::index::<impl core::ops::index::IndexMut<I> for [T]>::index_mut
  %79 = call { ptr, i64 } @"_ZN4core5slice5index77_$LT$impl$u20$core..ops..index..IndexMut$LT$I$GT$$u20$for$u20$$u5b$T$u5d$$GT$9index_mut17ha15213f3a3f22fa3E"(ptr align 1 %dst.0, i64 %dst.1, i64 %78, ptr align 8 @alloc_63e9d1bbad54bf32f4ed5f8ce51df045) #9, !dbg !1438
  %_80.0 = extractvalue { ptr, i64 } %79, 0, !dbg !1438
  %_80.1 = extractvalue { ptr, i64 } %79, 1, !dbg !1438
  %80 = insertvalue { ptr, i64 } poison, ptr %_80.0, 0, !dbg !1439
  %81 = insertvalue { ptr, i64 } %80, i64 %_80.1, 1, !dbg !1439
  ret { ptr, i64 } %81, !dbg !1439

bb11:                                             ; preds = %bb6
  %82 = getelementptr inbounds { i64, { ptr, i64 } }, ptr %_4, i32 0, i32 1, !dbg !1440
  %83 = getelementptr inbounds { ptr, i64 }, ptr %82, i32 0, i32 0, !dbg !1440
  %_91.0 = load ptr, ptr %83, align 8, !dbg !1440, !nonnull !27, !align !853, !noundef !27
  %84 = getelementptr inbounds { ptr, i64 }, ptr %82, i32 0, i32 1, !dbg !1440
  %_91.1 = load i64, ptr %84, align 8, !dbg !1440, !noundef !27
  %a1 = getelementptr inbounds [0 x i8], ptr %_91.0, i64 0, i64 0, !dbg !1440
  store ptr %a1, ptr %a.dbg.spill2, align 8, !dbg !1440
  call void @llvm.dbg.declare(metadata ptr %a.dbg.spill2, metadata !1352, metadata !DIExpression()), !dbg !1441
  %85 = getelementptr inbounds { i64, { ptr, i64 } }, ptr %_4, i32 0, i32 1, !dbg !1442
  %86 = getelementptr inbounds { ptr, i64 }, ptr %85, i32 0, i32 0, !dbg !1442
  %_92.0 = load ptr, ptr %86, align 8, !dbg !1442, !nonnull !27, !align !853, !noundef !27
  %87 = getelementptr inbounds { ptr, i64 }, ptr %85, i32 0, i32 1, !dbg !1442
  %_92.1 = load i64, ptr %87, align 8, !dbg !1442, !noundef !27
  %b3 = getelementptr inbounds [0 x i8], ptr %_92.0, i64 0, i64 1, !dbg !1442
  store ptr %b3, ptr %b.dbg.spill4, align 8, !dbg !1442
  call void @llvm.dbg.declare(metadata ptr %b.dbg.spill4, metadata !1354, metadata !DIExpression()), !dbg !1443
  %88 = getelementptr inbounds { i64, { ptr, i64 } }, ptr %_4, i32 0, i32 1, !dbg !1444
  %89 = getelementptr inbounds { ptr, i64 }, ptr %88, i32 0, i32 0, !dbg !1444
  %_93.0 = load ptr, ptr %89, align 8, !dbg !1444, !nonnull !27, !align !853, !noundef !27
  %90 = getelementptr inbounds { ptr, i64 }, ptr %88, i32 0, i32 1, !dbg !1444
  %_93.1 = load i64, ptr %90, align 8, !dbg !1444, !noundef !27
  %c5 = getelementptr inbounds [0 x i8], ptr %_93.0, i64 0, i64 2, !dbg !1444
  store ptr %c5, ptr %c.dbg.spill6, align 8, !dbg !1444
  call void @llvm.dbg.declare(metadata ptr %c.dbg.spill6, metadata !1355, metadata !DIExpression()), !dbg !1445
  %91 = load i32, ptr %code, align 4, !dbg !1446, !noundef !27
  %_35 = lshr i32 %91, 12, !dbg !1446
  %_34 = and i32 %_35, 15, !dbg !1447
  %_33 = trunc i32 %_34 to i8, !dbg !1447
  %92 = or i8 %_33, -32, !dbg !1448
  store i8 %92, ptr %a1, align 1, !dbg !1448
  %93 = load i32, ptr %code, align 4, !dbg !1449, !noundef !27
  %_40 = lshr i32 %93, 6, !dbg !1449
  %_39 = and i32 %_40, 63, !dbg !1450
  %_38 = trunc i32 %_39 to i8, !dbg !1450
  %94 = or i8 %_38, -128, !dbg !1451
  store i8 %94, ptr %b3, align 1, !dbg !1451
  %95 = load i32, ptr %code, align 4, !dbg !1452, !noundef !27
  %_44 = and i32 %95, 63, !dbg !1452
  %_43 = trunc i32 %_44 to i8, !dbg !1452
  %96 = or i8 %_43, -128, !dbg !1453
  store i8 %96, ptr %c5, align 1, !dbg !1453
  br label %bb22, !dbg !1454

bb9:                                              ; preds = %bb5
  %97 = getelementptr inbounds { i64, { ptr, i64 } }, ptr %_4, i32 0, i32 1, !dbg !1455
  %98 = getelementptr inbounds { ptr, i64 }, ptr %97, i32 0, i32 0, !dbg !1455
  %_89.0 = load ptr, ptr %98, align 8, !dbg !1455, !nonnull !27, !align !853, !noundef !27
  %99 = getelementptr inbounds { ptr, i64 }, ptr %97, i32 0, i32 1, !dbg !1455
  %_89.1 = load i64, ptr %99, align 8, !dbg !1455, !noundef !27
  %a7 = getelementptr inbounds [0 x i8], ptr %_89.0, i64 0, i64 0, !dbg !1455
  store ptr %a7, ptr %a.dbg.spill8, align 8, !dbg !1455
  call void @llvm.dbg.declare(metadata ptr %a.dbg.spill8, metadata !1349, metadata !DIExpression()), !dbg !1456
  %100 = getelementptr inbounds { i64, { ptr, i64 } }, ptr %_4, i32 0, i32 1, !dbg !1457
  %101 = getelementptr inbounds { ptr, i64 }, ptr %100, i32 0, i32 0, !dbg !1457
  %_90.0 = load ptr, ptr %101, align 8, !dbg !1457, !nonnull !27, !align !853, !noundef !27
  %102 = getelementptr inbounds { ptr, i64 }, ptr %100, i32 0, i32 1, !dbg !1457
  %_90.1 = load i64, ptr %102, align 8, !dbg !1457, !noundef !27
  %b9 = getelementptr inbounds [0 x i8], ptr %_90.0, i64 0, i64 1, !dbg !1457
  store ptr %b9, ptr %b.dbg.spill10, align 8, !dbg !1457
  call void @llvm.dbg.declare(metadata ptr %b.dbg.spill10, metadata !1351, metadata !DIExpression()), !dbg !1458
  %103 = load i32, ptr %code, align 4, !dbg !1459, !noundef !27
  %_25 = lshr i32 %103, 6, !dbg !1459
  %_24 = and i32 %_25, 31, !dbg !1460
  %_23 = trunc i32 %_24 to i8, !dbg !1460
  %104 = or i8 %_23, -64, !dbg !1461
  store i8 %104, ptr %a7, align 1, !dbg !1461
  %105 = load i32, ptr %code, align 4, !dbg !1462, !noundef !27
  %_29 = and i32 %105, 63, !dbg !1462
  %_28 = trunc i32 %_29 to i8, !dbg !1462
  %106 = or i8 %_28, -128, !dbg !1463
  store i8 %106, ptr %b9, align 1, !dbg !1463
  br label %bb22, !dbg !1464

bb8:                                              ; preds = %bb3
  %107 = getelementptr inbounds { i64, { ptr, i64 } }, ptr %_4, i32 0, i32 1, !dbg !1465
  %108 = getelementptr inbounds { ptr, i64 }, ptr %107, i32 0, i32 0, !dbg !1465
  %_88.0 = load ptr, ptr %108, align 8, !dbg !1465, !nonnull !27, !align !853, !noundef !27
  %109 = getelementptr inbounds { ptr, i64 }, ptr %107, i32 0, i32 1, !dbg !1465
  %_88.1 = load i64, ptr %109, align 8, !dbg !1465, !noundef !27
  %a11 = getelementptr inbounds [0 x i8], ptr %_88.0, i64 0, i64 0, !dbg !1465
  store ptr %a11, ptr %a.dbg.spill12, align 8, !dbg !1465
  call void @llvm.dbg.declare(metadata ptr %a.dbg.spill12, metadata !1346, metadata !DIExpression()), !dbg !1466
  %110 = load i32, ptr %code, align 4, !dbg !1467, !noundef !27
  %111 = trunc i32 %110 to i8, !dbg !1467
  store i8 %111, ptr %a11, align 1, !dbg !1467
  br label %bb22, !dbg !1468
}

; core::char::methods::<impl char>::encode_utf8
; Function Attrs: inlinehint noredzone nounwind
define internal { ptr, i64 } @"_ZN4core4char7methods22_$LT$impl$u20$char$GT$11encode_utf817h67adde8e9dc6d052E"(i32 %self, ptr align 1 %dst.0, i64 %dst.1) unnamed_addr #0 !dbg !1469 {
start:
  %dst.dbg.spill = alloca { ptr, i64 }, align 8
  %self.dbg.spill = alloca i32, align 4
  store i32 %self, ptr %self.dbg.spill, align 4
  call void @llvm.dbg.declare(metadata ptr %self.dbg.spill, metadata !1474, metadata !DIExpression()), !dbg !1476
  %0 = getelementptr inbounds { ptr, i64 }, ptr %dst.dbg.spill, i32 0, i32 0
  store ptr %dst.0, ptr %0, align 8
  %1 = getelementptr inbounds { ptr, i64 }, ptr %dst.dbg.spill, i32 0, i32 1
  store i64 %dst.1, ptr %1, align 8
  call void @llvm.dbg.declare(metadata ptr %dst.dbg.spill, metadata !1475, metadata !DIExpression()), !dbg !1477
; call core::char::methods::encode_utf8_raw
  %2 = call { ptr, i64 } @_ZN4core4char7methods15encode_utf8_raw17hf49c78a82095cd35E(i32 %self, ptr align 1 %dst.0, i64 %dst.1) #9, !dbg !1478
  %_5.0 = extractvalue { ptr, i64 } %2, 0, !dbg !1478
  %_5.1 = extractvalue { ptr, i64 } %2, 1, !dbg !1478
; call core::str::converts::from_utf8_unchecked_mut
  %3 = call { ptr, i64 } @_ZN4core3str8converts23from_utf8_unchecked_mut17he3ce3cbadf93f60cE(ptr align 1 %_5.0, i64 %_5.1) #9, !dbg !1479
  %_3.0 = extractvalue { ptr, i64 } %3, 0, !dbg !1479
  %_3.1 = extractvalue { ptr, i64 } %3, 1, !dbg !1479
  %4 = insertvalue { ptr, i64 } poison, ptr %_3.0, 0, !dbg !1480
  %5 = insertvalue { ptr, i64 } %4, i64 %_3.1, 1, !dbg !1480
  ret { ptr, i64 } %5, !dbg !1480
}

; core::char::methods::len_utf8
; Function Attrs: inlinehint noredzone nounwind
define internal i64 @_ZN4core4char7methods8len_utf817h1cf08f4c038666d4E(i32 %code) unnamed_addr #0 !dbg !1481 {
start:
  %code.dbg.spill = alloca i32, align 4
  %0 = alloca i64, align 8
  store i32 %code, ptr %code.dbg.spill, align 4
  call void @llvm.dbg.declare(metadata ptr %code.dbg.spill, metadata !1485, metadata !DIExpression()), !dbg !1486
  %_2 = icmp ult i32 %code, 128, !dbg !1487
  br i1 %_2, label %bb1, label %bb2, !dbg !1487

bb2:                                              ; preds = %start
  %_3 = icmp ult i32 %code, 2048, !dbg !1488
  br i1 %_3, label %bb3, label %bb4, !dbg !1488

bb1:                                              ; preds = %start
  store i64 1, ptr %0, align 8, !dbg !1489
  br label %bb7, !dbg !1490

bb7:                                              ; preds = %bb6, %bb5, %bb3, %bb1
  %1 = load i64, ptr %0, align 8, !dbg !1491, !noundef !27
  ret i64 %1, !dbg !1491

bb4:                                              ; preds = %bb2
  %_4 = icmp ult i32 %code, 65536, !dbg !1492
  br i1 %_4, label %bb5, label %bb6, !dbg !1492

bb3:                                              ; preds = %bb2
  store i64 2, ptr %0, align 8, !dbg !1493
  br label %bb7, !dbg !1494

bb6:                                              ; preds = %bb4
  store i64 4, ptr %0, align 8, !dbg !1495
  br label %bb7, !dbg !1496

bb5:                                              ; preds = %bb4
  store i64 3, ptr %0, align 8, !dbg !1497
  br label %bb7, !dbg !1496
}

; core::hint::unreachable_unchecked
; Function Attrs: inlinehint noredzone noreturn nounwind
define internal void @_ZN4core4hint21unreachable_unchecked17h12665534d45b0a40E() unnamed_addr #2 !dbg !1498 {
start:
  br i1 true, label %bb1, label %bb2, !dbg !1503

bb2:                                              ; preds = %_ZN4core4hint21unreachable_unchecked7runtime17hdb17e597162472c0E.exit, %start
  unreachable, !dbg !1504

bb1:                                              ; preds = %start
; call core::panicking::panic_nounwind
  call void @_ZN4core9panicking14panic_nounwind17h8eea4b7bcc6cf983E(ptr align 1 @alloc_1eb6f53a157dccb32488e066ad957e6d, i64 82) #11, !dbg !1505
  unreachable, !dbg !1505

_ZN4core4hint21unreachable_unchecked7runtime17hdb17e597162472c0E.exit: ; No predecessors!
  br label %bb2, !dbg !1503
}

; core::sync::atomic::AtomicBool::compare_exchange_weak
; Function Attrs: inlinehint noredzone nounwind
define internal { i8, i8 } @_ZN4core4sync6atomic10AtomicBool21compare_exchange_weak17hcbb30a4ec771e99dE(ptr align 1 %self, i1 zeroext %current, i1 zeroext %new, i8 %success, i8 %failure) unnamed_addr #0 !dbg !1510 {
start:
  %self.dbg.spill.i = alloca ptr, align 8
  %x.dbg.spill2 = alloca i8, align 1
  %x.dbg.spill = alloca i8, align 1
  %failure.dbg.spill = alloca i8, align 1
  %success.dbg.spill = alloca i8, align 1
  %new.dbg.spill = alloca i8, align 1
  %current.dbg.spill = alloca i8, align 1
  %self.dbg.spill = alloca ptr, align 8
  %_6 = alloca { i8, i8 }, align 1
  %0 = alloca { i8, i8 }, align 1
  store ptr %self, ptr %self.dbg.spill, align 8
  call void @llvm.dbg.declare(metadata ptr %self.dbg.spill, metadata !1531, metadata !DIExpression()), !dbg !1540
  %1 = zext i1 %current to i8
  store i8 %1, ptr %current.dbg.spill, align 1
  call void @llvm.dbg.declare(metadata ptr %current.dbg.spill, metadata !1532, metadata !DIExpression()), !dbg !1541
  %2 = zext i1 %new to i8
  store i8 %2, ptr %new.dbg.spill, align 1
  call void @llvm.dbg.declare(metadata ptr %new.dbg.spill, metadata !1533, metadata !DIExpression()), !dbg !1542
  store i8 %success, ptr %success.dbg.spill, align 1
  call void @llvm.dbg.declare(metadata ptr %success.dbg.spill, metadata !1534, metadata !DIExpression()), !dbg !1543
  store i8 %failure, ptr %failure.dbg.spill, align 1
  call void @llvm.dbg.declare(metadata ptr %failure.dbg.spill, metadata !1535, metadata !DIExpression()), !dbg !1544
  store ptr %self, ptr %self.dbg.spill.i, align 8
  call void @llvm.dbg.declare(metadata ptr %self.dbg.spill.i, metadata !1545, metadata !DIExpression()), !dbg !1552
  %_9 = zext i1 %current to i8, !dbg !1554
  %_10 = zext i1 %new to i8, !dbg !1555
; call core::sync::atomic::atomic_compare_exchange_weak
  %3 = call { i8, i8 } @_ZN4core4sync6atomic28atomic_compare_exchange_weak17h369dbb057fa1495dE(ptr %self, i8 %_9, i8 %_10, i8 %success, i8 %failure) #9, !dbg !1556
  store { i8, i8 } %3, ptr %_6, align 1, !dbg !1556
  %4 = load i8, ptr %_6, align 1, !dbg !1557, !range !1115, !noundef !27
  %5 = trunc i8 %4 to i1, !dbg !1557
  %_11 = zext i1 %5 to i64, !dbg !1557
  %6 = icmp eq i64 %_11, 0, !dbg !1558
  br i1 %6, label %bb5, label %bb3, !dbg !1558

bb5:                                              ; preds = %start
  %7 = getelementptr inbounds { i8, i8 }, ptr %_6, i32 0, i32 1, !dbg !1559
  %x1 = load i8, ptr %7, align 1, !dbg !1559, !noundef !27
  store i8 %x1, ptr %x.dbg.spill2, align 1, !dbg !1559
  call void @llvm.dbg.declare(metadata ptr %x.dbg.spill2, metadata !1536, metadata !DIExpression()), !dbg !1560
  %_13 = icmp ne i8 %x1, 0, !dbg !1561
  %8 = getelementptr inbounds { i8, i8 }, ptr %0, i32 0, i32 1, !dbg !1562
  %9 = zext i1 %_13 to i8, !dbg !1562
  store i8 %9, ptr %8, align 1, !dbg !1562
  store i8 0, ptr %0, align 1, !dbg !1562
  br label %bb6, !dbg !1563

bb3:                                              ; preds = %start
  %10 = getelementptr inbounds { i8, i8 }, ptr %_6, i32 0, i32 1, !dbg !1564
  %x = load i8, ptr %10, align 1, !dbg !1564, !noundef !27
  store i8 %x, ptr %x.dbg.spill, align 1, !dbg !1564
  call void @llvm.dbg.declare(metadata ptr %x.dbg.spill, metadata !1538, metadata !DIExpression()), !dbg !1565
  %_15 = icmp ne i8 %x, 0, !dbg !1566
  %11 = getelementptr inbounds { i8, i8 }, ptr %0, i32 0, i32 1, !dbg !1567
  %12 = zext i1 %_15 to i8, !dbg !1567
  store i8 %12, ptr %11, align 1, !dbg !1567
  store i8 1, ptr %0, align 1, !dbg !1567
  br label %bb6, !dbg !1568

bb4:                                              ; No predecessors!
  unreachable, !dbg !1557

bb6:                                              ; preds = %bb5, %bb3
  %13 = getelementptr inbounds { i8, i8 }, ptr %0, i32 0, i32 0, !dbg !1569
  %14 = load i8, ptr %13, align 1, !dbg !1569, !range !1115, !noundef !27
  %15 = trunc i8 %14 to i1, !dbg !1569
  %16 = getelementptr inbounds { i8, i8 }, ptr %0, i32 0, i32 1, !dbg !1569
  %17 = load i8, ptr %16, align 1, !dbg !1569, !noundef !27
  %18 = zext i1 %15 to i8, !dbg !1569
  %19 = insertvalue { i8, i8 } poison, i8 %18, 0, !dbg !1569
  %20 = insertvalue { i8, i8 } %19, i8 %17, 1, !dbg !1569
  ret { i8, i8 } %20, !dbg !1569
}

; core::sync::atomic::AtomicBool::new
; Function Attrs: inlinehint noredzone nounwind
define internal i8 @_ZN4core4sync6atomic10AtomicBool3new17hf1579ce6a5bb6478E(i1 zeroext %v) unnamed_addr #0 !dbg !1570 {
start:
  %value.dbg.spill.i = alloca i8, align 1
  %0 = alloca i8, align 1
  %v.dbg.spill = alloca i8, align 1
  %1 = alloca %"core::sync::atomic::AtomicBool", align 1
  %2 = zext i1 %v to i8
  store i8 %2, ptr %v.dbg.spill, align 1
  call void @llvm.dbg.declare(metadata ptr %v.dbg.spill, metadata !1574, metadata !DIExpression()), !dbg !1575
  %_3 = zext i1 %v to i8, !dbg !1576
  store i8 %_3, ptr %value.dbg.spill.i, align 1
  call void @llvm.dbg.declare(metadata ptr %value.dbg.spill.i, metadata !1577, metadata !DIExpression()), !dbg !1582
  store i8 %_3, ptr %0, align 1, !dbg !1584
  %3 = load i8, ptr %0, align 1, !dbg !1585, !noundef !27
  store i8 %3, ptr %1, align 1, !dbg !1586
  %4 = load i8, ptr %1, align 1, !dbg !1587
  ret i8 %4, !dbg !1587
}

; core::sync::atomic::AtomicBool::load
; Function Attrs: inlinehint noredzone nounwind
define internal zeroext i1 @_ZN4core4sync6atomic10AtomicBool4load17h12b56d04b138d3bdE(ptr align 1 %self, i8 %order) unnamed_addr #0 !dbg !1588 {
start:
  %self.dbg.spill.i = alloca ptr, align 8
  %order.dbg.spill = alloca i8, align 1
  %self.dbg.spill = alloca ptr, align 8
  store ptr %self, ptr %self.dbg.spill, align 8
  call void @llvm.dbg.declare(metadata ptr %self.dbg.spill, metadata !1592, metadata !DIExpression()), !dbg !1594
  store i8 %order, ptr %order.dbg.spill, align 1
  call void @llvm.dbg.declare(metadata ptr %order.dbg.spill, metadata !1593, metadata !DIExpression()), !dbg !1595
  store ptr %self, ptr %self.dbg.spill.i, align 8
  call void @llvm.dbg.declare(metadata ptr %self.dbg.spill.i, metadata !1545, metadata !DIExpression()), !dbg !1596
; call core::sync::atomic::atomic_load
  %_3 = call i8 @_ZN4core4sync6atomic11atomic_load17h8a8fb59e4dd3c8b2E(ptr %self, i8 %order) #9, !dbg !1598
  %0 = icmp ne i8 %_3, 0, !dbg !1598
  ret i1 %0, !dbg !1599
}

; core::sync::atomic::AtomicBool::store
; Function Attrs: inlinehint noredzone nounwind
define internal void @_ZN4core4sync6atomic10AtomicBool5store17hcbddfa2c5dd31b67E(ptr align 1 %self, i1 zeroext %val, i8 %order) unnamed_addr #0 !dbg !1600 {
start:
  %self.dbg.spill.i = alloca ptr, align 8
  %order.dbg.spill = alloca i8, align 1
  %val.dbg.spill = alloca i8, align 1
  %self.dbg.spill = alloca ptr, align 8
  store ptr %self, ptr %self.dbg.spill, align 8
  call void @llvm.dbg.declare(metadata ptr %self.dbg.spill, metadata !1604, metadata !DIExpression()), !dbg !1607
  %0 = zext i1 %val to i8
  store i8 %0, ptr %val.dbg.spill, align 1
  call void @llvm.dbg.declare(metadata ptr %val.dbg.spill, metadata !1605, metadata !DIExpression()), !dbg !1608
  store i8 %order, ptr %order.dbg.spill, align 1
  call void @llvm.dbg.declare(metadata ptr %order.dbg.spill, metadata !1606, metadata !DIExpression()), !dbg !1609
  store ptr %self, ptr %self.dbg.spill.i, align 8
  call void @llvm.dbg.declare(metadata ptr %self.dbg.spill.i, metadata !1545, metadata !DIExpression()), !dbg !1610
  %_7 = zext i1 %val to i8, !dbg !1612
; call core::sync::atomic::atomic_store
  call void @_ZN4core4sync6atomic12atomic_store17h34cca5a6e9887706E(ptr %self, i8 %_7, i8 %order) #9, !dbg !1613
  ret void, !dbg !1614
}

; core::sync::atomic::AtomicUsize::compare_and_swap
; Function Attrs: inlinehint noredzone nounwind
define internal i64 @_ZN4core4sync6atomic11AtomicUsize16compare_and_swap17h17e2c20bef99f227E(ptr align 8 %self, i64 %current, i64 %new, i8 %order) unnamed_addr #0 !dbg !1615 {
start:
  %x.dbg.spill2 = alloca i64, align 8
  %x.dbg.spill = alloca i64, align 8
  %order.dbg.spill = alloca i8, align 1
  %new.dbg.spill = alloca i64, align 8
  %current.dbg.spill = alloca i64, align 8
  %self.dbg.spill = alloca ptr, align 8
  %_5 = alloca { i64, i64 }, align 8
  %0 = alloca i64, align 8
  store ptr %self, ptr %self.dbg.spill, align 8
  call void @llvm.dbg.declare(metadata ptr %self.dbg.spill, metadata !1620, metadata !DIExpression()), !dbg !1628
  store i64 %current, ptr %current.dbg.spill, align 8
  call void @llvm.dbg.declare(metadata ptr %current.dbg.spill, metadata !1621, metadata !DIExpression()), !dbg !1629
  store i64 %new, ptr %new.dbg.spill, align 8
  call void @llvm.dbg.declare(metadata ptr %new.dbg.spill, metadata !1622, metadata !DIExpression()), !dbg !1630
  store i8 %order, ptr %order.dbg.spill, align 1
  call void @llvm.dbg.declare(metadata ptr %order.dbg.spill, metadata !1623, metadata !DIExpression()), !dbg !1631
; call core::sync::atomic::strongest_failure_ordering
  %_6 = call i8 @_ZN4core4sync6atomic26strongest_failure_ordering17hb3999b33a09ad93dE(i8 %order) #9, !dbg !1632, !range !1633
; call core::sync::atomic::AtomicUsize::compare_exchange
  %1 = call { i64, i64 } @_ZN4core4sync6atomic11AtomicUsize16compare_exchange17h2dc03080551131ddE(ptr align 8 %self, i64 %current, i64 %new, i8 %order, i8 %_6) #9, !dbg !1634
  store { i64, i64 } %1, ptr %_5, align 8, !dbg !1634
  %_7 = load i64, ptr %_5, align 8, !dbg !1634, !range !1635, !noundef !27
  %2 = icmp eq i64 %_7, 0, !dbg !1636
  br i1 %2, label %bb5, label %bb3, !dbg !1636

bb5:                                              ; preds = %start
  %3 = getelementptr inbounds { i64, i64 }, ptr %_5, i32 0, i32 1, !dbg !1637
  %x1 = load i64, ptr %3, align 8, !dbg !1637, !noundef !27
  store i64 %x1, ptr %x.dbg.spill2, align 8, !dbg !1637
  call void @llvm.dbg.declare(metadata ptr %x.dbg.spill2, metadata !1624, metadata !DIExpression()), !dbg !1638
  store i64 %x1, ptr %0, align 8, !dbg !1639
  br label %bb6, !dbg !1640

bb3:                                              ; preds = %start
  %4 = getelementptr inbounds { i64, i64 }, ptr %_5, i32 0, i32 1, !dbg !1641
  %x = load i64, ptr %4, align 8, !dbg !1641, !noundef !27
  store i64 %x, ptr %x.dbg.spill, align 8, !dbg !1641
  call void @llvm.dbg.declare(metadata ptr %x.dbg.spill, metadata !1626, metadata !DIExpression()), !dbg !1642
  store i64 %x, ptr %0, align 8, !dbg !1643
  br label %bb6, !dbg !1644

bb4:                                              ; No predecessors!
  unreachable, !dbg !1634

bb6:                                              ; preds = %bb5, %bb3
  %5 = load i64, ptr %0, align 8, !dbg !1645, !noundef !27
  ret i64 %5, !dbg !1645
}

; core::sync::atomic::AtomicUsize::compare_exchange
; Function Attrs: inlinehint noredzone nounwind
define internal { i64, i64 } @_ZN4core4sync6atomic11AtomicUsize16compare_exchange17h2dc03080551131ddE(ptr align 8 %self, i64 %current, i64 %new, i8 %success, i8 %failure) unnamed_addr #0 !dbg !1646 {
start:
  %self.dbg.spill.i = alloca ptr, align 8
  %failure.dbg.spill = alloca i8, align 1
  %success.dbg.spill = alloca i8, align 1
  %new.dbg.spill = alloca i64, align 8
  %current.dbg.spill = alloca i64, align 8
  %self.dbg.spill = alloca ptr, align 8
  store ptr %self, ptr %self.dbg.spill, align 8
  call void @llvm.dbg.declare(metadata ptr %self.dbg.spill, metadata !1665, metadata !DIExpression()), !dbg !1670
  store i64 %current, ptr %current.dbg.spill, align 8
  call void @llvm.dbg.declare(metadata ptr %current.dbg.spill, metadata !1666, metadata !DIExpression()), !dbg !1671
  store i64 %new, ptr %new.dbg.spill, align 8
  call void @llvm.dbg.declare(metadata ptr %new.dbg.spill, metadata !1667, metadata !DIExpression()), !dbg !1672
  store i8 %success, ptr %success.dbg.spill, align 1
  call void @llvm.dbg.declare(metadata ptr %success.dbg.spill, metadata !1668, metadata !DIExpression()), !dbg !1673
  store i8 %failure, ptr %failure.dbg.spill, align 1
  call void @llvm.dbg.declare(metadata ptr %failure.dbg.spill, metadata !1669, metadata !DIExpression()), !dbg !1674
  store ptr %self, ptr %self.dbg.spill.i, align 8
  call void @llvm.dbg.declare(metadata ptr %self.dbg.spill.i, metadata !1675, metadata !DIExpression()), !dbg !1682
; call core::sync::atomic::atomic_compare_exchange
  %0 = call { i64, i64 } @_ZN4core4sync6atomic23atomic_compare_exchange17ha37c44aa902b6990E(ptr %self, i64 %current, i64 %new, i8 %success, i8 %failure) #9, !dbg !1684
  %1 = extractvalue { i64, i64 } %0, 0, !dbg !1684
  %2 = extractvalue { i64, i64 } %0, 1, !dbg !1684
  %3 = insertvalue { i64, i64 } poison, i64 %1, 0, !dbg !1685
  %4 = insertvalue { i64, i64 } %3, i64 %2, 1, !dbg !1685
  ret { i64, i64 } %4, !dbg !1685
}

; core::sync::atomic::AtomicUsize::load
; Function Attrs: inlinehint noredzone nounwind
define internal i64 @_ZN4core4sync6atomic11AtomicUsize4load17h9ffb90c82ee30a46E(ptr align 8 %self, i8 %order) unnamed_addr #0 !dbg !1686 {
start:
  %self.dbg.spill.i = alloca ptr, align 8
  %order.dbg.spill = alloca i8, align 1
  %self.dbg.spill = alloca ptr, align 8
  store ptr %self, ptr %self.dbg.spill, align 8
  call void @llvm.dbg.declare(metadata ptr %self.dbg.spill, metadata !1690, metadata !DIExpression()), !dbg !1692
  store i8 %order, ptr %order.dbg.spill, align 1
  call void @llvm.dbg.declare(metadata ptr %order.dbg.spill, metadata !1691, metadata !DIExpression()), !dbg !1693
  store ptr %self, ptr %self.dbg.spill.i, align 8
  call void @llvm.dbg.declare(metadata ptr %self.dbg.spill.i, metadata !1675, metadata !DIExpression()), !dbg !1694
; call core::sync::atomic::atomic_load
  %0 = call i64 @_ZN4core4sync6atomic11atomic_load17h9c1d6ac9a838f0d1E(ptr %self, i8 %order) #9, !dbg !1696
  ret i64 %0, !dbg !1697
}

; core::sync::atomic::AtomicUsize::store
; Function Attrs: inlinehint noredzone nounwind
define internal void @_ZN4core4sync6atomic11AtomicUsize5store17h4b99cbe2f55d9cc0E(ptr align 8 %self, i64 %val, i8 %order) unnamed_addr #0 !dbg !1698 {
start:
  %self.dbg.spill.i = alloca ptr, align 8
  %order.dbg.spill = alloca i8, align 1
  %val.dbg.spill = alloca i64, align 8
  %self.dbg.spill = alloca ptr, align 8
  store ptr %self, ptr %self.dbg.spill, align 8
  call void @llvm.dbg.declare(metadata ptr %self.dbg.spill, metadata !1702, metadata !DIExpression()), !dbg !1705
  store i64 %val, ptr %val.dbg.spill, align 8
  call void @llvm.dbg.declare(metadata ptr %val.dbg.spill, metadata !1703, metadata !DIExpression()), !dbg !1706
  store i8 %order, ptr %order.dbg.spill, align 1
  call void @llvm.dbg.declare(metadata ptr %order.dbg.spill, metadata !1704, metadata !DIExpression()), !dbg !1707
  store ptr %self, ptr %self.dbg.spill.i, align 8
  call void @llvm.dbg.declare(metadata ptr %self.dbg.spill.i, metadata !1675, metadata !DIExpression()), !dbg !1708
; call core::sync::atomic::atomic_store
  call void @_ZN4core4sync6atomic12atomic_store17h20b0bad03211a0d5E(ptr %self, i64 %val, i8 %order) #9, !dbg !1710
  ret void, !dbg !1711
}

; core::sync::atomic::spin_loop_hint
; Function Attrs: inlinehint noredzone nounwind
define internal void @_ZN4core4sync6atomic14spin_loop_hint17h8000e312a9eff648E() unnamed_addr #0 !dbg !1712 {
start:
; call core::core_arch::x86::sse2::_mm_pause
  call void @_ZN4core9core_arch3x864sse29_mm_pause17heff99da8c6e11817E() #9, !dbg !1713
  ret void, !dbg !1716
}

; core::sync::atomic::strongest_failure_ordering
; Function Attrs: inlinehint noredzone nounwind
define internal i8 @_ZN4core4sync6atomic26strongest_failure_ordering17hb3999b33a09ad93dE(i8 %0) unnamed_addr #0 !dbg !1717 {
start:
  %1 = alloca i8, align 1
  %order = alloca i8, align 1
  store i8 %0, ptr %order, align 1
  call void @llvm.dbg.declare(metadata ptr %order, metadata !1721, metadata !DIExpression()), !dbg !1722
  %2 = load i8, ptr %order, align 1, !dbg !1723, !range !1633, !noundef !27
  %_2 = zext i8 %2 to i64, !dbg !1723
  switch i64 %_2, label %bb2 [
    i64 0, label %bb4
    i64 1, label %bb3
    i64 2, label %bb6
    i64 3, label %bb1
    i64 4, label %bb5
  ], !dbg !1724

bb2:                                              ; preds = %start
  unreachable, !dbg !1723

bb4:                                              ; preds = %start
  store i8 0, ptr %1, align 1, !dbg !1725
  br label %bb7, !dbg !1725

bb3:                                              ; preds = %start
  store i8 0, ptr %1, align 1, !dbg !1726
  br label %bb7, !dbg !1726

bb6:                                              ; preds = %start
  store i8 2, ptr %1, align 1, !dbg !1727
  br label %bb7, !dbg !1727

bb1:                                              ; preds = %start
  store i8 2, ptr %1, align 1, !dbg !1728
  br label %bb7, !dbg !1728

bb5:                                              ; preds = %start
  store i8 4, ptr %1, align 1, !dbg !1729
  br label %bb7, !dbg !1729

bb7:                                              ; preds = %bb4, %bb3, %bb6, %bb1, %bb5
  %3 = load i8, ptr %1, align 1, !dbg !1730, !range !1633, !noundef !27
  ret i8 %3, !dbg !1730
}

; core::option::Option<T>::as_ref
; Function Attrs: inlinehint noredzone nounwind
define internal align 2 ptr @"_ZN4core6option15Option$LT$T$GT$6as_ref17h4c33e87cb29fdec8E"(ptr align 2 %self) unnamed_addr #0 !dbg !1731 {
start:
  %x.dbg.spill = alloca ptr, align 8
  %self.dbg.spill = alloca ptr, align 8
  %0 = alloca ptr, align 8
  store ptr %self, ptr %self.dbg.spill, align 8
  call void @llvm.dbg.declare(metadata ptr %self.dbg.spill, metadata !1751, metadata !DIExpression()), !dbg !1754
  %1 = load i16, ptr %self, align 2, !dbg !1755, !range !1756, !noundef !27
  %_2 = zext i16 %1 to i64, !dbg !1755
  %2 = icmp eq i64 %_2, 0, !dbg !1757
  br i1 %2, label %bb1, label %bb3, !dbg !1757

bb1:                                              ; preds = %start
  store ptr null, ptr %0, align 8, !dbg !1758
  br label %bb4, !dbg !1758

bb3:                                              ; preds = %start
  %x = getelementptr inbounds %"core::option::Option<spin::mutex::Mutex<keyboard::Keyboard<pc_keyboard::layouts::us104::Us104Key, pc_keyboard::scancodes::set1::ScancodeSet1>>>::Some", ptr %self, i32 0, i32 1, !dbg !1759
  store ptr %x, ptr %x.dbg.spill, align 8, !dbg !1759
  call void @llvm.dbg.declare(metadata ptr %x.dbg.spill, metadata !1752, metadata !DIExpression()), !dbg !1760
  store ptr %x, ptr %0, align 8, !dbg !1761
  br label %bb4, !dbg !1762

bb2:                                              ; No predecessors!
  unreachable, !dbg !1755

bb4:                                              ; preds = %bb1, %bb3
  %3 = load ptr, ptr %0, align 8, !dbg !1763, !align !1764, !noundef !27
  ret ptr %3, !dbg !1763
}

; core::option::Option<T>::as_ref
; Function Attrs: inlinehint noredzone nounwind
define internal align 8 ptr @"_ZN4core6option15Option$LT$T$GT$6as_ref17h589f27d831e8213eE"(ptr align 8 %self) unnamed_addr #0 !dbg !1765 {
start:
  %x.dbg.spill = alloca ptr, align 8
  %self.dbg.spill = alloca ptr, align 8
  %0 = alloca ptr, align 8
  store ptr %self, ptr %self.dbg.spill, align 8
  call void @llvm.dbg.declare(metadata ptr %self.dbg.spill, metadata !1784, metadata !DIExpression()), !dbg !1787
  %_2 = load i64, ptr %self, align 8, !dbg !1788, !range !1635, !noundef !27
  %1 = icmp eq i64 %_2, 0, !dbg !1789
  br i1 %1, label %bb1, label %bb3, !dbg !1789

bb1:                                              ; preds = %start
  store ptr null, ptr %0, align 8, !dbg !1790
  br label %bb4, !dbg !1790

bb3:                                              ; preds = %start
  %x = getelementptr inbounds %"core::option::Option<spin::mutex::Mutex<vga::Screen>>::Some", ptr %self, i32 0, i32 1, !dbg !1791
  store ptr %x, ptr %x.dbg.spill, align 8, !dbg !1791
  call void @llvm.dbg.declare(metadata ptr %x.dbg.spill, metadata !1785, metadata !DIExpression()), !dbg !1792
  store ptr %x, ptr %0, align 8, !dbg !1793
  br label %bb4, !dbg !1794

bb2:                                              ; No predecessors!
  unreachable, !dbg !1788

bb4:                                              ; preds = %bb1, %bb3
  %2 = load ptr, ptr %0, align 8, !dbg !1795, !align !1034, !noundef !27
  ret ptr %2, !dbg !1795
}

; core::option::Option<T>::as_ref
; Function Attrs: inlinehint noredzone nounwind
define internal align 16 ptr @"_ZN4core6option15Option$LT$T$GT$6as_ref17h8acf2cda20be5594E"(ptr align 16 %self) unnamed_addr #0 !dbg !1796 {
start:
  %x.dbg.spill = alloca ptr, align 8
  %self.dbg.spill = alloca ptr, align 8
  %0 = alloca ptr, align 8
  store ptr %self, ptr %self.dbg.spill, align 8
  call void @llvm.dbg.declare(metadata ptr %self.dbg.spill, metadata !1815, metadata !DIExpression()), !dbg !1818
  %1 = getelementptr inbounds %"core::option::Option<cpu_interrupts::interrupt_descriptor_table::SafeInterruptDescriptorTable>", ptr %self, i32 0, i32 1, !dbg !1819
  %2 = load i8, ptr %1, align 2, !dbg !1819, !range !1820, !noundef !27
  %3 = icmp eq i8 %2, 2, !dbg !1819
  %_2 = select i1 %3, i64 0, i64 1, !dbg !1819
  %4 = icmp eq i64 %_2, 0, !dbg !1821
  br i1 %4, label %bb1, label %bb3, !dbg !1821

bb1:                                              ; preds = %start
  store ptr null, ptr %0, align 8, !dbg !1822
  br label %bb4, !dbg !1822

bb3:                                              ; preds = %start
  store ptr %self, ptr %x.dbg.spill, align 8, !dbg !1823
  call void @llvm.dbg.declare(metadata ptr %x.dbg.spill, metadata !1816, metadata !DIExpression()), !dbg !1824
  store ptr %self, ptr %0, align 8, !dbg !1825
  br label %bb4, !dbg !1826

bb2:                                              ; No predecessors!
  unreachable, !dbg !1819

bb4:                                              ; preds = %bb1, %bb3
  %5 = load ptr, ptr %0, align 8, !dbg !1827, !align !1828, !noundef !27
  ret ptr %5, !dbg !1827
}

; core::core_arch::x86::sse2::_mm_pause
; Function Attrs: inlinehint noredzone nounwind
define internal void @_ZN4core9core_arch3x864sse29_mm_pause17heff99da8c6e11817E() unnamed_addr #0 !dbg !1829 {
start:
  call void @llvm.x86.sse2.pause() #9, !dbg !1834
  ret void, !dbg !1835
}

; spin::once::Once<T>::call_once
; Function Attrs: noredzone nounwind
define internal align 8 ptr @"_ZN4spin4once13Once$LT$T$GT$9call_once17h2a5aecb487c1bf48E"(ptr align 8 %self) unnamed_addr #1 !dbg !1836 {
start:
  %self.dbg.spill.i = alloca ptr, align 8
  %builder.dbg.spill = alloca {}, align 1
  %self.dbg.spill = alloca ptr, align 8
  %_33 = alloca i8, align 1
  %_29 = alloca i8, align 1
  %_23 = alloca i8, align 1
  %_16 = alloca %"spin::mutex::Mutex<vga::Screen>", align 8
  %_15 = alloca %"core::option::Option<spin::mutex::Mutex<vga::Screen>>", align 8
  %finish = alloca { ptr, i8 }, align 8
  %_10 = alloca i8, align 1
  %_5 = alloca i8, align 1
  %status = alloca i64, align 8
  %0 = alloca ptr, align 8
  store ptr %self, ptr %self.dbg.spill, align 8
  call void @llvm.dbg.declare(metadata ptr %self.dbg.spill, metadata !1842, metadata !DIExpression()), !dbg !1854
  call void @llvm.dbg.declare(metadata ptr %builder.dbg.spill, metadata !1843, metadata !DIExpression()), !dbg !1855
  call void @llvm.dbg.declare(metadata ptr %status, metadata !1844, metadata !DIExpression()), !dbg !1856
  call void @llvm.dbg.declare(metadata ptr %finish, metadata !1846, metadata !DIExpression()), !dbg !1857
  store i8 0, ptr %_33, align 1, !dbg !1858
  store i8 1, ptr %_33, align 1, !dbg !1858
  store i8 4, ptr %_5, align 1, !dbg !1859
  %1 = load i8, ptr %_5, align 1, !dbg !1860, !range !1633, !noundef !27
; call core::sync::atomic::AtomicUsize::load
  %2 = call i64 @_ZN4core4sync6atomic11AtomicUsize4load17h9ffb90c82ee30a46E(ptr align 8 %self, i8 %1) #9, !dbg !1860
  store i64 %2, ptr %status, align 8, !dbg !1860
  %_7 = load i64, ptr %status, align 8, !dbg !1861, !noundef !27
  %_6 = icmp eq i64 %_7, 0, !dbg !1861
  br i1 %_6, label %bb2, label %bb10, !dbg !1861

bb10:                                             ; preds = %bb13, %bb2, %start
  %3 = load i64, ptr %status, align 8, !dbg !1862, !noundef !27
  switch i64 %3, label %bb11 [
    i64 0, label %bb12
    i64 1, label %bb13
    i64 3, label %bb16
    i64 2, label %bb17
  ], !dbg !1862

bb2:                                              ; preds = %start
  store i8 4, ptr %_10, align 1, !dbg !1863
  %4 = load i8, ptr %_10, align 1, !dbg !1864, !range !1633, !noundef !27
; call core::sync::atomic::AtomicUsize::compare_and_swap
  %_8 = call i64 @_ZN4core4sync6atomic11AtomicUsize16compare_and_swap17h17e2c20bef99f227E(ptr align 8 %self, i64 0, i64 1, i8 %4) #9, !dbg !1864
  store i64 %_8, ptr %status, align 8, !dbg !1865
  %_12 = load i64, ptr %status, align 8, !dbg !1866, !noundef !27
  %_11 = icmp eq i64 %_12, 0, !dbg !1866
  br i1 %_11, label %bb4, label %bb10, !dbg !1866

bb4:                                              ; preds = %bb2
  store ptr %self, ptr %finish, align 8, !dbg !1867
  %5 = getelementptr inbounds { ptr, i8 }, ptr %finish, i32 0, i32 1, !dbg !1867
  store i8 1, ptr %5, align 8, !dbg !1867
  store i8 0, ptr %_33, align 1, !dbg !1868
; call core::ops::function::FnOnce::call_once
  call void @_ZN4core3ops8function6FnOnce9call_once17ha007c99f973d877cE(ptr sret(%"spin::mutex::Mutex<vga::Screen>") %_16) #9, !dbg !1868
  %6 = getelementptr inbounds %"core::option::Option<spin::mutex::Mutex<vga::Screen>>::Some", ptr %_15, i32 0, i32 1, !dbg !1869
  call void @llvm.memcpy.p0.p0.i64(ptr align 8 %6, ptr align 8 %_16, i64 224, i1 false), !dbg !1869
  store i64 1, ptr %_15, align 8, !dbg !1869
  %_19 = getelementptr inbounds %"spin::once::Once<spin::mutex::Mutex<vga::Screen>>", ptr %self, i32 0, i32 1, !dbg !1870
  store ptr %_19, ptr %self.dbg.spill.i, align 8
  call void @llvm.dbg.declare(metadata ptr %self.dbg.spill.i, metadata !1871, metadata !DIExpression()), !dbg !1878
  call void @llvm.memcpy.p0.p0.i64(ptr align 8 %_19, ptr align 8 %_15, i64 232, i1 false), !dbg !1880
  %7 = getelementptr inbounds { ptr, i8 }, ptr %finish, i32 0, i32 1, !dbg !1881
  store i8 0, ptr %7, align 8, !dbg !1881
  store i64 2, ptr %status, align 8, !dbg !1882
  %_22 = load i64, ptr %status, align 8, !dbg !1883, !noundef !27
  store i8 4, ptr %_23, align 1, !dbg !1884
  %8 = load i8, ptr %_23, align 1, !dbg !1885, !range !1633, !noundef !27
; call core::sync::atomic::AtomicUsize::store
  call void @_ZN4core4sync6atomic11AtomicUsize5store17h4b99cbe2f55d9cc0E(ptr align 8 %self, i64 %_22, i8 %8) #9, !dbg !1885
; call spin::once::Once<T>::force_get
  %_24 = call align 8 ptr @"_ZN4spin4once13Once$LT$T$GT$9force_get17hdb4ab63d3e487fd3E"(ptr align 8 %self) #9, !dbg !1886
  store ptr %_24, ptr %0, align 8, !dbg !1886
; call core::ptr::drop_in_place<spin::once::Finish>
  call void @"_ZN4core3ptr39drop_in_place$LT$spin..once..Finish$GT$17h5756acb5b3b0319fE"(ptr %finish) #9, !dbg !1887
  br label %bb19, !dbg !1887

bb19:                                             ; preds = %bb17, %bb4
  %9 = load i8, ptr %_33, align 1, !dbg !1888, !range !1115, !noundef !27
  %10 = trunc i8 %9 to i1, !dbg !1888
  br i1 %10, label %bb21, label %bb20, !dbg !1888

bb11:                                             ; preds = %bb10
; call core::hint::unreachable_unchecked
  call void @_ZN4core4hint21unreachable_unchecked17h12665534d45b0a40E() #11, !dbg !1889
  unreachable, !dbg !1889

bb12:                                             ; preds = %bb10
; call core::panicking::panic
  call void @_ZN4core9panicking5panic17hee5d285669f2f2eaE(ptr align 1 @alloc_a500d906b91607583596fa15e63c2ada, i64 40, ptr align 8 @alloc_f6d48a4961f7d5070867936e66a7484e) #11, !dbg !1890
  unreachable, !dbg !1890

bb13:                                             ; preds = %bb10
; call core::sync::atomic::spin_loop_hint
  call void @_ZN4core4sync6atomic14spin_loop_hint17h8000e312a9eff648E() #9, !dbg !1891
  store i8 4, ptr %_29, align 1, !dbg !1892
  %11 = load i8, ptr %_29, align 1, !dbg !1893, !range !1633, !noundef !27
; call core::sync::atomic::AtomicUsize::load
  %_27 = call i64 @_ZN4core4sync6atomic11AtomicUsize4load17h9ffb90c82ee30a46E(ptr align 8 %self, i8 %11) #9, !dbg !1893
  store i64 %_27, ptr %status, align 8, !dbg !1894
  br label %bb10, !dbg !1895

bb16:                                             ; preds = %bb10
; call core::panicking::panic
  call void @_ZN4core9panicking5panic17hee5d285669f2f2eaE(ptr align 1 @alloc_b41ce9db6ff9e09c515cee5b4d05db5e, i64 17, ptr align 8 @alloc_14083d05c803f84018d4aa0469014f28) #11, !dbg !1896
  unreachable, !dbg !1896

bb17:                                             ; preds = %bb10
; call spin::once::Once<T>::force_get
  %_31 = call align 8 ptr @"_ZN4spin4once13Once$LT$T$GT$9force_get17hdb4ab63d3e487fd3E"(ptr align 8 %self) #9, !dbg !1897
  store ptr %_31, ptr %0, align 8, !dbg !1897
  br label %bb19, !dbg !1898

bb20:                                             ; preds = %bb21, %bb19
  %12 = load ptr, ptr %0, align 8, !dbg !1901, !nonnull !27, !align !1034, !noundef !27
  ret ptr %12, !dbg !1901

bb21:                                             ; preds = %bb19
  br label %bb20, !dbg !1888
}

; spin::once::Once<T>::call_once
; Function Attrs: noredzone nounwind
define internal align 16 ptr @"_ZN4spin4once13Once$LT$T$GT$9call_once17h453edcaa817b673fE"(ptr align 16 %self) unnamed_addr #1 !dbg !1902 {
start:
  %self.dbg.spill.i = alloca ptr, align 8
  %builder.dbg.spill = alloca {}, align 1
  %self.dbg.spill = alloca ptr, align 8
  %_33 = alloca i8, align 1
  %_29 = alloca i8, align 1
  %_23 = alloca i8, align 1
  %_16 = alloca %"cpu_interrupts::interrupt_descriptor_table::SafeInterruptDescriptorTable", align 16
  %_15 = alloca %"core::option::Option<cpu_interrupts::interrupt_descriptor_table::SafeInterruptDescriptorTable>", align 16
  %finish = alloca { ptr, i8 }, align 8
  %_10 = alloca i8, align 1
  %_5 = alloca i8, align 1
  %status = alloca i64, align 8
  %0 = alloca ptr, align 8
  store ptr %self, ptr %self.dbg.spill, align 8
  call void @llvm.dbg.declare(metadata ptr %self.dbg.spill, metadata !1907, metadata !DIExpression()), !dbg !1915
  call void @llvm.dbg.declare(metadata ptr %builder.dbg.spill, metadata !1908, metadata !DIExpression()), !dbg !1916
  call void @llvm.dbg.declare(metadata ptr %status, metadata !1909, metadata !DIExpression()), !dbg !1917
  call void @llvm.dbg.declare(metadata ptr %finish, metadata !1911, metadata !DIExpression()), !dbg !1918
  store i8 0, ptr %_33, align 1, !dbg !1919
  store i8 1, ptr %_33, align 1, !dbg !1919
  %_4 = getelementptr inbounds %"spin::once::Once<cpu_interrupts::interrupt_descriptor_table::SafeInterruptDescriptorTable>", ptr %self, i32 0, i32 1, !dbg !1920
  store i8 4, ptr %_5, align 1, !dbg !1921
  %1 = load i8, ptr %_5, align 1, !dbg !1920, !range !1633, !noundef !27
; call core::sync::atomic::AtomicUsize::load
  %2 = call i64 @_ZN4core4sync6atomic11AtomicUsize4load17h9ffb90c82ee30a46E(ptr align 8 %_4, i8 %1) #9, !dbg !1920
  store i64 %2, ptr %status, align 8, !dbg !1920
  %_7 = load i64, ptr %status, align 8, !dbg !1922, !noundef !27
  %_6 = icmp eq i64 %_7, 0, !dbg !1922
  br i1 %_6, label %bb2, label %bb10, !dbg !1922

bb10:                                             ; preds = %bb13, %bb2, %start
  %3 = load i64, ptr %status, align 8, !dbg !1923, !noundef !27
  switch i64 %3, label %bb11 [
    i64 0, label %bb12
    i64 1, label %bb13
    i64 3, label %bb16
    i64 2, label %bb17
  ], !dbg !1923

bb2:                                              ; preds = %start
  %_9 = getelementptr inbounds %"spin::once::Once<cpu_interrupts::interrupt_descriptor_table::SafeInterruptDescriptorTable>", ptr %self, i32 0, i32 1, !dbg !1924
  store i8 4, ptr %_10, align 1, !dbg !1925
  %4 = load i8, ptr %_10, align 1, !dbg !1924, !range !1633, !noundef !27
; call core::sync::atomic::AtomicUsize::compare_and_swap
  %_8 = call i64 @_ZN4core4sync6atomic11AtomicUsize16compare_and_swap17h17e2c20bef99f227E(ptr align 8 %_9, i64 0, i64 1, i8 %4) #9, !dbg !1924
  store i64 %_8, ptr %status, align 8, !dbg !1926
  %_12 = load i64, ptr %status, align 8, !dbg !1927, !noundef !27
  %_11 = icmp eq i64 %_12, 0, !dbg !1927
  br i1 %_11, label %bb4, label %bb10, !dbg !1927

bb4:                                              ; preds = %bb2
  %_14 = getelementptr inbounds %"spin::once::Once<cpu_interrupts::interrupt_descriptor_table::SafeInterruptDescriptorTable>", ptr %self, i32 0, i32 1, !dbg !1928
  store ptr %_14, ptr %finish, align 8, !dbg !1929
  %5 = getelementptr inbounds { ptr, i8 }, ptr %finish, i32 0, i32 1, !dbg !1929
  store i8 1, ptr %5, align 8, !dbg !1929
  store i8 0, ptr %_33, align 1, !dbg !1930
; call core::ops::function::FnOnce::call_once
  call void @_ZN4core3ops8function6FnOnce9call_once17hbba669866d3f9626E(ptr sret(%"cpu_interrupts::interrupt_descriptor_table::SafeInterruptDescriptorTable") %_16) #9, !dbg !1930
  call void @llvm.memcpy.p0.p0.i64(ptr align 16 %_15, ptr align 16 %_16, i64 4112, i1 false), !dbg !1931
  store ptr %self, ptr %self.dbg.spill.i, align 8
  call void @llvm.dbg.declare(metadata ptr %self.dbg.spill.i, metadata !1932, metadata !DIExpression()), !dbg !1939
  call void @llvm.memcpy.p0.p0.i64(ptr align 16 %self, ptr align 16 %_15, i64 4112, i1 false), !dbg !1941
  %6 = getelementptr inbounds { ptr, i8 }, ptr %finish, i32 0, i32 1, !dbg !1942
  store i8 0, ptr %6, align 8, !dbg !1942
  store i64 2, ptr %status, align 8, !dbg !1943
  %_21 = getelementptr inbounds %"spin::once::Once<cpu_interrupts::interrupt_descriptor_table::SafeInterruptDescriptorTable>", ptr %self, i32 0, i32 1, !dbg !1944
  %_22 = load i64, ptr %status, align 8, !dbg !1945, !noundef !27
  store i8 4, ptr %_23, align 1, !dbg !1946
  %7 = load i8, ptr %_23, align 1, !dbg !1944, !range !1633, !noundef !27
; call core::sync::atomic::AtomicUsize::store
  call void @_ZN4core4sync6atomic11AtomicUsize5store17h4b99cbe2f55d9cc0E(ptr align 8 %_21, i64 %_22, i8 %7) #9, !dbg !1944
; call spin::once::Once<T>::force_get
  %_24 = call align 16 ptr @"_ZN4spin4once13Once$LT$T$GT$9force_get17h7cfceb630bf8f6efE"(ptr align 16 %self) #9, !dbg !1947
  store ptr %_24, ptr %0, align 8, !dbg !1947
; call core::ptr::drop_in_place<spin::once::Finish>
  call void @"_ZN4core3ptr39drop_in_place$LT$spin..once..Finish$GT$17h5756acb5b3b0319fE"(ptr %finish) #9, !dbg !1948
  br label %bb19, !dbg !1948

bb19:                                             ; preds = %bb17, %bb4
  %8 = load i8, ptr %_33, align 1, !dbg !1949, !range !1115, !noundef !27
  %9 = trunc i8 %8 to i1, !dbg !1949
  br i1 %9, label %bb21, label %bb20, !dbg !1949

bb11:                                             ; preds = %bb10
; call core::hint::unreachable_unchecked
  call void @_ZN4core4hint21unreachable_unchecked17h12665534d45b0a40E() #11, !dbg !1950
  unreachable, !dbg !1950

bb12:                                             ; preds = %bb10
; call core::panicking::panic
  call void @_ZN4core9panicking5panic17hee5d285669f2f2eaE(ptr align 1 @alloc_a500d906b91607583596fa15e63c2ada, i64 40, ptr align 8 @alloc_f6d48a4961f7d5070867936e66a7484e) #11, !dbg !1951
  unreachable, !dbg !1951

bb13:                                             ; preds = %bb10
; call core::sync::atomic::spin_loop_hint
  call void @_ZN4core4sync6atomic14spin_loop_hint17h8000e312a9eff648E() #9, !dbg !1952
  %_28 = getelementptr inbounds %"spin::once::Once<cpu_interrupts::interrupt_descriptor_table::SafeInterruptDescriptorTable>", ptr %self, i32 0, i32 1, !dbg !1953
  store i8 4, ptr %_29, align 1, !dbg !1954
  %10 = load i8, ptr %_29, align 1, !dbg !1953, !range !1633, !noundef !27
; call core::sync::atomic::AtomicUsize::load
  %_27 = call i64 @_ZN4core4sync6atomic11AtomicUsize4load17h9ffb90c82ee30a46E(ptr align 8 %_28, i8 %10) #9, !dbg !1953
  store i64 %_27, ptr %status, align 8, !dbg !1955
  br label %bb10, !dbg !1956

bb16:                                             ; preds = %bb10
; call core::panicking::panic
  call void @_ZN4core9panicking5panic17hee5d285669f2f2eaE(ptr align 1 @alloc_b41ce9db6ff9e09c515cee5b4d05db5e, i64 17, ptr align 8 @alloc_14083d05c803f84018d4aa0469014f28) #11, !dbg !1957
  unreachable, !dbg !1957

bb17:                                             ; preds = %bb10
; call spin::once::Once<T>::force_get
  %_31 = call align 16 ptr @"_ZN4spin4once13Once$LT$T$GT$9force_get17h7cfceb630bf8f6efE"(ptr align 16 %self) #9, !dbg !1958
  store ptr %_31, ptr %0, align 8, !dbg !1958
  br label %bb19, !dbg !1959

bb20:                                             ; preds = %bb21, %bb19
  %11 = load ptr, ptr %0, align 8, !dbg !1961, !nonnull !27, !align !1828, !noundef !27
  ret ptr %11, !dbg !1961

bb21:                                             ; preds = %bb19
  br label %bb20, !dbg !1949
}

; spin::once::Once<T>::call_once
; Function Attrs: noredzone nounwind
define internal align 2 ptr @"_ZN4spin4once13Once$LT$T$GT$9call_once17h7a816912d4ab2a55E"(ptr align 8 %self) unnamed_addr #1 !dbg !1962 {
start:
  %self.dbg.spill.i = alloca ptr, align 8
  %builder.dbg.spill = alloca {}, align 1
  %self.dbg.spill = alloca ptr, align 8
  %_33 = alloca i8, align 1
  %_29 = alloca i8, align 1
  %_23 = alloca i8, align 1
  %_16 = alloca %"spin::mutex::Mutex<keyboard::Keyboard<pc_keyboard::layouts::us104::Us104Key, pc_keyboard::scancodes::set1::ScancodeSet1>>", align 2
  %_15 = alloca %"core::option::Option<spin::mutex::Mutex<keyboard::Keyboard<pc_keyboard::layouts::us104::Us104Key, pc_keyboard::scancodes::set1::ScancodeSet1>>>", align 2
  %finish = alloca { ptr, i8 }, align 8
  %_10 = alloca i8, align 1
  %_5 = alloca i8, align 1
  %status = alloca i64, align 8
  %0 = alloca ptr, align 8
  store ptr %self, ptr %self.dbg.spill, align 8
  call void @llvm.dbg.declare(metadata ptr %self.dbg.spill, metadata !1967, metadata !DIExpression()), !dbg !1975
  call void @llvm.dbg.declare(metadata ptr %builder.dbg.spill, metadata !1968, metadata !DIExpression()), !dbg !1976
  call void @llvm.dbg.declare(metadata ptr %status, metadata !1969, metadata !DIExpression()), !dbg !1977
  call void @llvm.dbg.declare(metadata ptr %finish, metadata !1971, metadata !DIExpression()), !dbg !1978
  store i8 0, ptr %_33, align 1, !dbg !1979
  store i8 1, ptr %_33, align 1, !dbg !1979
  store i8 4, ptr %_5, align 1, !dbg !1980
  %1 = load i8, ptr %_5, align 1, !dbg !1981, !range !1633, !noundef !27
; call core::sync::atomic::AtomicUsize::load
  %2 = call i64 @_ZN4core4sync6atomic11AtomicUsize4load17h9ffb90c82ee30a46E(ptr align 8 %self, i8 %1) #9, !dbg !1981
  store i64 %2, ptr %status, align 8, !dbg !1981
  %_7 = load i64, ptr %status, align 8, !dbg !1982, !noundef !27
  %_6 = icmp eq i64 %_7, 0, !dbg !1982
  br i1 %_6, label %bb2, label %bb10, !dbg !1982

bb10:                                             ; preds = %bb13, %bb2, %start
  %3 = load i64, ptr %status, align 8, !dbg !1983, !noundef !27
  switch i64 %3, label %bb11 [
    i64 0, label %bb12
    i64 1, label %bb13
    i64 3, label %bb16
    i64 2, label %bb17
  ], !dbg !1983

bb2:                                              ; preds = %start
  store i8 4, ptr %_10, align 1, !dbg !1984
  %4 = load i8, ptr %_10, align 1, !dbg !1985, !range !1633, !noundef !27
; call core::sync::atomic::AtomicUsize::compare_and_swap
  %_8 = call i64 @_ZN4core4sync6atomic11AtomicUsize16compare_and_swap17h17e2c20bef99f227E(ptr align 8 %self, i64 0, i64 1, i8 %4) #9, !dbg !1985
  store i64 %_8, ptr %status, align 8, !dbg !1986
  %_12 = load i64, ptr %status, align 8, !dbg !1987, !noundef !27
  %_11 = icmp eq i64 %_12, 0, !dbg !1987
  br i1 %_11, label %bb4, label %bb10, !dbg !1987

bb4:                                              ; preds = %bb2
  store ptr %self, ptr %finish, align 8, !dbg !1988
  %5 = getelementptr inbounds { ptr, i8 }, ptr %finish, i32 0, i32 1, !dbg !1988
  store i8 1, ptr %5, align 8, !dbg !1988
  store i8 0, ptr %_33, align 1, !dbg !1989
; call core::ops::function::FnOnce::call_once
  call void @_ZN4core3ops8function6FnOnce9call_once17h1b07fc73e9e45d5fE(ptr sret(%"spin::mutex::Mutex<keyboard::Keyboard<pc_keyboard::layouts::us104::Us104Key, pc_keyboard::scancodes::set1::ScancodeSet1>>") %_16) #9, !dbg !1989
  %6 = getelementptr inbounds %"core::option::Option<spin::mutex::Mutex<keyboard::Keyboard<pc_keyboard::layouts::us104::Us104Key, pc_keyboard::scancodes::set1::ScancodeSet1>>>::Some", ptr %_15, i32 0, i32 1, !dbg !1990
  call void @llvm.memcpy.p0.p0.i64(ptr align 2 %6, ptr align 2 %_16, i64 16, i1 false), !dbg !1990
  store i16 1, ptr %_15, align 2, !dbg !1990
  %_19 = getelementptr inbounds %"spin::once::Once<spin::mutex::Mutex<keyboard::Keyboard<pc_keyboard::layouts::us104::Us104Key, pc_keyboard::scancodes::set1::ScancodeSet1>>>", ptr %self, i32 0, i32 1, !dbg !1991
  store ptr %_19, ptr %self.dbg.spill.i, align 8
  call void @llvm.dbg.declare(metadata ptr %self.dbg.spill.i, metadata !1992, metadata !DIExpression()), !dbg !1999
  call void @llvm.memcpy.p0.p0.i64(ptr align 2 %_19, ptr align 2 %_15, i64 18, i1 false), !dbg !2001
  %7 = getelementptr inbounds { ptr, i8 }, ptr %finish, i32 0, i32 1, !dbg !2002
  store i8 0, ptr %7, align 8, !dbg !2002
  store i64 2, ptr %status, align 8, !dbg !2003
  %_22 = load i64, ptr %status, align 8, !dbg !2004, !noundef !27
  store i8 4, ptr %_23, align 1, !dbg !2005
  %8 = load i8, ptr %_23, align 1, !dbg !2006, !range !1633, !noundef !27
; call core::sync::atomic::AtomicUsize::store
  call void @_ZN4core4sync6atomic11AtomicUsize5store17h4b99cbe2f55d9cc0E(ptr align 8 %self, i64 %_22, i8 %8) #9, !dbg !2006
; call spin::once::Once<T>::force_get
  %_24 = call align 2 ptr @"_ZN4spin4once13Once$LT$T$GT$9force_get17h5234e05722f13a50E"(ptr align 8 %self) #9, !dbg !2007
  store ptr %_24, ptr %0, align 8, !dbg !2007
; call core::ptr::drop_in_place<spin::once::Finish>
  call void @"_ZN4core3ptr39drop_in_place$LT$spin..once..Finish$GT$17h5756acb5b3b0319fE"(ptr %finish) #9, !dbg !2008
  br label %bb19, !dbg !2008

bb19:                                             ; preds = %bb17, %bb4
  %9 = load i8, ptr %_33, align 1, !dbg !2009, !range !1115, !noundef !27
  %10 = trunc i8 %9 to i1, !dbg !2009
  br i1 %10, label %bb21, label %bb20, !dbg !2009

bb11:                                             ; preds = %bb10
; call core::hint::unreachable_unchecked
  call void @_ZN4core4hint21unreachable_unchecked17h12665534d45b0a40E() #11, !dbg !2010
  unreachable, !dbg !2010

bb12:                                             ; preds = %bb10
; call core::panicking::panic
  call void @_ZN4core9panicking5panic17hee5d285669f2f2eaE(ptr align 1 @alloc_a500d906b91607583596fa15e63c2ada, i64 40, ptr align 8 @alloc_f6d48a4961f7d5070867936e66a7484e) #11, !dbg !2011
  unreachable, !dbg !2011

bb13:                                             ; preds = %bb10
; call core::sync::atomic::spin_loop_hint
  call void @_ZN4core4sync6atomic14spin_loop_hint17h8000e312a9eff648E() #9, !dbg !2012
  store i8 4, ptr %_29, align 1, !dbg !2013
  %11 = load i8, ptr %_29, align 1, !dbg !2014, !range !1633, !noundef !27
; call core::sync::atomic::AtomicUsize::load
  %_27 = call i64 @_ZN4core4sync6atomic11AtomicUsize4load17h9ffb90c82ee30a46E(ptr align 8 %self, i8 %11) #9, !dbg !2014
  store i64 %_27, ptr %status, align 8, !dbg !2015
  br label %bb10, !dbg !2016

bb16:                                             ; preds = %bb10
; call core::panicking::panic
  call void @_ZN4core9panicking5panic17hee5d285669f2f2eaE(ptr align 1 @alloc_b41ce9db6ff9e09c515cee5b4d05db5e, i64 17, ptr align 8 @alloc_14083d05c803f84018d4aa0469014f28) #11, !dbg !2017
  unreachable, !dbg !2017

bb17:                                             ; preds = %bb10
; call spin::once::Once<T>::force_get
  %_31 = call align 2 ptr @"_ZN4spin4once13Once$LT$T$GT$9force_get17h5234e05722f13a50E"(ptr align 8 %self) #9, !dbg !2018
  store ptr %_31, ptr %0, align 8, !dbg !2018
  br label %bb19, !dbg !2019

bb20:                                             ; preds = %bb21, %bb19
  %12 = load ptr, ptr %0, align 8, !dbg !2021, !nonnull !27, !align !1764, !noundef !27
  ret ptr %12, !dbg !2021

bb21:                                             ; preds = %bb19
  br label %bb20, !dbg !2009
}

; spin::once::Once<T>::force_get
; Function Attrs: noredzone nounwind
define internal align 2 ptr @"_ZN4spin4once13Once$LT$T$GT$9force_get17h5234e05722f13a50E"(ptr align 8 %self) unnamed_addr #1 !dbg !2022 {
start:
  %self.dbg.spill.i = alloca ptr, align 8
  %0 = alloca ptr, align 8
  %self.dbg.spill = alloca ptr, align 8
  %_2 = alloca ptr, align 8
  store ptr %self, ptr %self.dbg.spill, align 8
  call void @llvm.dbg.declare(metadata ptr %self.dbg.spill, metadata !2026, metadata !DIExpression()), !dbg !2029
  %_5 = getelementptr inbounds %"spin::once::Once<spin::mutex::Mutex<keyboard::Keyboard<pc_keyboard::layouts::us104::Us104Key, pc_keyboard::scancodes::set1::ScancodeSet1>>>", ptr %self, i32 0, i32 1, !dbg !2030
  store ptr %_5, ptr %self.dbg.spill.i, align 8
  call void @llvm.dbg.declare(metadata ptr %self.dbg.spill.i, metadata !1992, metadata !DIExpression()), !dbg !2031
; call core::option::Option<T>::as_ref
  %1 = call align 2 ptr @"_ZN4core6option15Option$LT$T$GT$6as_ref17h4c33e87cb29fdec8E"(ptr align 2 %_5) #9, !dbg !2033
  store ptr %1, ptr %_2, align 8, !dbg !2033
  %2 = load ptr, ptr %_2, align 8, !dbg !2033, !noundef !27
  %3 = ptrtoint ptr %2 to i64, !dbg !2033
  %4 = icmp eq i64 %3, 0, !dbg !2033
  %_6 = select i1 %4, i64 0, i64 1, !dbg !2033
  %5 = icmp eq i64 %_6, 0, !dbg !2034
  br i1 %5, label %bb5, label %bb3, !dbg !2034

bb5:                                              ; preds = %start
; call core::hint::unreachable_unchecked
  call void @_ZN4core4hint21unreachable_unchecked17h12665534d45b0a40E() #11, !dbg !2035
  unreachable, !dbg !2035

bb3:                                              ; preds = %start
  %6 = load ptr, ptr %_2, align 8, !dbg !2036, !nonnull !27, !align !1764, !noundef !27
  store ptr %6, ptr %0, align 8, !dbg !2036
  call void @llvm.dbg.declare(metadata ptr %0, metadata !2027, metadata !DIExpression()), !dbg !2037
  ret ptr %6, !dbg !2038

bb4:                                              ; No predecessors!
  unreachable, !dbg !2033
}

; spin::once::Once<T>::force_get
; Function Attrs: noredzone nounwind
define internal align 16 ptr @"_ZN4spin4once13Once$LT$T$GT$9force_get17h7cfceb630bf8f6efE"(ptr align 16 %self) unnamed_addr #1 !dbg !2039 {
start:
  %self.dbg.spill.i = alloca ptr, align 8
  %0 = alloca ptr, align 8
  %self.dbg.spill = alloca ptr, align 8
  %_2 = alloca ptr, align 8
  store ptr %self, ptr %self.dbg.spill, align 8
  call void @llvm.dbg.declare(metadata ptr %self.dbg.spill, metadata !2043, metadata !DIExpression()), !dbg !2046
  store ptr %self, ptr %self.dbg.spill.i, align 8
  call void @llvm.dbg.declare(metadata ptr %self.dbg.spill.i, metadata !1932, metadata !DIExpression()), !dbg !2047
; call core::option::Option<T>::as_ref
  %1 = call align 16 ptr @"_ZN4core6option15Option$LT$T$GT$6as_ref17h8acf2cda20be5594E"(ptr align 16 %self) #9, !dbg !2049
  store ptr %1, ptr %_2, align 8, !dbg !2049
  %2 = load ptr, ptr %_2, align 8, !dbg !2049, !noundef !27
  %3 = ptrtoint ptr %2 to i64, !dbg !2049
  %4 = icmp eq i64 %3, 0, !dbg !2049
  %_6 = select i1 %4, i64 0, i64 1, !dbg !2049
  %5 = icmp eq i64 %_6, 0, !dbg !2050
  br i1 %5, label %bb5, label %bb3, !dbg !2050

bb5:                                              ; preds = %start
; call core::hint::unreachable_unchecked
  call void @_ZN4core4hint21unreachable_unchecked17h12665534d45b0a40E() #11, !dbg !2051
  unreachable, !dbg !2051

bb3:                                              ; preds = %start
  %6 = load ptr, ptr %_2, align 8, !dbg !2052, !nonnull !27, !align !1828, !noundef !27
  store ptr %6, ptr %0, align 8, !dbg !2052
  call void @llvm.dbg.declare(metadata ptr %0, metadata !2044, metadata !DIExpression()), !dbg !2053
  ret ptr %6, !dbg !2054

bb4:                                              ; No predecessors!
  unreachable, !dbg !2049
}

; spin::once::Once<T>::force_get
; Function Attrs: noredzone nounwind
define internal align 8 ptr @"_ZN4spin4once13Once$LT$T$GT$9force_get17hdb4ab63d3e487fd3E"(ptr align 8 %self) unnamed_addr #1 !dbg !2055 {
start:
  %self.dbg.spill.i = alloca ptr, align 8
  %0 = alloca ptr, align 8
  %self.dbg.spill = alloca ptr, align 8
  %_2 = alloca ptr, align 8
  store ptr %self, ptr %self.dbg.spill, align 8
  call void @llvm.dbg.declare(metadata ptr %self.dbg.spill, metadata !2059, metadata !DIExpression()), !dbg !2062
  %_5 = getelementptr inbounds %"spin::once::Once<spin::mutex::Mutex<vga::Screen>>", ptr %self, i32 0, i32 1, !dbg !2063
  store ptr %_5, ptr %self.dbg.spill.i, align 8
  call void @llvm.dbg.declare(metadata ptr %self.dbg.spill.i, metadata !1871, metadata !DIExpression()), !dbg !2064
; call core::option::Option<T>::as_ref
  %1 = call align 8 ptr @"_ZN4core6option15Option$LT$T$GT$6as_ref17h589f27d831e8213eE"(ptr align 8 %_5) #9, !dbg !2066
  store ptr %1, ptr %_2, align 8, !dbg !2066
  %2 = load ptr, ptr %_2, align 8, !dbg !2066, !noundef !27
  %3 = ptrtoint ptr %2 to i64, !dbg !2066
  %4 = icmp eq i64 %3, 0, !dbg !2066
  %_6 = select i1 %4, i64 0, i64 1, !dbg !2066
  %5 = icmp eq i64 %_6, 0, !dbg !2067
  br i1 %5, label %bb5, label %bb3, !dbg !2067

bb5:                                              ; preds = %start
; call core::hint::unreachable_unchecked
  call void @_ZN4core4hint21unreachable_unchecked17h12665534d45b0a40E() #11, !dbg !2068
  unreachable, !dbg !2068

bb3:                                              ; preds = %start
  %6 = load ptr, ptr %_2, align 8, !dbg !2069, !nonnull !27, !align !1034, !noundef !27
  store ptr %6, ptr %0, align 8, !dbg !2069
  call void @llvm.dbg.declare(metadata ptr %0, metadata !2060, metadata !DIExpression()), !dbg !2070
  ret ptr %6, !dbg !2071

bb4:                                              ; No predecessors!
  unreachable, !dbg !2066
}

; <&mut W as core::fmt::Write>::write_char
; Function Attrs: noredzone nounwind
define internal zeroext i1 @"_ZN50_$LT$$RF$mut$u20$W$u20$as$u20$core..fmt..Write$GT$10write_char17h9b6f68b4999fe0cfE"(ptr align 8 %self, i32 %c) unnamed_addr #1 !dbg !2072 {
start:
  %c.dbg.spill = alloca i32, align 4
  %self.dbg.spill = alloca ptr, align 8
  store ptr %self, ptr %self.dbg.spill, align 8
  call void @llvm.dbg.declare(metadata ptr %self.dbg.spill, metadata !2078, metadata !DIExpression()), !dbg !2082
  store i32 %c, ptr %c.dbg.spill, align 4
  call void @llvm.dbg.declare(metadata ptr %c.dbg.spill, metadata !2079, metadata !DIExpression()), !dbg !2083
  %_3 = load ptr, ptr %self, align 8, !dbg !2084, !nonnull !27, !align !1034, !noundef !27
; call core::fmt::Write::write_char
  %0 = call zeroext i1 @_ZN4core3fmt5Write10write_char17h85777d83c99fa46dE(ptr align 8 %_3, i32 %c) #9, !dbg !2084
  ret i1 %0, !dbg !2085
}

; <&mut W as core::fmt::Write>::write_fmt
; Function Attrs: noredzone nounwind
define internal zeroext i1 @"_ZN50_$LT$$RF$mut$u20$W$u20$as$u20$core..fmt..Write$GT$9write_fmt17ha06b28e6bcbc80e6E"(ptr align 8 %self, ptr %args) unnamed_addr #1 !dbg !2086 {
start:
  %0 = alloca %"core::fmt::Arguments<'_>", align 8
  %self.dbg.spill = alloca ptr, align 8
  store ptr %self, ptr %self.dbg.spill, align 8
  call void @llvm.dbg.declare(metadata ptr %self.dbg.spill, metadata !2090, metadata !DIExpression()), !dbg !2092
  call void @llvm.dbg.declare(metadata ptr %args, metadata !2091, metadata !DIExpression()), !dbg !2093
  %_3 = load ptr, ptr %self, align 8, !dbg !2094, !nonnull !27, !align !1034, !noundef !27
  call void @llvm.memcpy.p0.p0.i64(ptr align 8 %0, ptr align 8 %args, i64 48, i1 false), !dbg !2094
; call core::fmt::Write::write_fmt
  %1 = call zeroext i1 @_ZN4core3fmt5Write9write_fmt17h56654be2d115b4abE(ptr align 8 %_3, ptr %0) #9, !dbg !2094
  ret i1 %1, !dbg !2095
}

; <&mut W as core::fmt::Write>::write_str
; Function Attrs: noredzone nounwind
define internal zeroext i1 @"_ZN50_$LT$$RF$mut$u20$W$u20$as$u20$core..fmt..Write$GT$9write_str17h1f30a86dc6cc5c17E"(ptr align 8 %self, ptr align 1 %s.0, i64 %s.1) unnamed_addr #1 !dbg !2096 {
start:
  %s.dbg.spill = alloca { ptr, i64 }, align 8
  %self.dbg.spill = alloca ptr, align 8
  store ptr %self, ptr %self.dbg.spill, align 8
  call void @llvm.dbg.declare(metadata ptr %self.dbg.spill, metadata !2100, metadata !DIExpression()), !dbg !2102
  %0 = getelementptr inbounds { ptr, i64 }, ptr %s.dbg.spill, i32 0, i32 0
  store ptr %s.0, ptr %0, align 8
  %1 = getelementptr inbounds { ptr, i64 }, ptr %s.dbg.spill, i32 0, i32 1
  store i64 %s.1, ptr %1, align 8
  call void @llvm.dbg.declare(metadata ptr %s.dbg.spill, metadata !2101, metadata !DIExpression()), !dbg !2103
  %_3 = load ptr, ptr %self, align 8, !dbg !2104, !nonnull !27, !align !1034, !noundef !27
; call <vga::Screen as core::fmt::Write>::write_str
  %2 = call zeroext i1 @"_ZN48_$LT$vga..Screen$u20$as$u20$core..fmt..Write$GT$9write_str17h4afa8fca70201c0bE"(ptr align 8 %_3, ptr align 1 %s.0, i64 %s.1) #9, !dbg !2104
  ret i1 %2, !dbg !2105
}

; x86_64::structures::idt::Entry<extern "x86.interrupt" fn(x86_64::structures::idt::InterruptStackFrame)>::set_handler_fn
; Function Attrs: inlinehint noredzone nounwind
define internal align 2 ptr @"_ZN6x86_6410structures3idt106Entry$LT$extern$u20$$u22$x86.interrupt$u22$$u20$fn$LP$x86_64..structures..idt..InterruptStackFrame$RP$$GT$14set_handler_fn17hfef345a5d2bc7624E"(ptr align 4 %self, ptr %handler) unnamed_addr #0 !dbg !2106 {
start:
  %handler.dbg.spill2 = alloca i64, align 8
  %handler.dbg.spill = alloca ptr, align 8
  %self.dbg.spill = alloca ptr, align 8
  store ptr %self, ptr %self.dbg.spill, align 8
  call void @llvm.dbg.declare(metadata ptr %self.dbg.spill, metadata !2111, metadata !DIExpression()), !dbg !2115
  store ptr %handler, ptr %handler.dbg.spill, align 8
  call void @llvm.dbg.declare(metadata ptr %handler.dbg.spill, metadata !2112, metadata !DIExpression()), !dbg !2116
  %_4 = ptrtoint ptr %handler to i64, !dbg !2117
; call x86_64::addr::VirtAddr::new
  %handler1 = call i64 @_ZN6x86_644addr8VirtAddr3new17h88e150c841127e49E(i64 %_4) #9, !dbg !2118
  store i64 %handler1, ptr %handler.dbg.spill2, align 8, !dbg !2118
  call void @llvm.dbg.declare(metadata ptr %handler.dbg.spill2, metadata !2113, metadata !DIExpression()), !dbg !2119
; call x86_64::structures::idt::Entry<F>::set_handler_addr
  %_5 = call align 2 ptr @"_ZN6x86_6410structures3idt14Entry$LT$F$GT$16set_handler_addr17h10a87a930b5c9f1aE"(ptr align 4 %self, i64 %handler1) #9, !dbg !2120
  ret ptr %_5, !dbg !2121
}

; x86_64::structures::idt::EntryOptions::set_present
; Function Attrs: inlinehint noredzone nounwind
define internal align 2 ptr @_ZN6x86_6410structures3idt12EntryOptions11set_present17hbe0af12b64b4b6b3E(ptr align 2 %self, i1 zeroext %present) unnamed_addr #0 !dbg !2122 {
start:
  %present.dbg.spill = alloca i8, align 1
  %self.dbg.spill = alloca ptr, align 8
  store ptr %self, ptr %self.dbg.spill, align 8
  call void @llvm.dbg.declare(metadata ptr %self.dbg.spill, metadata !2126, metadata !DIExpression()), !dbg !2128
  %0 = zext i1 %present to i8
  store i8 %0, ptr %present.dbg.spill, align 1
  call void @llvm.dbg.declare(metadata ptr %present.dbg.spill, metadata !2127, metadata !DIExpression()), !dbg !2129
; call <u16 as bit_field::BitField>::set_bit
  %_3 = call align 2 ptr @"_ZN43_$LT$u16$u20$as$u20$bit_field..BitField$GT$7set_bit17h363f3cdc84a7aab4E"(ptr align 2 %self, i64 15, i1 zeroext %present) #9, !dbg !2130
  ret ptr %self, !dbg !2131
}

; x86_64::structures::idt::EntryOptions::set_stack_index
; Function Attrs: inlinehint noredzone nounwind
define internal align 2 ptr @_ZN6x86_6410structures3idt12EntryOptions15set_stack_index17hf4d9fa4e6a391920E(ptr align 2 %self, i16 %index) unnamed_addr #0 !dbg !2132 {
start:
  %index.dbg.spill = alloca i16, align 2
  %self.dbg.spill = alloca ptr, align 8
  %_5 = alloca { i64, i64 }, align 8
  store ptr %self, ptr %self.dbg.spill, align 8
  call void @llvm.dbg.declare(metadata ptr %self.dbg.spill, metadata !2136, metadata !DIExpression()), !dbg !2138
  store i16 %index, ptr %index.dbg.spill, align 2
  call void @llvm.dbg.declare(metadata ptr %index.dbg.spill, metadata !2137, metadata !DIExpression()), !dbg !2139
  store i64 0, ptr %_5, align 8, !dbg !2140
  %0 = getelementptr inbounds { i64, i64 }, ptr %_5, i32 0, i32 1, !dbg !2140
  store i64 3, ptr %0, align 8, !dbg !2140
  %1 = call { i16, i1 } @llvm.uadd.with.overflow.i16(i16 %index, i16 1), !dbg !2141
  %_7.0 = extractvalue { i16, i1 } %1, 0, !dbg !2141
  %_7.1 = extractvalue { i16, i1 } %1, 1, !dbg !2141
  %2 = call i1 @llvm.expect.i1(i1 %_7.1, i1 false), !dbg !2141
  br i1 %2, label %panic, label %bb1, !dbg !2141

bb1:                                              ; preds = %start
  %3 = getelementptr inbounds { i64, i64 }, ptr %_5, i32 0, i32 0, !dbg !2142
  %4 = load i64, ptr %3, align 8, !dbg !2142, !noundef !27
  %5 = getelementptr inbounds { i64, i64 }, ptr %_5, i32 0, i32 1, !dbg !2142
  %6 = load i64, ptr %5, align 8, !dbg !2142, !noundef !27
; call <u16 as bit_field::BitField>::set_bits
  %_3 = call align 2 ptr @"_ZN43_$LT$u16$u20$as$u20$bit_field..BitField$GT$8set_bits17h1e815ced6cbbe13bE"(ptr align 2 %self, i64 %4, i64 %6, i16 %_7.0) #9, !dbg !2142
  ret ptr %self, !dbg !2143

panic:                                            ; preds = %start
; call core::panicking::panic
  call void @_ZN4core9panicking5panic17hee5d285669f2f2eaE(ptr align 1 @str.3, i64 28, ptr align 8 @alloc_684261e5bc5404f7dd08c17341b2175a) #11, !dbg !2141
  unreachable, !dbg !2141
}

; x86_64::structures::idt::Entry<extern "x86.interrupt" fn(x86_64::structures::idt::InterruptStackFrame,u64) .> !>::set_handler_fn
; Function Attrs: inlinehint noredzone nounwind
define internal align 2 ptr @"_ZN6x86_6410structures3idt132Entry$LT$extern$u20$$u22$x86.interrupt$u22$$u20$fn$LP$x86_64..structures..idt..InterruptStackFrame$C$u64$RP$$u20$.$GT$$u20$$u21$$GT$14set_handler_fn17h49d72967d2f19efcE"(ptr align 4 %self, ptr %handler) unnamed_addr #0 !dbg !2144 {
start:
  %handler.dbg.spill2 = alloca i64, align 8
  %handler.dbg.spill = alloca ptr, align 8
  %self.dbg.spill = alloca ptr, align 8
  store ptr %self, ptr %self.dbg.spill, align 8
  call void @llvm.dbg.declare(metadata ptr %self.dbg.spill, metadata !2149, metadata !DIExpression()), !dbg !2153
  store ptr %handler, ptr %handler.dbg.spill, align 8
  call void @llvm.dbg.declare(metadata ptr %handler.dbg.spill, metadata !2150, metadata !DIExpression()), !dbg !2154
  %_4 = ptrtoint ptr %handler to i64, !dbg !2155
; call x86_64::addr::VirtAddr::new
  %handler1 = call i64 @_ZN6x86_644addr8VirtAddr3new17h88e150c841127e49E(i64 %_4) #9, !dbg !2156
  store i64 %handler1, ptr %handler.dbg.spill2, align 8, !dbg !2156
  call void @llvm.dbg.declare(metadata ptr %handler.dbg.spill2, metadata !2151, metadata !DIExpression()), !dbg !2157
; call x86_64::structures::idt::Entry<F>::set_handler_addr
  %_5 = call align 2 ptr @"_ZN6x86_6410structures3idt14Entry$LT$F$GT$16set_handler_addr17hae6f0d8590c1cc77E"(ptr align 4 %self, i64 %handler1) #9, !dbg !2158
  ret ptr %_5, !dbg !2159
}

; x86_64::structures::idt::Entry<F>::set_handler_addr
; Function Attrs: inlinehint noredzone nounwind
define internal align 2 ptr @"_ZN6x86_6410structures3idt14Entry$LT$F$GT$16set_handler_addr17h10a87a930b5c9f1aE"(ptr align 4 %self, i64 %addr) unnamed_addr #0 !dbg !2160 {
start:
  %addr.dbg.spill2 = alloca i64, align 8
  %addr.dbg.spill = alloca i64, align 8
  %self.dbg.spill = alloca ptr, align 8
  store ptr %self, ptr %self.dbg.spill, align 8
  call void @llvm.dbg.declare(metadata ptr %self.dbg.spill, metadata !2164, metadata !DIExpression()), !dbg !2168
  store i64 %addr, ptr %addr.dbg.spill, align 8
  call void @llvm.dbg.declare(metadata ptr %addr.dbg.spill, metadata !2165, metadata !DIExpression()), !dbg !2169
; call x86_64::addr::VirtAddr::as_u64
  %addr1 = call i64 @_ZN6x86_644addr8VirtAddr6as_u6417h8d21e81ade7b028aE(i64 %addr) #9, !dbg !2170
  store i64 %addr1, ptr %addr.dbg.spill2, align 8, !dbg !2170
  call void @llvm.dbg.declare(metadata ptr %addr.dbg.spill2, metadata !2166, metadata !DIExpression()), !dbg !2171
  %0 = trunc i64 %addr1 to i16, !dbg !2172
  store i16 %0, ptr %self, align 4, !dbg !2172
  %_5 = lshr i64 %addr1, 16, !dbg !2173
  %1 = getelementptr inbounds %"x86_64::structures::idt::Entry<extern \22x86-interrupt\22 fn(x86_64::structures::idt::InterruptStackFrame)>", ptr %self, i32 0, i32 3, !dbg !2174
  %2 = trunc i64 %_5 to i16, !dbg !2174
  store i16 %2, ptr %1, align 2, !dbg !2174
  %_9 = lshr i64 %addr1, 32, !dbg !2175
  %3 = getelementptr inbounds %"x86_64::structures::idt::Entry<extern \22x86-interrupt\22 fn(x86_64::structures::idt::InterruptStackFrame)>", ptr %self, i32 0, i32 4, !dbg !2176
  %4 = trunc i64 %_9 to i32, !dbg !2176
  store i32 %4, ptr %3, align 4, !dbg !2176
; call x86_64::instructions::segmentation::<impl x86_64::registers::segmentation::Segment for x86_64::registers::segmentation::CS>::get_reg
  %_14 = call i16 @"_ZN6x86_6412instructions12segmentation106_$LT$impl$u20$x86_64..registers..segmentation..Segment$u20$for$u20$x86_64..registers..segmentation..CS$GT$7get_reg17hf62256df1218cde2E"() #9, !dbg !2177
  %5 = getelementptr inbounds %"x86_64::structures::idt::Entry<extern \22x86-interrupt\22 fn(x86_64::structures::idt::InterruptStackFrame)>", ptr %self, i32 0, i32 1, !dbg !2178
  store i16 %_14, ptr %5, align 2, !dbg !2178
  %_16 = getelementptr inbounds %"x86_64::structures::idt::Entry<extern \22x86-interrupt\22 fn(x86_64::structures::idt::InterruptStackFrame)>", ptr %self, i32 0, i32 2, !dbg !2179
; call x86_64::structures::idt::EntryOptions::set_present
  %_15 = call align 2 ptr @_ZN6x86_6410structures3idt12EntryOptions11set_present17hbe0af12b64b4b6b3E(ptr align 2 %_16, i1 zeroext true) #9, !dbg !2179
  %6 = getelementptr inbounds %"x86_64::structures::idt::Entry<extern \22x86-interrupt\22 fn(x86_64::structures::idt::InterruptStackFrame)>", ptr %self, i32 0, i32 2, !dbg !2180
  ret ptr %6, !dbg !2181
}

; x86_64::structures::idt::InterruptDescriptorTable::new
; Function Attrs: inlinehint noredzone nounwind
define internal void @_ZN6x86_6410structures3idt24InterruptDescriptorTable3new17h04ed3b9b67367ecfE(ptr sret(%"x86_64::structures::idt::InterruptDescriptorTable") %0) unnamed_addr #0 !dbg !2182 {
start:
  %_28 = alloca %"x86_64::structures::idt::Entry<extern \22x86-interrupt\22 fn(x86_64::structures::idt::InterruptStackFrame)>", align 4
  %_27 = alloca [224 x %"x86_64::structures::idt::Entry<extern \22x86-interrupt\22 fn(x86_64::structures::idt::InterruptStackFrame)>"], align 4
  %_26 = alloca %"x86_64::structures::idt::Entry<extern \22x86-interrupt\22 fn(x86_64::structures::idt::InterruptStackFrame)>", align 4
  %_25 = alloca %"x86_64::structures::idt::Entry<extern \22x86-interrupt\22 fn(x86_64::structures::idt::InterruptStackFrame, u64)>", align 4
  %_24 = alloca %"x86_64::structures::idt::Entry<extern \22x86-interrupt\22 fn(x86_64::structures::idt::InterruptStackFrame, u64)>", align 4
  %_23 = alloca %"x86_64::structures::idt::Entry<extern \22x86-interrupt\22 fn(x86_64::structures::idt::InterruptStackFrame)>", align 4
  %_22 = alloca [8 x %"x86_64::structures::idt::Entry<extern \22x86-interrupt\22 fn(x86_64::structures::idt::InterruptStackFrame)>"], align 4
  %_21 = alloca %"x86_64::structures::idt::Entry<extern \22x86-interrupt\22 fn(x86_64::structures::idt::InterruptStackFrame)>", align 4
  %_20 = alloca %"x86_64::structures::idt::Entry<extern \22x86-interrupt\22 fn(x86_64::structures::idt::InterruptStackFrame)>", align 4
  %_19 = alloca %"x86_64::structures::idt::Entry<extern \22x86-interrupt\22 fn(x86_64::structures::idt::InterruptStackFrame) -> !>", align 4
  %_18 = alloca %"x86_64::structures::idt::Entry<extern \22x86-interrupt\22 fn(x86_64::structures::idt::InterruptStackFrame, u64)>", align 4
  %_17 = alloca %"x86_64::structures::idt::Entry<extern \22x86-interrupt\22 fn(x86_64::structures::idt::InterruptStackFrame)>", align 4
  %_16 = alloca %"x86_64::structures::idt::Entry<extern \22x86-interrupt\22 fn(x86_64::structures::idt::InterruptStackFrame)>", align 4
  %_15 = alloca %"x86_64::structures::idt::Entry<extern \22x86-interrupt\22 fn(x86_64::structures::idt::InterruptStackFrame, x86_64::structures::idt::PageFaultErrorCode)>", align 4
  %_14 = alloca %"x86_64::structures::idt::Entry<extern \22x86-interrupt\22 fn(x86_64::structures::idt::InterruptStackFrame, u64)>", align 4
  %_13 = alloca %"x86_64::structures::idt::Entry<extern \22x86-interrupt\22 fn(x86_64::structures::idt::InterruptStackFrame, u64)>", align 4
  %_12 = alloca %"x86_64::structures::idt::Entry<extern \22x86-interrupt\22 fn(x86_64::structures::idt::InterruptStackFrame, u64)>", align 4
  %_11 = alloca %"x86_64::structures::idt::Entry<extern \22x86-interrupt\22 fn(x86_64::structures::idt::InterruptStackFrame, u64)>", align 4
  %_10 = alloca %"x86_64::structures::idt::Entry<extern \22x86-interrupt\22 fn(x86_64::structures::idt::InterruptStackFrame)>", align 4
  %_9 = alloca %"x86_64::structures::idt::Entry<extern \22x86-interrupt\22 fn(x86_64::structures::idt::InterruptStackFrame, u64) -> !>", align 4
  %_8 = alloca %"x86_64::structures::idt::Entry<extern \22x86-interrupt\22 fn(x86_64::structures::idt::InterruptStackFrame)>", align 4
  %_7 = alloca %"x86_64::structures::idt::Entry<extern \22x86-interrupt\22 fn(x86_64::structures::idt::InterruptStackFrame)>", align 4
  %_6 = alloca %"x86_64::structures::idt::Entry<extern \22x86-interrupt\22 fn(x86_64::structures::idt::InterruptStackFrame)>", align 4
  %_5 = alloca %"x86_64::structures::idt::Entry<extern \22x86-interrupt\22 fn(x86_64::structures::idt::InterruptStackFrame)>", align 4
  %_4 = alloca %"x86_64::structures::idt::Entry<extern \22x86-interrupt\22 fn(x86_64::structures::idt::InterruptStackFrame)>", align 4
  %_3 = alloca %"x86_64::structures::idt::Entry<extern \22x86-interrupt\22 fn(x86_64::structures::idt::InterruptStackFrame)>", align 4
  %_2 = alloca %"x86_64::structures::idt::Entry<extern \22x86-interrupt\22 fn(x86_64::structures::idt::InterruptStackFrame)>", align 4
  %_1 = alloca %"x86_64::structures::idt::Entry<extern \22x86-interrupt\22 fn(x86_64::structures::idt::InterruptStackFrame)>", align 4
; call x86_64::structures::idt::Entry<F>::missing
  call void @"_ZN6x86_6410structures3idt14Entry$LT$F$GT$7missing17h27cd2da19d33ca20E"(ptr sret(%"x86_64::structures::idt::Entry<extern \22x86-interrupt\22 fn(x86_64::structures::idt::InterruptStackFrame)>") %_1) #9, !dbg !2185
; call x86_64::structures::idt::Entry<F>::missing
  call void @"_ZN6x86_6410structures3idt14Entry$LT$F$GT$7missing17h27cd2da19d33ca20E"(ptr sret(%"x86_64::structures::idt::Entry<extern \22x86-interrupt\22 fn(x86_64::structures::idt::InterruptStackFrame)>") %_2) #9, !dbg !2186
; call x86_64::structures::idt::Entry<F>::missing
  call void @"_ZN6x86_6410structures3idt14Entry$LT$F$GT$7missing17h27cd2da19d33ca20E"(ptr sret(%"x86_64::structures::idt::Entry<extern \22x86-interrupt\22 fn(x86_64::structures::idt::InterruptStackFrame)>") %_3) #9, !dbg !2187
; call x86_64::structures::idt::Entry<F>::missing
  call void @"_ZN6x86_6410structures3idt14Entry$LT$F$GT$7missing17h27cd2da19d33ca20E"(ptr sret(%"x86_64::structures::idt::Entry<extern \22x86-interrupt\22 fn(x86_64::structures::idt::InterruptStackFrame)>") %_4) #9, !dbg !2188
; call x86_64::structures::idt::Entry<F>::missing
  call void @"_ZN6x86_6410structures3idt14Entry$LT$F$GT$7missing17h27cd2da19d33ca20E"(ptr sret(%"x86_64::structures::idt::Entry<extern \22x86-interrupt\22 fn(x86_64::structures::idt::InterruptStackFrame)>") %_5) #9, !dbg !2189
; call x86_64::structures::idt::Entry<F>::missing
  call void @"_ZN6x86_6410structures3idt14Entry$LT$F$GT$7missing17h27cd2da19d33ca20E"(ptr sret(%"x86_64::structures::idt::Entry<extern \22x86-interrupt\22 fn(x86_64::structures::idt::InterruptStackFrame)>") %_6) #9, !dbg !2190
; call x86_64::structures::idt::Entry<F>::missing
  call void @"_ZN6x86_6410structures3idt14Entry$LT$F$GT$7missing17h27cd2da19d33ca20E"(ptr sret(%"x86_64::structures::idt::Entry<extern \22x86-interrupt\22 fn(x86_64::structures::idt::InterruptStackFrame)>") %_7) #9, !dbg !2191
; call x86_64::structures::idt::Entry<F>::missing
  call void @"_ZN6x86_6410structures3idt14Entry$LT$F$GT$7missing17h27cd2da19d33ca20E"(ptr sret(%"x86_64::structures::idt::Entry<extern \22x86-interrupt\22 fn(x86_64::structures::idt::InterruptStackFrame)>") %_8) #9, !dbg !2192
; call x86_64::structures::idt::Entry<F>::missing
  call void @"_ZN6x86_6410structures3idt14Entry$LT$F$GT$7missing17h196c9ae0497cb8f1E"(ptr sret(%"x86_64::structures::idt::Entry<extern \22x86-interrupt\22 fn(x86_64::structures::idt::InterruptStackFrame, u64) -> !>") %_9) #9, !dbg !2193
; call x86_64::structures::idt::Entry<F>::missing
  call void @"_ZN6x86_6410structures3idt14Entry$LT$F$GT$7missing17h27cd2da19d33ca20E"(ptr sret(%"x86_64::structures::idt::Entry<extern \22x86-interrupt\22 fn(x86_64::structures::idt::InterruptStackFrame)>") %_10) #9, !dbg !2194
; call x86_64::structures::idt::Entry<F>::missing
  call void @"_ZN6x86_6410structures3idt14Entry$LT$F$GT$7missing17h2979edd326851995E"(ptr sret(%"x86_64::structures::idt::Entry<extern \22x86-interrupt\22 fn(x86_64::structures::idt::InterruptStackFrame, u64)>") %_11) #9, !dbg !2195
; call x86_64::structures::idt::Entry<F>::missing
  call void @"_ZN6x86_6410structures3idt14Entry$LT$F$GT$7missing17h2979edd326851995E"(ptr sret(%"x86_64::structures::idt::Entry<extern \22x86-interrupt\22 fn(x86_64::structures::idt::InterruptStackFrame, u64)>") %_12) #9, !dbg !2196
; call x86_64::structures::idt::Entry<F>::missing
  call void @"_ZN6x86_6410structures3idt14Entry$LT$F$GT$7missing17h2979edd326851995E"(ptr sret(%"x86_64::structures::idt::Entry<extern \22x86-interrupt\22 fn(x86_64::structures::idt::InterruptStackFrame, u64)>") %_13) #9, !dbg !2197
; call x86_64::structures::idt::Entry<F>::missing
  call void @"_ZN6x86_6410structures3idt14Entry$LT$F$GT$7missing17h2979edd326851995E"(ptr sret(%"x86_64::structures::idt::Entry<extern \22x86-interrupt\22 fn(x86_64::structures::idt::InterruptStackFrame, u64)>") %_14) #9, !dbg !2198
; call x86_64::structures::idt::Entry<F>::missing
  call void @"_ZN6x86_6410structures3idt14Entry$LT$F$GT$7missing17h6e1e50fb465577f9E"(ptr sret(%"x86_64::structures::idt::Entry<extern \22x86-interrupt\22 fn(x86_64::structures::idt::InterruptStackFrame, x86_64::structures::idt::PageFaultErrorCode)>") %_15) #9, !dbg !2199
; call x86_64::structures::idt::Entry<F>::missing
  call void @"_ZN6x86_6410structures3idt14Entry$LT$F$GT$7missing17h27cd2da19d33ca20E"(ptr sret(%"x86_64::structures::idt::Entry<extern \22x86-interrupt\22 fn(x86_64::structures::idt::InterruptStackFrame)>") %_16) #9, !dbg !2200
; call x86_64::structures::idt::Entry<F>::missing
  call void @"_ZN6x86_6410structures3idt14Entry$LT$F$GT$7missing17h27cd2da19d33ca20E"(ptr sret(%"x86_64::structures::idt::Entry<extern \22x86-interrupt\22 fn(x86_64::structures::idt::InterruptStackFrame)>") %_17) #9, !dbg !2201
; call x86_64::structures::idt::Entry<F>::missing
  call void @"_ZN6x86_6410structures3idt14Entry$LT$F$GT$7missing17h2979edd326851995E"(ptr sret(%"x86_64::structures::idt::Entry<extern \22x86-interrupt\22 fn(x86_64::structures::idt::InterruptStackFrame, u64)>") %_18) #9, !dbg !2202
; call x86_64::structures::idt::Entry<F>::missing
  call void @"_ZN6x86_6410structures3idt14Entry$LT$F$GT$7missing17haf5422573b534f02E"(ptr sret(%"x86_64::structures::idt::Entry<extern \22x86-interrupt\22 fn(x86_64::structures::idt::InterruptStackFrame) -> !>") %_19) #9, !dbg !2203
; call x86_64::structures::idt::Entry<F>::missing
  call void @"_ZN6x86_6410structures3idt14Entry$LT$F$GT$7missing17h27cd2da19d33ca20E"(ptr sret(%"x86_64::structures::idt::Entry<extern \22x86-interrupt\22 fn(x86_64::structures::idt::InterruptStackFrame)>") %_20) #9, !dbg !2204
; call x86_64::structures::idt::Entry<F>::missing
  call void @"_ZN6x86_6410structures3idt14Entry$LT$F$GT$7missing17h27cd2da19d33ca20E"(ptr sret(%"x86_64::structures::idt::Entry<extern \22x86-interrupt\22 fn(x86_64::structures::idt::InterruptStackFrame)>") %_21) #9, !dbg !2205
; call x86_64::structures::idt::Entry<F>::missing
  call void @"_ZN6x86_6410structures3idt14Entry$LT$F$GT$7missing17h27cd2da19d33ca20E"(ptr sret(%"x86_64::structures::idt::Entry<extern \22x86-interrupt\22 fn(x86_64::structures::idt::InterruptStackFrame)>") %_23) #9, !dbg !2206
  %1 = getelementptr inbounds [8 x %"x86_64::structures::idt::Entry<extern \22x86-interrupt\22 fn(x86_64::structures::idt::InterruptStackFrame)>"], ptr %_22, i64 0, i64 0, !dbg !2207
  %2 = getelementptr inbounds [8 x %"x86_64::structures::idt::Entry<extern \22x86-interrupt\22 fn(x86_64::structures::idt::InterruptStackFrame)>"], ptr %_22, i64 0, i64 8, !dbg !2207
  br label %repeat_loop_header, !dbg !2207

repeat_loop_header:                               ; preds = %repeat_loop_body, %start
  %3 = phi ptr [ %1, %start ], [ %5, %repeat_loop_body ]
  %4 = icmp ne ptr %3, %2
  br i1 %4, label %repeat_loop_body, label %repeat_loop_next

repeat_loop_body:                                 ; preds = %repeat_loop_header
  call void @llvm.memcpy.p0.p0.i64(ptr align 4 %3, ptr align 4 %_23, i64 16, i1 false)
  %5 = getelementptr inbounds %"x86_64::structures::idt::Entry<extern \22x86-interrupt\22 fn(x86_64::structures::idt::InterruptStackFrame)>", ptr %3, i64 1
  br label %repeat_loop_header

repeat_loop_next:                                 ; preds = %repeat_loop_header
; call x86_64::structures::idt::Entry<F>::missing
  call void @"_ZN6x86_6410structures3idt14Entry$LT$F$GT$7missing17h2979edd326851995E"(ptr sret(%"x86_64::structures::idt::Entry<extern \22x86-interrupt\22 fn(x86_64::structures::idt::InterruptStackFrame, u64)>") %_24) #9, !dbg !2208
; call x86_64::structures::idt::Entry<F>::missing
  call void @"_ZN6x86_6410structures3idt14Entry$LT$F$GT$7missing17h2979edd326851995E"(ptr sret(%"x86_64::structures::idt::Entry<extern \22x86-interrupt\22 fn(x86_64::structures::idt::InterruptStackFrame, u64)>") %_25) #9, !dbg !2209
; call x86_64::structures::idt::Entry<F>::missing
  call void @"_ZN6x86_6410structures3idt14Entry$LT$F$GT$7missing17h27cd2da19d33ca20E"(ptr sret(%"x86_64::structures::idt::Entry<extern \22x86-interrupt\22 fn(x86_64::structures::idt::InterruptStackFrame)>") %_26) #9, !dbg !2210
; call x86_64::structures::idt::Entry<F>::missing
  call void @"_ZN6x86_6410structures3idt14Entry$LT$F$GT$7missing17h27cd2da19d33ca20E"(ptr sret(%"x86_64::structures::idt::Entry<extern \22x86-interrupt\22 fn(x86_64::structures::idt::InterruptStackFrame)>") %_28) #9, !dbg !2211
  %6 = getelementptr inbounds [224 x %"x86_64::structures::idt::Entry<extern \22x86-interrupt\22 fn(x86_64::structures::idt::InterruptStackFrame)>"], ptr %_27, i64 0, i64 0, !dbg !2212
  %7 = getelementptr inbounds [224 x %"x86_64::structures::idt::Entry<extern \22x86-interrupt\22 fn(x86_64::structures::idt::InterruptStackFrame)>"], ptr %_27, i64 0, i64 224, !dbg !2212
  br label %repeat_loop_header1, !dbg !2212

repeat_loop_header1:                              ; preds = %repeat_loop_body2, %repeat_loop_next
  %8 = phi ptr [ %6, %repeat_loop_next ], [ %10, %repeat_loop_body2 ]
  %9 = icmp ne ptr %8, %7
  br i1 %9, label %repeat_loop_body2, label %repeat_loop_next3

repeat_loop_body2:                                ; preds = %repeat_loop_header1
  call void @llvm.memcpy.p0.p0.i64(ptr align 4 %8, ptr align 4 %_28, i64 16, i1 false)
  %10 = getelementptr inbounds %"x86_64::structures::idt::Entry<extern \22x86-interrupt\22 fn(x86_64::structures::idt::InterruptStackFrame)>", ptr %8, i64 1
  br label %repeat_loop_header1

repeat_loop_next3:                                ; preds = %repeat_loop_header1
  call void @llvm.memcpy.p0.p0.i64(ptr align 16 %0, ptr align 4 %_1, i64 16, i1 false), !dbg !2213
  %11 = getelementptr inbounds %"x86_64::structures::idt::InterruptDescriptorTable", ptr %0, i32 0, i32 1, !dbg !2213
  call void @llvm.memcpy.p0.p0.i64(ptr align 16 %11, ptr align 4 %_2, i64 16, i1 false), !dbg !2213
  %12 = getelementptr inbounds %"x86_64::structures::idt::InterruptDescriptorTable", ptr %0, i32 0, i32 2, !dbg !2213
  call void @llvm.memcpy.p0.p0.i64(ptr align 16 %12, ptr align 4 %_3, i64 16, i1 false), !dbg !2213
  %13 = getelementptr inbounds %"x86_64::structures::idt::InterruptDescriptorTable", ptr %0, i32 0, i32 3, !dbg !2213
  call void @llvm.memcpy.p0.p0.i64(ptr align 16 %13, ptr align 4 %_4, i64 16, i1 false), !dbg !2213
  %14 = getelementptr inbounds %"x86_64::structures::idt::InterruptDescriptorTable", ptr %0, i32 0, i32 4, !dbg !2213
  call void @llvm.memcpy.p0.p0.i64(ptr align 16 %14, ptr align 4 %_5, i64 16, i1 false), !dbg !2213
  %15 = getelementptr inbounds %"x86_64::structures::idt::InterruptDescriptorTable", ptr %0, i32 0, i32 5, !dbg !2213
  call void @llvm.memcpy.p0.p0.i64(ptr align 16 %15, ptr align 4 %_6, i64 16, i1 false), !dbg !2213
  %16 = getelementptr inbounds %"x86_64::structures::idt::InterruptDescriptorTable", ptr %0, i32 0, i32 6, !dbg !2213
  call void @llvm.memcpy.p0.p0.i64(ptr align 16 %16, ptr align 4 %_7, i64 16, i1 false), !dbg !2213
  %17 = getelementptr inbounds %"x86_64::structures::idt::InterruptDescriptorTable", ptr %0, i32 0, i32 7, !dbg !2213
  call void @llvm.memcpy.p0.p0.i64(ptr align 16 %17, ptr align 4 %_8, i64 16, i1 false), !dbg !2213
  %18 = getelementptr inbounds %"x86_64::structures::idt::InterruptDescriptorTable", ptr %0, i32 0, i32 8, !dbg !2213
  call void @llvm.memcpy.p0.p0.i64(ptr align 16 %18, ptr align 4 %_9, i64 16, i1 false), !dbg !2213
  %19 = getelementptr inbounds %"x86_64::structures::idt::InterruptDescriptorTable", ptr %0, i32 0, i32 9, !dbg !2213
  call void @llvm.memcpy.p0.p0.i64(ptr align 16 %19, ptr align 4 %_10, i64 16, i1 false), !dbg !2213
  %20 = getelementptr inbounds %"x86_64::structures::idt::InterruptDescriptorTable", ptr %0, i32 0, i32 10, !dbg !2213
  call void @llvm.memcpy.p0.p0.i64(ptr align 16 %20, ptr align 4 %_11, i64 16, i1 false), !dbg !2213
  %21 = getelementptr inbounds %"x86_64::structures::idt::InterruptDescriptorTable", ptr %0, i32 0, i32 11, !dbg !2213
  call void @llvm.memcpy.p0.p0.i64(ptr align 16 %21, ptr align 4 %_12, i64 16, i1 false), !dbg !2213
  %22 = getelementptr inbounds %"x86_64::structures::idt::InterruptDescriptorTable", ptr %0, i32 0, i32 12, !dbg !2213
  call void @llvm.memcpy.p0.p0.i64(ptr align 16 %22, ptr align 4 %_13, i64 16, i1 false), !dbg !2213
  %23 = getelementptr inbounds %"x86_64::structures::idt::InterruptDescriptorTable", ptr %0, i32 0, i32 13, !dbg !2213
  call void @llvm.memcpy.p0.p0.i64(ptr align 16 %23, ptr align 4 %_14, i64 16, i1 false), !dbg !2213
  %24 = getelementptr inbounds %"x86_64::structures::idt::InterruptDescriptorTable", ptr %0, i32 0, i32 14, !dbg !2213
  call void @llvm.memcpy.p0.p0.i64(ptr align 16 %24, ptr align 4 %_15, i64 16, i1 false), !dbg !2213
  %25 = getelementptr inbounds %"x86_64::structures::idt::InterruptDescriptorTable", ptr %0, i32 0, i32 15, !dbg !2213
  call void @llvm.memcpy.p0.p0.i64(ptr align 16 %25, ptr align 4 %_16, i64 16, i1 false), !dbg !2213
  %26 = getelementptr inbounds %"x86_64::structures::idt::InterruptDescriptorTable", ptr %0, i32 0, i32 16, !dbg !2213
  call void @llvm.memcpy.p0.p0.i64(ptr align 16 %26, ptr align 4 %_17, i64 16, i1 false), !dbg !2213
  %27 = getelementptr inbounds %"x86_64::structures::idt::InterruptDescriptorTable", ptr %0, i32 0, i32 17, !dbg !2213
  call void @llvm.memcpy.p0.p0.i64(ptr align 16 %27, ptr align 4 %_18, i64 16, i1 false), !dbg !2213
  %28 = getelementptr inbounds %"x86_64::structures::idt::InterruptDescriptorTable", ptr %0, i32 0, i32 18, !dbg !2213
  call void @llvm.memcpy.p0.p0.i64(ptr align 16 %28, ptr align 4 %_19, i64 16, i1 false), !dbg !2213
  %29 = getelementptr inbounds %"x86_64::structures::idt::InterruptDescriptorTable", ptr %0, i32 0, i32 19, !dbg !2213
  call void @llvm.memcpy.p0.p0.i64(ptr align 16 %29, ptr align 4 %_20, i64 16, i1 false), !dbg !2213
  %30 = getelementptr inbounds %"x86_64::structures::idt::InterruptDescriptorTable", ptr %0, i32 0, i32 20, !dbg !2213
  call void @llvm.memcpy.p0.p0.i64(ptr align 16 %30, ptr align 4 %_21, i64 16, i1 false), !dbg !2213
  %31 = getelementptr inbounds %"x86_64::structures::idt::InterruptDescriptorTable", ptr %0, i32 0, i32 21, !dbg !2213
  call void @llvm.memcpy.p0.p0.i64(ptr align 16 %31, ptr align 4 %_22, i64 128, i1 false), !dbg !2213
  %32 = getelementptr inbounds %"x86_64::structures::idt::InterruptDescriptorTable", ptr %0, i32 0, i32 22, !dbg !2213
  call void @llvm.memcpy.p0.p0.i64(ptr align 16 %32, ptr align 4 %_24, i64 16, i1 false), !dbg !2213
  %33 = getelementptr inbounds %"x86_64::structures::idt::InterruptDescriptorTable", ptr %0, i32 0, i32 23, !dbg !2213
  call void @llvm.memcpy.p0.p0.i64(ptr align 16 %33, ptr align 4 %_25, i64 16, i1 false), !dbg !2213
  %34 = getelementptr inbounds %"x86_64::structures::idt::InterruptDescriptorTable", ptr %0, i32 0, i32 24, !dbg !2213
  call void @llvm.memcpy.p0.p0.i64(ptr align 16 %34, ptr align 4 %_26, i64 16, i1 false), !dbg !2213
  %35 = getelementptr inbounds %"x86_64::structures::idt::InterruptDescriptorTable", ptr %0, i32 0, i32 25, !dbg !2213
  call void @llvm.memcpy.p0.p0.i64(ptr align 16 %35, ptr align 4 %_27, i64 3584, i1 false), !dbg !2213
  ret void, !dbg !2214
}

; x86_64::instructions::interrupts::are_enabled
; Function Attrs: inlinehint noredzone nounwind
define internal zeroext i1 @_ZN6x86_6412instructions10interrupts11are_enabled17hc2ca20a4872e01bcE() unnamed_addr #0 !dbg !2215 {
start:
  %_2 = alloca i64, align 8
; call x86_64::registers::rflags::x86_64::read
  %0 = call i64 @_ZN6x86_649registers6rflags6x86_644read17h2c773fc7ee7d8b25E() #9, !dbg !2220
  store i64 %0, ptr %_2, align 8, !dbg !2220
; call x86_64::registers::rflags::RFlags::contains
  %1 = call zeroext i1 @_ZN6x86_649registers6rflags6RFlags8contains17h5644222a2911f718E(ptr align 8 %_2, i64 512) #9, !dbg !2220
  ret i1 %1, !dbg !2221
}

; x86_64::instructions::interrupts::without_interrupts
; Function Attrs: inlinehint noredzone nounwind
define internal void @_ZN6x86_6412instructions10interrupts18without_interrupts17h7518792d18834d10E(ptr align 8 %f) unnamed_addr #0 !dbg !2222 {
start:
  %saved_intpt_flag.dbg.spill = alloca i8, align 1
  %f.dbg.spill = alloca ptr, align 8
  %0 = alloca {}, align 1
  call void @llvm.dbg.declare(metadata ptr %0, metadata !2227, metadata !DIExpression()), !dbg !2229
  store ptr %f, ptr %f.dbg.spill, align 8
  call void @llvm.dbg.declare(metadata ptr %f.dbg.spill, metadata !2224, metadata !DIExpression()), !dbg !2230
; call x86_64::instructions::interrupts::are_enabled
  %saved_intpt_flag = call zeroext i1 @_ZN6x86_6412instructions10interrupts11are_enabled17hc2ca20a4872e01bcE() #9, !dbg !2231
  %1 = zext i1 %saved_intpt_flag to i8, !dbg !2231
  store i8 %1, ptr %saved_intpt_flag.dbg.spill, align 1, !dbg !2231
  call void @llvm.dbg.declare(metadata ptr %saved_intpt_flag.dbg.spill, metadata !2225, metadata !DIExpression()), !dbg !2232
  br i1 %saved_intpt_flag, label %bb2, label %bb3, !dbg !2233

bb3:                                              ; preds = %bb2, %start
; call theo::peripherals::_print::{{closure}}
  call void @"_ZN4theo11peripherals6_print28_$u7b$$u7b$closure$u7d$$u7d$17hcf8e8944eb3a48b7E"(ptr align 8 %f) #9, !dbg !2234
  br i1 %saved_intpt_flag, label %bb5, label %bb6, !dbg !2235

bb2:                                              ; preds = %start
; call x86_64::instructions::interrupts::disable
  call void @_ZN6x86_6412instructions10interrupts7disable17h1c4b311a0d9e69c9E() #9, !dbg !2236
  br label %bb3, !dbg !2236

bb6:                                              ; preds = %bb5, %bb3
  ret void, !dbg !2237

bb5:                                              ; preds = %bb3
; call x86_64::instructions::interrupts::enable
  call void @_ZN6x86_6412instructions10interrupts6enable17ha026cebb25195d57E() #9, !dbg !2238
  br label %bb6, !dbg !2238
}

; x86_64::instructions::interrupts::enable
; Function Attrs: inlinehint noredzone nounwind
define internal void @_ZN6x86_6412instructions10interrupts6enable17ha026cebb25195d57E() unnamed_addr #0 !dbg !2239 {
start:
  call void asm sideeffect inteldialect "sti", "~{dirflag},~{fpsr},~{flags}"() #12, !dbg !2240, !srcloc !2241
  ret void, !dbg !2242
}

; x86_64::instructions::interrupts::disable
; Function Attrs: inlinehint noredzone nounwind
define internal void @_ZN6x86_6412instructions10interrupts7disable17h1c4b311a0d9e69c9E() unnamed_addr #0 !dbg !2243 {
start:
  call void asm sideeffect inteldialect "cli", "~{dirflag},~{fpsr},~{flags}"() #12, !dbg !2244, !srcloc !2245
  ret void, !dbg !2246
}

; x86_64::instructions::hlt
; Function Attrs: inlinehint noredzone nounwind
define internal void @_ZN6x86_6412instructions3hlt17h10737fba25f887c6E() unnamed_addr #0 !dbg !2247 {
start:
  call void asm sideeffect inteldialect "hlt", ""() #12, !dbg !2249, !srcloc !2250
  ret void, !dbg !2251
}

; x86_64::addr::VirtAddr::new_truncate
; Function Attrs: inlinehint noredzone nounwind
define internal i64 @_ZN6x86_644addr8VirtAddr12new_truncate17hf110435ec802ad02E(i64 %addr) unnamed_addr #0 !dbg !2252 {
start:
  %addr.dbg.spill = alloca i64, align 8
  %0 = alloca i64, align 8
  store i64 %addr, ptr %addr.dbg.spill, align 8
  call void @llvm.dbg.declare(metadata ptr %addr.dbg.spill, metadata !2257, metadata !DIExpression()), !dbg !2258
  %_5 = shl i64 %addr, 16, !dbg !2259
  %_3 = ashr i64 %_5, 16, !dbg !2260
  store i64 %_3, ptr %0, align 8, !dbg !2261
  %1 = load i64, ptr %0, align 8, !dbg !2262, !noundef !27
  ret i64 %1, !dbg !2262
}

; x86_64::addr::VirtAddr::new
; Function Attrs: inlinehint noredzone nounwind
define internal i64 @_ZN6x86_644addr8VirtAddr3new17h88e150c841127e49E(i64 %addr) unnamed_addr #0 !dbg !2263 {
start:
  %addr.dbg.spill = alloca i64, align 8
  store i64 %addr, ptr %addr.dbg.spill, align 8
  call void @llvm.dbg.declare(metadata ptr %addr.dbg.spill, metadata !2265, metadata !DIExpression()), !dbg !2266
; call x86_64::addr::VirtAddr::try_new
  %0 = call { i64, i64 } @_ZN6x86_644addr8VirtAddr7try_new17hfbbf74cc623f8209E(i64 %addr) #9, !dbg !2267
  %_2.0 = extractvalue { i64, i64 } %0, 0, !dbg !2267
  %_2.1 = extractvalue { i64, i64 } %0, 1, !dbg !2267
; call core::result::Result<T,E>::expect
  %1 = call i64 @"_ZN4core6result19Result$LT$T$C$E$GT$6expect17hcdbe1e24b9c55310E"(i64 %_2.0, i64 %_2.1, ptr align 1 @alloc_3b30f3c2fe1935017d2714aa9952ea95, i64 74, ptr align 8 @alloc_6918487e00f1778b5f784ee4db0636b1) #9, !dbg !2267
  ret i64 %1, !dbg !2268
}

; x86_64::addr::VirtAddr::as_u64
; Function Attrs: inlinehint noredzone nounwind
define internal i64 @_ZN6x86_644addr8VirtAddr6as_u6417h8d21e81ade7b028aE(i64 %self) unnamed_addr #0 !dbg !2269 {
start:
  %self.dbg.spill = alloca i64, align 8
  store i64 %self, ptr %self.dbg.spill, align 8
  call void @llvm.dbg.declare(metadata ptr %self.dbg.spill, metadata !2273, metadata !DIExpression()), !dbg !2274
  ret i64 %self, !dbg !2275
}

; x86_64::addr::VirtAddr::try_new
; Function Attrs: inlinehint noredzone nounwind
define internal { i64, i64 } @_ZN6x86_644addr8VirtAddr7try_new17hfbbf74cc623f8209E(i64 %0) unnamed_addr #0 !dbg !2276 {
start:
  %_7 = alloca i64, align 8
  %_5 = alloca i64, align 8
  %_4 = alloca { i64, i64 }, align 8
  %1 = alloca { i64, i64 }, align 8
  %addr = alloca i64, align 8
  store i64 %0, ptr %addr, align 8
  call void @llvm.dbg.declare(metadata ptr %addr, metadata !2299, metadata !DIExpression()), !dbg !2300
  store i64 47, ptr %_4, align 8, !dbg !2301
  %2 = getelementptr inbounds { i64, i64 }, ptr %_4, i32 0, i32 1, !dbg !2301
  store i64 64, ptr %2, align 8, !dbg !2301
  %3 = getelementptr inbounds { i64, i64 }, ptr %_4, i32 0, i32 0, !dbg !2302
  %4 = load i64, ptr %3, align 8, !dbg !2302, !noundef !27
  %5 = getelementptr inbounds { i64, i64 }, ptr %_4, i32 0, i32 1, !dbg !2302
  %6 = load i64, ptr %5, align 8, !dbg !2302, !noundef !27
; call <u64 as bit_field::BitField>::get_bits
  %_2 = call i64 @"_ZN43_$LT$u64$u20$as$u20$bit_field..BitField$GT$8get_bits17haf1655a9fa6aeb6eE"(ptr align 8 %addr, i64 %4, i64 %6) #9, !dbg !2302
  switch i64 %_2, label %bb2 [
    i64 0, label %bb3
    i64 131071, label %bb3
    i64 1, label %bb4
  ], !dbg !2303

bb2:                                              ; preds = %start
  %7 = load i64, ptr %addr, align 8, !dbg !2304, !noundef !27
  store i64 %7, ptr %_7, align 8, !dbg !2304
  %8 = load i64, ptr %_7, align 8, !dbg !2305, !noundef !27
  %9 = getelementptr inbounds { i64, i64 }, ptr %1, i32 0, i32 1, !dbg !2305
  store i64 %8, ptr %9, align 8, !dbg !2305
  store i64 1, ptr %1, align 8, !dbg !2305
  br label %bb6, !dbg !2306

bb3:                                              ; preds = %start, %start
  %10 = load i64, ptr %addr, align 8, !dbg !2307, !noundef !27
  store i64 %10, ptr %_5, align 8, !dbg !2307
  %11 = load i64, ptr %_5, align 8, !dbg !2308, !noundef !27
  %12 = getelementptr inbounds { i64, i64 }, ptr %1, i32 0, i32 1, !dbg !2308
  store i64 %11, ptr %12, align 8, !dbg !2308
  store i64 0, ptr %1, align 8, !dbg !2308
  br label %bb6, !dbg !2309

bb4:                                              ; preds = %start
  %13 = load i64, ptr %addr, align 8, !dbg !2310, !noundef !27
; call x86_64::addr::VirtAddr::new_truncate
  %_6 = call i64 @_ZN6x86_644addr8VirtAddr12new_truncate17hf110435ec802ad02E(i64 %13) #9, !dbg !2310
  %14 = getelementptr inbounds { i64, i64 }, ptr %1, i32 0, i32 1, !dbg !2311
  store i64 %_6, ptr %14, align 8, !dbg !2311
  store i64 0, ptr %1, align 8, !dbg !2311
  br label %bb6, !dbg !2312

bb6:                                              ; preds = %bb3, %bb4, %bb2
  %15 = getelementptr inbounds { i64, i64 }, ptr %1, i32 0, i32 0, !dbg !2313
  %16 = load i64, ptr %15, align 8, !dbg !2313, !range !1635, !noundef !27
  %17 = getelementptr inbounds { i64, i64 }, ptr %1, i32 0, i32 1, !dbg !2313
  %18 = load i64, ptr %17, align 8, !dbg !2313, !noundef !27
  %19 = insertvalue { i64, i64 } poison, i64 %16, 0, !dbg !2313
  %20 = insertvalue { i64, i64 } %19, i64 %18, 1, !dbg !2313
  ret { i64, i64 } %20, !dbg !2313
}

; x86_64::registers::rflags::RFlags::from_bits_truncate
; Function Attrs: inlinehint noredzone nounwind
define internal i64 @_ZN6x86_649registers6rflags6RFlags18from_bits_truncate17hb5cf3848a371591aE(i64 %bits) unnamed_addr #0 !dbg !2314 {
start:
  %bits.dbg.spill = alloca i64, align 8
  %0 = alloca i64, align 8
  store i64 %bits, ptr %bits.dbg.spill, align 8
  call void @llvm.dbg.declare(metadata ptr %bits.dbg.spill, metadata !2324, metadata !DIExpression()), !dbg !2325
; call x86_64::registers::rflags::RFlags::all
  %_4 = call i64 @_ZN6x86_649registers6rflags6RFlags3all17h0d9aad3f62f99196E() #9, !dbg !2326
  %_2 = and i64 %bits, %_4, !dbg !2327
  store i64 %_2, ptr %0, align 8, !dbg !2328
  %1 = load i64, ptr %0, align 8, !dbg !2329, !noundef !27
  ret i64 %1, !dbg !2329
}

; x86_64::registers::rflags::RFlags::all
; Function Attrs: inlinehint noredzone nounwind
define internal i64 @_ZN6x86_649registers6rflags6RFlags3all17h0d9aad3f62f99196E() unnamed_addr #0 !dbg !2330 {
start:
  %0 = alloca i64, align 8
  store i64 4161493, ptr %0, align 8, !dbg !2333
  %1 = load i64, ptr %0, align 8, !dbg !2334, !noundef !27
  ret i64 %1, !dbg !2334
}

; x86_64::registers::rflags::RFlags::contains
; Function Attrs: inlinehint noredzone nounwind
define internal zeroext i1 @_ZN6x86_649registers6rflags6RFlags8contains17h5644222a2911f718E(ptr align 8 %self, i64 %other) unnamed_addr #0 !dbg !2335 {
start:
  %other.dbg.spill = alloca i64, align 8
  %self.dbg.spill = alloca ptr, align 8
  store ptr %self, ptr %self.dbg.spill, align 8
  call void @llvm.dbg.declare(metadata ptr %self.dbg.spill, metadata !2340, metadata !DIExpression()), !dbg !2342
  store i64 %other, ptr %other.dbg.spill, align 8
  call void @llvm.dbg.declare(metadata ptr %other.dbg.spill, metadata !2341, metadata !DIExpression()), !dbg !2343
  %_4 = load i64, ptr %self, align 8, !dbg !2344, !noundef !27
  %_3 = and i64 %_4, %other, !dbg !2345
  %0 = icmp eq i64 %_3, %other, !dbg !2345
  ret i1 %0, !dbg !2346
}

; x86_64::registers::rflags::x86_64::read
; Function Attrs: inlinehint noredzone nounwind
define internal i64 @_ZN6x86_649registers6rflags6x86_644read17h2c773fc7ee7d8b25E() unnamed_addr #0 !dbg !2347 {
start:
; call x86_64::registers::rflags::x86_64::read_raw
  %_1 = call i64 @_ZN6x86_649registers6rflags6x86_648read_raw17hd1abff4b0b2bdfb4E() #9, !dbg !2350
; call x86_64::registers::rflags::RFlags::from_bits_truncate
  %0 = call i64 @_ZN6x86_649registers6rflags6RFlags18from_bits_truncate17hb5cf3848a371591aE(i64 %_1) #9, !dbg !2351
  ret i64 %0, !dbg !2352
}

; x86_64::registers::rflags::x86_64::read_raw
; Function Attrs: inlinehint noredzone nounwind
define internal i64 @_ZN6x86_649registers6rflags6x86_648read_raw17hd1abff4b0b2bdfb4E() unnamed_addr #0 !dbg !2353 {
start:
  %0 = alloca i64, align 8
  call void @llvm.dbg.declare(metadata ptr %0, metadata !2357, metadata !DIExpression()), !dbg !2359
  %1 = call i64 asm sideeffect alignstack inteldialect "pushfq; pop ${0:q}", "=&r"() #12, !dbg !2360, !srcloc !2361
  store i64 %1, ptr %0, align 8, !dbg !2360
  %2 = load i64, ptr %0, align 8, !dbg !2362, !noundef !27
  ret i64 %2, !dbg !2362
}

; <spin::mutex::MutexGuard<T> as core::ops::deref::Deref>::deref
; Function Attrs: noredzone nounwind
define internal align 2 ptr @"_ZN76_$LT$spin..mutex..MutexGuard$LT$T$GT$$u20$as$u20$core..ops..deref..Deref$GT$5deref17hb450adb5c0faf30eE"(ptr align 8 %self) unnamed_addr #1 !dbg !2363 {
start:
  %self.dbg.spill = alloca ptr, align 8
  store ptr %self, ptr %self.dbg.spill, align 8
  call void @llvm.dbg.declare(metadata ptr %self.dbg.spill, metadata !2370, metadata !DIExpression()), !dbg !2371
; call <spin::mutex::spin::SpinMutexGuard<T> as core::ops::deref::Deref>::deref
  %_2 = call align 2 ptr @"_ZN86_$LT$spin..mutex..spin..SpinMutexGuard$LT$T$GT$$u20$as$u20$core..ops..deref..Deref$GT$5deref17h11078a445c646581E"(ptr align 8 %self) #9, !dbg !2372
  ret ptr %_2, !dbg !2373
}

; <spin::mutex::MutexGuard<T> as core::ops::deref::DerefMut>::deref_mut
; Function Attrs: noredzone nounwind
define internal align 8 ptr @"_ZN79_$LT$spin..mutex..MutexGuard$LT$T$GT$$u20$as$u20$core..ops..deref..DerefMut$GT$9deref_mut17hd17d750567e2bc9bE"(ptr align 8 %self) unnamed_addr #1 !dbg !2374 {
start:
  %self.dbg.spill = alloca ptr, align 8
  store ptr %self, ptr %self.dbg.spill, align 8
  call void @llvm.dbg.declare(metadata ptr %self.dbg.spill, metadata !2380, metadata !DIExpression()), !dbg !2381
; call <spin::mutex::spin::SpinMutexGuard<T> as core::ops::deref::DerefMut>::deref_mut
  %_2 = call align 8 ptr @"_ZN89_$LT$spin..mutex..spin..SpinMutexGuard$LT$T$GT$$u20$as$u20$core..ops..deref..DerefMut$GT$9deref_mut17h0e7f518022a855ccE"(ptr align 8 %self) #9, !dbg !2382
  ret ptr %_2, !dbg !2383
}

; <spin::mutex::spin::SpinMutexGuard<T> as core::ops::drop::Drop>::drop
; Function Attrs: noredzone nounwind
define internal void @"_ZN84_$LT$spin..mutex..spin..SpinMutexGuard$LT$T$GT$$u20$as$u20$core..ops..drop..Drop$GT$4drop17h3e75d18c11c41bbbE"(ptr align 8 %self) unnamed_addr #1 !dbg !2384 {
start:
  %self.dbg.spill = alloca ptr, align 8
  %_3 = alloca i8, align 1
  store ptr %self, ptr %self.dbg.spill, align 8
  call void @llvm.dbg.declare(metadata ptr %self.dbg.spill, metadata !2390, metadata !DIExpression()), !dbg !2391
  %_4 = load ptr, ptr %self, align 8, !dbg !2392, !nonnull !27, !align !853, !noundef !27
  store i8 1, ptr %_3, align 1, !dbg !2393
  %0 = load i8, ptr %_3, align 1, !dbg !2392, !range !1633, !noundef !27
; call core::sync::atomic::AtomicBool::store
  call void @_ZN4core4sync6atomic10AtomicBool5store17hcbddfa2c5dd31b67E(ptr align 1 %_4, i1 zeroext false, i8 %0) #9, !dbg !2392
  ret void, !dbg !2394
}

; <spin::mutex::spin::SpinMutexGuard<T> as core::ops::drop::Drop>::drop
; Function Attrs: noredzone nounwind
define internal void @"_ZN84_$LT$spin..mutex..spin..SpinMutexGuard$LT$T$GT$$u20$as$u20$core..ops..drop..Drop$GT$4drop17h9239d41323380379E"(ptr align 8 %self) unnamed_addr #1 !dbg !2395 {
start:
  %self.dbg.spill = alloca ptr, align 8
  %_3 = alloca i8, align 1
  store ptr %self, ptr %self.dbg.spill, align 8
  call void @llvm.dbg.declare(metadata ptr %self.dbg.spill, metadata !2400, metadata !DIExpression()), !dbg !2401
  %_4 = load ptr, ptr %self, align 8, !dbg !2402, !nonnull !27, !align !853, !noundef !27
  store i8 1, ptr %_3, align 1, !dbg !2403
  %0 = load i8, ptr %_3, align 1, !dbg !2402, !range !1633, !noundef !27
; call core::sync::atomic::AtomicBool::store
  call void @_ZN4core4sync6atomic10AtomicBool5store17hcbddfa2c5dd31b67E(ptr align 1 %_4, i1 zeroext false, i8 %0) #9, !dbg !2402
  ret void, !dbg !2404
}

; <spin::mutex::spin::SpinMutexGuard<T> as core::ops::deref::Deref>::deref
; Function Attrs: noredzone nounwind
define internal align 2 ptr @"_ZN86_$LT$spin..mutex..spin..SpinMutexGuard$LT$T$GT$$u20$as$u20$core..ops..deref..Deref$GT$5deref17h11078a445c646581E"(ptr align 8 %self) unnamed_addr #1 !dbg !2405 {
start:
  %self.dbg.spill = alloca ptr, align 8
  store ptr %self, ptr %self.dbg.spill, align 8
  call void @llvm.dbg.declare(metadata ptr %self.dbg.spill, metadata !2411, metadata !DIExpression()), !dbg !2412
  %0 = getelementptr inbounds { ptr, ptr }, ptr %self, i32 0, i32 1, !dbg !2413
  %_2 = load ptr, ptr %0, align 8, !dbg !2413, !noundef !27
  ret ptr %_2, !dbg !2414
}

; <spin::mutex::spin::SpinMutexGuard<T> as core::ops::deref::DerefMut>::deref_mut
; Function Attrs: noredzone nounwind
define internal align 8 ptr @"_ZN89_$LT$spin..mutex..spin..SpinMutexGuard$LT$T$GT$$u20$as$u20$core..ops..deref..DerefMut$GT$9deref_mut17h0e7f518022a855ccE"(ptr align 8 %self) unnamed_addr #1 !dbg !2415 {
start:
  %self.dbg.spill = alloca ptr, align 8
  store ptr %self, ptr %self.dbg.spill, align 8
  call void @llvm.dbg.declare(metadata ptr %self.dbg.spill, metadata !2420, metadata !DIExpression()), !dbg !2421
  %0 = getelementptr inbounds { ptr, ptr }, ptr %self, i32 0, i32 1, !dbg !2422
  %_2 = load ptr, ptr %0, align 8, !dbg !2422, !noundef !27
  ret ptr %_2, !dbg !2423
}

; keyboard::Keyboard<L,S>::process_key_event
; Function Attrs: noredzone nounwind
define internal void @"_ZN8keyboard21Keyboard$LT$L$C$S$GT$17process_key_event17h9dad4a5dfb40add3E"(ptr align 2 %self) unnamed_addr #1 !dbg !2424 {
start:
  %f.dbg.spill = alloca %"[closure@src/interrupts.rs:42:32: 42:71]", align 1
  %self.dbg.spill = alloca ptr, align 8
  store ptr %self, ptr %self.dbg.spill, align 8
  call void @llvm.dbg.declare(metadata ptr %self.dbg.spill, metadata !2431, metadata !DIExpression()), !dbg !2454
  call void @llvm.dbg.declare(metadata ptr %f.dbg.spill, metadata !2432, metadata !DIExpression()), !dbg !2455
; call core::panicking::panic
  call void @_ZN4core9panicking5panic17hee5d285669f2f2eaE(ptr align 1 @alloc_aa07815cbcb2365f7aca41cc8941a0c4, i64 19, ptr align 8 @alloc_b9611fc786ea7421fadd0a22cc6b4ceb) #11, !dbg !2456
  unreachable, !dbg !2456
}

; keyboard::Keyboard<L,S>::us_scancode_set_one_keyboard
; Function Attrs: noredzone nounwind
define internal void @"_ZN8keyboard21Keyboard$LT$L$C$S$GT$28us_scancode_set_one_keyboard17h428c2c6f9c6952d1E"(ptr sret(%"keyboard::Keyboard<pc_keyboard::layouts::us104::Us104Key, pc_keyboard::scancodes::set1::ScancodeSet1>") %0) unnamed_addr #1 !dbg !2457 {
start:
; call pc_keyboard::scancodes::set1::ScancodeSet1::new
  %_1 = call i8 @_ZN11pc_keyboard9scancodes4set112ScancodeSet13new17h76ab4b14211b53ffE() #9, !dbg !2460, !range !2461
; call keyboard::Keyboard<L,S>::new
  call void @"_ZN8keyboard21Keyboard$LT$L$C$S$GT$3new17haed1348cf5141623E"(ptr sret(%"keyboard::Keyboard<pc_keyboard::layouts::us104::Us104Key, pc_keyboard::scancodes::set1::ScancodeSet1>") %0, i8 %_1) #9, !dbg !2462
  ret void, !dbg !2463
}

; keyboard::Keyboard<L,S>::new
; Function Attrs: noredzone nounwind
define internal void @"_ZN8keyboard21Keyboard$LT$L$C$S$GT$3new17haed1348cf5141623E"(ptr sret(%"keyboard::Keyboard<pc_keyboard::layouts::us104::Us104Key, pc_keyboard::scancodes::set1::ScancodeSet1>") %0, i8 %scancode_set) unnamed_addr #1 !dbg !2464 {
start:
  %scancode_set.dbg.spill = alloca i8, align 1
  %layout.dbg.spill = alloca %"pc_keyboard::layouts::us104::Us104Key", align 1
  %_5 = alloca %"pc_keyboard::Keyboard<pc_keyboard::layouts::us104::Us104Key, pc_keyboard::scancodes::set1::ScancodeSet1>", align 2
  %_4 = alloca i8, align 1
  %keyboard = alloca %"pc_keyboard::Keyboard<pc_keyboard::layouts::us104::Us104Key, pc_keyboard::scancodes::set1::ScancodeSet1>", align 2
  call void @llvm.dbg.declare(metadata ptr %layout.dbg.spill, metadata !2468, metadata !DIExpression()), !dbg !2472
  store i8 %scancode_set, ptr %scancode_set.dbg.spill, align 1
  call void @llvm.dbg.declare(metadata ptr %scancode_set.dbg.spill, metadata !2469, metadata !DIExpression()), !dbg !2473
  call void @llvm.dbg.declare(metadata ptr %keyboard, metadata !2470, metadata !DIExpression()), !dbg !2474
  store i8 1, ptr %_4, align 1, !dbg !2475
  %1 = load i8, ptr %_4, align 1, !dbg !2476, !range !1115, !noundef !27
  %2 = trunc i8 %1 to i1, !dbg !2476
; call pc_keyboard::Keyboard<L,S>::new
  call void @"_ZN11pc_keyboard21Keyboard$LT$L$C$S$GT$3new17h59087364b2e25e5cE"(ptr sret(%"pc_keyboard::Keyboard<pc_keyboard::layouts::us104::Us104Key, pc_keyboard::scancodes::set1::ScancodeSet1>") %keyboard, i8 %scancode_set, i1 zeroext %2) #9, !dbg !2476
  call void @llvm.memcpy.p0.p0.i64(ptr align 2 %_5, ptr align 2 %keyboard, i64 14, i1 false), !dbg !2477
  call void @llvm.memcpy.p0.p0.i64(ptr align 2 %0, ptr align 2 %_5, i64 14, i1 false), !dbg !2478
  ret void, !dbg !2479
}

; theo::interrupts::breakpoint_handler
; Function Attrs: noredzone nounwind
define internal x86_intrcc void @_ZN4theo10interrupts18breakpoint_handler17h28639b851b163771E(ptr byval(%"x86_64::structures::idt::InterruptStackFrame") %_isf) unnamed_addr #1 !dbg !2480 {
start:
  call void @llvm.dbg.declare(metadata ptr %_isf, metadata !2482, metadata !DIExpression()), !dbg !2483
  ret void, !dbg !2484
}

; theo::interrupts::timer_interrupt_handler
; Function Attrs: noredzone nounwind
define internal x86_intrcc void @_ZN4theo10interrupts23timer_interrupt_handler17h98397341344093ecE(ptr byval(%"x86_64::structures::idt::InterruptStackFrame") %_isf) unnamed_addr #1 !dbg !2485 {
start:
  %_3 = alloca %"core::fmt::Arguments<'_>", align 8
  call void @llvm.dbg.declare(metadata ptr %_isf, metadata !2487, metadata !DIExpression()), !dbg !2488
; call core::fmt::Arguments::new_const
  call void @_ZN4core3fmt9Arguments9new_const17h0cb7155e9db6aa6aE(ptr sret(%"core::fmt::Arguments<'_>") %_3, ptr align 8 @alloc_d509c061a81d387044ae882b6ca18863, i64 1) #9, !dbg !2489
; call theo::peripherals::_print
  call void @_ZN4theo11peripherals6_print17h1f428ae154c83db7E(ptr %_3) #9, !dbg !2489
; call cpu_interrupts::programmable_interface_controller::notify_end_of_timer_interrupt
  call void @_ZN14cpu_interrupts33programmable_interface_controller29notify_end_of_timer_interrupt17h5a8121df340b4e70E() #9, !dbg !2490
  ret void, !dbg !2491
}

; theo::interrupts::keyboard_handler
; Function Attrs: noredzone nounwind
define internal x86_intrcc void @_ZN4theo10interrupts16keyboard_handler17h5467fec573b9e839E(ptr byval(%"x86_64::structures::idt::InterruptStackFrame") %_isf) unnamed_addr #1 !dbg !2492 {
start:
  %self.dbg.spill.i2 = alloca ptr, align 8
  %_3.i = alloca i8, align 1
  %self.dbg.spill.i.i = alloca ptr, align 8
  %self.dbg.spill.i1 = alloca ptr, align 8
  %_7.i = alloca i8, align 1
  %_6.i = alloca i8, align 1
  %_4.i = alloca { i8, i8 }, align 1
  %0 = alloca { ptr, ptr }, align 8
  %self.dbg.spill.i = alloca ptr, align 8
  %1 = alloca { ptr, ptr }, align 8
  %keyboard = alloca { ptr, ptr }, align 8
  call void @llvm.dbg.declare(metadata ptr %_isf, metadata !2494, metadata !DIExpression()), !dbg !2497
  call void @llvm.dbg.declare(metadata ptr %keyboard, metadata !2495, metadata !DIExpression()), !dbg !2498
; call <theo::peripherals::KEYBOARD as core::ops::deref::Deref>::deref
  %_4 = call align 2 ptr @"_ZN71_$LT$theo..peripherals..KEYBOARD$u20$as$u20$core..ops..deref..Deref$GT$5deref17h648c0b8820ae3af3E"(ptr align 1 @_ZN4theo11peripherals8KEYBOARD17hb5c519d92d20d068E) #9, !dbg !2499
  store ptr %_4, ptr %self.dbg.spill.i, align 8
  call void @llvm.dbg.declare(metadata ptr %self.dbg.spill.i, metadata !2500, metadata !DIExpression()), !dbg !2505
  store ptr %_4, ptr %self.dbg.spill.i1, align 8
  call void @llvm.dbg.declare(metadata ptr %self.dbg.spill.i1, metadata !2507, metadata !DIExpression()), !dbg !2513
  br label %bb1.i, !dbg !2515

bb1.i:                                            ; preds = %bb4.i, %start
  store i8 2, ptr %_6.i, align 1, !dbg !2516
  store i8 0, ptr %_7.i, align 1, !dbg !2517
  %2 = load i8, ptr %_6.i, align 1, !dbg !2518, !range !1633, !noundef !27
  %3 = load i8, ptr %_7.i, align 1, !dbg !2518, !range !1633, !noundef !27
; call core::sync::atomic::AtomicBool::compare_exchange_weak
  %4 = call { i8, i8 } @_ZN4core4sync6atomic10AtomicBool21compare_exchange_weak17hcbb30a4ec771e99dE(ptr align 1 %_4, i1 zeroext false, i1 zeroext true, i8 %2, i8 %3) #9, !dbg !2518
  store { i8, i8 } %4, ptr %_4.i, align 1, !dbg !2518
; call core::result::Result<T,E>::is_err
  %_2.i = call zeroext i1 @"_ZN4core6result19Result$LT$T$C$E$GT$6is_err17h0c98013ef9a12918E"(ptr align 1 %_4.i) #9, !dbg !2518
  br i1 %_2.i, label %bb4.i, label %"_ZN4spin5mutex4spin22SpinMutex$LT$T$C$R$GT$4lock17h5fc8b7f90d893400E.exit", !dbg !2518

bb4.i:                                            ; preds = %bb6.i, %bb1.i
  store ptr %_4, ptr %self.dbg.spill.i2, align 8
  call void @llvm.dbg.declare(metadata ptr %self.dbg.spill.i2, metadata !2519, metadata !DIExpression()), !dbg !2524
  store i8 0, ptr %_3.i, align 1, !dbg !2526
  %5 = load i8, ptr %_3.i, align 1, !dbg !2527, !range !1633, !noundef !27
; call core::sync::atomic::AtomicBool::load
  %6 = call zeroext i1 @_ZN4core4sync6atomic10AtomicBool4load17h12b56d04b138d3bdE(ptr align 1 %_4, i8 %5) #9, !dbg !2527
  br i1 %6, label %bb6.i, label %bb1.i, !dbg !2528

bb6.i:                                            ; preds = %bb4.i
; call core::sync::atomic::spin_loop_hint
  call void @_ZN4core4sync6atomic14spin_loop_hint17h8000e312a9eff648E() #9, !dbg !2529
  br label %bb4.i, !dbg !2534

"_ZN4spin5mutex4spin22SpinMutex$LT$T$C$R$GT$4lock17h5fc8b7f90d893400E.exit": ; preds = %bb1.i
  %_14.i = getelementptr inbounds %"spin::mutex::spin::SpinMutex<keyboard::Keyboard<pc_keyboard::layouts::us104::Us104Key, pc_keyboard::scancodes::set1::ScancodeSet1>>", ptr %_4, i32 0, i32 3, !dbg !2535
  store ptr %_14.i, ptr %self.dbg.spill.i.i, align 8
  call void @llvm.dbg.declare(metadata ptr %self.dbg.spill.i.i, metadata !2536, metadata !DIExpression()), !dbg !2542
  store ptr %_4, ptr %0, align 8, !dbg !2544
  %7 = getelementptr inbounds { ptr, ptr }, ptr %0, i32 0, i32 1, !dbg !2544
  store ptr %_14.i, ptr %7, align 8, !dbg !2544
  %8 = load ptr, ptr %0, align 8, !dbg !2545, !nonnull !27, !align !853, !noundef !27
  %9 = getelementptr inbounds { ptr, ptr }, ptr %0, i32 0, i32 1, !dbg !2545
  %10 = load ptr, ptr %9, align 8, !dbg !2545, !noundef !27
  %11 = insertvalue { ptr, ptr } poison, ptr %8, 0, !dbg !2545
  %12 = insertvalue { ptr, ptr } %11, ptr %10, 1, !dbg !2545
  %_2.0.i = extractvalue { ptr, ptr } %12, 0, !dbg !2546
  %_2.1.i = extractvalue { ptr, ptr } %12, 1, !dbg !2546
  store ptr %_2.0.i, ptr %1, align 8, !dbg !2547
  %13 = getelementptr inbounds { ptr, ptr }, ptr %1, i32 0, i32 1, !dbg !2547
  store ptr %_2.1.i, ptr %13, align 8, !dbg !2547
  %14 = load ptr, ptr %1, align 8, !dbg !2548, !nonnull !27, !align !853, !noundef !27
  %15 = getelementptr inbounds { ptr, ptr }, ptr %1, i32 0, i32 1, !dbg !2548
  %16 = load ptr, ptr %15, align 8, !dbg !2548, !noundef !27
  %17 = insertvalue { ptr, ptr } poison, ptr %14, 0, !dbg !2548
  %18 = insertvalue { ptr, ptr } %17, ptr %16, 1, !dbg !2548
  store { ptr, ptr } %18, ptr %keyboard, align 8, !dbg !2499
; call <spin::mutex::MutexGuard<T> as core::ops::deref::Deref>::deref
  %_8 = call align 2 ptr @"_ZN76_$LT$spin..mutex..MutexGuard$LT$T$GT$$u20$as$u20$core..ops..deref..Deref$GT$5deref17hb450adb5c0faf30eE"(ptr align 8 %keyboard) #9, !dbg !2549
; call keyboard::Keyboard<L,S>::process_key_event
  call void @"_ZN8keyboard21Keyboard$LT$L$C$S$GT$17process_key_event17h9dad4a5dfb40add3E"(ptr align 2 %_8) #9, !dbg !2549
; call cpu_interrupts::programmable_interface_controller::notify_end_of_timer_interrupt
  call void @_ZN14cpu_interrupts33programmable_interface_controller29notify_end_of_timer_interrupt17h5a8121df340b4e70E() #9, !dbg !2550
; call core::ptr::drop_in_place<spin::mutex::MutexGuard<keyboard::Keyboard<pc_keyboard::layouts::us104::Us104Key,pc_keyboard::scancodes::set1::ScancodeSet1>>>
  call void @"_ZN4core3ptr160drop_in_place$LT$spin..mutex..MutexGuard$LT$keyboard..Keyboard$LT$pc_keyboard..layouts..us104..Us104Key$C$pc_keyboard..scancodes..set1..ScancodeSet1$GT$$GT$$GT$17h58f2ee28d5bb5aedE"(ptr %keyboard) #9, !dbg !2551
  ret void, !dbg !2552
}

; theo::interrupts::initialize
; Function Attrs: noredzone nounwind
define internal void @_ZN4theo10interrupts10initialize17h0d76291f53109971E() unnamed_addr #1 !dbg !2553 {
start:
  %f.dbg.spill.i = alloca ptr, align 8
  %x.dbg.spill.i1 = alloca ptr, align 8
  %0 = alloca { ptr, ptr }, align 8
  %x.dbg.spill.i = alloca ptr, align 8
  %_13 = alloca [1 x { ptr, ptr }], align 8
  %_9 = alloca %"core::fmt::Arguments<'_>", align 8
  %s = alloca { ptr, i64 }, align 8
  %_2 = alloca %"core::result::Result<bool, &str>", align 8
  call void @llvm.dbg.declare(metadata ptr %s, metadata !2555, metadata !DIExpression()), !dbg !2557
; call cpu_interrupts::global_descriptor_table::initialize
  call void @_ZN14cpu_interrupts23global_descriptor_table10initialize17h15164a50d65e225fE() #9, !dbg !2558
; call <theo::interrupts::SAFE_IDT as core::ops::deref::Deref>::deref
  %_4 = call align 16 ptr @"_ZN70_$LT$theo..interrupts..SAFE_IDT$u20$as$u20$core..ops..deref..Deref$GT$5deref17h66f1750d3ba81f89E"(ptr align 1 @_ZN4theo10interrupts8SAFE_IDT17h52459c85cf25b7a7E) #9, !dbg !2559
; call cpu_interrupts::interrupt_descriptor_table::SafeInterruptDescriptorTable::load
  call void @_ZN14cpu_interrupts26interrupt_descriptor_table28SafeInterruptDescriptorTable4load17hebf6b8ca799f099eE(ptr sret(%"core::result::Result<bool, &str>") %_2, ptr align 16 %_4) #9, !dbg !2559
  %1 = load ptr, ptr %_2, align 8, !dbg !2559, !noundef !27
  %2 = ptrtoint ptr %1 to i64, !dbg !2559
  %3 = icmp eq i64 %2, 0, !dbg !2559
  %_6 = select i1 %3, i64 0, i64 1, !dbg !2559
  %4 = icmp eq i64 %_6, 0, !dbg !2560
  br i1 %4, label %bb4, label %bb6, !dbg !2560

bb4:                                              ; preds = %start
; call cpu_interrupts::programmable_interface_controller::initialize
  call void @_ZN14cpu_interrupts33programmable_interface_controller10initialize17h14cec8f2a4624b12E() #9, !dbg !2561
; call cpu_interrupts::enable
  call void @_ZN14cpu_interrupts6enable17h9d5315601cd78b8dE() #9, !dbg !2562
  ret void, !dbg !2563

bb6:                                              ; preds = %start
  %5 = getelementptr inbounds { ptr, i64 }, ptr %_2, i32 0, i32 0, !dbg !2564
  %6 = load ptr, ptr %5, align 8, !dbg !2564, !nonnull !27, !align !853, !noundef !27
  %7 = getelementptr inbounds { ptr, i64 }, ptr %_2, i32 0, i32 1, !dbg !2564
  %8 = load i64, ptr %7, align 8, !dbg !2564, !noundef !27
  %9 = getelementptr inbounds { ptr, i64 }, ptr %s, i32 0, i32 0, !dbg !2564
  store ptr %6, ptr %9, align 8, !dbg !2564
  %10 = getelementptr inbounds { ptr, i64 }, ptr %s, i32 0, i32 1, !dbg !2564
  store i64 %8, ptr %10, align 8, !dbg !2564
  store ptr %s, ptr %x.dbg.spill.i, align 8
  call void @llvm.dbg.declare(metadata ptr %x.dbg.spill.i, metadata !2565, metadata !DIExpression()), !dbg !2573
  store ptr %s, ptr %x.dbg.spill.i1, align 8
  call void @llvm.dbg.declare(metadata ptr %x.dbg.spill.i1, metadata !2575, metadata !DIExpression()), !dbg !2584
  store ptr @"_ZN44_$LT$$RF$T$u20$as$u20$core..fmt..Display$GT$3fmt17h2ef6c62611e54bd4E", ptr %f.dbg.spill.i, align 8
  call void @llvm.dbg.declare(metadata ptr %f.dbg.spill.i, metadata !2583, metadata !DIExpression()), !dbg !2586
  store ptr %s, ptr %0, align 8, !dbg !2587
  %11 = getelementptr inbounds { ptr, ptr }, ptr %0, i32 0, i32 1, !dbg !2587
  store ptr @"_ZN44_$LT$$RF$T$u20$as$u20$core..fmt..Display$GT$3fmt17h2ef6c62611e54bd4E", ptr %11, align 8, !dbg !2587
  %12 = load ptr, ptr %0, align 8, !dbg !2588, !nonnull !27, !align !853, !noundef !27
  %13 = getelementptr inbounds { ptr, ptr }, ptr %0, i32 0, i32 1, !dbg !2588
  %14 = load ptr, ptr %13, align 8, !dbg !2588, !nonnull !27, !noundef !27
  %15 = insertvalue { ptr, ptr } poison, ptr %12, 0, !dbg !2588
  %16 = insertvalue { ptr, ptr } %15, ptr %14, 1, !dbg !2588
  %17 = extractvalue { ptr, ptr } %16, 0, !dbg !2589
  %18 = extractvalue { ptr, ptr } %16, 1, !dbg !2589
  %_14.0 = extractvalue { ptr, ptr } %16, 0, !dbg !2590
  %_14.1 = extractvalue { ptr, ptr } %16, 1, !dbg !2590
  %19 = getelementptr inbounds [1 x { ptr, ptr }], ptr %_13, i64 0, i64 0, !dbg !2590
  %20 = getelementptr inbounds { ptr, ptr }, ptr %19, i32 0, i32 0, !dbg !2590
  store ptr %_14.0, ptr %20, align 8, !dbg !2590
  %21 = getelementptr inbounds { ptr, ptr }, ptr %19, i32 0, i32 1, !dbg !2590
  store ptr %_14.1, ptr %21, align 8, !dbg !2590
; call core::fmt::Arguments::new_v1
  call void @_ZN4core3fmt9Arguments6new_v117hc523a9f23c30a71aE(ptr sret(%"core::fmt::Arguments<'_>") %_9, ptr align 8 @alloc_aab826736a6c020f2de3cc2e72f2836f, i64 1, ptr align 8 %_13, i64 1) #9, !dbg !2590
; call core::panicking::panic_fmt
  call void @_ZN4core9panicking9panic_fmt17hdd6269d09ded55c6E(ptr %_9, ptr align 8 @alloc_c29d4427509bbe8bedf59e2be586cf28) #11, !dbg !2590
  unreachable, !dbg !2590

bb5:                                              ; No predecessors!
  unreachable, !dbg !2559
}

; theo::interrupts::without_interrupts
; Function Attrs: noredzone nounwind
define internal void @_ZN4theo10interrupts18without_interrupts17hcc4ec732711585adE(ptr align 8 %f) unnamed_addr #1 !dbg !2591 {
start:
  %f.dbg.spill = alloca ptr, align 8
  store ptr %f, ptr %f.dbg.spill, align 8
  call void @llvm.dbg.declare(metadata ptr %f.dbg.spill, metadata !2593, metadata !DIExpression()), !dbg !2594
; call cpu_interrupts::without_interrupts
  call void @_ZN14cpu_interrupts18without_interrupts17h7b4d67ff578b5d8aE(ptr align 8 %f) #9, !dbg !2595
  ret void, !dbg !2596
}

; theo::peripherals::_print
; Function Attrs: noredzone nounwind
define internal void @_ZN4theo11peripherals6_print17h1f428ae154c83db7E(ptr %args) unnamed_addr #1 !dbg !2597 {
start:
  %_3 = alloca ptr, align 8
  call void @llvm.dbg.declare(metadata ptr %args, metadata !2601, metadata !DIExpression()), !dbg !2602
  store ptr %args, ptr %_3, align 8, !dbg !2603
  %0 = load ptr, ptr %_3, align 8, !dbg !2604, !nonnull !27, !align !1034, !noundef !27
; call theo::interrupts::without_interrupts
  call void @_ZN4theo10interrupts18without_interrupts17hcc4ec732711585adE(ptr align 8 %0) #9, !dbg !2604
  ret void, !dbg !2605
}

; theo::peripherals::_print::{{closure}}
; Function Attrs: inlinehint noredzone nounwind
define internal void @"_ZN4theo11peripherals6_print28_$u7b$$u7b$closure$u7d$$u7d$17hcf8e8944eb3a48b7E"(ptr align 8 %0) unnamed_addr #0 !dbg !2606 {
start:
  %self.dbg.spill.i2 = alloca ptr, align 8
  %_3.i = alloca i8, align 1
  %self.dbg.spill.i.i = alloca ptr, align 8
  %self.dbg.spill.i1 = alloca ptr, align 8
  %_7.i = alloca i8, align 1
  %_6.i = alloca i8, align 1
  %_4.i = alloca { i8, i8 }, align 1
  %1 = alloca { ptr, ptr }, align 8
  %self.dbg.spill.i = alloca ptr, align 8
  %2 = alloca { ptr, ptr }, align 8
  %_10 = alloca %"core::fmt::Arguments<'_>", align 8
  %_6 = alloca { ptr, ptr }, align 8
  %_1 = alloca ptr, align 8
  store ptr %0, ptr %_1, align 8
  call void @llvm.dbg.declare(metadata ptr %_1, metadata !2608, metadata !DIExpression(DW_OP_deref)), !dbg !2609
; call <theo::peripherals::VGA_DISPLAY_IN_TEXT_MODE as core::ops::deref::Deref>::deref
  %_8 = call align 8 ptr @"_ZN87_$LT$theo..peripherals..VGA_DISPLAY_IN_TEXT_MODE$u20$as$u20$core..ops..deref..Deref$GT$5deref17h0df94329f240766cE"(ptr align 1 @_ZN4theo11peripherals24VGA_DISPLAY_IN_TEXT_MODE17h8715e970722ff4a1E) #9, !dbg !2610
  store ptr %_8, ptr %self.dbg.spill.i, align 8
  call void @llvm.dbg.declare(metadata ptr %self.dbg.spill.i, metadata !2611, metadata !DIExpression()), !dbg !2616
  store ptr %_8, ptr %self.dbg.spill.i1, align 8
  call void @llvm.dbg.declare(metadata ptr %self.dbg.spill.i1, metadata !2618, metadata !DIExpression()), !dbg !2624
  br label %bb1.i, !dbg !2626

bb1.i:                                            ; preds = %bb4.i, %start
  store i8 2, ptr %_6.i, align 1, !dbg !2627
  store i8 0, ptr %_7.i, align 1, !dbg !2628
  %3 = load i8, ptr %_6.i, align 1, !dbg !2629, !range !1633, !noundef !27
  %4 = load i8, ptr %_7.i, align 1, !dbg !2629, !range !1633, !noundef !27
; call core::sync::atomic::AtomicBool::compare_exchange_weak
  %5 = call { i8, i8 } @_ZN4core4sync6atomic10AtomicBool21compare_exchange_weak17hcbb30a4ec771e99dE(ptr align 1 %_8, i1 zeroext false, i1 zeroext true, i8 %3, i8 %4) #9, !dbg !2629
  store { i8, i8 } %5, ptr %_4.i, align 1, !dbg !2629
; call core::result::Result<T,E>::is_err
  %_2.i = call zeroext i1 @"_ZN4core6result19Result$LT$T$C$E$GT$6is_err17h0c98013ef9a12918E"(ptr align 1 %_4.i) #9, !dbg !2629
  br i1 %_2.i, label %bb4.i, label %"_ZN4spin5mutex4spin22SpinMutex$LT$T$C$R$GT$4lock17h3270a5d4d155704eE.exit", !dbg !2629

bb4.i:                                            ; preds = %bb6.i, %bb1.i
  store ptr %_8, ptr %self.dbg.spill.i2, align 8
  call void @llvm.dbg.declare(metadata ptr %self.dbg.spill.i2, metadata !2630, metadata !DIExpression()), !dbg !2635
  store i8 0, ptr %_3.i, align 1, !dbg !2637
  %6 = load i8, ptr %_3.i, align 1, !dbg !2638, !range !1633, !noundef !27
; call core::sync::atomic::AtomicBool::load
  %7 = call zeroext i1 @_ZN4core4sync6atomic10AtomicBool4load17h12b56d04b138d3bdE(ptr align 1 %_8, i8 %6) #9, !dbg !2638
  br i1 %7, label %bb6.i, label %bb1.i, !dbg !2639

bb6.i:                                            ; preds = %bb4.i
; call core::sync::atomic::spin_loop_hint
  call void @_ZN4core4sync6atomic14spin_loop_hint17h8000e312a9eff648E() #9, !dbg !2640
  br label %bb4.i, !dbg !2642

"_ZN4spin5mutex4spin22SpinMutex$LT$T$C$R$GT$4lock17h3270a5d4d155704eE.exit": ; preds = %bb1.i
  %_14.i = getelementptr inbounds %"spin::mutex::spin::SpinMutex<vga::Screen>", ptr %_8, i32 0, i32 3, !dbg !2643
  store ptr %_14.i, ptr %self.dbg.spill.i.i, align 8
  call void @llvm.dbg.declare(metadata ptr %self.dbg.spill.i.i, metadata !2644, metadata !DIExpression()), !dbg !2650
  store ptr %_8, ptr %1, align 8, !dbg !2652
  %8 = getelementptr inbounds { ptr, ptr }, ptr %1, i32 0, i32 1, !dbg !2652
  store ptr %_14.i, ptr %8, align 8, !dbg !2652
  %9 = load ptr, ptr %1, align 8, !dbg !2653, !nonnull !27, !align !853, !noundef !27
  %10 = getelementptr inbounds { ptr, ptr }, ptr %1, i32 0, i32 1, !dbg !2653
  %11 = load ptr, ptr %10, align 8, !dbg !2653, !noundef !27
  %12 = insertvalue { ptr, ptr } poison, ptr %9, 0, !dbg !2653
  %13 = insertvalue { ptr, ptr } %12, ptr %11, 1, !dbg !2653
  %_2.0.i = extractvalue { ptr, ptr } %13, 0, !dbg !2654
  %_2.1.i = extractvalue { ptr, ptr } %13, 1, !dbg !2654
  store ptr %_2.0.i, ptr %2, align 8, !dbg !2655
  %14 = getelementptr inbounds { ptr, ptr }, ptr %2, i32 0, i32 1, !dbg !2655
  store ptr %_2.1.i, ptr %14, align 8, !dbg !2655
  %15 = load ptr, ptr %2, align 8, !dbg !2656, !nonnull !27, !align !853, !noundef !27
  %16 = getelementptr inbounds { ptr, ptr }, ptr %2, i32 0, i32 1, !dbg !2656
  %17 = load ptr, ptr %16, align 8, !dbg !2656, !noundef !27
  %18 = insertvalue { ptr, ptr } poison, ptr %15, 0, !dbg !2656
  %19 = insertvalue { ptr, ptr } %18, ptr %17, 1, !dbg !2656
  store { ptr, ptr } %19, ptr %_6, align 8, !dbg !2610
; call <spin::mutex::MutexGuard<T> as core::ops::deref::DerefMut>::deref_mut
  %_4 = call align 8 ptr @"_ZN79_$LT$spin..mutex..MutexGuard$LT$T$GT$$u20$as$u20$core..ops..deref..DerefMut$GT$9deref_mut17hd17d750567e2bc9bE"(ptr align 8 %_6) #9, !dbg !2610
  %_11 = load ptr, ptr %_1, align 8, !dbg !2657, !nonnull !27, !align !1034, !noundef !27
  call void @llvm.memcpy.p0.p0.i64(ptr align 8 %_10, ptr align 8 %_11, i64 48, i1 false), !dbg !2657
; call core::fmt::Write::write_fmt
  %_2 = call zeroext i1 @_ZN4core3fmt5Write9write_fmt17h56654be2d115b4abE(ptr align 8 %_4, ptr %_10) #9, !dbg !2610
; call core::result::Result<T,E>::unwrap
  call void @"_ZN4core6result19Result$LT$T$C$E$GT$6unwrap17h3af94e0b619f6678E"(i1 zeroext %_2, ptr align 8 @alloc_ef0ad4aa3e7bddc68765732cec6c54a4) #9, !dbg !2610
; call core::ptr::drop_in_place<spin::mutex::MutexGuard<vga::Screen>>
  call void @"_ZN4core3ptr63drop_in_place$LT$spin..mutex..MutexGuard$LT$vga..Screen$GT$$GT$17had8209db7791bf75E"(ptr %_6) #9, !dbg !2658
  ret void, !dbg !2659
}

; theo::peripherals::initialize
; Function Attrs: noredzone nounwind
define internal void @_ZN4theo11peripherals10initialize17ha4992c1e7ee48b08E() unnamed_addr #1 !dbg !2660 {
start:
  ret void, !dbg !2661
}

; Function Attrs: noredzone noreturn nounwind
define dso_local void @_start() unnamed_addr #3 !dbg !2662 {
start:
  %_12 = alloca %"core::fmt::Arguments<'_>", align 8
  %_8 = alloca %"core::fmt::Arguments<'_>", align 8
  %_4 = alloca %"core::fmt::Arguments<'_>", align 8
; call theo::peripherals::initialize
  call void @_ZN4theo11peripherals10initialize17ha4992c1e7ee48b08E() #9, !dbg !2663
; call theo::interrupts::initialize
  call void @_ZN4theo10interrupts10initialize17h0d76291f53109971E() #9, !dbg !2664
; call core::fmt::Arguments::new_v1
  call void @_ZN4core3fmt9Arguments6new_v117hc523a9f23c30a71aE(ptr sret(%"core::fmt::Arguments<'_>") %_4, ptr align 8 @alloc_82782b198e1ee0ea5d392793684ed2ab, i64 1, ptr align 8 @alloc_513570631223a12912d85da2bec3b15a, i64 0) #9, !dbg !2665
; call theo::peripherals::_print
  call void @_ZN4theo11peripherals6_print17h1f428ae154c83db7E(ptr %_4) #9, !dbg !2665
; call core::fmt::Arguments::new_v1
  call void @_ZN4core3fmt9Arguments6new_v117hc523a9f23c30a71aE(ptr sret(%"core::fmt::Arguments<'_>") %_8, ptr align 8 @alloc_e68acb5e79b62d11d1b5f7f78ea76060, i64 1, ptr align 8 @alloc_513570631223a12912d85da2bec3b15a, i64 0) #9, !dbg !2666
; call theo::peripherals::_print
  call void @_ZN4theo11peripherals6_print17h1f428ae154c83db7E(ptr %_8) #9, !dbg !2666
; call core::fmt::Arguments::new_v1
  call void @_ZN4core3fmt9Arguments6new_v117hc523a9f23c30a71aE(ptr sret(%"core::fmt::Arguments<'_>") %_12, ptr align 8 @alloc_704d68ff3020df52f56b6f7f0f1219ee, i64 1, ptr align 8 @alloc_513570631223a12912d85da2bec3b15a, i64 0) #9, !dbg !2667
; call theo::peripherals::_print
  call void @_ZN4theo11peripherals6_print17h1f428ae154c83db7E(ptr %_12) #9, !dbg !2667
; call theo::_start::stack_overflow
  call void @_ZN4theo6_start14stack_overflow17hfa1bec1bdf5178faE() #9, !dbg !2668
  br label %bb9, !dbg !2668

bb9:                                              ; preds = %bb9, %start
; call x86_64::instructions::hlt
  call void @_ZN6x86_6412instructions3hlt17h10737fba25f887c6E() #9, !dbg !2669
  br label %bb9, !dbg !2669
}

; Function Attrs: noredzone noreturn nounwind
define hidden void @rust_begin_unwind(ptr align 8 %0) unnamed_addr #3 !dbg !2670 {
start:
  %f.dbg.spill.i.i = alloca ptr, align 8
  %x.dbg.spill.i.i = alloca ptr, align 8
  %1 = alloca { ptr, ptr }, align 8
  %x.dbg.spill.i = alloca ptr, align 8
  %width.dbg.spill.i = alloca { i64, i64 }, align 8
  %precision.dbg.spill.i = alloca { i64, i64 }, align 8
  %flags.dbg.spill.i = alloca i32, align 4
  %align.dbg.spill.i = alloca i8, align 1
  %fill.dbg.spill.i = alloca i32, align 4
  %position.dbg.spill.i = alloca i64, align 8
  %_16 = alloca { i64, i64 }, align 8
  %_15 = alloca { i64, i64 }, align 8
  %_14 = alloca i8, align 1
  %_13 = alloca %"core::fmt::rt::Placeholder", align 8
  %_12 = alloca [1 x %"core::fmt::rt::Placeholder"], align 8
  %_7 = alloca [1 x { ptr, ptr }], align 8
  %_3 = alloca %"core::fmt::Arguments<'_>", align 8
  %panic_info = alloca ptr, align 8
  store ptr %0, ptr %panic_info, align 8
  call void @llvm.dbg.declare(metadata ptr %panic_info, metadata !2674, metadata !DIExpression()), !dbg !2675
  store ptr %panic_info, ptr %x.dbg.spill.i, align 8
  call void @llvm.dbg.declare(metadata ptr %x.dbg.spill.i, metadata !2676, metadata !DIExpression()), !dbg !2683
  store ptr %panic_info, ptr %x.dbg.spill.i.i, align 8
  call void @llvm.dbg.declare(metadata ptr %x.dbg.spill.i.i, metadata !2685, metadata !DIExpression()), !dbg !2692
  store ptr @"_ZN42_$LT$$RF$T$u20$as$u20$core..fmt..Debug$GT$3fmt17h229fb95b0e890388E", ptr %f.dbg.spill.i.i, align 8
  call void @llvm.dbg.declare(metadata ptr %f.dbg.spill.i.i, metadata !2691, metadata !DIExpression()), !dbg !2694
  store ptr %panic_info, ptr %1, align 8, !dbg !2695
  %2 = getelementptr inbounds { ptr, ptr }, ptr %1, i32 0, i32 1, !dbg !2695
  store ptr @"_ZN42_$LT$$RF$T$u20$as$u20$core..fmt..Debug$GT$3fmt17h229fb95b0e890388E", ptr %2, align 8, !dbg !2695
  %3 = load ptr, ptr %1, align 8, !dbg !2696, !nonnull !27, !align !853, !noundef !27
  %4 = getelementptr inbounds { ptr, ptr }, ptr %1, i32 0, i32 1, !dbg !2696
  %5 = load ptr, ptr %4, align 8, !dbg !2696, !nonnull !27, !noundef !27
  %6 = insertvalue { ptr, ptr } poison, ptr %3, 0, !dbg !2696
  %7 = insertvalue { ptr, ptr } %6, ptr %5, 1, !dbg !2696
  %8 = insertvalue { ptr, ptr } poison, ptr %3, 0, !dbg !2697
  %9 = insertvalue { ptr, ptr } %8, ptr %5, 1, !dbg !2697
  %_8.0 = extractvalue { ptr, ptr } %9, 0, !dbg !2698
  %_8.1 = extractvalue { ptr, ptr } %9, 1, !dbg !2698
  %10 = getelementptr inbounds [1 x { ptr, ptr }], ptr %_7, i64 0, i64 0, !dbg !2698
  %11 = getelementptr inbounds { ptr, ptr }, ptr %10, i32 0, i32 0, !dbg !2698
  store ptr %_8.0, ptr %11, align 8, !dbg !2698
  %12 = getelementptr inbounds { ptr, ptr }, ptr %10, i32 0, i32 1, !dbg !2698
  store ptr %_8.1, ptr %12, align 8, !dbg !2698
  store i8 3, ptr %_14, align 1, !dbg !2698
  store i64 2, ptr %_15, align 8, !dbg !2698
  store i64 2, ptr %_16, align 8, !dbg !2698
  %13 = load i8, ptr %_14, align 1, !dbg !2698, !range !2699, !noundef !27
  %14 = getelementptr inbounds { i64, i64 }, ptr %_15, i32 0, i32 0, !dbg !2698
  %15 = load i64, ptr %14, align 8, !dbg !2698, !range !2700, !noundef !27
  %16 = getelementptr inbounds { i64, i64 }, ptr %_15, i32 0, i32 1, !dbg !2698
  %17 = load i64, ptr %16, align 8, !dbg !2698
  %18 = getelementptr inbounds { i64, i64 }, ptr %_16, i32 0, i32 0, !dbg !2698
  %19 = load i64, ptr %18, align 8, !dbg !2698, !range !2700, !noundef !27
  %20 = getelementptr inbounds { i64, i64 }, ptr %_16, i32 0, i32 1, !dbg !2698
  %21 = load i64, ptr %20, align 8, !dbg !2698
  store i64 0, ptr %position.dbg.spill.i, align 8
  call void @llvm.dbg.declare(metadata ptr %position.dbg.spill.i, metadata !2701, metadata !DIExpression()), !dbg !2711
  store i32 32, ptr %fill.dbg.spill.i, align 4
  call void @llvm.dbg.declare(metadata ptr %fill.dbg.spill.i, metadata !2706, metadata !DIExpression()), !dbg !2713
  store i8 %13, ptr %align.dbg.spill.i, align 1
  call void @llvm.dbg.declare(metadata ptr %align.dbg.spill.i, metadata !2707, metadata !DIExpression()), !dbg !2714
  store i32 4, ptr %flags.dbg.spill.i, align 4
  call void @llvm.dbg.declare(metadata ptr %flags.dbg.spill.i, metadata !2708, metadata !DIExpression()), !dbg !2715
  store i64 %15, ptr %precision.dbg.spill.i, align 8
  %22 = getelementptr inbounds { i64, i64 }, ptr %precision.dbg.spill.i, i32 0, i32 1
  store i64 %17, ptr %22, align 8
  call void @llvm.dbg.declare(metadata ptr %precision.dbg.spill.i, metadata !2709, metadata !DIExpression()), !dbg !2716
  store i64 %19, ptr %width.dbg.spill.i, align 8
  %23 = getelementptr inbounds { i64, i64 }, ptr %width.dbg.spill.i, i32 0, i32 1
  store i64 %21, ptr %23, align 8
  call void @llvm.dbg.declare(metadata ptr %width.dbg.spill.i, metadata !2710, metadata !DIExpression()), !dbg !2717
  %24 = getelementptr inbounds %"core::fmt::rt::Placeholder", ptr %_13, i32 0, i32 2, !dbg !2718
  store i64 0, ptr %24, align 8, !dbg !2718
  %25 = getelementptr inbounds %"core::fmt::rt::Placeholder", ptr %_13, i32 0, i32 3, !dbg !2718
  store i32 32, ptr %25, align 8, !dbg !2718
  %26 = getelementptr inbounds %"core::fmt::rt::Placeholder", ptr %_13, i32 0, i32 5, !dbg !2718
  store i8 %13, ptr %26, align 8, !dbg !2718
  %27 = getelementptr inbounds %"core::fmt::rt::Placeholder", ptr %_13, i32 0, i32 4, !dbg !2718
  store i32 4, ptr %27, align 4, !dbg !2718
  store i64 %15, ptr %_13, align 8, !dbg !2718
  %28 = getelementptr inbounds { i64, i64 }, ptr %_13, i32 0, i32 1, !dbg !2718
  store i64 %17, ptr %28, align 8, !dbg !2718
  %29 = getelementptr inbounds %"core::fmt::rt::Placeholder", ptr %_13, i32 0, i32 1, !dbg !2718
  store i64 %19, ptr %29, align 8, !dbg !2718
  %30 = getelementptr inbounds { i64, i64 }, ptr %29, i32 0, i32 1, !dbg !2718
  store i64 %21, ptr %30, align 8, !dbg !2718
  %31 = getelementptr inbounds [1 x %"core::fmt::rt::Placeholder"], ptr %_12, i64 0, i64 0, !dbg !2698
  call void @llvm.memcpy.p0.p0.i64(ptr align 8 %31, ptr align 8 %_13, i64 56, i1 false), !dbg !2698
; call core::fmt::Arguments::new_v1_formatted
  call void @_ZN4core3fmt9Arguments16new_v1_formatted17h41e0b514e092532bE(ptr sret(%"core::fmt::Arguments<'_>") %_3, ptr align 8 @alloc_4ed11f17954caf7854f80f02ae34907e, i64 2, ptr align 8 %_7, i64 1, ptr align 8 %_12, i64 1) #9, !dbg !2698
; call theo::peripherals::_print
  call void @_ZN4theo11peripherals6_print17h1f428ae154c83db7E(ptr %_3) #9, !dbg !2698
  call void @llvm.trap(), !dbg !2719
  unreachable, !dbg !2719
}

; <theo::interrupts::SAFE_IDT as core::ops::deref::Deref>::deref
; Function Attrs: noredzone nounwind
define internal align 16 ptr @"_ZN70_$LT$theo..interrupts..SAFE_IDT$u20$as$u20$core..ops..deref..Deref$GT$5deref17h66f1750d3ba81f89E"(ptr align 1 %self) unnamed_addr #1 !dbg !2720 {
start:
  %self.dbg.spill.i.i = alloca ptr, align 8
  %self.dbg.spill = alloca ptr, align 8
  store ptr %self, ptr %self.dbg.spill, align 8
  call void @llvm.dbg.declare(metadata ptr %self.dbg.spill, metadata !2725, metadata !DIExpression()), !dbg !2726
  store ptr @"_ZN70_$LT$theo..interrupts..SAFE_IDT$u20$as$u20$core..ops..deref..Deref$GT$5deref11__stability4LAZY17hf7bb39a147a3fe7bE", ptr %self.dbg.spill.i.i, align 8
  call void @llvm.dbg.declare(metadata ptr %self.dbg.spill.i.i, metadata !2727, metadata !DIExpression()), !dbg !2734
  call void @llvm.dbg.declare(metadata ptr undef, metadata !2733, metadata !DIExpression()), !dbg !2740
; call spin::once::Once<T>::call_once
  %0 = call align 16 ptr @"_ZN4spin4once13Once$LT$T$GT$9call_once17h453edcaa817b673fE"(ptr align 16 @"_ZN70_$LT$theo..interrupts..SAFE_IDT$u20$as$u20$core..ops..deref..Deref$GT$5deref11__stability4LAZY17hf7bb39a147a3fe7bE") #9, !dbg !2741
  ret ptr %0, !dbg !2742
}

; <theo::peripherals::VGA_DISPLAY_IN_TEXT_MODE as core::ops::deref::Deref>::deref
; Function Attrs: noredzone nounwind
define internal align 8 ptr @"_ZN87_$LT$theo..peripherals..VGA_DISPLAY_IN_TEXT_MODE$u20$as$u20$core..ops..deref..Deref$GT$5deref17h0df94329f240766cE"(ptr align 1 %self) unnamed_addr #1 !dbg !2743 {
start:
  %self.dbg.spill.i.i = alloca ptr, align 8
  %self.dbg.spill = alloca ptr, align 8
  store ptr %self, ptr %self.dbg.spill, align 8
  call void @llvm.dbg.declare(metadata ptr %self.dbg.spill, metadata !2748, metadata !DIExpression()), !dbg !2749
  store ptr @"_ZN87_$LT$theo..peripherals..VGA_DISPLAY_IN_TEXT_MODE$u20$as$u20$core..ops..deref..Deref$GT$5deref11__stability4LAZY17h5da30a1f90e1084aE", ptr %self.dbg.spill.i.i, align 8
  call void @llvm.dbg.declare(metadata ptr %self.dbg.spill.i.i, metadata !2750, metadata !DIExpression()), !dbg !2757
  call void @llvm.dbg.declare(metadata ptr undef, metadata !2756, metadata !DIExpression()), !dbg !2763
; call spin::once::Once<T>::call_once
  %0 = call align 8 ptr @"_ZN4spin4once13Once$LT$T$GT$9call_once17h2a5aecb487c1bf48E"(ptr align 8 @"_ZN87_$LT$theo..peripherals..VGA_DISPLAY_IN_TEXT_MODE$u20$as$u20$core..ops..deref..Deref$GT$5deref11__stability4LAZY17h5da30a1f90e1084aE") #9, !dbg !2764
  ret ptr %0, !dbg !2765
}

; <theo::peripherals::KEYBOARD as core::ops::deref::Deref>::deref
; Function Attrs: noredzone nounwind
define internal align 2 ptr @"_ZN71_$LT$theo..peripherals..KEYBOARD$u20$as$u20$core..ops..deref..Deref$GT$5deref17h648c0b8820ae3af3E"(ptr align 1 %self) unnamed_addr #1 !dbg !2766 {
start:
  %self.dbg.spill.i.i = alloca ptr, align 8
  %self.dbg.spill = alloca ptr, align 8
  store ptr %self, ptr %self.dbg.spill, align 8
  call void @llvm.dbg.declare(metadata ptr %self.dbg.spill, metadata !2771, metadata !DIExpression()), !dbg !2772
  store ptr @"_ZN71_$LT$theo..peripherals..KEYBOARD$u20$as$u20$core..ops..deref..Deref$GT$5deref11__stability4LAZY17h04e3159a77f9ab3dE", ptr %self.dbg.spill.i.i, align 8
  call void @llvm.dbg.declare(metadata ptr %self.dbg.spill.i.i, metadata !2773, metadata !DIExpression()), !dbg !2780
  call void @llvm.dbg.declare(metadata ptr undef, metadata !2779, metadata !DIExpression()), !dbg !2786
; call spin::once::Once<T>::call_once
  %0 = call align 2 ptr @"_ZN4spin4once13Once$LT$T$GT$9call_once17h7a816912d4ab2a55E"(ptr align 8 @"_ZN71_$LT$theo..peripherals..KEYBOARD$u20$as$u20$core..ops..deref..Deref$GT$5deref11__stability4LAZY17h04e3159a77f9ab3dE") #9, !dbg !2787
  ret ptr %0, !dbg !2788
}

; theo::_start::stack_overflow
; Function Attrs: noredzone nounwind
define internal void @_ZN4theo6_start14stack_overflow17hfa1bec1bdf5178faE() unnamed_addr #1 !dbg !2789 {
start:
; call theo::_start::stack_overflow
  call void @_ZN4theo6_start14stack_overflow17hfa1bec1bdf5178faE() #9, !dbg !2791
  ret void, !dbg !2792
}

; Function Attrs: nocallback nofree nosync nounwind speculatable willreturn memory(none)
declare void @llvm.dbg.declare(metadata, metadata, metadata) #4

; Function Attrs: nocallback nofree nosync nounwind willreturn memory(none)
declare i1 @llvm.expect.i1(i1, i1) #5

; core::panicking::panic
; Function Attrs: cold noinline noredzone noreturn nounwind
declare void @_ZN4core9panicking5panic17hee5d285669f2f2eaE(ptr align 1, i64, ptr align 8) unnamed_addr #6

; core::panicking::panic_bounds_check
; Function Attrs: cold noinline noredzone noreturn nounwind
declare void @_ZN4core9panicking18panic_bounds_check17hba7ddab648238e64E(i64, i64, ptr align 8) unnamed_addr #6

; core::panicking::panic_fmt
; Function Attrs: cold noinline noredzone noreturn nounwind
declare void @_ZN4core9panicking9panic_fmt17hdd6269d09ded55c6E(ptr, ptr align 8) unnamed_addr #6

; Function Attrs: nocallback nofree nounwind willreturn memory(argmem: readwrite)
declare void @llvm.memcpy.p0.p0.i64(ptr noalias nocapture writeonly, ptr noalias nocapture readonly, i64, i1 immarg) #7

; pc_keyboard::Ps2Decoder::new
; Function Attrs: noredzone nounwind
declare { i16, i8 } @_ZN11pc_keyboard10Ps2Decoder3new17hf20e7314c47c7c66E() unnamed_addr #1

; <core::panic::panic_info::PanicInfo as core::fmt::Debug>::fmt
; Function Attrs: noredzone nounwind
declare zeroext i1 @"_ZN71_$LT$core..panic..panic_info..PanicInfo$u20$as$u20$core..fmt..Debug$GT$3fmt17hcec14fee2e60e320E"(ptr align 8, ptr align 8) unnamed_addr #1

; <&T as core::fmt::Display>::fmt
; Function Attrs: noredzone nounwind
declare zeroext i1 @"_ZN44_$LT$$RF$T$u20$as$u20$core..fmt..Display$GT$3fmt17h2ef6c62611e54bd4E"(ptr align 8, ptr align 8) unnamed_addr #1

; core::fmt::num::imp::<impl core::fmt::Display for usize>::fmt
; Function Attrs: noredzone nounwind
declare zeroext i1 @"_ZN4core3fmt3num3imp54_$LT$impl$u20$core..fmt..Display$u20$for$u20$usize$GT$3fmt17h70a5820d5191e3efE"(ptr align 8, ptr align 8) unnamed_addr #1

; core::fmt::num::<impl core::fmt::UpperHex for u32>::fmt
; Function Attrs: noredzone nounwind
declare zeroext i1 @"_ZN4core3fmt3num53_$LT$impl$u20$core..fmt..UpperHex$u20$for$u20$u32$GT$3fmt17hdc2678856f438f94E"(ptr align 4, ptr align 8) unnamed_addr #1

; Function Attrs: nocallback nofree nounwind willreturn memory(argmem: write)
declare void @llvm.memset.p0.i64(ptr nocapture writeonly, i8, i64, i1 immarg) #8

; <vga::Screen as core::fmt::Write>::write_str
; Function Attrs: noredzone nounwind
declare zeroext i1 @"_ZN48_$LT$vga..Screen$u20$as$u20$core..fmt..Write$GT$9write_str17h4afa8fca70201c0bE"(ptr align 8, ptr align 1, i64) unnamed_addr #1

; core::fmt::write
; Function Attrs: noredzone nounwind
declare zeroext i1 @_ZN4core3fmt5write17he95e5234fc57086cE(ptr align 1, ptr align 8, ptr) unnamed_addr #1

; Function Attrs: nocallback nofree nosync nounwind speculatable willreturn memory(none)
declare { i64, i1 } @llvm.uadd.with.overflow.i64(i64, i64) #4

; core::slice::index::<impl core::ops::index::IndexMut<I> for [T]>::index_mut
; Function Attrs: inlinehint noredzone nounwind
declare { ptr, i64 } @"_ZN4core5slice5index77_$LT$impl$u20$core..ops..index..IndexMut$LT$I$GT$$u20$for$u20$$u5b$T$u5d$$GT$9index_mut17h77797f7ecd5682a1E"(ptr align 1, i64, ptr align 8) unnamed_addr #0

; core::slice::index::<impl core::ops::index::IndexMut<I> for [T]>::index_mut
; Function Attrs: inlinehint noredzone nounwind
declare { ptr, i64 } @"_ZN4core5slice5index77_$LT$impl$u20$core..ops..index..IndexMut$LT$I$GT$$u20$for$u20$$u5b$T$u5d$$GT$9index_mut17ha15213f3a3f22fa3E"(ptr align 1, i64, i64, ptr align 8) unnamed_addr #0

; core::panicking::panic_nounwind
; Function Attrs: cold noinline noredzone noreturn nounwind
declare void @_ZN4core9panicking14panic_nounwind17h8eea4b7bcc6cf983E(ptr align 1, i64) unnamed_addr #6

; core::sync::atomic::atomic_compare_exchange_weak
; Function Attrs: inlinehint noredzone nounwind
declare { i8, i8 } @_ZN4core4sync6atomic28atomic_compare_exchange_weak17h369dbb057fa1495dE(ptr, i8, i8, i8, i8) unnamed_addr #0

; core::sync::atomic::atomic_load
; Function Attrs: inlinehint noredzone nounwind
declare i8 @_ZN4core4sync6atomic11atomic_load17h8a8fb59e4dd3c8b2E(ptr, i8) unnamed_addr #0

; core::sync::atomic::atomic_store
; Function Attrs: inlinehint noredzone nounwind
declare void @_ZN4core4sync6atomic12atomic_store17h34cca5a6e9887706E(ptr, i8, i8) unnamed_addr #0

; core::sync::atomic::atomic_compare_exchange
; Function Attrs: inlinehint noredzone nounwind
declare { i64, i64 } @_ZN4core4sync6atomic23atomic_compare_exchange17ha37c44aa902b6990E(ptr, i64, i64, i8, i8) unnamed_addr #0

; core::sync::atomic::atomic_load
; Function Attrs: inlinehint noredzone nounwind
declare i64 @_ZN4core4sync6atomic11atomic_load17h9c1d6ac9a838f0d1E(ptr, i8) unnamed_addr #0

; core::sync::atomic::atomic_store
; Function Attrs: inlinehint noredzone nounwind
declare void @_ZN4core4sync6atomic12atomic_store17h20b0bad03211a0d5E(ptr, i64, i8) unnamed_addr #0

; Function Attrs: nounwind
declare void @llvm.x86.sse2.pause() unnamed_addr #9

; core::ptr::drop_in_place<spin::once::Finish>
; Function Attrs: noredzone nounwind
declare void @"_ZN4core3ptr39drop_in_place$LT$spin..once..Finish$GT$17h5756acb5b3b0319fE"(ptr) unnamed_addr #1

; core::result::Result<T,E>::is_err
; Function Attrs: inlinehint noredzone nounwind
declare zeroext i1 @"_ZN4core6result19Result$LT$T$C$E$GT$6is_err17h0c98013ef9a12918E"(ptr align 1) unnamed_addr #0

; Function Attrs: nocallback nofree nosync nounwind speculatable willreturn memory(none)
declare { i16, i1 } @llvm.uadd.with.overflow.i16(i16, i16) #4

; <u16 as bit_field::BitField>::set_bits
; Function Attrs: inlinehint noredzone nounwind
declare align 2 ptr @"_ZN43_$LT$u16$u20$as$u20$bit_field..BitField$GT$8set_bits17h1e815ced6cbbe13bE"(ptr align 2, i64, i64, i16) unnamed_addr #0

; x86_64::structures::idt::Entry<F>::set_handler_addr
; Function Attrs: inlinehint noredzone nounwind
declare align 2 ptr @"_ZN6x86_6410structures3idt14Entry$LT$F$GT$16set_handler_addr17hae6f0d8590c1cc77E"(ptr align 4, i64) unnamed_addr #0

; x86_64::instructions::segmentation::<impl x86_64::registers::segmentation::Segment for x86_64::registers::segmentation::CS>::get_reg
; Function Attrs: noredzone nounwind
declare i16 @"_ZN6x86_6412instructions12segmentation106_$LT$impl$u20$x86_64..registers..segmentation..Segment$u20$for$u20$x86_64..registers..segmentation..CS$GT$7get_reg17hf62256df1218cde2E"() unnamed_addr #1

; x86_64::structures::idt::Entry<F>::missing
; Function Attrs: inlinehint noredzone nounwind
declare void @"_ZN6x86_6410structures3idt14Entry$LT$F$GT$7missing17h27cd2da19d33ca20E"(ptr sret(%"x86_64::structures::idt::Entry<extern \22x86-interrupt\22 fn(x86_64::structures::idt::InterruptStackFrame)>")) unnamed_addr #0

; x86_64::structures::idt::Entry<F>::missing
; Function Attrs: inlinehint noredzone nounwind
declare void @"_ZN6x86_6410structures3idt14Entry$LT$F$GT$7missing17h196c9ae0497cb8f1E"(ptr sret(%"x86_64::structures::idt::Entry<extern \22x86-interrupt\22 fn(x86_64::structures::idt::InterruptStackFrame, u64) -> !>")) unnamed_addr #0

; x86_64::structures::idt::Entry<F>::missing
; Function Attrs: inlinehint noredzone nounwind
declare void @"_ZN6x86_6410structures3idt14Entry$LT$F$GT$7missing17h2979edd326851995E"(ptr sret(%"x86_64::structures::idt::Entry<extern \22x86-interrupt\22 fn(x86_64::structures::idt::InterruptStackFrame, u64)>")) unnamed_addr #0

; x86_64::structures::idt::Entry<F>::missing
; Function Attrs: inlinehint noredzone nounwind
declare void @"_ZN6x86_6410structures3idt14Entry$LT$F$GT$7missing17h6e1e50fb465577f9E"(ptr sret(%"x86_64::structures::idt::Entry<extern \22x86-interrupt\22 fn(x86_64::structures::idt::InterruptStackFrame, x86_64::structures::idt::PageFaultErrorCode)>")) unnamed_addr #0

; x86_64::structures::idt::Entry<F>::missing
; Function Attrs: inlinehint noredzone nounwind
declare void @"_ZN6x86_6410structures3idt14Entry$LT$F$GT$7missing17haf5422573b534f02E"(ptr sret(%"x86_64::structures::idt::Entry<extern \22x86-interrupt\22 fn(x86_64::structures::idt::InterruptStackFrame) -> !>")) unnamed_addr #0

; core::result::Result<T,E>::expect
; Function Attrs: inlinehint noredzone nounwind
declare i64 @"_ZN4core6result19Result$LT$T$C$E$GT$6expect17hcdbe1e24b9c55310E"(i64, i64, ptr align 1, i64, ptr align 8) unnamed_addr #0

; <u64 as bit_field::BitField>::get_bits
; Function Attrs: inlinehint noredzone nounwind
declare i64 @"_ZN43_$LT$u64$u20$as$u20$bit_field..BitField$GT$8get_bits17haf1655a9fa6aeb6eE"(ptr align 8, i64, i64) unnamed_addr #0

; pc_keyboard::scancodes::set1::ScancodeSet1::new
; Function Attrs: noredzone nounwind
declare i8 @_ZN11pc_keyboard9scancodes4set112ScancodeSet13new17h76ab4b14211b53ffE() unnamed_addr #1

; cpu_interrupts::programmable_interface_controller::notify_end_of_timer_interrupt
; Function Attrs: noredzone nounwind
declare void @_ZN14cpu_interrupts33programmable_interface_controller29notify_end_of_timer_interrupt17h5a8121df340b4e70E() unnamed_addr #1

; cpu_interrupts::global_descriptor_table::initialize
; Function Attrs: noredzone nounwind
declare void @_ZN14cpu_interrupts23global_descriptor_table10initialize17h15164a50d65e225fE() unnamed_addr #1

; cpu_interrupts::interrupt_descriptor_table::SafeInterruptDescriptorTable::load
; Function Attrs: noredzone nounwind
