; ModuleID = '3l64ifo9h7mxks0t'
source_filename = "3l64ifo9h7mxks0t"
target datalayout = "e-m:e-i64:64-f80:128-n8:16:32:64-S128"
target triple = "x86_64-obuasi-unknown-none"

%"core::fmt::Arguments<'_>" = type { { ptr, i64 }, { ptr, i64 }, { ptr, i64 } }
%"x86_64::structures::idt::InterruptDescriptorTable" = type { %"x86_64::structures::idt::Entry<extern \22x86-interrupt\22 fn(x86_64::structures::idt::InterruptStackFrame)>", %"x86_64::structures::idt::Entry<extern \22x86-interrupt\22 fn(x86_64::structures::idt::InterruptStackFrame)>", %"x86_64::structures::idt::Entry<extern \22x86-interrupt\22 fn(x86_64::structures::idt::InterruptStackFrame)>", %"x86_64::structures::idt::Entry<extern \22x86-interrupt\22 fn(x86_64::structures::idt::InterruptStackFrame)>", %"x86_64::structures::idt::Entry<extern \22x86-interrupt\22 fn(x86_64::structures::idt::InterruptStackFrame)>", %"x86_64::structures::idt::Entry<extern \22x86-interrupt\22 fn(x86_64::structures::idt::InterruptStackFrame)>", %"x86_64::structures::idt::Entry<extern \22x86-interrupt\22 fn(x86_64::structures::idt::InterruptStackFrame)>", %"x86_64::structures::idt::Entry<extern \22x86-interrupt\22 fn(x86_64::structures::idt::InterruptStackFrame)>", %"x86_64::structures::idt::Entry<extern \22x86-interrupt\22 fn(x86_64::structures::idt::InterruptStackFrame, u64) -> !>", %"x86_64::structures::idt::Entry<extern \22x86-interrupt\22 fn(x86_64::structures::idt::InterruptStackFrame)>", %"x86_64::structures::idt::Entry<extern \22x86-interrupt\22 fn(x86_64::structures::idt::InterruptStackFrame, u64)>", %"x86_64::structures::idt::Entry<extern \22x86-interrupt\22 fn(x86_64::structures::idt::InterruptStackFrame, u64)>", %"x86_64::structures::idt::Entry<extern \22x86-interrupt\22 fn(x86_64::structures::idt::InterruptStackFrame, u64)>", %"x86_64::structures::idt::Entry<extern \22x86-interrupt\22 fn(x86_64::structures::idt::InterruptStackFrame, u64)>", %"x86_64::structures::idt::Entry<extern \22x86-interrupt\22 fn(x86_64::structures::idt::InterruptStackFrame, x86_64::structures::idt::PageFaultErrorCode)>", %"x86_64::structures::idt::Entry<extern \22x86-interrupt\22 fn(x86_64::structures::idt::InterruptStackFrame)>", %"x86_64::structures::idt::Entry<extern \22x86-interrupt\22 fn(x86_64::structures::idt::InterruptStackFrame)>", %"x86_64::structures::idt::Entry<extern \22x86-interrupt\22 fn(x86_64::structures::idt::InterruptStackFrame, u64)>", %"x86_64::structures::idt::Entry<extern \22x86-interrupt\22 fn(x86_64::structures::idt::InterruptStackFrame) -> !>", %"x86_64::structures::idt::Entry<extern \22x86-interrupt\22 fn(x86_64::structures::idt::InterruptStackFrame)>", %"x86_64::structures::idt::Entry<extern \22x86-interrupt\22 fn(x86_64::structures::idt::InterruptStackFrame)>", [8 x %"x86_64::structures::idt::Entry<extern \22x86-interrupt\22 fn(x86_64::structures::idt::InterruptStackFrame)>"], %"x86_64::structures::idt::Entry<extern \22x86-interrupt\22 fn(x86_64::structures::idt::InterruptStackFrame, u64)>", %"x86_64::structures::idt::Entry<extern \22x86-interrupt\22 fn(x86_64::structures::idt::InterruptStackFrame, u64)>", %"x86_64::structures::idt::Entry<extern \22x86-interrupt\22 fn(x86_64::structures::idt::InterruptStackFrame)>", [224 x %"x86_64::structures::idt::Entry<extern \22x86-interrupt\22 fn(x86_64::structures::idt::InterruptStackFrame)>"] }
%"x86_64::structures::idt::Entry<extern \22x86-interrupt\22 fn(x86_64::structures::idt::InterruptStackFrame, u64) -> !>" = type { i16, i16, i16, i16, i32, i32, %"core::marker::PhantomData<extern \22x86-interrupt\22 fn(x86_64::structures::idt::InterruptStackFrame, u64) -> !>" }
%"core::marker::PhantomData<extern \22x86-interrupt\22 fn(x86_64::structures::idt::InterruptStackFrame, u64) -> !>" = type {}
%"x86_64::structures::idt::Entry<extern \22x86-interrupt\22 fn(x86_64::structures::idt::InterruptStackFrame, x86_64::structures::idt::PageFaultErrorCode)>" = type { i16, i16, i16, i16, i32, i32, %"core::marker::PhantomData<extern \22x86-interrupt\22 fn(x86_64::structures::idt::InterruptStackFrame, x86_64::structures::idt::PageFaultErrorCode)>" }
%"core::marker::PhantomData<extern \22x86-interrupt\22 fn(x86_64::structures::idt::InterruptStackFrame, x86_64::structures::idt::PageFaultErrorCode)>" = type {}
%"x86_64::structures::idt::Entry<extern \22x86-interrupt\22 fn(x86_64::structures::idt::InterruptStackFrame) -> !>" = type { i16, i16, i16, i16, i32, i32, %"core::marker::PhantomData<extern \22x86-interrupt\22 fn(x86_64::structures::idt::InterruptStackFrame) -> !>" }
%"core::marker::PhantomData<extern \22x86-interrupt\22 fn(x86_64::structures::idt::InterruptStackFrame) -> !>" = type {}
%"x86_64::structures::idt::Entry<extern \22x86-interrupt\22 fn(x86_64::structures::idt::InterruptStackFrame, u64)>" = type { i16, i16, i16, i16, i32, i32, %"core::marker::PhantomData<extern \22x86-interrupt\22 fn(x86_64::structures::idt::InterruptStackFrame, u64)>" }
%"core::marker::PhantomData<extern \22x86-interrupt\22 fn(x86_64::structures::idt::InterruptStackFrame, u64)>" = type {}
%"x86_64::structures::idt::Entry<extern \22x86-interrupt\22 fn(x86_64::structures::idt::InterruptStackFrame)>" = type { i16, i16, i16, i16, i32, i32, %"core::marker::PhantomData<extern \22x86-interrupt\22 fn(x86_64::structures::idt::InterruptStackFrame)>" }
%"core::marker::PhantomData<extern \22x86-interrupt\22 fn(x86_64::structures::idt::InterruptStackFrame)>" = type {}
%"pc_keyboard::DecodedKey" = type { i8, [7 x i8] }
%"core::option::Option<pc_keyboard::DecodedKey>" = type { i8, [7 x i8] }
%"pc_keyboard::EventDecoder<pc_keyboard::layouts::us104::Us104Key>" = type { %"pc_keyboard::layouts::us104::Us104Key", i8, %"pc_keyboard::Modifiers" }
%"pc_keyboard::layouts::us104::Us104Key" = type {}
%"pc_keyboard::Modifiers" = type { i8, i8, i8, i8, i8, i8, i8, i8 }
%"pc_keyboard::DecodedKey::RawKey" = type { [1 x i8], i8 }
%"pc_keyboard::Keyboard<pc_keyboard::layouts::us104::Us104Key, pc_keyboard::scancodes::set1::ScancodeSet1>" = type { { i16, i8 }, %"pc_keyboard::EventDecoder<pc_keyboard::layouts::us104::Us104Key>", i8 }
%"core::result::Result<core::option::Option<pc_keyboard::KeyEvent>, pc_keyboard::Error>" = type { i8, [1 x i8] }
%"core::fmt::rt::UnsafeArg" = type { {} }
%"spin::mutex::Mutex<keyboard::Keyboard<pc_keyboard::layouts::us104::Us104Key, pc_keyboard::scancodes::set1::ScancodeSet1>>" = type { %"spin::mutex::spin::SpinMutex<keyboard::Keyboard<pc_keyboard::layouts::us104::Us104Key, pc_keyboard::scancodes::set1::ScancodeSet1>>" }
%"spin::mutex::spin::SpinMutex<keyboard::Keyboard<pc_keyboard::layouts::us104::Us104Key, pc_keyboard::scancodes::set1::ScancodeSet1>>" = type { %"core::marker::PhantomData<spin::relax::Spin>", %"core::sync::atomic::AtomicBool", [1 x i8], %"core::cell::UnsafeCell<keyboard::Keyboard<pc_keyboard::layouts::us104::Us104Key, pc_keyboard::scancodes::set1::ScancodeSet1>>" }
%"core::marker::PhantomData<spin::relax::Spin>" = type {}
%"core::sync::atomic::AtomicBool" = type { i8 }
%"core::cell::UnsafeCell<keyboard::Keyboard<pc_keyboard::layouts::us104::Us104Key, pc_keyboard::scancodes::set1::ScancodeSet1>>" = type { %"keyboard::Keyboard<pc_keyboard::layouts::us104::Us104Key, pc_keyboard::scancodes::set1::ScancodeSet1>" }
%"keyboard::Keyboard<pc_keyboard::layouts::us104::Us104Key, pc_keyboard::scancodes::set1::ScancodeSet1>" = type { %"pc_keyboard::Keyboard<pc_keyboard::layouts::us104::Us104Key, pc_keyboard::scancodes::set1::ScancodeSet1>", i16 }
%"spin::mutex::Mutex<vga::Screen>" = type { %"spin::mutex::spin::SpinMutex<vga::Screen>" }
%"spin::mutex::spin::SpinMutex<vga::Screen>" = type { %"core::marker::PhantomData<spin::relax::Spin>", %"core::sync::atomic::AtomicBool", [7 x i8], %"core::cell::UnsafeCell<vga::Screen>" }
%"core::cell::UnsafeCell<vga::Screen>" = type { %"vga::Screen" }
%"vga::Screen" = type { ptr, i64, { i64, i64 }, { i64, i64 }, [80 x { i8, i8 }], i8, [7 x i8] }
%"cpu_interrupts::interrupt_descriptor_table::SafeInterruptDescriptorTable" = type { %"x86_64::structures::idt::InterruptDescriptorTable", i8, i8, i8, [13 x i8] }
%"core::option::Option<spin::mutex::Mutex<vga::Screen>>::Some" = type { [1 x i64], %"spin::mutex::Mutex<vga::Screen>" }
%"core::option::Option<spin::mutex::Mutex<keyboard::Keyboard<pc_keyboard::layouts::us104::Us104Key, pc_keyboard::scancodes::set1::ScancodeSet1>>>::Some" = type { [1 x i16], %"spin::mutex::Mutex<keyboard::Keyboard<pc_keyboard::layouts::us104::Us104Key, pc_keyboard::scancodes::set1::ScancodeSet1>>" }
%"core::option::Option<cpu_interrupts::interrupt_descriptor_table::SafeInterruptDescriptorTable>" = type { [4098 x i8], i8, [13 x i8] }
%"spin::once::Once<cpu_interrupts::interrupt_descriptor_table::SafeInterruptDescriptorTable>" = type { %"core::cell::UnsafeCell<core::option::Option<cpu_interrupts::interrupt_descriptor_table::SafeInterruptDescriptorTable>>", %"core::sync::atomic::AtomicUsize", [1 x i64] }
%"core::cell::UnsafeCell<core::option::Option<cpu_interrupts::interrupt_descriptor_table::SafeInterruptDescriptorTable>>" = type { %"core::option::Option<cpu_interrupts::interrupt_descriptor_table::SafeInterruptDescriptorTable>" }
%"core::sync::atomic::AtomicUsize" = type { i64 }
%"core::option::Option<spin::mutex::Mutex<vga::Screen>>" = type { i64, [28 x i64] }
%"spin::once::Once<spin::mutex::Mutex<vga::Screen>>" = type { %"core::sync::atomic::AtomicUsize", %"core::cell::UnsafeCell<core::option::Option<spin::mutex::Mutex<vga::Screen>>>" }
%"core::cell::UnsafeCell<core::option::Option<spin::mutex::Mutex<vga::Screen>>>" = type { %"core::option::Option<spin::mutex::Mutex<vga::Screen>>" }
%"core::option::Option<spin::mutex::Mutex<keyboard::Keyboard<pc_keyboard::layouts::us104::Us104Key, pc_keyboard::scancodes::set1::ScancodeSet1>>>" = type { i16, [9 x i16] }
%"spin::once::Once<spin::mutex::Mutex<keyboard::Keyboard<pc_keyboard::layouts::us104::Us104Key, pc_keyboard::scancodes::set1::ScancodeSet1>>>" = type { %"core::sync::atomic::AtomicUsize", %"core::cell::UnsafeCell<core::option::Option<spin::mutex::Mutex<keyboard::Keyboard<pc_keyboard::layouts::us104::Us104Key, pc_keyboard::scancodes::set1::ScancodeSet1>>>>", [2 x i16] }
%"core::cell::UnsafeCell<core::option::Option<spin::mutex::Mutex<keyboard::Keyboard<pc_keyboard::layouts::us104::Us104Key, pc_keyboard::scancodes::set1::ScancodeSet1>>>>" = type { %"core::option::Option<spin::mutex::Mutex<keyboard::Keyboard<pc_keyboard::layouts::us104::Us104Key, pc_keyboard::scancodes::set1::ScancodeSet1>>>" }
%"[closure@src/interrupts.rs:43:34: 43:59]" = type {}
%"x86_64::structures::idt::InterruptStackFrame" = type { %"x86_64::structures::idt::InterruptStackFrameValue" }
%"x86_64::structures::idt::InterruptStackFrameValue" = type { i64, i64, i64, i64, i64 }
%"pc_keyboard::DecodedKey::Unicode" = type { [1 x i32], i32 }
%"core::result::Result<bool, &str>" = type { ptr, [1 x i64] }
%"core::fmt::rt::Placeholder" = type { { i64, i64 }, { i64, i64 }, i64, i32, i32, i8, [7 x i8] }

@str.0 = internal constant [33 x i8] c"attempt to subtract with overflow"
@alloc_0e0a5c012db1f29e764f54ddf0c3fc28 = private unnamed_addr constant <{ [20 x i8] }> <{ [20 x i8] c"no entry with index " }>, align 1
@alloc_4407e9db65b5731fa81ce22dd51cf15b = private unnamed_addr constant <{ ptr, [8 x i8] }> <{ ptr @alloc_0e0a5c012db1f29e764f54ddf0c3fc28, [8 x i8] c"\14\00\00\00\00\00\00\00" }>, align 8
@alloc_523248e34db904eab55c5eb570cbbcf7 = private unnamed_addr constant <{ [6 x i8] }> <{ [6 x i8] c"entry " }>, align 1
@alloc_8888ebfef96191fe59f3dccdfd1e2e9f = private unnamed_addr constant <{ [44 x i8] }> <{ [44 x i8] c" is an diverging exception (must not return)" }>, align 1
@alloc_d828fab08d116782a6d84a27e7c35707 = private unnamed_addr constant <{ ptr, [8 x i8], ptr, [8 x i8] }> <{ ptr @alloc_523248e34db904eab55c5eb570cbbcf7, [8 x i8] c"\06\00\00\00\00\00\00\00", ptr @alloc_8888ebfef96191fe59f3dccdfd1e2e9f, [8 x i8] c",\00\00\00\00\00\00\00" }>, align 8
@alloc_5b44ce981640fea4344a6f6575fa5f67 = private unnamed_addr constant <{ [32 x i8] }> <{ [32 x i8] c" is an exception with error code" }>, align 1
@alloc_1fe542937cac8fb1fe1c032a3b633bce = private unnamed_addr constant <{ ptr, [8 x i8], ptr, [8 x i8] }> <{ ptr @alloc_523248e34db904eab55c5eb570cbbcf7, [8 x i8] c"\06\00\00\00\00\00\00\00", ptr @alloc_5b44ce981640fea4344a6f6575fa5f67, [8 x i8] c" \00\00\00\00\00\00\00" }>, align 8
@alloc_b715a46a74cc820188211befedfe4ec3 = private unnamed_addr constant <{ [12 x i8] }> <{ [12 x i8] c" is reserved" }>, align 1
@alloc_d743347393ab490786856fac0eec1b82 = private unnamed_addr constant <{ ptr, [8 x i8], ptr, [8 x i8] }> <{ ptr @alloc_523248e34db904eab55c5eb570cbbcf7, [8 x i8] c"\06\00\00\00\00\00\00\00", ptr @alloc_b715a46a74cc820188211befedfe4ec3, [8 x i8] c"\0C\00\00\00\00\00\00\00" }>, align 8
@alloc_6923360c3161738641b3989c6181ce08 = private unnamed_addr constant <{ [40 x i8] }> <{ [40 x i8] c"assertion failed: bit < Self::BIT_LENGTH" }>, align 1
@alloc_89294a974a2788f895cf677d5bd697c4 = private unnamed_addr constant <{ [91 x i8] }> <{ [91 x i8] c"/Users/yaw/.cargo/registry/src/index.crates.io-6f17d22bba15001f/bit_field-0.10.1/src/lib.rs" }>, align 1
@alloc_b01c63d7eb55c84e9d45ae152316a96d = private unnamed_addr constant <{ ptr, [16 x i8] }> <{ ptr @alloc_89294a974a2788f895cf677d5bd697c4, [16 x i8] c"[\00\00\00\00\00\00\00\11\01\00\00\01\00\00\00" }>, align 8
@str.1 = internal constant [35 x i8] c"attempt to shift left with overflow"
@vtable.2 = private constant <{ ptr, [16 x i8], ptr, ptr, ptr }> <{ ptr @"_ZN4core3ptr44drop_in_place$LT$$RF$mut$u20$vga..Screen$GT$17h6aa9f1253cfa02d3E", [16 x i8] c"\08\00\00\00\00\00\00\00\08\00\00\00\00\00\00\00", ptr @"_ZN50_$LT$$RF$mut$u20$W$u20$as$u20$core..fmt..Write$GT$9write_str17h063df32f07e30353E", ptr @"_ZN50_$LT$$RF$mut$u20$W$u20$as$u20$core..fmt..Write$GT$10write_char17hdbbcb729ae326223E", ptr @"_ZN50_$LT$$RF$mut$u20$W$u20$as$u20$core..fmt..Write$GT$9write_fmt17ha7e1637656d81252E" }>, align 8, !dbg !0
@alloc_c2ea93c90919bb7b1e482f917e413fa1 = private unnamed_addr constant <{ [107 x i8] }> <{ [107 x i8] c"/Users/yaw/.rustup/toolchains/nightly-aarch64-apple-darwin/lib/rustlib/src/rust/library/core/src/fmt/mod.rs" }>, align 1
@alloc_6efc4ec71950c88bb18b2dcebbe56926 = private unnamed_addr constant <{ ptr, [16 x i8] }> <{ ptr @alloc_c2ea93c90919bb7b1e482f917e413fa1, [16 x i8] c"k\00\00\00\00\00\00\004\01\00\008\00\00\00" }>, align 8
@str.3 = internal constant [28 x i8] c"attempt to add with overflow"
@alloc_91c7fa63c3cfeaa3c795652d5cf060e4 = private unnamed_addr constant <{ [12 x i8] }> <{ [12 x i8] c"invalid args" }>, align 1
@alloc_560206a49c61adca6f3f0639a12632eb = private unnamed_addr constant <{ ptr, [8 x i8] }> <{ ptr @alloc_91c7fa63c3cfeaa3c795652d5cf060e4, [8 x i8] c"\0C\00\00\00\00\00\00\00" }>, align 8
@alloc_d3149a254d0e3dec02e2738403904da6 = private unnamed_addr constant <{ ptr, [16 x i8] }> <{ ptr @alloc_c2ea93c90919bb7b1e482f917e413fa1, [16 x i8] c"k\00\00\00\00\00\00\005\01\00\00\0D\00\00\00" }>, align 8
@alloc_5eca5fde541bf3444e5a23d5419b88a4 = private unnamed_addr constant <{ ptr, [16 x i8] }> <{ ptr @alloc_c2ea93c90919bb7b1e482f917e413fa1, [16 x i8] c"k\00\00\00\00\00\00\00+\01\00\00\0D\00\00\00" }>, align 8
@alloc_513570631223a12912d85da2bec3b15a = private unnamed_addr constant <{}> zeroinitializer, align 8
@alloc_2220c7a1feeb6edab819c8e7f64b7daa = private unnamed_addr constant <{ [112 x i8] }> <{ [112 x i8] c"/Users/yaw/.rustup/toolchains/nightly-aarch64-apple-darwin/lib/rustlib/src/rust/library/core/src/char/methods.rs" }>, align 1
@alloc_63e4089470ab8a3d24f3fcd9b9f36ebd = private unnamed_addr constant <{ ptr, [16 x i8] }> <{ ptr @alloc_2220c7a1feeb6edab819c8e7f64b7daa, [16 x i8] c"p\00\00\00\00\00\00\00\B7\06\00\00\16\00\00\00" }>, align 8
@alloc_946a489b37b3b4f0f3969c8c6688a7f9 = private unnamed_addr constant <{ ptr, [16 x i8] }> <{ ptr @alloc_2220c7a1feeb6edab819c8e7f64b7daa, [16 x i8] c"p\00\00\00\00\00\00\00\D1\06\00\00\0A\00\00\00" }>, align 8
@alloc_6b031f9bca8204235732c7c365d04a1d = private unnamed_addr constant <{ [18 x i8] }> <{ [18 x i8] c"encode_utf8: need " }>, align 1
@alloc_28d13efb0f9a95ccb5d02ec33dd195cf = private unnamed_addr constant <{ [19 x i8] }> <{ [19 x i8] c" bytes to encode U+" }>, align 1
@alloc_0d928972d2befd736e581c7fcc5a2f9a = private unnamed_addr constant <{ [21 x i8] }> <{ [21 x i8] c", but the buffer has " }>, align 1
@alloc_d29a6390632466693e1aaac961799525 = private unnamed_addr constant <{ ptr, [8 x i8], ptr, [8 x i8], ptr, [8 x i8] }> <{ ptr @alloc_6b031f9bca8204235732c7c365d04a1d, [8 x i8] c"\12\00\00\00\00\00\00\00", ptr @alloc_28d13efb0f9a95ccb5d02ec33dd195cf, [8 x i8] c"\13\00\00\00\00\00\00\00", ptr @alloc_0d928972d2befd736e581c7fcc5a2f9a, [8 x i8] c"\15\00\00\00\00\00\00\00" }>, align 8
@alloc_965c043fb4a42044fde50105a4adaa15 = private unnamed_addr constant <{ ptr, [16 x i8] }> <{ ptr @alloc_2220c7a1feeb6edab819c8e7f64b7daa, [16 x i8] c"p\00\00\00\00\00\00\00\CA\06\00\00\0E\00\00\00" }>, align 8
@alloc_1eb6f53a157dccb32488e066ad957e6d = private unnamed_addr constant <{ [82 x i8] }> <{ [82 x i8] c"unsafe precondition(s) violated: hint::unreachable_unchecked must never be reached" }>, align 1
@alloc_b41ce9db6ff9e09c515cee5b4d05db5e = private unnamed_addr constant <{ [17 x i8] }> <{ [17 x i8] c"Once has panicked" }>, align 1
@alloc_8af331a5985192ea52a41e19634f2db2 = private unnamed_addr constant <{ [86 x i8] }> <{ [86 x i8] c"/Users/yaw/.cargo/registry/src/index.crates.io-6f17d22bba15001f/spin-0.5.2/src/once.rs" }>, align 1
@alloc_14083d05c803f84018d4aa0469014f28 = private unnamed_addr constant <{ ptr, [16 x i8] }> <{ ptr @alloc_8af331a5985192ea52a41e19634f2db2, [16 x i8] c"V\00\00\00\00\00\00\00\80\00\00\00\1D\00\00\00" }>, align 8
@alloc_a500d906b91607583596fa15e63c2ada = private unnamed_addr constant <{ [40 x i8] }> <{ [40 x i8] c"internal error: entered unreachable code" }>, align 1
@alloc_f6d48a4961f7d5070867936e66a7484e = private unnamed_addr constant <{ ptr, [16 x i8] }> <{ ptr @alloc_8af331a5985192ea52a41e19634f2db2, [16 x i8] c"V\00\00\00\00\00\00\00{\00\00\00\1F\00\00\00" }>, align 8
@alloc_96fe64cab8dd4680071ecfdb397425fd = private unnamed_addr constant <{ [100 x i8] }> <{ [100 x i8] c"/Users/yaw/.cargo/registry/src/index.crates.io-6f17d22bba15001f/x86_64-0.14.10/src/structures/idt.rs" }>, align 1
@alloc_684261e5bc5404f7dd08c17341b2175a = private unnamed_addr constant <{ ptr, [16 x i8] }> <{ ptr @alloc_96fe64cab8dd4680071ecfdb397425fd, [16 x i8] c"d\00\00\00\00\00\00\00E\03\00\00\1F\00\00\00" }>, align 8
@alloc_3b30f3c2fe1935017d2714aa9952ea95 = private unnamed_addr constant <{ [74 x i8] }> <{ [74 x i8] c"address passed to VirtAddr::new must not contain any data in bits 48 to 64" }>, align 1
@alloc_25db54aacf10f85b32a6b265696ce69a = private unnamed_addr constant <{ [90 x i8] }> <{ [90 x i8] c"/Users/yaw/.cargo/registry/src/index.crates.io-6f17d22bba15001f/x86_64-0.14.10/src/addr.rs" }>, align 1
@alloc_6918487e00f1778b5f784ee4db0636b1 = private unnamed_addr constant <{ ptr, [16 x i8] }> <{ ptr @alloc_25db54aacf10f85b32a6b265696ce69a, [16 x i8] c"Z\00\00\00\00\00\00\00H\00\00\00\1D\00\00\00" }>, align 8
@alloc_0f52f98e9fa44caf6668aeb0b1c94ca5 = private unnamed_addr constant <{ [1 x i8] }> <{ [1 x i8] c"." }>, align 1
@alloc_d509c061a81d387044ae882b6ca18863 = private unnamed_addr constant <{ ptr, [8 x i8] }> <{ ptr @alloc_0f52f98e9fa44caf6668aeb0b1c94ca5, [8 x i8] c"\01\00\00\00\00\00\00\00" }>, align 8
@alloc_ffa3cdb3ae88e54a1cc225f31dd07672 = private unnamed_addr constant <{ ptr, [8 x i8] }> <{ ptr @alloc_513570631223a12912d85da2bec3b15a, [8 x i8] zeroinitializer }>, align 8
@alloc_336fab64cf280841146f9adb6c51a626 = private unnamed_addr constant <{ [29 x i8] }> <{ [29 x i8] c"IDT initialization failed -> " }>, align 1
@alloc_aab826736a6c020f2de3cc2e72f2836f = private unnamed_addr constant <{ ptr, [8 x i8] }> <{ ptr @alloc_336fab64cf280841146f9adb6c51a626, [8 x i8] c"\1D\00\00\00\00\00\00\00" }>, align 8
@alloc_ceb4379b47ed1f7ed9f46a275cc711f0 = private unnamed_addr constant <{ [17 x i8] }> <{ [17 x i8] c"src/interrupts.rs" }>, align 1
@alloc_36cde359672495c34f4ce32692891843 = private unnamed_addr constant <{ ptr, [16 x i8] }> <{ ptr @alloc_ceb4379b47ed1f7ed9f46a275cc711f0, [16 x i8] c"\11\00\00\00\00\00\00\006\00\00\00\13\00\00\00" }>, align 8
@alloc_604802f3d78c33b0b3552b3c7940e5df = private unnamed_addr constant <{ [18 x i8] }> <{ [18 x i8] c"src/peripherals.rs" }>, align 1
@alloc_6b30ea8e51d7def0cc7cf8e2a501fd66 = private unnamed_addr constant <{ ptr, [16 x i8] }> <{ ptr @alloc_604802f3d78c33b0b3552b3c7940e5df, [16 x i8] c"\12\00\00\00\00\00\00\00\1D\00\00\00U\00\00\00" }>, align 8
@alloc_e57360d3cab7b504edab5d53bcd8a2bf = private unnamed_addr constant <{ [46 x i8] }> <{ [46 x i8] c"ave imperator, morituri te salutant \F0\9F\96\96!\0A\0A\0A\0A\0A" }>, align 1
@alloc_82782b198e1ee0ea5d392793684ed2ab = private unnamed_addr constant <{ ptr, [8 x i8] }> <{ ptr @alloc_e57360d3cab7b504edab5d53bcd8a2bf, [8 x i8] c".\00\00\00\00\00\00\00" }>, align 8
@alloc_ac6f105be24c55b3d87791790b6d9f81 = private unnamed_addr constant <{ [44 x i8] }> <{ [44 x i8] c"this text should appear on last but one row\0A" }>, align 1
@alloc_e68acb5e79b62d11d1b5f7f78ea76060 = private unnamed_addr constant <{ ptr, [8 x i8] }> <{ ptr @alloc_ac6f105be24c55b3d87791790b6d9f81, [8 x i8] c",\00\00\00\00\00\00\00" }>, align 8
@alloc_840f7d7801fd0a18e678824978a17a2e = private unnamed_addr constant <{ [39 x i8] }> <{ [39 x i8] c"last row of text, with empty row below\0A" }>, align 1
@alloc_704d68ff3020df52f56b6f7f0f1219ee = private unnamed_addr constant <{ ptr, [8 x i8] }> <{ ptr @alloc_840f7d7801fd0a18e678824978a17a2e, [8 x i8] c"'\00\00\00\00\00\00\00" }>, align 8
@alloc_49a1e817e911805af64bbc7efb390101 = private unnamed_addr constant <{ [1 x i8] }> <{ [1 x i8] c"\0A" }>, align 1
@alloc_4ed11f17954caf7854f80f02ae34907e = private unnamed_addr constant <{ ptr, [8 x i8], ptr, [8 x i8] }> <{ ptr @alloc_513570631223a12912d85da2bec3b15a, [8 x i8] zeroinitializer, ptr @alloc_49a1e817e911805af64bbc7efb390101, [8 x i8] c"\01\00\00\00\00\00\00\00" }>, align 8
@_ZN4theo10interrupts8SAFE_IDT17he302f5fd00e5ec72E = internal constant <{}> zeroinitializer, align 1, !dbg !54
@alloc_f90b0db9a501ea4e32af715f06dec6ba = private unnamed_addr constant <{ ptr, [16 x i8] }> <{ ptr @alloc_ceb4379b47ed1f7ed9f46a275cc711f0, [16 x i8] c"\11\00\00\00\00\00\00\00\17\00\00\00\11\00\00\00" }>, align 8
@alloc_45c30a06a14a7f7f08e893da985222d4 = private unnamed_addr constant <{ ptr, [16 x i8] }> <{ ptr @alloc_ceb4379b47ed1f7ed9f46a275cc711f0, [16 x i8] c"\11\00\00\00\00\00\00\00\17\00\00\00\0D\00\00\00" }>, align 8
@alloc_607eefef3b67391fb601492ac2cd1351 = private unnamed_addr constant <{ ptr, [16 x i8] }> <{ ptr @alloc_ceb4379b47ed1f7ed9f46a275cc711f0, [16 x i8] c"\11\00\00\00\00\00\00\00\18\00\00\00\11\00\00\00" }>, align 8
@alloc_79795694555ac832561f14c334cd681c = private unnamed_addr constant <{ ptr, [16 x i8] }> <{ ptr @alloc_ceb4379b47ed1f7ed9f46a275cc711f0, [16 x i8] c"\11\00\00\00\00\00\00\00\18\00\00\00\0D\00\00\00" }>, align 8
@"_ZN70_$LT$theo..interrupts..SAFE_IDT$u20$as$u20$core..ops..deref..Deref$GT$5deref11__stability4LAZY17he9b98dbae06506daE" = internal global <{ [4098 x i8], [1 x i8], [13 x i8], [8 x i8], [8 x i8] }> <{ [4098 x i8] undef, [1 x i8] c"\02", [13 x i8] undef, [8 x i8] zeroinitializer, [8 x i8] undef }>, align 16, !dbg !62
@_ZN4theo11peripherals24VGA_DISPLAY_IN_TEXT_MODE17hc5765e9a5bf2e51eE = internal constant <{}> zeroinitializer, align 1, !dbg !266
@"_ZN87_$LT$theo..peripherals..VGA_DISPLAY_IN_TEXT_MODE$u20$as$u20$core..ops..deref..Deref$GT$5deref11__stability4LAZY17h21f5e0b9c7a453e3E" = internal global <{ [16 x i8], [224 x i8] }> <{ [16 x i8] zeroinitializer, [224 x i8] undef }>, align 8, !dbg !272
@_ZN4theo11peripherals8KEYBOARD17ha5a7dbc4627531ffE = internal constant <{}> zeroinitializer, align 1, !dbg !332
@"_ZN71_$LT$theo..peripherals..KEYBOARD$u20$as$u20$core..ops..deref..Deref$GT$5deref11__stability4LAZY17h3f019baf21fede24E" = internal global <{ [10 x i8], [22 x i8] }> <{ [10 x i8] zeroinitializer, [22 x i8] undef }>, align 8, !dbg !337
@_ZN4theo6serial7SERIAL117h4d6b801ea16f9f52E = internal constant <{}> zeroinitializer, align 1, !dbg !453
@"_ZN65_$LT$theo..serial..SERIAL1$u20$as$u20$core..ops..deref..Deref$GT$5deref11__stability4LAZY17h9ee93c50489f1b89E" = internal global <{ [2 x i8], [14 x i8], [8 x i8] }> <{ [2 x i8] zeroinitializer, [14 x i8] undef, [8 x i8] zeroinitializer }>, align 8, !dbg !459
@__rustc_debug_gdb_scripts_section__ = linkonce_odr unnamed_addr constant [34 x i8] c"\01gdb_load_rust_pretty_printers.py\00", section ".debug_gdb_scripts", align 1

; <x86_64::structures::idt::InterruptDescriptorTable as core::ops::index::IndexMut<usize>>::index_mut
; Function Attrs: inlinehint noredzone nounwind
define internal align 4 ptr @"_ZN109_$LT$x86_64..structures..idt..InterruptDescriptorTable$u20$as$u20$core..ops..index..IndexMut$LT$usize$GT$$GT$9index_mut17h635b8838e405e54bE"(ptr align 16 %self, i64 %index, ptr align 8 %0) unnamed_addr #0 !dbg !706 {
start:
  %f.dbg.spill.i13 = alloca ptr, align 8
  %x.dbg.spill.i14 = alloca ptr, align 8
  %1 = alloca { ptr, ptr }, align 8
  %f.dbg.spill.i11 = alloca ptr, align 8
  %x.dbg.spill.i12 = alloca ptr, align 8
  %2 = alloca { ptr, ptr }, align 8
  %f.dbg.spill.i9 = alloca ptr, align 8
  %x.dbg.spill.i10 = alloca ptr, align 8
  %3 = alloca { ptr, ptr }, align 8
  %f.dbg.spill.i = alloca ptr, align 8
  %x.dbg.spill.i8 = alloca ptr, align 8
  %4 = alloca { ptr, ptr }, align 8
  %x.dbg.spill.i7 = alloca ptr, align 8
  %x.dbg.spill.i6 = alloca ptr, align 8
  %x.dbg.spill.i5 = alloca ptr, align 8
  %x.dbg.spill.i = alloca ptr, align 8
  %index.dbg.spill = alloca i64, align 8
  %self.dbg.spill = alloca ptr, align 8
  %_60 = alloca [1 x { ptr, ptr }], align 8
  %_56 = alloca %"core::fmt::Arguments<'_>", align 8
  %i3 = alloca i64, align 8
  %_51 = alloca [1 x { ptr, ptr }], align 8
  %_47 = alloca %"core::fmt::Arguments<'_>", align 8
  %i2 = alloca i64, align 8
  %_42 = alloca [1 x { ptr, ptr }], align 8
  %_38 = alloca %"core::fmt::Arguments<'_>", align 8
  %i1 = alloca i64, align 8
  %_33 = alloca [1 x { ptr, ptr }], align 8
  %_29 = alloca %"core::fmt::Arguments<'_>", align 8
  %i = alloca i64, align 8
  %_3 = alloca ptr, align 8
  store ptr %self, ptr %self.dbg.spill, align 8
  call void @llvm.dbg.declare(metadata ptr %self.dbg.spill, metadata !727, metadata !DIExpression()), !dbg !739
  store i64 %index, ptr %index.dbg.spill, align 8
  call void @llvm.dbg.declare(metadata ptr %index.dbg.spill, metadata !728, metadata !DIExpression()), !dbg !740
  call void @llvm.dbg.declare(metadata ptr %index.dbg.spill, metadata !729, metadata !DIExpression()), !dbg !741
  call void @llvm.dbg.declare(metadata ptr %i, metadata !731, metadata !DIExpression()), !dbg !742
  call void @llvm.dbg.declare(metadata ptr %i1, metadata !733, metadata !DIExpression()), !dbg !743
  call void @llvm.dbg.declare(metadata ptr %i2, metadata !735, metadata !DIExpression()), !dbg !744
  call void @llvm.dbg.declare(metadata ptr %i3, metadata !737, metadata !DIExpression()), !dbg !745
  switch i64 %index, label %bb1 [
    i64 0, label %bb8
    i64 1, label %bb9
    i64 2, label %bb10
    i64 3, label %bb11
    i64 4, label %bb12
    i64 5, label %bb13
    i64 6, label %bb14
    i64 7, label %bb15
    i64 9, label %bb16
    i64 16, label %bb17
    i64 19, label %bb18
    i64 20, label %bb19
    i64 15, label %bb24
    i64 31, label %bb25
    i64 8, label %bb30
    i64 17, label %bb32
    i64 29, label %bb33
    i64 30, label %bb34
    i64 18, label %bb37
  ], !dbg !746

bb1:                                              ; preds = %start
  %_8 = icmp ule i64 32, %index, !dbg !747
  br i1 %_8, label %bb2, label %bb3, !dbg !747

bb8:                                              ; preds = %start
  store ptr %self, ptr %_3, align 8, !dbg !748
  br label %bb42, !dbg !749

bb9:                                              ; preds = %start
  %_11 = getelementptr inbounds %"x86_64::structures::idt::InterruptDescriptorTable", ptr %self, i32 0, i32 1, !dbg !750
  store ptr %_11, ptr %_3, align 8, !dbg !750
  br label %bb42, !dbg !751

bb10:                                             ; preds = %start
  %_12 = getelementptr inbounds %"x86_64::structures::idt::InterruptDescriptorTable", ptr %self, i32 0, i32 2, !dbg !752
  store ptr %_12, ptr %_3, align 8, !dbg !752
  br label %bb42, !dbg !753

bb11:                                             ; preds = %start
  %_13 = getelementptr inbounds %"x86_64::structures::idt::InterruptDescriptorTable", ptr %self, i32 0, i32 3, !dbg !754
  store ptr %_13, ptr %_3, align 8, !dbg !754
  br label %bb42, !dbg !755

bb12:                                             ; preds = %start
  %_14 = getelementptr inbounds %"x86_64::structures::idt::InterruptDescriptorTable", ptr %self, i32 0, i32 4, !dbg !756
  store ptr %_14, ptr %_3, align 8, !dbg !756
  br label %bb42, !dbg !757

bb13:                                             ; preds = %start
  %_15 = getelementptr inbounds %"x86_64::structures::idt::InterruptDescriptorTable", ptr %self, i32 0, i32 5, !dbg !758
  store ptr %_15, ptr %_3, align 8, !dbg !758
  br label %bb42, !dbg !759

bb14:                                             ; preds = %start
  %_16 = getelementptr inbounds %"x86_64::structures::idt::InterruptDescriptorTable", ptr %self, i32 0, i32 6, !dbg !760
  store ptr %_16, ptr %_3, align 8, !dbg !760
  br label %bb42, !dbg !761

bb15:                                             ; preds = %start
  %_17 = getelementptr inbounds %"x86_64::structures::idt::InterruptDescriptorTable", ptr %self, i32 0, i32 7, !dbg !762
  store ptr %_17, ptr %_3, align 8, !dbg !762
  br label %bb42, !dbg !763

bb16:                                             ; preds = %start
  %_18 = getelementptr inbounds %"x86_64::structures::idt::InterruptDescriptorTable", ptr %self, i32 0, i32 9, !dbg !764
  store ptr %_18, ptr %_3, align 8, !dbg !764
  br label %bb42, !dbg !765

bb17:                                             ; preds = %start
  %_19 = getelementptr inbounds %"x86_64::structures::idt::InterruptDescriptorTable", ptr %self, i32 0, i32 16, !dbg !766
  store ptr %_19, ptr %_3, align 8, !dbg !766
  br label %bb42, !dbg !767

bb18:                                             ; preds = %start
  %_20 = getelementptr inbounds %"x86_64::structures::idt::InterruptDescriptorTable", ptr %self, i32 0, i32 19, !dbg !768
  store ptr %_20, ptr %_3, align 8, !dbg !768
  br label %bb42, !dbg !769

bb19:                                             ; preds = %start
  %_21 = getelementptr inbounds %"x86_64::structures::idt::InterruptDescriptorTable", ptr %self, i32 0, i32 20, !dbg !770
  store ptr %_21, ptr %_3, align 8, !dbg !770
  br label %bb42, !dbg !771

bb24:                                             ; preds = %start
  store i64 %index, ptr %i, align 8, !dbg !772
  br label %bb23, !dbg !746

bb25:                                             ; preds = %start
  store i64 %index, ptr %i, align 8, !dbg !773
  br label %bb23, !dbg !746

bb30:                                             ; preds = %start
  store i64 %index, ptr %i1, align 8, !dbg !774
  br label %bb29, !dbg !746

bb32:                                             ; preds = %start
  store i64 %index, ptr %i1, align 8, !dbg !775
  br label %bb29, !dbg !746

bb33:                                             ; preds = %start
  store i64 %index, ptr %i1, align 8, !dbg !776
  br label %bb29, !dbg !746

bb34:                                             ; preds = %start
  store i64 %index, ptr %i1, align 8, !dbg !777
  br label %bb29, !dbg !746

bb37:                                             ; preds = %start
  store i64 %index, ptr %i2, align 8, !dbg !778
  store ptr %i2, ptr %x.dbg.spill.i6, align 8
  call void @llvm.dbg.declare(metadata ptr %x.dbg.spill.i6, metadata !779, metadata !DIExpression()), !dbg !846
  store ptr %i2, ptr %x.dbg.spill.i10, align 8
  call void @llvm.dbg.declare(metadata ptr %x.dbg.spill.i10, metadata !848, metadata !DIExpression()), !dbg !858
  store ptr @"_ZN4core3fmt3num3imp54_$LT$impl$u20$core..fmt..Display$u20$for$u20$usize$GT$3fmt17h52c7e4752d0d7c7bE", ptr %f.dbg.spill.i9, align 8
  call void @llvm.dbg.declare(metadata ptr %f.dbg.spill.i9, metadata !857, metadata !DIExpression()), !dbg !860
  store ptr %i2, ptr %3, align 8, !dbg !861
  %5 = getelementptr inbounds { ptr, ptr }, ptr %3, i32 0, i32 1, !dbg !861
  store ptr @"_ZN4core3fmt3num3imp54_$LT$impl$u20$core..fmt..Display$u20$for$u20$usize$GT$3fmt17h52c7e4752d0d7c7bE", ptr %5, align 8, !dbg !861
  %6 = load ptr, ptr %3, align 8, !dbg !862, !nonnull !27, !align !863, !noundef !27
  %7 = getelementptr inbounds { ptr, ptr }, ptr %3, i32 0, i32 1, !dbg !862
  %8 = load ptr, ptr %7, align 8, !dbg !862, !nonnull !27, !noundef !27
  %9 = insertvalue { ptr, ptr } poison, ptr %6, 0, !dbg !862
  %10 = insertvalue { ptr, ptr } %9, ptr %8, 1, !dbg !862
  %11 = extractvalue { ptr, ptr } %10, 0, !dbg !864
  %12 = extractvalue { ptr, ptr } %10, 1, !dbg !864
  %_52.0 = extractvalue { ptr, ptr } %10, 0, !dbg !865
  %_52.1 = extractvalue { ptr, ptr } %10, 1, !dbg !865
  %13 = getelementptr inbounds [1 x { ptr, ptr }], ptr %_51, i64 0, i64 0, !dbg !865
  %14 = getelementptr inbounds { ptr, ptr }, ptr %13, i32 0, i32 0, !dbg !865
  store ptr %_52.0, ptr %14, align 8, !dbg !865
  %15 = getelementptr inbounds { ptr, ptr }, ptr %13, i32 0, i32 1, !dbg !865
  store ptr %_52.1, ptr %15, align 8, !dbg !865
; call core::fmt::Arguments::new_v1
  call void @_ZN4core3fmt9Arguments6new_v117h230bc6ec1daacb1aE(ptr sret(%"core::fmt::Arguments<'_>") %_47, ptr align 8 @alloc_d828fab08d116782a6d84a27e7c35707, i64 2, ptr align 8 %_51, i64 1) #9, !dbg !865
; call core::panicking::panic_fmt
  call void @_ZN4core9panicking9panic_fmt17h2c59f66d276f88adE(ptr %_47, ptr align 8 %0) #11, !dbg !865
  unreachable, !dbg !865

bb3:                                              ; preds = %bb2, %bb1
  %_6 = icmp ule i64 21, %index, !dbg !866
  br i1 %_6, label %bb4, label %bb5, !dbg !866

bb2:                                              ; preds = %bb1
  %_9 = icmp ule i64 %index, 255, !dbg !747
  br i1 %_9, label %bb20, label %bb3, !dbg !747

bb20:                                             ; preds = %bb2
  %_24.0 = sub i64 %index, 32, !dbg !867
  %_24.1 = icmp ult i64 %index, 32, !dbg !867
  %16 = call i1 @llvm.expect.i1(i1 %_24.1, i1 false), !dbg !867
  br i1 %16, label %panic, label %bb21, !dbg !867

bb21:                                             ; preds = %bb20
  %_26 = icmp ult i64 %_24.0, 224, !dbg !868
  %17 = call i1 @llvm.expect.i1(i1 %_26, i1 true), !dbg !868
  br i1 %17, label %bb22, label %panic4, !dbg !868

panic:                                            ; preds = %bb20
; call core::panicking::panic
  call void @_ZN4core9panicking5panic17h38d135543837e8b5E(ptr align 1 @str.0, i64 33, ptr align 8 %0) #11, !dbg !867
  unreachable, !dbg !867

bb22:                                             ; preds = %bb21
  %18 = getelementptr inbounds %"x86_64::structures::idt::InterruptDescriptorTable", ptr %self, i32 0, i32 25, !dbg !869
  %_22 = getelementptr inbounds [224 x %"x86_64::structures::idt::Entry<extern \22x86-interrupt\22 fn(x86_64::structures::idt::InterruptStackFrame)>"], ptr %18, i64 0, i64 %_24.0, !dbg !869
  store ptr %_22, ptr %_3, align 8, !dbg !869
  br label %bb42, !dbg !870

panic4:                                           ; preds = %bb21
; call core::panicking::panic_bounds_check
  call void @_ZN4core9panicking18panic_bounds_check17h19f02e7819179f59E(i64 %_24.0, i64 224, ptr align 8 %0) #11, !dbg !868
  unreachable, !dbg !868

bb42:                                             ; preds = %bb8, %bb9, %bb10, %bb11, %bb12, %bb13, %bb14, %bb15, %bb16, %bb17, %bb18, %bb19, %bb22
  %19 = load ptr, ptr %_3, align 8, !dbg !746, !nonnull !27, !align !871, !noundef !27
  ret ptr %19, !dbg !872

bb5:                                              ; preds = %bb4, %bb3
  %_4 = icmp ule i64 10, %index, !dbg !873
  br i1 %_4, label %bb6, label %bb7, !dbg !873

bb4:                                              ; preds = %bb3
  %_7 = icmp ule i64 %index, 28, !dbg !866
  br i1 %_7, label %bb26, label %bb5, !dbg !866

bb26:                                             ; preds = %bb4
  store i64 %index, ptr %i, align 8, !dbg !874
  br label %bb23, !dbg !746

bb23:                                             ; preds = %bb24, %bb25, %bb26
  store ptr %i, ptr %x.dbg.spill.i, align 8
  call void @llvm.dbg.declare(metadata ptr %x.dbg.spill.i, metadata !779, metadata !DIExpression()), !dbg !875
  store ptr %i, ptr %x.dbg.spill.i14, align 8
  call void @llvm.dbg.declare(metadata ptr %x.dbg.spill.i14, metadata !848, metadata !DIExpression()), !dbg !877
  store ptr @"_ZN4core3fmt3num3imp54_$LT$impl$u20$core..fmt..Display$u20$for$u20$usize$GT$3fmt17h52c7e4752d0d7c7bE", ptr %f.dbg.spill.i13, align 8
  call void @llvm.dbg.declare(metadata ptr %f.dbg.spill.i13, metadata !857, metadata !DIExpression()), !dbg !879
  store ptr %i, ptr %1, align 8, !dbg !880
  %20 = getelementptr inbounds { ptr, ptr }, ptr %1, i32 0, i32 1, !dbg !880
  store ptr @"_ZN4core3fmt3num3imp54_$LT$impl$u20$core..fmt..Display$u20$for$u20$usize$GT$3fmt17h52c7e4752d0d7c7bE", ptr %20, align 8, !dbg !880
  %21 = load ptr, ptr %1, align 8, !dbg !881, !nonnull !27, !align !863, !noundef !27
  %22 = getelementptr inbounds { ptr, ptr }, ptr %1, i32 0, i32 1, !dbg !881
  %23 = load ptr, ptr %22, align 8, !dbg !881, !nonnull !27, !noundef !27
  %24 = insertvalue { ptr, ptr } poison, ptr %21, 0, !dbg !881
  %25 = insertvalue { ptr, ptr } %24, ptr %23, 1, !dbg !881
  %26 = extractvalue { ptr, ptr } %25, 0, !dbg !882
  %27 = extractvalue { ptr, ptr } %25, 1, !dbg !882
  %_34.0 = extractvalue { ptr, ptr } %25, 0, !dbg !883
  %_34.1 = extractvalue { ptr, ptr } %25, 1, !dbg !883
  %28 = getelementptr inbounds [1 x { ptr, ptr }], ptr %_33, i64 0, i64 0, !dbg !883
  %29 = getelementptr inbounds { ptr, ptr }, ptr %28, i32 0, i32 0, !dbg !883
  store ptr %_34.0, ptr %29, align 8, !dbg !883
  %30 = getelementptr inbounds { ptr, ptr }, ptr %28, i32 0, i32 1, !dbg !883
  store ptr %_34.1, ptr %30, align 8, !dbg !883
; call core::fmt::Arguments::new_v1
  call void @_ZN4core3fmt9Arguments6new_v117h230bc6ec1daacb1aE(ptr sret(%"core::fmt::Arguments<'_>") %_29, ptr align 8 @alloc_d743347393ab490786856fac0eec1b82, i64 2, ptr align 8 %_33, i64 1) #9, !dbg !883
; call core::panicking::panic_fmt
  call void @_ZN4core9panicking9panic_fmt17h2c59f66d276f88adE(ptr %_29, ptr align 8 %0) #11, !dbg !883
  unreachable, !dbg !883

bb7:                                              ; preds = %bb6, %bb5
  store i64 %index, ptr %i3, align 8, !dbg !884
  store ptr %i3, ptr %x.dbg.spill.i7, align 8
  call void @llvm.dbg.declare(metadata ptr %x.dbg.spill.i7, metadata !779, metadata !DIExpression()), !dbg !885
  store ptr %i3, ptr %x.dbg.spill.i8, align 8
  call void @llvm.dbg.declare(metadata ptr %x.dbg.spill.i8, metadata !848, metadata !DIExpression()), !dbg !887
  store ptr @"_ZN4core3fmt3num3imp54_$LT$impl$u20$core..fmt..Display$u20$for$u20$usize$GT$3fmt17h52c7e4752d0d7c7bE", ptr %f.dbg.spill.i, align 8
  call void @llvm.dbg.declare(metadata ptr %f.dbg.spill.i, metadata !857, metadata !DIExpression()), !dbg !889
  store ptr %i3, ptr %4, align 8, !dbg !890
  %31 = getelementptr inbounds { ptr, ptr }, ptr %4, i32 0, i32 1, !dbg !890
  store ptr @"_ZN4core3fmt3num3imp54_$LT$impl$u20$core..fmt..Display$u20$for$u20$usize$GT$3fmt17h52c7e4752d0d7c7bE", ptr %31, align 8, !dbg !890
  %32 = load ptr, ptr %4, align 8, !dbg !891, !nonnull !27, !align !863, !noundef !27
  %33 = getelementptr inbounds { ptr, ptr }, ptr %4, i32 0, i32 1, !dbg !891
  %34 = load ptr, ptr %33, align 8, !dbg !891, !nonnull !27, !noundef !27
  %35 = insertvalue { ptr, ptr } poison, ptr %32, 0, !dbg !891
  %36 = insertvalue { ptr, ptr } %35, ptr %34, 1, !dbg !891
  %37 = extractvalue { ptr, ptr } %36, 0, !dbg !892
  %38 = extractvalue { ptr, ptr } %36, 1, !dbg !892
  %_61.0 = extractvalue { ptr, ptr } %36, 0, !dbg !893
  %_61.1 = extractvalue { ptr, ptr } %36, 1, !dbg !893
  %39 = getelementptr inbounds [1 x { ptr, ptr }], ptr %_60, i64 0, i64 0, !dbg !893
  %40 = getelementptr inbounds { ptr, ptr }, ptr %39, i32 0, i32 0, !dbg !893
  store ptr %_61.0, ptr %40, align 8, !dbg !893
  %41 = getelementptr inbounds { ptr, ptr }, ptr %39, i32 0, i32 1, !dbg !893
  store ptr %_61.1, ptr %41, align 8, !dbg !893
; call core::fmt::Arguments::new_v1
  call void @_ZN4core3fmt9Arguments6new_v117h230bc6ec1daacb1aE(ptr sret(%"core::fmt::Arguments<'_>") %_56, ptr align 8 @alloc_4407e9db65b5731fa81ce22dd51cf15b, i64 1, ptr align 8 %_60, i64 1) #9, !dbg !893
; call core::panicking::panic_fmt
  call void @_ZN4core9panicking9panic_fmt17h2c59f66d276f88adE(ptr %_56, ptr align 8 %0) #11, !dbg !893
  unreachable, !dbg !893

bb6:                                              ; preds = %bb5
  %_5 = icmp ule i64 %index, 14, !dbg !873
  br i1 %_5, label %bb31, label %bb7, !dbg !873

bb31:                                             ; preds = %bb6
  store i64 %index, ptr %i1, align 8, !dbg !894
  br label %bb29, !dbg !746

bb29:                                             ; preds = %bb30, %bb32, %bb33, %bb34, %bb31
  store ptr %i1, ptr %x.dbg.spill.i5, align 8
  call void @llvm.dbg.declare(metadata ptr %x.dbg.spill.i5, metadata !779, metadata !DIExpression()), !dbg !895
  store ptr %i1, ptr %x.dbg.spill.i12, align 8
  call void @llvm.dbg.declare(metadata ptr %x.dbg.spill.i12, metadata !848, metadata !DIExpression()), !dbg !897
  store ptr @"_ZN4core3fmt3num3imp54_$LT$impl$u20$core..fmt..Display$u20$for$u20$usize$GT$3fmt17h52c7e4752d0d7c7bE", ptr %f.dbg.spill.i11, align 8
  call void @llvm.dbg.declare(metadata ptr %f.dbg.spill.i11, metadata !857, metadata !DIExpression()), !dbg !899
  store ptr %i1, ptr %2, align 8, !dbg !900
  %42 = getelementptr inbounds { ptr, ptr }, ptr %2, i32 0, i32 1, !dbg !900
  store ptr @"_ZN4core3fmt3num3imp54_$LT$impl$u20$core..fmt..Display$u20$for$u20$usize$GT$3fmt17h52c7e4752d0d7c7bE", ptr %42, align 8, !dbg !900
  %43 = load ptr, ptr %2, align 8, !dbg !901, !nonnull !27, !align !863, !noundef !27
  %44 = getelementptr inbounds { ptr, ptr }, ptr %2, i32 0, i32 1, !dbg !901
  %45 = load ptr, ptr %44, align 8, !dbg !901, !nonnull !27, !noundef !27
  %46 = insertvalue { ptr, ptr } poison, ptr %43, 0, !dbg !901
  %47 = insertvalue { ptr, ptr } %46, ptr %45, 1, !dbg !901
  %48 = extractvalue { ptr, ptr } %47, 0, !dbg !902
  %49 = extractvalue { ptr, ptr } %47, 1, !dbg !902
  %_43.0 = extractvalue { ptr, ptr } %47, 0, !dbg !903
  %_43.1 = extractvalue { ptr, ptr } %47, 1, !dbg !903
  %50 = getelementptr inbounds [1 x { ptr, ptr }], ptr %_42, i64 0, i64 0, !dbg !903
  %51 = getelementptr inbounds { ptr, ptr }, ptr %50, i32 0, i32 0, !dbg !903
  store ptr %_43.0, ptr %51, align 8, !dbg !903
  %52 = getelementptr inbounds { ptr, ptr }, ptr %50, i32 0, i32 1, !dbg !903
  store ptr %_43.1, ptr %52, align 8, !dbg !903
; call core::fmt::Arguments::new_v1
  call void @_ZN4core3fmt9Arguments6new_v117h230bc6ec1daacb1aE(ptr sret(%"core::fmt::Arguments<'_>") %_38, ptr align 8 @alloc_1fe542937cac8fb1fe1c032a3b633bce, i64 2, ptr align 8 %_42, i64 1) #9, !dbg !903
; call core::panicking::panic_fmt
  call void @_ZN4core9panicking9panic_fmt17h2c59f66d276f88adE(ptr %_38, ptr align 8 %0) #11, !dbg !903
  unreachable, !dbg !903
}

; pc_keyboard::EventDecoder<L>::process_keyevent
; Function Attrs: noredzone nounwind
define internal i64 @"_ZN11pc_keyboard21EventDecoder$LT$L$GT$16process_keyevent17h1a13f579ac231d4cE"(ptr align 1 %self, i8 %0, i8 %1) unnamed_addr #1 !dbg !904 {
start:
  %2 = alloca i64, align 8
  %c.dbg.spill = alloca i8, align 1
  %self.dbg.spill = alloca ptr, align 8
  %_35 = alloca %"pc_keyboard::DecodedKey", align 4
  %_33 = alloca i8, align 1
  %_32 = alloca %"pc_keyboard::DecodedKey", align 4
  %_31 = alloca i8, align 1
  %_30 = alloca %"pc_keyboard::DecodedKey", align 4
  %_29 = alloca i8, align 1
  %_28 = alloca %"pc_keyboard::DecodedKey", align 4
  %_27 = alloca i8, align 1
  %_26 = alloca %"pc_keyboard::DecodedKey", align 4
  %_25 = alloca i8, align 1
  %_24 = alloca %"pc_keyboard::DecodedKey", align 4
  %_22 = alloca i8, align 1
  %_21 = alloca %"pc_keyboard::DecodedKey", align 4
  %_19 = alloca i8, align 1
  %_18 = alloca %"pc_keyboard::DecodedKey", align 4
  %_16 = alloca i8, align 1
  %_15 = alloca %"pc_keyboard::DecodedKey", align 4
  %_14 = alloca i8, align 1
  %_13 = alloca %"pc_keyboard::DecodedKey", align 4
  %3 = alloca %"core::option::Option<pc_keyboard::DecodedKey>", align 4
  %ev = alloca { i8, i8 }, align 1
  %4 = getelementptr inbounds { i8, i8 }, ptr %ev, i32 0, i32 0
  store i8 %0, ptr %4, align 1
  %5 = getelementptr inbounds { i8, i8 }, ptr %ev, i32 0, i32 1
  store i8 %1, ptr %5, align 1
  store ptr %self, ptr %self.dbg.spill, align 8
  call void @llvm.dbg.declare(metadata ptr %self.dbg.spill, metadata !941, metadata !DIExpression()), !dbg !945
  call void @llvm.dbg.declare(metadata ptr %ev, metadata !942, metadata !DIExpression()), !dbg !946
  %6 = getelementptr inbounds { i8, i8 }, ptr %ev, i32 0, i32 1, !dbg !947
  %_12 = load i8, ptr %6, align 1, !dbg !947, !range !948, !noundef !27
  switch i8 %_12, label %bb1 [
    i8 34, label %bb2
    i8 60, label %bb3
    i8 76, label %bb4
    i8 87, label %bb5
    i8 93, label %bb6
    i8 97, label %bb7
    i8 100, label %bb8
    i8 122, label %bb9
  ], !dbg !949

bb1:                                              ; preds = %bb2, %bb3, %bb4, %bb5, %bb6, %bb7, %bb8, %bb9, %start
  %7 = load i8, ptr %ev, align 1, !dbg !947, !range !950, !noundef !27
  %_11 = zext i8 %7 to i64, !dbg !947
  %8 = icmp eq i64 %_11, 1, !dbg !949
  br i1 %8, label %bb27, label %bb10, !dbg !949

bb2:                                              ; preds = %start
  %9 = load i8, ptr %ev, align 1, !dbg !947, !range !950, !noundef !27
  %_3 = zext i8 %9 to i64, !dbg !947
  %10 = icmp eq i64 %_3, 1, !dbg !949
  br i1 %10, label %bb16, label %bb1, !dbg !949

bb3:                                              ; preds = %start
  %11 = load i8, ptr %ev, align 1, !dbg !947, !range !950, !noundef !27
  %_4 = zext i8 %11 to i64, !dbg !947
  %12 = icmp eq i64 %_4, 1, !dbg !949
  br i1 %12, label %bb15, label %bb1, !dbg !949

bb4:                                              ; preds = %start
  %13 = load i8, ptr %ev, align 1, !dbg !947, !range !950, !noundef !27
  %_5 = zext i8 %13 to i64, !dbg !947
  switch i64 %_5, label %bb1 [
    i64 0, label %bb13
    i64 1, label %bb11
  ], !dbg !949

bb5:                                              ; preds = %start
  %14 = load i8, ptr %ev, align 1, !dbg !947, !range !950, !noundef !27
  %_6 = zext i8 %14 to i64, !dbg !947
  switch i64 %_6, label %bb1 [
    i64 0, label %bb14
    i64 1, label %bb12
  ], !dbg !949

bb6:                                              ; preds = %start
  %15 = load i8, ptr %ev, align 1, !dbg !947, !range !950, !noundef !27
  %_7 = zext i8 %15 to i64, !dbg !947
  switch i64 %_7, label %bb1 [
    i64 0, label %bb20
    i64 1, label %bb19
  ], !dbg !949

bb7:                                              ; preds = %start
  %16 = load i8, ptr %ev, align 1, !dbg !947, !range !950, !noundef !27
  %_8 = zext i8 %16 to i64, !dbg !947
  switch i64 %_8, label %bb1 [
    i64 0, label %bb24
    i64 1, label %bb23
  ], !dbg !949

bb8:                                              ; preds = %start
  %17 = load i8, ptr %ev, align 1, !dbg !947, !range !950, !noundef !27
  %_9 = zext i8 %17 to i64, !dbg !947
  switch i64 %_9, label %bb1 [
    i64 0, label %bb22
    i64 1, label %bb21
  ], !dbg !949

bb9:                                              ; preds = %start
  %18 = load i8, ptr %ev, align 1, !dbg !947, !range !950, !noundef !27
  %_10 = zext i8 %18 to i64, !dbg !947
  switch i64 %_10, label %bb1 [
    i64 0, label %bb26
    i64 1, label %bb25
  ], !dbg !949

bb26:                                             ; preds = %bb9
  %19 = getelementptr inbounds %"pc_keyboard::EventDecoder<pc_keyboard::layouts::us104::Us104Key>", ptr %self, i32 0, i32 2, !dbg !951
  %20 = getelementptr inbounds %"pc_keyboard::Modifiers", ptr %19, i32 0, i32 7, !dbg !951
  store i8 0, ptr %20, align 1, !dbg !951
  store i8 2, ptr %3, align 4, !dbg !952
  br label %bb29, !dbg !952

bb25:                                             ; preds = %bb9
  %21 = getelementptr inbounds %"pc_keyboard::EventDecoder<pc_keyboard::layouts::us104::Us104Key>", ptr %self, i32 0, i32 2, !dbg !953
  %22 = getelementptr inbounds %"pc_keyboard::Modifiers", ptr %21, i32 0, i32 7, !dbg !953
  store i8 1, ptr %22, align 1, !dbg !953
  store i8 122, ptr %_33, align 1, !dbg !954
  %23 = load i8, ptr %_33, align 1, !dbg !955, !range !948, !noundef !27
  %24 = getelementptr inbounds %"pc_keyboard::DecodedKey::RawKey", ptr %_32, i32 0, i32 1, !dbg !955
  store i8 %23, ptr %24, align 1, !dbg !955
  store i8 0, ptr %_32, align 4, !dbg !955
  call void @llvm.memcpy.p0.p0.i64(ptr align 4 %3, ptr align 4 %_32, i64 8, i1 false), !dbg !956
  br label %bb29, !dbg !957

bb29:                                             ; preds = %bb18, %bb17, %bb27, %bb10, %bb15, %bb13, %bb11, %bb14, %bb12, %bb20, %bb19, %bb24, %bb23, %bb22, %bb21, %bb26, %bb25
  %25 = load i64, ptr %3, align 4, !dbg !958
  ret i64 %25, !dbg !958

bb22:                                             ; preds = %bb8
  %26 = getelementptr inbounds %"pc_keyboard::EventDecoder<pc_keyboard::layouts::us104::Us104Key>", ptr %self, i32 0, i32 2, !dbg !959
  %27 = getelementptr inbounds %"pc_keyboard::Modifiers", ptr %26, i32 0, i32 3, !dbg !959
  store i8 0, ptr %27, align 1, !dbg !959
  store i8 2, ptr %3, align 4, !dbg !960
  br label %bb29, !dbg !960

bb21:                                             ; preds = %bb8
  %28 = getelementptr inbounds %"pc_keyboard::EventDecoder<pc_keyboard::layouts::us104::Us104Key>", ptr %self, i32 0, i32 2, !dbg !961
  %29 = getelementptr inbounds %"pc_keyboard::Modifiers", ptr %28, i32 0, i32 3, !dbg !961
  store i8 1, ptr %29, align 1, !dbg !961
  store i8 100, ptr %_29, align 1, !dbg !962
  %30 = load i8, ptr %_29, align 1, !dbg !963, !range !948, !noundef !27
  %31 = getelementptr inbounds %"pc_keyboard::DecodedKey::RawKey", ptr %_28, i32 0, i32 1, !dbg !963
  store i8 %30, ptr %31, align 1, !dbg !963
  store i8 0, ptr %_28, align 4, !dbg !963
  call void @llvm.memcpy.p0.p0.i64(ptr align 4 %3, ptr align 4 %_28, i64 8, i1 false), !dbg !964
  br label %bb29, !dbg !965

bb24:                                             ; preds = %bb7
  %32 = getelementptr inbounds %"pc_keyboard::EventDecoder<pc_keyboard::layouts::us104::Us104Key>", ptr %self, i32 0, i32 2, !dbg !966
  %33 = getelementptr inbounds %"pc_keyboard::Modifiers", ptr %32, i32 0, i32 6, !dbg !966
  store i8 0, ptr %33, align 1, !dbg !966
  store i8 2, ptr %3, align 4, !dbg !967
  br label %bb29, !dbg !967

bb23:                                             ; preds = %bb7
  %34 = getelementptr inbounds %"pc_keyboard::EventDecoder<pc_keyboard::layouts::us104::Us104Key>", ptr %self, i32 0, i32 2, !dbg !968
  %35 = getelementptr inbounds %"pc_keyboard::Modifiers", ptr %34, i32 0, i32 6, !dbg !968
  store i8 1, ptr %35, align 1, !dbg !968
  store i8 97, ptr %_31, align 1, !dbg !969
  %36 = load i8, ptr %_31, align 1, !dbg !970, !range !948, !noundef !27
  %37 = getelementptr inbounds %"pc_keyboard::DecodedKey::RawKey", ptr %_30, i32 0, i32 1, !dbg !970
  store i8 %36, ptr %37, align 1, !dbg !970
  store i8 0, ptr %_30, align 4, !dbg !970
  call void @llvm.memcpy.p0.p0.i64(ptr align 4 %3, ptr align 4 %_30, i64 8, i1 false), !dbg !971
  br label %bb29, !dbg !972

bb20:                                             ; preds = %bb6
  %38 = getelementptr inbounds %"pc_keyboard::EventDecoder<pc_keyboard::layouts::us104::Us104Key>", ptr %self, i32 0, i32 2, !dbg !973
  %39 = getelementptr inbounds %"pc_keyboard::Modifiers", ptr %38, i32 0, i32 2, !dbg !973
  store i8 0, ptr %39, align 1, !dbg !973
  store i8 2, ptr %3, align 4, !dbg !974
  br label %bb29, !dbg !974

bb19:                                             ; preds = %bb6
  %40 = getelementptr inbounds %"pc_keyboard::EventDecoder<pc_keyboard::layouts::us104::Us104Key>", ptr %self, i32 0, i32 2, !dbg !975
  %41 = getelementptr inbounds %"pc_keyboard::Modifiers", ptr %40, i32 0, i32 2, !dbg !975
  store i8 1, ptr %41, align 1, !dbg !975
  store i8 93, ptr %_27, align 1, !dbg !976
  %42 = load i8, ptr %_27, align 1, !dbg !977, !range !948, !noundef !27
  %43 = getelementptr inbounds %"pc_keyboard::DecodedKey::RawKey", ptr %_26, i32 0, i32 1, !dbg !977
  store i8 %42, ptr %43, align 1, !dbg !977
  store i8 0, ptr %_26, align 4, !dbg !977
  call void @llvm.memcpy.p0.p0.i64(ptr align 4 %3, ptr align 4 %_26, i64 8, i1 false), !dbg !978
  br label %bb29, !dbg !979

bb14:                                             ; preds = %bb5
  %44 = getelementptr inbounds %"pc_keyboard::EventDecoder<pc_keyboard::layouts::us104::Us104Key>", ptr %self, i32 0, i32 2, !dbg !980
  %45 = getelementptr inbounds %"pc_keyboard::Modifiers", ptr %44, i32 0, i32 1, !dbg !980
  store i8 0, ptr %45, align 1, !dbg !980
  store i8 2, ptr %3, align 4, !dbg !981
  br label %bb29, !dbg !981

bb12:                                             ; preds = %bb5
  %46 = getelementptr inbounds %"pc_keyboard::EventDecoder<pc_keyboard::layouts::us104::Us104Key>", ptr %self, i32 0, i32 2, !dbg !982
  %47 = getelementptr inbounds %"pc_keyboard::Modifiers", ptr %46, i32 0, i32 1, !dbg !982
  store i8 1, ptr %47, align 1, !dbg !982
  store i8 87, ptr %_16, align 1, !dbg !983
  %48 = load i8, ptr %_16, align 1, !dbg !984, !range !948, !noundef !27
  %49 = getelementptr inbounds %"pc_keyboard::DecodedKey::RawKey", ptr %_15, i32 0, i32 1, !dbg !984
  store i8 %48, ptr %49, align 1, !dbg !984
  store i8 0, ptr %_15, align 4, !dbg !984
  call void @llvm.memcpy.p0.p0.i64(ptr align 4 %3, ptr align 4 %_15, i64 8, i1 false), !dbg !985
  br label %bb29, !dbg !986

bb13:                                             ; preds = %bb4
  %50 = getelementptr inbounds %"pc_keyboard::EventDecoder<pc_keyboard::layouts::us104::Us104Key>", ptr %self, i32 0, i32 2, !dbg !987
  store i8 0, ptr %50, align 1, !dbg !987
  store i8 2, ptr %3, align 4, !dbg !988
  br label %bb29, !dbg !988

bb11:                                             ; preds = %bb4
  %51 = getelementptr inbounds %"pc_keyboard::EventDecoder<pc_keyboard::layouts::us104::Us104Key>", ptr %self, i32 0, i32 2, !dbg !989
  store i8 1, ptr %51, align 1, !dbg !989
  store i8 76, ptr %_14, align 1, !dbg !990
  %52 = load i8, ptr %_14, align 1, !dbg !991, !range !948, !noundef !27
  %53 = getelementptr inbounds %"pc_keyboard::DecodedKey::RawKey", ptr %_13, i32 0, i32 1, !dbg !991
  store i8 %52, ptr %53, align 1, !dbg !991
  store i8 0, ptr %_13, align 4, !dbg !991
  call void @llvm.memcpy.p0.p0.i64(ptr align 4 %3, ptr align 4 %_13, i64 8, i1 false), !dbg !992
  br label %bb29, !dbg !993

bb15:                                             ; preds = %bb3
  %54 = getelementptr inbounds %"pc_keyboard::EventDecoder<pc_keyboard::layouts::us104::Us104Key>", ptr %self, i32 0, i32 2, !dbg !994
  %55 = getelementptr inbounds %"pc_keyboard::Modifiers", ptr %54, i32 0, i32 5, !dbg !994
  %56 = load i8, ptr %55, align 1, !dbg !994, !range !995, !noundef !27
  %_17 = trunc i8 %56 to i1, !dbg !994
  %57 = getelementptr inbounds %"pc_keyboard::EventDecoder<pc_keyboard::layouts::us104::Us104Key>", ptr %self, i32 0, i32 2, !dbg !996
  %58 = getelementptr inbounds %"pc_keyboard::Modifiers", ptr %57, i32 0, i32 5, !dbg !996
  %59 = xor i1 %_17, true, !dbg !996
  %60 = zext i1 %59 to i8, !dbg !996
  store i8 %60, ptr %58, align 1, !dbg !996
  store i8 60, ptr %_19, align 1, !dbg !997
  %61 = load i8, ptr %_19, align 1, !dbg !998, !range !948, !noundef !27
  %62 = getelementptr inbounds %"pc_keyboard::DecodedKey::RawKey", ptr %_18, i32 0, i32 1, !dbg !998
  store i8 %61, ptr %62, align 1, !dbg !998
  store i8 0, ptr %_18, align 4, !dbg !998
  call void @llvm.memcpy.p0.p0.i64(ptr align 4 %3, ptr align 4 %_18, i64 8, i1 false), !dbg !999
  br label %bb29, !dbg !1000

bb16:                                             ; preds = %bb2
  %63 = getelementptr inbounds %"pc_keyboard::EventDecoder<pc_keyboard::layouts::us104::Us104Key>", ptr %self, i32 0, i32 2, !dbg !1001
  %64 = getelementptr inbounds %"pc_keyboard::Modifiers", ptr %63, i32 0, i32 7, !dbg !1001
  %65 = load i8, ptr %64, align 1, !dbg !1001, !range !995, !noundef !27
  %_20 = trunc i8 %65 to i1, !dbg !1001
  br i1 %_20, label %bb17, label %bb18, !dbg !1001

bb27:                                             ; preds = %bb1
  %66 = getelementptr inbounds { i8, i8 }, ptr %ev, i32 0, i32 1, !dbg !1002
  %c = load i8, ptr %66, align 1, !dbg !1002, !range !948, !noundef !27
  store i8 %c, ptr %c.dbg.spill, align 1, !dbg !1002
  call void @llvm.dbg.declare(metadata ptr %c.dbg.spill, metadata !943, metadata !DIExpression()), !dbg !1003
  %_37 = getelementptr inbounds %"pc_keyboard::EventDecoder<pc_keyboard::layouts::us104::Us104Key>", ptr %self, i32 0, i32 2, !dbg !1004
  %67 = load i8, ptr %self, align 1, !dbg !1005, !range !995, !noundef !27
  %_38 = trunc i8 %67 to i1, !dbg !1005
; call <pc_keyboard::layouts::us104::Us104Key as pc_keyboard::KeyboardLayout>::map_keycode
  %68 = call i64 @"_ZN85_$LT$pc_keyboard..layouts..us104..Us104Key$u20$as$u20$pc_keyboard..KeyboardLayout$GT$11map_keycode17h3ff1624d2006c959E"(ptr align 1 %self, i8 %c, ptr align 1 %_37, i1 zeroext %_38) #9, !dbg !1006
  store i64 %68, ptr %2, align 8, !dbg !1006
  call void @llvm.memcpy.p0.p0.i64(ptr align 4 %_35, ptr align 8 %2, i64 8, i1 false), !dbg !1006
  call void @llvm.memcpy.p0.p0.i64(ptr align 4 %3, ptr align 4 %_35, i64 8, i1 false), !dbg !1007
  br label %bb29, !dbg !1008

bb10:                                             ; preds = %bb1
  store i8 2, ptr %3, align 4, !dbg !1009
  br label %bb29, !dbg !1009

bb18:                                             ; preds = %bb16
  %69 = getelementptr inbounds %"pc_keyboard::EventDecoder<pc_keyboard::layouts::us104::Us104Key>", ptr %self, i32 0, i32 2, !dbg !1010
  %70 = getelementptr inbounds %"pc_keyboard::Modifiers", ptr %69, i32 0, i32 4, !dbg !1010
  %71 = load i8, ptr %70, align 1, !dbg !1010, !range !995, !noundef !27
  %_23 = trunc i8 %71 to i1, !dbg !1010
  %72 = getelementptr inbounds %"pc_keyboard::EventDecoder<pc_keyboard::layouts::us104::Us104Key>", ptr %self, i32 0, i32 2, !dbg !1011
  %73 = getelementptr inbounds %"pc_keyboard::Modifiers", ptr %72, i32 0, i32 4, !dbg !1011
  %74 = xor i1 %_23, true, !dbg !1011
  %75 = zext i1 %74 to i8, !dbg !1011
  store i8 %75, ptr %73, align 1, !dbg !1011
  store i8 34, ptr %_25, align 1, !dbg !1012
  %76 = load i8, ptr %_25, align 1, !dbg !1013, !range !948, !noundef !27
  %77 = getelementptr inbounds %"pc_keyboard::DecodedKey::RawKey", ptr %_24, i32 0, i32 1, !dbg !1013
  store i8 %76, ptr %77, align 1, !dbg !1013
  store i8 0, ptr %_24, align 4, !dbg !1013
  call void @llvm.memcpy.p0.p0.i64(ptr align 4 %3, ptr align 4 %_24, i64 8, i1 false), !dbg !1014
  br label %bb29, !dbg !1015

bb17:                                             ; preds = %bb16
  store i8 16, ptr %_22, align 1, !dbg !1016
  %78 = load i8, ptr %_22, align 1, !dbg !1017, !range !948, !noundef !27
  %79 = getelementptr inbounds %"pc_keyboard::DecodedKey::RawKey", ptr %_21, i32 0, i32 1, !dbg !1017
  store i8 %78, ptr %79, align 1, !dbg !1017
  store i8 0, ptr %_21, align 4, !dbg !1017
  call void @llvm.memcpy.p0.p0.i64(ptr align 4 %3, ptr align 4 %_21, i64 8, i1 false), !dbg !1018
  br label %bb29, !dbg !1015
}

; pc_keyboard::EventDecoder<L>::new
; Function Attrs: noredzone nounwind
define internal void @"_ZN11pc_keyboard21EventDecoder$LT$L$GT$3new17hd9478c1cf01e35c1E"(ptr sret(%"pc_keyboard::EventDecoder<pc_keyboard::layouts::us104::Us104Key>") %0, i1 zeroext %handle_ctrl) unnamed_addr #1 !dbg !1019 {
start:
  %handle_ctrl.dbg.spill = alloca i8, align 1
  %layout.dbg.spill = alloca %"pc_keyboard::layouts::us104::Us104Key", align 1
  %_3 = alloca %"pc_keyboard::Modifiers", align 1
  call void @llvm.dbg.declare(metadata ptr %layout.dbg.spill, metadata !1024, metadata !DIExpression()), !dbg !1026
  %1 = zext i1 %handle_ctrl to i8
  store i8 %1, ptr %handle_ctrl.dbg.spill, align 1
  call void @llvm.dbg.declare(metadata ptr %handle_ctrl.dbg.spill, metadata !1025, metadata !DIExpression()), !dbg !1027
  store i8 0, ptr %_3, align 1, !dbg !1028
  %2 = getelementptr inbounds %"pc_keyboard::Modifiers", ptr %_3, i32 0, i32 1, !dbg !1028
  store i8 0, ptr %2, align 1, !dbg !1028
  %3 = getelementptr inbounds %"pc_keyboard::Modifiers", ptr %_3, i32 0, i32 2, !dbg !1028
  store i8 0, ptr %3, align 1, !dbg !1028
  %4 = getelementptr inbounds %"pc_keyboard::Modifiers", ptr %_3, i32 0, i32 3, !dbg !1028
  store i8 0, ptr %4, align 1, !dbg !1028
  %5 = getelementptr inbounds %"pc_keyboard::Modifiers", ptr %_3, i32 0, i32 4, !dbg !1028
  store i8 1, ptr %5, align 1, !dbg !1028
  %6 = getelementptr inbounds %"pc_keyboard::Modifiers", ptr %_3, i32 0, i32 5, !dbg !1028
  store i8 0, ptr %6, align 1, !dbg !1028
  %7 = getelementptr inbounds %"pc_keyboard::Modifiers", ptr %_3, i32 0, i32 6, !dbg !1028
  store i8 0, ptr %7, align 1, !dbg !1028
  %8 = getelementptr inbounds %"pc_keyboard::Modifiers", ptr %_3, i32 0, i32 7, !dbg !1028
  store i8 0, ptr %8, align 1, !dbg !1028
  %9 = zext i1 %handle_ctrl to i8, !dbg !1029
  store i8 %9, ptr %0, align 1, !dbg !1029
  %10 = getelementptr inbounds %"pc_keyboard::EventDecoder<pc_keyboard::layouts::us104::Us104Key>", ptr %0, i32 0, i32 2, !dbg !1029
  call void @llvm.memcpy.p0.p0.i64(ptr align 1 %10, ptr align 1 %_3, i64 8, i1 false), !dbg !1029
  ret void, !dbg !1030
}

; pc_keyboard::Keyboard<L,S>::process_keyevent
; Function Attrs: noredzone nounwind
define internal i64 @"_ZN11pc_keyboard21Keyboard$LT$L$C$S$GT$16process_keyevent17h0eef9edd83e74de9E"(ptr align 2 %self, i8 %ev.0, i8 %ev.1) unnamed_addr #1 !dbg !1031 {
start:
  %0 = alloca i64, align 8
  %ev.dbg.spill = alloca { i8, i8 }, align 1
  %self.dbg.spill = alloca ptr, align 8
  %1 = alloca %"core::option::Option<pc_keyboard::DecodedKey>", align 4
  store ptr %self, ptr %self.dbg.spill, align 8
  call void @llvm.dbg.declare(metadata ptr %self.dbg.spill, metadata !1037, metadata !DIExpression()), !dbg !1039
  %2 = getelementptr inbounds { i8, i8 }, ptr %ev.dbg.spill, i32 0, i32 0
  store i8 %ev.0, ptr %2, align 1
  %3 = getelementptr inbounds { i8, i8 }, ptr %ev.dbg.spill, i32 0, i32 1
  store i8 %ev.1, ptr %3, align 1
  call void @llvm.dbg.declare(metadata ptr %ev.dbg.spill, metadata !1038, metadata !DIExpression()), !dbg !1040
  %_3 = getelementptr inbounds %"pc_keyboard::Keyboard<pc_keyboard::layouts::us104::Us104Key, pc_keyboard::scancodes::set1::ScancodeSet1>", ptr %self, i32 0, i32 1, !dbg !1041
; call pc_keyboard::EventDecoder<L>::process_keyevent
  %4 = call i64 @"_ZN11pc_keyboard21EventDecoder$LT$L$GT$16process_keyevent17h1a13f579ac231d4cE"(ptr align 1 %_3, i8 %ev.0, i8 %ev.1) #9, !dbg !1041
  store i64 %4, ptr %0, align 8, !dbg !1041
  call void @llvm.memcpy.p0.p0.i64(ptr align 4 %1, ptr align 8 %0, i64 8, i1 false), !dbg !1041
  %5 = load i64, ptr %1, align 4, !dbg !1042
  ret i64 %5, !dbg !1042
}

; pc_keyboard::Keyboard<L,S>::new
; Function Attrs: noredzone nounwind
define internal void @"_ZN11pc_keyboard21Keyboard$LT$L$C$S$GT$3new17hda7c7ac3bdd29519E"(ptr sret(%"pc_keyboard::Keyboard<pc_keyboard::layouts::us104::Us104Key, pc_keyboard::scancodes::set1::ScancodeSet1>") %0, i8 %scancode_set, i1 zeroext %handle_ctrl) unnamed_addr #1 !dbg !1043 {
start:
  %handle_ctrl.dbg.spill = alloca i8, align 1
  %layout.dbg.spill = alloca %"pc_keyboard::layouts::us104::Us104Key", align 1
  %scancode_set.dbg.spill = alloca i8, align 1
  %_5 = alloca %"pc_keyboard::EventDecoder<pc_keyboard::layouts::us104::Us104Key>", align 1
  store i8 %scancode_set, ptr %scancode_set.dbg.spill, align 1
  call void @llvm.dbg.declare(metadata ptr %scancode_set.dbg.spill, metadata !1048, metadata !DIExpression()), !dbg !1051
  call void @llvm.dbg.declare(metadata ptr %layout.dbg.spill, metadata !1049, metadata !DIExpression()), !dbg !1052
  %1 = zext i1 %handle_ctrl to i8
  store i8 %1, ptr %handle_ctrl.dbg.spill, align 1
  call void @llvm.dbg.declare(metadata ptr %handle_ctrl.dbg.spill, metadata !1050, metadata !DIExpression()), !dbg !1053
; call pc_keyboard::Ps2Decoder::new
  %2 = call { i16, i8 } @_ZN11pc_keyboard10Ps2Decoder3new17ha0a01615d55ca01dE() #9, !dbg !1054
  %_4.0 = extractvalue { i16, i8 } %2, 0, !dbg !1054
  %_4.1 = extractvalue { i16, i8 } %2, 1, !dbg !1054
; call pc_keyboard::EventDecoder<L>::new
  call void @"_ZN11pc_keyboard21EventDecoder$LT$L$GT$3new17hd9478c1cf01e35c1E"(ptr sret(%"pc_keyboard::EventDecoder<pc_keyboard::layouts::us104::Us104Key>") %_5, i1 zeroext %handle_ctrl) #9, !dbg !1055
  %3 = getelementptr inbounds { i16, i8 }, ptr %0, i32 0, i32 0, !dbg !1056
  store i16 %_4.0, ptr %3, align 2, !dbg !1056
  %4 = getelementptr inbounds { i16, i8 }, ptr %0, i32 0, i32 1, !dbg !1056
  store i8 %_4.1, ptr %4, align 2, !dbg !1056
  %5 = getelementptr inbounds %"pc_keyboard::Keyboard<pc_keyboard::layouts::us104::Us104Key, pc_keyboard::scancodes::set1::ScancodeSet1>", ptr %0, i32 0, i32 2, !dbg !1056
  store i8 %scancode_set, ptr %5, align 1, !dbg !1056
  %6 = getelementptr inbounds %"pc_keyboard::Keyboard<pc_keyboard::layouts::us104::Us104Key, pc_keyboard::scancodes::set1::ScancodeSet1>", ptr %0, i32 0, i32 1, !dbg !1056
  call void @llvm.memcpy.p0.p0.i64(ptr align 2 %6, ptr align 1 %_5, i64 9, i1 false), !dbg !1056
  ret void, !dbg !1057
}

; pc_keyboard::Keyboard<L,S>::add_byte
; Function Attrs: noredzone nounwind
define internal i16 @"_ZN11pc_keyboard21Keyboard$LT$L$C$S$GT$8add_byte17h725cd109eafc3ccfE"(ptr align 2 %self, i8 %byte) unnamed_addr #1 !dbg !1058 {
start:
  %0 = alloca i16, align 2
  %byte.dbg.spill = alloca i8, align 1
  %self.dbg.spill = alloca ptr, align 8
  %1 = alloca %"core::result::Result<core::option::Option<pc_keyboard::KeyEvent>, pc_keyboard::Error>", align 1
  store ptr %self, ptr %self.dbg.spill, align 8
  call void @llvm.dbg.declare(metadata ptr %self.dbg.spill, metadata !1092, metadata !DIExpression()), !dbg !1094
  store i8 %byte, ptr %byte.dbg.spill, align 1
  call void @llvm.dbg.declare(metadata ptr %byte.dbg.spill, metadata !1093, metadata !DIExpression()), !dbg !1095
  %_3 = getelementptr inbounds %"pc_keyboard::Keyboard<pc_keyboard::layouts::us104::Us104Key, pc_keyboard::scancodes::set1::ScancodeSet1>", ptr %self, i32 0, i32 2, !dbg !1096
; call <pc_keyboard::scancodes::set1::ScancodeSet1 as pc_keyboard::ScancodeSet>::advance_state
  %2 = call i16 @"_ZN87_$LT$pc_keyboard..scancodes..set1..ScancodeSet1$u20$as$u20$pc_keyboard..ScancodeSet$GT$13advance_state17he46462efeb15f25cE"(ptr align 1 %_3, i8 %byte) #9, !dbg !1096
  store i16 %2, ptr %0, align 2, !dbg !1096
  call void @llvm.memcpy.p0.p0.i64(ptr align 1 %1, ptr align 2 %0, i64 2, i1 false), !dbg !1096
  %3 = load i16, ptr %1, align 1, !dbg !1097
  ret i16 %3, !dbg !1097
}

; cpu_interrupts::without_interrupts
; Function Attrs: noredzone nounwind
define internal void @_ZN14cpu_interrupts18without_interrupts17h984b160d0652c1adE(ptr align 8 %f) unnamed_addr #1 !dbg !1098 {
start:
  %f.dbg.spill = alloca ptr, align 8
  store ptr %f, ptr %f.dbg.spill, align 8
  call void @llvm.dbg.declare(metadata ptr %f.dbg.spill, metadata !1164, metadata !DIExpression()), !dbg !1168
; call x86_64::instructions::interrupts::without_interrupts
  call void @_ZN6x86_6412instructions10interrupts18without_interrupts17hfe19c6979f2448cfE(ptr align 8 %f) #9, !dbg !1169
  ret void, !dbg !1170
}

; <&T as core::fmt::Debug>::fmt
; Function Attrs: noredzone nounwind
define internal zeroext i1 @"_ZN42_$LT$$RF$T$u20$as$u20$core..fmt..Debug$GT$3fmt17h3c9bb6e6b37a0298E"(ptr align 8 %self, ptr align 8 %f) unnamed_addr #1 !dbg !1171 {
start:
  %f.dbg.spill = alloca ptr, align 8
  %self.dbg.spill = alloca ptr, align 8
  store ptr %self, ptr %self.dbg.spill, align 8
  call void @llvm.dbg.declare(metadata ptr %self.dbg.spill, metadata !1205, metadata !DIExpression()), !dbg !1209
  store ptr %f, ptr %f.dbg.spill, align 8
  call void @llvm.dbg.declare(metadata ptr %f.dbg.spill, metadata !1206, metadata !DIExpression()), !dbg !1210
  %_3 = load ptr, ptr %self, align 8, !dbg !1211, !nonnull !27, !align !1212, !noundef !27
; call <core::panic::panic_info::PanicInfo as core::fmt::Debug>::fmt
  %0 = call zeroext i1 @"_ZN71_$LT$core..panic..panic_info..PanicInfo$u20$as$u20$core..fmt..Debug$GT$3fmt17h44b8b724748f1989E"(ptr align 8 %_3, ptr align 8 %f) #9, !dbg !1213
  ret i1 %0, !dbg !1214
}

; <u16 as bit_field::BitField>::set_bit
; Function Attrs: inlinehint noredzone nounwind
define internal align 2 ptr @"_ZN43_$LT$u16$u20$as$u20$bit_field..BitField$GT$7set_bit17hda3727c03bb3e4cdE"(ptr align 2 %self, i64 %bit, i1 zeroext %value) unnamed_addr #0 !dbg !1215 {
start:
  %value.dbg.spill = alloca i8, align 1
  %bit.dbg.spill = alloca i64, align 8
  %self.dbg.spill = alloca ptr, align 8
  store ptr %self, ptr %self.dbg.spill, align 8
  call void @llvm.dbg.declare(metadata ptr %self.dbg.spill, metadata !1223, metadata !DIExpression()), !dbg !1226
  store i64 %bit, ptr %bit.dbg.spill, align 8
  call void @llvm.dbg.declare(metadata ptr %bit.dbg.spill, metadata !1224, metadata !DIExpression()), !dbg !1227
  %0 = zext i1 %value to i8
  store i8 %0, ptr %value.dbg.spill, align 1
  call void @llvm.dbg.declare(metadata ptr %value.dbg.spill, metadata !1225, metadata !DIExpression()), !dbg !1228
  %_5 = icmp ult i64 %bit, 16, !dbg !1229
  %_4 = xor i1 %_5, true, !dbg !1230
  br i1 %_4, label %bb1, label %bb2, !dbg !1230

bb2:                                              ; preds = %start
  br i1 %value, label %bb3, label %bb4, !dbg !1231

bb1:                                              ; preds = %start
; call core::panicking::panic
  call void @_ZN4core9panicking5panic17h38d135543837e8b5E(ptr align 1 @alloc_6923360c3161738641b3989c6181ce08, i64 40, ptr align 8 @alloc_b01c63d7eb55c84e9d45ae152316a96d) #11, !dbg !1230
  unreachable, !dbg !1230

bb4:                                              ; preds = %bb2
  %_11 = icmp ult i64 %bit, 16, !dbg !1232
  %1 = call i1 @llvm.expect.i1(i1 %_11, i1 true), !dbg !1232
  br i1 %1, label %bb6, label %panic1, !dbg !1232

bb3:                                              ; preds = %bb2
  %_8 = icmp ult i64 %bit, 16, !dbg !1233
  %2 = call i1 @llvm.expect.i1(i1 %_8, i1 true), !dbg !1233
  br i1 %2, label %bb5, label %panic, !dbg !1233

bb5:                                              ; preds = %bb3
  %3 = trunc i64 %bit to i16, !dbg !1233
  %4 = and i16 %3, 15, !dbg !1233
  %_7 = shl i16 1, %4, !dbg !1233
  %5 = load i16, ptr %self, align 2, !dbg !1234, !noundef !27
  %6 = or i16 %5, %_7, !dbg !1234
  store i16 %6, ptr %self, align 2, !dbg !1234
  br label %bb7, !dbg !1235

panic:                                            ; preds = %bb3
; call core::panicking::panic
  call void @_ZN4core9panicking5panic17h38d135543837e8b5E(ptr align 1 @str.1, i64 35, ptr align 8 @alloc_b01c63d7eb55c84e9d45ae152316a96d) #11, !dbg !1233
  unreachable, !dbg !1233

bb7:                                              ; preds = %bb6, %bb5
  ret ptr %self, !dbg !1236

bb6:                                              ; preds = %bb4
  %7 = trunc i64 %bit to i16, !dbg !1232
  %8 = and i16 %7, 15, !dbg !1232
  %_10 = shl i16 1, %8, !dbg !1232
  %_9 = xor i16 %_10, -1, !dbg !1237
  %9 = load i16, ptr %self, align 2, !dbg !1238, !noundef !27
  %10 = and i16 %9, %_9, !dbg !1238
  store i16 %10, ptr %self, align 2, !dbg !1238
  br label %bb7, !dbg !1235

panic1:                                           ; preds = %bb4
; call core::panicking::panic
  call void @_ZN4core9panicking5panic17h38d135543837e8b5E(ptr align 1 @str.1, i64 35, ptr align 8 @alloc_b01c63d7eb55c84e9d45ae152316a96d) #11, !dbg !1232
  unreachable, !dbg !1232
}

; core::fmt::Write::write_char
; Function Attrs: noredzone nounwind
define internal zeroext i1 @_ZN4core3fmt5Write10write_char17hc1b9676f0c276004E(ptr align 8 %self, i32 %c) unnamed_addr #1 !dbg !1239 {
start:
  %c.dbg.spill = alloca i32, align 4
  %self.dbg.spill = alloca ptr, align 8
  %_7 = alloca [4 x i8], align 1
  store ptr %self, ptr %self.dbg.spill, align 8
  call void @llvm.dbg.declare(metadata ptr %self.dbg.spill, metadata !1244, metadata !DIExpression()), !dbg !1248
  store i32 %c, ptr %c.dbg.spill, align 4
  call void @llvm.dbg.declare(metadata ptr %c.dbg.spill, metadata !1245, metadata !DIExpression()), !dbg !1249
  %0 = getelementptr inbounds [4 x i8], ptr %_7, i64 0, i64 0, !dbg !1250
  call void @llvm.memset.p0.i64(ptr align 1 %0, i8 0, i64 4, i1 false), !dbg !1250
; call core::char::methods::<impl char>::encode_utf8
  %1 = call { ptr, i64 } @"_ZN4core4char7methods22_$LT$impl$u20$char$GT$11encode_utf817hb026cb3f38b2ad49E"(i32 %c, ptr align 1 %_7, i64 4) #9, !dbg !1251
  %_4.0 = extractvalue { ptr, i64 } %1, 0, !dbg !1251
  %_4.1 = extractvalue { ptr, i64 } %1, 1, !dbg !1251
; call <vga::Screen as core::fmt::Write>::write_str
  %2 = call zeroext i1 @"_ZN48_$LT$vga..Screen$u20$as$u20$core..fmt..Write$GT$9write_str17h2fa52469e35aa944E"(ptr align 8 %self, ptr align 1 %_4.0, i64 %_4.1) #9, !dbg !1252
  ret i1 %2, !dbg !1253
}

; core::fmt::Write::write_fmt
; Function Attrs: noredzone nounwind
define internal zeroext i1 @_ZN4core3fmt5Write9write_fmt17hee3a4239f78a983eE(ptr align 8 %0, ptr %args) unnamed_addr #1 !dbg !1254 {
start:
  %1 = alloca %"core::fmt::Arguments<'_>", align 8
  %self = alloca ptr, align 8
  store ptr %0, ptr %self, align 8
  call void @llvm.dbg.declare(metadata ptr %self, metadata !1258, metadata !DIExpression()), !dbg !1260
  call void @llvm.dbg.declare(metadata ptr %args, metadata !1259, metadata !DIExpression()), !dbg !1261
  call void @llvm.memcpy.p0.p0.i64(ptr align 8 %1, ptr align 8 %args, i64 48, i1 false), !dbg !1262
; call core::fmt::write
  %2 = call zeroext i1 @_ZN4core3fmt5write17h51c5d50770463bc0E(ptr align 1 %self, ptr align 8 @vtable.2, ptr %1) #9, !dbg !1262
  ret i1 %2, !dbg !1263
}

; core::fmt::Arguments::new_v1_formatted
; Function Attrs: inlinehint noredzone nounwind
define internal void @_ZN4core3fmt9Arguments16new_v1_formatted17h497af0ed60daf7c4E(ptr sret(%"core::fmt::Arguments<'_>") %0, ptr align 8 %pieces.0, i64 %pieces.1, ptr align 8 %args.0, i64 %args.1, ptr align 8 %fmt.0, i64 %fmt.1) unnamed_addr #0 !dbg !1264 {
start:
  %_4.dbg.spill = alloca %"core::fmt::rt::UnsafeArg", align 1
  %fmt.dbg.spill = alloca { ptr, i64 }, align 8
  %args.dbg.spill = alloca { ptr, i64 }, align 8
  %pieces.dbg.spill = alloca { ptr, i64 }, align 8
  %_5 = alloca { ptr, i64 }, align 8
  %_unsafe_arg.dbg.spill = alloca %"core::fmt::rt::UnsafeArg", align 1
  call void @llvm.dbg.declare(metadata ptr %_unsafe_arg.dbg.spill, metadata !1275, metadata !DIExpression()), !dbg !1277
  %1 = getelementptr inbounds { ptr, i64 }, ptr %pieces.dbg.spill, i32 0, i32 0, !dbg !1277
  store ptr %pieces.0, ptr %1, align 8, !dbg !1277
  %2 = getelementptr inbounds { ptr, i64 }, ptr %pieces.dbg.spill, i32 0, i32 1, !dbg !1277
  store i64 %pieces.1, ptr %2, align 8, !dbg !1277
  call void @llvm.dbg.declare(metadata ptr %pieces.dbg.spill, metadata !1272, metadata !DIExpression()), !dbg !1278
  %3 = getelementptr inbounds { ptr, i64 }, ptr %args.dbg.spill, i32 0, i32 0, !dbg !1277
  store ptr %args.0, ptr %3, align 8, !dbg !1277
  %4 = getelementptr inbounds { ptr, i64 }, ptr %args.dbg.spill, i32 0, i32 1, !dbg !1277
  store i64 %args.1, ptr %4, align 8, !dbg !1277
  call void @llvm.dbg.declare(metadata ptr %args.dbg.spill, metadata !1273, metadata !DIExpression()), !dbg !1279
  %5 = getelementptr inbounds { ptr, i64 }, ptr %fmt.dbg.spill, i32 0, i32 0, !dbg !1277
  store ptr %fmt.0, ptr %5, align 8, !dbg !1277
  %6 = getelementptr inbounds { ptr, i64 }, ptr %fmt.dbg.spill, i32 0, i32 1, !dbg !1277
  store i64 %fmt.1, ptr %6, align 8, !dbg !1277
  call void @llvm.dbg.declare(metadata ptr %fmt.dbg.spill, metadata !1274, metadata !DIExpression()), !dbg !1280
  call void @llvm.dbg.declare(metadata ptr %_4.dbg.spill, metadata !1276, metadata !DIExpression()), !dbg !1277
  %7 = getelementptr inbounds { ptr, i64 }, ptr %_5, i32 0, i32 0, !dbg !1281
  store ptr %fmt.0, ptr %7, align 8, !dbg !1281
  %8 = getelementptr inbounds { ptr, i64 }, ptr %_5, i32 0, i32 1, !dbg !1281
  store i64 %fmt.1, ptr %8, align 8, !dbg !1281
  %9 = getelementptr inbounds { ptr, i64 }, ptr %0, i32 0, i32 0, !dbg !1282
  store ptr %pieces.0, ptr %9, align 8, !dbg !1282
  %10 = getelementptr inbounds { ptr, i64 }, ptr %0, i32 0, i32 1, !dbg !1282
  store i64 %pieces.1, ptr %10, align 8, !dbg !1282
  %11 = getelementptr inbounds { ptr, i64 }, ptr %_5, i32 0, i32 0, !dbg !1282
  %12 = load ptr, ptr %11, align 8, !dbg !1282, !align !1212, !noundef !27
  %13 = getelementptr inbounds { ptr, i64 }, ptr %_5, i32 0, i32 1, !dbg !1282
  %14 = load i64, ptr %13, align 8, !dbg !1282
  %15 = getelementptr inbounds %"core::fmt::Arguments<'_>", ptr %0, i32 0, i32 2, !dbg !1282
  %16 = getelementptr inbounds { ptr, i64 }, ptr %15, i32 0, i32 0, !dbg !1282
  store ptr %12, ptr %16, align 8, !dbg !1282
  %17 = getelementptr inbounds { ptr, i64 }, ptr %15, i32 0, i32 1, !dbg !1282
  store i64 %14, ptr %17, align 8, !dbg !1282
  %18 = getelementptr inbounds %"core::fmt::Arguments<'_>", ptr %0, i32 0, i32 1, !dbg !1282
  %19 = getelementptr inbounds { ptr, i64 }, ptr %18, i32 0, i32 0, !dbg !1282
  store ptr %args.0, ptr %19, align 8, !dbg !1282
  %20 = getelementptr inbounds { ptr, i64 }, ptr %18, i32 0, i32 1, !dbg !1282
  store i64 %args.1, ptr %20, align 8, !dbg !1282
  ret void, !dbg !1283
}

; core::fmt::Arguments::new_v1
; Function Attrs: inlinehint noredzone nounwind
define internal void @_ZN4core3fmt9Arguments6new_v117h230bc6ec1daacb1aE(ptr sret(%"core::fmt::Arguments<'_>") %0, ptr align 8 %pieces.0, i64 %pieces.1, ptr align 8 %args.0, i64 %args.1) unnamed_addr #0 !dbg !1284 {
start:
  %args.dbg.spill = alloca { ptr, i64 }, align 8
  %pieces.dbg.spill = alloca { ptr, i64 }, align 8
  %_15 = alloca { ptr, i64 }, align 8
  %_13 = alloca %"core::fmt::Arguments<'_>", align 8
  %_3 = alloca i8, align 1
  %1 = getelementptr inbounds { ptr, i64 }, ptr %pieces.dbg.spill, i32 0, i32 0
  store ptr %pieces.0, ptr %1, align 8
  %2 = getelementptr inbounds { ptr, i64 }, ptr %pieces.dbg.spill, i32 0, i32 1
  store i64 %pieces.1, ptr %2, align 8
  call void @llvm.dbg.declare(metadata ptr %pieces.dbg.spill, metadata !1289, metadata !DIExpression()), !dbg !1291
  %3 = getelementptr inbounds { ptr, i64 }, ptr %args.dbg.spill, i32 0, i32 0
  store ptr %args.0, ptr %3, align 8
  %4 = getelementptr inbounds { ptr, i64 }, ptr %args.dbg.spill, i32 0, i32 1
  store i64 %args.1, ptr %4, align 8
  call void @llvm.dbg.declare(metadata ptr %args.dbg.spill, metadata !1290, metadata !DIExpression()), !dbg !1292
  %_4 = icmp ult i64 %pieces.1, %args.1, !dbg !1293
  br i1 %_4, label %bb1, label %bb2, !dbg !1293

bb2:                                              ; preds = %start
  %5 = call { i64, i1 } @llvm.uadd.with.overflow.i64(i64 %args.1, i64 1), !dbg !1294
  %_11.0 = extractvalue { i64, i1 } %5, 0, !dbg !1294
  %_11.1 = extractvalue { i64, i1 } %5, 1, !dbg !1294
  %6 = call i1 @llvm.expect.i1(i1 %_11.1, i1 false), !dbg !1294
  br i1 %6, label %panic, label %bb4, !dbg !1294

bb1:                                              ; preds = %start
  store i8 1, ptr %_3, align 1, !dbg !1293
  br label %bb3, !dbg !1293

bb3:                                              ; preds = %bb4, %bb1
  %7 = load i8, ptr %_3, align 1, !dbg !1293, !range !995, !noundef !27
  %8 = trunc i8 %7 to i1, !dbg !1293
  br i1 %8, label %bb5, label %bb7, !dbg !1293

bb4:                                              ; preds = %bb2
  %_7 = icmp ugt i64 %pieces.1, %_11.0, !dbg !1295
  %9 = zext i1 %_7 to i8, !dbg !1293
  store i8 %9, ptr %_3, align 1, !dbg !1293
  br label %bb3, !dbg !1293

panic:                                            ; preds = %bb2
; call core::panicking::panic
  call void @_ZN4core9panicking5panic17h38d135543837e8b5E(ptr align 1 @str.3, i64 28, ptr align 8 @alloc_6efc4ec71950c88bb18b2dcebbe56926) #11, !dbg !1294
  unreachable, !dbg !1294

bb7:                                              ; preds = %bb3
  store ptr null, ptr %_15, align 8, !dbg !1296
  %10 = getelementptr inbounds { ptr, i64 }, ptr %0, i32 0, i32 0, !dbg !1297
  store ptr %pieces.0, ptr %10, align 8, !dbg !1297
  %11 = getelementptr inbounds { ptr, i64 }, ptr %0, i32 0, i32 1, !dbg !1297
  store i64 %pieces.1, ptr %11, align 8, !dbg !1297
  %12 = getelementptr inbounds { ptr, i64 }, ptr %_15, i32 0, i32 0, !dbg !1297
  %13 = load ptr, ptr %12, align 8, !dbg !1297, !align !1212, !noundef !27
  %14 = getelementptr inbounds { ptr, i64 }, ptr %_15, i32 0, i32 1, !dbg !1297
  %15 = load i64, ptr %14, align 8, !dbg !1297
  %16 = getelementptr inbounds %"core::fmt::Arguments<'_>", ptr %0, i32 0, i32 2, !dbg !1297
  %17 = getelementptr inbounds { ptr, i64 }, ptr %16, i32 0, i32 0, !dbg !1297
  store ptr %13, ptr %17, align 8, !dbg !1297
  %18 = getelementptr inbounds { ptr, i64 }, ptr %16, i32 0, i32 1, !dbg !1297
  store i64 %15, ptr %18, align 8, !dbg !1297
  %19 = getelementptr inbounds %"core::fmt::Arguments<'_>", ptr %0, i32 0, i32 1, !dbg !1297
  %20 = getelementptr inbounds { ptr, i64 }, ptr %19, i32 0, i32 0, !dbg !1297
  store ptr %args.0, ptr %20, align 8, !dbg !1297
  %21 = getelementptr inbounds { ptr, i64 }, ptr %19, i32 0, i32 1, !dbg !1297
  store i64 %args.1, ptr %21, align 8, !dbg !1297
  ret void, !dbg !1298

bb5:                                              ; preds = %bb3
; call core::fmt::Arguments::new_const
  call void @_ZN4core3fmt9Arguments9new_const17hc21a36f9d28a9bb1E(ptr sret(%"core::fmt::Arguments<'_>") %_13, ptr align 8 @alloc_560206a49c61adca6f3f0639a12632eb, i64 1) #9, !dbg !1299
; call core::panicking::panic_fmt
  call void @_ZN4core9panicking9panic_fmt17h2c59f66d276f88adE(ptr %_13, ptr align 8 @alloc_d3149a254d0e3dec02e2738403904da6) #11, !dbg !1299
  unreachable, !dbg !1299
}

; core::fmt::Arguments::new_const
; Function Attrs: inlinehint noredzone nounwind
define internal void @_ZN4core3fmt9Arguments9new_const17hc21a36f9d28a9bb1E(ptr sret(%"core::fmt::Arguments<'_>") %0, ptr align 8 %pieces.0, i64 %pieces.1) unnamed_addr #0 !dbg !1300 {
start:
  %pieces.dbg.spill = alloca { ptr, i64 }, align 8
  %_7 = alloca { ptr, i64 }, align 8
  %_5 = alloca %"core::fmt::Arguments<'_>", align 8
  %1 = getelementptr inbounds { ptr, i64 }, ptr %pieces.dbg.spill, i32 0, i32 0
  store ptr %pieces.0, ptr %1, align 8
  %2 = getelementptr inbounds { ptr, i64 }, ptr %pieces.dbg.spill, i32 0, i32 1
  store i64 %pieces.1, ptr %2, align 8
  call void @llvm.dbg.declare(metadata ptr %pieces.dbg.spill, metadata !1305, metadata !DIExpression()), !dbg !1306
  %_2 = icmp ugt i64 %pieces.1, 1, !dbg !1307
  br i1 %_2, label %bb1, label %bb3, !dbg !1307

bb3:                                              ; preds = %start
  store ptr null, ptr %_7, align 8, !dbg !1308
  %3 = getelementptr inbounds { ptr, i64 }, ptr %0, i32 0, i32 0, !dbg !1309
  store ptr %pieces.0, ptr %3, align 8, !dbg !1309
  %4 = getelementptr inbounds { ptr, i64 }, ptr %0, i32 0, i32 1, !dbg !1309
  store i64 %pieces.1, ptr %4, align 8, !dbg !1309
  %5 = getelementptr inbounds { ptr, i64 }, ptr %_7, i32 0, i32 0, !dbg !1309
  %6 = load ptr, ptr %5, align 8, !dbg !1309, !align !1212, !noundef !27
  %7 = getelementptr inbounds { ptr, i64 }, ptr %_7, i32 0, i32 1, !dbg !1309
  %8 = load i64, ptr %7, align 8, !dbg !1309
  %9 = getelementptr inbounds %"core::fmt::Arguments<'_>", ptr %0, i32 0, i32 2, !dbg !1309
  %10 = getelementptr inbounds { ptr, i64 }, ptr %9, i32 0, i32 0, !dbg !1309
  store ptr %6, ptr %10, align 8, !dbg !1309
  %11 = getelementptr inbounds { ptr, i64 }, ptr %9, i32 0, i32 1, !dbg !1309
  store i64 %8, ptr %11, align 8, !dbg !1309
  %12 = getelementptr inbounds %"core::fmt::Arguments<'_>", ptr %0, i32 0, i32 1, !dbg !1309
  %13 = getelementptr inbounds { ptr, i64 }, ptr %12, i32 0, i32 0, !dbg !1309
  store ptr @alloc_513570631223a12912d85da2bec3b15a, ptr %13, align 8, !dbg !1309
  %14 = getelementptr inbounds { ptr, i64 }, ptr %12, i32 0, i32 1, !dbg !1309
  store i64 0, ptr %14, align 8, !dbg !1309
  ret void, !dbg !1310

bb1:                                              ; preds = %start
; call core::fmt::Arguments::new_const
  call void @_ZN4core3fmt9Arguments9new_const17hc21a36f9d28a9bb1E(ptr sret(%"core::fmt::Arguments<'_>") %_5, ptr align 8 @alloc_560206a49c61adca6f3f0639a12632eb, i64 1) #9, !dbg !1311
; call core::panicking::panic_fmt
  call void @_ZN4core9panicking9panic_fmt17h2c59f66d276f88adE(ptr %_5, ptr align 8 @alloc_5eca5fde541bf3444e5a23d5419b88a4) #11, !dbg !1311
  unreachable, !dbg !1311
}

; core::ops::function::FnOnce::call_once
; Function Attrs: inlinehint noredzone nounwind
define internal void @_ZN4core3ops8function6FnOnce9call_once17h9e1d580b81369390E(ptr sret(%"spin::mutex::Mutex<keyboard::Keyboard<pc_keyboard::layouts::us104::Us104Key, pc_keyboard::scancodes::set1::ScancodeSet1>>") %0) unnamed_addr #0 !dbg !1312 {
start:
  %1 = alloca i8, align 1
  %_3.i.i = alloca %"core::cell::UnsafeCell<keyboard::Keyboard<pc_keyboard::layouts::us104::Us104Key, pc_keyboard::scancodes::set1::ScancodeSet1>>", align 2
  %_2.i1.i = alloca %"core::sync::atomic::AtomicBool", align 1
  %_2.i.i = alloca %"spin::mutex::spin::SpinMutex<keyboard::Keyboard<pc_keyboard::layouts::us104::Us104Key, pc_keyboard::scancodes::set1::ScancodeSet1>>", align 2
  %_1.i = alloca %"keyboard::Keyboard<pc_keyboard::layouts::us104::Us104Key, pc_keyboard::scancodes::set1::ScancodeSet1>", align 2
  %_1.dbg.spill = alloca {}, align 1
  %_2 = alloca {}, align 1
  call void @llvm.dbg.declare(metadata ptr %_1.dbg.spill, metadata !1323, metadata !DIExpression()), !dbg !1328
  call void @llvm.dbg.declare(metadata ptr %_2, metadata !1324, metadata !DIExpression()), !dbg !1328
; call keyboard::Keyboard<L,S>::us_scancode_set_one_keyboard
  call void @"_ZN8keyboard21Keyboard$LT$L$C$S$GT$28us_scancode_set_one_keyboard17h02677ded39f93896E"(ptr sret(%"keyboard::Keyboard<pc_keyboard::layouts::us104::Us104Key, pc_keyboard::scancodes::set1::ScancodeSet1>") %_1.i) #9, !dbg !1329
  call void @llvm.dbg.declare(metadata ptr %_1.i, metadata !1334, metadata !DIExpression()), !dbg !1341
  call void @llvm.dbg.declare(metadata ptr %_1.i, metadata !1343, metadata !DIExpression()), !dbg !1350
; call core::sync::atomic::AtomicBool::new
  %2 = call i8 @_ZN4core4sync6atomic10AtomicBool3new17hb64205178301f021E(i1 zeroext false) #9, !dbg !1352
  store i8 %2, ptr %1, align 1, !dbg !1352
  call void @llvm.memcpy.p0.p0.i64(ptr align 1 %_2.i1.i, ptr align 1 %1, i64 1, i1 false), !dbg !1352
  call void @llvm.dbg.declare(metadata ptr %_1.i, metadata !1353, metadata !DIExpression()), !dbg !1360
  call void @llvm.memcpy.p0.p0.i64(ptr align 2 %_3.i.i, ptr align 2 %_1.i, i64 16, i1 false), !dbg !1362
  call void @llvm.memcpy.p0.p0.i64(ptr align 2 %_2.i.i, ptr align 1 %_2.i1.i, i64 1, i1 false), !dbg !1363
  %3 = getelementptr inbounds %"spin::mutex::spin::SpinMutex<keyboard::Keyboard<pc_keyboard::layouts::us104::Us104Key, pc_keyboard::scancodes::set1::ScancodeSet1>>", ptr %_2.i.i, i32 0, i32 3, !dbg !1363
  call void @llvm.memcpy.p0.p0.i64(ptr align 2 %3, ptr align 2 %_3.i.i, i64 16, i1 false), !dbg !1363
  call void @llvm.memcpy.p0.p0.i64(ptr align 2 %0, ptr align 2 %_2.i.i, i64 18, i1 false), !dbg !1364
  ret void, !dbg !1328
}

; core::ops::function::FnOnce::call_once
; Function Attrs: inlinehint noredzone nounwind
define internal void @_ZN4core3ops8function6FnOnce9call_once17heef6726529f652a7E(ptr sret(%"spin::mutex::Mutex<vga::Screen>") %0) unnamed_addr #0 !dbg !1365 {
start:
  %1 = alloca i8, align 1
  %_3.i.i = alloca %"core::cell::UnsafeCell<vga::Screen>", align 8
  %_2.i1.i = alloca %"core::sync::atomic::AtomicBool", align 1
  %_2.i.i = alloca %"spin::mutex::spin::SpinMutex<vga::Screen>", align 8
  %_2.i = alloca i8, align 1
  %_1.i = alloca %"vga::Screen", align 8
  %_1.dbg.spill = alloca {}, align 1
  %_2 = alloca {}, align 1
  call void @llvm.dbg.declare(metadata ptr %_1.dbg.spill, metadata !1372, metadata !DIExpression()), !dbg !1376
  call void @llvm.dbg.declare(metadata ptr %_2, metadata !1373, metadata !DIExpression()), !dbg !1376
  store i8 1, ptr %_2.i, align 1, !dbg !1377
  %2 = load i8, ptr %_2.i, align 1, !dbg !1381, !range !995, !noundef !27
  %3 = trunc i8 %2 to i1, !dbg !1381
; call vga::Screen::new
  call void @_ZN3vga6Screen3new17h17d8aa562c38b9b4E(ptr sret(%"vga::Screen") %_1.i, i1 zeroext %3, i8 32) #9, !dbg !1381
  call void @llvm.dbg.declare(metadata ptr %_1.i, metadata !1382, metadata !DIExpression()), !dbg !1388
  call void @llvm.dbg.declare(metadata ptr %_1.i, metadata !1390, metadata !DIExpression()), !dbg !1396
; call core::sync::atomic::AtomicBool::new
  %4 = call i8 @_ZN4core4sync6atomic10AtomicBool3new17hb64205178301f021E(i1 zeroext false) #9, !dbg !1398
  store i8 %4, ptr %1, align 1, !dbg !1398
  call void @llvm.memcpy.p0.p0.i64(ptr align 1 %_2.i1.i, ptr align 1 %1, i64 1, i1 false), !dbg !1398
  call void @llvm.dbg.declare(metadata ptr %_1.i, metadata !1399, metadata !DIExpression()), !dbg !1405
  call void @llvm.memcpy.p0.p0.i64(ptr align 8 %_3.i.i, ptr align 8 %_1.i, i64 216, i1 false), !dbg !1407
  call void @llvm.memcpy.p0.p0.i64(ptr align 8 %_2.i.i, ptr align 1 %_2.i1.i, i64 1, i1 false), !dbg !1408
  %5 = getelementptr inbounds %"spin::mutex::spin::SpinMutex<vga::Screen>", ptr %_2.i.i, i32 0, i32 3, !dbg !1408
  call void @llvm.memcpy.p0.p0.i64(ptr align 8 %5, ptr align 8 %_3.i.i, i64 216, i1 false), !dbg !1408
  call void @llvm.memcpy.p0.p0.i64(ptr align 8 %0, ptr align 8 %_2.i.i, i64 224, i1 false), !dbg !1409
  ret void, !dbg !1376
}

; core::ops::function::FnOnce::call_once
; Function Attrs: inlinehint noredzone nounwind
define internal void @_ZN4core3ops8function6FnOnce9call_once17hf733974d59d42565E(ptr sret(%"cpu_interrupts::interrupt_descriptor_table::SafeInterruptDescriptorTable") %0) unnamed_addr #0 !dbg !1410 {
start:
  %_27.i = alloca %"x86_64::structures::idt::InterruptDescriptorTable", align 16
  %idt.i = alloca %"x86_64::structures::idt::InterruptDescriptorTable", align 16
  %_1.dbg.spill = alloca {}, align 1
  %_2 = alloca {}, align 1
  call void @llvm.dbg.declare(metadata ptr %_1.dbg.spill, metadata !1417, metadata !DIExpression()), !dbg !1421
  call void @llvm.dbg.declare(metadata ptr %_2, metadata !1418, metadata !DIExpression()), !dbg !1421
  call void @llvm.dbg.declare(metadata ptr %idt.i, metadata !1422, metadata !DIExpression()), !dbg !1427
; call x86_64::structures::idt::InterruptDescriptorTable::new
  call void @_ZN6x86_6410structures3idt24InterruptDescriptorTable3new17h8fb10a91cbe2dce4E(ptr sret(%"x86_64::structures::idt::InterruptDescriptorTable") %idt.i) #9, !dbg !1429
  %_5.i = getelementptr inbounds %"x86_64::structures::idt::InterruptDescriptorTable", ptr %idt.i, i32 0, i32 8, !dbg !1431
; call x86_64::structures::idt::Entry<extern "x86.interrupt" fn(x86_64::structures::idt::InterruptStackFrame,u64) .> !>::set_handler_fn
  %_4.i = call align 2 ptr @"_ZN6x86_6410structures3idt132Entry$LT$extern$u20$$u22$x86.interrupt$u22$$u20$fn$LP$x86_64..structures..idt..InterruptStackFrame$C$u64$RP$$u20$.$GT$$u20$$u21$$GT$14set_handler_fn17h4f8016e06ab12403E"(ptr align 4 %_5.i, ptr @_ZN14cpu_interrupts26default_exception_handlers20double_fault_handler17h9c80296b4d55f600E) #9, !dbg !1431
; call x86_64::structures::idt::EntryOptions::set_stack_index
  %_2.i = call align 2 ptr @_ZN6x86_6410structures3idt12EntryOptions15set_stack_index17h27b59b72064ccdb4E(ptr align 2 %_4.i, i16 0) #9, !dbg !1431
  %_9.i = getelementptr inbounds %"x86_64::structures::idt::InterruptDescriptorTable", ptr %idt.i, i32 0, i32 3, !dbg !1432
; call x86_64::structures::idt::Entry<extern "x86.interrupt" fn(x86_64::structures::idt::InterruptStackFrame)>::set_handler_fn
  %_8.i = call align 2 ptr @"_ZN6x86_6410structures3idt106Entry$LT$extern$u20$$u22$x86.interrupt$u22$$u20$fn$LP$x86_64..structures..idt..InterruptStackFrame$RP$$GT$14set_handler_fn17hf0a178ab64739b90E"(ptr align 4 %_9.i, ptr @_ZN4theo10interrupts18breakpoint_handler17h2e2d20552842310aE) #9, !dbg !1432
  %1 = call i1 @llvm.expect.i1(i1 false, i1 false), !dbg !1433
  br i1 %1, label %panic.i, label %bb5.i, !dbg !1433

bb5.i:                                            ; preds = %start
; call <x86_64::structures::idt::InterruptDescriptorTable as core::ops::index::IndexMut<usize>>::index_mut
  %_13.i = call align 4 ptr @"_ZN109_$LT$x86_64..structures..idt..InterruptDescriptorTable$u20$as$u20$core..ops..index..IndexMut$LT$usize$GT$$GT$9index_mut17h635b8838e405e54bE"(ptr align 16 %idt.i, i64 32, ptr align 8 @alloc_45c30a06a14a7f7f08e893da985222d4) #9, !dbg !1434
; call x86_64::structures::idt::Entry<extern "x86.interrupt" fn(x86_64::structures::idt::InterruptStackFrame)>::set_handler_fn
  %_11.i = call align 2 ptr @"_ZN6x86_6410structures3idt106Entry$LT$extern$u20$$u22$x86.interrupt$u22$$u20$fn$LP$x86_64..structures..idt..InterruptStackFrame$RP$$GT$14set_handler_fn17hf0a178ab64739b90E"(ptr align 4 %_13.i, ptr @_ZN4theo10interrupts23timer_interrupt_handler17hd302b65369ed336cE) #9, !dbg !1434
  %2 = call i1 @llvm.expect.i1(i1 false, i1 false), !dbg !1435
  br i1 %2, label %panic1.i, label %"_ZN70_$LT$theo..interrupts..SAFE_IDT$u20$as$u20$core..ops..deref..Deref$GT$5deref23__static_ref_initialize17h0523c3505428a353E.exit", !dbg !1435

panic.i:                                          ; preds = %start
; call core::panicking::panic
  call void @_ZN4core9panicking5panic17h38d135543837e8b5E(ptr align 1 @str.3, i64 28, ptr align 8 @alloc_f90b0db9a501ea4e32af715f06dec6ba) #11, !dbg !1433
  unreachable, !dbg !1433

panic1.i:                                         ; preds = %bb5.i
; call core::panicking::panic
  call void @_ZN4core9panicking5panic17h38d135543837e8b5E(ptr align 1 @str.3, i64 28, ptr align 8 @alloc_607eefef3b67391fb601492ac2cd1351) #11, !dbg !1435
  unreachable, !dbg !1435

"_ZN70_$LT$theo..interrupts..SAFE_IDT$u20$as$u20$core..ops..deref..Deref$GT$5deref23__static_ref_initialize17h0523c3505428a353E.exit": ; preds = %bb5.i
; call <x86_64::structures::idt::InterruptDescriptorTable as core::ops::index::IndexMut<usize>>::index_mut
  %_21.i = call align 4 ptr @"_ZN109_$LT$x86_64..structures..idt..InterruptDescriptorTable$u20$as$u20$core..ops..index..IndexMut$LT$usize$GT$$GT$9index_mut17h635b8838e405e54bE"(ptr align 16 %idt.i, i64 33, ptr align 8 @alloc_79795694555ac832561f14c334cd681c) #9, !dbg !1436
; call x86_64::structures::idt::Entry<extern "x86.interrupt" fn(x86_64::structures::idt::InterruptStackFrame)>::set_handler_fn
  %_19.i = call align 2 ptr @"_ZN6x86_6410structures3idt106Entry$LT$extern$u20$$u22$x86.interrupt$u22$$u20$fn$LP$x86_64..structures..idt..InterruptStackFrame$RP$$GT$14set_handler_fn17hf0a178ab64739b90E"(ptr align 4 %_21.i, ptr @_ZN4theo10interrupts16keyboard_handler17h6aa06542921ea309E) #9, !dbg !1436
  call void @llvm.memcpy.p0.p0.i64(ptr align 16 %_27.i, ptr align 16 %idt.i, i64 4096, i1 false), !dbg !1437
; call cpu_interrupts::interrupt_descriptor_table::SafeInterruptDescriptorTable::from
  call void @_ZN14cpu_interrupts26interrupt_descriptor_table28SafeInterruptDescriptorTable4from17hbb9aba6e98936ec3E(ptr sret(%"cpu_interrupts::interrupt_descriptor_table::SafeInterruptDescriptorTable") %0, ptr %_27.i) #9, !dbg !1438
  ret void, !dbg !1421
}

; core::ptr::drop_in_place<spin::mutex::MutexGuard<keyboard::Keyboard<pc_keyboard::layouts::us104::Us104Key,pc_keyboard::scancodes::set1::ScancodeSet1>>>
; Function Attrs: noredzone nounwind
define internal void @"_ZN4core3ptr160drop_in_place$LT$spin..mutex..MutexGuard$LT$keyboard..Keyboard$LT$pc_keyboard..layouts..us104..Us104Key$C$pc_keyboard..scancodes..set1..ScancodeSet1$GT$$GT$$GT$17h720e073238dc1378E"(ptr align 8 %_1) unnamed_addr #1 !dbg !1439 {
start:
  %_1.dbg.spill = alloca ptr, align 8
  store ptr %_1, ptr %_1.dbg.spill, align 8
  call void @llvm.dbg.declare(metadata ptr %_1.dbg.spill, metadata !1455, metadata !DIExpression()), !dbg !1458
; call core::ptr::drop_in_place<spin::mutex::spin::SpinMutexGuard<keyboard::Keyboard<pc_keyboard::layouts::us104::Us104Key,pc_keyboard::scancodes::set1::ScancodeSet1>>>
  call void @"_ZN4core3ptr170drop_in_place$LT$spin..mutex..spin..SpinMutexGuard$LT$keyboard..Keyboard$LT$pc_keyboard..layouts..us104..Us104Key$C$pc_keyboard..scancodes..set1..ScancodeSet1$GT$$GT$$GT$17hc9d2f29a05a2815cE"(ptr align 8 %_1) #9, !dbg !1458
  ret void, !dbg !1458
}

; core::ptr::drop_in_place<spin::mutex::spin::SpinMutexGuard<keyboard::Keyboard<pc_keyboard::layouts::us104::Us104Key,pc_keyboard::scancodes::set1::ScancodeSet1>>>
; Function Attrs: noredzone nounwind
define internal void @"_ZN4core3ptr170drop_in_place$LT$spin..mutex..spin..SpinMutexGuard$LT$keyboard..Keyboard$LT$pc_keyboard..layouts..us104..Us104Key$C$pc_keyboard..scancodes..set1..ScancodeSet1$GT$$GT$$GT$17hc9d2f29a05a2815cE"(ptr align 8 %_1) unnamed_addr #1 !dbg !1459 {
start:
  %_1.dbg.spill = alloca ptr, align 8
  store ptr %_1, ptr %_1.dbg.spill, align 8
  call void @llvm.dbg.declare(metadata ptr %_1.dbg.spill, metadata !1464, metadata !DIExpression()), !dbg !1467
; call <spin::mutex::spin::SpinMutexGuard<T> as core::ops::drop::Drop>::drop
  call void @"_ZN84_$LT$spin..mutex..spin..SpinMutexGuard$LT$T$GT$$u20$as$u20$core..ops..drop..Drop$GT$4drop17h3790c9106af85ed5E"(ptr align 8 %_1) #9, !dbg !1467
  ret void, !dbg !1467
}

; core::ptr::drop_in_place<&mut vga::Screen>
; Function Attrs: inlinehint noredzone nounwind
define internal void @"_ZN4core3ptr44drop_in_place$LT$$RF$mut$u20$vga..Screen$GT$17h6aa9f1253cfa02d3E"(ptr align 8 %_1) unnamed_addr #0 !dbg !1468 {
start:
  %_1.dbg.spill = alloca ptr, align 8
  store ptr %_1, ptr %_1.dbg.spill, align 8
  call void @llvm.dbg.declare(metadata ptr %_1.dbg.spill, metadata !1473, metadata !DIExpression()), !dbg !1476
  ret void, !dbg !1476
}

; core::ptr::drop_in_place<spin::mutex::MutexGuard<vga::Screen>>
; Function Attrs: noredzone nounwind
define internal void @"_ZN4core3ptr63drop_in_place$LT$spin..mutex..MutexGuard$LT$vga..Screen$GT$$GT$17hd8f00d3110febbffE"(ptr align 8 %_1) unnamed_addr #1 !dbg !1477 {
start:
  %_1.dbg.spill = alloca ptr, align 8
  store ptr %_1, ptr %_1.dbg.spill, align 8
  call void @llvm.dbg.declare(metadata ptr %_1.dbg.spill, metadata !1490, metadata !DIExpression()), !dbg !1493
; call core::ptr::drop_in_place<spin::mutex::spin::SpinMutexGuard<vga::Screen>>
  call void @"_ZN4core3ptr73drop_in_place$LT$spin..mutex..spin..SpinMutexGuard$LT$vga..Screen$GT$$GT$17hffe7adcfa9c641a7E"(ptr align 8 %_1) #9, !dbg !1493
  ret void, !dbg !1493
}

; core::ptr::drop_in_place<spin::mutex::spin::SpinMutexGuard<vga::Screen>>
; Function Attrs: noredzone nounwind
define internal void @"_ZN4core3ptr73drop_in_place$LT$spin..mutex..spin..SpinMutexGuard$LT$vga..Screen$GT$$GT$17hffe7adcfa9c641a7E"(ptr align 8 %_1) unnamed_addr #1 !dbg !1494 {
start:
  %_1.dbg.spill = alloca ptr, align 8
  store ptr %_1, ptr %_1.dbg.spill, align 8
  call void @llvm.dbg.declare(metadata ptr %_1.dbg.spill, metadata !1499, metadata !DIExpression()), !dbg !1502
; call <spin::mutex::spin::SpinMutexGuard<T> as core::ops::drop::Drop>::drop
  call void @"_ZN84_$LT$spin..mutex..spin..SpinMutexGuard$LT$T$GT$$u20$as$u20$core..ops..drop..Drop$GT$4drop17hd66fd8327eff0b74E"(ptr align 8 %_1) #9, !dbg !1502
  ret void, !dbg !1502
}

; core::str::converts::from_utf8_unchecked_mut
; Function Attrs: inlinehint noredzone nounwind
define internal { ptr, i64 } @_ZN4core3str8converts23from_utf8_unchecked_mut17h08bc18b09cdf0307E(ptr align 1 %v.0, i64 %v.1) unnamed_addr #0 !dbg !1503 {
start:
  %v.dbg.spill = alloca { ptr, i64 }, align 8
  %0 = getelementptr inbounds { ptr, i64 }, ptr %v.dbg.spill, i32 0, i32 0
  store ptr %v.0, ptr %0, align 8
  %1 = getelementptr inbounds { ptr, i64 }, ptr %v.dbg.spill, i32 0, i32 1
  store i64 %v.1, ptr %1, align 8
  call void @llvm.dbg.declare(metadata ptr %v.dbg.spill, metadata !1518, metadata !DIExpression()), !dbg !1519
  %2 = insertvalue { ptr, i64 } poison, ptr %v.0, 0, !dbg !1520
  %3 = insertvalue { ptr, i64 } %2, i64 %v.1, 1, !dbg !1520
  ret { ptr, i64 } %3, !dbg !1520
}

; core::char::methods::encode_utf8_raw
; Function Attrs: inlinehint noredzone nounwind
define internal { ptr, i64 } @_ZN4core4char7methods15encode_utf8_raw17h9742bf9b24acdc35E(i32 %0, ptr align 1 %dst.0, i64 %dst.1) unnamed_addr #0 !dbg !1521 {
start:
  %f.dbg.spill.i18 = alloca ptr, align 8
  %x.dbg.spill.i19 = alloca ptr, align 8
  %1 = alloca { ptr, ptr }, align 8
  %f.dbg.spill.i16 = alloca ptr, align 8
  %x.dbg.spill.i17 = alloca ptr, align 8
  %2 = alloca { ptr, ptr }, align 8
  %f.dbg.spill.i = alloca ptr, align 8
  %x.dbg.spill.i15 = alloca ptr, align 8
  %3 = alloca { ptr, ptr }, align 8
  %x.dbg.spill.i14 = alloca ptr, align 8
  %x.dbg.spill.i13 = alloca ptr, align 8
  %x.dbg.spill.i = alloca ptr, align 8
  %a.dbg.spill12 = alloca ptr, align 8
  %b.dbg.spill10 = alloca ptr, align 8
  %a.dbg.spill8 = alloca ptr, align 8
  %c.dbg.spill6 = alloca ptr, align 8
  %b.dbg.spill4 = alloca ptr, align 8
  %a.dbg.spill2 = alloca ptr, align 8
  %d.dbg.spill = alloca ptr, align 8
  %c.dbg.spill = alloca ptr, align 8
  %b.dbg.spill = alloca ptr, align 8
  %a.dbg.spill = alloca ptr, align 8
  %dst.dbg.spill = alloca { ptr, i64 }, align 8
  %_92 = alloca i64, align 8
  %_89 = alloca i64, align 8
  %_82 = alloca [3 x { ptr, ptr }], align 8
  %_78 = alloca %"core::fmt::Arguments<'_>", align 8
  %_5 = alloca { i64, { ptr, i64 } }, align 8
  %len = alloca i64, align 8
  %code = alloca i32, align 4
  store i32 %0, ptr %code, align 4
  call void @llvm.dbg.declare(metadata ptr %code, metadata !1528, metadata !DIExpression()), !dbg !1547
  %4 = getelementptr inbounds { ptr, i64 }, ptr %dst.dbg.spill, i32 0, i32 0
  store ptr %dst.0, ptr %4, align 8
  %5 = getelementptr inbounds { ptr, i64 }, ptr %dst.dbg.spill, i32 0, i32 1
  store i64 %dst.1, ptr %5, align 8
  call void @llvm.dbg.declare(metadata ptr %dst.dbg.spill, metadata !1529, metadata !DIExpression()), !dbg !1548
  call void @llvm.dbg.declare(metadata ptr %len, metadata !1530, metadata !DIExpression()), !dbg !1549
  %_4 = load i32, ptr %code, align 4, !dbg !1550, !noundef !27
; call core::char::methods::len_utf8
  %6 = call i64 @_ZN4core4char7methods8len_utf817h31844e7c089a81a7E(i32 %_4) #9, !dbg !1551
  store i64 %6, ptr %len, align 8, !dbg !1551
  %_6 = load i64, ptr %len, align 8, !dbg !1552, !noundef !27
; call core::slice::index::<impl core::ops::index::IndexMut<I> for [T]>::index_mut
  %7 = call { ptr, i64 } @"_ZN4core5slice5index77_$LT$impl$u20$core..ops..index..IndexMut$LT$I$GT$$u20$for$u20$$u5b$T$u5d$$GT$9index_mut17hdbaeef457de26248E"(ptr align 1 %dst.0, i64 %dst.1, ptr align 8 @alloc_63e4089470ab8a3d24f3fcd9b9f36ebd) #9, !dbg !1553
  %_8.0 = extractvalue { ptr, i64 } %7, 0, !dbg !1553
  %_8.1 = extractvalue { ptr, i64 } %7, 1, !dbg !1553
  store i64 %_6, ptr %_5, align 8, !dbg !1554
  %8 = getelementptr inbounds { i64, { ptr, i64 } }, ptr %_5, i32 0, i32 1, !dbg !1554
  %9 = getelementptr inbounds { ptr, i64 }, ptr %8, i32 0, i32 0, !dbg !1554
  store ptr %_8.0, ptr %9, align 8, !dbg !1554
  %10 = getelementptr inbounds { ptr, i64 }, ptr %8, i32 0, i32 1, !dbg !1554
  store i64 %_8.1, ptr %10, align 8, !dbg !1554
  %11 = load i64, ptr %_5, align 8, !dbg !1555, !noundef !27
  switch i64 %11, label %bb4 [
    i64 1, label %bb3
    i64 2, label %bb5
    i64 3, label %bb6
    i64 4, label %bb7
  ], !dbg !1555

bb4:                                              ; preds = %bb3, %bb5, %bb6, %bb7, %start
  store ptr %len, ptr %x.dbg.spill.i13, align 8
  call void @llvm.dbg.declare(metadata ptr %x.dbg.spill.i13, metadata !779, metadata !DIExpression()), !dbg !1556
  store ptr %len, ptr %x.dbg.spill.i15, align 8
  call void @llvm.dbg.declare(metadata ptr %x.dbg.spill.i15, metadata !848, metadata !DIExpression()), !dbg !1558
  store ptr @"_ZN4core3fmt3num3imp54_$LT$impl$u20$core..fmt..Display$u20$for$u20$usize$GT$3fmt17h52c7e4752d0d7c7bE", ptr %f.dbg.spill.i, align 8
  call void @llvm.dbg.declare(metadata ptr %f.dbg.spill.i, metadata !857, metadata !DIExpression()), !dbg !1560
  store ptr %len, ptr %3, align 8, !dbg !1561
  %12 = getelementptr inbounds { ptr, ptr }, ptr %3, i32 0, i32 1, !dbg !1561
  store ptr @"_ZN4core3fmt3num3imp54_$LT$impl$u20$core..fmt..Display$u20$for$u20$usize$GT$3fmt17h52c7e4752d0d7c7bE", ptr %12, align 8, !dbg !1561
  %13 = load ptr, ptr %3, align 8, !dbg !1562, !nonnull !27, !align !863, !noundef !27
  %14 = getelementptr inbounds { ptr, ptr }, ptr %3, i32 0, i32 1, !dbg !1562
  %15 = load ptr, ptr %14, align 8, !dbg !1562, !nonnull !27, !noundef !27
  %16 = insertvalue { ptr, ptr } poison, ptr %13, 0, !dbg !1562
  %17 = insertvalue { ptr, ptr } %16, ptr %15, 1, !dbg !1562
  %18 = extractvalue { ptr, ptr } %17, 0, !dbg !1563
  %19 = extractvalue { ptr, ptr } %17, 1, !dbg !1563
  %_83.0 = extractvalue { ptr, ptr } %17, 0, !dbg !1564
  %_83.1 = extractvalue { ptr, ptr } %17, 1, !dbg !1564
  store ptr %code, ptr %x.dbg.spill.i14, align 8
  call void @llvm.dbg.declare(metadata ptr %x.dbg.spill.i14, metadata !1565, metadata !DIExpression()), !dbg !1574
  store ptr %code, ptr %x.dbg.spill.i19, align 8
  call void @llvm.dbg.declare(metadata ptr %x.dbg.spill.i19, metadata !1576, metadata !DIExpression()), !dbg !1586
  store ptr @"_ZN4core3fmt3num53_$LT$impl$u20$core..fmt..UpperHex$u20$for$u20$u32$GT$3fmt17h5c2128be05ede0f4E", ptr %f.dbg.spill.i18, align 8
  call void @llvm.dbg.declare(metadata ptr %f.dbg.spill.i18, metadata !1585, metadata !DIExpression()), !dbg !1588
  store ptr %code, ptr %1, align 8, !dbg !1589
  %20 = getelementptr inbounds { ptr, ptr }, ptr %1, i32 0, i32 1, !dbg !1589
  store ptr @"_ZN4core3fmt3num53_$LT$impl$u20$core..fmt..UpperHex$u20$for$u20$u32$GT$3fmt17h5c2128be05ede0f4E", ptr %20, align 8, !dbg !1589
  %21 = load ptr, ptr %1, align 8, !dbg !1590, !nonnull !27, !align !863, !noundef !27
  %22 = getelementptr inbounds { ptr, ptr }, ptr %1, i32 0, i32 1, !dbg !1590
  %23 = load ptr, ptr %22, align 8, !dbg !1590, !nonnull !27, !noundef !27
  %24 = insertvalue { ptr, ptr } poison, ptr %21, 0, !dbg !1590
  %25 = insertvalue { ptr, ptr } %24, ptr %23, 1, !dbg !1590
  %26 = extractvalue { ptr, ptr } %25, 0, !dbg !1591
  %27 = extractvalue { ptr, ptr } %25, 1, !dbg !1591
  %_85.0 = extractvalue { ptr, ptr } %25, 0, !dbg !1564
  %_85.1 = extractvalue { ptr, ptr } %25, 1, !dbg !1564
  store i64 %dst.1, ptr %_89, align 8, !dbg !1592
  store ptr %_89, ptr %x.dbg.spill.i, align 8
  call void @llvm.dbg.declare(metadata ptr %x.dbg.spill.i, metadata !779, metadata !DIExpression()), !dbg !1593
  store ptr %_89, ptr %x.dbg.spill.i17, align 8
  call void @llvm.dbg.declare(metadata ptr %x.dbg.spill.i17, metadata !848, metadata !DIExpression()), !dbg !1595
  store ptr @"_ZN4core3fmt3num3imp54_$LT$impl$u20$core..fmt..Display$u20$for$u20$usize$GT$3fmt17h52c7e4752d0d7c7bE", ptr %f.dbg.spill.i16, align 8
  call void @llvm.dbg.declare(metadata ptr %f.dbg.spill.i16, metadata !857, metadata !DIExpression()), !dbg !1597
  store ptr %_89, ptr %2, align 8, !dbg !1598
  %28 = getelementptr inbounds { ptr, ptr }, ptr %2, i32 0, i32 1, !dbg !1598
  store ptr @"_ZN4core3fmt3num3imp54_$LT$impl$u20$core..fmt..Display$u20$for$u20$usize$GT$3fmt17h52c7e4752d0d7c7bE", ptr %28, align 8, !dbg !1598
  %29 = load ptr, ptr %2, align 8, !dbg !1599, !nonnull !27, !align !863, !noundef !27
  %30 = getelementptr inbounds { ptr, ptr }, ptr %2, i32 0, i32 1, !dbg !1599
  %31 = load ptr, ptr %30, align 8, !dbg !1599, !nonnull !27, !noundef !27
  %32 = insertvalue { ptr, ptr } poison, ptr %29, 0, !dbg !1599
  %33 = insertvalue { ptr, ptr } %32, ptr %31, 1, !dbg !1599
  %34 = extractvalue { ptr, ptr } %33, 0, !dbg !1600
  %35 = extractvalue { ptr, ptr } %33, 1, !dbg !1600
  %_87.0 = extractvalue { ptr, ptr } %33, 0, !dbg !1564
  %_87.1 = extractvalue { ptr, ptr } %33, 1, !dbg !1564
  %36 = getelementptr inbounds [3 x { ptr, ptr }], ptr %_82, i64 0, i64 0, !dbg !1564
  %37 = getelementptr inbounds { ptr, ptr }, ptr %36, i32 0, i32 0, !dbg !1564
  store ptr %_83.0, ptr %37, align 8, !dbg !1564
  %38 = getelementptr inbounds { ptr, ptr }, ptr %36, i32 0, i32 1, !dbg !1564
  store ptr %_83.1, ptr %38, align 8, !dbg !1564
  %39 = getelementptr inbounds [3 x { ptr, ptr }], ptr %_82, i64 0, i64 1, !dbg !1564
  %40 = getelementptr inbounds { ptr, ptr }, ptr %39, i32 0, i32 0, !dbg !1564
  store ptr %_85.0, ptr %40, align 8, !dbg !1564
  %41 = getelementptr inbounds { ptr, ptr }, ptr %39, i32 0, i32 1, !dbg !1564
  store ptr %_85.1, ptr %41, align 8, !dbg !1564
  %42 = getelementptr inbounds [3 x { ptr, ptr }], ptr %_82, i64 0, i64 2, !dbg !1564
  %43 = getelementptr inbounds { ptr, ptr }, ptr %42, i32 0, i32 0, !dbg !1564
  store ptr %_87.0, ptr %43, align 8, !dbg !1564
  %44 = getelementptr inbounds { ptr, ptr }, ptr %42, i32 0, i32 1, !dbg !1564
  store ptr %_87.1, ptr %44, align 8, !dbg !1564
; call core::fmt::Arguments::new_v1
  call void @_ZN4core3fmt9Arguments6new_v117h230bc6ec1daacb1aE(ptr sret(%"core::fmt::Arguments<'_>") %_78, ptr align 8 @alloc_d29a6390632466693e1aaac961799525, i64 3, ptr align 8 %_82, i64 3) #9, !dbg !1564
; call core::panicking::panic_fmt
  call void @_ZN4core9panicking9panic_fmt17h2c59f66d276f88adE(ptr %_78, ptr align 8 @alloc_965c043fb4a42044fde50105a4adaa15) #11, !dbg !1564
  unreachable, !dbg !1564

bb3:                                              ; preds = %start
  %45 = getelementptr inbounds { i64, { ptr, i64 } }, ptr %_5, i32 0, i32 1, !dbg !1601
  %46 = getelementptr inbounds { ptr, i64 }, ptr %45, i32 0, i32 0, !dbg !1601
  %_95.0 = load ptr, ptr %46, align 8, !dbg !1601, !nonnull !27, !align !863, !noundef !27
  %47 = getelementptr inbounds { ptr, i64 }, ptr %45, i32 0, i32 1, !dbg !1601
  %_95.1 = load i64, ptr %47, align 8, !dbg !1601, !noundef !27
  %_11 = icmp uge i64 %_95.1, 1, !dbg !1601
  br i1 %_11, label %bb8, label %bb4, !dbg !1601

bb5:                                              ; preds = %start
  %48 = getelementptr inbounds { i64, { ptr, i64 } }, ptr %_5, i32 0, i32 1, !dbg !1602
  %49 = getelementptr inbounds { ptr, i64 }, ptr %48, i32 0, i32 0, !dbg !1602
  %_96.0 = load ptr, ptr %49, align 8, !dbg !1602, !nonnull !27, !align !863, !noundef !27
  %50 = getelementptr inbounds { ptr, i64 }, ptr %48, i32 0, i32 1, !dbg !1602
  %_96.1 = load i64, ptr %50, align 8, !dbg !1602, !noundef !27
  %_14 = icmp uge i64 %_96.1, 2, !dbg !1602
  br i1 %_14, label %bb9, label %bb4, !dbg !1602

bb6:                                              ; preds = %start
  %51 = getelementptr inbounds { i64, { ptr, i64 } }, ptr %_5, i32 0, i32 1, !dbg !1603
  %52 = getelementptr inbounds { ptr, i64 }, ptr %51, i32 0, i32 0, !dbg !1603
  %_97.0 = load ptr, ptr %52, align 8, !dbg !1603, !nonnull !27, !align !863, !noundef !27
  %53 = getelementptr inbounds { ptr, i64 }, ptr %51, i32 0, i32 1, !dbg !1603
  %_97.1 = load i64, ptr %53, align 8, !dbg !1603, !noundef !27
  %_17 = icmp uge i64 %_97.1, 3, !dbg !1603
  br i1 %_17, label %bb11, label %bb4, !dbg !1603

bb7:                                              ; preds = %start
  %54 = getelementptr inbounds { i64, { ptr, i64 } }, ptr %_5, i32 0, i32 1, !dbg !1604
  %55 = getelementptr inbounds { ptr, i64 }, ptr %54, i32 0, i32 0, !dbg !1604
  %_98.0 = load ptr, ptr %55, align 8, !dbg !1604, !nonnull !27, !align !863, !noundef !27
  %56 = getelementptr inbounds { ptr, i64 }, ptr %54, i32 0, i32 1, !dbg !1604
  %_98.1 = load i64, ptr %56, align 8, !dbg !1604, !noundef !27
  %_20 = icmp uge i64 %_98.1, 4, !dbg !1604
  br i1 %_20, label %bb14, label %bb4, !dbg !1604

bb14:                                             ; preds = %bb7
  %57 = getelementptr inbounds { i64, { ptr, i64 } }, ptr %_5, i32 0, i32 1, !dbg !1605
  %58 = getelementptr inbounds { ptr, i64 }, ptr %57, i32 0, i32 0, !dbg !1605
  %_105.0 = load ptr, ptr %58, align 8, !dbg !1605, !nonnull !27, !align !863, !noundef !27
  %59 = getelementptr inbounds { ptr, i64 }, ptr %57, i32 0, i32 1, !dbg !1605
  %_105.1 = load i64, ptr %59, align 8, !dbg !1605, !noundef !27
  %a = getelementptr inbounds [0 x i8], ptr %_105.0, i64 0, i64 0, !dbg !1605
  store ptr %a, ptr %a.dbg.spill, align 8, !dbg !1605
  call void @llvm.dbg.declare(metadata ptr %a.dbg.spill, metadata !1542, metadata !DIExpression()), !dbg !1606
  %60 = getelementptr inbounds { i64, { ptr, i64 } }, ptr %_5, i32 0, i32 1, !dbg !1607
  %61 = getelementptr inbounds { ptr, i64 }, ptr %60, i32 0, i32 0, !dbg !1607
  %_106.0 = load ptr, ptr %61, align 8, !dbg !1607, !nonnull !27, !align !863, !noundef !27
  %62 = getelementptr inbounds { ptr, i64 }, ptr %60, i32 0, i32 1, !dbg !1607
  %_106.1 = load i64, ptr %62, align 8, !dbg !1607, !noundef !27
  %b = getelementptr inbounds [0 x i8], ptr %_106.0, i64 0, i64 1, !dbg !1607
  store ptr %b, ptr %b.dbg.spill, align 8, !dbg !1607
  call void @llvm.dbg.declare(metadata ptr %b.dbg.spill, metadata !1544, metadata !DIExpression()), !dbg !1608
  %63 = getelementptr inbounds { i64, { ptr, i64 } }, ptr %_5, i32 0, i32 1, !dbg !1609
  %64 = getelementptr inbounds { ptr, i64 }, ptr %63, i32 0, i32 0, !dbg !1609
  %_107.0 = load ptr, ptr %64, align 8, !dbg !1609, !nonnull !27, !align !863, !noundef !27
  %65 = getelementptr inbounds { ptr, i64 }, ptr %63, i32 0, i32 1, !dbg !1609
  %_107.1 = load i64, ptr %65, align 8, !dbg !1609, !noundef !27
  %c = getelementptr inbounds [0 x i8], ptr %_107.0, i64 0, i64 2, !dbg !1609
  store ptr %c, ptr %c.dbg.spill, align 8, !dbg !1609
  call void @llvm.dbg.declare(metadata ptr %c.dbg.spill, metadata !1545, metadata !DIExpression()), !dbg !1610
  %66 = getelementptr inbounds { i64, { ptr, i64 } }, ptr %_5, i32 0, i32 1, !dbg !1611
  %67 = getelementptr inbounds { ptr, i64 }, ptr %66, i32 0, i32 0, !dbg !1611
  %_108.0 = load ptr, ptr %67, align 8, !dbg !1611, !nonnull !27, !align !863, !noundef !27
  %68 = getelementptr inbounds { ptr, i64 }, ptr %66, i32 0, i32 1, !dbg !1611
  %_108.1 = load i64, ptr %68, align 8, !dbg !1611, !noundef !27
  %d = getelementptr inbounds [0 x i8], ptr %_108.0, i64 0, i64 3, !dbg !1611
  store ptr %d, ptr %d.dbg.spill, align 8, !dbg !1611
  call void @llvm.dbg.declare(metadata ptr %d.dbg.spill, metadata !1546, metadata !DIExpression()), !dbg !1612
  %_59 = load i32, ptr %code, align 4, !dbg !1613, !noundef !27
  %_58 = lshr i32 %_59, 18, !dbg !1613
  %_57 = and i32 %_58, 7, !dbg !1614
  %_56 = trunc i32 %_57 to i8, !dbg !1614
  %69 = or i8 %_56, -16, !dbg !1615
  store i8 %69, ptr %a, align 1, !dbg !1615
  %_65 = load i32, ptr %code, align 4, !dbg !1616, !noundef !27
  %_64 = lshr i32 %_65, 12, !dbg !1616
  %_63 = and i32 %_64, 63, !dbg !1617
  %_62 = trunc i32 %_63 to i8, !dbg !1617
  %70 = or i8 %_62, -128, !dbg !1618
  store i8 %70, ptr %b, align 1, !dbg !1618
  %_71 = load i32, ptr %code, align 4, !dbg !1619, !noundef !27
  %_70 = lshr i32 %_71, 6, !dbg !1619
  %_69 = and i32 %_70, 63, !dbg !1620
  %_68 = trunc i32 %_69 to i8, !dbg !1620
  %71 = or i8 %_68, -128, !dbg !1621
  store i8 %71, ptr %c, align 1, !dbg !1621
  %_76 = load i32, ptr %code, align 4, !dbg !1622, !noundef !27
  %_75 = and i32 %_76, 63, !dbg !1623
  %_74 = trunc i32 %_75 to i8, !dbg !1623
  %72 = or i8 %_74, -128, !dbg !1624
  store i8 %72, ptr %d, align 1, !dbg !1624
  br label %bb22, !dbg !1625

bb22:                                             ; preds = %bb8, %bb9, %bb11, %bb14
  %_93 = load i64, ptr %len, align 8, !dbg !1626, !noundef !27
  store i64 %_93, ptr %_92, align 8, !dbg !1627
  %73 = load i64, ptr %_92, align 8, !dbg !1628, !noundef !27
; call core::slice::index::<impl core::ops::index::IndexMut<I> for [T]>::index_mut
  %74 = call { ptr, i64 } @"_ZN4core5slice5index77_$LT$impl$u20$core..ops..index..IndexMut$LT$I$GT$$u20$for$u20$$u5b$T$u5d$$GT$9index_mut17h6b84944b767b0ec7E"(ptr align 1 %dst.0, i64 %dst.1, i64 %73, ptr align 8 @alloc_946a489b37b3b4f0f3969c8c6688a7f9) #9, !dbg !1628
  %_91.0 = extractvalue { ptr, i64 } %74, 0, !dbg !1628
  %_91.1 = extractvalue { ptr, i64 } %74, 1, !dbg !1628
  %75 = insertvalue { ptr, i64 } poison, ptr %_91.0, 0, !dbg !1629
  %76 = insertvalue { ptr, i64 } %75, i64 %_91.1, 1, !dbg !1629
  ret { ptr, i64 } %76, !dbg !1629

bb11:                                             ; preds = %bb6
  %77 = getelementptr inbounds { i64, { ptr, i64 } }, ptr %_5, i32 0, i32 1, !dbg !1630
  %78 = getelementptr inbounds { ptr, i64 }, ptr %77, i32 0, i32 0, !dbg !1630
  %_102.0 = load ptr, ptr %78, align 8, !dbg !1630, !nonnull !27, !align !863, !noundef !27
  %79 = getelementptr inbounds { ptr, i64 }, ptr %77, i32 0, i32 1, !dbg !1630
  %_102.1 = load i64, ptr %79, align 8, !dbg !1630, !noundef !27
  %a1 = getelementptr inbounds [0 x i8], ptr %_102.0, i64 0, i64 0, !dbg !1630
  store ptr %a1, ptr %a.dbg.spill2, align 8, !dbg !1630
  call void @llvm.dbg.declare(metadata ptr %a.dbg.spill2, metadata !1538, metadata !DIExpression()), !dbg !1631
  %80 = getelementptr inbounds { i64, { ptr, i64 } }, ptr %_5, i32 0, i32 1, !dbg !1632
  %81 = getelementptr inbounds { ptr, i64 }, ptr %80, i32 0, i32 0, !dbg !1632
  %_103.0 = load ptr, ptr %81, align 8, !dbg !1632, !nonnull !27, !align !863, !noundef !27
  %82 = getelementptr inbounds { ptr, i64 }, ptr %80, i32 0, i32 1, !dbg !1632
  %_103.1 = load i64, ptr %82, align 8, !dbg !1632, !noundef !27
  %b3 = getelementptr inbounds [0 x i8], ptr %_103.0, i64 0, i64 1, !dbg !1632
  store ptr %b3, ptr %b.dbg.spill4, align 8, !dbg !1632
  call void @llvm.dbg.declare(metadata ptr %b.dbg.spill4, metadata !1540, metadata !DIExpression()), !dbg !1633
  %83 = getelementptr inbounds { i64, { ptr, i64 } }, ptr %_5, i32 0, i32 1, !dbg !1634
  %84 = getelementptr inbounds { ptr, i64 }, ptr %83, i32 0, i32 0, !dbg !1634
  %_104.0 = load ptr, ptr %84, align 8, !dbg !1634, !nonnull !27, !align !863, !noundef !27
  %85 = getelementptr inbounds { ptr, i64 }, ptr %83, i32 0, i32 1, !dbg !1634
  %_104.1 = load i64, ptr %85, align 8, !dbg !1634, !noundef !27
  %c5 = getelementptr inbounds [0 x i8], ptr %_104.0, i64 0, i64 2, !dbg !1634
  store ptr %c5, ptr %c.dbg.spill6, align 8, !dbg !1634
  call void @llvm.dbg.declare(metadata ptr %c.dbg.spill6, metadata !1541, metadata !DIExpression()), !dbg !1635
  %_40 = load i32, ptr %code, align 4, !dbg !1636, !noundef !27
  %_39 = lshr i32 %_40, 12, !dbg !1636
  %_38 = and i32 %_39, 15, !dbg !1637
  %_37 = trunc i32 %_38 to i8, !dbg !1637
  %86 = or i8 %_37, -32, !dbg !1638
  store i8 %86, ptr %a1, align 1, !dbg !1638
  %_46 = load i32, ptr %code, align 4, !dbg !1639, !noundef !27
  %_45 = lshr i32 %_46, 6, !dbg !1639
  %_44 = and i32 %_45, 63, !dbg !1640
  %_43 = trunc i32 %_44 to i8, !dbg !1640
  %87 = or i8 %_43, -128, !dbg !1641
  store i8 %87, ptr %b3, align 1, !dbg !1641
  %_51 = load i32, ptr %code, align 4, !dbg !1642, !noundef !27
  %_50 = and i32 %_51, 63, !dbg !1643
  %_49 = trunc i32 %_50 to i8, !dbg !1643
  %88 = or i8 %_49, -128, !dbg !1644
  store i8 %88, ptr %c5, align 1, !dbg !1644
  br label %bb22, !dbg !1645

bb9:                                              ; preds = %bb5
  %89 = getelementptr inbounds { i64, { ptr, i64 } }, ptr %_5, i32 0, i32 1, !dbg !1646
  %90 = getelementptr inbounds { ptr, i64 }, ptr %89, i32 0, i32 0, !dbg !1646
  %_100.0 = load ptr, ptr %90, align 8, !dbg !1646, !nonnull !27, !align !863, !noundef !27
  %91 = getelementptr inbounds { ptr, i64 }, ptr %89, i32 0, i32 1, !dbg !1646
  %_100.1 = load i64, ptr %91, align 8, !dbg !1646, !noundef !27
  %a7 = getelementptr inbounds [0 x i8], ptr %_100.0, i64 0, i64 0, !dbg !1646
  store ptr %a7, ptr %a.dbg.spill8, align 8, !dbg !1646
  call void @llvm.dbg.declare(metadata ptr %a.dbg.spill8, metadata !1535, metadata !DIExpression()), !dbg !1647
  %92 = getelementptr inbounds { i64, { ptr, i64 } }, ptr %_5, i32 0, i32 1, !dbg !1648
  %93 = getelementptr inbounds { ptr, i64 }, ptr %92, i32 0, i32 0, !dbg !1648
  %_101.0 = load ptr, ptr %93, align 8, !dbg !1648, !nonnull !27, !align !863, !noundef !27
  %94 = getelementptr inbounds { ptr, i64 }, ptr %92, i32 0, i32 1, !dbg !1648
  %_101.1 = load i64, ptr %94, align 8, !dbg !1648, !noundef !27
  %b9 = getelementptr inbounds [0 x i8], ptr %_101.0, i64 0, i64 1, !dbg !1648
  store ptr %b9, ptr %b.dbg.spill10, align 8, !dbg !1648
  call void @llvm.dbg.declare(metadata ptr %b.dbg.spill10, metadata !1537, metadata !DIExpression()), !dbg !1649
  %_28 = load i32, ptr %code, align 4, !dbg !1650, !noundef !27
  %_27 = lshr i32 %_28, 6, !dbg !1650
  %_26 = and i32 %_27, 31, !dbg !1651
  %_25 = trunc i32 %_26 to i8, !dbg !1651
  %95 = or i8 %_25, -64, !dbg !1652
  store i8 %95, ptr %a7, align 1, !dbg !1652
  %_33 = load i32, ptr %code, align 4, !dbg !1653, !noundef !27
  %_32 = and i32 %_33, 63, !dbg !1654
  %_31 = trunc i32 %_32 to i8, !dbg !1654
  %96 = or i8 %_31, -128, !dbg !1655
  store i8 %96, ptr %b9, align 1, !dbg !1655
  br label %bb22, !dbg !1656

bb8:                                              ; preds = %bb3
  %97 = getelementptr inbounds { i64, { ptr, i64 } }, ptr %_5, i32 0, i32 1, !dbg !1657
  %98 = getelementptr inbounds { ptr, i64 }, ptr %97, i32 0, i32 0, !dbg !1657
  %_99.0 = load ptr, ptr %98, align 8, !dbg !1657, !nonnull !27, !align !863, !noundef !27
  %99 = getelementptr inbounds { ptr, i64 }, ptr %97, i32 0, i32 1, !dbg !1657
  %_99.1 = load i64, ptr %99, align 8, !dbg !1657, !noundef !27
  %a11 = getelementptr inbounds [0 x i8], ptr %_99.0, i64 0, i64 0, !dbg !1657
  store ptr %a11, ptr %a.dbg.spill12, align 8, !dbg !1657
  call void @llvm.dbg.declare(metadata ptr %a.dbg.spill12, metadata !1532, metadata !DIExpression()), !dbg !1658
  %_22 = load i32, ptr %code, align 4, !dbg !1659, !noundef !27
  %100 = trunc i32 %_22 to i8, !dbg !1660
  store i8 %100, ptr %a11, align 1, !dbg !1660
  br label %bb22, !dbg !1661
}

; core::char::methods::<impl char>::encode_utf8
; Function Attrs: inlinehint noredzone nounwind
define internal { ptr, i64 } @"_ZN4core4char7methods22_$LT$impl$u20$char$GT$11encode_utf817hb026cb3f38b2ad49E"(i32 %self, ptr align 1 %dst.0, i64 %dst.1) unnamed_addr #0 !dbg !1662 {
start:
  %dst.dbg.spill = alloca { ptr, i64 }, align 8
  %self.dbg.spill = alloca i32, align 4
  store i32 %self, ptr %self.dbg.spill, align 4
  call void @llvm.dbg.declare(metadata ptr %self.dbg.spill, metadata !1667, metadata !DIExpression()), !dbg !1669
  %0 = getelementptr inbounds { ptr, i64 }, ptr %dst.dbg.spill, i32 0, i32 0
  store ptr %dst.0, ptr %0, align 8
  %1 = getelementptr inbounds { ptr, i64 }, ptr %dst.dbg.spill, i32 0, i32 1
  store i64 %dst.1, ptr %1, align 8
  call void @llvm.dbg.declare(metadata ptr %dst.dbg.spill, metadata !1668, metadata !DIExpression()), !dbg !1670
; call core::char::methods::encode_utf8_raw
  %2 = call { ptr, i64 } @_ZN4core4char7methods15encode_utf8_raw17h9742bf9b24acdc35E(i32 %self, ptr align 1 %dst.0, i64 %dst.1) #9, !dbg !1671
  %_5.0 = extractvalue { ptr, i64 } %2, 0, !dbg !1671
  %_5.1 = extractvalue { ptr, i64 } %2, 1, !dbg !1671
; call core::str::converts::from_utf8_unchecked_mut
  %3 = call { ptr, i64 } @_ZN4core3str8converts23from_utf8_unchecked_mut17h08bc18b09cdf0307E(ptr align 1 %_5.0, i64 %_5.1) #9, !dbg !1672
  %_3.0 = extractvalue { ptr, i64 } %3, 0, !dbg !1672
  %_3.1 = extractvalue { ptr, i64 } %3, 1, !dbg !1672
  %4 = insertvalue { ptr, i64 } poison, ptr %_3.0, 0, !dbg !1673
  %5 = insertvalue { ptr, i64 } %4, i64 %_3.1, 1, !dbg !1673
  ret { ptr, i64 } %5, !dbg !1673
}

; core::char::methods::len_utf8
; Function Attrs: inlinehint noredzone nounwind
define internal i64 @_ZN4core4char7methods8len_utf817h31844e7c089a81a7E(i32 %code) unnamed_addr #0 !dbg !1674 {
start:
  %code.dbg.spill = alloca i32, align 4
  %0 = alloca i64, align 8
  store i32 %code, ptr %code.dbg.spill, align 4
  call void @llvm.dbg.declare(metadata ptr %code.dbg.spill, metadata !1678, metadata !DIExpression()), !dbg !1679
  %_2 = icmp ult i32 %code, 128, !dbg !1680
  br i1 %_2, label %bb1, label %bb2, !dbg !1680

bb2:                                              ; preds = %start
  %_3 = icmp ult i32 %code, 2048, !dbg !1681
  br i1 %_3, label %bb3, label %bb4, !dbg !1681

bb1:                                              ; preds = %start
  store i64 1, ptr %0, align 8, !dbg !1682
  br label %bb7, !dbg !1683

bb7:                                              ; preds = %bb6, %bb5, %bb3, %bb1
  %1 = load i64, ptr %0, align 8, !dbg !1684, !noundef !27
  ret i64 %1, !dbg !1684

bb4:                                              ; preds = %bb2
  %_4 = icmp ult i32 %code, 65536, !dbg !1685
  br i1 %_4, label %bb5, label %bb6, !dbg !1685

bb3:                                              ; preds = %bb2
  store i64 2, ptr %0, align 8, !dbg !1686
  br label %bb7, !dbg !1687

bb6:                                              ; preds = %bb4
  store i64 4, ptr %0, align 8, !dbg !1688
  br label %bb7, !dbg !1689

bb5:                                              ; preds = %bb4
  store i64 3, ptr %0, align 8, !dbg !1690
  br label %bb7, !dbg !1689
}

; core::hint::unreachable_unchecked
; Function Attrs: inlinehint noredzone noreturn nounwind
define internal void @_ZN4core4hint21unreachable_unchecked17hd1ddb4a5d77fbad7E() unnamed_addr #2 !dbg !1691 {
start:
  br i1 true, label %bb1, label %bb2, !dbg !1696

bb2:                                              ; preds = %_ZN4core4hint21unreachable_unchecked7runtime17h3f50d638cca9e835E.exit, %start
  unreachable, !dbg !1697

bb1:                                              ; preds = %start
; call core::panicking::panic_nounwind
  call void @_ZN4core9panicking14panic_nounwind17h91025db35e83f9c9E(ptr align 1 @alloc_1eb6f53a157dccb32488e066ad957e6d, i64 82) #11, !dbg !1698
  unreachable, !dbg !1698

_ZN4core4hint21unreachable_unchecked7runtime17h3f50d638cca9e835E.exit: ; No predecessors!
  br label %bb2, !dbg !1696
}

; core::sync::atomic::AtomicBool::compare_exchange_weak
; Function Attrs: inlinehint noredzone nounwind
define internal { i8, i8 } @_ZN4core4sync6atomic10AtomicBool21compare_exchange_weak17h67b4770c4895eb5eE(ptr align 1 %self, i1 zeroext %current, i1 zeroext %new, i8 %success, i8 %failure) unnamed_addr #0 !dbg !1703 {
start:
  %self.dbg.spill.i = alloca ptr, align 8
  %x.dbg.spill2 = alloca i8, align 1
  %x.dbg.spill = alloca i8, align 1
  %failure.dbg.spill = alloca i8, align 1
  %success.dbg.spill = alloca i8, align 1
  %new.dbg.spill = alloca i8, align 1
  %current.dbg.spill = alloca i8, align 1
  %self.dbg.spill = alloca ptr, align 8
  %_6 = alloca { i8, i8 }, align 1
  %0 = alloca { i8, i8 }, align 1
  store ptr %self, ptr %self.dbg.spill, align 8
  call void @llvm.dbg.declare(metadata ptr %self.dbg.spill, metadata !1725, metadata !DIExpression()), !dbg !1734
  %1 = zext i1 %current to i8
  store i8 %1, ptr %current.dbg.spill, align 1
  call void @llvm.dbg.declare(metadata ptr %current.dbg.spill, metadata !1726, metadata !DIExpression()), !dbg !1735
  %2 = zext i1 %new to i8
  store i8 %2, ptr %new.dbg.spill, align 1
  call void @llvm.dbg.declare(metadata ptr %new.dbg.spill, metadata !1727, metadata !DIExpression()), !dbg !1736
  store i8 %success, ptr %success.dbg.spill, align 1
  call void @llvm.dbg.declare(metadata ptr %success.dbg.spill, metadata !1728, metadata !DIExpression()), !dbg !1737
  store i8 %failure, ptr %failure.dbg.spill, align 1
  call void @llvm.dbg.declare(metadata ptr %failure.dbg.spill, metadata !1729, metadata !DIExpression()), !dbg !1738
  store ptr %self, ptr %self.dbg.spill.i, align 8
  call void @llvm.dbg.declare(metadata ptr %self.dbg.spill.i, metadata !1739, metadata !DIExpression()), !dbg !1747
  %_9 = zext i1 %current to i8, !dbg !1749
  %_10 = zext i1 %new to i8, !dbg !1750
; call core::sync::atomic::atomic_compare_exchange_weak
  %3 = call { i8, i8 } @_ZN4core4sync6atomic28atomic_compare_exchange_weak17hc12df24ad0ee8f86E(ptr %self, i8 %_9, i8 %_10, i8 %success, i8 %failure) #9, !dbg !1751
  store { i8, i8 } %3, ptr %_6, align 1, !dbg !1751
  %4 = load i8, ptr %_6, align 1, !dbg !1752, !range !995, !noundef !27
  %5 = trunc i8 %4 to i1, !dbg !1752
  %_11 = zext i1 %5 to i64, !dbg !1752
  %6 = icmp eq i64 %_11, 0, !dbg !1753
  br i1 %6, label %bb5, label %bb3, !dbg !1753

bb5:                                              ; preds = %start
  %7 = getelementptr inbounds { i8, i8 }, ptr %_6, i32 0, i32 1, !dbg !1754
  %x1 = load i8, ptr %7, align 1, !dbg !1754, !noundef !27
  store i8 %x1, ptr %x.dbg.spill2, align 1, !dbg !1754
  call void @llvm.dbg.declare(metadata ptr %x.dbg.spill2, metadata !1730, metadata !DIExpression()), !dbg !1755
  %_13 = icmp ne i8 %x1, 0, !dbg !1756
  %8 = getelementptr inbounds { i8, i8 }, ptr %0, i32 0, i32 1, !dbg !1757
  %9 = zext i1 %_13 to i8, !dbg !1757
  store i8 %9, ptr %8, align 1, !dbg !1757
  store i8 0, ptr %0, align 1, !dbg !1757
  br label %bb6, !dbg !1758

bb3:                                              ; preds = %start
  %10 = getelementptr inbounds { i8, i8 }, ptr %_6, i32 0, i32 1, !dbg !1759
  %x = load i8, ptr %10, align 1, !dbg !1759, !noundef !27
  store i8 %x, ptr %x.dbg.spill, align 1, !dbg !1759
  call void @llvm.dbg.declare(metadata ptr %x.dbg.spill, metadata !1732, metadata !DIExpression()), !dbg !1760
  %_15 = icmp ne i8 %x, 0, !dbg !1761
  %11 = getelementptr inbounds { i8, i8 }, ptr %0, i32 0, i32 1, !dbg !1762
  %12 = zext i1 %_15 to i8, !dbg !1762
  store i8 %12, ptr %11, align 1, !dbg !1762
  store i8 1, ptr %0, align 1, !dbg !1762
  br label %bb6, !dbg !1763

bb4:                                              ; No predecessors!
  unreachable, !dbg !1752

bb6:                                              ; preds = %bb5, %bb3
  %13 = getelementptr inbounds { i8, i8 }, ptr %0, i32 0, i32 0, !dbg !1764
  %14 = load i8, ptr %13, align 1, !dbg !1764, !range !995, !noundef !27
  %15 = trunc i8 %14 to i1, !dbg !1764
  %16 = getelementptr inbounds { i8, i8 }, ptr %0, i32 0, i32 1, !dbg !1764
  %17 = load i8, ptr %16, align 1, !dbg !1764, !noundef !27
  %18 = zext i1 %15 to i8, !dbg !1764
  %19 = insertvalue { i8, i8 } poison, i8 %18, 0, !dbg !1764
  %20 = insertvalue { i8, i8 } %19, i8 %17, 1, !dbg !1764
  ret { i8, i8 } %20, !dbg !1764
}

; core::sync::atomic::AtomicBool::new
; Function Attrs: inlinehint noredzone nounwind
define internal i8 @_ZN4core4sync6atomic10AtomicBool3new17hb64205178301f021E(i1 zeroext %v) unnamed_addr #0 !dbg !1765 {
start:
  %value.dbg.spill.i = alloca i8, align 1
  %0 = alloca i8, align 1
  %v.dbg.spill = alloca i8, align 1
  %1 = alloca %"core::sync::atomic::AtomicBool", align 1
  %2 = zext i1 %v to i8
  store i8 %2, ptr %v.dbg.spill, align 1
  call void @llvm.dbg.declare(metadata ptr %v.dbg.spill, metadata !1770, metadata !DIExpression()), !dbg !1771
  %_3 = zext i1 %v to i8, !dbg !1772
  store i8 %_3, ptr %value.dbg.spill.i, align 1
  call void @llvm.dbg.declare(metadata ptr %value.dbg.spill.i, metadata !1773, metadata !DIExpression()), !dbg !1779
  store i8 %_3, ptr %0, align 1, !dbg !1781
  %3 = load i8, ptr %0, align 1, !dbg !1782, !noundef !27
  store i8 %3, ptr %1, align 1, !dbg !1783
  %4 = load i8, ptr %1, align 1, !dbg !1784
  ret i8 %4, !dbg !1784
}

; core::sync::atomic::AtomicBool::load
; Function Attrs: inlinehint noredzone nounwind
define internal zeroext i1 @_ZN4core4sync6atomic10AtomicBool4load17h7b62477725c86049E(ptr align 1 %self, i8 %order) unnamed_addr #0 !dbg !1785 {
start:
  %self.dbg.spill.i = alloca ptr, align 8
  %order.dbg.spill = alloca i8, align 1
  %self.dbg.spill = alloca ptr, align 8
  store ptr %self, ptr %self.dbg.spill, align 8
  call void @llvm.dbg.declare(metadata ptr %self.dbg.spill, metadata !1790, metadata !DIExpression()), !dbg !1792
  store i8 %order, ptr %order.dbg.spill, align 1
  call void @llvm.dbg.declare(metadata ptr %order.dbg.spill, metadata !1791, metadata !DIExpression()), !dbg !1793
  store ptr %self, ptr %self.dbg.spill.i, align 8
  call void @llvm.dbg.declare(metadata ptr %self.dbg.spill.i, metadata !1739, metadata !DIExpression()), !dbg !1794
; call core::sync::atomic::atomic_load
  %_3 = call i8 @_ZN4core4sync6atomic11atomic_load17h5f4cd729cb9c9a9dE(ptr %self, i8 %order) #9, !dbg !1796
  %0 = icmp ne i8 %_3, 0, !dbg !1796
  ret i1 %0, !dbg !1797
}

; core::sync::atomic::AtomicBool::store
; Function Attrs: inlinehint noredzone nounwind
define internal void @_ZN4core4sync6atomic10AtomicBool5store17hbcaf2f77bae43bd3E(ptr align 1 %self, i1 zeroext %val, i8 %order) unnamed_addr #0 !dbg !1798 {
start:
  %self.dbg.spill.i = alloca ptr, align 8
  %order.dbg.spill = alloca i8, align 1
  %val.dbg.spill = alloca i8, align 1
  %self.dbg.spill = alloca ptr, align 8
  store ptr %self, ptr %self.dbg.spill, align 8
  call void @llvm.dbg.declare(metadata ptr %self.dbg.spill, metadata !1803, metadata !DIExpression()), !dbg !1806
  %0 = zext i1 %val to i8
  store i8 %0, ptr %val.dbg.spill, align 1
  call void @llvm.dbg.declare(metadata ptr %val.dbg.spill, metadata !1804, metadata !DIExpression()), !dbg !1807
  store i8 %order, ptr %order.dbg.spill, align 1
  call void @llvm.dbg.declare(metadata ptr %order.dbg.spill, metadata !1805, metadata !DIExpression()), !dbg !1808
  store ptr %self, ptr %self.dbg.spill.i, align 8
  call void @llvm.dbg.declare(metadata ptr %self.dbg.spill.i, metadata !1739, metadata !DIExpression()), !dbg !1809
  %_7 = zext i1 %val to i8, !dbg !1811
; call core::sync::atomic::atomic_store
  call void @_ZN4core4sync6atomic12atomic_store17hdefde1bfd48a653eE(ptr %self, i8 %_7, i8 %order) #9, !dbg !1812
  ret void, !dbg !1813
}

; core::sync::atomic::AtomicUsize::compare_and_swap
; Function Attrs: inlinehint noredzone nounwind
define internal i64 @_ZN4core4sync6atomic11AtomicUsize16compare_and_swap17habd881330ff5590aE(ptr align 8 %self, i64 %current, i64 %new, i8 %order) unnamed_addr #0 !dbg !1814 {
start:
  %x.dbg.spill2 = alloca i64, align 8
  %x.dbg.spill = alloca i64, align 8
  %order.dbg.spill = alloca i8, align 1
  %new.dbg.spill = alloca i64, align 8
  %current.dbg.spill = alloca i64, align 8
  %self.dbg.spill = alloca ptr, align 8
  %_5 = alloca { i64, i64 }, align 8
  %0 = alloca i64, align 8
  store ptr %self, ptr %self.dbg.spill, align 8
  call void @llvm.dbg.declare(metadata ptr %self.dbg.spill, metadata !1820, metadata !DIExpression()), !dbg !1828
  store i64 %current, ptr %current.dbg.spill, align 8
  call void @llvm.dbg.declare(metadata ptr %current.dbg.spill, metadata !1821, metadata !DIExpression()), !dbg !1829
  store i64 %new, ptr %new.dbg.spill, align 8
  call void @llvm.dbg.declare(metadata ptr %new.dbg.spill, metadata !1822, metadata !DIExpression()), !dbg !1830
  store i8 %order, ptr %order.dbg.spill, align 1
  call void @llvm.dbg.declare(metadata ptr %order.dbg.spill, metadata !1823, metadata !DIExpression()), !dbg !1831
; call core::sync::atomic::strongest_failure_ordering
  %_6 = call i8 @_ZN4core4sync6atomic26strongest_failure_ordering17ha76ccf64a267f3b8E(i8 %order) #9, !dbg !1832, !range !1833
; call core::sync::atomic::AtomicUsize::compare_exchange
  %1 = call { i64, i64 } @_ZN4core4sync6atomic11AtomicUsize16compare_exchange17hc2fadd3679cad027E(ptr align 8 %self, i64 %current, i64 %new, i8 %order, i8 %_6) #9, !dbg !1834
  store { i64, i64 } %1, ptr %_5, align 8, !dbg !1834
  %_7 = load i64, ptr %_5, align 8, !dbg !1834, !range !1835, !noundef !27
  %2 = icmp eq i64 %_7, 0, !dbg !1836
  br i1 %2, label %bb5, label %bb3, !dbg !1836

bb5:                                              ; preds = %start
  %3 = getelementptr inbounds { i64, i64 }, ptr %_5, i32 0, i32 1, !dbg !1837
  %x1 = load i64, ptr %3, align 8, !dbg !1837, !noundef !27
  store i64 %x1, ptr %x.dbg.spill2, align 8, !dbg !1837
  call void @llvm.dbg.declare(metadata ptr %x.dbg.spill2, metadata !1824, metadata !DIExpression()), !dbg !1838
  store i64 %x1, ptr %0, align 8, !dbg !1839
  br label %bb6, !dbg !1840

bb3:                                              ; preds = %start
  %4 = getelementptr inbounds { i64, i64 }, ptr %_5, i32 0, i32 1, !dbg !1841
  %x = load i64, ptr %4, align 8, !dbg !1841, !noundef !27
  store i64 %x, ptr %x.dbg.spill, align 8, !dbg !1841
  call void @llvm.dbg.declare(metadata ptr %x.dbg.spill, metadata !1826, metadata !DIExpression()), !dbg !1842
  store i64 %x, ptr %0, align 8, !dbg !1843
  br label %bb6, !dbg !1844

bb4:                                              ; No predecessors!
  unreachable, !dbg !1834

bb6:                                              ; preds = %bb5, %bb3
  %5 = load i64, ptr %0, align 8, !dbg !1845, !noundef !27
  ret i64 %5, !dbg !1845
}

; core::sync::atomic::AtomicUsize::compare_exchange
; Function Attrs: inlinehint noredzone nounwind
define internal { i64, i64 } @_ZN4core4sync6atomic11AtomicUsize16compare_exchange17hc2fadd3679cad027E(ptr align 8 %self, i64 %current, i64 %new, i8 %success, i8 %failure) unnamed_addr #0 !dbg !1846 {
start:
  %self.dbg.spill.i = alloca ptr, align 8
  %failure.dbg.spill = alloca i8, align 1
  %success.dbg.spill = alloca i8, align 1
  %new.dbg.spill = alloca i64, align 8
  %current.dbg.spill = alloca i64, align 8
  %self.dbg.spill = alloca ptr, align 8
  store ptr %self, ptr %self.dbg.spill, align 8
  call void @llvm.dbg.declare(metadata ptr %self.dbg.spill, metadata !1866, metadata !DIExpression()), !dbg !1871
  store i64 %current, ptr %current.dbg.spill, align 8
  call void @llvm.dbg.declare(metadata ptr %current.dbg.spill, metadata !1867, metadata !DIExpression()), !dbg !1872
  store i64 %new, ptr %new.dbg.spill, align 8
  call void @llvm.dbg.declare(metadata ptr %new.dbg.spill, metadata !1868, metadata !DIExpression()), !dbg !1873
  store i8 %success, ptr %success.dbg.spill, align 1
  call void @llvm.dbg.declare(metadata ptr %success.dbg.spill, metadata !1869, metadata !DIExpression()), !dbg !1874
  store i8 %failure, ptr %failure.dbg.spill, align 1
  call void @llvm.dbg.declare(metadata ptr %failure.dbg.spill, metadata !1870, metadata !DIExpression()), !dbg !1875
  store ptr %self, ptr %self.dbg.spill.i, align 8
  call void @llvm.dbg.declare(metadata ptr %self.dbg.spill.i, metadata !1876, metadata !DIExpression()), !dbg !1884
; call core::sync::atomic::atomic_compare_exchange
  %0 = call { i64, i64 } @_ZN4core4sync6atomic23atomic_compare_exchange17haf3af6af3a042268E(ptr %self, i64 %current, i64 %new, i8 %success, i8 %failure) #9, !dbg !1886
  %1 = extractvalue { i64, i64 } %0, 0, !dbg !1886
  %2 = extractvalue { i64, i64 } %0, 1, !dbg !1886
  %3 = insertvalue { i64, i64 } poison, i64 %1, 0, !dbg !1887
  %4 = insertvalue { i64, i64 } %3, i64 %2, 1, !dbg !1887
  ret { i64, i64 } %4, !dbg !1887
}

; core::sync::atomic::AtomicUsize::load
; Function Attrs: inlinehint noredzone nounwind
define internal i64 @_ZN4core4sync6atomic11AtomicUsize4load17h139b7c9d24465a6dE(ptr align 8 %self, i8 %order) unnamed_addr #0 !dbg !1888 {
start:
  %self.dbg.spill.i = alloca ptr, align 8
  %order.dbg.spill = alloca i8, align 1
  %self.dbg.spill = alloca ptr, align 8
  store ptr %self, ptr %self.dbg.spill, align 8
  call void @llvm.dbg.declare(metadata ptr %self.dbg.spill, metadata !1893, metadata !DIExpression()), !dbg !1895
  store i8 %order, ptr %order.dbg.spill, align 1
  call void @llvm.dbg.declare(metadata ptr %order.dbg.spill, metadata !1894, metadata !DIExpression()), !dbg !1896
  store ptr %self, ptr %self.dbg.spill.i, align 8
  call void @llvm.dbg.declare(metadata ptr %self.dbg.spill.i, metadata !1876, metadata !DIExpression()), !dbg !1897
; call core::sync::atomic::atomic_load
  %0 = call i64 @_ZN4core4sync6atomic11atomic_load17hc4484eafd3d704beE(ptr %self, i8 %order) #9, !dbg !1899
  ret i64 %0, !dbg !1900
}

; core::sync::atomic::AtomicUsize::store
; Function Attrs: inlinehint noredzone nounwind
define internal void @_ZN4core4sync6atomic11AtomicUsize5store17h24e8f8d2368c313eE(ptr align 8 %self, i64 %val, i8 %order) unnamed_addr #0 !dbg !1901 {
start:
  %self.dbg.spill.i = alloca ptr, align 8
  %order.dbg.spill = alloca i8, align 1
  %val.dbg.spill = alloca i64, align 8
  %self.dbg.spill = alloca ptr, align 8
  store ptr %self, ptr %self.dbg.spill, align 8
  call void @llvm.dbg.declare(metadata ptr %self.dbg.spill, metadata !1906, metadata !DIExpression()), !dbg !1909
  store i64 %val, ptr %val.dbg.spill, align 8
  call void @llvm.dbg.declare(metadata ptr %val.dbg.spill, metadata !1907, metadata !DIExpression()), !dbg !1910
  store i8 %order, ptr %order.dbg.spill, align 1
  call void @llvm.dbg.declare(metadata ptr %order.dbg.spill, metadata !1908, metadata !DIExpression()), !dbg !1911
  store ptr %self, ptr %self.dbg.spill.i, align 8
  call void @llvm.dbg.declare(metadata ptr %self.dbg.spill.i, metadata !1876, metadata !DIExpression()), !dbg !1912
; call core::sync::atomic::atomic_store
  call void @_ZN4core4sync6atomic12atomic_store17h46def8192006a28fE(ptr %self, i64 %val, i8 %order) #9, !dbg !1914
  ret void, !dbg !1915
}

; core::sync::atomic::spin_loop_hint
; Function Attrs: inlinehint noredzone nounwind
define internal void @_ZN4core4sync6atomic14spin_loop_hint17h51b4cbffce9829bdE() unnamed_addr #0 !dbg !1916 {
start:
; call core::core_arch::x86::sse2::_mm_pause
  call void @_ZN4core9core_arch3x864sse29_mm_pause17h62c49e641acfae37E() #9, !dbg !1917
  ret void, !dbg !1920
}

; core::sync::atomic::strongest_failure_ordering
; Function Attrs: inlinehint noredzone nounwind
define internal i8 @_ZN4core4sync6atomic26strongest_failure_ordering17ha76ccf64a267f3b8E(i8 %0) unnamed_addr #0 !dbg !1921 {
start:
  %1 = alloca i8, align 1
  %order = alloca i8, align 1
  store i8 %0, ptr %order, align 1
  call void @llvm.dbg.declare(metadata ptr %order, metadata !1925, metadata !DIExpression()), !dbg !1926
  %2 = load i8, ptr %order, align 1, !dbg !1927, !range !1833, !noundef !27
  %_2 = zext i8 %2 to i64, !dbg !1927
  switch i64 %_2, label %bb2 [
    i64 0, label %bb4
    i64 1, label %bb3
    i64 2, label %bb6
    i64 3, label %bb1
    i64 4, label %bb5
  ], !dbg !1928

bb2:                                              ; preds = %start
  unreachable, !dbg !1927

bb4:                                              ; preds = %start
  store i8 0, ptr %1, align 1, !dbg !1929
  br label %bb7, !dbg !1929

bb3:                                              ; preds = %start
  store i8 0, ptr %1, align 1, !dbg !1930
  br label %bb7, !dbg !1930

bb6:                                              ; preds = %start
  store i8 2, ptr %1, align 1, !dbg !1931
  br label %bb7, !dbg !1931

bb1:                                              ; preds = %start
  store i8 2, ptr %1, align 1, !dbg !1932
  br label %bb7, !dbg !1932

bb5:                                              ; preds = %start
  store i8 4, ptr %1, align 1, !dbg !1933
  br label %bb7, !dbg !1933

bb7:                                              ; preds = %bb4, %bb3, %bb6, %bb1, %bb5
  %3 = load i8, ptr %1, align 1, !dbg !1934, !range !1833, !noundef !27
  ret i8 %3, !dbg !1934
}

; core::option::Option<T>::as_ref
; Function Attrs: inlinehint noredzone nounwind
define internal align 8 ptr @"_ZN4core6option15Option$LT$T$GT$6as_ref17h6a458606e0e23b5dE"(ptr align 8 %self) unnamed_addr #0 !dbg !1935 {
start:
  %x.dbg.spill = alloca ptr, align 8
  %self.dbg.spill = alloca ptr, align 8
  %0 = alloca ptr, align 8
  store ptr %self, ptr %self.dbg.spill, align 8
  call void @llvm.dbg.declare(metadata ptr %self.dbg.spill, metadata !1956, metadata !DIExpression()), !dbg !1959
  %_2 = load i64, ptr %self, align 8, !dbg !1960, !range !1835, !noundef !27
  %1 = icmp eq i64 %_2, 0, !dbg !1961
  br i1 %1, label %bb1, label %bb3, !dbg !1961

bb1:                                              ; preds = %start
  store ptr null, ptr %0, align 8, !dbg !1962
  br label %bb4, !dbg !1962

bb3:                                              ; preds = %start
  %x = getelementptr inbounds %"core::option::Option<spin::mutex::Mutex<vga::Screen>>::Some", ptr %self, i32 0, i32 1, !dbg !1963
  store ptr %x, ptr %x.dbg.spill, align 8, !dbg !1963
  call void @llvm.dbg.declare(metadata ptr %x.dbg.spill, metadata !1957, metadata !DIExpression()), !dbg !1964
  store ptr %x, ptr %0, align 8, !dbg !1965
  br label %bb4, !dbg !1966

bb2:                                              ; No predecessors!
  unreachable, !dbg !1960

bb4:                                              ; preds = %bb1, %bb3
  %2 = load ptr, ptr %0, align 8, !dbg !1967, !align !1212, !noundef !27
  ret ptr %2, !dbg !1967
}

; core::option::Option<T>::as_ref
; Function Attrs: inlinehint noredzone nounwind
define internal align 2 ptr @"_ZN4core6option15Option$LT$T$GT$6as_ref17h9eea7ca0ee3049aaE"(ptr align 2 %self) unnamed_addr #0 !dbg !1968 {
start:
  %x.dbg.spill = alloca ptr, align 8
  %self.dbg.spill = alloca ptr, align 8
  %0 = alloca ptr, align 8
  store ptr %self, ptr %self.dbg.spill, align 8
  call void @llvm.dbg.declare(metadata ptr %self.dbg.spill, metadata !1988, metadata !DIExpression()), !dbg !1991
  %1 = load i16, ptr %self, align 2, !dbg !1992, !range !1993, !noundef !27
  %_2 = zext i16 %1 to i64, !dbg !1992
  %2 = icmp eq i64 %_2, 0, !dbg !1994
  br i1 %2, label %bb1, label %bb3, !dbg !1994

bb1:                                              ; preds = %start
  store ptr null, ptr %0, align 8, !dbg !1995
  br label %bb4, !dbg !1995

bb3:                                              ; preds = %start
  %x = getelementptr inbounds %"core::option::Option<spin::mutex::Mutex<keyboard::Keyboard<pc_keyboard::layouts::us104::Us104Key, pc_keyboard::scancodes::set1::ScancodeSet1>>>::Some", ptr %self, i32 0, i32 1, !dbg !1996
  store ptr %x, ptr %x.dbg.spill, align 8, !dbg !1996
  call void @llvm.dbg.declare(metadata ptr %x.dbg.spill, metadata !1989, metadata !DIExpression()), !dbg !1997
  store ptr %x, ptr %0, align 8, !dbg !1998
  br label %bb4, !dbg !1999

bb2:                                              ; No predecessors!
  unreachable, !dbg !1992

bb4:                                              ; preds = %bb1, %bb3
  %3 = load ptr, ptr %0, align 8, !dbg !2000, !align !2001, !noundef !27
  ret ptr %3, !dbg !2000
}

; core::option::Option<T>::as_ref
; Function Attrs: inlinehint noredzone nounwind
define internal align 16 ptr @"_ZN4core6option15Option$LT$T$GT$6as_ref17heb967fbe562534a4E"(ptr align 16 %self) unnamed_addr #0 !dbg !2002 {
start:
  %x.dbg.spill = alloca ptr, align 8
  %self.dbg.spill = alloca ptr, align 8
  %0 = alloca ptr, align 8
  store ptr %self, ptr %self.dbg.spill, align 8
  call void @llvm.dbg.declare(metadata ptr %self.dbg.spill, metadata !2022, metadata !DIExpression()), !dbg !2025
  %1 = getelementptr inbounds %"core::option::Option<cpu_interrupts::interrupt_descriptor_table::SafeInterruptDescriptorTable>", ptr %self, i32 0, i32 1, !dbg !2026
  %2 = load i8, ptr %1, align 2, !dbg !2026, !range !950, !noundef !27
  %3 = icmp eq i8 %2, 2, !dbg !2026
  %_2 = select i1 %3, i64 0, i64 1, !dbg !2026
  %4 = icmp eq i64 %_2, 0, !dbg !2027
  br i1 %4, label %bb1, label %bb3, !dbg !2027

bb1:                                              ; preds = %start
  store ptr null, ptr %0, align 8, !dbg !2028
  br label %bb4, !dbg !2028

bb3:                                              ; preds = %start
  store ptr %self, ptr %x.dbg.spill, align 8, !dbg !2029
  call void @llvm.dbg.declare(metadata ptr %x.dbg.spill, metadata !2023, metadata !DIExpression()), !dbg !2030
  store ptr %self, ptr %0, align 8, !dbg !2031
  br label %bb4, !dbg !2032

bb2:                                              ; No predecessors!
  unreachable, !dbg !2026

bb4:                                              ; preds = %bb1, %bb3
  %5 = load ptr, ptr %0, align 8, !dbg !2033, !align !2034, !noundef !27
  ret ptr %5, !dbg !2033
}

; core::core_arch::x86::sse2::_mm_pause
; Function Attrs: inlinehint noredzone nounwind
define internal void @_ZN4core9core_arch3x864sse29_mm_pause17h62c49e641acfae37E() unnamed_addr #0 !dbg !2035 {
start:
  call void @llvm.x86.sse2.pause() #9, !dbg !2040
  ret void, !dbg !2041
}

; spin::once::Once<T>::call_once
; Function Attrs: noredzone nounwind
define internal align 16 ptr @"_ZN4spin4once13Once$LT$T$GT$9call_once17h24002c70924f0e14E"(ptr align 16 %self) unnamed_addr #1 !dbg !2042 {
start:
  %self.dbg.spill.i = alloca ptr, align 8
  %builder.dbg.spill = alloca {}, align 1
  %self.dbg.spill = alloca ptr, align 8
  %_33 = alloca i8, align 1
  %_29 = alloca i8, align 1
  %_23 = alloca i8, align 1
  %_16 = alloca %"cpu_interrupts::interrupt_descriptor_table::SafeInterruptDescriptorTable", align 16
  %_15 = alloca %"core::option::Option<cpu_interrupts::interrupt_descriptor_table::SafeInterruptDescriptorTable>", align 16
  %finish = alloca { ptr, i8 }, align 8
  %_10 = alloca i8, align 1
  %_5 = alloca i8, align 1
  %status = alloca i64, align 8
  %0 = alloca ptr, align 8
  store ptr %self, ptr %self.dbg.spill, align 8
  call void @llvm.dbg.declare(metadata ptr %self.dbg.spill, metadata !2051, metadata !DIExpression()), !dbg !2061
  call void @llvm.dbg.declare(metadata ptr %builder.dbg.spill, metadata !2052, metadata !DIExpression()), !dbg !2062
  call void @llvm.dbg.declare(metadata ptr %status, metadata !2053, metadata !DIExpression()), !dbg !2063
  call void @llvm.dbg.declare(metadata ptr %finish, metadata !2055, metadata !DIExpression()), !dbg !2064
  store i8 0, ptr %_33, align 1, !dbg !2065
  store i8 1, ptr %_33, align 1, !dbg !2065
  %_4 = getelementptr inbounds %"spin::once::Once<cpu_interrupts::interrupt_descriptor_table::SafeInterruptDescriptorTable>", ptr %self, i32 0, i32 1, !dbg !2066
  store i8 4, ptr %_5, align 1, !dbg !2067
  %1 = load i8, ptr %_5, align 1, !dbg !2066, !range !1833, !noundef !27
; call core::sync::atomic::AtomicUsize::load
  %2 = call i64 @_ZN4core4sync6atomic11AtomicUsize4load17h139b7c9d24465a6dE(ptr align 8 %_4, i8 %1) #9, !dbg !2066
  store i64 %2, ptr %status, align 8, !dbg !2066
  %_7 = load i64, ptr %status, align 8, !dbg !2068, !noundef !27
  %_6 = icmp eq i64 %_7, 0, !dbg !2068
  br i1 %_6, label %bb2, label %bb10, !dbg !2068

bb10:                                             ; preds = %bb13, %bb2, %start
  %3 = load i64, ptr %status, align 8, !dbg !2069, !noundef !27
  switch i64 %3, label %bb11 [
    i64 0, label %bb12
    i64 1, label %bb13
    i64 3, label %bb16
    i64 2, label %bb17
  ], !dbg !2069

bb2:                                              ; preds = %start
  %_9 = getelementptr inbounds %"spin::once::Once<cpu_interrupts::interrupt_descriptor_table::SafeInterruptDescriptorTable>", ptr %self, i32 0, i32 1, !dbg !2070
  store i8 4, ptr %_10, align 1, !dbg !2071
  %4 = load i8, ptr %_10, align 1, !dbg !2070, !range !1833, !noundef !27
; call core::sync::atomic::AtomicUsize::compare_and_swap
  %_8 = call i64 @_ZN4core4sync6atomic11AtomicUsize16compare_and_swap17habd881330ff5590aE(ptr align 8 %_9, i64 0, i64 1, i8 %4) #9, !dbg !2070
  store i64 %_8, ptr %status, align 8, !dbg !2072
  %_12 = load i64, ptr %status, align 8, !dbg !2073, !noundef !27
  %_11 = icmp eq i64 %_12, 0, !dbg !2073
  br i1 %_11, label %bb4, label %bb10, !dbg !2073

bb4:                                              ; preds = %bb2
  %_14 = getelementptr inbounds %"spin::once::Once<cpu_interrupts::interrupt_descriptor_table::SafeInterruptDescriptorTable>", ptr %self, i32 0, i32 1, !dbg !2074
  store ptr %_14, ptr %finish, align 8, !dbg !2075
  %5 = getelementptr inbounds { ptr, i8 }, ptr %finish, i32 0, i32 1, !dbg !2075
  store i8 1, ptr %5, align 8, !dbg !2075
  store i8 0, ptr %_33, align 1, !dbg !2076
; call core::ops::function::FnOnce::call_once
  call void @_ZN4core3ops8function6FnOnce9call_once17hf733974d59d42565E(ptr sret(%"cpu_interrupts::interrupt_descriptor_table::SafeInterruptDescriptorTable") %_16) #9, !dbg !2076
  call void @llvm.memcpy.p0.p0.i64(ptr align 16 %_15, ptr align 16 %_16, i64 4112, i1 false), !dbg !2077
  store ptr %self, ptr %self.dbg.spill.i, align 8
  call void @llvm.dbg.declare(metadata ptr %self.dbg.spill.i, metadata !2078, metadata !DIExpression()), !dbg !2086
  call void @llvm.memcpy.p0.p0.i64(ptr align 16 %self, ptr align 16 %_15, i64 4112, i1 false), !dbg !2088
  %6 = getelementptr inbounds { ptr, i8 }, ptr %finish, i32 0, i32 1, !dbg !2089
  store i8 0, ptr %6, align 8, !dbg !2089
  store i64 2, ptr %status, align 8, !dbg !2090
  %_21 = getelementptr inbounds %"spin::once::Once<cpu_interrupts::interrupt_descriptor_table::SafeInterruptDescriptorTable>", ptr %self, i32 0, i32 1, !dbg !2091
  %_22 = load i64, ptr %status, align 8, !dbg !2092, !noundef !27
  store i8 4, ptr %_23, align 1, !dbg !2093
  %7 = load i8, ptr %_23, align 1, !dbg !2091, !range !1833, !noundef !27
; call core::sync::atomic::AtomicUsize::store
  call void @_ZN4core4sync6atomic11AtomicUsize5store17h24e8f8d2368c313eE(ptr align 8 %_21, i64 %_22, i8 %7) #9, !dbg !2091
; call spin::once::Once<T>::force_get
  %_24 = call align 16 ptr @"_ZN4spin4once13Once$LT$T$GT$9force_get17h4655bbfdc5ab5cb5E"(ptr align 16 %self) #9, !dbg !2094
  store ptr %_24, ptr %0, align 8, !dbg !2094
; call core::ptr::drop_in_place<spin::once::Finish>
  call void @"_ZN4core3ptr39drop_in_place$LT$spin..once..Finish$GT$17hb72e0d33e449956aE"(ptr align 8 %finish) #9, !dbg !2095
  br label %bb19, !dbg !2095

bb19:                                             ; preds = %bb17, %bb4
  %8 = load i8, ptr %_33, align 1, !dbg !2096, !range !995, !noundef !27
  %9 = trunc i8 %8 to i1, !dbg !2096
  br i1 %9, label %bb21, label %bb20, !dbg !2096

bb11:                                             ; preds = %bb10
; call core::hint::unreachable_unchecked
  call void @_ZN4core4hint21unreachable_unchecked17hd1ddb4a5d77fbad7E() #11, !dbg !2097
  unreachable, !dbg !2097

bb12:                                             ; preds = %bb10
; call core::panicking::panic
  call void @_ZN4core9panicking5panic17h38d135543837e8b5E(ptr align 1 @alloc_a500d906b91607583596fa15e63c2ada, i64 40, ptr align 8 @alloc_f6d48a4961f7d5070867936e66a7484e) #11, !dbg !2098
  unreachable, !dbg !2098

bb13:                                             ; preds = %bb10
; call core::sync::atomic::spin_loop_hint
  call void @_ZN4core4sync6atomic14spin_loop_hint17h51b4cbffce9829bdE() #9, !dbg !2099
  %_28 = getelementptr inbounds %"spin::once::Once<cpu_interrupts::interrupt_descriptor_table::SafeInterruptDescriptorTable>", ptr %self, i32 0, i32 1, !dbg !2100
  store i8 4, ptr %_29, align 1, !dbg !2101
  %10 = load i8, ptr %_29, align 1, !dbg !2100, !range !1833, !noundef !27
; call core::sync::atomic::AtomicUsize::load
  %_27 = call i64 @_ZN4core4sync6atomic11AtomicUsize4load17h139b7c9d24465a6dE(ptr align 8 %_28, i8 %10) #9, !dbg !2100
  store i64 %_27, ptr %status, align 8, !dbg !2102
  br label %bb10, !dbg !2103

bb16:                                             ; preds = %bb10
; call core::panicking::panic
  call void @_ZN4core9panicking5panic17h38d135543837e8b5E(ptr align 1 @alloc_b41ce9db6ff9e09c515cee5b4d05db5e, i64 17, ptr align 8 @alloc_14083d05c803f84018d4aa0469014f28) #11, !dbg !2104
  unreachable, !dbg !2104

bb17:                                             ; preds = %bb10
; call spin::once::Once<T>::force_get
  %_31 = call align 16 ptr @"_ZN4spin4once13Once$LT$T$GT$9force_get17h4655bbfdc5ab5cb5E"(ptr align 16 %self) #9, !dbg !2105
  store ptr %_31, ptr %0, align 8, !dbg !2105
  br label %bb19, !dbg !2106

bb20:                                             ; preds = %bb21, %bb19
  %11 = load ptr, ptr %0, align 8, !dbg !2109, !nonnull !27, !align !2034, !noundef !27
  ret ptr %11, !dbg !2109

bb21:                                             ; preds = %bb19
  br label %bb20, !dbg !2096
}

; spin::once::Once<T>::call_once
; Function Attrs: noredzone nounwind
define internal align 8 ptr @"_ZN4spin4once13Once$LT$T$GT$9call_once17hb4e753abdc85acbdE"(ptr align 8 %self) unnamed_addr #1 !dbg !2110 {
start:
  %self.dbg.spill.i = alloca ptr, align 8
  %builder.dbg.spill = alloca {}, align 1
  %self.dbg.spill = alloca ptr, align 8
  %_33 = alloca i8, align 1
  %_29 = alloca i8, align 1
  %_23 = alloca i8, align 1
  %_16 = alloca %"spin::mutex::Mutex<vga::Screen>", align 8
  %_15 = alloca %"core::option::Option<spin::mutex::Mutex<vga::Screen>>", align 8
  %finish = alloca { ptr, i8 }, align 8
  %_10 = alloca i8, align 1
  %_5 = alloca i8, align 1
  %status = alloca i64, align 8
  %0 = alloca ptr, align 8
  store ptr %self, ptr %self.dbg.spill, align 8
  call void @llvm.dbg.declare(metadata ptr %self.dbg.spill, metadata !2118, metadata !DIExpression()), !dbg !2124
  call void @llvm.dbg.declare(metadata ptr %builder.dbg.spill, metadata !2119, metadata !DIExpression()), !dbg !2125
  call void @llvm.dbg.declare(metadata ptr %status, metadata !2120, metadata !DIExpression()), !dbg !2126
  call void @llvm.dbg.declare(metadata ptr %finish, metadata !2122, metadata !DIExpression()), !dbg !2127
  store i8 0, ptr %_33, align 1, !dbg !2128
  store i8 1, ptr %_33, align 1, !dbg !2128
  store i8 4, ptr %_5, align 1, !dbg !2129
  %1 = load i8, ptr %_5, align 1, !dbg !2130, !range !1833, !noundef !27
; call core::sync::atomic::AtomicUsize::load
  %2 = call i64 @_ZN4core4sync6atomic11AtomicUsize4load17h139b7c9d24465a6dE(ptr align 8 %self, i8 %1) #9, !dbg !2130
  store i64 %2, ptr %status, align 8, !dbg !2130
  %_7 = load i64, ptr %status, align 8, !dbg !2131, !noundef !27
  %_6 = icmp eq i64 %_7, 0, !dbg !2131
  br i1 %_6, label %bb2, label %bb10, !dbg !2131

bb10:                                             ; preds = %bb13, %bb2, %start
  %3 = load i64, ptr %status, align 8, !dbg !2132, !noundef !27
  switch i64 %3, label %bb11 [
    i64 0, label %bb12
    i64 1, label %bb13
    i64 3, label %bb16
    i64 2, label %bb17
  ], !dbg !2132

bb2:                                              ; preds = %start
  store i8 4, ptr %_10, align 1, !dbg !2133
  %4 = load i8, ptr %_10, align 1, !dbg !2134, !range !1833, !noundef !27
; call core::sync::atomic::AtomicUsize::compare_and_swap
  %_8 = call i64 @_ZN4core4sync6atomic11AtomicUsize16compare_and_swap17habd881330ff5590aE(ptr align 8 %self, i64 0, i64 1, i8 %4) #9, !dbg !2134
  store i64 %_8, ptr %status, align 8, !dbg !2135
  %_12 = load i64, ptr %status, align 8, !dbg !2136, !noundef !27
  %_11 = icmp eq i64 %_12, 0, !dbg !2136
  br i1 %_11, label %bb4, label %bb10, !dbg !2136

bb4:                                              ; preds = %bb2
  store ptr %self, ptr %finish, align 8, !dbg !2137
  %5 = getelementptr inbounds { ptr, i8 }, ptr %finish, i32 0, i32 1, !dbg !2137
  store i8 1, ptr %5, align 8, !dbg !2137
  store i8 0, ptr %_33, align 1, !dbg !2138
; call core::ops::function::FnOnce::call_once
  call void @_ZN4core3ops8function6FnOnce9call_once17heef6726529f652a7E(ptr sret(%"spin::mutex::Mutex<vga::Screen>") %_16) #9, !dbg !2138
  %6 = getelementptr inbounds %"core::option::Option<spin::mutex::Mutex<vga::Screen>>::Some", ptr %_15, i32 0, i32 1, !dbg !2139
  call void @llvm.memcpy.p0.p0.i64(ptr align 8 %6, ptr align 8 %_16, i64 224, i1 false), !dbg !2139
  store i64 1, ptr %_15, align 8, !dbg !2139
  %_19 = getelementptr inbounds %"spin::once::Once<spin::mutex::Mutex<vga::Screen>>", ptr %self, i32 0, i32 1, !dbg !2140
  store ptr %_19, ptr %self.dbg.spill.i, align 8
  call void @llvm.dbg.declare(metadata ptr %self.dbg.spill.i, metadata !2141, metadata !DIExpression()), !dbg !2149
  call void @llvm.memcpy.p0.p0.i64(ptr align 8 %_19, ptr align 8 %_15, i64 232, i1 false), !dbg !2151
  %7 = getelementptr inbounds { ptr, i8 }, ptr %finish, i32 0, i32 1, !dbg !2152
  store i8 0, ptr %7, align 8, !dbg !2152
  store i64 2, ptr %status, align 8, !dbg !2153
  %_22 = load i64, ptr %status, align 8, !dbg !2154, !noundef !27
  store i8 4, ptr %_23, align 1, !dbg !2155
  %8 = load i8, ptr %_23, align 1, !dbg !2156, !range !1833, !noundef !27
; call core::sync::atomic::AtomicUsize::store
  call void @_ZN4core4sync6atomic11AtomicUsize5store17h24e8f8d2368c313eE(ptr align 8 %self, i64 %_22, i8 %8) #9, !dbg !2156
; call spin::once::Once<T>::force_get
  %_24 = call align 8 ptr @"_ZN4spin4once13Once$LT$T$GT$9force_get17h7d54e5b6270f6322E"(ptr align 8 %self) #9, !dbg !2157
  store ptr %_24, ptr %0, align 8, !dbg !2157
; call core::ptr::drop_in_place<spin::once::Finish>
  call void @"_ZN4core3ptr39drop_in_place$LT$spin..once..Finish$GT$17hb72e0d33e449956aE"(ptr align 8 %finish) #9, !dbg !2158
  br label %bb19, !dbg !2158

bb19:                                             ; preds = %bb17, %bb4
  %9 = load i8, ptr %_33, align 1, !dbg !2159, !range !995, !noundef !27
  %10 = trunc i8 %9 to i1, !dbg !2159
  br i1 %10, label %bb21, label %bb20, !dbg !2159

bb11:                                             ; preds = %bb10
; call core::hint::unreachable_unchecked
  call void @_ZN4core4hint21unreachable_unchecked17hd1ddb4a5d77fbad7E() #11, !dbg !2160
  unreachable, !dbg !2160

bb12:                                             ; preds = %bb10
; call core::panicking::panic
  call void @_ZN4core9panicking5panic17h38d135543837e8b5E(ptr align 1 @alloc_a500d906b91607583596fa15e63c2ada, i64 40, ptr align 8 @alloc_f6d48a4961f7d5070867936e66a7484e) #11, !dbg !2161
  unreachable, !dbg !2161

bb13:                                             ; preds = %bb10
; call core::sync::atomic::spin_loop_hint
  call void @_ZN4core4sync6atomic14spin_loop_hint17h51b4cbffce9829bdE() #9, !dbg !2162
  store i8 4, ptr %_29, align 1, !dbg !2163
  %11 = load i8, ptr %_29, align 1, !dbg !2164, !range !1833, !noundef !27
; call core::sync::atomic::AtomicUsize::load
  %_27 = call i64 @_ZN4core4sync6atomic11AtomicUsize4load17h139b7c9d24465a6dE(ptr align 8 %self, i8 %11) #9, !dbg !2164
  store i64 %_27, ptr %status, align 8, !dbg !2165
  br label %bb10, !dbg !2166

bb16:                                             ; preds = %bb10
; call core::panicking::panic
  call void @_ZN4core9panicking5panic17h38d135543837e8b5E(ptr align 1 @alloc_b41ce9db6ff9e09c515cee5b4d05db5e, i64 17, ptr align 8 @alloc_14083d05c803f84018d4aa0469014f28) #11, !dbg !2167
  unreachable, !dbg !2167

bb17:                                             ; preds = %bb10
; call spin::once::Once<T>::force_get
  %_31 = call align 8 ptr @"_ZN4spin4once13Once$LT$T$GT$9force_get17h7d54e5b6270f6322E"(ptr align 8 %self) #9, !dbg !2168
  store ptr %_31, ptr %0, align 8, !dbg !2168
  br label %bb19, !dbg !2169

bb20:                                             ; preds = %bb21, %bb19
  %12 = load ptr, ptr %0, align 8, !dbg !2171, !nonnull !27, !align !1212, !noundef !27
  ret ptr %12, !dbg !2171

bb21:                                             ; preds = %bb19
  br label %bb20, !dbg !2159
}

; spin::once::Once<T>::call_once
; Function Attrs: noredzone nounwind
define internal align 2 ptr @"_ZN4spin4once13Once$LT$T$GT$9call_once17hdc5c3ffbb9bc09f9E"(ptr align 8 %self) unnamed_addr #1 !dbg !2172 {
start:
  %self.dbg.spill.i = alloca ptr, align 8
  %builder.dbg.spill = alloca {}, align 1
  %self.dbg.spill = alloca ptr, align 8
  %_33 = alloca i8, align 1
  %_29 = alloca i8, align 1
  %_23 = alloca i8, align 1
  %_16 = alloca %"spin::mutex::Mutex<keyboard::Keyboard<pc_keyboard::layouts::us104::Us104Key, pc_keyboard::scancodes::set1::ScancodeSet1>>", align 2
  %_15 = alloca %"core::option::Option<spin::mutex::Mutex<keyboard::Keyboard<pc_keyboard::layouts::us104::Us104Key, pc_keyboard::scancodes::set1::ScancodeSet1>>>", align 2
  %finish = alloca { ptr, i8 }, align 8
  %_10 = alloca i8, align 1
  %_5 = alloca i8, align 1
  %status = alloca i64, align 8
  %0 = alloca ptr, align 8
  store ptr %self, ptr %self.dbg.spill, align 8
  call void @llvm.dbg.declare(metadata ptr %self.dbg.spill, metadata !2180, metadata !DIExpression()), !dbg !2186
  call void @llvm.dbg.declare(metadata ptr %builder.dbg.spill, metadata !2181, metadata !DIExpression()), !dbg !2187
  call void @llvm.dbg.declare(metadata ptr %status, metadata !2182, metadata !DIExpression()), !dbg !2188
  call void @llvm.dbg.declare(metadata ptr %finish, metadata !2184, metadata !DIExpression()), !dbg !2189
  store i8 0, ptr %_33, align 1, !dbg !2190
  store i8 1, ptr %_33, align 1, !dbg !2190
  store i8 4, ptr %_5, align 1, !dbg !2191
  %1 = load i8, ptr %_5, align 1, !dbg !2192, !range !1833, !noundef !27
; call core::sync::atomic::AtomicUsize::load
  %2 = call i64 @_ZN4core4sync6atomic11AtomicUsize4load17h139b7c9d24465a6dE(ptr align 8 %self, i8 %1) #9, !dbg !2192
  store i64 %2, ptr %status, align 8, !dbg !2192
  %_7 = load i64, ptr %status, align 8, !dbg !2193, !noundef !27
  %_6 = icmp eq i64 %_7, 0, !dbg !2193
  br i1 %_6, label %bb2, label %bb10, !dbg !2193

bb10:                                             ; preds = %bb13, %bb2, %start
  %3 = load i64, ptr %status, align 8, !dbg !2194, !noundef !27
  switch i64 %3, label %bb11 [
    i64 0, label %bb12
    i64 1, label %bb13
    i64 3, label %bb16
    i64 2, label %bb17
  ], !dbg !2194

bb2:                                              ; preds = %start
  store i8 4, ptr %_10, align 1, !dbg !2195
  %4 = load i8, ptr %_10, align 1, !dbg !2196, !range !1833, !noundef !27
; call core::sync::atomic::AtomicUsize::compare_and_swap
  %_8 = call i64 @_ZN4core4sync6atomic11AtomicUsize16compare_and_swap17habd881330ff5590aE(ptr align 8 %self, i64 0, i64 1, i8 %4) #9, !dbg !2196
  store i64 %_8, ptr %status, align 8, !dbg !2197
  %_12 = load i64, ptr %status, align 8, !dbg !2198, !noundef !27
  %_11 = icmp eq i64 %_12, 0, !dbg !2198
  br i1 %_11, label %bb4, label %bb10, !dbg !2198

bb4:                                              ; preds = %bb2
  store ptr %self, ptr %finish, align 8, !dbg !2199
  %5 = getelementptr inbounds { ptr, i8 }, ptr %finish, i32 0, i32 1, !dbg !2199
  store i8 1, ptr %5, align 8, !dbg !2199
  store i8 0, ptr %_33, align 1, !dbg !2200
; call core::ops::function::FnOnce::call_once
  call void @_ZN4core3ops8function6FnOnce9call_once17h9e1d580b81369390E(ptr sret(%"spin::mutex::Mutex<keyboard::Keyboard<pc_keyboard::layouts::us104::Us104Key, pc_keyboard::scancodes::set1::ScancodeSet1>>") %_16) #9, !dbg !2200
  %6 = getelementptr inbounds %"core::option::Option<spin::mutex::Mutex<keyboard::Keyboard<pc_keyboard::layouts::us104::Us104Key, pc_keyboard::scancodes::set1::ScancodeSet1>>>::Some", ptr %_15, i32 0, i32 1, !dbg !2201
  call void @llvm.memcpy.p0.p0.i64(ptr align 2 %6, ptr align 2 %_16, i64 18, i1 false), !dbg !2201
  store i16 1, ptr %_15, align 2, !dbg !2201
  %_19 = getelementptr inbounds %"spin::once::Once<spin::mutex::Mutex<keyboard::Keyboard<pc_keyboard::layouts::us104::Us104Key, pc_keyboard::scancodes::set1::ScancodeSet1>>>", ptr %self, i32 0, i32 1, !dbg !2202
  store ptr %_19, ptr %self.dbg.spill.i, align 8
  call void @llvm.dbg.declare(metadata ptr %self.dbg.spill.i, metadata !2203, metadata !DIExpression()), !dbg !2211
  call void @llvm.memcpy.p0.p0.i64(ptr align 2 %_19, ptr align 2 %_15, i64 20, i1 false), !dbg !2213
  %7 = getelementptr inbounds { ptr, i8 }, ptr %finish, i32 0, i32 1, !dbg !2214
  store i8 0, ptr %7, align 8, !dbg !2214
  store i64 2, ptr %status, align 8, !dbg !2215
  %_22 = load i64, ptr %status, align 8, !dbg !2216, !noundef !27
  store i8 4, ptr %_23, align 1, !dbg !2217
  %8 = load i8, ptr %_23, align 1, !dbg !2218, !range !1833, !noundef !27
; call core::sync::atomic::AtomicUsize::store
  call void @_ZN4core4sync6atomic11AtomicUsize5store17h24e8f8d2368c313eE(ptr align 8 %self, i64 %_22, i8 %8) #9, !dbg !2218
; call spin::once::Once<T>::force_get
  %_24 = call align 2 ptr @"_ZN4spin4once13Once$LT$T$GT$9force_get17h330be502a5d90973E"(ptr align 8 %self) #9, !dbg !2219
  store ptr %_24, ptr %0, align 8, !dbg !2219
; call core::ptr::drop_in_place<spin::once::Finish>
  call void @"_ZN4core3ptr39drop_in_place$LT$spin..once..Finish$GT$17hb72e0d33e449956aE"(ptr align 8 %finish) #9, !dbg !2220
  br label %bb19, !dbg !2220

bb19:                                             ; preds = %bb17, %bb4
  %9 = load i8, ptr %_33, align 1, !dbg !2221, !range !995, !noundef !27
  %10 = trunc i8 %9 to i1, !dbg !2221
  br i1 %10, label %bb21, label %bb20, !dbg !2221

bb11:                                             ; preds = %bb10
; call core::hint::unreachable_unchecked
  call void @_ZN4core4hint21unreachable_unchecked17hd1ddb4a5d77fbad7E() #11, !dbg !2222
  unreachable, !dbg !2222

bb12:                                             ; preds = %bb10
; call core::panicking::panic
  call void @_ZN4core9panicking5panic17h38d135543837e8b5E(ptr align 1 @alloc_a500d906b91607583596fa15e63c2ada, i64 40, ptr align 8 @alloc_f6d48a4961f7d5070867936e66a7484e) #11, !dbg !2223
  unreachable, !dbg !2223

bb13:                                             ; preds = %bb10
; call core::sync::atomic::spin_loop_hint
  call void @_ZN4core4sync6atomic14spin_loop_hint17h51b4cbffce9829bdE() #9, !dbg !2224
  store i8 4, ptr %_29, align 1, !dbg !2225
  %11 = load i8, ptr %_29, align 1, !dbg !2226, !range !1833, !noundef !27
; call core::sync::atomic::AtomicUsize::load
  %_27 = call i64 @_ZN4core4sync6atomic11AtomicUsize4load17h139b7c9d24465a6dE(ptr align 8 %self, i8 %11) #9, !dbg !2226
  store i64 %_27, ptr %status, align 8, !dbg !2227
  br label %bb10, !dbg !2228

bb16:                                             ; preds = %bb10
; call core::panicking::panic
  call void @_ZN4core9panicking5panic17h38d135543837e8b5E(ptr align 1 @alloc_b41ce9db6ff9e09c515cee5b4d05db5e, i64 17, ptr align 8 @alloc_14083d05c803f84018d4aa0469014f28) #11, !dbg !2229
  unreachable, !dbg !2229

bb17:                                             ; preds = %bb10
; call spin::once::Once<T>::force_get
  %_31 = call align 2 ptr @"_ZN4spin4once13Once$LT$T$GT$9force_get17h330be502a5d90973E"(ptr align 8 %self) #9, !dbg !2230
  store ptr %_31, ptr %0, align 8, !dbg !2230
  br label %bb19, !dbg !2231

bb20:                                             ; preds = %bb21, %bb19
  %12 = load ptr, ptr %0, align 8, !dbg !2233, !nonnull !27, !align !2001, !noundef !27
  ret ptr %12, !dbg !2233

bb21:                                             ; preds = %bb19
  br label %bb20, !dbg !2221
}

; spin::once::Once<T>::force_get
; Function Attrs: noredzone nounwind
define internal align 2 ptr @"_ZN4spin4once13Once$LT$T$GT$9force_get17h330be502a5d90973E"(ptr align 8 %self) unnamed_addr #1 !dbg !2234 {
start:
  %self.dbg.spill.i = alloca ptr, align 8
  %0 = alloca ptr, align 8
  %self.dbg.spill = alloca ptr, align 8
  %_2 = alloca ptr, align 8
  store ptr %self, ptr %self.dbg.spill, align 8
  call void @llvm.dbg.declare(metadata ptr %self.dbg.spill, metadata !2239, metadata !DIExpression()), !dbg !2242
  %_5 = getelementptr inbounds %"spin::once::Once<spin::mutex::Mutex<keyboard::Keyboard<pc_keyboard::layouts::us104::Us104Key, pc_keyboard::scancodes::set1::ScancodeSet1>>>", ptr %self, i32 0, i32 1, !dbg !2243
  store ptr %_5, ptr %self.dbg.spill.i, align 8
  call void @llvm.dbg.declare(metadata ptr %self.dbg.spill.i, metadata !2203, metadata !DIExpression()), !dbg !2244
; call core::option::Option<T>::as_ref
  %1 = call align 2 ptr @"_ZN4core6option15Option$LT$T$GT$6as_ref17h9eea7ca0ee3049aaE"(ptr align 2 %_5) #9, !dbg !2246
  store ptr %1, ptr %_2, align 8, !dbg !2246
  %2 = load ptr, ptr %_2, align 8, !dbg !2246, !noundef !27
  %3 = ptrtoint ptr %2 to i64, !dbg !2246
  %4 = icmp eq i64 %3, 0, !dbg !2246
  %_6 = select i1 %4, i64 0, i64 1, !dbg !2246
  %5 = icmp eq i64 %_6, 0, !dbg !2247
  br i1 %5, label %bb5, label %bb3, !dbg !2247

bb5:                                              ; preds = %start
; call core::hint::unreachable_unchecked
  call void @_ZN4core4hint21unreachable_unchecked17hd1ddb4a5d77fbad7E() #11, !dbg !2248
  unreachable, !dbg !2248

bb3:                                              ; preds = %start
  %6 = load ptr, ptr %_2, align 8, !dbg !2249, !nonnull !27, !align !2001, !noundef !27
  store ptr %6, ptr %0, align 8, !dbg !2249
  call void @llvm.dbg.declare(metadata ptr %0, metadata !2240, metadata !DIExpression()), !dbg !2250
  ret ptr %6, !dbg !2251

bb4:                                              ; No predecessors!
  unreachable, !dbg !2246
}

; spin::once::Once<T>::force_get
; Function Attrs: noredzone nounwind
define internal align 16 ptr @"_ZN4spin4once13Once$LT$T$GT$9force_get17h4655bbfdc5ab5cb5E"(ptr align 16 %self) unnamed_addr #1 !dbg !2252 {
start:
  %self.dbg.spill.i = alloca ptr, align 8
  %0 = alloca ptr, align 8
  %self.dbg.spill = alloca ptr, align 8
  %_2 = alloca ptr, align 8
  store ptr %self, ptr %self.dbg.spill, align 8
  call void @llvm.dbg.declare(metadata ptr %self.dbg.spill, metadata !2257, metadata !DIExpression()), !dbg !2260
  store ptr %self, ptr %self.dbg.spill.i, align 8
  call void @llvm.dbg.declare(metadata ptr %self.dbg.spill.i, metadata !2078, metadata !DIExpression()), !dbg !2261
; call core::option::Option<T>::as_ref
  %1 = call align 16 ptr @"_ZN4core6option15Option$LT$T$GT$6as_ref17heb967fbe562534a4E"(ptr align 16 %self) #9, !dbg !2263
  store ptr %1, ptr %_2, align 8, !dbg !2263
  %2 = load ptr, ptr %_2, align 8, !dbg !2263, !noundef !27
  %3 = ptrtoint ptr %2 to i64, !dbg !2263
  %4 = icmp eq i64 %3, 0, !dbg !2263
  %_6 = select i1 %4, i64 0, i64 1, !dbg !2263
  %5 = icmp eq i64 %_6, 0, !dbg !2264
  br i1 %5, label %bb5, label %bb3, !dbg !2264

bb5:                                              ; preds = %start
; call core::hint::unreachable_unchecked
  call void @_ZN4core4hint21unreachable_unchecked17hd1ddb4a5d77fbad7E() #11, !dbg !2265
  unreachable, !dbg !2265

bb3:                                              ; preds = %start
  %6 = load ptr, ptr %_2, align 8, !dbg !2266, !nonnull !27, !align !2034, !noundef !27
  store ptr %6, ptr %0, align 8, !dbg !2266
  call void @llvm.dbg.declare(metadata ptr %0, metadata !2258, metadata !DIExpression()), !dbg !2267
  ret ptr %6, !dbg !2268

bb4:                                              ; No predecessors!
  unreachable, !dbg !2263
}

; spin::once::Once<T>::force_get
; Function Attrs: noredzone nounwind
define internal align 8 ptr @"_ZN4spin4once13Once$LT$T$GT$9force_get17h7d54e5b6270f6322E"(ptr align 8 %self) unnamed_addr #1 !dbg !2269 {
start:
  %self.dbg.spill.i = alloca ptr, align 8
  %0 = alloca ptr, align 8
  %self.dbg.spill = alloca ptr, align 8
  %_2 = alloca ptr, align 8
  store ptr %self, ptr %self.dbg.spill, align 8
  call void @llvm.dbg.declare(metadata ptr %self.dbg.spill, metadata !2274, metadata !DIExpression()), !dbg !2277
  %_5 = getelementptr inbounds %"spin::once::Once<spin::mutex::Mutex<vga::Screen>>", ptr %self, i32 0, i32 1, !dbg !2278
  store ptr %_5, ptr %self.dbg.spill.i, align 8
  call void @llvm.dbg.declare(metadata ptr %self.dbg.spill.i, metadata !2141, metadata !DIExpression()), !dbg !2279
; call core::option::Option<T>::as_ref
  %1 = call align 8 ptr @"_ZN4core6option15Option$LT$T$GT$6as_ref17h6a458606e0e23b5dE"(ptr align 8 %_5) #9, !dbg !2281
  store ptr %1, ptr %_2, align 8, !dbg !2281
  %2 = load ptr, ptr %_2, align 8, !dbg !2281, !noundef !27
  %3 = ptrtoint ptr %2 to i64, !dbg !2281
  %4 = icmp eq i64 %3, 0, !dbg !2281
  %_6 = select i1 %4, i64 0, i64 1, !dbg !2281
  %5 = icmp eq i64 %_6, 0, !dbg !2282
  br i1 %5, label %bb5, label %bb3, !dbg !2282

bb5:                                              ; preds = %start
; call core::hint::unreachable_unchecked
  call void @_ZN4core4hint21unreachable_unchecked17hd1ddb4a5d77fbad7E() #11, !dbg !2283
  unreachable, !dbg !2283

bb3:                                              ; preds = %start
  %6 = load ptr, ptr %_2, align 8, !dbg !2284, !nonnull !27, !align !1212, !noundef !27
  store ptr %6, ptr %0, align 8, !dbg !2284
  call void @llvm.dbg.declare(metadata ptr %0, metadata !2275, metadata !DIExpression()), !dbg !2285
  ret ptr %6, !dbg !2286

bb4:                                              ; No predecessors!
  unreachable, !dbg !2281
}

; <&mut W as core::fmt::Write>::write_char
; Function Attrs: noredzone nounwind
define internal zeroext i1 @"_ZN50_$LT$$RF$mut$u20$W$u20$as$u20$core..fmt..Write$GT$10write_char17hdbbcb729ae326223E"(ptr align 8 %self, i32 %c) unnamed_addr #1 !dbg !2287 {
start:
  %c.dbg.spill = alloca i32, align 4
  %self.dbg.spill = alloca ptr, align 8
  store ptr %self, ptr %self.dbg.spill, align 8
  call void @llvm.dbg.declare(metadata ptr %self.dbg.spill, metadata !2293, metadata !DIExpression()), !dbg !2297
  store i32 %c, ptr %c.dbg.spill, align 4
  call void @llvm.dbg.declare(metadata ptr %c.dbg.spill, metadata !2294, metadata !DIExpression()), !dbg !2298
  %_3 = load ptr, ptr %self, align 8, !dbg !2299, !nonnull !27, !align !1212, !noundef !27
; call core::fmt::Write::write_char
  %0 = call zeroext i1 @_ZN4core3fmt5Write10write_char17hc1b9676f0c276004E(ptr align 8 %_3, i32 %c) #9, !dbg !2299
  ret i1 %0, !dbg !2300
}

; <&mut W as core::fmt::Write>::write_fmt
; Function Attrs: noredzone nounwind
define internal zeroext i1 @"_ZN50_$LT$$RF$mut$u20$W$u20$as$u20$core..fmt..Write$GT$9write_fmt17ha7e1637656d81252E"(ptr align 8 %self, ptr %args) unnamed_addr #1 !dbg !2301 {
start:
  %0 = alloca %"core::fmt::Arguments<'_>", align 8
  %self.dbg.spill = alloca ptr, align 8
  store ptr %self, ptr %self.dbg.spill, align 8
  call void @llvm.dbg.declare(metadata ptr %self.dbg.spill, metadata !2305, metadata !DIExpression()), !dbg !2307
  call void @llvm.dbg.declare(metadata ptr %args, metadata !2306, metadata !DIExpression()), !dbg !2308
  %_3 = load ptr, ptr %self, align 8, !dbg !2309, !nonnull !27, !align !1212, !noundef !27
  call void @llvm.memcpy.p0.p0.i64(ptr align 8 %0, ptr align 8 %args, i64 48, i1 false), !dbg !2309
; call core::fmt::Write::write_fmt
  %1 = call zeroext i1 @_ZN4core3fmt5Write9write_fmt17hee3a4239f78a983eE(ptr align 8 %_3, ptr %0) #9, !dbg !2309
  ret i1 %1, !dbg !2310
}

; <&mut W as core::fmt::Write>::write_str
; Function Attrs: noredzone nounwind
define internal zeroext i1 @"_ZN50_$LT$$RF$mut$u20$W$u20$as$u20$core..fmt..Write$GT$9write_str17h063df32f07e30353E"(ptr align 8 %self, ptr align 1 %s.0, i64 %s.1) unnamed_addr #1 !dbg !2311 {
start:
  %s.dbg.spill = alloca { ptr, i64 }, align 8
  %self.dbg.spill = alloca ptr, align 8
  store ptr %self, ptr %self.dbg.spill, align 8
  call void @llvm.dbg.declare(metadata ptr %self.dbg.spill, metadata !2315, metadata !DIExpression()), !dbg !2317
  %0 = getelementptr inbounds { ptr, i64 }, ptr %s.dbg.spill, i32 0, i32 0
  store ptr %s.0, ptr %0, align 8
  %1 = getelementptr inbounds { ptr, i64 }, ptr %s.dbg.spill, i32 0, i32 1
  store i64 %s.1, ptr %1, align 8
  call void @llvm.dbg.declare(metadata ptr %s.dbg.spill, metadata !2316, metadata !DIExpression()), !dbg !2318
  %_3 = load ptr, ptr %self, align 8, !dbg !2319, !nonnull !27, !align !1212, !noundef !27
; call <vga::Screen as core::fmt::Write>::write_str
  %2 = call zeroext i1 @"_ZN48_$LT$vga..Screen$u20$as$u20$core..fmt..Write$GT$9write_str17h2fa52469e35aa944E"(ptr align 8 %_3, ptr align 1 %s.0, i64 %s.1) #9, !dbg !2319
  ret i1 %2, !dbg !2320
}

; x86_64::structures::idt::Entry<extern "x86.interrupt" fn(x86_64::structures::idt::InterruptStackFrame)>::set_handler_fn
; Function Attrs: inlinehint noredzone nounwind
define internal align 2 ptr @"_ZN6x86_6410structures3idt106Entry$LT$extern$u20$$u22$x86.interrupt$u22$$u20$fn$LP$x86_64..structures..idt..InterruptStackFrame$RP$$GT$14set_handler_fn17hf0a178ab64739b90E"(ptr align 4 %self, ptr %handler) unnamed_addr #0 !dbg !2321 {
start:
  %handler.dbg.spill2 = alloca i64, align 8
  %handler.dbg.spill = alloca ptr, align 8
  %self.dbg.spill = alloca ptr, align 8
  store ptr %self, ptr %self.dbg.spill, align 8
  call void @llvm.dbg.declare(metadata ptr %self.dbg.spill, metadata !2327, metadata !DIExpression()), !dbg !2331
  store ptr %handler, ptr %handler.dbg.spill, align 8
  call void @llvm.dbg.declare(metadata ptr %handler.dbg.spill, metadata !2328, metadata !DIExpression()), !dbg !2332
  %_4 = ptrtoint ptr %handler to i64, !dbg !2333
; call x86_64::addr::VirtAddr::new
  %handler1 = call i64 @_ZN6x86_644addr8VirtAddr3new17h6523894c559aae8bE(i64 %_4) #9, !dbg !2334
  store i64 %handler1, ptr %handler.dbg.spill2, align 8, !dbg !2334
  call void @llvm.dbg.declare(metadata ptr %handler.dbg.spill2, metadata !2329, metadata !DIExpression()), !dbg !2335
; call x86_64::structures::idt::Entry<F>::set_handler_addr
  %_5 = call align 2 ptr @"_ZN6x86_6410structures3idt14Entry$LT$F$GT$16set_handler_addr17h29f3cb913659f9deE"(ptr align 4 %self, i64 %handler1) #9, !dbg !2336
  ret ptr %_5, !dbg !2337
}

; x86_64::structures::idt::EntryOptions::set_present
; Function Attrs: inlinehint noredzone nounwind
define internal align 2 ptr @_ZN6x86_6410structures3idt12EntryOptions11set_present17h02215fa74c3fa2c5E(ptr align 2 %self, i1 zeroext %present) unnamed_addr #0 !dbg !2338 {
start:
  %present.dbg.spill = alloca i8, align 1
  %self.dbg.spill = alloca ptr, align 8
  store ptr %self, ptr %self.dbg.spill, align 8
  call void @llvm.dbg.declare(metadata ptr %self.dbg.spill, metadata !2343, metadata !DIExpression()), !dbg !2345
  %0 = zext i1 %present to i8
  store i8 %0, ptr %present.dbg.spill, align 1
  call void @llvm.dbg.declare(metadata ptr %present.dbg.spill, metadata !2344, metadata !DIExpression()), !dbg !2346
; call <u16 as bit_field::BitField>::set_bit
  %_3 = call align 2 ptr @"_ZN43_$LT$u16$u20$as$u20$bit_field..BitField$GT$7set_bit17hda3727c03bb3e4cdE"(ptr align 2 %self, i64 15, i1 zeroext %present) #9, !dbg !2347
  ret ptr %self, !dbg !2348
}

; x86_64::structures::idt::EntryOptions::set_stack_index
; Function Attrs: inlinehint noredzone nounwind
define internal align 2 ptr @_ZN6x86_6410structures3idt12EntryOptions15set_stack_index17h27b59b72064ccdb4E(ptr align 2 %self, i16 %index) unnamed_addr #0 !dbg !2349 {
start:
  %index.dbg.spill = alloca i16, align 2
  %self.dbg.spill = alloca ptr, align 8
  %_5 = alloca { i64, i64 }, align 8
  store ptr %self, ptr %self.dbg.spill, align 8
  call void @llvm.dbg.declare(metadata ptr %self.dbg.spill, metadata !2354, metadata !DIExpression()), !dbg !2356
  store i16 %index, ptr %index.dbg.spill, align 2
  call void @llvm.dbg.declare(metadata ptr %index.dbg.spill, metadata !2355, metadata !DIExpression()), !dbg !2357
  store i64 0, ptr %_5, align 8, !dbg !2358
  %0 = getelementptr inbounds { i64, i64 }, ptr %_5, i32 0, i32 1, !dbg !2358
  store i64 3, ptr %0, align 8, !dbg !2358
  %1 = call { i16, i1 } @llvm.uadd.with.overflow.i16(i16 %index, i16 1), !dbg !2359
  %_7.0 = extractvalue { i16, i1 } %1, 0, !dbg !2359
  %_7.1 = extractvalue { i16, i1 } %1, 1, !dbg !2359
  %2 = call i1 @llvm.expect.i1(i1 %_7.1, i1 false), !dbg !2359
  br i1 %2, label %panic, label %bb1, !dbg !2359

bb1:                                              ; preds = %start
  %3 = getelementptr inbounds { i64, i64 }, ptr %_5, i32 0, i32 0, !dbg !2360
  %4 = load i64, ptr %3, align 8, !dbg !2360, !noundef !27
  %5 = getelementptr inbounds { i64, i64 }, ptr %_5, i32 0, i32 1, !dbg !2360
  %6 = load i64, ptr %5, align 8, !dbg !2360, !noundef !27
; call <u16 as bit_field::BitField>::set_bits
  %_3 = call align 2 ptr @"_ZN43_$LT$u16$u20$as$u20$bit_field..BitField$GT$8set_bits17h0d4d028659531394E"(ptr align 2 %self, i64 %4, i64 %6, i16 %_7.0) #9, !dbg !2360
  ret ptr %self, !dbg !2361

panic:                                            ; preds = %start
; call core::panicking::panic
  call void @_ZN4core9panicking5panic17h38d135543837e8b5E(ptr align 1 @str.3, i64 28, ptr align 8 @alloc_684261e5bc5404f7dd08c17341b2175a) #11, !dbg !2359
  unreachable, !dbg !2359
}

; x86_64::structures::idt::Entry<extern "x86.interrupt" fn(x86_64::structures::idt::InterruptStackFrame,u64) .> !>::set_handler_fn
; Function Attrs: inlinehint noredzone nounwind
define internal align 2 ptr @"_ZN6x86_6410structures3idt132Entry$LT$extern$u20$$u22$x86.interrupt$u22$$u20$fn$LP$x86_64..structures..idt..InterruptStackFrame$C$u64$RP$$u20$.$GT$$u20$$u21$$GT$14set_handler_fn17h4f8016e06ab12403E"(ptr align 4 %self, ptr %handler) unnamed_addr #0 !dbg !2362 {
start:
  %handler.dbg.spill2 = alloca i64, align 8
  %handler.dbg.spill = alloca ptr, align 8
  %self.dbg.spill = alloca ptr, align 8
  store ptr %self, ptr %self.dbg.spill, align 8
  call void @llvm.dbg.declare(metadata ptr %self.dbg.spill, metadata !2368, metadata !DIExpression()), !dbg !2372
  store ptr %handler, ptr %handler.dbg.spill, align 8
  call void @llvm.dbg.declare(metadata ptr %handler.dbg.spill, metadata !2369, metadata !DIExpression()), !dbg !2373
  %_4 = ptrtoint ptr %handler to i64, !dbg !2374
; call x86_64::addr::VirtAddr::new
  %handler1 = call i64 @_ZN6x86_644addr8VirtAddr3new17h6523894c559aae8bE(i64 %_4) #9, !dbg !2375
  store i64 %handler1, ptr %handler.dbg.spill2, align 8, !dbg !2375
  call void @llvm.dbg.declare(metadata ptr %handler.dbg.spill2, metadata !2370, metadata !DIExpression()), !dbg !2376
; call x86_64::structures::idt::Entry<F>::set_handler_addr
  %_5 = call align 2 ptr @"_ZN6x86_6410structures3idt14Entry$LT$F$GT$16set_handler_addr17h9797ba3a905ddb40E"(ptr align 4 %self, i64 %handler1) #9, !dbg !2377
  ret ptr %_5, !dbg !2378
}

; x86_64::structures::idt::Entry<F>::set_handler_addr
; Function Attrs: inlinehint noredzone nounwind
define internal align 2 ptr @"_ZN6x86_6410structures3idt14Entry$LT$F$GT$16set_handler_addr17h29f3cb913659f9deE"(ptr align 4 %self, i64 %addr) unnamed_addr #0 !dbg !2379 {
start:
  %addr.dbg.spill2 = alloca i64, align 8
  %addr.dbg.spill = alloca i64, align 8
  %self.dbg.spill = alloca ptr, align 8
  store ptr %self, ptr %self.dbg.spill, align 8
  call void @llvm.dbg.declare(metadata ptr %self.dbg.spill, metadata !2384, metadata !DIExpression()), !dbg !2388
  store i64 %addr, ptr %addr.dbg.spill, align 8
  call void @llvm.dbg.declare(metadata ptr %addr.dbg.spill, metadata !2385, metadata !DIExpression()), !dbg !2389
; call x86_64::addr::VirtAddr::as_u64
  %addr1 = call i64 @_ZN6x86_644addr8VirtAddr6as_u6417hf1268854990d5471E(i64 %addr) #9, !dbg !2390
  store i64 %addr1, ptr %addr.dbg.spill2, align 8, !dbg !2390
  call void @llvm.dbg.declare(metadata ptr %addr.dbg.spill2, metadata !2386, metadata !DIExpression()), !dbg !2391
  %0 = trunc i64 %addr1 to i16, !dbg !2392
  store i16 %0, ptr %self, align 4, !dbg !2392
  %_5 = lshr i64 %addr1, 16, !dbg !2393
  %1 = getelementptr inbounds %"x86_64::structures::idt::Entry<extern \22x86-interrupt\22 fn(x86_64::structures::idt::InterruptStackFrame)>", ptr %self, i32 0, i32 3, !dbg !2394
  %2 = trunc i64 %_5 to i16, !dbg !2394
  store i16 %2, ptr %1, align 2, !dbg !2394
  %_9 = lshr i64 %addr1, 32, !dbg !2395
  %3 = getelementptr inbounds %"x86_64::structures::idt::Entry<extern \22x86-interrupt\22 fn(x86_64::structures::idt::InterruptStackFrame)>", ptr %self, i32 0, i32 4, !dbg !2396
  %4 = trunc i64 %_9 to i32, !dbg !2396
  store i32 %4, ptr %3, align 4, !dbg !2396
; call x86_64::instructions::segmentation::<impl x86_64::registers::segmentation::Segment for x86_64::registers::segmentation::CS>::get_reg
  %_14 = call i16 @"_ZN6x86_6412instructions12segmentation106_$LT$impl$u20$x86_64..registers..segmentation..Segment$u20$for$u20$x86_64..registers..segmentation..CS$GT$7get_reg17h1d8ce9ab516fc03aE"() #9, !dbg !2397
  %5 = getelementptr inbounds %"x86_64::structures::idt::Entry<extern \22x86-interrupt\22 fn(x86_64::structures::idt::InterruptStackFrame)>", ptr %self, i32 0, i32 1, !dbg !2398
  store i16 %_14, ptr %5, align 2, !dbg !2398
  %_16 = getelementptr inbounds %"x86_64::structures::idt::Entry<extern \22x86-interrupt\22 fn(x86_64::structures::idt::InterruptStackFrame)>", ptr %self, i32 0, i32 2, !dbg !2399
; call x86_64::structures::idt::EntryOptions::set_present
  %_15 = call align 2 ptr @_ZN6x86_6410structures3idt12EntryOptions11set_present17h02215fa74c3fa2c5E(ptr align 2 %_16, i1 zeroext true) #9, !dbg !2399
  %6 = getelementptr inbounds %"x86_64::structures::idt::Entry<extern \22x86-interrupt\22 fn(x86_64::structures::idt::InterruptStackFrame)>", ptr %self, i32 0, i32 2, !dbg !2400
  ret ptr %6, !dbg !2401
}

; x86_64::structures::idt::InterruptDescriptorTable::new
; Function Attrs: inlinehint noredzone nounwind
define internal void @_ZN6x86_6410structures3idt24InterruptDescriptorTable3new17h8fb10a91cbe2dce4E(ptr sret(%"x86_64::structures::idt::InterruptDescriptorTable") %0) unnamed_addr #0 !dbg !2402 {
start:
  %_28 = alloca %"x86_64::structures::idt::Entry<extern \22x86-interrupt\22 fn(x86_64::structures::idt::InterruptStackFrame)>", align 4
  %_27 = alloca [224 x %"x86_64::structures::idt::Entry<extern \22x86-interrupt\22 fn(x86_64::structures::idt::InterruptStackFrame)>"], align 4
  %_26 = alloca %"x86_64::structures::idt::Entry<extern \22x86-interrupt\22 fn(x86_64::structures::idt::InterruptStackFrame)>", align 4
  %_25 = alloca %"x86_64::structures::idt::Entry<extern \22x86-interrupt\22 fn(x86_64::structures::idt::InterruptStackFrame, u64)>", align 4
  %_24 = alloca %"x86_64::structures::idt::Entry<extern \22x86-interrupt\22 fn(x86_64::structures::idt::InterruptStackFrame, u64)>", align 4
  %_23 = alloca %"x86_64::structures::idt::Entry<extern \22x86-interrupt\22 fn(x86_64::structures::idt::InterruptStackFrame)>", align 4
  %_22 = alloca [8 x %"x86_64::structures::idt::Entry<extern \22x86-interrupt\22 fn(x86_64::structures::idt::InterruptStackFrame)>"], align 4
  %_21 = alloca %"x86_64::structures::idt::Entry<extern \22x86-interrupt\22 fn(x86_64::structures::idt::InterruptStackFrame)>", align 4
  %_20 = alloca %"x86_64::structures::idt::Entry<extern \22x86-interrupt\22 fn(x86_64::structures::idt::InterruptStackFrame)>", align 4
  %_19 = alloca %"x86_64::structures::idt::Entry<extern \22x86-interrupt\22 fn(x86_64::structures::idt::InterruptStackFrame) -> !>", align 4
  %_18 = alloca %"x86_64::structures::idt::Entry<extern \22x86-interrupt\22 fn(x86_64::structures::idt::InterruptStackFrame, u64)>", align 4
  %_17 = alloca %"x86_64::structures::idt::Entry<extern \22x86-interrupt\22 fn(x86_64::structures::idt::InterruptStackFrame)>", align 4
  %_16 = alloca %"x86_64::structures::idt::Entry<extern \22x86-interrupt\22 fn(x86_64::structures::idt::InterruptStackFrame)>", align 4
  %_15 = alloca %"x86_64::structures::idt::Entry<extern \22x86-interrupt\22 fn(x86_64::structures::idt::InterruptStackFrame, x86_64::structures::idt::PageFaultErrorCode)>", align 4
  %_14 = alloca %"x86_64::structures::idt::Entry<extern \22x86-interrupt\22 fn(x86_64::structures::idt::InterruptStackFrame, u64)>", align 4
  %_13 = alloca %"x86_64::structures::idt::Entry<extern \22x86-interrupt\22 fn(x86_64::structures::idt::InterruptStackFrame, u64)>", align 4
  %_12 = alloca %"x86_64::structures::idt::Entry<extern \22x86-interrupt\22 fn(x86_64::structures::idt::InterruptStackFrame, u64)>", align 4
  %_11 = alloca %"x86_64::structures::idt::Entry<extern \22x86-interrupt\22 fn(x86_64::structures::idt::InterruptStackFrame, u64)>", align 4
  %_10 = alloca %"x86_64::structures::idt::Entry<extern \22x86-interrupt\22 fn(x86_64::structures::idt::InterruptStackFrame)>", align 4
  %_9 = alloca %"x86_64::structures::idt::Entry<extern \22x86-interrupt\22 fn(x86_64::structures::idt::InterruptStackFrame, u64) -> !>", align 4
  %_8 = alloca %"x86_64::structures::idt::Entry<extern \22x86-interrupt\22 fn(x86_64::structures::idt::InterruptStackFrame)>", align 4
  %_7 = alloca %"x86_64::structures::idt::Entry<extern \22x86-interrupt\22 fn(x86_64::structures::idt::InterruptStackFrame)>", align 4
  %_6 = alloca %"x86_64::structures::idt::Entry<extern \22x86-interrupt\22 fn(x86_64::structures::idt::InterruptStackFrame)>", align 4
  %_5 = alloca %"x86_64::structures::idt::Entry<extern \22x86-interrupt\22 fn(x86_64::structures::idt::InterruptStackFrame)>", align 4
  %_4 = alloca %"x86_64::structures::idt::Entry<extern \22x86-interrupt\22 fn(x86_64::structures::idt::InterruptStackFrame)>", align 4
  %_3 = alloca %"x86_64::structures::idt::Entry<extern \22x86-interrupt\22 fn(x86_64::structures::idt::InterruptStackFrame)>", align 4
  %_2 = alloca %"x86_64::structures::idt::Entry<extern \22x86-interrupt\22 fn(x86_64::structures::idt::InterruptStackFrame)>", align 4
  %_1 = alloca %"x86_64::structures::idt::Entry<extern \22x86-interrupt\22 fn(x86_64::structures::idt::InterruptStackFrame)>", align 4
; call x86_64::structures::idt::Entry<F>::missing
  call void @"_ZN6x86_6410structures3idt14Entry$LT$F$GT$7missing17hfd0be6b665bf1f04E"(ptr sret(%"x86_64::structures::idt::Entry<extern \22x86-interrupt\22 fn(x86_64::structures::idt::InterruptStackFrame)>") %_1) #9, !dbg !2406
; call x86_64::structures::idt::Entry<F>::missing
  call void @"_ZN6x86_6410structures3idt14Entry$LT$F$GT$7missing17hfd0be6b665bf1f04E"(ptr sret(%"x86_64::structures::idt::Entry<extern \22x86-interrupt\22 fn(x86_64::structures::idt::InterruptStackFrame)>") %_2) #9, !dbg !2407
; call x86_64::structures::idt::Entry<F>::missing
  call void @"_ZN6x86_6410structures3idt14Entry$LT$F$GT$7missing17hfd0be6b665bf1f04E"(ptr sret(%"x86_64::structures::idt::Entry<extern \22x86-interrupt\22 fn(x86_64::structures::idt::InterruptStackFrame)>") %_3) #9, !dbg !2408
; call x86_64::structures::idt::Entry<F>::missing
  call void @"_ZN6x86_6410structures3idt14Entry$LT$F$GT$7missing17hfd0be6b665bf1f04E"(ptr sret(%"x86_64::structures::idt::Entry<extern \22x86-interrupt\22 fn(x86_64::structures::idt::InterruptStackFrame)>") %_4) #9, !dbg !2409
; call x86_64::structures::idt::Entry<F>::missing
  call void @"_ZN6x86_6410structures3idt14Entry$LT$F$GT$7missing17hfd0be6b665bf1f04E"(ptr sret(%"x86_64::structures::idt::Entry<extern \22x86-interrupt\22 fn(x86_64::structures::idt::InterruptStackFrame)>") %_5) #9, !dbg !2410
; call x86_64::structures::idt::Entry<F>::missing
  call void @"_ZN6x86_6410structures3idt14Entry$LT$F$GT$7missing17hfd0be6b665bf1f04E"(ptr sret(%"x86_64::structures::idt::Entry<extern \22x86-interrupt\22 fn(x86_64::structures::idt::InterruptStackFrame)>") %_6) #9, !dbg !2411
; call x86_64::structures::idt::Entry<F>::missing
  call void @"_ZN6x86_6410structures3idt14Entry$LT$F$GT$7missing17hfd0be6b665bf1f04E"(ptr sret(%"x86_64::structures::idt::Entry<extern \22x86-interrupt\22 fn(x86_64::structures::idt::InterruptStackFrame)>") %_7) #9, !dbg !2412
; call x86_64::structures::idt::Entry<F>::missing
  call void @"_ZN6x86_6410structures3idt14Entry$LT$F$GT$7missing17hfd0be6b665bf1f04E"(ptr sret(%"x86_64::structures::idt::Entry<extern \22x86-interrupt\22 fn(x86_64::structures::idt::InterruptStackFrame)>") %_8) #9, !dbg !2413
; call x86_64::structures::idt::Entry<F>::missing
  call void @"_ZN6x86_6410structures3idt14Entry$LT$F$GT$7missing17h00b42c134fa8d2d9E"(ptr sret(%"x86_64::structures::idt::Entry<extern \22x86-interrupt\22 fn(x86_64::structures::idt::InterruptStackFrame, u64) -> !>") %_9) #9, !dbg !2414
; call x86_64::structures::idt::Entry<F>::missing
  call void @"_ZN6x86_6410structures3idt14Entry$LT$F$GT$7missing17hfd0be6b665bf1f04E"(ptr sret(%"x86_64::structures::idt::Entry<extern \22x86-interrupt\22 fn(x86_64::structures::idt::InterruptStackFrame)>") %_10) #9, !dbg !2415
; call x86_64::structures::idt::Entry<F>::missing
  call void @"_ZN6x86_6410structures3idt14Entry$LT$F$GT$7missing17h4429ea0c33071a66E"(ptr sret(%"x86_64::structures::idt::Entry<extern \22x86-interrupt\22 fn(x86_64::structures::idt::InterruptStackFrame, u64)>") %_11) #9, !dbg !2416
; call x86_64::structures::idt::Entry<F>::missing
  call void @"_ZN6x86_6410structures3idt14Entry$LT$F$GT$7missing17h4429ea0c33071a66E"(ptr sret(%"x86_64::structures::idt::Entry<extern \22x86-interrupt\22 fn(x86_64::structures::idt::InterruptStackFrame, u64)>") %_12) #9, !dbg !2417
; call x86_64::structures::idt::Entry<F>::missing
  call void @"_ZN6x86_6410structures3idt14Entry$LT$F$GT$7missing17h4429ea0c33071a66E"(ptr sret(%"x86_64::structures::idt::Entry<extern \22x86-interrupt\22 fn(x86_64::structures::idt::InterruptStackFrame, u64)>") %_13) #9, !dbg !2418
; call x86_64::structures::idt::Entry<F>::missing
  call void @"_ZN6x86_6410structures3idt14Entry$LT$F$GT$7missing17h4429ea0c33071a66E"(ptr sret(%"x86_64::structures::idt::Entry<extern \22x86-interrupt\22 fn(x86_64::structures::idt::InterruptStackFrame, u64)>") %_14) #9, !dbg !2419
; call x86_64::structures::idt::Entry<F>::missing
  call void @"_ZN6x86_6410structures3idt14Entry$LT$F$GT$7missing17h7c37c3d8c4ba3f31E"(ptr sret(%"x86_64::structures::idt::Entry<extern \22x86-interrupt\22 fn(x86_64::structures::idt::InterruptStackFrame, x86_64::structures::idt::PageFaultErrorCode)>") %_15) #9, !dbg !2420
; call x86_64::structures::idt::Entry<F>::missing
  call void @"_ZN6x86_6410structures3idt14Entry$LT$F$GT$7missing17hfd0be6b665bf1f04E"(ptr sret(%"x86_64::structures::idt::Entry<extern \22x86-interrupt\22 fn(x86_64::structures::idt::InterruptStackFrame)>") %_16) #9, !dbg !2421
; call x86_64::structures::idt::Entry<F>::missing
  call void @"_ZN6x86_6410structures3idt14Entry$LT$F$GT$7missing17hfd0be6b665bf1f04E"(ptr sret(%"x86_64::structures::idt::Entry<extern \22x86-interrupt\22 fn(x86_64::structures::idt::InterruptStackFrame)>") %_17) #9, !dbg !2422
; call x86_64::structures::idt::Entry<F>::missing
  call void @"_ZN6x86_6410structures3idt14Entry$LT$F$GT$7missing17h4429ea0c33071a66E"(ptr sret(%"x86_64::structures::idt::Entry<extern \22x86-interrupt\22 fn(x86_64::structures::idt::InterruptStackFrame, u64)>") %_18) #9, !dbg !2423
; call x86_64::structures::idt::Entry<F>::missing
  call void @"_ZN6x86_6410structures3idt14Entry$LT$F$GT$7missing17hdce38313637a5b12E"(ptr sret(%"x86_64::structures::idt::Entry<extern \22x86-interrupt\22 fn(x86_64::structures::idt::InterruptStackFrame) -> !>") %_19) #9, !dbg !2424
; call x86_64::structures::idt::Entry<F>::missing
  call void @"_ZN6x86_6410structures3idt14Entry$LT$F$GT$7missing17hfd0be6b665bf1f04E"(ptr sret(%"x86_64::structures::idt::Entry<extern \22x86-interrupt\22 fn(x86_64::structures::idt::InterruptStackFrame)>") %_20) #9, !dbg !2425
; call x86_64::structures::idt::Entry<F>::missing
  call void @"_ZN6x86_6410structures3idt14Entry$LT$F$GT$7missing17hfd0be6b665bf1f04E"(ptr sret(%"x86_64::structures::idt::Entry<extern \22x86-interrupt\22 fn(x86_64::structures::idt::InterruptStackFrame)>") %_21) #9, !dbg !2426
; call x86_64::structures::idt::Entry<F>::missing
  call void @"_ZN6x86_6410structures3idt14Entry$LT$F$GT$7missing17hfd0be6b665bf1f04E"(ptr sret(%"x86_64::structures::idt::Entry<extern \22x86-interrupt\22 fn(x86_64::structures::idt::InterruptStackFrame)>") %_23) #9, !dbg !2427
  %1 = getelementptr inbounds [8 x %"x86_64::structures::idt::Entry<extern \22x86-interrupt\22 fn(x86_64::structures::idt::InterruptStackFrame)>"], ptr %_22, i64 0, i64 0, !dbg !2428
  %2 = getelementptr inbounds [8 x %"x86_64::structures::idt::Entry<extern \22x86-interrupt\22 fn(x86_64::structures::idt::InterruptStackFrame)>"], ptr %_22, i64 0, i64 8, !dbg !2428
  br label %repeat_loop_header, !dbg !2428

repeat_loop_header:                               ; preds = %repeat_loop_body, %start
  %3 = phi ptr [ %1, %start ], [ %5, %repeat_loop_body ]
  %4 = icmp ne ptr %3, %2
  br i1 %4, label %repeat_loop_body, label %repeat_loop_next

repeat_loop_body:                                 ; preds = %repeat_loop_header
  call void @llvm.memcpy.p0.p0.i64(ptr align 4 %3, ptr align 4 %_23, i64 16, i1 false)
  %5 = getelementptr inbounds %"x86_64::structures::idt::Entry<extern \22x86-interrupt\22 fn(x86_64::structures::idt::InterruptStackFrame)>", ptr %3, i64 1
  br label %repeat_loop_header

repeat_loop_next:                                 ; preds = %repeat_loop_header
; call x86_64::structures::idt::Entry<F>::missing
  call void @"_ZN6x86_6410structures3idt14Entry$LT$F$GT$7missing17h4429ea0c33071a66E"(ptr sret(%"x86_64::structures::idt::Entry<extern \22x86-interrupt\22 fn(x86_64::structures::idt::InterruptStackFrame, u64)>") %_24) #9, !dbg !2429
; call x86_64::structures::idt::Entry<F>::missing
  call void @"_ZN6x86_6410structures3idt14Entry$LT$F$GT$7missing17h4429ea0c33071a66E"(ptr sret(%"x86_64::structures::idt::Entry<extern \22x86-interrupt\22 fn(x86_64::structures::idt::InterruptStackFrame, u64)>") %_25) #9, !dbg !2430
; call x86_64::structures::idt::Entry<F>::missing
  call void @"_ZN6x86_6410structures3idt14Entry$LT$F$GT$7missing17hfd0be6b665bf1f04E"(ptr sret(%"x86_64::structures::idt::Entry<extern \22x86-interrupt\22 fn(x86_64::structures::idt::InterruptStackFrame)>") %_26) #9, !dbg !2431
; call x86_64::structures::idt::Entry<F>::missing
  call void @"_ZN6x86_6410structures3idt14Entry$LT$F$GT$7missing17hfd0be6b665bf1f04E"(ptr sret(%"x86_64::structures::idt::Entry<extern \22x86-interrupt\22 fn(x86_64::structures::idt::InterruptStackFrame)>") %_28) #9, !dbg !2432
  %6 = getelementptr inbounds [224 x %"x86_64::structures::idt::Entry<extern \22x86-interrupt\22 fn(x86_64::structures::idt::InterruptStackFrame)>"], ptr %_27, i64 0, i64 0, !dbg !2433
  %7 = getelementptr inbounds [224 x %"x86_64::structures::idt::Entry<extern \22x86-interrupt\22 fn(x86_64::structures::idt::InterruptStackFrame)>"], ptr %_27, i64 0, i64 224, !dbg !2433
  br label %repeat_loop_header1, !dbg !2433

repeat_loop_header1:                              ; preds = %repeat_loop_body2, %repeat_loop_next
  %8 = phi ptr [ %6, %repeat_loop_next ], [ %10, %repeat_loop_body2 ]
  %9 = icmp ne ptr %8, %7
  br i1 %9, label %repeat_loop_body2, label %repeat_loop_next3

repeat_loop_body2:                                ; preds = %repeat_loop_header1
  call void @llvm.memcpy.p0.p0.i64(ptr align 4 %8, ptr align 4 %_28, i64 16, i1 false)
  %10 = getelementptr inbounds %"x86_64::structures::idt::Entry<extern \22x86-interrupt\22 fn(x86_64::structures::idt::InterruptStackFrame)>", ptr %8, i64 1
  br label %repeat_loop_header1

repeat_loop_next3:                                ; preds = %repeat_loop_header1
  call void @llvm.memcpy.p0.p0.i64(ptr align 16 %0, ptr align 4 %_1, i64 16, i1 false), !dbg !2434
  %11 = getelementptr inbounds %"x86_64::structures::idt::InterruptDescriptorTable", ptr %0, i32 0, i32 1, !dbg !2434
  call void @llvm.memcpy.p0.p0.i64(ptr align 16 %11, ptr align 4 %_2, i64 16, i1 false), !dbg !2434
  %12 = getelementptr inbounds %"x86_64::structures::idt::InterruptDescriptorTable", ptr %0, i32 0, i32 2, !dbg !2434
  call void @llvm.memcpy.p0.p0.i64(ptr align 16 %12, ptr align 4 %_3, i64 16, i1 false), !dbg !2434
  %13 = getelementptr inbounds %"x86_64::structures::idt::InterruptDescriptorTable", ptr %0, i32 0, i32 3, !dbg !2434
  call void @llvm.memcpy.p0.p0.i64(ptr align 16 %13, ptr align 4 %_4, i64 16, i1 false), !dbg !2434
  %14 = getelementptr inbounds %"x86_64::structures::idt::InterruptDescriptorTable", ptr %0, i32 0, i32 4, !dbg !2434
  call void @llvm.memcpy.p0.p0.i64(ptr align 16 %14, ptr align 4 %_5, i64 16, i1 false), !dbg !2434
  %15 = getelementptr inbounds %"x86_64::structures::idt::InterruptDescriptorTable", ptr %0, i32 0, i32 5, !dbg !2434
  call void @llvm.memcpy.p0.p0.i64(ptr align 16 %15, ptr align 4 %_6, i64 16, i1 false), !dbg !2434
  %16 = getelementptr inbounds %"x86_64::structures::idt::InterruptDescriptorTable", ptr %0, i32 0, i32 6, !dbg !2434
  call void @llvm.memcpy.p0.p0.i64(ptr align 16 %16, ptr align 4 %_7, i64 16, i1 false), !dbg !2434
  %17 = getelementptr inbounds %"x86_64::structures::idt::InterruptDescriptorTable", ptr %0, i32 0, i32 7, !dbg !2434
  call void @llvm.memcpy.p0.p0.i64(ptr align 16 %17, ptr align 4 %_8, i64 16, i1 false), !dbg !2434
  %18 = getelementptr inbounds %"x86_64::structures::idt::InterruptDescriptorTable", ptr %0, i32 0, i32 8, !dbg !2434
  call void @llvm.memcpy.p0.p0.i64(ptr align 16 %18, ptr align 4 %_9, i64 16, i1 false), !dbg !2434
  %19 = getelementptr inbounds %"x86_64::structures::idt::InterruptDescriptorTable", ptr %0, i32 0, i32 9, !dbg !2434
  call void @llvm.memcpy.p0.p0.i64(ptr align 16 %19, ptr align 4 %_10, i64 16, i1 false), !dbg !2434
  %20 = getelementptr inbounds %"x86_64::structures::idt::InterruptDescriptorTable", ptr %0, i32 0, i32 10, !dbg !2434
  call void @llvm.memcpy.p0.p0.i64(ptr align 16 %20, ptr align 4 %_11, i64 16, i1 false), !dbg !2434
  %21 = getelementptr inbounds %"x86_64::structures::idt::InterruptDescriptorTable", ptr %0, i32 0, i32 11, !dbg !2434
  call void @llvm.memcpy.p0.p0.i64(ptr align 16 %21, ptr align 4 %_12, i64 16, i1 false), !dbg !2434
  %22 = getelementptr inbounds %"x86_64::structures::idt::InterruptDescriptorTable", ptr %0, i32 0, i32 12, !dbg !2434
  call void @llvm.memcpy.p0.p0.i64(ptr align 16 %22, ptr align 4 %_13, i64 16, i1 false), !dbg !2434
  %23 = getelementptr inbounds %"x86_64::structures::idt::InterruptDescriptorTable", ptr %0, i32 0, i32 13, !dbg !2434
  call void @llvm.memcpy.p0.p0.i64(ptr align 16 %23, ptr align 4 %_14, i64 16, i1 false), !dbg !2434
  %24 = getelementptr inbounds %"x86_64::structures::idt::InterruptDescriptorTable", ptr %0, i32 0, i32 14, !dbg !2434
  call void @llvm.memcpy.p0.p0.i64(ptr align 16 %24, ptr align 4 %_15, i64 16, i1 false), !dbg !2434
  %25 = getelementptr inbounds %"x86_64::structures::idt::InterruptDescriptorTable", ptr %0, i32 0, i32 15, !dbg !2434
  call void @llvm.memcpy.p0.p0.i64(ptr align 16 %25, ptr align 4 %_16, i64 16, i1 false), !dbg !2434
  %26 = getelementptr inbounds %"x86_64::structures::idt::InterruptDescriptorTable", ptr %0, i32 0, i32 16, !dbg !2434
  call void @llvm.memcpy.p0.p0.i64(ptr align 16 %26, ptr align 4 %_17, i64 16, i1 false), !dbg !2434
  %27 = getelementptr inbounds %"x86_64::structures::idt::InterruptDescriptorTable", ptr %0, i32 0, i32 17, !dbg !2434
  call void @llvm.memcpy.p0.p0.i64(ptr align 16 %27, ptr align 4 %_18, i64 16, i1 false), !dbg !2434
  %28 = getelementptr inbounds %"x86_64::structures::idt::InterruptDescriptorTable", ptr %0, i32 0, i32 18, !dbg !2434
  call void @llvm.memcpy.p0.p0.i64(ptr align 16 %28, ptr align 4 %_19, i64 16, i1 false), !dbg !2434
  %29 = getelementptr inbounds %"x86_64::structures::idt::InterruptDescriptorTable", ptr %0, i32 0, i32 19, !dbg !2434
  call void @llvm.memcpy.p0.p0.i64(ptr align 16 %29, ptr align 4 %_20, i64 16, i1 false), !dbg !2434
  %30 = getelementptr inbounds %"x86_64::structures::idt::InterruptDescriptorTable", ptr %0, i32 0, i32 20, !dbg !2434
  call void @llvm.memcpy.p0.p0.i64(ptr align 16 %30, ptr align 4 %_21, i64 16, i1 false), !dbg !2434
  %31 = getelementptr inbounds %"x86_64::structures::idt::InterruptDescriptorTable", ptr %0, i32 0, i32 21, !dbg !2434
  call void @llvm.memcpy.p0.p0.i64(ptr align 16 %31, ptr align 4 %_22, i64 128, i1 false), !dbg !2434
  %32 = getelementptr inbounds %"x86_64::structures::idt::InterruptDescriptorTable", ptr %0, i32 0, i32 22, !dbg !2434
  call void @llvm.memcpy.p0.p0.i64(ptr align 16 %32, ptr align 4 %_24, i64 16, i1 false), !dbg !2434
  %33 = getelementptr inbounds %"x86_64::structures::idt::InterruptDescriptorTable", ptr %0, i32 0, i32 23, !dbg !2434
  call void @llvm.memcpy.p0.p0.i64(ptr align 16 %33, ptr align 4 %_25, i64 16, i1 false), !dbg !2434
  %34 = getelementptr inbounds %"x86_64::structures::idt::InterruptDescriptorTable", ptr %0, i32 0, i32 24, !dbg !2434
  call void @llvm.memcpy.p0.p0.i64(ptr align 16 %34, ptr align 4 %_26, i64 16, i1 false), !dbg !2434
  %35 = getelementptr inbounds %"x86_64::structures::idt::InterruptDescriptorTable", ptr %0, i32 0, i32 25, !dbg !2434
  call void @llvm.memcpy.p0.p0.i64(ptr align 16 %35, ptr align 4 %_27, i64 3584, i1 false), !dbg !2434
  ret void, !dbg !2435
}

; x86_64::instructions::interrupts::are_enabled
; Function Attrs: inlinehint noredzone nounwind
define internal zeroext i1 @_ZN6x86_6412instructions10interrupts11are_enabled17h482c413d38e24e1eE() unnamed_addr #0 !dbg !2436 {
start:
  %_2 = alloca i64, align 8
; call x86_64::registers::rflags::x86_64::read
  %0 = call i64 @_ZN6x86_649registers6rflags6x86_644read17hd85f3ddc688c245eE() #9, !dbg !2441
  store i64 %0, ptr %_2, align 8, !dbg !2441
; call x86_64::registers::rflags::RFlags::contains
  %1 = call zeroext i1 @_ZN6x86_649registers6rflags6RFlags8contains17hfdea0a74143ab51cE(ptr align 8 %_2, i64 512) #9, !dbg !2441
  ret i1 %1, !dbg !2442
}

; x86_64::instructions::interrupts::without_interrupts
; Function Attrs: inlinehint noredzone nounwind
define internal void @_ZN6x86_6412instructions10interrupts18without_interrupts17hfe19c6979f2448cfE(ptr align 8 %f) unnamed_addr #0 !dbg !2443 {
start:
  %saved_intpt_flag.dbg.spill = alloca i8, align 1
  %ret.dbg.spill = alloca {}, align 1
  %f.dbg.spill = alloca ptr, align 8
  store ptr %f, ptr %f.dbg.spill, align 8
  call void @llvm.dbg.declare(metadata ptr %f.dbg.spill, metadata !2445, metadata !DIExpression()), !dbg !2450
  call void @llvm.dbg.declare(metadata ptr %ret.dbg.spill, metadata !2448, metadata !DIExpression()), !dbg !2451
; call x86_64::instructions::interrupts::are_enabled
  %saved_intpt_flag = call zeroext i1 @_ZN6x86_6412instructions10interrupts11are_enabled17h482c413d38e24e1eE() #9, !dbg !2452
  %0 = zext i1 %saved_intpt_flag to i8, !dbg !2452
  store i8 %0, ptr %saved_intpt_flag.dbg.spill, align 1, !dbg !2452
  call void @llvm.dbg.declare(metadata ptr %saved_intpt_flag.dbg.spill, metadata !2446, metadata !DIExpression()), !dbg !2453
  br i1 %saved_intpt_flag, label %bb2, label %bb3, !dbg !2454

bb3:                                              ; preds = %bb2, %start
; call theo::peripherals::_print::{{closure}}
  call void @"_ZN4theo11peripherals6_print28_$u7b$$u7b$closure$u7d$$u7d$17hd15f80536657e571E"(ptr align 8 %f) #9, !dbg !2455
  br i1 %saved_intpt_flag, label %bb5, label %bb6, !dbg !2456

bb2:                                              ; preds = %start
; call x86_64::instructions::interrupts::disable
  call void @_ZN6x86_6412instructions10interrupts7disable17hb963fbd1d17f3b2fE() #9, !dbg !2457
  br label %bb3, !dbg !2457

bb6:                                              ; preds = %bb5, %bb3
  ret void, !dbg !2458

bb5:                                              ; preds = %bb3
; call x86_64::instructions::interrupts::enable
  call void @_ZN6x86_6412instructions10interrupts6enable17h89419306c999d550E() #9, !dbg !2459
  br label %bb6, !dbg !2459
}

; x86_64::instructions::interrupts::enable
; Function Attrs: inlinehint noredzone nounwind
define internal void @_ZN6x86_6412instructions10interrupts6enable17h89419306c999d550E() unnamed_addr #0 !dbg !2460 {
start:
  call void asm sideeffect inteldialect "sti", "~{dirflag},~{fpsr},~{flags}"() #12, !dbg !2461, !srcloc !2462
  ret void, !dbg !2463
}

; x86_64::instructions::interrupts::disable
; Function Attrs: inlinehint noredzone nounwind
define internal void @_ZN6x86_6412instructions10interrupts7disable17hb963fbd1d17f3b2fE() unnamed_addr #0 !dbg !2464 {
start:
  call void asm sideeffect inteldialect "cli", "~{dirflag},~{fpsr},~{flags}"() #12, !dbg !2465, !srcloc !2466
  ret void, !dbg !2467
}

; x86_64::instructions::hlt
; Function Attrs: inlinehint noredzone nounwind
define internal void @_ZN6x86_6412instructions3hlt17h85fbfae06cd549adE() unnamed_addr #0 !dbg !2468 {
start:
  call void asm sideeffect inteldialect "hlt", ""() #12, !dbg !2470, !srcloc !2471
  ret void, !dbg !2472
}

; x86_64::addr::VirtAddr::new_truncate
; Function Attrs: inlinehint noredzone nounwind
define internal i64 @_ZN6x86_644addr8VirtAddr12new_truncate17h98bac4404801a2d7E(i64 %addr) unnamed_addr #0 !dbg !2473 {
start:
  %addr.dbg.spill = alloca i64, align 8
  %0 = alloca i64, align 8
  store i64 %addr, ptr %addr.dbg.spill, align 8
  call void @llvm.dbg.declare(metadata ptr %addr.dbg.spill, metadata !2479, metadata !DIExpression()), !dbg !2480
  %_5 = shl i64 %addr, 16, !dbg !2481
  %_3 = ashr i64 %_5, 16, !dbg !2482
  store i64 %_3, ptr %0, align 8, !dbg !2483
  %1 = load i64, ptr %0, align 8, !dbg !2484, !noundef !27
  ret i64 %1, !dbg !2484
}

; x86_64::addr::VirtAddr::new
; Function Attrs: inlinehint noredzone nounwind
define internal i64 @_ZN6x86_644addr8VirtAddr3new17h6523894c559aae8bE(i64 %addr) unnamed_addr #0 !dbg !2485 {
start:
  %addr.dbg.spill = alloca i64, align 8
  store i64 %addr, ptr %addr.dbg.spill, align 8
  call void @llvm.dbg.declare(metadata ptr %addr.dbg.spill, metadata !2488, metadata !DIExpression()), !dbg !2489
; call x86_64::addr::VirtAddr::try_new
  %0 = call { i64, i64 } @_ZN6x86_644addr8VirtAddr7try_new17h0f72925b76dc041dE(i64 %addr) #9, !dbg !2490
  %_2.0 = extractvalue { i64, i64 } %0, 0, !dbg !2490
  %_2.1 = extractvalue { i64, i64 } %0, 1, !dbg !2490
; call core::result::Result<T,E>::expect
  %1 = call i64 @"_ZN4core6result19Result$LT$T$C$E$GT$6expect17h8fc6db8900ff66c2E"(i64 %_2.0, i64 %_2.1, ptr align 1 @alloc_3b30f3c2fe1935017d2714aa9952ea95, i64 74, ptr align 8 @alloc_6918487e00f1778b5f784ee4db0636b1) #9, !dbg !2490
  ret i64 %1, !dbg !2491
}

; x86_64::addr::VirtAddr::as_u64
; Function Attrs: inlinehint noredzone nounwind
define internal i64 @_ZN6x86_644addr8VirtAddr6as_u6417hf1268854990d5471E(i64 %self) unnamed_addr #0 !dbg !2492 {
start:
  %self.dbg.spill = alloca i64, align 8
  store i64 %self, ptr %self.dbg.spill, align 8
  call void @llvm.dbg.declare(metadata ptr %self.dbg.spill, metadata !2497, metadata !DIExpression()), !dbg !2498
  ret i64 %self, !dbg !2499
}

; x86_64::addr::VirtAddr::try_new
; Function Attrs: inlinehint noredzone nounwind
define internal { i64, i64 } @_ZN6x86_644addr8VirtAddr7try_new17h0f72925b76dc041dE(i64 %0) unnamed_addr #0 !dbg !2500 {
start:
  %_9 = alloca i64, align 8
  %_5 = alloca i64, align 8
  %_4 = alloca { i64, i64 }, align 8
  %1 = alloca { i64, i64 }, align 8
  %addr = alloca i64, align 8
  store i64 %0, ptr %addr, align 8
  call void @llvm.dbg.declare(metadata ptr %addr, metadata !2524, metadata !DIExpression()), !dbg !2525
  store i64 47, ptr %_4, align 8, !dbg !2526
  %2 = getelementptr inbounds { i64, i64 }, ptr %_4, i32 0, i32 1, !dbg !2526
  store i64 64, ptr %2, align 8, !dbg !2526
  %3 = getelementptr inbounds { i64, i64 }, ptr %_4, i32 0, i32 0, !dbg !2527
  %4 = load i64, ptr %3, align 8, !dbg !2527, !noundef !27
  %5 = getelementptr inbounds { i64, i64 }, ptr %_4, i32 0, i32 1, !dbg !2527
  %6 = load i64, ptr %5, align 8, !dbg !2527, !noundef !27
; call <u64 as bit_field::BitField>::get_bits
  %_2 = call i64 @"_ZN43_$LT$u64$u20$as$u20$bit_field..BitField$GT$8get_bits17h3b8fb306ae8d3015E"(ptr align 8 %addr, i64 %4, i64 %6) #9, !dbg !2527
  switch i64 %_2, label %bb2 [
    i64 0, label %bb3
    i64 131071, label %bb3
    i64 1, label %bb4
  ], !dbg !2528

bb2:                                              ; preds = %start
  %_10 = load i64, ptr %addr, align 8, !dbg !2529, !noundef !27
  store i64 %_10, ptr %_9, align 8, !dbg !2530
  %7 = load i64, ptr %_9, align 8, !dbg !2531, !noundef !27
  %8 = getelementptr inbounds { i64, i64 }, ptr %1, i32 0, i32 1, !dbg !2531
  store i64 %7, ptr %8, align 8, !dbg !2531
  store i64 1, ptr %1, align 8, !dbg !2531
  br label %bb6, !dbg !2532

bb3:                                              ; preds = %start, %start
  %_6 = load i64, ptr %addr, align 8, !dbg !2533, !noundef !27
  store i64 %_6, ptr %_5, align 8, !dbg !2534
  %9 = load i64, ptr %_5, align 8, !dbg !2535, !noundef !27
  %10 = getelementptr inbounds { i64, i64 }, ptr %1, i32 0, i32 1, !dbg !2535
  store i64 %9, ptr %10, align 8, !dbg !2535
  store i64 0, ptr %1, align 8, !dbg !2535
  br label %bb6, !dbg !2536

bb4:                                              ; preds = %start
  %_8 = load i64, ptr %addr, align 8, !dbg !2537, !noundef !27
; call x86_64::addr::VirtAddr::new_truncate
  %_7 = call i64 @_ZN6x86_644addr8VirtAddr12new_truncate17h98bac4404801a2d7E(i64 %_8) #9, !dbg !2538
  %11 = getelementptr inbounds { i64, i64 }, ptr %1, i32 0, i32 1, !dbg !2539
  store i64 %_7, ptr %11, align 8, !dbg !2539
  store i64 0, ptr %1, align 8, !dbg !2539
  br label %bb6, !dbg !2540

bb6:                                              ; preds = %bb3, %bb4, %bb2
  %12 = getelementptr inbounds { i64, i64 }, ptr %1, i32 0, i32 0, !dbg !2541
  %13 = load i64, ptr %12, align 8, !dbg !2541, !range !1835, !noundef !27
  %14 = getelementptr inbounds { i64, i64 }, ptr %1, i32 0, i32 1, !dbg !2541
  %15 = load i64, ptr %14, align 8, !dbg !2541, !noundef !27
  %16 = insertvalue { i64, i64 } poison, i64 %13, 0, !dbg !2541
  %17 = insertvalue { i64, i64 } %16, i64 %15, 1, !dbg !2541
  ret { i64, i64 } %17, !dbg !2541
}

; x86_64::registers::rflags::RFlags::from_bits_truncate
; Function Attrs: inlinehint noredzone nounwind
define internal i64 @_ZN6x86_649registers6rflags6RFlags18from_bits_truncate17h5495bdaebd9f0ffeE(i64 %bits) unnamed_addr #0 !dbg !2542 {
start:
  %bits.dbg.spill = alloca i64, align 8
  %0 = alloca i64, align 8
  store i64 %bits, ptr %bits.dbg.spill, align 8
  call void @llvm.dbg.declare(metadata ptr %bits.dbg.spill, metadata !2553, metadata !DIExpression()), !dbg !2554
; call x86_64::registers::rflags::RFlags::all
  %_4 = call i64 @_ZN6x86_649registers6rflags6RFlags3all17h20a26c13024fca1aE() #9, !dbg !2555
  %_2 = and i64 %bits, %_4, !dbg !2556
  store i64 %_2, ptr %0, align 8, !dbg !2557
  %1 = load i64, ptr %0, align 8, !dbg !2558, !noundef !27
  ret i64 %1, !dbg !2558
}

; x86_64::registers::rflags::RFlags::all
; Function Attrs: inlinehint noredzone nounwind
define internal i64 @_ZN6x86_649registers6rflags6RFlags3all17h20a26c13024fca1aE() unnamed_addr #0 !dbg !2559 {
start:
  %0 = alloca i64, align 8
  store i64 4161493, ptr %0, align 8, !dbg !2563
  %1 = load i64, ptr %0, align 8, !dbg !2564, !noundef !27
  ret i64 %1, !dbg !2564
}

; x86_64::registers::rflags::RFlags::contains
; Function Attrs: inlinehint noredzone nounwind
define internal zeroext i1 @_ZN6x86_649registers6rflags6RFlags8contains17hfdea0a74143ab51cE(ptr align 8 %self, i64 %other) unnamed_addr #0 !dbg !2565 {
start:
  %other.dbg.spill = alloca i64, align 8
  %self.dbg.spill = alloca ptr, align 8
  store ptr %self, ptr %self.dbg.spill, align 8
  call void @llvm.dbg.declare(metadata ptr %self.dbg.spill, metadata !2571, metadata !DIExpression()), !dbg !2573
  store i64 %other, ptr %other.dbg.spill, align 8
  call void @llvm.dbg.declare(metadata ptr %other.dbg.spill, metadata !2572, metadata !DIExpression()), !dbg !2574
  %_4 = load i64, ptr %self, align 8, !dbg !2575, !noundef !27
  %_3 = and i64 %_4, %other, !dbg !2576
  %0 = icmp eq i64 %_3, %other, !dbg !2576
  ret i1 %0, !dbg !2577
}

; x86_64::registers::rflags::x86_64::read
; Function Attrs: inlinehint noredzone nounwind
define internal i64 @_ZN6x86_649registers6rflags6x86_644read17hd85f3ddc688c245eE() unnamed_addr #0 !dbg !2578 {
start:
; call x86_64::registers::rflags::x86_64::read_raw
  %_1 = call i64 @_ZN6x86_649registers6rflags6x86_648read_raw17h0ac9f85cf1657b60E() #9, !dbg !2581
; call x86_64::registers::rflags::RFlags::from_bits_truncate
  %0 = call i64 @_ZN6x86_649registers6rflags6RFlags18from_bits_truncate17h5495bdaebd9f0ffeE(i64 %_1) #9, !dbg !2582
  ret i64 %0, !dbg !2583
}

; x86_64::registers::rflags::x86_64::read_raw
; Function Attrs: inlinehint noredzone nounwind
define internal i64 @_ZN6x86_649registers6rflags6x86_648read_raw17h0ac9f85cf1657b60E() unnamed_addr #0 !dbg !2584 {
start:
  %r = alloca i64, align 8
  call void @llvm.dbg.declare(metadata ptr %r, metadata !2588, metadata !DIExpression()), !dbg !2590
  %0 = call i64 asm sideeffect alignstack inteldialect "pushfq; pop ${0:q}", "=&r"() #12, !dbg !2591, !srcloc !2592
  store i64 %0, ptr %r, align 8, !dbg !2591
  %1 = load i64, ptr %r, align 8, !dbg !2593, !noundef !27
  ret i64 %1, !dbg !2594
}

; <spin::mutex::MutexGuard<T> as core::ops::deref::DerefMut>::deref_mut
; Function Attrs: noredzone nounwind
define internal align 2 ptr @"_ZN79_$LT$spin..mutex..MutexGuard$LT$T$GT$$u20$as$u20$core..ops..deref..DerefMut$GT$9deref_mut17h8e65b03fd28ada54E"(ptr align 8 %self) unnamed_addr #1 !dbg !2595 {
start:
  %self.dbg.spill = alloca ptr, align 8
  store ptr %self, ptr %self.dbg.spill, align 8
  call void @llvm.dbg.declare(metadata ptr %self.dbg.spill, metadata !2602, metadata !DIExpression()), !dbg !2603
; call <spin::mutex::spin::SpinMutexGuard<T> as core::ops::deref::DerefMut>::deref_mut
  %_2 = call align 2 ptr @"_ZN89_$LT$spin..mutex..spin..SpinMutexGuard$LT$T$GT$$u20$as$u20$core..ops..deref..DerefMut$GT$9deref_mut17hf7a56fc174800610E"(ptr align 8 %self) #9, !dbg !2604
  ret ptr %_2, !dbg !2605
}

; <spin::mutex::MutexGuard<T> as core::ops::deref::DerefMut>::deref_mut
; Function Attrs: noredzone nounwind
define internal align 8 ptr @"_ZN79_$LT$spin..mutex..MutexGuard$LT$T$GT$$u20$as$u20$core..ops..deref..DerefMut$GT$9deref_mut17ha7f1479b09aa01d5E"(ptr align 8 %self) unnamed_addr #1 !dbg !2606 {
start:
  %self.dbg.spill = alloca ptr, align 8
  store ptr %self, ptr %self.dbg.spill, align 8
  call void @llvm.dbg.declare(metadata ptr %self.dbg.spill, metadata !2611, metadata !DIExpression()), !dbg !2612
; call <spin::mutex::spin::SpinMutexGuard<T> as core::ops::deref::DerefMut>::deref_mut
  %_2 = call align 8 ptr @"_ZN89_$LT$spin..mutex..spin..SpinMutexGuard$LT$T$GT$$u20$as$u20$core..ops..deref..DerefMut$GT$9deref_mut17hd3d89bc125299f70E"(ptr align 8 %self) #9, !dbg !2613
  ret ptr %_2, !dbg !2614
}

; <spin::mutex::spin::SpinMutexGuard<T> as core::ops::drop::Drop>::drop
; Function Attrs: noredzone nounwind
define internal void @"_ZN84_$LT$spin..mutex..spin..SpinMutexGuard$LT$T$GT$$u20$as$u20$core..ops..drop..Drop$GT$4drop17h3790c9106af85ed5E"(ptr align 8 %self) unnamed_addr #1 !dbg !2615 {
start:
  %self.dbg.spill = alloca ptr, align 8
  %_3 = alloca i8, align 1
  store ptr %self, ptr %self.dbg.spill, align 8
  call void @llvm.dbg.declare(metadata ptr %self.dbg.spill, metadata !2621, metadata !DIExpression()), !dbg !2622
  %_4 = load ptr, ptr %self, align 8, !dbg !2623, !nonnull !27, !align !863, !noundef !27
  store i8 1, ptr %_3, align 1, !dbg !2624
  %0 = load i8, ptr %_3, align 1, !dbg !2623, !range !1833, !noundef !27
; call core::sync::atomic::AtomicBool::store
  call void @_ZN4core4sync6atomic10AtomicBool5store17hbcaf2f77bae43bd3E(ptr align 1 %_4, i1 zeroext false, i8 %0) #9, !dbg !2623
  ret void, !dbg !2625
}

; <spin::mutex::spin::SpinMutexGuard<T> as core::ops::drop::Drop>::drop
; Function Attrs: noredzone nounwind
define internal void @"_ZN84_$LT$spin..mutex..spin..SpinMutexGuard$LT$T$GT$$u20$as$u20$core..ops..drop..Drop$GT$4drop17hd66fd8327eff0b74E"(ptr align 8 %self) unnamed_addr #1 !dbg !2626 {
start:
  %self.dbg.spill = alloca ptr, align 8
  %_3 = alloca i8, align 1
  store ptr %self, ptr %self.dbg.spill, align 8
  call void @llvm.dbg.declare(metadata ptr %self.dbg.spill, metadata !2631, metadata !DIExpression()), !dbg !2632
  %_4 = load ptr, ptr %self, align 8, !dbg !2633, !nonnull !27, !align !863, !noundef !27
  store i8 1, ptr %_3, align 1, !dbg !2634
  %0 = load i8, ptr %_3, align 1, !dbg !2633, !range !1833, !noundef !27
; call core::sync::atomic::AtomicBool::store
  call void @_ZN4core4sync6atomic10AtomicBool5store17hbcaf2f77bae43bd3E(ptr align 1 %_4, i1 zeroext false, i8 %0) #9, !dbg !2633
  ret void, !dbg !2635
}

; <spin::mutex::spin::SpinMutexGuard<T> as core::ops::deref::DerefMut>::deref_mut
; Function Attrs: noredzone nounwind
define internal align 8 ptr @"_ZN89_$LT$spin..mutex..spin..SpinMutexGuard$LT$T$GT$$u20$as$u20$core..ops..deref..DerefMut$GT$9deref_mut17hd3d89bc125299f70E"(ptr align 8 %self) unnamed_addr #1 !dbg !2636 {
start:
  %self.dbg.spill = alloca ptr, align 8
  store ptr %self, ptr %self.dbg.spill, align 8
  call void @llvm.dbg.declare(metadata ptr %self.dbg.spill, metadata !2641, metadata !DIExpression()), !dbg !2642
  %0 = getelementptr inbounds { ptr, ptr }, ptr %self, i32 0, i32 1, !dbg !2643
  %_2 = load ptr, ptr %0, align 8, !dbg !2643, !noundef !27
  ret ptr %_2, !dbg !2644
}

; <spin::mutex::spin::SpinMutexGuard<T> as core::ops::deref::DerefMut>::deref_mut
; Function Attrs: noredzone nounwind
define internal align 2 ptr @"_ZN89_$LT$spin..mutex..spin..SpinMutexGuard$LT$T$GT$$u20$as$u20$core..ops..deref..DerefMut$GT$9deref_mut17hf7a56fc174800610E"(ptr align 8 %self) unnamed_addr #1 !dbg !2645 {
start:
  %self.dbg.spill = alloca ptr, align 8
  store ptr %self, ptr %self.dbg.spill, align 8
  call void @llvm.dbg.declare(metadata ptr %self.dbg.spill, metadata !2649, metadata !DIExpression()), !dbg !2650
  %0 = getelementptr inbounds { ptr, ptr }, ptr %self, i32 0, i32 1, !dbg !2651
  %_2 = load ptr, ptr %0, align 8, !dbg !2651, !noundef !27
  ret ptr %_2, !dbg !2652
}

; keyboard::Keyboard<L,S>::process_decoded_key
; Function Attrs: noredzone nounwind
define internal void @"_ZN8keyboard21Keyboard$LT$L$C$S$GT$19process_decoded_key17hca67919a4c9bef73E"(ptr align 2 %self) unnamed_addr #1 !dbg !2653 {
start:
  %0 = alloca i64, align 8
  %key_event.dbg.spill = alloca { i8, i8 }, align 1
  %1 = alloca i16, align 2
  %scancode.dbg.spill = alloca i8, align 1
  %f.dbg.spill = alloca %"[closure@src/interrupts.rs:43:34: 43:59]", align 1
  %self.dbg.spill = alloca ptr, align 8
  %_18 = alloca i8, align 1
  %_17 = alloca { %"pc_keyboard::DecodedKey" }, align 4
  %decoded_key = alloca %"pc_keyboard::DecodedKey", align 4
  %_11 = alloca %"core::option::Option<pc_keyboard::DecodedKey>", align 4
  %_5 = alloca %"core::result::Result<core::option::Option<pc_keyboard::KeyEvent>, pc_keyboard::Error>", align 1
  store ptr %self, ptr %self.dbg.spill, align 8
  call void @llvm.dbg.declare(metadata ptr %self.dbg.spill, metadata !2663, metadata !DIExpression()), !dbg !2671
  call void @llvm.dbg.declare(metadata ptr %f.dbg.spill, metadata !2664, metadata !DIExpression()), !dbg !2672
  call void @llvm.dbg.declare(metadata ptr %decoded_key, metadata !2669, metadata !DIExpression()), !dbg !2673
  store i8 0, ptr %_18, align 1, !dbg !2674
  store i8 1, ptr %_18, align 1, !dbg !2674
  %_4 = getelementptr inbounds %"keyboard::Keyboard<pc_keyboard::layouts::us104::Us104Key, pc_keyboard::scancodes::set1::ScancodeSet1>", ptr %self, i32 0, i32 1, !dbg !2675
; call x86_64::instructions::port::PortGeneric<T,A>::read
  %scancode = call i8 @"_ZN6x86_6412instructions4port24PortGeneric$LT$T$C$A$GT$4read17h6425e89fa88efdf5E"(ptr align 2 %_4) #9, !dbg !2675
  store i8 %scancode, ptr %scancode.dbg.spill, align 1, !dbg !2675
  call void @llvm.dbg.declare(metadata ptr %scancode.dbg.spill, metadata !2665, metadata !DIExpression()), !dbg !2676
; call pc_keyboard::Keyboard<L,S>::add_byte
  %2 = call i16 @"_ZN11pc_keyboard21Keyboard$LT$L$C$S$GT$8add_byte17h725cd109eafc3ccfE"(ptr align 2 %self, i8 %scancode) #9, !dbg !2677
  store i16 %2, ptr %1, align 2, !dbg !2677
  call void @llvm.memcpy.p0.p0.i64(ptr align 1 %_5, ptr align 2 %1, i64 2, i1 false), !dbg !2677
  %3 = load i8, ptr %_5, align 1, !dbg !2678, !range !1833, !noundef !27
  %4 = icmp eq i8 %3, 4, !dbg !2678
  %_9 = select i1 %4, i64 1, i64 0, !dbg !2678
  %5 = icmp eq i64 %_9, 0, !dbg !2678
  br i1 %5, label %bb3, label %bb8, !dbg !2678

bb3:                                              ; preds = %start
  %6 = load i8, ptr %_5, align 1, !dbg !2678, !range !2679, !noundef !27
  %7 = icmp eq i8 %6, 3, !dbg !2678
  %_8 = select i1 %7, i64 0, i64 1, !dbg !2678
  %8 = icmp eq i64 %_8, 1, !dbg !2678
  br i1 %8, label %bb4, label %bb8, !dbg !2678

bb8:                                              ; preds = %bb6, %bb4, %bb3, %start
  %9 = load i8, ptr %_18, align 1, !dbg !2680, !range !995, !noundef !27
  %10 = trunc i8 %9 to i1, !dbg !2680
  br i1 %10, label %bb10, label %bb9, !dbg !2680

bb4:                                              ; preds = %bb3
  %11 = getelementptr inbounds { i8, i8 }, ptr %_5, i32 0, i32 0, !dbg !2681
  %key_event.0 = load i8, ptr %11, align 1, !dbg !2681, !range !950, !noundef !27
  %12 = getelementptr inbounds { i8, i8 }, ptr %_5, i32 0, i32 1, !dbg !2681
  %key_event.1 = load i8, ptr %12, align 1, !dbg !2681, !range !948, !noundef !27
  %13 = getelementptr inbounds { i8, i8 }, ptr %key_event.dbg.spill, i32 0, i32 0, !dbg !2681
  store i8 %key_event.0, ptr %13, align 1, !dbg !2681
  %14 = getelementptr inbounds { i8, i8 }, ptr %key_event.dbg.spill, i32 0, i32 1, !dbg !2681
  store i8 %key_event.1, ptr %14, align 1, !dbg !2681
  call void @llvm.dbg.declare(metadata ptr %key_event.dbg.spill, metadata !2667, metadata !DIExpression()), !dbg !2681
; call pc_keyboard::Keyboard<L,S>::process_keyevent
  %15 = call i64 @"_ZN11pc_keyboard21Keyboard$LT$L$C$S$GT$16process_keyevent17h0eef9edd83e74de9E"(ptr align 2 %self, i8 %key_event.0, i8 %key_event.1) #9, !dbg !2682
  store i64 %15, ptr %0, align 8, !dbg !2682
  call void @llvm.memcpy.p0.p0.i64(ptr align 4 %_11, ptr align 8 %0, i64 8, i1 false), !dbg !2682
  %16 = load i8, ptr %_11, align 4, !dbg !2683, !range !950, !noundef !27
  %17 = icmp eq i8 %16, 2, !dbg !2683
  %_13 = select i1 %17, i64 0, i64 1, !dbg !2683
  %18 = icmp eq i64 %_13, 1, !dbg !2683
  br i1 %18, label %bb6, label %bb8, !dbg !2683

bb6:                                              ; preds = %bb4
  call void @llvm.memcpy.p0.p0.i64(ptr align 4 %decoded_key, ptr align 4 %_11, i64 8, i1 false), !dbg !2673
  store i8 0, ptr %_18, align 1, !dbg !2684
  call void @llvm.memcpy.p0.p0.i64(ptr align 4 %_17, ptr align 4 %decoded_key, i64 8, i1 false), !dbg !2684
  %19 = load i64, ptr %_17, align 4, !dbg !2684
; call theo::interrupts::keyboard_handler::{{closure}}
  call void @"_ZN4theo10interrupts16keyboard_handler28_$u7b$$u7b$closure$u7d$$u7d$17he75a54f400da545bE"(i64 %19) #9, !dbg !2684
  br label %bb8, !dbg !2685

bb9:                                              ; preds = %bb10, %bb8
  ret void, !dbg !2686

bb10:                                             ; preds = %bb8
  br label %bb9, !dbg !2680
}

; keyboard::Keyboard<L,S>::us_scancode_set_one_keyboard
; Function Attrs: noredzone nounwind
define internal void @"_ZN8keyboard21Keyboard$LT$L$C$S$GT$28us_scancode_set_one_keyboard17h02677ded39f93896E"(ptr sret(%"keyboard::Keyboard<pc_keyboard::layouts::us104::Us104Key, pc_keyboard::scancodes::set1::ScancodeSet1>") %0) unnamed_addr #1 !dbg !2687 {
start:
; call pc_keyboard::scancodes::set1::ScancodeSet1::new
  %_1 = call i8 @_ZN11pc_keyboard9scancodes4set112ScancodeSet13new17h241db173dd0ad186E() #9, !dbg !2691, !range !2692
; call keyboard::Keyboard<L,S>::new
  call void @"_ZN8keyboard21Keyboard$LT$L$C$S$GT$3new17hd146991b1df707b6E"(ptr sret(%"keyboard::Keyboard<pc_keyboard::layouts::us104::Us104Key, pc_keyboard::scancodes::set1::ScancodeSet1>") %0, i8 %_1) #9, !dbg !2693
  ret void, !dbg !2694
}

; keyboard::Keyboard<L,S>::new
; Function Attrs: noredzone nounwind
define internal void @"_ZN8keyboard21Keyboard$LT$L$C$S$GT$3new17hd146991b1df707b6E"(ptr sret(%"keyboard::Keyboard<pc_keyboard::layouts::us104::Us104Key, pc_keyboard::scancodes::set1::ScancodeSet1>") %0, i8 %scancode_set) unnamed_addr #1 !dbg !2695 {
start:
  %scancode_set.dbg.spill = alloca i8, align 1
  %layout.dbg.spill = alloca %"pc_keyboard::layouts::us104::Us104Key", align 1
  %_6 = alloca %"pc_keyboard::Keyboard<pc_keyboard::layouts::us104::Us104Key, pc_keyboard::scancodes::set1::ScancodeSet1>", align 2
  %_4 = alloca i8, align 1
  %keyboard = alloca %"pc_keyboard::Keyboard<pc_keyboard::layouts::us104::Us104Key, pc_keyboard::scancodes::set1::ScancodeSet1>", align 2
  call void @llvm.dbg.declare(metadata ptr %layout.dbg.spill, metadata !2700, metadata !DIExpression()), !dbg !2704
  store i8 %scancode_set, ptr %scancode_set.dbg.spill, align 1
  call void @llvm.dbg.declare(metadata ptr %scancode_set.dbg.spill, metadata !2701, metadata !DIExpression()), !dbg !2705
  call void @llvm.dbg.declare(metadata ptr %keyboard, metadata !2702, metadata !DIExpression()), !dbg !2706
  store i8 1, ptr %_4, align 1, !dbg !2707
  %1 = load i8, ptr %_4, align 1, !dbg !2708, !range !995, !noundef !27
  %2 = trunc i8 %1 to i1, !dbg !2708
; call pc_keyboard::Keyboard<L,S>::new
  call void @"_ZN11pc_keyboard21Keyboard$LT$L$C$S$GT$3new17hda7c7ac3bdd29519E"(ptr sret(%"pc_keyboard::Keyboard<pc_keyboard::layouts::us104::Us104Key, pc_keyboard::scancodes::set1::ScancodeSet1>") %keyboard, i8 %scancode_set, i1 zeroext %2) #9, !dbg !2708
; call x86_64::instructions::port::PortGeneric<T,A>::new
  %_5 = call i16 @"_ZN6x86_6412instructions4port24PortGeneric$LT$T$C$A$GT$3new17h5aebeb955a982b35E"(i16 96) #9, !dbg !2709
  call void @llvm.memcpy.p0.p0.i64(ptr align 2 %_6, ptr align 2 %keyboard, i64 14, i1 false), !dbg !2710
  call void @llvm.memcpy.p0.p0.i64(ptr align 2 %0, ptr align 2 %_6, i64 14, i1 false), !dbg !2711
  %3 = getelementptr inbounds %"keyboard::Keyboard<pc_keyboard::layouts::us104::Us104Key, pc_keyboard::scancodes::set1::ScancodeSet1>", ptr %0, i32 0, i32 1, !dbg !2711
  store i16 %_5, ptr %3, align 2, !dbg !2711
  ret void, !dbg !2712
}

; theo::interrupts::breakpoint_handler
; Function Attrs: noredzone nounwind
define internal x86_intrcc void @_ZN4theo10interrupts18breakpoint_handler17h2e2d20552842310aE(ptr byval(%"x86_64::structures::idt::InterruptStackFrame") %_isf) unnamed_addr #1 !dbg !2713 {
start:
  call void @llvm.dbg.declare(metadata ptr %_isf, metadata !2715, metadata !DIExpression()), !dbg !2716
  ret void, !dbg !2717
}

; theo::interrupts::timer_interrupt_handler
; Function Attrs: noredzone nounwind
define internal x86_intrcc void @_ZN4theo10interrupts23timer_interrupt_handler17hd302b65369ed336cE(ptr byval(%"x86_64::structures::idt::InterruptStackFrame") %_isf) unnamed_addr #1 !dbg !2718 {
start:
  %_3 = alloca %"core::fmt::Arguments<'_>", align 8
  call void @llvm.dbg.declare(metadata ptr %_isf, metadata !2720, metadata !DIExpression()), !dbg !2721
; call core::fmt::Arguments::new_const
  call void @_ZN4core3fmt9Arguments9new_const17hc21a36f9d28a9bb1E(ptr sret(%"core::fmt::Arguments<'_>") %_3, ptr align 8 @alloc_d509c061a81d387044ae882b6ca18863, i64 1) #9, !dbg !2722
; call theo::peripherals::_print
  call void @_ZN4theo11peripherals6_print17h9573893754ff211cE(ptr %_3) #9, !dbg !2722
; call cpu_interrupts::programmable_interface_controller::notify_end_of_timer_interrupt
  call void @_ZN14cpu_interrupts33programmable_interface_controller29notify_end_of_timer_interrupt17hb60864c7e882d18bE() #9, !dbg !2723
  ret void, !dbg !2724
}

; theo::interrupts::keyboard_handler
; Function Attrs: noredzone nounwind
define internal x86_intrcc void @_ZN4theo10interrupts16keyboard_handler17h6aa06542921ea309E(ptr byval(%"x86_64::structures::idt::InterruptStackFrame") %_isf) unnamed_addr #1 !dbg !2725 {
start:
  %self.dbg.spill.i2 = alloca ptr, align 8
  %_3.i = alloca i8, align 1
  %self.dbg.spill.i.i = alloca ptr, align 8
  %self.dbg.spill.i1 = alloca ptr, align 8
  %_7.i = alloca i8, align 1
  %_6.i = alloca i8, align 1
  %_4.i = alloca { i8, i8 }, align 1
  %0 = alloca { ptr, ptr }, align 8
  %self.dbg.spill.i = alloca ptr, align 8
  %1 = alloca { ptr, ptr }, align 8
  %keyboard = alloca { ptr, ptr }, align 8
  call void @llvm.dbg.declare(metadata ptr %_isf, metadata !2727, metadata !DIExpression()), !dbg !2730
  call void @llvm.dbg.declare(metadata ptr %keyboard, metadata !2728, metadata !DIExpression()), !dbg !2731
; call <theo::peripherals::KEYBOARD as core::ops::deref::Deref>::deref
  %_4 = call align 2 ptr @"_ZN71_$LT$theo..peripherals..KEYBOARD$u20$as$u20$core..ops..deref..Deref$GT$5deref17h28bd57ccc765be7aE"(ptr align 1 @_ZN4theo11peripherals8KEYBOARD17ha5a7dbc4627531ffE) #9, !dbg !2732
  store ptr %_4, ptr %self.dbg.spill.i, align 8
  call void @llvm.dbg.declare(metadata ptr %self.dbg.spill.i, metadata !2733, metadata !DIExpression()), !dbg !2739
  store ptr %_4, ptr %self.dbg.spill.i1, align 8
  call void @llvm.dbg.declare(metadata ptr %self.dbg.spill.i1, metadata !2741, metadata !DIExpression()), !dbg !2748
  br label %bb1.i, !dbg !2750

bb1.i:                                            ; preds = %bb4.i, %start
  store i8 2, ptr %_6.i, align 1, !dbg !2751
  store i8 0, ptr %_7.i, align 1, !dbg !2752
  %2 = load i8, ptr %_6.i, align 1, !dbg !2753, !range !1833, !noundef !27
  %3 = load i8, ptr %_7.i, align 1, !dbg !2753, !range !1833, !noundef !27
; call core::sync::atomic::AtomicBool::compare_exchange_weak
  %4 = call { i8, i8 } @_ZN4core4sync6atomic10AtomicBool21compare_exchange_weak17h67b4770c4895eb5eE(ptr align 1 %_4, i1 zeroext false, i1 zeroext true, i8 %2, i8 %3) #9, !dbg !2753
  store { i8, i8 } %4, ptr %_4.i, align 1, !dbg !2753
; call core::result::Result<T,E>::is_err
  %_2.i = call zeroext i1 @"_ZN4core6result19Result$LT$T$C$E$GT$6is_err17he5fdf1a569882d02E"(ptr align 1 %_4.i) #9, !dbg !2753
  br i1 %_2.i, label %bb4.i, label %"_ZN4spin5mutex4spin22SpinMutex$LT$T$C$R$GT$4lock17h652f9020ced30125E.exit", !dbg !2753

bb4.i:                                            ; preds = %bb6.i, %bb1.i
  store ptr %_4, ptr %self.dbg.spill.i2, align 8
  call void @llvm.dbg.declare(metadata ptr %self.dbg.spill.i2, metadata !2754, metadata !DIExpression()), !dbg !2760
  store i8 0, ptr %_3.i, align 1, !dbg !2762
  %5 = load i8, ptr %_3.i, align 1, !dbg !2763, !range !1833, !noundef !27
; call core::sync::atomic::AtomicBool::load
  %6 = call zeroext i1 @_ZN4core4sync6atomic10AtomicBool4load17h7b62477725c86049E(ptr align 1 %_4, i8 %5) #9, !dbg !2763
  br i1 %6, label %bb6.i, label %bb1.i, !dbg !2764

bb6.i:                                            ; preds = %bb4.i
; call core::sync::atomic::spin_loop_hint
  call void @_ZN4core4sync6atomic14spin_loop_hint17h51b4cbffce9829bdE() #9, !dbg !2765
  br label %bb4.i, !dbg !2770

"_ZN4spin5mutex4spin22SpinMutex$LT$T$C$R$GT$4lock17h652f9020ced30125E.exit": ; preds = %bb1.i
  %_14.i = getelementptr inbounds %"spin::mutex::spin::SpinMutex<keyboard::Keyboard<pc_keyboard::layouts::us104::Us104Key, pc_keyboard::scancodes::set1::ScancodeSet1>>", ptr %_4, i32 0, i32 3, !dbg !2771
  store ptr %_14.i, ptr %self.dbg.spill.i.i, align 8
  call void @llvm.dbg.declare(metadata ptr %self.dbg.spill.i.i, metadata !2772, metadata !DIExpression()), !dbg !2779
  store ptr %_4, ptr %0, align 8, !dbg !2781
  %7 = getelementptr inbounds { ptr, ptr }, ptr %0, i32 0, i32 1, !dbg !2781
  store ptr %_14.i, ptr %7, align 8, !dbg !2781
  %8 = load ptr, ptr %0, align 8, !dbg !2782, !nonnull !27, !align !863, !noundef !27
  %9 = getelementptr inbounds { ptr, ptr }, ptr %0, i32 0, i32 1, !dbg !2782
  %10 = load ptr, ptr %9, align 8, !dbg !2782, !noundef !27
  %11 = insertvalue { ptr, ptr } poison, ptr %8, 0, !dbg !2782
  %12 = insertvalue { ptr, ptr } %11, ptr %10, 1, !dbg !2782
  %_2.0.i = extractvalue { ptr, ptr } %12, 0, !dbg !2783
  %_2.1.i = extractvalue { ptr, ptr } %12, 1, !dbg !2783
  store ptr %_2.0.i, ptr %1, align 8, !dbg !2784
  %13 = getelementptr inbounds { ptr, ptr }, ptr %1, i32 0, i32 1, !dbg !2784
  store ptr %_2.1.i, ptr %13, align 8, !dbg !2784
  %14 = load ptr, ptr %1, align 8, !dbg !2785, !nonnull !27, !align !863, !noundef !27
  %15 = getelementptr inbounds { ptr, ptr }, ptr %1, i32 0, i32 1, !dbg !2785
  %16 = load ptr, ptr %15, align 8, !dbg !2785, !noundef !27
  %17 = insertvalue { ptr, ptr } poison, ptr %14, 0, !dbg !2785
  %18 = insertvalue { ptr, ptr } %17, ptr %16, 1, !dbg !2785
  store { ptr, ptr } %18, ptr %keyboard, align 8, !dbg !2732
; call <spin::mutex::MutexGuard<T> as core::ops::deref::DerefMut>::deref_mut
  %_8 = call align 2 ptr @"_ZN79_$LT$spin..mutex..MutexGuard$LT$T$GT$$u20$as$u20$core..ops..deref..DerefMut$GT$9deref_mut17h8e65b03fd28ada54E"(ptr align 8 %keyboard) #9, !dbg !2786
; call keyboard::Keyboard<L,S>::process_decoded_key
  call void @"_ZN8keyboard21Keyboard$LT$L$C$S$GT$19process_decoded_key17hca67919a4c9bef73E"(ptr align 2 %_8) #9, !dbg !2786
; call cpu_interrupts::programmable_interface_controller::notify_end_of_timer_interrupt
  call void @_ZN14cpu_interrupts33programmable_interface_controller29notify_end_of_timer_interrupt17hb60864c7e882d18bE() #9, !dbg !2787
; call core::ptr::drop_in_place<spin::mutex::MutexGuard<keyboard::Keyboard<pc_keyboard::layouts::us104::Us104Key,pc_keyboard::scancodes::set1::ScancodeSet1>>>
  call void @"_ZN4core3ptr160drop_in_place$LT$spin..mutex..MutexGuard$LT$keyboard..Keyboard$LT$pc_keyboard..layouts..us104..Us104Key$C$pc_keyboard..scancodes..set1..ScancodeSet1$GT$$GT$$GT$17h720e073238dc1378E"(ptr align 8 %keyboard) #9, !dbg !2788
  ret void, !dbg !2789
}

; theo::interrupts::keyboard_handler::{{closure}}
; Function Attrs: inlinehint noredzone nounwind
define internal void @"_ZN4theo10interrupts16keyboard_handler28_$u7b$$u7b$closure$u7d$$u7d$17he75a54f400da545bE"(i64 %0) unnamed_addr #0 !dbg !2790 {
start:
  %f.dbg.spill.i.i = alloca ptr, align 8
  %x.dbg.spill.i.i = alloca ptr, align 8
  %1 = alloca { ptr, ptr }, align 8
  %x.dbg.spill.i4 = alloca ptr, align 8
  %f.dbg.spill.i = alloca ptr, align 8
  %x.dbg.spill.i3 = alloca ptr, align 8
  %2 = alloca { ptr, ptr }, align 8
  %x.dbg.spill.i = alloca ptr, align 8
  %_1.dbg.spill = alloca %"[closure@src/interrupts.rs:43:34: 43:59]", align 1
  %_17 = alloca [1 x { ptr, ptr }], align 8
  %_13 = alloca %"core::fmt::Arguments<'_>", align 8
  %decoded_key2 = alloca i8, align 1
  %_9 = alloca [1 x { ptr, ptr }], align 8
  %_5 = alloca %"core::fmt::Arguments<'_>", align 8
  %decoded_key1 = alloca i32, align 4
  %3 = alloca i64, align 8
  %decoded_key = alloca %"pc_keyboard::DecodedKey", align 4
  store i64 %0, ptr %3, align 8
  call void @llvm.memcpy.p0.p0.i64(ptr align 4 %decoded_key, ptr align 8 %3, i64 8, i1 false)
  call void @llvm.dbg.declare(metadata ptr %_1.dbg.spill, metadata !2799, metadata !DIExpression()), !dbg !2800
  call void @llvm.dbg.declare(metadata ptr %decoded_key, metadata !2794, metadata !DIExpression()), !dbg !2801
  call void @llvm.dbg.declare(metadata ptr %decoded_key1, metadata !2795, metadata !DIExpression()), !dbg !2802
  call void @llvm.dbg.declare(metadata ptr %decoded_key2, metadata !2797, metadata !DIExpression()), !dbg !2803
  %4 = load i8, ptr %decoded_key, align 4, !dbg !2804, !range !995, !noundef !27
  %5 = trunc i8 %4 to i1, !dbg !2804
  %_3 = zext i1 %5 to i64, !dbg !2804
  %6 = icmp eq i64 %_3, 0, !dbg !2805
  br i1 %6, label %bb1, label %bb3, !dbg !2805

bb1:                                              ; preds = %start
  %7 = getelementptr inbounds %"pc_keyboard::DecodedKey::RawKey", ptr %decoded_key, i32 0, i32 1, !dbg !2806
  %8 = load i8, ptr %7, align 1, !dbg !2806, !range !948, !noundef !27
  store i8 %8, ptr %decoded_key2, align 1, !dbg !2806
  store ptr %decoded_key2, ptr %x.dbg.spill.i4, align 8
  call void @llvm.dbg.declare(metadata ptr %x.dbg.spill.i4, metadata !2807, metadata !DIExpression()), !dbg !2816
  store ptr %decoded_key2, ptr %x.dbg.spill.i.i, align 8
  call void @llvm.dbg.declare(metadata ptr %x.dbg.spill.i.i, metadata !2818, metadata !DIExpression()), !dbg !2828
  store ptr @"_ZN57_$LT$pc_keyboard..KeyCode$u20$as$u20$core..fmt..Debug$GT$3fmt17h3a20f5702c7f6e79E", ptr %f.dbg.spill.i.i, align 8
  call void @llvm.dbg.declare(metadata ptr %f.dbg.spill.i.i, metadata !2827, metadata !DIExpression()), !dbg !2830
  store ptr %decoded_key2, ptr %1, align 8, !dbg !2831
  %9 = getelementptr inbounds { ptr, ptr }, ptr %1, i32 0, i32 1, !dbg !2831
  store ptr @"_ZN57_$LT$pc_keyboard..KeyCode$u20$as$u20$core..fmt..Debug$GT$3fmt17h3a20f5702c7f6e79E", ptr %9, align 8, !dbg !2831
  %10 = load ptr, ptr %1, align 8, !dbg !2832, !nonnull !27, !align !863, !noundef !27
  %11 = getelementptr inbounds { ptr, ptr }, ptr %1, i32 0, i32 1, !dbg !2832
  %12 = load ptr, ptr %11, align 8, !dbg !2832, !nonnull !27, !noundef !27
  %13 = insertvalue { ptr, ptr } poison, ptr %10, 0, !dbg !2832
  %14 = insertvalue { ptr, ptr } %13, ptr %12, 1, !dbg !2832
  %15 = insertvalue { ptr, ptr } poison, ptr %10, 0, !dbg !2833
  %16 = insertvalue { ptr, ptr } %15, ptr %12, 1, !dbg !2833
  %_18.0 = extractvalue { ptr, ptr } %16, 0, !dbg !2834
  %_18.1 = extractvalue { ptr, ptr } %16, 1, !dbg !2834
  %17 = getelementptr inbounds [1 x { ptr, ptr }], ptr %_17, i64 0, i64 0, !dbg !2834
  %18 = getelementptr inbounds { ptr, ptr }, ptr %17, i32 0, i32 0, !dbg !2834
  store ptr %_18.0, ptr %18, align 8, !dbg !2834
  %19 = getelementptr inbounds { ptr, ptr }, ptr %17, i32 0, i32 1, !dbg !2834
  store ptr %_18.1, ptr %19, align 8, !dbg !2834
; call core::fmt::Arguments::new_v1
  call void @_ZN4core3fmt9Arguments6new_v117h230bc6ec1daacb1aE(ptr sret(%"core::fmt::Arguments<'_>") %_13, ptr align 8 @alloc_ffa3cdb3ae88e54a1cc225f31dd07672, i64 1, ptr align 8 %_17, i64 1) #9, !dbg !2834
; call theo::peripherals::_print
  call void @_ZN4theo11peripherals6_print17h9573893754ff211cE(ptr %_13) #9, !dbg !2834
  br label %bb8, !dbg !2834

bb3:                                              ; preds = %start
  %20 = getelementptr inbounds %"pc_keyboard::DecodedKey::Unicode", ptr %decoded_key, i32 0, i32 1, !dbg !2835
  %21 = load i32, ptr %20, align 4, !dbg !2835, !range !2836, !noundef !27
  store i32 %21, ptr %decoded_key1, align 4, !dbg !2835
  store ptr %decoded_key1, ptr %x.dbg.spill.i, align 8
  call void @llvm.dbg.declare(metadata ptr %x.dbg.spill.i, metadata !2837, metadata !DIExpression()), !dbg !2846
  store ptr %decoded_key1, ptr %x.dbg.spill.i3, align 8
  call void @llvm.dbg.declare(metadata ptr %x.dbg.spill.i3, metadata !2848, metadata !DIExpression()), !dbg !2858
  store ptr @"_ZN43_$LT$char$u20$as$u20$core..fmt..Display$GT$3fmt17hd997861c5b71e5e4E", ptr %f.dbg.spill.i, align 8
  call void @llvm.dbg.declare(metadata ptr %f.dbg.spill.i, metadata !2857, metadata !DIExpression()), !dbg !2860
  store ptr %decoded_key1, ptr %2, align 8, !dbg !2861
  %22 = getelementptr inbounds { ptr, ptr }, ptr %2, i32 0, i32 1, !dbg !2861
  store ptr @"_ZN43_$LT$char$u20$as$u20$core..fmt..Display$GT$3fmt17hd997861c5b71e5e4E", ptr %22, align 8, !dbg !2861
  %23 = load ptr, ptr %2, align 8, !dbg !2862, !nonnull !27, !align !863, !noundef !27
  %24 = getelementptr inbounds { ptr, ptr }, ptr %2, i32 0, i32 1, !dbg !2862
  %25 = load ptr, ptr %24, align 8, !dbg !2862, !nonnull !27, !noundef !27
  %26 = insertvalue { ptr, ptr } poison, ptr %23, 0, !dbg !2862
  %27 = insertvalue { ptr, ptr } %26, ptr %25, 1, !dbg !2862
  %28 = extractvalue { ptr, ptr } %27, 0, !dbg !2863
  %29 = extractvalue { ptr, ptr } %27, 1, !dbg !2863
  %_10.0 = extractvalue { ptr, ptr } %27, 0, !dbg !2864
  %_10.1 = extractvalue { ptr, ptr } %27, 1, !dbg !2864
  %30 = getelementptr inbounds [1 x { ptr, ptr }], ptr %_9, i64 0, i64 0, !dbg !2864
  %31 = getelementptr inbounds { ptr, ptr }, ptr %30, i32 0, i32 0, !dbg !2864
  store ptr %_10.0, ptr %31, align 8, !dbg !2864
  %32 = getelementptr inbounds { ptr, ptr }, ptr %30, i32 0, i32 1, !dbg !2864
  store ptr %_10.1, ptr %32, align 8, !dbg !2864
; call core::fmt::Arguments::new_v1
  call void @_ZN4core3fmt9Arguments6new_v117h230bc6ec1daacb1aE(ptr sret(%"core::fmt::Arguments<'_>") %_5, ptr align 8 @alloc_ffa3cdb3ae88e54a1cc225f31dd07672, i64 1, ptr align 8 %_9, i64 1) #9, !dbg !2864
; call theo::peripherals::_print
  call void @_ZN4theo11peripherals6_print17h9573893754ff211cE(ptr %_5) #9, !dbg !2864
  br label %bb8, !dbg !2864

bb2:                                              ; No predecessors!
  unreachable, !dbg !2804

bb8:                                              ; preds = %bb1, %bb3
  ret void, !dbg !2865
}

; theo::interrupts::initialize
; Function Attrs: noredzone nounwind
define internal void @_ZN4theo10interrupts10initialize17h8cb08055fa82b10aE() unnamed_addr #1 !dbg !2866 {
start:
  %f.dbg.spill.i = alloca ptr, align 8
  %x.dbg.spill.i1 = alloca ptr, align 8
  %0 = alloca { ptr, ptr }, align 8
  %x.dbg.spill.i = alloca ptr, align 8
  %_13 = alloca [1 x { ptr, ptr }], align 8
  %_9 = alloca %"core::fmt::Arguments<'_>", align 8
  %s = alloca { ptr, i64 }, align 8
  %_2 = alloca %"core::result::Result<bool, &str>", align 8
  call void @llvm.dbg.declare(metadata ptr %s, metadata !2868, metadata !DIExpression()), !dbg !2870
; call cpu_interrupts::global_descriptor_table::initialize
  call void @_ZN14cpu_interrupts23global_descriptor_table10initialize17h309abcb5da30d315E() #9, !dbg !2871
; call <theo::interrupts::SAFE_IDT as core::ops::deref::Deref>::deref
  %_4 = call align 16 ptr @"_ZN70_$LT$theo..interrupts..SAFE_IDT$u20$as$u20$core..ops..deref..Deref$GT$5deref17h8f6df3dd42b3bdeaE"(ptr align 1 @_ZN4theo10interrupts8SAFE_IDT17he302f5fd00e5ec72E) #9, !dbg !2872
; call cpu_interrupts::interrupt_descriptor_table::SafeInterruptDescriptorTable::load
  call void @_ZN14cpu_interrupts26interrupt_descriptor_table28SafeInterruptDescriptorTable4load17h1a1100e765705827E(ptr sret(%"core::result::Result<bool, &str>") %_2, ptr align 16 %_4) #9, !dbg !2872
  %1 = load ptr, ptr %_2, align 8, !dbg !2872, !noundef !27
  %2 = ptrtoint ptr %1 to i64, !dbg !2872
  %3 = icmp eq i64 %2, 0, !dbg !2872
  %_6 = select i1 %3, i64 0, i64 1, !dbg !2872
  %4 = icmp eq i64 %_6, 0, !dbg !2873
  br i1 %4, label %bb4, label %bb6, !dbg !2873

bb4:                                              ; preds = %start
; call cpu_interrupts::programmable_interface_controller::initialize
  call void @_ZN14cpu_interrupts33programmable_interface_controller10initialize17h3815523a84aef0f4E() #9, !dbg !2874
; call cpu_interrupts::enable
  call void @_ZN14cpu_interrupts6enable17hc7aca23739976ab9E() #9, !dbg !2875
  ret void, !dbg !2876

bb6:                                              ; preds = %start
  %5 = getelementptr inbounds { ptr, i64 }, ptr %_2, i32 0, i32 0, !dbg !2877
  %6 = load ptr, ptr %5, align 8, !dbg !2877, !nonnull !27, !align !863, !noundef !27
  %7 = getelementptr inbounds { ptr, i64 }, ptr %_2, i32 0, i32 1, !dbg !2877
  %8 = load i64, ptr %7, align 8, !dbg !2877, !noundef !27
  %9 = getelementptr inbounds { ptr, i64 }, ptr %s, i32 0, i32 0, !dbg !2877
  store ptr %6, ptr %9, align 8, !dbg !2877
  %10 = getelementptr inbounds { ptr, i64 }, ptr %s, i32 0, i32 1, !dbg !2877
  store i64 %8, ptr %10, align 8, !dbg !2877
  store ptr %s, ptr %x.dbg.spill.i, align 8
  call void @llvm.dbg.declare(metadata ptr %x.dbg.spill.i, metadata !2878, metadata !DIExpression()), !dbg !2887
  store ptr %s, ptr %x.dbg.spill.i1, align 8
  call void @llvm.dbg.declare(metadata ptr %x.dbg.spill.i1, metadata !2889, metadata !DIExpression()), !dbg !2899
  store ptr @"_ZN44_$LT$$RF$T$u20$as$u20$core..fmt..Display$GT$3fmt17h7ea2d818bdeecbeaE", ptr %f.dbg.spill.i, align 8
  call void @llvm.dbg.declare(metadata ptr %f.dbg.spill.i, metadata !2898, metadata !DIExpression()), !dbg !2901
