; ModuleID = 'x86_64.701fe55f-cgu.0'
source_filename = "x86_64.701fe55f-cgu.0"
target datalayout = "e-m:e-i64:64-f80:128-n8:16:32:64-S128"
target triple = "x86_64-obuasi-unknown-none"

%"core::result::Result<(structures::paging::frame::PhysFrame<structures::paging::page::Size2MiB>, structures::paging::mapper::MapperFlush<structures::paging::page::Size2MiB>), structures::paging::mapper::UnmapError>" = type { i64, [2 x i64] }
%"core::result::Result<(structures::paging::frame::PhysFrame<structures::paging::page::Size2MiB>, structures::paging::mapper::MapperFlush<structures::paging::page::Size2MiB>), structures::paging::mapper::UnmapError>::Err" = type { [1 x i64], { i64, i64 } }
%"core::result::Result<(structures::paging::frame::PhysFrame<structures::paging::page::Size1GiB>, structures::paging::mapper::MapperFlush<structures::paging::page::Size1GiB>), structures::paging::mapper::UnmapError>" = type { i64, [2 x i64] }
%"core::result::Result<(structures::paging::frame::PhysFrame<structures::paging::page::Size1GiB>, structures::paging::mapper::MapperFlush<structures::paging::page::Size1GiB>), structures::paging::mapper::UnmapError>::Err" = type { [1 x i64], { i64, i64 } }
%"core::result::Result<(structures::paging::frame::PhysFrame, structures::paging::mapper::MapperFlush<structures::paging::page::Size4KiB>), structures::paging::mapper::UnmapError>" = type { i64, [2 x i64] }
%"core::result::Result<(structures::paging::frame::PhysFrame, structures::paging::mapper::MapperFlush<structures::paging::page::Size4KiB>), structures::paging::mapper::UnmapError>::Err" = type { [1 x i64], { i64, i64 } }
%"core::fmt::builders::DebugList<'_, '_>" = type { %"core::fmt::builders::DebugInner<'_, '_>" }
%"core::fmt::builders::DebugInner<'_, '_>" = type { ptr, i8, i8, [6 x i8] }
%"core::fmt::Arguments<'_>" = type { { ptr, i64 }, { ptr, i64 }, { ptr, i64 } }
%"core::fmt::UnsafeArg" = type { {} }
%"core::ptr::metadata::PtrComponents<u64>" = type { ptr, {} }
%"core::ptr::metadata::PtrRepr<u64>" = type { [1 x i64] }
%"core::ptr::metadata::PtrComponents<structures::paging::page_table::PageTableEntry>" = type { ptr, {} }
%"core::ptr::metadata::PtrRepr<structures::paging::page_table::PageTableEntry>" = type { [1 x i64] }
%"core::ptr::metadata::PtrComponents<addr::VirtAddr>" = type { ptr, {} }
%"core::ptr::metadata::PtrRepr<addr::VirtAddr>" = type { [1 x i64] }
%"core::ptr::metadata::PtrComponents<structures::idt::Entry<extern \22x86-interrupt\22 fn(structures::idt::InterruptStackFrame)>>" = type { ptr, {} }
%"core::ptr::metadata::PtrRepr<structures::idt::Entry<extern \22x86-interrupt\22 fn(structures::idt::InterruptStackFrame)>>" = type { [1 x i64] }
%"core::ops::range::RangeFull" = type {}
%"structures::idt::Entry<extern \22x86-interrupt\22 fn(structures::idt::InterruptStackFrame)>" = type { i16, i16, i16, i16, i32, i32, %"core::marker::PhantomData<extern \22x86-interrupt\22 fn(structures::idt::InterruptStackFrame)>" }
%"core::marker::PhantomData<extern \22x86-interrupt\22 fn(structures::idt::InterruptStackFrame)>" = type {}
%"core::num::error::TryFromIntError" = type { {} }
%"core::result::Result<structures::paging::frame::PhysFrame<structures::paging::page::Size2MiB>, structures::paging::mapper::TranslateError>" = type { i64, [1 x i64] }
%"structures::paging::page::AddressNotAligned" = type {}
%"structures::paging::frame::PhysFrame<structures::paging::page::Size2MiB>" = type { i64, %"core::marker::PhantomData<structures::paging::page::Size2MiB>" }
%"core::marker::PhantomData<structures::paging::page::Size2MiB>" = type {}
%"core::result::Result<structures::paging::frame::PhysFrame<structures::paging::page::Size2MiB>, structures::paging::page::AddressNotAligned>::Ok" = type { [1 x i64], %"structures::paging::frame::PhysFrame<structures::paging::page::Size2MiB>" }
%"core::result::Result<structures::paging::frame::PhysFrame<structures::paging::page::Size2MiB>, structures::paging::mapper::TranslateError>::Ok" = type { [1 x i64], %"structures::paging::frame::PhysFrame<structures::paging::page::Size2MiB>" }
%"core::result::Result<structures::paging::frame::PhysFrame, structures::paging::mapper::UnmapError>" = type { i64, [1 x i64] }
%"[closure@/Users/yaw/.cargo/registry/src/github.com-1ecc6299db9ec823/x86_64-0.14.10/src/structures/paging/mapper/recursive_page_table.rs:433:34: 433:39]" = type {}
%"structures::paging::frame::PhysFrame" = type { i64, %"core::marker::PhantomData<structures::paging::page::Size4KiB>" }
%"core::marker::PhantomData<structures::paging::page::Size4KiB>" = type {}
%"core::result::Result<structures::paging::frame::PhysFrame, structures::paging::page_table::FrameError>::Ok" = type { [1 x i64], %"structures::paging::frame::PhysFrame" }
%"core::result::Result<structures::paging::frame::PhysFrame, structures::paging::mapper::UnmapError>::Ok" = type { [1 x i64], %"structures::paging::frame::PhysFrame" }
%"core::result::Result<structures::paging::frame::PhysFrame, structures::paging::page_table::FrameError>::Err" = type { [1 x i8], i8 }
%"[closure@/Users/yaw/.cargo/registry/src/github.com-1ecc6299db9ec823/x86_64-0.14.10/src/structures/paging/mapper/recursive_page_table.rs:440:34: 440:39]" = type {}
%"[closure@/Users/yaw/.cargo/registry/src/github.com-1ecc6299db9ec823/x86_64-0.14.10/src/structures/paging/mapper/recursive_page_table.rs:602:34: 602:39]" = type {}
%"core::result::Result<structures::paging::frame::PhysFrame<structures::paging::page::Size1GiB>, structures::paging::mapper::UnmapError>" = type { i64, [1 x i64] }
%"structures::paging::frame::PhysFrame<structures::paging::page::Size1GiB>" = type { i64, %"core::marker::PhantomData<structures::paging::page::Size1GiB>" }
%"core::marker::PhantomData<structures::paging::page::Size1GiB>" = type {}
%"core::result::Result<structures::paging::frame::PhysFrame<structures::paging::page::Size1GiB>, structures::paging::page::AddressNotAligned>::Ok" = type { [1 x i64], %"structures::paging::frame::PhysFrame<structures::paging::page::Size1GiB>" }
%"core::result::Result<structures::paging::frame::PhysFrame<structures::paging::page::Size1GiB>, structures::paging::mapper::UnmapError>::Ok" = type { [1 x i64], %"structures::paging::frame::PhysFrame<structures::paging::page::Size1GiB>" }
%"core::result::Result<structures::paging::frame::PhysFrame<structures::paging::page::Size2MiB>, structures::paging::mapper::UnmapError>" = type { i64, [1 x i64] }
%"core::result::Result<structures::paging::frame::PhysFrame<structures::paging::page::Size2MiB>, structures::paging::mapper::UnmapError>::Ok" = type { [1 x i64], %"structures::paging::frame::PhysFrame<structures::paging::page::Size2MiB>" }
%"[closure@/Users/yaw/.cargo/registry/src/github.com-1ecc6299db9ec823/x86_64-0.14.10/src/structures/paging/mapper/recursive_page_table.rs:595:34: 595:39]" = type {}
%"[closure@/Users/yaw/.cargo/registry/src/github.com-1ecc6299db9ec823/x86_64-0.14.10/src/structures/paging/mapper/recursive_page_table.rs:588:34: 588:39]" = type {}
%"core::result::Result<structures::paging::frame::PhysFrame, structures::paging::mapper::TranslateError>" = type { i64, [1 x i64] }
%"core::result::Result<structures::paging::frame::PhysFrame, structures::paging::page::AddressNotAligned>::Ok" = type { [1 x i64], %"structures::paging::frame::PhysFrame" }
%"core::result::Result<structures::paging::frame::PhysFrame, structures::paging::mapper::TranslateError>::Ok" = type { [1 x i64], %"structures::paging::frame::PhysFrame" }
%"[closure@/Users/yaw/.cargo/registry/src/github.com-1ecc6299db9ec823/x86_64-0.14.10/src/structures/paging/mapper/recursive_page_table.rs:610:46: 610:51]" = type {}
%"[closure@/Users/yaw/.cargo/registry/src/github.com-1ecc6299db9ec823/x86_64-0.14.10/src/structures/paging/mapper/recursive_page_table.rs:314:34: 314:39]" = type {}
%"core::result::Result<structures::paging::frame::PhysFrame<structures::paging::page::Size1GiB>, structures::paging::mapper::TranslateError>" = type { i64, [1 x i64] }
%"core::result::Result<structures::paging::frame::PhysFrame<structures::paging::page::Size1GiB>, structures::paging::mapper::TranslateError>::Ok" = type { [1 x i64], %"structures::paging::frame::PhysFrame<structures::paging::page::Size1GiB>" }
%"core::ops::control_flow::ControlFlow<core::result::Result<core::convert::Infallible, structures::paging::mapper::UnmapError>, structures::paging::frame::PhysFrame<structures::paging::page::Size2MiB>>" = type { i64, [1 x i64] }
%"core::ops::control_flow::ControlFlow<core::result::Result<core::convert::Infallible, structures::paging::mapper::UnmapError>, structures::paging::frame::PhysFrame<structures::paging::page::Size2MiB>>::Continue" = type { [1 x i64], %"structures::paging::frame::PhysFrame<structures::paging::page::Size2MiB>" }
%"core::ops::control_flow::ControlFlow<core::result::Result<core::convert::Infallible, structures::paging::mapper::UnmapError>, structures::paging::frame::PhysFrame>" = type { i64, [1 x i64] }
%"core::ops::control_flow::ControlFlow<core::result::Result<core::convert::Infallible, structures::paging::mapper::UnmapError>, structures::paging::frame::PhysFrame>::Continue" = type { [1 x i64], %"structures::paging::frame::PhysFrame" }
%"core::ops::control_flow::ControlFlow<core::result::Result<core::convert::Infallible, structures::paging::mapper::UnmapError>, structures::paging::frame::PhysFrame<structures::paging::page::Size1GiB>>" = type { i64, [1 x i64] }
%"core::ops::control_flow::ControlFlow<core::result::Result<core::convert::Infallible, structures::paging::mapper::UnmapError>, structures::paging::frame::PhysFrame<structures::paging::page::Size1GiB>>::Continue" = type { [1 x i64], %"structures::paging::frame::PhysFrame<structures::paging::page::Size1GiB>" }
%"core::option::Option<core::convert::Infallible>::None" = type {}
%"core::fmt::rt::v1::FormatSpec" = type { { i64, i64 }, { i64, i64 }, i32, i32, i8, [7 x i8] }
%"core::fmt::rt::v1::Argument" = type { %"core::fmt::rt::v1::FormatSpec", i64 }
%"core::fmt::builders::DebugTuple<'_, '_>" = type { i64, ptr, i8, i8, [6 x i8] }
%"core::result::Result<instructions::tlb::Pcid, &str>" = type { ptr, [1 x i64] }
%"core::result::Result<instructions::tlb::Pcid, &str>::Ok" = type { [4 x i16], i16 }
%"core::fmt::builders::DebugStruct<'_, '_>" = type { ptr, i8, i8, [6 x i8] }
%"structures::DescriptorTablePointer" = type <{ i16, i64 }>
%"structures::gdt::GlobalDescriptorTable" = type { [8 x i64], i64 }
%"structures::idt::Entry<extern \22x86-interrupt\22 fn(structures::idt::InterruptStackFrame, structures::idt::PageFaultErrorCode)>" = type { i16, i16, i16, i16, i32, i32, %"core::marker::PhantomData<extern \22x86-interrupt\22 fn(structures::idt::InterruptStackFrame, structures::idt::PageFaultErrorCode)>" }
%"core::marker::PhantomData<extern \22x86-interrupt\22 fn(structures::idt::InterruptStackFrame, structures::idt::PageFaultErrorCode)>" = type {}
%"structures::idt::Entry<extern \22x86-interrupt\22 fn(structures::idt::InterruptStackFrame, u64) -> !>" = type { i16, i16, i16, i16, i32, i32, %"core::marker::PhantomData<extern \22x86-interrupt\22 fn(structures::idt::InterruptStackFrame, u64) -> !>" }
%"core::marker::PhantomData<extern \22x86-interrupt\22 fn(structures::idt::InterruptStackFrame, u64) -> !>" = type {}
%"structures::idt::Entry<extern \22x86-interrupt\22 fn(structures::idt::InterruptStackFrame, u64)>" = type { i16, i16, i16, i16, i32, i32, %"core::marker::PhantomData<extern \22x86-interrupt\22 fn(structures::idt::InterruptStackFrame, u64)>" }
%"core::marker::PhantomData<extern \22x86-interrupt\22 fn(structures::idt::InterruptStackFrame, u64)>" = type {}
%"structures::idt::Entry<extern \22x86-interrupt\22 fn(structures::idt::InterruptStackFrame) -> !>" = type { i16, i16, i16, i16, i32, i32, %"core::marker::PhantomData<extern \22x86-interrupt\22 fn(structures::idt::InterruptStackFrame) -> !>" }
%"core::marker::PhantomData<extern \22x86-interrupt\22 fn(structures::idt::InterruptStackFrame) -> !>" = type {}
%"structures::idt::InterruptStackFrameValue" = type { i64, i64, i64, i64, i64 }
%"core::result::Result<structures::paging::frame::PhysFrame, structures::paging::page::AddressNotAligned>" = type { i64, [1 x i64] }
%"core::result::Result<structures::paging::frame::PhysFrame<structures::paging::page::Size2MiB>, structures::paging::page::AddressNotAligned>" = type { i64, [1 x i64] }
%"core::result::Result<structures::paging::frame::PhysFrame<structures::paging::page::Size1GiB>, structures::paging::page::AddressNotAligned>" = type { i64, [1 x i64] }
%"structures::paging::page::Page<structures::paging::page::Size1GiB>" = type { i64, %"core::marker::PhantomData<structures::paging::page::Size1GiB>" }
%"structures::paging::mapper::MapperFlush<structures::paging::page::Size1GiB>" = type { %"structures::paging::page::Page<structures::paging::page::Size1GiB>" }
%"core::result::Result<structures::paging::frame::PhysFrame, structures::paging::page_table::FrameError>" = type { i8, [15 x i8] }
%"core::result::Result<(structures::paging::frame::PhysFrame<structures::paging::page::Size1GiB>, structures::paging::mapper::MapperFlush<structures::paging::page::Size1GiB>), structures::paging::mapper::UnmapError>::Ok" = type { [1 x i64], { %"structures::paging::frame::PhysFrame<structures::paging::page::Size1GiB>", %"structures::paging::mapper::MapperFlush<structures::paging::page::Size1GiB>" } }
%"core::result::Result<structures::paging::mapper::MapperFlush<structures::paging::page::Size1GiB>, structures::paging::mapper::FlagUpdateError>" = type { i8, [15 x i8] }
%"core::result::Result<structures::paging::mapper::MapperFlush<structures::paging::page::Size1GiB>, structures::paging::mapper::FlagUpdateError>::Err" = type { [1 x i8], i8 }
%"core::result::Result<structures::paging::mapper::MapperFlush<structures::paging::page::Size1GiB>, structures::paging::mapper::FlagUpdateError>::Ok" = type { [1 x i64], %"structures::paging::mapper::MapperFlush<structures::paging::page::Size1GiB>" }
%"structures::paging::page::Page<structures::paging::page::Size2MiB>" = type { i64, %"core::marker::PhantomData<structures::paging::page::Size2MiB>" }
%"structures::paging::mapper::MapperFlush<structures::paging::page::Size2MiB>" = type { %"structures::paging::page::Page<structures::paging::page::Size2MiB>" }
%"core::result::Result<(structures::paging::frame::PhysFrame<structures::paging::page::Size2MiB>, structures::paging::mapper::MapperFlush<structures::paging::page::Size2MiB>), structures::paging::mapper::UnmapError>::Ok" = type { [1 x i64], { %"structures::paging::frame::PhysFrame<structures::paging::page::Size2MiB>", %"structures::paging::mapper::MapperFlush<structures::paging::page::Size2MiB>" } }
%"core::result::Result<structures::paging::mapper::MapperFlush<structures::paging::page::Size2MiB>, structures::paging::mapper::FlagUpdateError>" = type { i8, [15 x i8] }
%"core::result::Result<structures::paging::mapper::MapperFlush<structures::paging::page::Size2MiB>, structures::paging::mapper::FlagUpdateError>::Err" = type { [1 x i8], i8 }
%"core::result::Result<structures::paging::mapper::MapperFlush<structures::paging::page::Size2MiB>, structures::paging::mapper::FlagUpdateError>::Ok" = type { [1 x i64], %"structures::paging::mapper::MapperFlush<structures::paging::page::Size2MiB>" }
%"structures::paging::page::Page" = type { i64, %"core::marker::PhantomData<structures::paging::page::Size4KiB>" }
%"structures::paging::mapper::MapperFlush<structures::paging::page::Size4KiB>" = type { %"structures::paging::page::Page" }
%"core::result::Result<(structures::paging::frame::PhysFrame, structures::paging::mapper::MapperFlush<structures::paging::page::Size4KiB>), structures::paging::mapper::UnmapError>::Ok" = type { [1 x i64], { %"structures::paging::frame::PhysFrame", %"structures::paging::mapper::MapperFlush<structures::paging::page::Size4KiB>" } }
%"core::result::Result<structures::paging::mapper::MapperFlush<structures::paging::page::Size4KiB>, structures::paging::mapper::FlagUpdateError>" = type { i8, [15 x i8] }
%"core::result::Result<structures::paging::mapper::MapperFlush<structures::paging::page::Size4KiB>, structures::paging::mapper::FlagUpdateError>::Err" = type { [1 x i8], i8 }
%"core::result::Result<structures::paging::mapper::MapperFlush<structures::paging::page::Size4KiB>, structures::paging::mapper::FlagUpdateError>::Ok" = type { [1 x i64], %"structures::paging::mapper::MapperFlush<structures::paging::page::Size4KiB>" }
%"structures::paging::mapper::TranslateResult" = type { i64, [3 x i64] }
%"structures::paging::mapper::MappedFrame" = type { i64, [1 x i64] }
%"structures::paging::mapper::MappedFrame::Size1GiB" = type { [1 x i64], %"structures::paging::frame::PhysFrame<structures::paging::page::Size1GiB>" }
%"structures::paging::mapper::TranslateResult::Mapped" = type { %"structures::paging::mapper::MappedFrame", i64, i64 }
%"structures::paging::mapper::MappedFrame::Size2MiB" = type { [1 x i64], %"structures::paging::frame::PhysFrame<structures::paging::page::Size2MiB>" }
%"structures::paging::mapper::MappedFrame::Size4KiB" = type { [1 x i64], %"structures::paging::frame::PhysFrame" }
%"structures::paging::mapper::TranslateResult::InvalidFrameAddress" = type { [1 x i64], i64 }
%"structures::paging::page_table::PageTable" = type { [512 x i64] }
%"instructions::tlb::InvPicdCommand::Address" = type { [1 x i16], i16, [2 x i16], i64 }
%"instructions::tlb::InvPicdCommand::Single" = type { [1 x i16], i16 }
%"core::result::Result<core::convert::Infallible, core::fmt::Error>::Err" = type { %"core::fmt::Error" }
%"core::fmt::Error" = type {}
%"structures::gdt::Descriptor::UserSegment" = type { [1 x i64], i64 }
%"structures::gdt::Descriptor::SystemSegment" = type { [1 x i64], i64, i64 }
%"structures::idt::InterruptDescriptorTable" = type { %"structures::idt::Entry<extern \22x86-interrupt\22 fn(structures::idt::InterruptStackFrame)>", %"structures::idt::Entry<extern \22x86-interrupt\22 fn(structures::idt::InterruptStackFrame)>", %"structures::idt::Entry<extern \22x86-interrupt\22 fn(structures::idt::InterruptStackFrame)>", %"structures::idt::Entry<extern \22x86-interrupt\22 fn(structures::idt::InterruptStackFrame)>", %"structures::idt::Entry<extern \22x86-interrupt\22 fn(structures::idt::InterruptStackFrame)>", %"structures::idt::Entry<extern \22x86-interrupt\22 fn(structures::idt::InterruptStackFrame)>", %"structures::idt::Entry<extern \22x86-interrupt\22 fn(structures::idt::InterruptStackFrame)>", %"structures::idt::Entry<extern \22x86-interrupt\22 fn(structures::idt::InterruptStackFrame)>", %"structures::idt::Entry<extern \22x86-interrupt\22 fn(structures::idt::InterruptStackFrame, u64) -> !>", %"structures::idt::Entry<extern \22x86-interrupt\22 fn(structures::idt::InterruptStackFrame)>", %"structures::idt::Entry<extern \22x86-interrupt\22 fn(structures::idt::InterruptStackFrame, u64)>", %"structures::idt::Entry<extern \22x86-interrupt\22 fn(structures::idt::InterruptStackFrame, u64)>", %"structures::idt::Entry<extern \22x86-interrupt\22 fn(structures::idt::InterruptStackFrame, u64)>", %"structures::idt::Entry<extern \22x86-interrupt\22 fn(structures::idt::InterruptStackFrame, u64)>", %"structures::idt::Entry<extern \22x86-interrupt\22 fn(structures::idt::InterruptStackFrame, structures::idt::PageFaultErrorCode)>", %"structures::idt::Entry<extern \22x86-interrupt\22 fn(structures::idt::InterruptStackFrame)>", %"structures::idt::Entry<extern \22x86-interrupt\22 fn(structures::idt::InterruptStackFrame)>", %"structures::idt::Entry<extern \22x86-interrupt\22 fn(structures::idt::InterruptStackFrame, u64)>", %"structures::idt::Entry<extern \22x86-interrupt\22 fn(structures::idt::InterruptStackFrame) -> !>", %"structures::idt::Entry<extern \22x86-interrupt\22 fn(structures::idt::InterruptStackFrame)>", %"structures::idt::Entry<extern \22x86-interrupt\22 fn(structures::idt::InterruptStackFrame)>", [8 x %"structures::idt::Entry<extern \22x86-interrupt\22 fn(structures::idt::InterruptStackFrame)>"], %"structures::idt::Entry<extern \22x86-interrupt\22 fn(structures::idt::InterruptStackFrame, u64)>", %"structures::idt::Entry<extern \22x86-interrupt\22 fn(structures::idt::InterruptStackFrame, u64)>", %"structures::idt::Entry<extern \22x86-interrupt\22 fn(structures::idt::InterruptStackFrame)>", [224 x %"structures::idt::Entry<extern \22x86-interrupt\22 fn(structures::idt::InterruptStackFrame)>"] }
%"structures::tss::TaskStateSegment" = type <{ i32, [3 x i64], i64, [7 x i64], i64, i16, i16 }>

@alloc9581 = private unnamed_addr constant <{ [48 x i8] }> <{ [48 x i8] c"assertion failed: range.start < Self::BIT_LENGTH" }>, align 1
@alloc9613 = private unnamed_addr constant <{ [86 x i8] }> <{ [86 x i8] c"/Users/yaw/.cargo/registry/src/github.com-1ecc6299db9ec823/bit_field-0.10.1/src/lib.rs" }>, align 1
@alloc9567 = private unnamed_addr constant <{ ptr, [16 x i8] }> <{ ptr @alloc9613, [16 x i8] c"V\00\00\00\00\00\00\00\11\01\00\00\01\00\00\00" }>, align 8
@alloc9582 = private unnamed_addr constant <{ [47 x i8] }> <{ [47 x i8] c"assertion failed: range.end <= Self::BIT_LENGTH" }>, align 1
@alloc9583 = private unnamed_addr constant <{ [41 x i8] }> <{ [41 x i8] c"assertion failed: range.start < range.end" }>, align 1
@str.0 = internal constant [33 x i8] c"attempt to subtract with overflow"
@str.1 = internal constant [35 x i8] c"attempt to shift left with overflow"
@str.2 = internal constant [36 x i8] c"attempt to shift right with overflow"
@alloc9570 = private unnamed_addr constant <{ [40 x i8] }> <{ [40 x i8] c"assertion failed: bit < Self::BIT_LENGTH" }>, align 1
@alloc9584 = private unnamed_addr constant <{ [33 x i8] }> <{ [33 x i8] c"value does not fit into bit range" }>, align 1
@vtable.3 = private constant <{ ptr, [16 x i8], ptr }> <{ ptr @"_ZN4core3ptr156drop_in_place$LT$$RF$x86_64..structures..idt..Entry$LT$extern$u20$$u22$x86.interrupt$u22$$u20$fn$LP$x86_64..structures..idt..InterruptStackFrame$RP$$GT$$GT$17hca56e1fb990f5940E", [16 x i8] c"\08\00\00\00\00\00\00\00\08\00\00\00\00\00\00\00", ptr @"_ZN42_$LT$$RF$T$u20$as$u20$core..fmt..Debug$GT$3fmt17h9bd90ee20ccbe8d9E" }>, align 8, !dbg !0
@vtable.4 = private constant <{ ptr, [16 x i8], ptr }> <{ ptr @"_ZN4core3ptr47drop_in_place$LT$$RF$x86_64..addr..VirtAddr$GT$17h31f11adb3a7bd330E", [16 x i8] c"\08\00\00\00\00\00\00\00\08\00\00\00\00\00\00\00", ptr @"_ZN42_$LT$$RF$T$u20$as$u20$core..fmt..Debug$GT$3fmt17h0531f0628ef54929E" }>, align 8, !dbg !56
@vtable.5 = private constant <{ ptr, [16 x i8], ptr }> <{ ptr @"_ZN4core3ptr79drop_in_place$LT$$RF$x86_64..structures..paging..page_table..PageTableEntry$GT$17h14f2f778e3458a2dE", [16 x i8] c"\08\00\00\00\00\00\00\00\08\00\00\00\00\00\00\00", ptr @"_ZN42_$LT$$RF$T$u20$as$u20$core..fmt..Debug$GT$3fmt17hf085d807711d5771E" }>, align 8, !dbg !65
@vtable.6 = private constant <{ ptr, [16 x i8], ptr }> <{ ptr @"_ZN4core3ptr28drop_in_place$LT$$RF$u64$GT$17ha05f688f99faa586E", [16 x i8] c"\08\00\00\00\00\00\00\00\08\00\00\00\00\00\00\00", ptr @"_ZN42_$LT$$RF$T$u20$as$u20$core..fmt..Debug$GT$3fmt17he7eef4b7504e377bE" }>, align 8, !dbg !79
@alloc9599 = private unnamed_addr constant <{ [107 x i8] }> <{ [107 x i8] c"/Users/yaw/.rustup/toolchains/nightly-aarch64-apple-darwin/lib/rustlib/src/rust/library/core/src/fmt/mod.rs" }>, align 1
@alloc9598 = private unnamed_addr constant <{ ptr, [16 x i8] }> <{ ptr @alloc9599, [16 x i8] c"k\00\00\00\00\00\00\00\92\01\00\008\00\00\00" }>, align 8
@str.7 = internal constant [28 x i8] c"attempt to add with overflow"
@alloc8063 = private unnamed_addr constant <{ [12 x i8] }> <{ [12 x i8] c"invalid args" }>, align 1
@alloc8062 = private unnamed_addr constant <{ ptr, [8 x i8] }> <{ ptr @alloc8063, [8 x i8] c"\0C\00\00\00\00\00\00\00" }>, align 8
@alloc6469 = private unnamed_addr constant <{}> zeroinitializer, align 8
@alloc9600 = private unnamed_addr constant <{ ptr, [16 x i8] }> <{ ptr @alloc9599, [16 x i8] c"k\00\00\00\00\00\00\00\93\01\00\00\0D\00\00\00" }>, align 8
@alloc9604 = private unnamed_addr constant <{ [93 x i8] }> <{ [93 x i8] c"unsafe precondition(s) violated: NonNull::new_unchecked requires that the pointer is non-null" }>, align 1
@alloc9605 = private unnamed_addr constant <{ [109 x i8] }> <{ [109 x i8] c"/Users/yaw/.rustup/toolchains/nightly-aarch64-apple-darwin/lib/rustlib/src/rust/library/core/src/array/mod.rs" }>, align 1
@alloc9606 = private unnamed_addr constant <{ ptr, [16 x i8] }> <{ ptr @alloc9605, [16 x i8] c"m\00\00\00\00\00\00\00:\01\00\00\1B\00\00\00" }>, align 8
@alloc9607 = private unnamed_addr constant <{ [43 x i8] }> <{ [43 x i8] c"called `Option::unwrap()` on a `None` value" }>, align 1
@vtable.8 = private constant <{ ptr, [16 x i8], ptr }> <{ ptr @"_ZN4core3ptr51drop_in_place$LT$x86_64..addr..VirtAddrNotValid$GT$17ha9d2ef499f31f6b5E", [16 x i8] c"\08\00\00\00\00\00\00\00\08\00\00\00\00\00\00\00", ptr @"_ZN67_$LT$x86_64..addr..VirtAddrNotValid$u20$as$u20$core..fmt..Debug$GT$3fmt17h12734afb36735bd2E" }>, align 8, !dbg !88
@alloc9612 = private unnamed_addr constant <{ ptr, [16 x i8] }> <{ ptr @alloc9613, [16 x i8] c"V\00\00\00\00\00\00\00c\01\00\00$\00\00\00" }>, align 8
@alloc9614 = private unnamed_addr constant <{ ptr, [16 x i8] }> <{ ptr @alloc9613, [16 x i8] c"V\00\00\00\00\00\00\00i\01\00\00$\00\00\00" }>, align 8
@alloc9615 = private unnamed_addr constant <{ [16 x i8] }> <{ [16 x i8] c"VirtAddrNotValid" }>, align 1
@alloc8516 = private unnamed_addr constant <{ ptr, [8 x i8] }> <{ ptr @alloc6469, [8 x i8] zeroinitializer }>, align 8
@vtable.9 = private constant <{ ptr, [16 x i8], ptr }> <{ ptr @"_ZN4core3ptr41drop_in_place$LT$core..fmt..Arguments$GT$17h6f8978a61277bd4dE", [16 x i8] c"0\00\00\00\00\00\00\00\08\00\00\00\00\00\00\00", ptr @"_ZN57_$LT$core..fmt..Arguments$u20$as$u20$core..fmt..Debug$GT$3fmt17hae2521dffe67c9a9E" }>, align 8, !dbg !99
@alloc9619 = private unnamed_addr constant <{ [74 x i8] }> <{ [74 x i8] c"address passed to VirtAddr::new must not contain any data in bits 48 to 64" }>, align 1
@alloc9635 = private unnamed_addr constant <{ [85 x i8] }> <{ [85 x i8] c"/Users/yaw/.cargo/registry/src/github.com-1ecc6299db9ec823/x86_64-0.14.10/src/addr.rs" }>, align 1
@alloc9621 = private unnamed_addr constant <{ ptr, [16 x i8] }> <{ ptr @alloc9635, [16 x i8] c"U\00\00\00\00\00\00\00H\00\00\00\1D\00\00\00" }>, align 8
@alloc9622 = private unnamed_addr constant <{ [8 x i8] }> <{ [8 x i8] c"VirtAddr" }>, align 1
@alloc9624 = private unnamed_addr constant <{ ptr, [16 x i8] }> <{ ptr @alloc9635, [16 x i8] c"U\00\00\00\00\00\00\00\16\01\00\00\17\00\00\00" }>, align 8
@alloc9626 = private unnamed_addr constant <{ ptr, [16 x i8] }> <{ ptr @alloc9635, [16 x i8] c"U\00\00\00\00\00\00\00a\01\00\00>\00\00\00" }>, align 8
@alloc9627 = private unnamed_addr constant <{ [16 x i8] }> <{ [16 x i8] c"PhysAddrNotValid" }>, align 1
@alloc9628 = private unnamed_addr constant <{ [67 x i8] }> <{ [67 x i8] c"physical addresses must not have any bits in the range 52 to 64 set" }>, align 1
@alloc9630 = private unnamed_addr constant <{ ptr, [16 x i8] }> <{ ptr @alloc9635, [16 x i8] c"U\00\00\00\00\00\00\00\B0\01\00\00\17\00\00\00" }>, align 8
@alloc9631 = private unnamed_addr constant <{ [8 x i8] }> <{ [8 x i8] c"PhysAddr" }>, align 1
@alloc9632 = private unnamed_addr constant <{ [30 x i8] }> <{ [30 x i8] c"`align` must be a power of two" }>, align 1
@alloc9634 = private unnamed_addr constant <{ ptr, [16 x i8] }> <{ ptr @alloc9635, [16 x i8] c"U\00\00\00\00\00\00\00\82\02\00\00\05\00\00\00" }>, align 8
@alloc9636 = private unnamed_addr constant <{ ptr, [16 x i8] }> <{ ptr @alloc9635, [16 x i8] c"U\00\00\00\00\00\00\00\83\02\00\00\0D\00\00\00" }>, align 8
@alloc9637 = private unnamed_addr constant <{ [22 x i8] }> <{ [22 x i8] c"PCID should be < 4096." }>, align 1
@alloc10015 = private unnamed_addr constant <{ [96 x i8] }> <{ [96 x i8] c"/Users/yaw/.cargo/registry/src/github.com-1ecc6299db9ec823/x86_64-0.14.10/src/registers/debug.rs" }>, align 1
@alloc9639 = private unnamed_addr constant <{ ptr, [16 x i8] }> <{ ptr @alloc10015, [16 x i8] c"`\00\00\00\00\00\00\00\09\01\00\00\19\00\00\00" }>, align 8
@str.a = internal constant [33 x i8] c"attempt to multiply with overflow"
@alloc9641 = private unnamed_addr constant <{ ptr, [16 x i8] }> <{ ptr @alloc10015, [16 x i8] c"`\00\00\00\00\00\00\00\09\01\00\00\13\00\00\00" }>, align 8
@alloc9643 = private unnamed_addr constant <{ ptr, [16 x i8] }> <{ ptr @alloc10015, [16 x i8] c"`\00\00\00\00\00\00\00\0A\01\00\00\0E\00\00\00" }>, align 8
@alloc9645 = private unnamed_addr constant <{ ptr, [16 x i8] }> <{ ptr @alloc10015, [16 x i8] c"`\00\00\00\00\00\00\007\01\00\00\19\00\00\00" }>, align 8
@alloc9647 = private unnamed_addr constant <{ ptr, [16 x i8] }> <{ ptr @alloc10015, [16 x i8] c"`\00\00\00\00\00\00\007\01\00\00\13\00\00\00" }>, align 8
@alloc9649 = private unnamed_addr constant <{ ptr, [16 x i8] }> <{ ptr @alloc10015, [16 x i8] c"`\00\00\00\00\00\00\008\01\00\00\0E\00\00\00" }>, align 8
@alloc9653 = private unnamed_addr constant <{ [32 x i8] }> <{ [32 x i8] c"condition should be always valid" }>, align 1
@alloc9652 = private unnamed_addr constant <{ ptr, [16 x i8] }> <{ ptr @alloc10015, [16 x i8] c"`\00\00\00\00\00\00\00\99\01\00\003\00\00\00" }>, align 8
@alloc9655 = private unnamed_addr constant <{ ptr, [16 x i8] }> <{ ptr @alloc10015, [16 x i8] c"`\00\00\00\00\00\00\00\A5\01\00\00)\00\00\00" }>, align 8
@alloc9656 = private unnamed_addr constant <{ [15 x i8] }> <{ [15 x i8] c"SegmentSelector" }>, align 1
@alloc9722 = private unnamed_addr constant <{ [5 x i8] }> <{ [5 x i8] c"index" }>, align 1
@vtable.b = private constant <{ ptr, [16 x i8], ptr }> <{ ptr @"_ZN4core3ptr24drop_in_place$LT$u16$GT$17h5ba65623709cf715E", [16 x i8] c"\02\00\00\00\00\00\00\00\02\00\00\00\00\00\00\00", ptr @"_ZN4core3fmt3num50_$LT$impl$u20$core..fmt..Debug$u20$for$u20$u16$GT$3fmt17hcd9918c2cb738668E" }>, align 8, !dbg !243
@alloc9661 = private unnamed_addr constant <{ [3 x i8] }> <{ [3 x i8] c"rpl" }>, align 1
@vtable.c = private constant <{ ptr, [16 x i8], ptr }> <{ ptr @"_ZN4core3ptr43drop_in_place$LT$x86_64..PrivilegeLevel$GT$17h3f77e354ff620ed5E", [16 x i8] c"\01\00\00\00\00\00\00\00\01\00\00\00\00\00\00\00", ptr @"_ZN59_$LT$x86_64..PrivilegeLevel$u20$as$u20$core..fmt..Debug$GT$3fmt17h283353e8185c0753E" }>, align 8, !dbg !251
@alloc10235 = private unnamed_addr constant <{ [95 x i8] }> <{ [95 x i8] c"/Users/yaw/.cargo/registry/src/github.com-1ecc6299db9ec823/x86_64-0.14.10/src/structures/gdt.rs" }>, align 1
@alloc9666 = private unnamed_addr constant <{ ptr, [16 x i8] }> <{ ptr @alloc10235, [16 x i8] c"_\00\00\00\00\00\00\00\B5\00\00\00\15\00\00\00" }>, align 8
@alloc9668 = private unnamed_addr constant <{ ptr, [16 x i8] }> <{ ptr @alloc10235, [16 x i8] c"_\00\00\00\00\00\00\00\B5\00\00\00\14\00\00\00" }>, align 8
@alloc10292 = private unnamed_addr constant <{ [95 x i8] }> <{ [95 x i8] c"/Users/yaw/.cargo/registry/src/github.com-1ecc6299db9ec823/x86_64-0.14.10/src/structures/idt.rs" }>, align 1
@alloc9670 = private unnamed_addr constant <{ ptr, [16 x i8] }> <{ ptr @alloc10292, [16 x i8] c"_\00\00\00\00\00\00\00\E6\01\00\00\14\00\00\00" }>, align 8
@alloc9690 = private unnamed_addr constant <{ [5 x i8] }> <{ [5 x i8] c"Entry" }>, align 1
@alloc9691 = private unnamed_addr constant <{ [12 x i8] }> <{ [12 x i8] c"handler_addr" }>, align 1
@alloc9692 = private unnamed_addr constant <{ [12 x i8] }> <{ [12 x i8] c"gdt_selector" }>, align 1
@alloc9693 = private unnamed_addr constant <{ [7 x i8] }> <{ [7 x i8] c"options" }>, align 1
@vtable.d = private constant <{ ptr, [16 x i8], ptr }> <{ ptr @"_ZN4core3ptr58drop_in_place$LT$x86_64..structures..idt..EntryOptions$GT$17h3be3be2eb3fae44eE", [16 x i8] c"\02\00\00\00\00\00\00\00\02\00\00\00\00\00\00\00", ptr @"_ZN74_$LT$x86_64..structures..idt..EntryOptions$u20$as$u20$core..fmt..Debug$GT$3fmt17h870273c43dd359ffE" }>, align 8, !dbg !265
@alloc9694 = private unnamed_addr constant <{ [12 x i8] }> <{ [12 x i8] c"EntryOptions" }>, align 1
@alloc9695 = private unnamed_addr constant <{ [19 x i8] }> <{ [19 x i8] c"InterruptStackFrame" }>, align 1
@alloc9696 = private unnamed_addr constant <{ [19 x i8] }> <{ [19 x i8] c"instruction_pointer" }>, align 1
@vtable.e = private constant <{ ptr, [16 x i8], ptr }> <{ ptr @"_ZN4core3ptr43drop_in_place$LT$x86_64..addr..VirtAddr$GT$17h672b61b9e84ca04bE", [16 x i8] c"\08\00\00\00\00\00\00\00\08\00\00\00\00\00\00\00", ptr @"_ZN59_$LT$x86_64..addr..VirtAddr$u20$as$u20$core..fmt..Debug$GT$3fmt17hfc8eda48723fa718E" }>, align 8, !dbg !273
@alloc9700 = private unnamed_addr constant <{ [12 x i8] }> <{ [12 x i8] c"code_segment" }>, align 1
@vtable.f = private constant <{ ptr, [16 x i8], ptr }> <{ ptr @"_ZN4core3ptr24drop_in_place$LT$u64$GT$17h49b3965168a37bcfE", [16 x i8] c"\08\00\00\00\00\00\00\00\08\00\00\00\00\00\00\00", ptr @"_ZN4core3fmt3num50_$LT$impl$u20$core..fmt..Debug$u20$for$u20$u64$GT$3fmt17hafe796f62480d40bE" }>, align 8, !dbg !281
@alloc9704 = private unnamed_addr constant <{ [9 x i8] }> <{ [9 x i8] c"cpu_flags" }>, align 1
@vtable.g = private constant <{ ptr, [16 x i8], ptr }> <{ ptr @"_ZN4core3ptr116drop_in_place$LT$$LT$x86_64..structures..idt..InterruptStackFrameValue$u20$as$u20$core..fmt..Debug$GT$..fmt..Hex$GT$17h148f84a6707cd818E", [16 x i8] c"\08\00\00\00\00\00\00\00\08\00\00\00\00\00\00\00", ptr @"_ZN132_$LT$$LT$x86_64..structures..idt..InterruptStackFrameValue$u20$as$u20$core..fmt..Debug$GT$..fmt..Hex$u20$as$u20$core..fmt..Debug$GT$3fmt17h65db255ad5c4c43eE" }>, align 8, !dbg !289
@alloc9708 = private unnamed_addr constant <{ [13 x i8] }> <{ [13 x i8] c"stack_pointer" }>, align 1
@alloc9709 = private unnamed_addr constant <{ [13 x i8] }> <{ [13 x i8] c"stack_segment" }>, align 1
@alloc9710 = private unnamed_addr constant <{ [40 x i8] }> <{ [40 x i8] c"internal error: entered unreachable code" }>, align 1
@alloc9712 = private unnamed_addr constant <{ ptr, [16 x i8] }> <{ ptr @alloc10292, [16 x i8] c"_\00\00\00\00\00\00\00\F6\03\00\00\12\00\00\00" }>, align 8
@alloc9713 = private unnamed_addr constant <{ [14 x i8] }> <{ [14 x i8] c"Selector Error" }>, align 1
@alloc9714 = private unnamed_addr constant <{ [8 x i8] }> <{ [8 x i8] c"external" }>, align 1
@vtable.h = private constant <{ ptr, [16 x i8], ptr }> <{ ptr @"_ZN4core3ptr25drop_in_place$LT$bool$GT$17hc2383eb42ccf6300E", [16 x i8] c"\01\00\00\00\00\00\00\00\01\00\00\00\00\00\00\00", ptr @"_ZN41_$LT$bool$u20$as$u20$core..fmt..Debug$GT$3fmt17hafaebf6827248d79E" }>, align 8, !dbg !302
@alloc9718 = private unnamed_addr constant <{ [16 x i8] }> <{ [16 x i8] c"descriptor table" }>, align 1
@vtable.i = private constant <{ ptr, [16 x i8], ptr }> <{ ptr @"_ZN4core3ptr61drop_in_place$LT$x86_64..structures..idt..DescriptorTable$GT$17h85ac27ec8e3a339fE", [16 x i8] c"\01\00\00\00\00\00\00\00\01\00\00\00\00\00\00\00", ptr @"_ZN77_$LT$x86_64..structures..idt..DescriptorTable$u20$as$u20$core..fmt..Debug$GT$3fmt17h9b1d93d0588df9fcE" }>, align 8, !dbg !311
@alloc9397 = private unnamed_addr constant <{ [10 x i8] }> <{ [10 x i8] c"PhysFrame[" }>, align 1
@alloc9398 = private unnamed_addr constant <{ [2 x i8] }> <{ [2 x i8] c"](" }>, align 1
@alloc9399 = private unnamed_addr constant <{ [1 x i8] }> <{ [1 x i8] c")" }>, align 1
@alloc9396 = private unnamed_addr constant <{ ptr, [8 x i8], ptr, [8 x i8], ptr, [8 x i8] }> <{ ptr @alloc9397, [8 x i8] c"\0A\00\00\00\00\00\00\00", ptr @alloc9398, [8 x i8] c"\02\00\00\00\00\00\00\00", ptr @alloc9399, [8 x i8] c"\01\00\00\00\00\00\00\00" }>, align 8
@alloc9393 = private unnamed_addr constant <{ [4 x i8] }> <{ [4 x i8] c"1GiB" }>, align 1
@alloc9394 = private unnamed_addr constant <{ ptr, [8 x i8] }> <{ ptr @alloc9393, [8 x i8] c"\04\00\00\00\00\00\00\00" }>, align 8
@alloc9411 = private unnamed_addr constant <{ [4 x i8] }> <{ [4 x i8] c"2MiB" }>, align 1
@alloc9412 = private unnamed_addr constant <{ ptr, [8 x i8] }> <{ ptr @alloc9411, [8 x i8] c"\04\00\00\00\00\00\00\00" }>, align 8
@alloc9402 = private unnamed_addr constant <{ [4 x i8] }> <{ [4 x i8] c"4KiB" }>, align 1
@alloc9403 = private unnamed_addr constant <{ ptr, [8 x i8] }> <{ ptr @alloc9402, [8 x i8] c"\04\00\00\00\00\00\00\00" }>, align 8
@alloc9837 = private unnamed_addr constant <{ [126 x i8] }> <{ [126 x i8] c"/Users/yaw/.cargo/registry/src/github.com-1ecc6299db9ec823/x86_64-0.14.10/src/structures/paging/mapper/recursive_page_table.rs" }>, align 1
@alloc9724 = private unnamed_addr constant <{ ptr, [16 x i8] }> <{ ptr @alloc9837, [16 x i8] c"~\00\00\00\00\00\00\008\01\00\00\19\00\00\00" }>, align 8
@alloc9726 = private unnamed_addr constant <{ ptr, [16 x i8] }> <{ ptr @alloc9837, [16 x i8] c"~\00\00\00\00\00\00\00:\01\00\00\09\00\00\00" }>, align 8
@alloc9728 = private unnamed_addr constant <{ ptr, [16 x i8] }> <{ ptr @alloc9837, [16 x i8] c"~\00\00\00\00\00\00\00@\01\00\00\1D\00\00\00" }>, align 8
@alloc9730 = private unnamed_addr constant <{ ptr, [16 x i8] }> <{ ptr @alloc9837, [16 x i8] c"~\00\00\00\00\00\00\00J\01\00\00\15\00\00\00" }>, align 8
@alloc9732 = private unnamed_addr constant <{ ptr, [16 x i8] }> <{ ptr @alloc9837, [16 x i8] c"~\00\00\00\00\00\00\00Y\01\00\00\0C\00\00\00" }>, align 8
@alloc9734 = private unnamed_addr constant <{ ptr, [16 x i8] }> <{ ptr @alloc9837, [16 x i8] c"~\00\00\00\00\00\00\00_\01\00\00\0C\00\00\00" }>, align 8
@alloc9736 = private unnamed_addr constant <{ ptr, [16 x i8] }> <{ ptr @alloc9837, [16 x i8] c"~\00\00\00\00\00\00\00b\01\00\00\09\00\00\00" }>, align 8
@alloc9738 = private unnamed_addr constant <{ ptr, [16 x i8] }> <{ ptr @alloc9837, [16 x i8] c"~\00\00\00\00\00\00\00m\01\00\00\1D\00\00\00" }>, align 8
@alloc9740 = private unnamed_addr constant <{ ptr, [16 x i8] }> <{ ptr @alloc9837, [16 x i8] c"~\00\00\00\00\00\00\00\8B\01\00\00\0C\00\00\00" }>, align 8
@alloc9742 = private unnamed_addr constant <{ ptr, [16 x i8] }> <{ ptr @alloc9837, [16 x i8] c"~\00\00\00\00\00\00\00\90\01\00\00\19\00\00\00" }>, align 8
@alloc9744 = private unnamed_addr constant <{ ptr, [16 x i8] }> <{ ptr @alloc9837, [16 x i8] c"~\00\00\00\00\00\00\00\B0\01\00\00\19\00\00\00" }>, align 8
@alloc9746 = private unnamed_addr constant <{ ptr, [16 x i8] }> <{ ptr @alloc9837, [16 x i8] c"~\00\00\00\00\00\00\00\B1\01\00\00\09\00\00\00" }>, align 8
@alloc9748 = private unnamed_addr constant <{ ptr, [16 x i8] }> <{ ptr @alloc9837, [16 x i8] c"~\00\00\00\00\00\00\00\B7\01\00\00\19\00\00\00" }>, align 8
@alloc9750 = private unnamed_addr constant <{ ptr, [16 x i8] }> <{ ptr @alloc9837, [16 x i8] c"~\00\00\00\00\00\00\00\B8\01\00\00\09\00\00\00" }>, align 8
@alloc9752 = private unnamed_addr constant <{ ptr, [16 x i8] }> <{ ptr @alloc9837, [16 x i8] c"~\00\00\00\00\00\00\00\BE\01\00\00\1D\00\00\00" }>, align 8
@alloc9754 = private unnamed_addr constant <{ ptr, [16 x i8] }> <{ ptr @alloc9837, [16 x i8] c"~\00\00\00\00\00\00\00\C8\01\00\00\15\00\00\00" }>, align 8
@alloc9756 = private unnamed_addr constant <{ ptr, [16 x i8] }> <{ ptr @alloc9837, [16 x i8] c"~\00\00\00\00\00\00\00\D7\01\00\00\0C\00\00\00" }>, align 8
@alloc9758 = private unnamed_addr constant <{ ptr, [16 x i8] }> <{ ptr @alloc9837, [16 x i8] c"~\00\00\00\00\00\00\00\DD\01\00\00\0C\00\00\00" }>, align 8
@alloc9760 = private unnamed_addr constant <{ ptr, [16 x i8] }> <{ ptr @alloc9837, [16 x i8] c"~\00\00\00\00\00\00\00\E3\01\00\00\0C\00\00\00" }>, align 8
@alloc9762 = private unnamed_addr constant <{ ptr, [16 x i8] }> <{ ptr @alloc9837, [16 x i8] c"~\00\00\00\00\00\00\00\E7\01\00\00\09\00\00\00" }>, align 8
@alloc9764 = private unnamed_addr constant <{ ptr, [16 x i8] }> <{ ptr @alloc9837, [16 x i8] c"~\00\00\00\00\00\00\00\F2\01\00\00\1D\00\00\00" }>, align 8
@alloc9766 = private unnamed_addr constant <{ ptr, [16 x i8] }> <{ ptr @alloc9837, [16 x i8] c"~\00\00\00\00\00\00\00\04\02\00\00\0C\00\00\00" }>, align 8
@alloc9768 = private unnamed_addr constant <{ ptr, [16 x i8] }> <{ ptr @alloc9837, [16 x i8] c"~\00\00\00\00\00\00\00\09\02\00\00\1D\00\00\00" }>, align 8
@alloc9770 = private unnamed_addr constant <{ ptr, [16 x i8] }> <{ ptr @alloc9837, [16 x i8] c"~\00\00\00\00\00\00\00\1F\02\00\00\0C\00\00\00" }>, align 8
@alloc9772 = private unnamed_addr constant <{ ptr, [16 x i8] }> <{ ptr @alloc9837, [16 x i8] c"~\00\00\00\00\00\00\00$\02\00\00\19\00\00\00" }>, align 8
@alloc9774 = private unnamed_addr constant <{ ptr, [16 x i8] }> <{ ptr @alloc9837, [16 x i8] c"~\00\00\00\00\00\00\00+\02\00\00\19\00\00\00" }>, align 8
@alloc9776 = private unnamed_addr constant <{ ptr, [16 x i8] }> <{ ptr @alloc9837, [16 x i8] c"~\00\00\00\00\00\00\00K\02\00\00\19\00\00\00" }>, align 8
@alloc9778 = private unnamed_addr constant <{ ptr, [16 x i8] }> <{ ptr @alloc9837, [16 x i8] c"~\00\00\00\00\00\00\00L\02\00\00\09\00\00\00" }>, align 8
@alloc9780 = private unnamed_addr constant <{ ptr, [16 x i8] }> <{ ptr @alloc9837, [16 x i8] c"~\00\00\00\00\00\00\00R\02\00\00\19\00\00\00" }>, align 8
@alloc9782 = private unnamed_addr constant <{ ptr, [16 x i8] }> <{ ptr @alloc9837, [16 x i8] c"~\00\00\00\00\00\00\00S\02\00\00\09\00\00\00" }>, align 8
@alloc9784 = private unnamed_addr constant <{ ptr, [16 x i8] }> <{ ptr @alloc9837, [16 x i8] c"~\00\00\00\00\00\00\00Y\02\00\00\19\00\00\00" }>, align 8
@alloc9786 = private unnamed_addr constant <{ ptr, [16 x i8] }> <{ ptr @alloc9837, [16 x i8] c"~\00\00\00\00\00\00\00Z\02\00\00\09\00\00\00" }>, align 8
@alloc9788 = private unnamed_addr constant <{ ptr, [16 x i8] }> <{ ptr @alloc9837, [16 x i8] c"~\00\00\00\00\00\00\00`\02\00\00\1D\00\00\00" }>, align 8
@alloc9790 = private unnamed_addr constant <{ ptr, [16 x i8] }> <{ ptr @alloc9837, [16 x i8] c"~\00\00\00\00\00\00\00b\02\00\00\15\00\00\00" }>, align 8
@alloc9792 = private unnamed_addr constant <{ ptr, [16 x i8] }> <{ ptr @alloc9837, [16 x i8] c"~\00\00\00\00\00\00\00r\02\00\00\0C\00\00\00" }>, align 8
@alloc9794 = private unnamed_addr constant <{ ptr, [16 x i8] }> <{ ptr @alloc9837, [16 x i8] c"~\00\00\00\00\00\00\00x\02\00\00\0C\00\00\00" }>, align 8
@alloc9796 = private unnamed_addr constant <{ ptr, [16 x i8] }> <{ ptr @alloc9837, [16 x i8] c"~\00\00\00\00\00\00\00~\02\00\00\0C\00\00\00" }>, align 8
@alloc9798 = private unnamed_addr constant <{ ptr, [16 x i8] }> <{ ptr @alloc9837, [16 x i8] c"~\00\00\00\00\00\00\00\84\02\00\00\0C\00\00\00" }>, align 8
@alloc9800 = private unnamed_addr constant <{ ptr, [16 x i8] }> <{ ptr @alloc9837, [16 x i8] c"~\00\00\00\00\00\00\00\88\02\00\00\09\00\00\00" }>, align 8
@alloc9802 = private unnamed_addr constant <{ ptr, [16 x i8] }> <{ ptr @alloc9837, [16 x i8] c"~\00\00\00\00\00\00\00\93\02\00\00\1D\00\00\00" }>, align 8
@alloc9804 = private unnamed_addr constant <{ ptr, [16 x i8] }> <{ ptr @alloc9837, [16 x i8] c"~\00\00\00\00\00\00\00\A5\02\00\00\0C\00\00\00" }>, align 8
@alloc9806 = private unnamed_addr constant <{ ptr, [16 x i8] }> <{ ptr @alloc9837, [16 x i8] c"~\00\00\00\00\00\00\00\AA\02\00\00\1D\00\00\00" }>, align 8
@alloc9808 = private unnamed_addr constant <{ ptr, [16 x i8] }> <{ ptr @alloc9837, [16 x i8] c"~\00\00\00\00\00\00\00\BC\02\00\00\0C\00\00\00" }>, align 8
@alloc9810 = private unnamed_addr constant <{ ptr, [16 x i8] }> <{ ptr @alloc9837, [16 x i8] c"~\00\00\00\00\00\00\00\C2\02\00\00\0C\00\00\00" }>, align 8
@alloc9812 = private unnamed_addr constant <{ ptr, [16 x i8] }> <{ ptr @alloc9837, [16 x i8] c"~\00\00\00\00\00\00\00\C7\02\00\00\1D\00\00\00" }>, align 8
@alloc9814 = private unnamed_addr constant <{ ptr, [16 x i8] }> <{ ptr @alloc9837, [16 x i8] c"~\00\00\00\00\00\00\00\D5\02\00\00\0C\00\00\00" }>, align 8
@alloc9816 = private unnamed_addr constant <{ ptr, [16 x i8] }> <{ ptr @alloc9837, [16 x i8] c"~\00\00\00\00\00\00\00\DA\02\00\00\19\00\00\00" }>, align 8
@alloc9818 = private unnamed_addr constant <{ ptr, [16 x i8] }> <{ ptr @alloc9837, [16 x i8] c"~\00\00\00\00\00\00\00\E1\02\00\00\19\00\00\00" }>, align 8
@alloc9820 = private unnamed_addr constant <{ ptr, [16 x i8] }> <{ ptr @alloc9837, [16 x i8] c"~\00\00\00\00\00\00\00\E8\02\00\00\19\00\00\00" }>, align 8
@alloc9822 = private unnamed_addr constant <{ ptr, [16 x i8] }> <{ ptr @alloc9837, [16 x i8] c"~\00\00\00\00\00\00\00\F9\02\00\00\19\00\00\00" }>, align 8
@alloc9823 = private unnamed_addr constant <{ [35 x i8] }> <{ [35 x i8] c"level 4 entry has huge page bit set" }>, align 1
@alloc9825 = private unnamed_addr constant <{ ptr, [16 x i8] }> <{ ptr @alloc9837, [16 x i8] c"~\00\00\00\00\00\00\00\FE\02\00\00\0D\00\00\00" }>, align 8
@alloc9827 = private unnamed_addr constant <{ ptr, [16 x i8] }> <{ ptr @alloc9837, [16 x i8] c"~\00\00\00\00\00\00\00\02\03\00\00\19\00\00\00" }>, align 8
@alloc9829 = private unnamed_addr constant <{ ptr, [16 x i8] }> <{ ptr @alloc9837, [16 x i8] c"~\00\00\00\00\00\00\00\07\03\00\00\1A\00\00\00" }>, align 8
@alloc9831 = private unnamed_addr constant <{ ptr, [16 x i8] }> <{ ptr @alloc9837, [16 x i8] c"~\00\00\00\00\00\00\00\13\03\00\00\19\00\00\00" }>, align 8
@alloc9833 = private unnamed_addr constant <{ ptr, [16 x i8] }> <{ ptr @alloc9837, [16 x i8] c"~\00\00\00\00\00\00\00\18\03\00\00\1A\00\00\00" }>, align 8
@alloc9835 = private unnamed_addr constant <{ ptr, [16 x i8] }> <{ ptr @alloc9837, [16 x i8] c"~\00\00\00\00\00\00\00$\03\00\00\19\00\00\00" }>, align 8
@alloc9836 = private unnamed_addr constant <{ [35 x i8] }> <{ [35 x i8] c"level 1 entry has huge page bit set" }>, align 1
@alloc9838 = private unnamed_addr constant <{ ptr, [16 x i8] }> <{ ptr @alloc9837, [16 x i8] c"~\00\00\00\00\00\00\00)\03\00\00\0D\00\00\00" }>, align 8
@alloc9331 = private unnamed_addr constant <{ [41 x i8] }> <{ [41 x i8] c"given page table is not active on the CPU" }>, align 1
@alloc9330 = private unnamed_addr constant <{ ptr, [8 x i8] }> <{ ptr @alloc9331, [8 x i8] c")\00\00\00\00\00\00\00" }>, align 8
@alloc9336 = private unnamed_addr constant <{ [41 x i8] }> <{ [41 x i8] c"given page table address is not recursive" }>, align 1
@alloc9335 = private unnamed_addr constant <{ ptr, [8 x i8] }> <{ ptr @alloc9336, [8 x i8] c")\00\00\00\00\00\00\00" }>, align 8
@_ZN6x86_6410structures6paging6mapper19_ASSERT_OBJECT_SAFE17h5e73e082e85ec166E = internal constant <{ [8 x i8], [8 x i8] }> <{ [8 x i8] zeroinitializer, [8 x i8] undef }>, align 8, !dbg !324
@alloc9474 = private unnamed_addr constant <{ [46 x i8] }> <{ [46 x i8] c"the given address was not sufficiently aligned" }>, align 1
@alloc9473 = private unnamed_addr constant <{ ptr, [8 x i8] }> <{ ptr @alloc9474, [8 x i8] c".\00\00\00\00\00\00\00" }>, align 8
@alloc9839 = private unnamed_addr constant <{ [14 x i8] }> <{ [14 x i8] c"PageTableEntry" }>, align 1
@alloc9840 = private unnamed_addr constant <{ [4 x i8] }> <{ [4 x i8] c"addr" }>, align 1
@vtable.j = private constant <{ ptr, [16 x i8], ptr }> <{ ptr @"_ZN4core3ptr43drop_in_place$LT$x86_64..addr..PhysAddr$GT$17h479443ba81cf3b46E", [16 x i8] c"\08\00\00\00\00\00\00\00\08\00\00\00\00\00\00\00", ptr @"_ZN59_$LT$x86_64..addr..PhysAddr$u20$as$u20$core..fmt..Debug$GT$3fmt17h0cde9aa635d6053aE" }>, align 8, !dbg !347
@alloc10387 = private unnamed_addr constant <{ [5 x i8] }> <{ [5 x i8] c"flags" }>, align 1
@vtable.k = private constant <{ ptr, [16 x i8], ptr }> <{ ptr @"_ZN4core3ptr75drop_in_place$LT$x86_64..structures..paging..page_table..PageTableFlags$GT$17h1391013c3cc6548bE", [16 x i8] c"\08\00\00\00\00\00\00\00\08\00\00\00\00\00\00\00", ptr @"_ZN91_$LT$x86_64..structures..paging..page_table..PageTableFlags$u20$as$u20$core..fmt..Debug$GT$3fmt17h133ff323b3540c0aE" }>, align 8, !dbg !358
@alloc10416 = private unnamed_addr constant <{ [109 x i8] }> <{ [109 x i8] c"/Users/yaw/.cargo/registry/src/github.com-1ecc6299db9ec823/x86_64-0.14.10/src/structures/paging/page_table.rs" }>, align 1
@alloc9849 = private unnamed_addr constant <{ ptr, [16 x i8] }> <{ ptr @alloc10416, [16 x i8] c"m\00\00\00\00\00\00\00\06\01\00\00\09\00\00\00" }>, align 8
@alloc9851 = private unnamed_addr constant <{ ptr, [16 x i8] }> <{ ptr @alloc10416, [16 x i8] c"m\00\00\00\00\00\00\00\8A\01\00\00\12\00\00\00" }>, align 8
@alloc9853 = private unnamed_addr constant <{ ptr, [16 x i8] }> <{ ptr @alloc10416, [16 x i8] c"m\00\00\00\00\00\00\00\8A\01\00\00\11\00\00\00" }>, align 8
@alloc9855 = private unnamed_addr constant <{ ptr, [16 x i8] }> <{ ptr @alloc10416, [16 x i8] c"m\00\00\00\00\00\00\00\8A\01\00\00\09\00\00\00" }>, align 8
@alloc9857 = private unnamed_addr constant <{ ptr, [16 x i8] }> <{ ptr @alloc10416, [16 x i8] c"m\00\00\00\00\00\00\00\8F\01\00\00\13\00\00\00" }>, align 8
@alloc9859 = private unnamed_addr constant <{ ptr, [16 x i8] }> <{ ptr @alloc10416, [16 x i8] c"m\00\00\00\00\00\00\00\8F\01\00\00\12\00\00\00" }>, align 8
@alloc9861 = private unnamed_addr constant <{ ptr, [16 x i8] }> <{ ptr @alloc10416, [16 x i8] c"m\00\00\00\00\00\00\00\8F\01\00\00\11\00\00\00" }>, align 8
@alloc9863 = private unnamed_addr constant <{ ptr, [16 x i8] }> <{ ptr @alloc10416, [16 x i8] c"m\00\00\00\00\00\00\00\8F\01\00\00\09\00\00\00" }>, align 8
@alloc6470 = private unnamed_addr constant <{ [31 x i8] }> <{ [31 x i8] c" is not a valid privilege level" }>, align 1
@alloc6468 = private unnamed_addr constant <{ ptr, [8 x i8], ptr, [8 x i8] }> <{ ptr @alloc6469, [8 x i8] zeroinitializer, ptr @alloc6470, [8 x i8] c"\1F\00\00\00\00\00\00\00" }>, align 8
@alloc9864 = private unnamed_addr constant <{ [84 x i8] }> <{ [84 x i8] c"/Users/yaw/.cargo/registry/src/github.com-1ecc6299db9ec823/x86_64-0.14.10/src/lib.rs" }>, align 1
@alloc9865 = private unnamed_addr constant <{ ptr, [16 x i8] }> <{ ptr @alloc9864, [16 x i8] c"T\00\00\00\00\00\00\00=\00\00\00\12\00\00\00" }>, align 8
@alloc9866 = private unnamed_addr constant <{ [14 x i8] }> <{ [14 x i8] c"ReadOnlyAccess" }>, align 1
@vtable.l = private constant <{ ptr, [16 x i8], ptr }> <{ ptr @"_ZN4core3ptr33drop_in_place$LT$$RF$$LP$$RP$$GT$17he64fb27a079cfd8dE", [16 x i8] c"\08\00\00\00\00\00\00\00\08\00\00\00\00\00\00\00", ptr @"_ZN42_$LT$$RF$T$u20$as$u20$core..fmt..Debug$GT$3fmt17h3a8d8056c55d9cbeE" }>, align 8, !dbg !369
@alloc9870 = private unnamed_addr constant <{ [15 x i8] }> <{ [15 x i8] c"WriteOnlyAccess" }>, align 1
@alloc9871 = private unnamed_addr constant <{ [15 x i8] }> <{ [15 x i8] c"ReadWriteAccess" }>, align 1
@alloc9872 = private unnamed_addr constant <{ [6 x i8] }> <{ [6 x i8] c"RdRand" }>, align 1
@alloc9873 = private unnamed_addr constant <{ [15 x i8] }> <{ [15 x i8] c"AllExceptGlobal" }>, align 1
@alloc9874 = private unnamed_addr constant <{ [3 x i8] }> <{ [3 x i8] c"All" }>, align 1
@alloc9875 = private unnamed_addr constant <{ [6 x i8] }> <{ [6 x i8] c"Single" }>, align 1
@vtable.m = private constant <{ ptr, [16 x i8], ptr }> <{ ptr @"_ZN4core3ptr56drop_in_place$LT$$RF$x86_64..instructions..tlb..Pcid$GT$17h8a19a76c99f0b2cbE", [16 x i8] c"\08\00\00\00\00\00\00\00\08\00\00\00\00\00\00\00", ptr @"_ZN42_$LT$$RF$T$u20$as$u20$core..fmt..Debug$GT$3fmt17hc11ebfb7da89c733E" }>, align 8, !dbg !378
@alloc9879 = private unnamed_addr constant <{ [7 x i8] }> <{ [7 x i8] c"Address" }>, align 1
@alloc9880 = private unnamed_addr constant <{ [17 x i8] }> <{ [17 x i8] c"InvpcidDescriptor" }>, align 1
@alloc9881 = private unnamed_addr constant <{ [7 x i8] }> <{ [7 x i8] c"address" }>, align 1
@alloc9882 = private unnamed_addr constant <{ [4 x i8] }> <{ [4 x i8] c"pcid" }>, align 1
@alloc9883 = private unnamed_addr constant <{ [4 x i8] }> <{ [4 x i8] c"Pcid" }>, align 1
@vtable.n = private constant <{ ptr, [16 x i8], ptr }> <{ ptr @"_ZN4core3ptr28drop_in_place$LT$$RF$u16$GT$17h759fb2abfe4f110aE", [16 x i8] c"\08\00\00\00\00\00\00\00\08\00\00\00\00\00\00\00", ptr @"_ZN42_$LT$$RF$T$u20$as$u20$core..fmt..Debug$GT$3fmt17hed5599fcdd1f2bb8E" }>, align 8, !dbg !392
@alloc9887 = private unnamed_addr constant <{ [3 x i8] }> <{ [3 x i8] c"Cr0" }>, align 1
@alloc10465 = private unnamed_addr constant <{ [3 x i8] }> <{ [3 x i8] c" | " }>, align 1
@alloc9928 = private unnamed_addr constant <{ [98 x i8] }> <{ [98 x i8] c"/Users/yaw/.cargo/registry/src/github.com-1ecc6299db9ec823/x86_64-0.14.10/src/registers/control.rs" }>, align 1
@alloc9890 = private unnamed_addr constant <{ ptr, [16 x i8] }> <{ ptr @alloc9928, [16 x i8] c"b\00\00\00\00\00\00\00\0A\00\00\00\01\00\00\00" }>, align 8
@alloc9891 = private unnamed_addr constant <{ [21 x i8] }> <{ [21 x i8] c"PROTECTED_MODE_ENABLE" }>, align 1
@alloc9893 = private unnamed_addr constant <{ [19 x i8] }> <{ [19 x i8] c"MONITOR_COPROCESSOR" }>, align 1
@alloc9895 = private unnamed_addr constant <{ [19 x i8] }> <{ [19 x i8] c"EMULATE_COPROCESSOR" }>, align 1
@alloc9897 = private unnamed_addr constant <{ [13 x i8] }> <{ [13 x i8] c"TASK_SWITCHED" }>, align 1
@alloc9899 = private unnamed_addr constant <{ [14 x i8] }> <{ [14 x i8] c"EXTENSION_TYPE" }>, align 1
@alloc9901 = private unnamed_addr constant <{ [13 x i8] }> <{ [13 x i8] c"NUMERIC_ERROR" }>, align 1
@alloc9903 = private unnamed_addr constant <{ [13 x i8] }> <{ [13 x i8] c"WRITE_PROTECT" }>, align 1
@alloc9905 = private unnamed_addr constant <{ [14 x i8] }> <{ [14 x i8] c"ALIGNMENT_MASK" }>, align 1
@alloc9907 = private unnamed_addr constant <{ [17 x i8] }> <{ [17 x i8] c"NOT_WRITE_THROUGH" }>, align 1
@alloc9909 = private unnamed_addr constant <{ [13 x i8] }> <{ [13 x i8] c"CACHE_DISABLE" }>, align 1
@alloc9911 = private unnamed_addr constant <{ [6 x i8] }> <{ [6 x i8] c"PAGING" }>, align 1
@alloc10466 = private unnamed_addr constant <{ [2 x i8] }> <{ [2 x i8] c"0x" }>, align 1
@alloc10467 = private unnamed_addr constant <{ [7 x i8] }> <{ [7 x i8] c"(empty)" }>, align 1
@alloc9915 = private unnamed_addr constant <{ [3 x i8] }> <{ [3 x i8] c"Cr2" }>, align 1
@alloc9916 = private unnamed_addr constant <{ [3 x i8] }> <{ [3 x i8] c"Cr3" }>, align 1
@alloc9919 = private unnamed_addr constant <{ ptr, [16 x i8] }> <{ ptr @alloc9928, [16 x i8] c"b\00\00\00\00\00\00\00>\00\00\00\01\00\00\00" }>, align 8
@alloc9920 = private unnamed_addr constant <{ [23 x i8] }> <{ [23 x i8] c"PAGE_LEVEL_WRITETHROUGH" }>, align 1
@alloc9922 = private unnamed_addr constant <{ [24 x i8] }> <{ [24 x i8] c"PAGE_LEVEL_CACHE_DISABLE" }>, align 1
@alloc9926 = private unnamed_addr constant <{ [3 x i8] }> <{ [3 x i8] c"Cr4" }>, align 1
@alloc9929 = private unnamed_addr constant <{ ptr, [16 x i8] }> <{ ptr @alloc9928, [16 x i8] c"b\00\00\00\00\00\00\00O\00\00\00\01\00\00\00" }>, align 8
@alloc9930 = private unnamed_addr constant <{ [28 x i8] }> <{ [28 x i8] c"VIRTUAL_8086_MODE_EXTENSIONS" }>, align 1
@alloc9932 = private unnamed_addr constant <{ [33 x i8] }> <{ [33 x i8] c"PROTECTED_MODE_VIRTUAL_INTERRUPTS" }>, align 1
@alloc9934 = private unnamed_addr constant <{ [17 x i8] }> <{ [17 x i8] c"TIMESTAMP_DISABLE" }>, align 1
@alloc9936 = private unnamed_addr constant <{ [20 x i8] }> <{ [20 x i8] c"DEBUGGING_EXTENSIONS" }>, align 1
@alloc9938 = private unnamed_addr constant <{ [19 x i8] }> <{ [19 x i8] c"PAGE_SIZE_EXTENSION" }>, align 1
@alloc9940 = private unnamed_addr constant <{ [26 x i8] }> <{ [26 x i8] c"PHYSICAL_ADDRESS_EXTENSION" }>, align 1
@alloc9942 = private unnamed_addr constant <{ [23 x i8] }> <{ [23 x i8] c"MACHINE_CHECK_EXCEPTION" }>, align 1
@alloc9944 = private unnamed_addr constant <{ [11 x i8] }> <{ [11 x i8] c"PAGE_GLOBAL" }>, align 1
@alloc9946 = private unnamed_addr constant <{ [27 x i8] }> <{ [27 x i8] c"PERFORMANCE_MONITOR_COUNTER" }>, align 1
@alloc9948 = private unnamed_addr constant <{ [6 x i8] }> <{ [6 x i8] c"OSFXSR" }>, align 1
@alloc9950 = private unnamed_addr constant <{ [17 x i8] }> <{ [17 x i8] c"OSXMMEXCPT_ENABLE" }>, align 1
@alloc9952 = private unnamed_addr constant <{ [32 x i8] }> <{ [32 x i8] c"USER_MODE_INSTRUCTION_PREVENTION" }>, align 1
@alloc9954 = private unnamed_addr constant <{ [9 x i8] }> <{ [9 x i8] c"L5_PAGING" }>, align 1
@alloc9956 = private unnamed_addr constant <{ [26 x i8] }> <{ [26 x i8] c"VIRTUAL_MACHINE_EXTENSIONS" }>, align 1
@alloc9958 = private unnamed_addr constant <{ [21 x i8] }> <{ [21 x i8] c"SAFER_MODE_EXTENSIONS" }>, align 1
@alloc9960 = private unnamed_addr constant <{ [8 x i8] }> <{ [8 x i8] c"FSGSBASE" }>, align 1
@alloc9962 = private unnamed_addr constant <{ [4 x i8] }> <{ [4 x i8] c"PCID" }>, align 1
@alloc9964 = private unnamed_addr constant <{ [7 x i8] }> <{ [7 x i8] c"OSXSAVE" }>, align 1
@alloc9966 = private unnamed_addr constant <{ [10 x i8] }> <{ [10 x i8] c"KEY_LOCKER" }>, align 1
@alloc9968 = private unnamed_addr constant <{ [36 x i8] }> <{ [36 x i8] c"SUPERVISOR_MODE_EXECUTION_PROTECTION" }>, align 1
@alloc9970 = private unnamed_addr constant <{ [33 x i8] }> <{ [33 x i8] c"SUPERVISOR_MODE_ACCESS_PREVENTION" }>, align 1
@alloc9972 = private unnamed_addr constant <{ [19 x i8] }> <{ [19 x i8] c"PROTECTION_KEY_USER" }>, align 1
@alloc10304 = private unnamed_addr constant <{ [14 x i8] }> <{ [14 x i8] c"PROTECTION_KEY" }>, align 1
@alloc9976 = private unnamed_addr constant <{ [24 x i8] }> <{ [24 x i8] c"CONTROL_FLOW_ENFORCEMENT" }>, align 1
@alloc9978 = private unnamed_addr constant <{ [25 x i8] }> <{ [25 x i8] c"PROTECTION_KEY_SUPERVISOR" }>, align 1
@alloc9989 = private unnamed_addr constant <{ [3 x i8] }> <{ [3 x i8] c"Dr0" }>, align 1
@alloc9988 = private unnamed_addr constant <{ [3 x i8] }> <{ [3 x i8] c"Dr1" }>, align 1
@alloc9987 = private unnamed_addr constant <{ [3 x i8] }> <{ [3 x i8] c"Dr2" }>, align 1
@alloc9986 = private unnamed_addr constant <{ [3 x i8] }> <{ [3 x i8] c"Dr3" }>, align 1
@alloc9990 = private unnamed_addr constant <{ [3 x i8] }> <{ [3 x i8] c"Dr6" }>, align 1
@alloc9993 = private unnamed_addr constant <{ ptr, [16 x i8] }> <{ ptr @alloc10015, [16 x i8] c"`\00\00\00\00\00\00\00n\00\00\00\01\00\00\00" }>, align 8
@alloc9994 = private unnamed_addr constant <{ [5 x i8] }> <{ [5 x i8] c"TRAP0" }>, align 1
@alloc9996 = private unnamed_addr constant <{ [5 x i8] }> <{ [5 x i8] c"TRAP1" }>, align 1
@alloc9998 = private unnamed_addr constant <{ [5 x i8] }> <{ [5 x i8] c"TRAP2" }>, align 1
@alloc10000 = private unnamed_addr constant <{ [5 x i8] }> <{ [5 x i8] c"TRAP3" }>, align 1
@alloc10002 = private unnamed_addr constant <{ [4 x i8] }> <{ [4 x i8] c"TRAP" }>, align 1
@alloc10004 = private unnamed_addr constant <{ [15 x i8] }> <{ [15 x i8] c"ACCESS_DETECTED" }>, align 1
@alloc10006 = private unnamed_addr constant <{ [4 x i8] }> <{ [4 x i8] c"STEP" }>, align 1
@alloc10008 = private unnamed_addr constant <{ [6 x i8] }> <{ [6 x i8] c"SWITCH" }>, align 1
@alloc10010 = private unnamed_addr constant <{ [3 x i8] }> <{ [3 x i8] c"RTM" }>, align 1
@alloc10016 = private unnamed_addr constant <{ ptr, [16 x i8] }> <{ ptr @alloc10015, [16 x i8] c"`\00\00\00\00\00\00\00\A3\00\00\00\01\00\00\00" }>, align 8
@alloc10017 = private unnamed_addr constant <{ [25 x i8] }> <{ [25 x i8] c"LOCAL_BREAKPOINT_0_ENABLE" }>, align 1
@alloc10019 = private unnamed_addr constant <{ [25 x i8] }> <{ [25 x i8] c"LOCAL_BREAKPOINT_1_ENABLE" }>, align 1
@alloc10021 = private unnamed_addr constant <{ [25 x i8] }> <{ [25 x i8] c"LOCAL_BREAKPOINT_2_ENABLE" }>, align 1
@alloc10023 = private unnamed_addr constant <{ [25 x i8] }> <{ [25 x i8] c"LOCAL_BREAKPOINT_3_ENABLE" }>, align 1
@alloc10025 = private unnamed_addr constant <{ [26 x i8] }> <{ [26 x i8] c"GLOBAL_BREAKPOINT_0_ENABLE" }>, align 1
@alloc10027 = private unnamed_addr constant <{ [26 x i8] }> <{ [26 x i8] c"GLOBAL_BREAKPOINT_1_ENABLE" }>, align 1
@alloc10029 = private unnamed_addr constant <{ [26 x i8] }> <{ [26 x i8] c"GLOBAL_BREAKPOINT_2_ENABLE" }>, align 1
@alloc10031 = private unnamed_addr constant <{ [26 x i8] }> <{ [26 x i8] c"GLOBAL_BREAKPOINT_3_ENABLE" }>, align 1
@alloc10033 = private unnamed_addr constant <{ [29 x i8] }> <{ [29 x i8] c"LOCAL_EXACT_BREAKPOINT_ENABLE" }>, align 1
@alloc10035 = private unnamed_addr constant <{ [30 x i8] }> <{ [30 x i8] c"GLOBAL_EXACT_BREAKPOINT_ENABLE" }>, align 1
@alloc10037 = private unnamed_addr constant <{ [31 x i8] }> <{ [31 x i8] c"RESTRICTED_TRANSACTIONAL_MEMORY" }>, align 1
@alloc10039 = private unnamed_addr constant <{ [21 x i8] }> <{ [21 x i8] c"GENERAL_DETECT_ENABLE" }>, align 1
@alloc10043 = private unnamed_addr constant <{ [15 x i8] }> <{ [15 x i8] c"DataReadsWrites" }>, align 1
@alloc10044 = private unnamed_addr constant <{ [13 x i8] }> <{ [13 x i8] c"IoReadsWrites" }>, align 1
@alloc10045 = private unnamed_addr constant <{ [10 x i8] }> <{ [10 x i8] c"DataWrites" }>, align 1
@alloc10046 = private unnamed_addr constant <{ [20 x i8] }> <{ [20 x i8] c"InstructionExecution" }>, align 1
@alloc10047 = private unnamed_addr constant <{ [8 x i8] }> <{ [8 x i8] c"Length4B" }>, align 1
@alloc10048 = private unnamed_addr constant <{ [8 x i8] }> <{ [8 x i8] c"Length8B" }>, align 1
@alloc10049 = private unnamed_addr constant <{ [8 x i8] }> <{ [8 x i8] c"Length2B" }>, align 1
@alloc10050 = private unnamed_addr constant <{ [8 x i8] }> <{ [8 x i8] c"Length1B" }>, align 1
@alloc10051 = private unnamed_addr constant <{ [8 x i8] }> <{ [8 x i8] c"Dr7Value" }>, align 1
@alloc10052 = private unnamed_addr constant <{ [4 x i8] }> <{ [4 x i8] c"bits" }>, align 1
@alloc10053 = private unnamed_addr constant <{ [3 x i8] }> <{ [3 x i8] c"Dr7" }>, align 1
@alloc10054 = private unnamed_addr constant <{ [3 x i8] }> <{ [3 x i8] c"Msr" }>, align 1
@vtable.o = private constant <{ ptr, [16 x i8], ptr }> <{ ptr @"_ZN4core3ptr28drop_in_place$LT$$RF$u32$GT$17h6b933ce3c513e459E", [16 x i8] c"\08\00\00\00\00\00\00\00\08\00\00\00\00\00\00\00", ptr @"_ZN42_$LT$$RF$T$u20$as$u20$core..fmt..Debug$GT$3fmt17h04a0a2c9c9a7ebe9E" }>, align 8, !dbg !401
@alloc10058 = private unnamed_addr constant <{ [4 x i8] }> <{ [4 x i8] c"Efer" }>, align 1
@alloc10059 = private unnamed_addr constant <{ [6 x i8] }> <{ [6 x i8] c"FsBase" }>, align 1
@alloc10060 = private unnamed_addr constant <{ [6 x i8] }> <{ [6 x i8] c"GsBase" }>, align 1
@alloc10061 = private unnamed_addr constant <{ [12 x i8] }> <{ [12 x i8] c"KernelGsBase" }>, align 1
@alloc10062 = private unnamed_addr constant <{ [4 x i8] }> <{ [4 x i8] c"Star" }>, align 1
@alloc10063 = private unnamed_addr constant <{ [5 x i8] }> <{ [5 x i8] c"LStar" }>, align 1
@alloc10064 = private unnamed_addr constant <{ [6 x i8] }> <{ [6 x i8] c"SFMask" }>, align 1
@alloc10065 = private unnamed_addr constant <{ [4 x i8] }> <{ [4 x i8] c"UCet" }>, align 1
@alloc10066 = private unnamed_addr constant <{ [4 x i8] }> <{ [4 x i8] c"SCet" }>, align 1
@alloc10089 = private unnamed_addr constant <{ [105 x i8] }> <{ [105 x i8] c"/Users/yaw/.cargo/registry/src/github.com-1ecc6299db9ec823/x86_64-0.14.10/src/registers/model_specific.rs" }>, align 1
@alloc10069 = private unnamed_addr constant <{ ptr, [16 x i8] }> <{ ptr @alloc10089, [16 x i8] c"i\00\00\00\00\00\00\00o\00\00\00\01\00\00\00" }>, align 8
@alloc10070 = private unnamed_addr constant <{ [22 x i8] }> <{ [22 x i8] c"SYSTEM_CALL_EXTENSIONS" }>, align 1
@alloc10072 = private unnamed_addr constant <{ [16 x i8] }> <{ [16 x i8] c"LONG_MODE_ENABLE" }>, align 1
@alloc10074 = private unnamed_addr constant <{ [16 x i8] }> <{ [16 x i8] c"LONG_MODE_ACTIVE" }>, align 1
@alloc10076 = private unnamed_addr constant <{ [17 x i8] }> <{ [17 x i8] c"NO_EXECUTE_ENABLE" }>, align 1
@alloc10078 = private unnamed_addr constant <{ [29 x i8] }> <{ [29 x i8] c"SECURE_VIRTUAL_MACHINE_ENABLE" }>, align 1
@alloc10080 = private unnamed_addr constant <{ [30 x i8] }> <{ [30 x i8] c"LONG_MODE_SEGMENT_LIMIT_ENABLE" }>, align 1
@alloc10082 = private unnamed_addr constant <{ [19 x i8] }> <{ [19 x i8] c"FAST_FXSAVE_FXRSTOR" }>, align 1
@alloc10084 = private unnamed_addr constant <{ [27 x i8] }> <{ [27 x i8] c"TRANSLATION_CACHE_EXTENSION" }>, align 1
@alloc10090 = private unnamed_addr constant <{ ptr, [16 x i8] }> <{ ptr @alloc10089, [16 x i8] c"i\00\00\00\00\00\00\00\85\00\00\00\01\00\00\00" }>, align 8
@alloc10091 = private unnamed_addr constant <{ [9 x i8] }> <{ [9 x i8] c"SS_ENABLE" }>, align 1
@alloc10093 = private unnamed_addr constant <{ [15 x i8] }> <{ [15 x i8] c"SS_WRITE_ENABLE" }>, align 1
@alloc10095 = private unnamed_addr constant <{ [10 x i8] }> <{ [10 x i8] c"IBT_ENABLE" }>, align 1
@alloc10097 = private unnamed_addr constant <{ [17 x i8] }> <{ [17 x i8] c"IBT_LEGACY_ENABLE" }>, align 1
@alloc10099 = private unnamed_addr constant <{ [19 x i8] }> <{ [19 x i8] c"IBT_NO_TRACK_ENABLE" }>, align 1
@alloc10101 = private unnamed_addr constant <{ [26 x i8] }> <{ [26 x i8] c"IBT_LEGACY_SUPPRESS_ENABLE" }>, align 1
@alloc10103 = private unnamed_addr constant <{ [19 x i8] }> <{ [19 x i8] c"IBT_SUPPRESS_ENABLE" }>, align 1
@alloc10105 = private unnamed_addr constant <{ [11 x i8] }> <{ [11 x i8] c"IBT_TRACKED" }>, align 1
@alloc10110 = private unnamed_addr constant <{ [96 x i8] }> <{ [96 x i8] c"/Users/yaw/.cargo/registry/src/github.com-1ecc6299db9ec823/x86_64-0.14.10/src/registers/mxcsr.rs" }>, align 1
@alloc10111 = private unnamed_addr constant <{ ptr, [16 x i8] }> <{ ptr @alloc10110, [16 x i8] c"`\00\00\00\00\00\00\00\08\00\00\00\01\00\00\00" }>, align 8
@alloc10112 = private unnamed_addr constant <{ [17 x i8] }> <{ [17 x i8] c"INVALID_OPERATION" }>, align 1
@alloc10114 = private unnamed_addr constant <{ [8 x i8] }> <{ [8 x i8] c"DENORMAL" }>, align 1
@alloc10116 = private unnamed_addr constant <{ [14 x i8] }> <{ [14 x i8] c"DIVIDE_BY_ZERO" }>, align 1
@alloc10118 = private unnamed_addr constant <{ [8 x i8] }> <{ [8 x i8] c"OVERFLOW" }>, align 1
@alloc10120 = private unnamed_addr constant <{ [9 x i8] }> <{ [9 x i8] c"UNDERFLOW" }>, align 1
@alloc10122 = private unnamed_addr constant <{ [9 x i8] }> <{ [9 x i8] c"PRECISION" }>, align 1
@alloc10124 = private unnamed_addr constant <{ [19 x i8] }> <{ [19 x i8] c"DENORMALS_ARE_ZEROS" }>, align 1
@alloc10126 = private unnamed_addr constant <{ [22 x i8] }> <{ [22 x i8] c"INVALID_OPERATION_MASK" }>, align 1
@alloc10128 = private unnamed_addr constant <{ [13 x i8] }> <{ [13 x i8] c"DENORMAL_MASK" }>, align 1
@alloc10130 = private unnamed_addr constant <{ [19 x i8] }> <{ [19 x i8] c"DIVIDE_BY_ZERO_MASK" }>, align 1
@alloc10132 = private unnamed_addr constant <{ [13 x i8] }> <{ [13 x i8] c"OVERFLOW_MASK" }>, align 1
@alloc10134 = private unnamed_addr constant <{ [14 x i8] }> <{ [14 x i8] c"UNDERFLOW_MASK" }>, align 1
@alloc10136 = private unnamed_addr constant <{ [14 x i8] }> <{ [14 x i8] c"PRECISION_MASK" }>, align 1
@alloc10138 = private unnamed_addr constant <{ [25 x i8] }> <{ [25 x i8] c"ROUNDING_CONTROL_NEGATIVE" }>, align 1
@alloc10140 = private unnamed_addr constant <{ [25 x i8] }> <{ [25 x i8] c"ROUNDING_CONTROL_POSITIVE" }>, align 1
@alloc10142 = private unnamed_addr constant <{ [21 x i8] }> <{ [21 x i8] c"ROUNDING_CONTROL_ZERO" }>, align 1
@alloc10144 = private unnamed_addr constant <{ [13 x i8] }> <{ [13 x i8] c"FLUSH_TO_ZERO" }>, align 1
@alloc10149 = private unnamed_addr constant <{ [97 x i8] }> <{ [97 x i8] c"/Users/yaw/.cargo/registry/src/github.com-1ecc6299db9ec823/x86_64-0.14.10/src/registers/rflags.rs" }>, align 1
@alloc10150 = private unnamed_addr constant <{ ptr, [16 x i8] }> <{ ptr @alloc10149, [16 x i8] c"a\00\00\00\00\00\00\00\08\00\00\00\01\00\00\00" }>, align 8
@alloc10151 = private unnamed_addr constant <{ [2 x i8] }> <{ [2 x i8] c"ID" }>, align 1
@alloc10153 = private unnamed_addr constant <{ [25 x i8] }> <{ [25 x i8] c"VIRTUAL_INTERRUPT_PENDING" }>, align 1
@alloc10155 = private unnamed_addr constant <{ [17 x i8] }> <{ [17 x i8] c"VIRTUAL_INTERRUPT" }>, align 1
@alloc10157 = private unnamed_addr constant <{ [15 x i8] }> <{ [15 x i8] c"ALIGNMENT_CHECK" }>, align 1
@alloc10159 = private unnamed_addr constant <{ [17 x i8] }> <{ [17 x i8] c"VIRTUAL_8086_MODE" }>, align 1
@alloc10161 = private unnamed_addr constant <{ [11 x i8] }> <{ [11 x i8] c"RESUME_FLAG" }>, align 1
@alloc10163 = private unnamed_addr constant <{ [11 x i8] }> <{ [11 x i8] c"NESTED_TASK" }>, align 1
@alloc10165 = private unnamed_addr constant <{ [9 x i8] }> <{ [9 x i8] c"IOPL_HIGH" }>, align 1
@alloc10167 = private unnamed_addr constant <{ [8 x i8] }> <{ [8 x i8] c"IOPL_LOW" }>, align 1
@alloc10169 = private unnamed_addr constant <{ [13 x i8] }> <{ [13 x i8] c"OVERFLOW_FLAG" }>, align 1
@alloc10171 = private unnamed_addr constant <{ [14 x i8] }> <{ [14 x i8] c"DIRECTION_FLAG" }>, align 1
@alloc10173 = private unnamed_addr constant <{ [14 x i8] }> <{ [14 x i8] c"INTERRUPT_FLAG" }>, align 1
@alloc10175 = private unnamed_addr constant <{ [9 x i8] }> <{ [9 x i8] c"TRAP_FLAG" }>, align 1
@alloc10177 = private unnamed_addr constant <{ [9 x i8] }> <{ [9 x i8] c"SIGN_FLAG" }>, align 1
@alloc10179 = private unnamed_addr constant <{ [9 x i8] }> <{ [9 x i8] c"ZERO_FLAG" }>, align 1
@alloc10181 = private unnamed_addr constant <{ [20 x i8] }> <{ [20 x i8] c"AUXILIARY_CARRY_FLAG" }>, align 1
@alloc10183 = private unnamed_addr constant <{ [11 x i8] }> <{ [11 x i8] c"PARITY_FLAG" }>, align 1
@alloc10185 = private unnamed_addr constant <{ [10 x i8] }> <{ [10 x i8] c"CARRY_FLAG" }>, align 1
@alloc10189 = private unnamed_addr constant <{ [2 x i8] }> <{ [2 x i8] c"CS" }>, align 1
@alloc10190 = private unnamed_addr constant <{ [2 x i8] }> <{ [2 x i8] c"SS" }>, align 1
@alloc10191 = private unnamed_addr constant <{ [2 x i8] }> <{ [2 x i8] c"DS" }>, align 1
@alloc10192 = private unnamed_addr constant <{ [2 x i8] }> <{ [2 x i8] c"ES" }>, align 1
@alloc10193 = private unnamed_addr constant <{ [2 x i8] }> <{ [2 x i8] c"FS" }>, align 1
@alloc10194 = private unnamed_addr constant <{ [2 x i8] }> <{ [2 x i8] c"GS" }>, align 1
@alloc10195 = private unnamed_addr constant <{ [4 x i8] }> <{ [4 x i8] c"XCr0" }>, align 1
@alloc10197 = private unnamed_addr constant <{ [99 x i8] }> <{ [99 x i8] c"/Users/yaw/.cargo/registry/src/github.com-1ecc6299db9ec823/x86_64-0.14.10/src/registers/xcontrol.rs" }>, align 1
@alloc10198 = private unnamed_addr constant <{ ptr, [16 x i8] }> <{ ptr @alloc10197, [16 x i8] c"c\00\00\00\00\00\00\00\08\00\00\00\01\00\00\00" }>, align 8
@alloc10199 = private unnamed_addr constant <{ [3 x i8] }> <{ [3 x i8] c"X87" }>, align 1
@alloc10201 = private unnamed_addr constant <{ [3 x i8] }> <{ [3 x i8] c"SSE" }>, align 1
@alloc10203 = private unnamed_addr constant <{ [3 x i8] }> <{ [3 x i8] c"AVX" }>, align 1
@alloc10205 = private unnamed_addr constant <{ [3 x i8] }> <{ [3 x i8] c"YMM" }>, align 1
@alloc10207 = private unnamed_addr constant <{ [6 x i8] }> <{ [6 x i8] c"BNDREG" }>, align 1
@alloc10209 = private unnamed_addr constant <{ [6 x i8] }> <{ [6 x i8] c"BNDCSR" }>, align 1
@alloc10211 = private unnamed_addr constant <{ [6 x i8] }> <{ [6 x i8] c"OPMASK" }>, align 1
@alloc10213 = private unnamed_addr constant <{ [9 x i8] }> <{ [9 x i8] c"ZMM_HI256" }>, align 1
@alloc10215 = private unnamed_addr constant <{ [8 x i8] }> <{ [8 x i8] c"HI16_ZMM" }>, align 1
@alloc10217 = private unnamed_addr constant <{ [3 x i8] }> <{ [3 x i8] c"MPK" }>, align 1
@alloc10219 = private unnamed_addr constant <{ [3 x i8] }> <{ [3 x i8] c"LWP" }>, align 1
@alloc10223 = private unnamed_addr constant <{ [21 x i8] }> <{ [21 x i8] c"GlobalDescriptorTable" }>, align 1
@alloc10224 = private unnamed_addr constant <{ [5 x i8] }> <{ [5 x i8] c"table" }>, align 1
@vtable.p = private constant <{ ptr, [16 x i8], ptr }> <{ ptr @"_ZN4core3ptr45drop_in_place$LT$$u5b$u64$u3b$$u20$8$u5d$$GT$17h753635b82097e3d2E", [16 x i8] c"@\00\00\00\00\00\00\00\08\00\00\00\00\00\00\00", ptr @"_ZN4core5array69_$LT$impl$u20$core..fmt..Debug$u20$for$u20$$u5b$T$u3b$$u20$N$u5d$$GT$3fmt17hbab73e2341208dd5E" }>, align 8, !dbg !410
@alloc10228 = private unnamed_addr constant <{ [3 x i8] }> <{ [3 x i8] c"len" }>, align 1
@vtable.q = private constant <{ ptr, [16 x i8], ptr }> <{ ptr @"_ZN4core3ptr30drop_in_place$LT$$RF$usize$GT$17h6cd94752f97c7128E", [16 x i8] c"\08\00\00\00\00\00\00\00\08\00\00\00\00\00\00\00", ptr @"_ZN42_$LT$$RF$T$u20$as$u20$core..fmt..Debug$GT$3fmt17hf8c1d382b513047aE" }>, align 8, !dbg !421
@alloc10232 = private unnamed_addr constant <{ [13 x i8] }> <{ [13 x i8] c"SystemSegment" }>, align 1
@alloc10233 = private unnamed_addr constant <{ [11 x i8] }> <{ [11 x i8] c"UserSegment" }>, align 1
@alloc10236 = private unnamed_addr constant <{ ptr, [16 x i8] }> <{ ptr @alloc10235, [16 x i8] c"_\00\00\00\00\00\00\00\C9\00\00\00\01\00\00\00" }>, align 8
@alloc10428 = private unnamed_addr constant <{ [8 x i8] }> <{ [8 x i8] c"ACCESSED" }>, align 1
@alloc10420 = private unnamed_addr constant <{ [8 x i8] }> <{ [8 x i8] c"WRITABLE" }>, align 1
@alloc10241 = private unnamed_addr constant <{ [10 x i8] }> <{ [10 x i8] c"CONFORMING" }>, align 1
@alloc10243 = private unnamed_addr constant <{ [10 x i8] }> <{ [10 x i8] c"EXECUTABLE" }>, align 1
@alloc10245 = private unnamed_addr constant <{ [12 x i8] }> <{ [12 x i8] c"USER_SEGMENT" }>, align 1
@alloc10247 = private unnamed_addr constant <{ [10 x i8] }> <{ [10 x i8] c"DPL_RING_3" }>, align 1
@alloc10418 = private unnamed_addr constant <{ [7 x i8] }> <{ [7 x i8] c"PRESENT" }>, align 1
@alloc10251 = private unnamed_addr constant <{ [9 x i8] }> <{ [9 x i8] c"AVAILABLE" }>, align 1
@alloc10253 = private unnamed_addr constant <{ [9 x i8] }> <{ [9 x i8] c"LONG_MODE" }>, align 1
@alloc10255 = private unnamed_addr constant <{ [12 x i8] }> <{ [12 x i8] c"DEFAULT_SIZE" }>, align 1
@alloc10257 = private unnamed_addr constant <{ [11 x i8] }> <{ [11 x i8] c"GRANULARITY" }>, align 1
@alloc10259 = private unnamed_addr constant <{ [10 x i8] }> <{ [10 x i8] c"LIMIT_0_15" }>, align 1
@alloc10261 = private unnamed_addr constant <{ [11 x i8] }> <{ [11 x i8] c"LIMIT_16_19" }>, align 1
@alloc10263 = private unnamed_addr constant <{ [9 x i8] }> <{ [9 x i8] c"BASE_0_23" }>, align 1
@alloc10265 = private unnamed_addr constant <{ [10 x i8] }> <{ [10 x i8] c"BASE_24_31" }>, align 1
@alloc8441 = private unnamed_addr constant <{ [12 x i8] }> <{ [12 x i8] c"divide_error" }>, align 1
@alloc8415 = private unnamed_addr constant <{ [5 x i8] }> <{ [5 x i8] c"debug" }>, align 1
@alloc8416 = private unnamed_addr constant <{ [22 x i8] }> <{ [22 x i8] c"non_maskable_interrupt" }>, align 1
@alloc8417 = private unnamed_addr constant <{ [10 x i8] }> <{ [10 x i8] c"breakpoint" }>, align 1
@alloc8418 = private unnamed_addr constant <{ [8 x i8] }> <{ [8 x i8] c"overflow" }>, align 1
@alloc8419 = private unnamed_addr constant <{ [20 x i8] }> <{ [20 x i8] c"bound_range_exceeded" }>, align 1
@alloc8420 = private unnamed_addr constant <{ [14 x i8] }> <{ [14 x i8] c"invalid_opcode" }>, align 1
@alloc8421 = private unnamed_addr constant <{ [20 x i8] }> <{ [20 x i8] c"device_not_available" }>, align 1
@alloc8422 = private unnamed_addr constant <{ [12 x i8] }> <{ [12 x i8] c"double_fault" }>, align 1
@alloc8423 = private unnamed_addr constant <{ [27 x i8] }> <{ [27 x i8] c"coprocessor_segment_overrun" }>, align 1
@alloc8424 = private unnamed_addr constant <{ [11 x i8] }> <{ [11 x i8] c"invalid_tss" }>, align 1
@alloc8425 = private unnamed_addr constant <{ [19 x i8] }> <{ [19 x i8] c"segment_not_present" }>, align 1
@alloc8426 = private unnamed_addr constant <{ [19 x i8] }> <{ [19 x i8] c"stack_segment_fault" }>, align 1
@alloc8427 = private unnamed_addr constant <{ [24 x i8] }> <{ [24 x i8] c"general_protection_fault" }>, align 1
@alloc8428 = private unnamed_addr constant <{ [10 x i8] }> <{ [10 x i8] c"page_fault" }>, align 1
@alloc9541 = private unnamed_addr constant <{ [10 x i8] }> <{ [10 x i8] c"reserved_1" }>, align 1
@alloc8430 = private unnamed_addr constant <{ [18 x i8] }> <{ [18 x i8] c"x87_floating_point" }>, align 1
@alloc8431 = private unnamed_addr constant <{ [15 x i8] }> <{ [15 x i8] c"alignment_check" }>, align 1
@alloc8432 = private unnamed_addr constant <{ [13 x i8] }> <{ [13 x i8] c"machine_check" }>, align 1
@alloc8433 = private unnamed_addr constant <{ [19 x i8] }> <{ [19 x i8] c"simd_floating_point" }>, align 1
@alloc8434 = private unnamed_addr constant <{ [14 x i8] }> <{ [14 x i8] c"virtualization" }>, align 1
@alloc9535 = private unnamed_addr constant <{ [10 x i8] }> <{ [10 x i8] c"reserved_2" }>, align 1
@alloc8436 = private unnamed_addr constant <{ [27 x i8] }> <{ [27 x i8] c"vmm_communication_exception" }>, align 1
@alloc8437 = private unnamed_addr constant <{ [18 x i8] }> <{ [18 x i8] c"security_exception" }>, align 1
@alloc9537 = private unnamed_addr constant <{ [10 x i8] }> <{ [10 x i8] c"reserved_3" }>, align 1
@alloc8439 = private unnamed_addr constant <{ [10 x i8] }> <{ [10 x i8] c"interrupts" }>, align 1
@alloc8440 = private unnamed_addr constant <{ ptr, [8 x i8], ptr, [8 x i8], ptr, [8 x i8], ptr, [8 x i8], ptr, [8 x i8], ptr, [8 x i8], ptr, [8 x i8], ptr, [8 x i8], ptr, [8 x i8], ptr, [8 x i8], ptr, [8 x i8], ptr, [8 x i8], ptr, [8 x i8], ptr, [8 x i8], ptr, [8 x i8], ptr, [8 x i8], ptr, [8 x i8], ptr, [8 x i8], ptr, [8 x i8], ptr, [8 x i8], ptr, [8 x i8], ptr, [8 x i8], ptr, [8 x i8], ptr, [8 x i8], ptr, [8 x i8], ptr, [8 x i8] }> <{ ptr @alloc8441, [8 x i8] c"\0C\00\00\00\00\00\00\00", ptr @alloc8415, [8 x i8] c"\05\00\00\00\00\00\00\00", ptr @alloc8416, [8 x i8] c"\16\00\00\00\00\00\00\00", ptr @alloc8417, [8 x i8] c"\0A\00\00\00\00\00\00\00", ptr @alloc8418, [8 x i8] c"\08\00\00\00\00\00\00\00", ptr @alloc8419, [8 x i8] c"\14\00\00\00\00\00\00\00", ptr @alloc8420, [8 x i8] c"\0E\00\00\00\00\00\00\00", ptr @alloc8421, [8 x i8] c"\14\00\00\00\00\00\00\00", ptr @alloc8422, [8 x i8] c"\0C\00\00\00\00\00\00\00", ptr @alloc8423, [8 x i8] c"\1B\00\00\00\00\00\00\00", ptr @alloc8424, [8 x i8] c"\0B\00\00\00\00\00\00\00", ptr @alloc8425, [8 x i8] c"\13\00\00\00\00\00\00\00", ptr @alloc8426, [8 x i8] c"\13\00\00\00\00\00\00\00", ptr @alloc8427, [8 x i8] c"\18\00\00\00\00\00\00\00", ptr @alloc8428, [8 x i8] c"\0A\00\00\00\00\00\00\00", ptr @alloc9541, [8 x i8] c"\0A\00\00\00\00\00\00\00", ptr @alloc8430, [8 x i8] c"\12\00\00\00\00\00\00\00", ptr @alloc8431, [8 x i8] c"\0F\00\00\00\00\00\00\00", ptr @alloc8432, [8 x i8] c"\0D\00\00\00\00\00\00\00", ptr @alloc8433, [8 x i8] c"\13\00\00\00\00\00\00\00", ptr @alloc8434, [8 x i8] c"\0E\00\00\00\00\00\00\00", ptr @alloc9535, [8 x i8] c"\0A\00\00\00\00\00\00\00", ptr @alloc8436, [8 x i8] c"\1B\00\00\00\00\00\00\00", ptr @alloc8437, [8 x i8] c"\12\00\00\00\00\00\00\00", ptr @alloc9537, [8 x i8] c"\0A\00\00\00\00\00\00\00", ptr @alloc8439, [8 x i8] c"\0A\00\00\00\00\00\00\00" }>, align 8
@vtable.r = private constant <{ ptr, [16 x i8], ptr }> <{ ptr @"_ZN4core3ptr152drop_in_place$LT$x86_64..structures..idt..Entry$LT$extern$u20$$u22$x86.interrupt$u22$$u20$fn$LP$x86_64..structures..idt..InterruptStackFrame$RP$$GT$$GT$17he9b2455657497241E", [16 x i8] c"\10\00\00\00\00\00\00\00\04\00\00\00\00\00\00\00", ptr @"_ZN76_$LT$x86_64..structures..idt..Entry$LT$T$GT$$u20$as$u20$core..fmt..Debug$GT$3fmt17h512191041b9694aeE" }>, align 8, !dbg !430
@vtable.s = private constant <{ ptr, [16 x i8], ptr }> <{ ptr @"_ZN4core3ptr178drop_in_place$LT$x86_64..structures..idt..Entry$LT$extern$u20$$u22$x86.interrupt$u22$$u20$fn$LP$x86_64..structures..idt..InterruptStackFrame$C$u64$RP$$u20$.$GT$$u20$$u21$$GT$$GT$17he595eeddfd02990fE", [16 x i8] c"\10\00\00\00\00\00\00\00\04\00\00\00\00\00\00\00", ptr @"_ZN76_$LT$x86_64..structures..idt..Entry$LT$T$GT$$u20$as$u20$core..fmt..Debug$GT$3fmt17h3ed69ba45d633eceE" }>, align 8, !dbg !438
@vtable.t = private constant <{ ptr, [16 x i8], ptr }> <{ ptr @"_ZN4core3ptr158drop_in_place$LT$x86_64..structures..idt..Entry$LT$extern$u20$$u22$x86.interrupt$u22$$u20$fn$LP$x86_64..structures..idt..InterruptStackFrame$C$u64$RP$$GT$$GT$17h605ea4e02a183bffE", [16 x i8] c"\10\00\00\00\00\00\00\00\04\00\00\00\00\00\00\00", ptr @"_ZN76_$LT$x86_64..structures..idt..Entry$LT$T$GT$$u20$as$u20$core..fmt..Debug$GT$3fmt17ha6ff6e8fde14b441E" }>, align 8, !dbg !464
@vtable.u = private constant <{ ptr, [16 x i8], ptr }> <{ ptr @"_ZN4core3ptr198drop_in_place$LT$x86_64..structures..idt..Entry$LT$extern$u20$$u22$x86.interrupt$u22$$u20$fn$LP$x86_64..structures..idt..InterruptStackFrame$C$x86_64..structures..idt..PageFaultErrorCode$RP$$GT$$GT$17hdfa0a7bb229be0abE", [16 x i8] c"\10\00\00\00\00\00\00\00\04\00\00\00\00\00\00\00", ptr @"_ZN76_$LT$x86_64..structures..idt..Entry$LT$T$GT$$u20$as$u20$core..fmt..Debug$GT$3fmt17h12e382cc662becb3E" }>, align 8, !dbg !489
@vtable.v = private constant <{ ptr, [16 x i8], ptr }> <{ ptr @"_ZN4core3ptr172drop_in_place$LT$x86_64..structures..idt..Entry$LT$extern$u20$$u22$x86.interrupt$u22$$u20$fn$LP$x86_64..structures..idt..InterruptStackFrame$RP$$u20$.$GT$$u20$$u21$$GT$$GT$17hae9305ab9faaf1b2E", [16 x i8] c"\10\00\00\00\00\00\00\00\04\00\00\00\00\00\00\00", ptr @"_ZN76_$LT$x86_64..structures..idt..Entry$LT$T$GT$$u20$as$u20$core..fmt..Debug$GT$3fmt17hece788abde4844e1E" }>, align 8, !dbg !517
@vtable.w = private constant <{ ptr, [16 x i8], ptr }> <{ ptr @"_ZN4core3ptr173drop_in_place$LT$$u5b$x86_64..structures..idt..Entry$LT$extern$u20$$u22$x86.interrupt$u22$$u20$fn$LP$x86_64..structures..idt..InterruptStackFrame$RP$$GT$$u3b$$u20$8$u5d$$GT$17hd4468f77e3d3e9ceE", [16 x i8] c"\80\00\00\00\00\00\00\00\04\00\00\00\00\00\00\00", ptr @"_ZN4core5array69_$LT$impl$u20$core..fmt..Debug$u20$for$u20$$u5b$T$u3b$$u20$N$u5d$$GT$3fmt17h66d66d953ac44966E" }>, align 8, !dbg !542
@vtable.x = private constant <{ ptr, [16 x i8], ptr }> <{ ptr @"_ZN4core3ptr179drop_in_place$LT$$RF$$u5b$x86_64..structures..idt..Entry$LT$extern$u20$$u22$x86.interrupt$u22$$u20$fn$LP$x86_64..structures..idt..InterruptStackFrame$RP$$GT$$u3b$$u20$224$u5d$$GT$17h3e95f669e262ad76E", [16 x i8] c"\08\00\00\00\00\00\00\00\08\00\00\00\00\00\00\00", ptr @"_ZN42_$LT$$RF$T$u20$as$u20$core..fmt..Debug$GT$3fmt17h91ad676cbe9e83faE" }>, align 8, !dbg !551
@alloc10290 = private unnamed_addr constant <{ [24 x i8] }> <{ [24 x i8] c"InterruptDescriptorTable" }>, align 1
@alloc10293 = private unnamed_addr constant <{ ptr, [16 x i8] }> <{ ptr @alloc10292, [16 x i8] c"_\00\00\00\00\00\00\00\A2\03\00\00\01\00\00\00" }>, align 8
@alloc10294 = private unnamed_addr constant <{ [20 x i8] }> <{ [20 x i8] c"PROTECTION_VIOLATION" }>, align 1
@alloc10296 = private unnamed_addr constant <{ [15 x i8] }> <{ [15 x i8] c"CAUSED_BY_WRITE" }>, align 1
@alloc10298 = private unnamed_addr constant <{ [9 x i8] }> <{ [9 x i8] c"USER_MODE" }>, align 1
@alloc10300 = private unnamed_addr constant <{ [15 x i8] }> <{ [15 x i8] c"MALFORMED_TABLE" }>, align 1
@alloc10302 = private unnamed_addr constant <{ [17 x i8] }> <{ [17 x i8] c"INSTRUCTION_FETCH" }>, align 1
@alloc10306 = private unnamed_addr constant <{ [12 x i8] }> <{ [12 x i8] c"SHADOW_STACK" }>, align 1
@alloc10308 = private unnamed_addr constant <{ [3 x i8] }> <{ [3 x i8] c"SGX" }>, align 1
@alloc10310 = private unnamed_addr constant <{ [3 x i8] }> <{ [3 x i8] c"RMP" }>, align 1
@alloc10314 = private unnamed_addr constant <{ [3 x i8] }> <{ [3 x i8] c"Ldt" }>, align 1
@alloc10315 = private unnamed_addr constant <{ [3 x i8] }> <{ [3 x i8] c"Idt" }>, align 1
@alloc10316 = private unnamed_addr constant <{ [3 x i8] }> <{ [3 x i8] c"Gdt" }>, align 1
@alloc10317 = private unnamed_addr constant <{ [8 x i8] }> <{ [8 x i8] c"Security" }>, align 1
@alloc10318 = private unnamed_addr constant <{ [16 x i8] }> <{ [16 x i8] c"VmmCommunication" }>, align 1
@alloc10319 = private unnamed_addr constant <{ [19 x i8] }> <{ [19 x i8] c"HypervisorInjection" }>, align 1
@alloc10320 = private unnamed_addr constant <{ [17 x i8] }> <{ [17 x i8] c"ControlProtection" }>, align 1
@alloc10321 = private unnamed_addr constant <{ [14 x i8] }> <{ [14 x i8] c"Virtualization" }>, align 1
@alloc10322 = private unnamed_addr constant <{ [17 x i8] }> <{ [17 x i8] c"SimdFloatingPoint" }>, align 1
@alloc10323 = private unnamed_addr constant <{ [12 x i8] }> <{ [12 x i8] c"MachineCheck" }>, align 1
@alloc10324 = private unnamed_addr constant <{ [14 x i8] }> <{ [14 x i8] c"AlignmentCheck" }>, align 1
@alloc10325 = private unnamed_addr constant <{ [16 x i8] }> <{ [16 x i8] c"X87FloatingPoint" }>, align 1
@alloc10326 = private unnamed_addr constant <{ [4 x i8] }> <{ [4 x i8] c"Page" }>, align 1
@alloc10327 = private unnamed_addr constant <{ [17 x i8] }> <{ [17 x i8] c"GeneralProtection" }>, align 1
@alloc10328 = private unnamed_addr constant <{ [5 x i8] }> <{ [5 x i8] c"Stack" }>, align 1
@alloc10329 = private unnamed_addr constant <{ [17 x i8] }> <{ [17 x i8] c"SegmentNotPresent" }>, align 1
@alloc10330 = private unnamed_addr constant <{ [10 x i8] }> <{ [10 x i8] c"InvalidTss" }>, align 1
@alloc10331 = private unnamed_addr constant <{ [6 x i8] }> <{ [6 x i8] c"Double" }>, align 1
@alloc10332 = private unnamed_addr constant <{ [18 x i8] }> <{ [18 x i8] c"DeviceNotAvailable" }>, align 1
@alloc10333 = private unnamed_addr constant <{ [13 x i8] }> <{ [13 x i8] c"InvalidOpcode" }>, align 1
@alloc10334 = private unnamed_addr constant <{ [10 x i8] }> <{ [10 x i8] c"BoundRange" }>, align 1
@alloc10335 = private unnamed_addr constant <{ [8 x i8] }> <{ [8 x i8] c"Overflow" }>, align 1
@alloc10336 = private unnamed_addr constant <{ [10 x i8] }> <{ [10 x i8] c"Breakpoint" }>, align 1
@alloc10337 = private unnamed_addr constant <{ [20 x i8] }> <{ [20 x i8] c"NonMaskableInterrupt" }>, align 1
@alloc10338 = private unnamed_addr constant <{ [5 x i8] }> <{ [5 x i8] c"Debug" }>, align 1
@alloc10339 = private unnamed_addr constant <{ [8 x i8] }> <{ [8 x i8] c"Division" }>, align 1
@alloc10340 = private unnamed_addr constant <{ [15 x i8] }> <{ [15 x i8] c"MappedPageTable" }>, align 1
@alloc10341 = private unnamed_addr constant <{ [17 x i8] }> <{ [17 x i8] c"page_table_walker" }>, align 1
@vtable.y = private constant <{ ptr, [16 x i8], ptr }> <{ ptr @"_ZN4core3ptr164drop_in_place$LT$x86_64..structures..paging..mapper..mapped_page_table..PageTableWalker$LT$x86_64..structures..paging..mapper..offset_page_table..PhysOffset$GT$$GT$17h6007ab77246d6fb3E", [16 x i8] c"\08\00\00\00\00\00\00\00\08\00\00\00\00\00\00\00", ptr @"_ZN116_$LT$x86_64..structures..paging..mapper..mapped_page_table..PageTableWalker$LT$P$GT$$u20$as$u20$core..fmt..Debug$GT$3fmt17h394b6fd5cf84717fE" }>, align 8, !dbg !563
@alloc10345 = private unnamed_addr constant <{ [13 x i8] }> <{ [13 x i8] c"level_4_table" }>, align 1
@vtable.z = private constant <{ ptr, [16 x i8], ptr }> <{ ptr @"_ZN4core3ptr86drop_in_place$LT$$RF$$RF$mut$u20$x86_64..structures..paging..page_table..PageTable$GT$17h681fdf3a9e2516b0E", [16 x i8] c"\08\00\00\00\00\00\00\00\08\00\00\00\00\00\00\00", ptr @"_ZN42_$LT$$RF$T$u20$as$u20$core..fmt..Debug$GT$3fmt17hf7580ebc5ed33674E" }>, align 8, !dbg !581
@alloc10349 = private unnamed_addr constant <{ [15 x i8] }> <{ [15 x i8] c"PageTableWalker" }>, align 1
@alloc10350 = private unnamed_addr constant <{ [24 x i8] }> <{ [24 x i8] c"page_table_frame_mapping" }>, align 1
@vtable.A = private constant <{ ptr, [16 x i8], ptr }> <{ ptr @"_ZN4core3ptr90drop_in_place$LT$$RF$x86_64..structures..paging..mapper..offset_page_table..PhysOffset$GT$17h3e9c5612331e2c61E", [16 x i8] c"\08\00\00\00\00\00\00\00\08\00\00\00\00\00\00\00", ptr @"_ZN42_$LT$$RF$T$u20$as$u20$core..fmt..Debug$GT$3fmt17hd720518f0cd8d1f8E" }>, align 8, !dbg !597
@alloc10357 = private unnamed_addr constant <{ [16 x i8] }> <{ [16 x i8] c"MappedToHugePage" }>, align 1
@alloc10380 = private unnamed_addr constant <{ [9 x i8] }> <{ [9 x i8] c"NotMapped" }>, align 1
@alloc10356 = private unnamed_addr constant <{ [21 x i8] }> <{ [21 x i8] c"FrameAllocationFailed" }>, align 1
@alloc10358 = private unnamed_addr constant <{ [15 x i8] }> <{ [15 x i8] c"OffsetPageTable" }>, align 1
@alloc10359 = private unnamed_addr constant <{ [5 x i8] }> <{ [5 x i8] c"inner" }>, align 1
@vtable.B = private constant <{ ptr, [16 x i8], ptr }> <{ ptr @"_ZN4core3ptr168drop_in_place$LT$$RF$x86_64..structures..paging..mapper..mapped_page_table..MappedPageTable$LT$x86_64..structures..paging..mapper..offset_page_table..PhysOffset$GT$$GT$17h5c062e1688dc38faE", [16 x i8] c"\08\00\00\00\00\00\00\00\08\00\00\00\00\00\00\00", ptr @"_ZN42_$LT$$RF$T$u20$as$u20$core..fmt..Debug$GT$3fmt17h61d46151712161acE" }>, align 8, !dbg !606
@alloc10363 = private unnamed_addr constant <{ [10 x i8] }> <{ [10 x i8] c"PhysOffset" }>, align 1
@alloc10386 = private unnamed_addr constant <{ [6 x i8] }> <{ [6 x i8] c"offset" }>, align 1
@alloc10365 = private unnamed_addr constant <{ [18 x i8] }> <{ [18 x i8] c"RecursivePageTable" }>, align 1
@alloc10366 = private unnamed_addr constant <{ [2 x i8] }> <{ [2 x i8] c"p4" }>, align 1
@vtable.C = private constant <{ ptr, [16 x i8], ptr }> <{ ptr @"_ZN4core3ptr82drop_in_place$LT$$RF$mut$u20$x86_64..structures..paging..page_table..PageTable$GT$17h6721da0805d3e66cE", [16 x i8] c"\08\00\00\00\00\00\00\00\08\00\00\00\00\00\00\00", ptr @"_ZN50_$LT$$RF$mut$u20$T$u20$as$u20$core..fmt..Debug$GT$3fmt17h5f9b0b67648b0c8aE" }>, align 8, !dbg !619
@alloc10370 = private unnamed_addr constant <{ [15 x i8] }> <{ [15 x i8] c"recursive_index" }>, align 1
@vtable.D = private constant <{ ptr, [16 x i8], ptr }> <{ ptr @"_ZN4core3ptr79drop_in_place$LT$$RF$x86_64..structures..paging..page_table..PageTableIndex$GT$17hcf196e1dc5602655E", [16 x i8] c"\08\00\00\00\00\00\00\00\08\00\00\00\00\00\00\00", ptr @"_ZN42_$LT$$RF$T$u20$as$u20$core..fmt..Debug$GT$3fmt17h36d166435a3736d8E" }>, align 8, !dbg !627
@alloc10374 = private unnamed_addr constant <{ [9 x i8] }> <{ [9 x i8] c"NotActive" }>, align 1
@alloc10375 = private unnamed_addr constant <{ [12 x i8] }> <{ [12 x i8] c"NotRecursive" }>, align 1
@alloc10409 = private unnamed_addr constant <{ [19 x i8] }> <{ [19 x i8] c"InvalidFrameAddress" }>, align 1
@vtable.E = private constant <{ ptr, [16 x i8], ptr }> <{ ptr @"_ZN4core3ptr47drop_in_place$LT$$RF$x86_64..addr..PhysAddr$GT$17h470dbd348baae334E", [16 x i8] c"\08\00\00\00\00\00\00\00\08\00\00\00\00\00\00\00", ptr @"_ZN42_$LT$$RF$T$u20$as$u20$core..fmt..Debug$GT$3fmt17h184c26d00253321fE" }>, align 8, !dbg !639
@alloc10381 = private unnamed_addr constant <{ [6 x i8] }> <{ [6 x i8] c"Mapped" }>, align 1
@alloc10382 = private unnamed_addr constant <{ [5 x i8] }> <{ [5 x i8] c"frame" }>, align 1
@vtable.F = private constant <{ ptr, [16 x i8], ptr }> <{ ptr @"_ZN4core3ptr68drop_in_place$LT$x86_64..structures..paging..mapper..MappedFrame$GT$17ha298feb08fe80656E", [16 x i8] c"\10\00\00\00\00\00\00\00\08\00\00\00\00\00\00\00", ptr @"_ZN84_$LT$x86_64..structures..paging..mapper..MappedFrame$u20$as$u20$core..fmt..Debug$GT$3fmt17hc7d9d29edf29986dE" }>, align 8, !dbg !648
@vtable.G = private constant <{ ptr, [16 x i8], ptr }> <{ ptr @"_ZN4core3ptr79drop_in_place$LT$$RF$x86_64..structures..paging..page_table..PageTableFlags$GT$17hfa2e892152b85d7aE", [16 x i8] c"\08\00\00\00\00\00\00\00\08\00\00\00\00\00\00\00", ptr @"_ZN42_$LT$$RF$T$u20$as$u20$core..fmt..Debug$GT$3fmt17hef94500d7a78363cE" }>, align 8, !dbg !711
@alloc10391 = private unnamed_addr constant <{ [8 x i8] }> <{ [8 x i8] c"Size1GiB" }>, align 1
@vtable.H = private constant <{ ptr, [16 x i8], ptr }> <{ ptr @"_ZN4core3ptr119drop_in_place$LT$$RF$x86_64..structures..paging..frame..PhysFrame$LT$x86_64..structures..paging..page..Size1GiB$GT$$GT$17h6f9f442d53dfe57aE", [16 x i8] c"\08\00\00\00\00\00\00\00\08\00\00\00\00\00\00\00", ptr @"_ZN42_$LT$$RF$T$u20$as$u20$core..fmt..Debug$GT$3fmt17h1c82f6d3aa69f513E" }>, align 8, !dbg !720
@alloc10395 = private unnamed_addr constant <{ [8 x i8] }> <{ [8 x i8] c"Size2MiB" }>, align 1
@vtable.I = private constant <{ ptr, [16 x i8], ptr }> <{ ptr @"_ZN4core3ptr119drop_in_place$LT$$RF$x86_64..structures..paging..frame..PhysFrame$LT$x86_64..structures..paging..page..Size2MiB$GT$$GT$17he8ecb884c3fa3f0cE", [16 x i8] c"\08\00\00\00\00\00\00\00\08\00\00\00\00\00\00\00", ptr @"_ZN42_$LT$$RF$T$u20$as$u20$core..fmt..Debug$GT$3fmt17h6083dbf657f6baaaE" }>, align 8, !dbg !729
@alloc10399 = private unnamed_addr constant <{ [8 x i8] }> <{ [8 x i8] c"Size4KiB" }>, align 1
@vtable.J = private constant <{ ptr, [16 x i8], ptr }> <{ ptr @"_ZN4core3ptr69drop_in_place$LT$$RF$x86_64..structures..paging..frame..PhysFrame$GT$17h14640ca1284c6fe5E", [16 x i8] c"\08\00\00\00\00\00\00\00\08\00\00\00\00\00\00\00", ptr @"_ZN42_$LT$$RF$T$u20$as$u20$core..fmt..Debug$GT$3fmt17hdd671ae5865fe524E" }>, align 8, !dbg !738
@alloc10403 = private unnamed_addr constant <{ [14 x i8] }> <{ [14 x i8] c"MapperFlushAll" }>, align 1
@alloc10411 = private unnamed_addr constant <{ [13 x i8] }> <{ [13 x i8] c"PageNotMapped" }>, align 1
@alloc10410 = private unnamed_addr constant <{ [19 x i8] }> <{ [19 x i8] c"ParentEntryHugePage" }>, align 1
@alloc10412 = private unnamed_addr constant <{ [17 x i8] }> <{ [17 x i8] c"AddressNotAligned" }>, align 1
@alloc10413 = private unnamed_addr constant <{ [9 x i8] }> <{ [9 x i8] c"HugeFrame" }>, align 1
@alloc10414 = private unnamed_addr constant <{ [15 x i8] }> <{ [15 x i8] c"FrameNotPresent" }>, align 1
@alloc10417 = private unnamed_addr constant <{ ptr, [16 x i8] }> <{ ptr @alloc10416, [16 x i8] c"m\00\00\00\00\00\00\00k\00\00\00\01\00\00\00" }>, align 8
@alloc10422 = private unnamed_addr constant <{ [15 x i8] }> <{ [15 x i8] c"USER_ACCESSIBLE" }>, align 1
@alloc10424 = private unnamed_addr constant <{ [13 x i8] }> <{ [13 x i8] c"WRITE_THROUGH" }>, align 1
@alloc10426 = private unnamed_addr constant <{ [8 x i8] }> <{ [8 x i8] c"NO_CACHE" }>, align 1
@alloc10430 = private unnamed_addr constant <{ [5 x i8] }> <{ [5 x i8] c"DIRTY" }>, align 1
@alloc10432 = private unnamed_addr constant <{ [9 x i8] }> <{ [9 x i8] c"HUGE_PAGE" }>, align 1
@alloc10434 = private unnamed_addr constant <{ [6 x i8] }> <{ [6 x i8] c"GLOBAL" }>, align 1
@alloc10436 = private unnamed_addr constant <{ [5 x i8] }> <{ [5 x i8] c"BIT_9" }>, align 1
@alloc10438 = private unnamed_addr constant <{ [6 x i8] }> <{ [6 x i8] c"BIT_10" }>, align 1
@alloc10440 = private unnamed_addr constant <{ [6 x i8] }> <{ [6 x i8] c"BIT_11" }>, align 1
@alloc10442 = private unnamed_addr constant <{ [6 x i8] }> <{ [6 x i8] c"BIT_52" }>, align 1
@alloc10444 = private unnamed_addr constant <{ [6 x i8] }> <{ [6 x i8] c"BIT_53" }>, align 1
@alloc10446 = private unnamed_addr constant <{ [6 x i8] }> <{ [6 x i8] c"BIT_54" }>, align 1
@alloc10448 = private unnamed_addr constant <{ [6 x i8] }> <{ [6 x i8] c"BIT_55" }>, align 1
@alloc10450 = private unnamed_addr constant <{ [6 x i8] }> <{ [6 x i8] c"BIT_56" }>, align 1
@alloc10452 = private unnamed_addr constant <{ [6 x i8] }> <{ [6 x i8] c"BIT_57" }>, align 1
@alloc10454 = private unnamed_addr constant <{ [6 x i8] }> <{ [6 x i8] c"BIT_58" }>, align 1
@alloc10456 = private unnamed_addr constant <{ [6 x i8] }> <{ [6 x i8] c"BIT_59" }>, align 1
@alloc10458 = private unnamed_addr constant <{ [6 x i8] }> <{ [6 x i8] c"BIT_60" }>, align 1
@alloc10460 = private unnamed_addr constant <{ [6 x i8] }> <{ [6 x i8] c"BIT_61" }>, align 1
@alloc10462 = private unnamed_addr constant <{ [6 x i8] }> <{ [6 x i8] c"BIT_62" }>, align 1
@alloc10464 = private unnamed_addr constant <{ [10 x i8] }> <{ [10 x i8] c"NO_EXECUTE" }>, align 1
@alloc10468 = private unnamed_addr constant <{ [14 x i8] }> <{ [14 x i8] c"PageTableIndex" }>, align 1
@alloc10469 = private unnamed_addr constant <{ [10 x i8] }> <{ [10 x i8] c"PageOffset" }>, align 1
@alloc10470 = private unnamed_addr constant <{ [4 x i8] }> <{ [4 x i8] c"Four" }>, align 1
@alloc10471 = private unnamed_addr constant <{ [5 x i8] }> <{ [5 x i8] c"Three" }>, align 1
@alloc10472 = private unnamed_addr constant <{ [3 x i8] }> <{ [3 x i8] c"Two" }>, align 1
@alloc10473 = private unnamed_addr constant <{ [3 x i8] }> <{ [3 x i8] c"One" }>, align 1
@alloc9534 = private unnamed_addr constant <{ [21 x i8] }> <{ [21 x i8] c"privilege_stack_table" }>, align 1
@alloc9536 = private unnamed_addr constant <{ [21 x i8] }> <{ [21 x i8] c"interrupt_stack_table" }>, align 1
@alloc9538 = private unnamed_addr constant <{ [10 x i8] }> <{ [10 x i8] c"reserved_4" }>, align 1
@alloc9539 = private unnamed_addr constant <{ [10 x i8] }> <{ [10 x i8] c"iomap_base" }>, align 1
@alloc9540 = private unnamed_addr constant <{ ptr, [8 x i8], ptr, [8 x i8], ptr, [8 x i8], ptr, [8 x i8], ptr, [8 x i8], ptr, [8 x i8], ptr, [8 x i8] }> <{ ptr @alloc9541, [8 x i8] c"\0A\00\00\00\00\00\00\00", ptr @alloc9534, [8 x i8] c"\15\00\00\00\00\00\00\00", ptr @alloc9535, [8 x i8] c"\0A\00\00\00\00\00\00\00", ptr @alloc9536, [8 x i8] c"\15\00\00\00\00\00\00\00", ptr @alloc9537, [8 x i8] c"\0A\00\00\00\00\00\00\00", ptr @alloc9538, [8 x i8] c"\0A\00\00\00\00\00\00\00", ptr @alloc9539, [8 x i8] c"\0A\00\00\00\00\00\00\00" }>, align 8
@vtable.K = private constant <{ ptr, [16 x i8], ptr }> <{ ptr @"_ZN4core3ptr24drop_in_place$LT$u32$GT$17h67020f8e4f3913b1E", [16 x i8] c"\04\00\00\00\00\00\00\00\04\00\00\00\00\00\00\00", ptr @"_ZN4core3fmt3num50_$LT$impl$u20$core..fmt..Debug$u20$for$u20$u32$GT$3fmt17h2e1663b96125f5fcE" }>, align 8, !dbg !747
@vtable.L = private constant <{ ptr, [16 x i8], ptr }> <{ ptr @"_ZN4core3ptr64drop_in_place$LT$$u5b$x86_64..addr..VirtAddr$u3b$$u20$3$u5d$$GT$17h6d4dd7bda5ae72f4E", [16 x i8] c"\18\00\00\00\00\00\00\00\08\00\00\00\00\00\00\00", ptr @"_ZN4core5array69_$LT$impl$u20$core..fmt..Debug$u20$for$u20$$u5b$T$u3b$$u20$N$u5d$$GT$3fmt17h32d8b940e071d0afE" }>, align 8, !dbg !755
@vtable.M = private constant <{ ptr, [16 x i8], ptr }> <{ ptr @"_ZN4core3ptr64drop_in_place$LT$$u5b$x86_64..addr..VirtAddr$u3b$$u20$7$u5d$$GT$17hed3fb2b87ae670b7E", [16 x i8] c"8\00\00\00\00\00\00\00\08\00\00\00\00\00\00\00", ptr @"_ZN4core5array69_$LT$impl$u20$core..fmt..Debug$u20$for$u20$$u5b$T$u3b$$u20$N$u5d$$GT$3fmt17h079bfd1c0aab57e3E" }>, align 8, !dbg !764
@alloc10483 = private unnamed_addr constant <{ [16 x i8] }> <{ [16 x i8] c"TaskStateSegment" }>, align 1
@alloc10484 = private unnamed_addr constant <{ [22 x i8] }> <{ [22 x i8] c"DescriptorTablePointer" }>, align 1
@alloc10485 = private unnamed_addr constant <{ [5 x i8] }> <{ [5 x i8] c"limit" }>, align 1
@alloc10486 = private unnamed_addr constant <{ [4 x i8] }> <{ [4 x i8] c"base" }>, align 1
@alloc10487 = private unnamed_addr constant <{ [5 x i8] }> <{ [5 x i8] c"Ring3" }>, align 1
@alloc10488 = private unnamed_addr constant <{ [5 x i8] }> <{ [5 x i8] c"Ring2" }>, align 1
@alloc10489 = private unnamed_addr constant <{ [5 x i8] }> <{ [5 x i8] c"Ring1" }>, align 1
@alloc10490 = private unnamed_addr constant <{ [5 x i8] }> <{ [5 x i8] c"Ring0" }>, align 1

; <core::result::Result<T,F> as core::ops::try_trait::FromResidual<core::result::Result<core::convert::Infallible,E>>>::from_residual
; Function Attrs: inlinehint noredzone nounwind
define void @"_ZN153_$LT$core..result..Result$LT$T$C$F$GT$$u20$as$u20$core..ops..try_trait..FromResidual$LT$core..result..Result$LT$core..convert..Infallible$C$E$GT$$GT$$GT$13from_residual17h37efcf9edd7c858bE"(ptr sret(%"core::result::Result<(structures::paging::frame::PhysFrame<structures::paging::page::Size2MiB>, structures::paging::mapper::MapperFlush<structures::paging::page::Size2MiB>), structures::paging::mapper::UnmapError>") %0, i64 %1, i64 %2, ptr align 8 %3) unnamed_addr #0 !dbg !854 {
start:
  %t.dbg.spill.i = alloca { i64, i64 }, align 8
  %e.dbg.spill = alloca { i64, i64 }, align 8
  %residual = alloca { i64, i64 }, align 8
  %4 = getelementptr inbounds { i64, i64 }, ptr %residual, i32 0, i32 0
  store i64 %1, ptr %4, align 8
  %5 = getelementptr inbounds { i64, i64 }, ptr %residual, i32 0, i32 1
  store i64 %2, ptr %5, align 8
  call void @llvm.dbg.declare(metadata ptr %residual, metadata !926, metadata !DIExpression()), !dbg !931
  %6 = getelementptr inbounds { i64, i64 }, ptr %residual, i32 0, i32 0, !dbg !932
  %e.0 = load i64, ptr %6, align 8, !dbg !932, !range !933, !noundef !25
  %7 = getelementptr inbounds { i64, i64 }, ptr %residual, i32 0, i32 1, !dbg !932
  %e.1 = load i64, ptr %7, align 8, !dbg !932
  %8 = getelementptr inbounds { i64, i64 }, ptr %e.dbg.spill, i32 0, i32 0, !dbg !932
  store i64 %e.0, ptr %8, align 8, !dbg !932
  %9 = getelementptr inbounds { i64, i64 }, ptr %e.dbg.spill, i32 0, i32 1, !dbg !932
  store i64 %e.1, ptr %9, align 8, !dbg !932
  call void @llvm.dbg.declare(metadata ptr %e.dbg.spill, metadata !927, metadata !DIExpression()), !dbg !934
  store i64 %e.0, ptr %t.dbg.spill.i, align 8
  %10 = getelementptr inbounds { i64, i64 }, ptr %t.dbg.spill.i, i32 0, i32 1
  store i64 %e.1, ptr %10, align 8
  call void @llvm.dbg.declare(metadata ptr %t.dbg.spill.i, metadata !935, metadata !DIExpression()), !dbg !944
  %11 = insertvalue { i64, i64 } undef, i64 %e.0, 0, !dbg !946
  %12 = insertvalue { i64, i64 } %11, i64 %e.1, 1, !dbg !946
  %_3.0 = extractvalue { i64, i64 } %12, 0, !dbg !947
  %_3.1 = extractvalue { i64, i64 } %12, 1, !dbg !947
  %13 = getelementptr inbounds %"core::result::Result<(structures::paging::frame::PhysFrame<structures::paging::page::Size2MiB>, structures::paging::mapper::MapperFlush<structures::paging::page::Size2MiB>), structures::paging::mapper::UnmapError>::Err", ptr %0, i32 0, i32 1, !dbg !948
  %14 = getelementptr inbounds { i64, i64 }, ptr %13, i32 0, i32 0, !dbg !948
  store i64 %_3.0, ptr %14, align 8, !dbg !948
  %15 = getelementptr inbounds { i64, i64 }, ptr %13, i32 0, i32 1, !dbg !948
  store i64 %_3.1, ptr %15, align 8, !dbg !948
  store i64 1, ptr %0, align 8, !dbg !948
  ret void, !dbg !949
}

; <core::result::Result<T,F> as core::ops::try_trait::FromResidual<core::result::Result<core::convert::Infallible,E>>>::from_residual
; Function Attrs: inlinehint noredzone nounwind
define void @"_ZN153_$LT$core..result..Result$LT$T$C$F$GT$$u20$as$u20$core..ops..try_trait..FromResidual$LT$core..result..Result$LT$core..convert..Infallible$C$E$GT$$GT$$GT$13from_residual17habd15e6d9de6ac70E"(ptr sret(%"core::result::Result<(structures::paging::frame::PhysFrame<structures::paging::page::Size1GiB>, structures::paging::mapper::MapperFlush<structures::paging::page::Size1GiB>), structures::paging::mapper::UnmapError>") %0, i64 %1, i64 %2, ptr align 8 %3) unnamed_addr #0 !dbg !950 {
start:
  %t.dbg.spill.i = alloca { i64, i64 }, align 8
  %e.dbg.spill = alloca { i64, i64 }, align 8
  %residual = alloca { i64, i64 }, align 8
  %4 = getelementptr inbounds { i64, i64 }, ptr %residual, i32 0, i32 0
  store i64 %1, ptr %4, align 8
  %5 = getelementptr inbounds { i64, i64 }, ptr %residual, i32 0, i32 1
  store i64 %2, ptr %5, align 8
  call void @llvm.dbg.declare(metadata ptr %residual, metadata !980, metadata !DIExpression()), !dbg !984
  %6 = getelementptr inbounds { i64, i64 }, ptr %residual, i32 0, i32 0, !dbg !985
  %e.0 = load i64, ptr %6, align 8, !dbg !985, !range !933, !noundef !25
  %7 = getelementptr inbounds { i64, i64 }, ptr %residual, i32 0, i32 1, !dbg !985
  %e.1 = load i64, ptr %7, align 8, !dbg !985
  %8 = getelementptr inbounds { i64, i64 }, ptr %e.dbg.spill, i32 0, i32 0, !dbg !985
  store i64 %e.0, ptr %8, align 8, !dbg !985
  %9 = getelementptr inbounds { i64, i64 }, ptr %e.dbg.spill, i32 0, i32 1, !dbg !985
  store i64 %e.1, ptr %9, align 8, !dbg !985
  call void @llvm.dbg.declare(metadata ptr %e.dbg.spill, metadata !981, metadata !DIExpression()), !dbg !986
  store i64 %e.0, ptr %t.dbg.spill.i, align 8
  %10 = getelementptr inbounds { i64, i64 }, ptr %t.dbg.spill.i, i32 0, i32 1
  store i64 %e.1, ptr %10, align 8
  call void @llvm.dbg.declare(metadata ptr %t.dbg.spill.i, metadata !935, metadata !DIExpression()), !dbg !987
  %11 = insertvalue { i64, i64 } undef, i64 %e.0, 0, !dbg !989
  %12 = insertvalue { i64, i64 } %11, i64 %e.1, 1, !dbg !989
  %_3.0 = extractvalue { i64, i64 } %12, 0, !dbg !990
  %_3.1 = extractvalue { i64, i64 } %12, 1, !dbg !990
  %13 = getelementptr inbounds %"core::result::Result<(structures::paging::frame::PhysFrame<structures::paging::page::Size1GiB>, structures::paging::mapper::MapperFlush<structures::paging::page::Size1GiB>), structures::paging::mapper::UnmapError>::Err", ptr %0, i32 0, i32 1, !dbg !991
  %14 = getelementptr inbounds { i64, i64 }, ptr %13, i32 0, i32 0, !dbg !991
  store i64 %_3.0, ptr %14, align 8, !dbg !991
  %15 = getelementptr inbounds { i64, i64 }, ptr %13, i32 0, i32 1, !dbg !991
  store i64 %_3.1, ptr %15, align 8, !dbg !991
  store i64 1, ptr %0, align 8, !dbg !991
  ret void, !dbg !992
}

; <core::result::Result<T,F> as core::ops::try_trait::FromResidual<core::result::Result<core::convert::Infallible,E>>>::from_residual
; Function Attrs: inlinehint noredzone nounwind
define void @"_ZN153_$LT$core..result..Result$LT$T$C$F$GT$$u20$as$u20$core..ops..try_trait..FromResidual$LT$core..result..Result$LT$core..convert..Infallible$C$E$GT$$GT$$GT$13from_residual17hc067a4b5fa0d571dE"(ptr sret(%"core::result::Result<(structures::paging::frame::PhysFrame, structures::paging::mapper::MapperFlush<structures::paging::page::Size4KiB>), structures::paging::mapper::UnmapError>") %0, i64 %1, i64 %2, ptr align 8 %3) unnamed_addr #0 !dbg !993 {
start:
  %t.dbg.spill.i = alloca { i64, i64 }, align 8
  %e.dbg.spill = alloca { i64, i64 }, align 8
  %residual = alloca { i64, i64 }, align 8
  %4 = getelementptr inbounds { i64, i64 }, ptr %residual, i32 0, i32 0
  store i64 %1, ptr %4, align 8
  %5 = getelementptr inbounds { i64, i64 }, ptr %residual, i32 0, i32 1
  store i64 %2, ptr %5, align 8
  call void @llvm.dbg.declare(metadata ptr %residual, metadata !1023, metadata !DIExpression()), !dbg !1027
  %6 = getelementptr inbounds { i64, i64 }, ptr %residual, i32 0, i32 0, !dbg !1028
  %e.0 = load i64, ptr %6, align 8, !dbg !1028, !range !933, !noundef !25
  %7 = getelementptr inbounds { i64, i64 }, ptr %residual, i32 0, i32 1, !dbg !1028
  %e.1 = load i64, ptr %7, align 8, !dbg !1028
  %8 = getelementptr inbounds { i64, i64 }, ptr %e.dbg.spill, i32 0, i32 0, !dbg !1028
  store i64 %e.0, ptr %8, align 8, !dbg !1028
  %9 = getelementptr inbounds { i64, i64 }, ptr %e.dbg.spill, i32 0, i32 1, !dbg !1028
  store i64 %e.1, ptr %9, align 8, !dbg !1028
  call void @llvm.dbg.declare(metadata ptr %e.dbg.spill, metadata !1024, metadata !DIExpression()), !dbg !1029
  store i64 %e.0, ptr %t.dbg.spill.i, align 8
  %10 = getelementptr inbounds { i64, i64 }, ptr %t.dbg.spill.i, i32 0, i32 1
  store i64 %e.1, ptr %10, align 8
  call void @llvm.dbg.declare(metadata ptr %t.dbg.spill.i, metadata !935, metadata !DIExpression()), !dbg !1030
  %11 = insertvalue { i64, i64 } undef, i64 %e.0, 0, !dbg !1032
  %12 = insertvalue { i64, i64 } %11, i64 %e.1, 1, !dbg !1032
  %_3.0 = extractvalue { i64, i64 } %12, 0, !dbg !1033
  %_3.1 = extractvalue { i64, i64 } %12, 1, !dbg !1033
  %13 = getelementptr inbounds %"core::result::Result<(structures::paging::frame::PhysFrame, structures::paging::mapper::MapperFlush<structures::paging::page::Size4KiB>), structures::paging::mapper::UnmapError>::Err", ptr %0, i32 0, i32 1, !dbg !1034
  %14 = getelementptr inbounds { i64, i64 }, ptr %13, i32 0, i32 0, !dbg !1034
  store i64 %_3.0, ptr %14, align 8, !dbg !1034
  %15 = getelementptr inbounds { i64, i64 }, ptr %13, i32 0, i32 1, !dbg !1034
  store i64 %_3.1, ptr %15, align 8, !dbg !1034
  store i64 1, ptr %0, align 8, !dbg !1034
  ret void, !dbg !1035
}

; <bool as core::fmt::Debug>::fmt
; Function Attrs: inlinehint noredzone nounwind
define internal zeroext i1 @"_ZN41_$LT$bool$u20$as$u20$core..fmt..Debug$GT$3fmt17hafaebf6827248d79E"(ptr align 1 %self, ptr align 8 %f) unnamed_addr #0 !dbg !1036 {
start:
  %f.dbg.spill = alloca ptr, align 8
  %self.dbg.spill = alloca ptr, align 8
  store ptr %self, ptr %self.dbg.spill, align 8
  call void @llvm.dbg.declare(metadata ptr %self.dbg.spill, metadata !1043, metadata !DIExpression()), !dbg !1045
  store ptr %f, ptr %f.dbg.spill, align 8
  call void @llvm.dbg.declare(metadata ptr %f.dbg.spill, metadata !1044, metadata !DIExpression()), !dbg !1046
; call <bool as core::fmt::Display>::fmt
  %0 = call zeroext i1 @"_ZN43_$LT$bool$u20$as$u20$core..fmt..Display$GT$3fmt17h230cd5c356861b57E"(ptr align 1 %self, ptr align 8 %f) #8, !dbg !1047
  ret i1 %0, !dbg !1048
}

; <&T as core::fmt::Debug>::fmt
; Function Attrs: noredzone nounwind
define zeroext i1 @"_ZN42_$LT$$RF$T$u20$as$u20$core..fmt..Debug$GT$3fmt17h0531f0628ef54929E"(ptr align 8 %self, ptr align 8 %f) unnamed_addr #1 !dbg !1049 {
start:
  %f.dbg.spill = alloca ptr, align 8
  %self.dbg.spill = alloca ptr, align 8
  store ptr %self, ptr %self.dbg.spill, align 8
  call void @llvm.dbg.declare(metadata ptr %self.dbg.spill, metadata !1055, metadata !DIExpression()), !dbg !1059
  store ptr %f, ptr %f.dbg.spill, align 8
  call void @llvm.dbg.declare(metadata ptr %f.dbg.spill, metadata !1056, metadata !DIExpression()), !dbg !1060
  %_3 = load ptr, ptr %self, align 8, !dbg !1061, !nonnull !25, !align !1062, !noundef !25
; call <x86_64::addr::VirtAddr as core::fmt::Debug>::fmt
  %0 = call zeroext i1 @"_ZN59_$LT$x86_64..addr..VirtAddr$u20$as$u20$core..fmt..Debug$GT$3fmt17hfc8eda48723fa718E"(ptr align 8 %_3, ptr align 8 %f) #8, !dbg !1063
  ret i1 %0, !dbg !1064
}

; <&T as core::fmt::Debug>::fmt
; Function Attrs: noredzone nounwind
define zeroext i1 @"_ZN42_$LT$$RF$T$u20$as$u20$core..fmt..Debug$GT$3fmt17h184c26d00253321fE"(ptr align 8 %self, ptr align 8 %f) unnamed_addr #1 !dbg !1065 {
start:
  %f.dbg.spill = alloca ptr, align 8
  %self.dbg.spill = alloca ptr, align 8
  store ptr %self, ptr %self.dbg.spill, align 8
  call void @llvm.dbg.declare(metadata ptr %self.dbg.spill, metadata !1070, metadata !DIExpression()), !dbg !1074
  store ptr %f, ptr %f.dbg.spill, align 8
  call void @llvm.dbg.declare(metadata ptr %f.dbg.spill, metadata !1071, metadata !DIExpression()), !dbg !1075
  %_3 = load ptr, ptr %self, align 8, !dbg !1076, !nonnull !25, !align !1062, !noundef !25
; call <x86_64::addr::PhysAddr as core::fmt::Debug>::fmt
  %0 = call zeroext i1 @"_ZN59_$LT$x86_64..addr..PhysAddr$u20$as$u20$core..fmt..Debug$GT$3fmt17h0cde9aa635d6053aE"(ptr align 8 %_3, ptr align 8 %f) #8, !dbg !1077
  ret i1 %0, !dbg !1078
}

; <&T as core::fmt::Debug>::fmt
; Function Attrs: noredzone nounwind
define zeroext i1 @"_ZN42_$LT$$RF$T$u20$as$u20$core..fmt..Debug$GT$3fmt17h1c82f6d3aa69f513E"(ptr align 8 %self, ptr align 8 %f) unnamed_addr #1 !dbg !1079 {
start:
  %f.dbg.spill = alloca ptr, align 8
  %self.dbg.spill = alloca ptr, align 8
  store ptr %self, ptr %self.dbg.spill, align 8
  call void @llvm.dbg.declare(metadata ptr %self.dbg.spill, metadata !1084, metadata !DIExpression()), !dbg !1088
  store ptr %f, ptr %f.dbg.spill, align 8
  call void @llvm.dbg.declare(metadata ptr %f.dbg.spill, metadata !1085, metadata !DIExpression()), !dbg !1089
  %_3 = load ptr, ptr %self, align 8, !dbg !1090, !nonnull !25, !align !1062, !noundef !25
; call <x86_64::structures::paging::frame::PhysFrame<S> as core::fmt::Debug>::fmt
  %0 = call zeroext i1 @"_ZN90_$LT$x86_64..structures..paging..frame..PhysFrame$LT$S$GT$$u20$as$u20$core..fmt..Debug$GT$3fmt17h07d0054f3970f988E"(ptr align 8 %_3, ptr align 8 %f) #8, !dbg !1091
  ret i1 %0, !dbg !1092
}

; <&T as core::fmt::Debug>::fmt
; Function Attrs: noredzone nounwind
define zeroext i1 @"_ZN42_$LT$$RF$T$u20$as$u20$core..fmt..Debug$GT$3fmt17h36d166435a3736d8E"(ptr align 8 %self, ptr align 8 %f) unnamed_addr #1 !dbg !1093 {
start:
  %f.dbg.spill = alloca ptr, align 8
  %self.dbg.spill = alloca ptr, align 8
  store ptr %self, ptr %self.dbg.spill, align 8
  call void @llvm.dbg.declare(metadata ptr %self.dbg.spill, metadata !1098, metadata !DIExpression()), !dbg !1102
  store ptr %f, ptr %f.dbg.spill, align 8
  call void @llvm.dbg.declare(metadata ptr %f.dbg.spill, metadata !1099, metadata !DIExpression()), !dbg !1103
  %_3 = load ptr, ptr %self, align 8, !dbg !1104, !nonnull !25, !align !1105, !noundef !25
; call <x86_64::structures::paging::page_table::PageTableIndex as core::fmt::Debug>::fmt
  %0 = call zeroext i1 @"_ZN91_$LT$x86_64..structures..paging..page_table..PageTableIndex$u20$as$u20$core..fmt..Debug$GT$3fmt17h10a08816cc245213E"(ptr align 2 %_3, ptr align 8 %f) #8, !dbg !1106
  ret i1 %0, !dbg !1107
}

; <&T as core::fmt::Debug>::fmt
; Function Attrs: noredzone nounwind
define zeroext i1 @"_ZN42_$LT$$RF$T$u20$as$u20$core..fmt..Debug$GT$3fmt17h5f0c439d31caf614E"(ptr align 8 %self, ptr align 8 %f) unnamed_addr #1 !dbg !1108 {
start:
  %f.dbg.spill = alloca ptr, align 8
  %self.dbg.spill = alloca ptr, align 8
  store ptr %self, ptr %self.dbg.spill, align 8
  call void @llvm.dbg.declare(metadata ptr %self.dbg.spill, metadata !1118, metadata !DIExpression()), !dbg !1122
  store ptr %f, ptr %f.dbg.spill, align 8
  call void @llvm.dbg.declare(metadata ptr %f.dbg.spill, metadata !1119, metadata !DIExpression()), !dbg !1123
  %0 = getelementptr inbounds { ptr, i64 }, ptr %self, i32 0, i32 0, !dbg !1124
  %_3.0 = load ptr, ptr %0, align 8, !dbg !1124, !nonnull !25, !align !1062, !noundef !25
  %1 = getelementptr inbounds { ptr, i64 }, ptr %self, i32 0, i32 1, !dbg !1124
  %_3.1 = load i64, ptr %1, align 8, !dbg !1124, !noundef !25
; call <[T] as core::fmt::Debug>::fmt
  %2 = call zeroext i1 @"_ZN48_$LT$$u5b$T$u5d$$u20$as$u20$core..fmt..Debug$GT$3fmt17h11bc5142001940d3E"(ptr align 8 %_3.0, i64 %_3.1, ptr align 8 %f) #8, !dbg !1125
  ret i1 %2, !dbg !1126
}

; <&T as core::fmt::Debug>::fmt
; Function Attrs: noredzone nounwind
define zeroext i1 @"_ZN42_$LT$$RF$T$u20$as$u20$core..fmt..Debug$GT$3fmt17h6083dbf657f6baaaE"(ptr align 8 %self, ptr align 8 %f) unnamed_addr #1 !dbg !1127 {
start:
  %f.dbg.spill = alloca ptr, align 8
  %self.dbg.spill = alloca ptr, align 8
  store ptr %self, ptr %self.dbg.spill, align 8
  call void @llvm.dbg.declare(metadata ptr %self.dbg.spill, metadata !1132, metadata !DIExpression()), !dbg !1136
  store ptr %f, ptr %f.dbg.spill, align 8
  call void @llvm.dbg.declare(metadata ptr %f.dbg.spill, metadata !1133, metadata !DIExpression()), !dbg !1137
  %_3 = load ptr, ptr %self, align 8, !dbg !1138, !nonnull !25, !align !1062, !noundef !25
; call <x86_64::structures::paging::frame::PhysFrame<S> as core::fmt::Debug>::fmt
  %0 = call zeroext i1 @"_ZN90_$LT$x86_64..structures..paging..frame..PhysFrame$LT$S$GT$$u20$as$u20$core..fmt..Debug$GT$3fmt17h9a0635240818036fE"(ptr align 8 %_3, ptr align 8 %f) #8, !dbg !1139
  ret i1 %0, !dbg !1140
}

; <&T as core::fmt::Debug>::fmt
; Function Attrs: noredzone nounwind
define zeroext i1 @"_ZN42_$LT$$RF$T$u20$as$u20$core..fmt..Debug$GT$3fmt17h6186b3615c00d793E"(ptr align 8 %self, ptr align 8 %f) unnamed_addr #1 !dbg !1141 {
start:
  %f.dbg.spill = alloca ptr, align 8
  %self.dbg.spill = alloca ptr, align 8
  store ptr %self, ptr %self.dbg.spill, align 8
  call void @llvm.dbg.declare(metadata ptr %self.dbg.spill, metadata !1151, metadata !DIExpression()), !dbg !1155
  store ptr %f, ptr %f.dbg.spill, align 8
  call void @llvm.dbg.declare(metadata ptr %f.dbg.spill, metadata !1152, metadata !DIExpression()), !dbg !1156
  %0 = getelementptr inbounds { ptr, i64 }, ptr %self, i32 0, i32 0, !dbg !1157
  %_3.0 = load ptr, ptr %0, align 8, !dbg !1157, !nonnull !25, !align !1158, !noundef !25
  %1 = getelementptr inbounds { ptr, i64 }, ptr %self, i32 0, i32 1, !dbg !1157
  %_3.1 = load i64, ptr %1, align 8, !dbg !1157, !noundef !25
; call <[T] as core::fmt::Debug>::fmt
  %2 = call zeroext i1 @"_ZN48_$LT$$u5b$T$u5d$$u20$as$u20$core..fmt..Debug$GT$3fmt17hfd7a51871a8dc1c4E"(ptr align 4 %_3.0, i64 %_3.1, ptr align 8 %f) #8, !dbg !1159
  ret i1 %2, !dbg !1160
}

; <&T as core::fmt::Debug>::fmt
; Function Attrs: noredzone nounwind
define zeroext i1 @"_ZN42_$LT$$RF$T$u20$as$u20$core..fmt..Debug$GT$3fmt17h61d46151712161acE"(ptr align 8 %self, ptr align 8 %f) unnamed_addr #1 !dbg !1161 {
start:
  %f.dbg.spill = alloca ptr, align 8
  %self.dbg.spill = alloca ptr, align 8
  store ptr %self, ptr %self.dbg.spill, align 8
  call void @llvm.dbg.declare(metadata ptr %self.dbg.spill, metadata !1166, metadata !DIExpression()), !dbg !1170
  store ptr %f, ptr %f.dbg.spill, align 8
  call void @llvm.dbg.declare(metadata ptr %f.dbg.spill, metadata !1167, metadata !DIExpression()), !dbg !1171
  %_3 = load ptr, ptr %self, align 8, !dbg !1172, !nonnull !25, !align !1062, !noundef !25
; call <x86_64::structures::paging::mapper::mapped_page_table::MappedPageTable<P> as core::fmt::Debug>::fmt
  %0 = call zeroext i1 @"_ZN116_$LT$x86_64..structures..paging..mapper..mapped_page_table..MappedPageTable$LT$P$GT$$u20$as$u20$core..fmt..Debug$GT$3fmt17hf95cf0f32c2fdc7cE"(ptr align 8 %_3, ptr align 8 %f) #8, !dbg !1173
  ret i1 %0, !dbg !1174
}

; <&T as core::fmt::Debug>::fmt
; Function Attrs: noredzone nounwind
define zeroext i1 @"_ZN42_$LT$$RF$T$u20$as$u20$core..fmt..Debug$GT$3fmt17h7147348da063dcdcE"(ptr align 8 %self, ptr align 8 %f) unnamed_addr #1 !dbg !1175 {
start:
  %f.dbg.spill = alloca ptr, align 8
  %self.dbg.spill = alloca ptr, align 8
  store ptr %self, ptr %self.dbg.spill, align 8
  call void @llvm.dbg.declare(metadata ptr %self.dbg.spill, metadata !1185, metadata !DIExpression()), !dbg !1187
  store ptr %f, ptr %f.dbg.spill, align 8
  call void @llvm.dbg.declare(metadata ptr %f.dbg.spill, metadata !1186, metadata !DIExpression()), !dbg !1188
  %0 = getelementptr inbounds { ptr, i64 }, ptr %self, i32 0, i32 0, !dbg !1189
  %_3.0 = load ptr, ptr %0, align 8, !dbg !1189, !nonnull !25, !align !1062, !noundef !25
  %1 = getelementptr inbounds { ptr, i64 }, ptr %self, i32 0, i32 1, !dbg !1189
  %_3.1 = load i64, ptr %1, align 8, !dbg !1189, !noundef !25
; call <[T] as core::fmt::Debug>::fmt
  %2 = call zeroext i1 @"_ZN48_$LT$$u5b$T$u5d$$u20$as$u20$core..fmt..Debug$GT$3fmt17h2c6725b96bb94130E"(ptr align 8 %_3.0, i64 %_3.1, ptr align 8 %f) #8, !dbg !1190
  ret i1 %2, !dbg !1191
}

; <&T as core::fmt::Debug>::fmt
; Function Attrs: noredzone nounwind
define zeroext i1 @"_ZN42_$LT$$RF$T$u20$as$u20$core..fmt..Debug$GT$3fmt17h91ad676cbe9e83faE"(ptr align 8 %self, ptr align 8 %f) unnamed_addr #1 !dbg !1192 {
start:
  %f.dbg.spill = alloca ptr, align 8
  %self.dbg.spill = alloca ptr, align 8
  store ptr %self, ptr %self.dbg.spill, align 8
  call void @llvm.dbg.declare(metadata ptr %self.dbg.spill, metadata !1197, metadata !DIExpression()), !dbg !1201
  store ptr %f, ptr %f.dbg.spill, align 8
  call void @llvm.dbg.declare(metadata ptr %f.dbg.spill, metadata !1198, metadata !DIExpression()), !dbg !1202
  %_3 = load ptr, ptr %self, align 8, !dbg !1203, !nonnull !25, !align !1158, !noundef !25
; call core::array::<impl core::fmt::Debug for [T; N]>::fmt
  %0 = call zeroext i1 @"_ZN4core5array69_$LT$impl$u20$core..fmt..Debug$u20$for$u20$$u5b$T$u3b$$u20$N$u5d$$GT$3fmt17h269de95a88032c3bE"(ptr align 4 %_3, ptr align 8 %f) #8, !dbg !1204
  ret i1 %0, !dbg !1205
}

; <&T as core::fmt::Debug>::fmt
; Function Attrs: noredzone nounwind
define zeroext i1 @"_ZN42_$LT$$RF$T$u20$as$u20$core..fmt..Debug$GT$3fmt17h9bd90ee20ccbe8d9E"(ptr align 8 %self, ptr align 8 %f) unnamed_addr #1 !dbg !1206 {
start:
  %f.dbg.spill = alloca ptr, align 8
  %self.dbg.spill = alloca ptr, align 8
  store ptr %self, ptr %self.dbg.spill, align 8
  call void @llvm.dbg.declare(metadata ptr %self.dbg.spill, metadata !1211, metadata !DIExpression()), !dbg !1213
  store ptr %f, ptr %f.dbg.spill, align 8
  call void @llvm.dbg.declare(metadata ptr %f.dbg.spill, metadata !1212, metadata !DIExpression()), !dbg !1214
  %_3 = load ptr, ptr %self, align 8, !dbg !1215, !nonnull !25, !align !1158, !noundef !25
; call <x86_64::structures::idt::Entry<T> as core::fmt::Debug>::fmt
  %0 = call zeroext i1 @"_ZN76_$LT$x86_64..structures..idt..Entry$LT$T$GT$$u20$as$u20$core..fmt..Debug$GT$3fmt17h512191041b9694aeE"(ptr align 4 %_3, ptr align 8 %f) #8, !dbg !1216
  ret i1 %0, !dbg !1217
}

; <&T as core::fmt::Debug>::fmt
; Function Attrs: noredzone nounwind
define zeroext i1 @"_ZN42_$LT$$RF$T$u20$as$u20$core..fmt..Debug$GT$3fmt17hc11ebfb7da89c733E"(ptr align 8 %self, ptr align 8 %f) unnamed_addr #1 !dbg !1218 {
start:
  %f.dbg.spill = alloca ptr, align 8
  %self.dbg.spill = alloca ptr, align 8
  store ptr %self, ptr %self.dbg.spill, align 8
  call void @llvm.dbg.declare(metadata ptr %self.dbg.spill, metadata !1223, metadata !DIExpression()), !dbg !1227
  store ptr %f, ptr %f.dbg.spill, align 8
  call void @llvm.dbg.declare(metadata ptr %f.dbg.spill, metadata !1224, metadata !DIExpression()), !dbg !1228
  %_3 = load ptr, ptr %self, align 8, !dbg !1229, !nonnull !25, !align !1105, !noundef !25
; call <x86_64::instructions::tlb::Pcid as core::fmt::Debug>::fmt
  %0 = call zeroext i1 @"_ZN68_$LT$x86_64..instructions..tlb..Pcid$u20$as$u20$core..fmt..Debug$GT$3fmt17h5250b7e5e0d97a61E"(ptr align 2 %_3, ptr align 8 %f) #8, !dbg !1230
  ret i1 %0, !dbg !1231
}

; <&T as core::fmt::Debug>::fmt
; Function Attrs: noredzone nounwind
define zeroext i1 @"_ZN42_$LT$$RF$T$u20$as$u20$core..fmt..Debug$GT$3fmt17hd720518f0cd8d1f8E"(ptr align 8 %self, ptr align 8 %f) unnamed_addr #1 !dbg !1232 {
start:
  %f.dbg.spill = alloca ptr, align 8
  %self.dbg.spill = alloca ptr, align 8
  store ptr %self, ptr %self.dbg.spill, align 8
  call void @llvm.dbg.declare(metadata ptr %self.dbg.spill, metadata !1237, metadata !DIExpression()), !dbg !1241
  store ptr %f, ptr %f.dbg.spill, align 8
  call void @llvm.dbg.declare(metadata ptr %f.dbg.spill, metadata !1238, metadata !DIExpression()), !dbg !1242
  %_3 = load ptr, ptr %self, align 8, !dbg !1243, !nonnull !25, !align !1062, !noundef !25
; call <x86_64::structures::paging::mapper::offset_page_table::PhysOffset as core::fmt::Debug>::fmt
  %0 = call zeroext i1 @"_ZN102_$LT$x86_64..structures..paging..mapper..offset_page_table..PhysOffset$u20$as$u20$core..fmt..Debug$GT$3fmt17h6a703eee7658207bE"(ptr align 8 %_3, ptr align 8 %f) #8, !dbg !1244
  ret i1 %0, !dbg !1245
}

; <&T as core::fmt::Debug>::fmt
; Function Attrs: noredzone nounwind
define zeroext i1 @"_ZN42_$LT$$RF$T$u20$as$u20$core..fmt..Debug$GT$3fmt17hdd671ae5865fe524E"(ptr align 8 %self, ptr align 8 %f) unnamed_addr #1 !dbg !1246 {
start:
  %f.dbg.spill = alloca ptr, align 8
  %self.dbg.spill = alloca ptr, align 8
  store ptr %self, ptr %self.dbg.spill, align 8
  call void @llvm.dbg.declare(metadata ptr %self.dbg.spill, metadata !1251, metadata !DIExpression()), !dbg !1255
  store ptr %f, ptr %f.dbg.spill, align 8
  call void @llvm.dbg.declare(metadata ptr %f.dbg.spill, metadata !1252, metadata !DIExpression()), !dbg !1256
  %_3 = load ptr, ptr %self, align 8, !dbg !1257, !nonnull !25, !align !1062, !noundef !25
; call <x86_64::structures::paging::frame::PhysFrame<S> as core::fmt::Debug>::fmt
  %0 = call zeroext i1 @"_ZN90_$LT$x86_64..structures..paging..frame..PhysFrame$LT$S$GT$$u20$as$u20$core..fmt..Debug$GT$3fmt17hef799b25e39b61a6E"(ptr align 8 %_3, ptr align 8 %f) #8, !dbg !1258
  ret i1 %0, !dbg !1259
}

; <&T as core::fmt::Debug>::fmt
; Function Attrs: noredzone nounwind
define zeroext i1 @"_ZN42_$LT$$RF$T$u20$as$u20$core..fmt..Debug$GT$3fmt17hef94500d7a78363cE"(ptr align 8 %self, ptr align 8 %f) unnamed_addr #1 !dbg !1260 {
start:
  %f.dbg.spill = alloca ptr, align 8
  %self.dbg.spill = alloca ptr, align 8
  store ptr %self, ptr %self.dbg.spill, align 8
  call void @llvm.dbg.declare(metadata ptr %self.dbg.spill, metadata !1265, metadata !DIExpression()), !dbg !1269
  store ptr %f, ptr %f.dbg.spill, align 8
  call void @llvm.dbg.declare(metadata ptr %f.dbg.spill, metadata !1266, metadata !DIExpression()), !dbg !1270
  %_3 = load ptr, ptr %self, align 8, !dbg !1271, !nonnull !25, !align !1062, !noundef !25
; call <x86_64::structures::paging::page_table::PageTableFlags as core::fmt::Debug>::fmt
  %0 = call zeroext i1 @"_ZN91_$LT$x86_64..structures..paging..page_table..PageTableFlags$u20$as$u20$core..fmt..Debug$GT$3fmt17h133ff323b3540c0aE"(ptr align 8 %_3, ptr align 8 %f) #8, !dbg !1272
  ret i1 %0, !dbg !1273
}

; <&T as core::fmt::Debug>::fmt
; Function Attrs: noredzone nounwind
define zeroext i1 @"_ZN42_$LT$$RF$T$u20$as$u20$core..fmt..Debug$GT$3fmt17hf085d807711d5771E"(ptr align 8 %self, ptr align 8 %f) unnamed_addr #1 !dbg !1274 {
start:
  %f.dbg.spill = alloca ptr, align 8
  %self.dbg.spill = alloca ptr, align 8
  store ptr %self, ptr %self.dbg.spill, align 8
  call void @llvm.dbg.declare(metadata ptr %self.dbg.spill, metadata !1279, metadata !DIExpression()), !dbg !1283
  store ptr %f, ptr %f.dbg.spill, align 8
  call void @llvm.dbg.declare(metadata ptr %f.dbg.spill, metadata !1280, metadata !DIExpression()), !dbg !1284
  %_3 = load ptr, ptr %self, align 8, !dbg !1285, !nonnull !25, !align !1062, !noundef !25
; call <x86_64::structures::paging::page_table::PageTableEntry as core::fmt::Debug>::fmt
  %0 = call zeroext i1 @"_ZN91_$LT$x86_64..structures..paging..page_table..PageTableEntry$u20$as$u20$core..fmt..Debug$GT$3fmt17h210e0549492f880bE"(ptr align 8 %_3, ptr align 8 %f) #8, !dbg !1286
  ret i1 %0, !dbg !1287
}

; <&T as core::fmt::Debug>::fmt
; Function Attrs: noredzone nounwind
define zeroext i1 @"_ZN42_$LT$$RF$T$u20$as$u20$core..fmt..Debug$GT$3fmt17hf7580ebc5ed33674E"(ptr align 8 %self, ptr align 8 %f) unnamed_addr #1 !dbg !1288 {
start:
  %f.dbg.spill = alloca ptr, align 8
  %self.dbg.spill = alloca ptr, align 8
  store ptr %self, ptr %self.dbg.spill, align 8
  call void @llvm.dbg.declare(metadata ptr %self.dbg.spill, metadata !1293, metadata !DIExpression()), !dbg !1297
  store ptr %f, ptr %f.dbg.spill, align 8
  call void @llvm.dbg.declare(metadata ptr %f.dbg.spill, metadata !1294, metadata !DIExpression()), !dbg !1298
  %_3 = load ptr, ptr %self, align 8, !dbg !1299, !nonnull !25, !align !1062, !noundef !25
; call <&mut T as core::fmt::Debug>::fmt
  %0 = call zeroext i1 @"_ZN50_$LT$$RF$mut$u20$T$u20$as$u20$core..fmt..Debug$GT$3fmt17h5f9b0b67648b0c8aE"(ptr align 8 %_3, ptr align 8 %f) #8, !dbg !1300
  ret i1 %0, !dbg !1301
}

; <u16 as bit_field::BitField>::get_bits
; Function Attrs: inlinehint noredzone nounwind
define i16 @"_ZN43_$LT$u16$u20$as$u20$bit_field..BitField$GT$8get_bits17h989c400b59aedc36E"(ptr align 2 %self, i64 %0, i64 %1) unnamed_addr #0 !dbg !1302 {
start:
  %bits.dbg.spill = alloca i16, align 2
  %range.dbg.spill = alloca { i64, i64 }, align 8
  %self.dbg.spill = alloca ptr, align 8
  %range = alloca { i64, i64 }, align 8
  %2 = getelementptr inbounds { i64, i64 }, ptr %range, i32 0, i32 0
  store i64 %0, ptr %2, align 8
  %3 = getelementptr inbounds { i64, i64 }, ptr %range, i32 0, i32 1
  store i64 %1, ptr %3, align 8
  store ptr %self, ptr %self.dbg.spill, align 8
  call void @llvm.dbg.declare(metadata ptr %self.dbg.spill, metadata !1317, metadata !DIExpression()), !dbg !1325
  call void @llvm.dbg.declare(metadata ptr %range, metadata !1318, metadata !DIExpression()), !dbg !1326
; call bit_field::to_regular_range
  %4 = call { i64, i64 } @_ZN9bit_field16to_regular_range17hc0f449c7551f57deE(ptr align 8 %range, i64 16) #8, !dbg !1327
  %range.0 = extractvalue { i64, i64 } %4, 0, !dbg !1327
  %range.1 = extractvalue { i64, i64 } %4, 1, !dbg !1327
  %5 = getelementptr inbounds { i64, i64 }, ptr %range.dbg.spill, i32 0, i32 0, !dbg !1327
  store i64 %range.0, ptr %5, align 8, !dbg !1327
  %6 = getelementptr inbounds { i64, i64 }, ptr %range.dbg.spill, i32 0, i32 1, !dbg !1327
  store i64 %range.1, ptr %6, align 8, !dbg !1327
  call void @llvm.dbg.declare(metadata ptr %range.dbg.spill, metadata !1319, metadata !DIExpression()), !dbg !1328
  %_6 = icmp ult i64 %range.0, 16, !dbg !1329
  %_5 = xor i1 %_6, true, !dbg !1330
  br i1 %_5, label %bb2, label %bb3, !dbg !1330

bb3:                                              ; preds = %start
  %_10 = icmp ule i64 %range.1, 16, !dbg !1331
  %_9 = xor i1 %_10, true, !dbg !1332
  br i1 %_9, label %bb4, label %bb5, !dbg !1332

bb2:                                              ; preds = %start
; call core::panicking::panic
  call void @_ZN4core9panicking5panic17h758e89f926a8adfcE(ptr align 1 @alloc9581, i64 48, ptr align 8 @alloc9567) #9, !dbg !1330
  unreachable, !dbg !1330

bb5:                                              ; preds = %bb3
  %_14 = icmp ult i64 %range.0, %range.1, !dbg !1333
  %_13 = xor i1 %_14, true, !dbg !1334
  br i1 %_13, label %bb6, label %bb7, !dbg !1334

bb4:                                              ; preds = %bb3
; call core::panicking::panic
  call void @_ZN4core9panicking5panic17h758e89f926a8adfcE(ptr align 1 @alloc9582, i64 47, ptr align 8 @alloc9567) #9, !dbg !1332
  unreachable, !dbg !1332

bb7:                                              ; preds = %bb5
  %_20 = load i16, ptr %self, align 2, !dbg !1335, !noundef !25
  %_23.0 = sub i64 16, %range.1, !dbg !1336
  %_23.1 = icmp ult i64 16, %range.1, !dbg !1336
  %7 = call i1 @llvm.expect.i1(i1 %_23.1, i1 false), !dbg !1336
  br i1 %7, label %panic, label %bb8, !dbg !1336

bb6:                                              ; preds = %bb5
; call core::panicking::panic
  call void @_ZN4core9panicking5panic17h758e89f926a8adfcE(ptr align 1 @alloc9583, i64 41, ptr align 8 @alloc9567) #9, !dbg !1334
  unreachable, !dbg !1334

bb8:                                              ; preds = %bb7
  %8 = and i64 %_23.0, -16, !dbg !1335
  %_24.1 = icmp ne i64 %8, 0, !dbg !1335
  %9 = trunc i64 %_23.0 to i16, !dbg !1335
  %10 = and i16 %9, 15, !dbg !1335
  %_24.0 = shl i16 %_20, %10, !dbg !1335
  %11 = call i1 @llvm.expect.i1(i1 %_24.1, i1 false), !dbg !1335
  br i1 %11, label %panic1, label %bb9, !dbg !1335

panic:                                            ; preds = %bb7
; call core::panicking::panic
  call void @_ZN4core9panicking5panic17h758e89f926a8adfcE(ptr align 1 @str.0, i64 33, ptr align 8 @alloc9567) #9, !dbg !1336
  unreachable, !dbg !1336

bb9:                                              ; preds = %bb8
  %_27.0 = sub i64 16, %range.1, !dbg !1337
  %_27.1 = icmp ult i64 16, %range.1, !dbg !1337
  %12 = call i1 @llvm.expect.i1(i1 %_27.1, i1 false), !dbg !1337
  br i1 %12, label %panic2, label %bb10, !dbg !1337

panic1:                                           ; preds = %bb8
; call core::panicking::panic
  call void @_ZN4core9panicking5panic17h758e89f926a8adfcE(ptr align 1 @str.1, i64 35, ptr align 8 @alloc9567) #9, !dbg !1335
  unreachable, !dbg !1335

bb10:                                             ; preds = %bb9
  %13 = and i64 %_27.0, -16, !dbg !1335
  %_28.1 = icmp ne i64 %13, 0, !dbg !1335
  %14 = trunc i64 %_27.0 to i16, !dbg !1335
  %15 = and i16 %14, 15, !dbg !1335
  %_28.0 = lshr i16 %_24.0, %15, !dbg !1335
  %16 = call i1 @llvm.expect.i1(i1 %_28.1, i1 false), !dbg !1335
  br i1 %16, label %panic3, label %bb11, !dbg !1335

panic2:                                           ; preds = %bb9
; call core::panicking::panic
  call void @_ZN4core9panicking5panic17h758e89f926a8adfcE(ptr align 1 @str.0, i64 33, ptr align 8 @alloc9567) #9, !dbg !1337
  unreachable, !dbg !1337

bb11:                                             ; preds = %bb10
  store i16 %_28.0, ptr %bits.dbg.spill, align 2, !dbg !1335
  call void @llvm.dbg.declare(metadata ptr %bits.dbg.spill, metadata !1321, metadata !DIExpression()), !dbg !1338
  %17 = and i64 %range.0, -16, !dbg !1339
  %_30.1 = icmp ne i64 %17, 0, !dbg !1339
  %18 = trunc i64 %range.0 to i16, !dbg !1339
  %19 = and i16 %18, 15, !dbg !1339
  %_30.0 = lshr i16 %_28.0, %19, !dbg !1339
  %20 = call i1 @llvm.expect.i1(i1 %_30.1, i1 false), !dbg !1339
  br i1 %20, label %panic4, label %bb12, !dbg !1339

panic3:                                           ; preds = %bb10
; call core::panicking::panic
  call void @_ZN4core9panicking5panic17h758e89f926a8adfcE(ptr align 1 @str.2, i64 36, ptr align 8 @alloc9567) #9, !dbg !1335
  unreachable, !dbg !1335

bb12:                                             ; preds = %bb11
  ret i16 %_30.0, !dbg !1340

panic4:                                           ; preds = %bb11
; call core::panicking::panic
  call void @_ZN4core9panicking5panic17h758e89f926a8adfcE(ptr align 1 @str.2, i64 36, ptr align 8 @alloc9567) #9, !dbg !1339
  unreachable, !dbg !1339
}

; <u64 as bit_field::BitField>::get_bit
; Function Attrs: inlinehint noredzone nounwind
define internal zeroext i1 @"_ZN43_$LT$u64$u20$as$u20$bit_field..BitField$GT$7get_bit17hf8ec31565a1377f0E"(ptr align 8 %self, i64 %bit) unnamed_addr #0 !dbg !1341 {
start:
  %bit.dbg.spill = alloca i64, align 8
  %self.dbg.spill = alloca ptr, align 8
  store ptr %self, ptr %self.dbg.spill, align 8
  call void @llvm.dbg.declare(metadata ptr %self.dbg.spill, metadata !1346, metadata !DIExpression()), !dbg !1348
  store i64 %bit, ptr %bit.dbg.spill, align 8
  call void @llvm.dbg.declare(metadata ptr %bit.dbg.spill, metadata !1347, metadata !DIExpression()), !dbg !1349
  %_4 = icmp ult i64 %bit, 64, !dbg !1350
  %_3 = xor i1 %_4, true, !dbg !1351
  br i1 %_3, label %bb1, label %bb2, !dbg !1351

bb2:                                              ; preds = %start
  %_7 = load i64, ptr %self, align 8, !dbg !1352, !noundef !25
  %0 = and i64 %bit, -64, !dbg !1353
  %_9.1 = icmp ne i64 %0, 0, !dbg !1353
  %1 = and i64 %bit, 63, !dbg !1353
  %_9.0 = shl i64 1, %1, !dbg !1353
  %2 = call i1 @llvm.expect.i1(i1 %_9.1, i1 false), !dbg !1353
  br i1 %2, label %panic, label %bb3, !dbg !1353

bb1:                                              ; preds = %start
; call core::panicking::panic
  call void @_ZN4core9panicking5panic17h758e89f926a8adfcE(ptr align 1 @alloc9570, i64 40, ptr align 8 @alloc9567) #9, !dbg !1351
  unreachable, !dbg !1351

bb3:                                              ; preds = %bb2
  %_6 = and i64 %_7, %_9.0, !dbg !1354
  %3 = icmp ne i64 %_6, 0, !dbg !1354
  ret i1 %3, !dbg !1355

panic:                                            ; preds = %bb2
; call core::panicking::panic
  call void @_ZN4core9panicking5panic17h758e89f926a8adfcE(ptr align 1 @str.1, i64 35, ptr align 8 @alloc9567) #9, !dbg !1353
  unreachable, !dbg !1353
}

; <u64 as bit_field::BitField>::get_bits
; Function Attrs: inlinehint noredzone nounwind
define i64 @"_ZN43_$LT$u64$u20$as$u20$bit_field..BitField$GT$8get_bits17h38ff3de8c5b85f4dE"(ptr align 8 %self, i64 %0) unnamed_addr #0 !dbg !1356 {
start:
  %bits.dbg.spill = alloca i64, align 8
  %range.dbg.spill = alloca { i64, i64 }, align 8
  %self.dbg.spill = alloca ptr, align 8
  %range = alloca i64, align 8
  store i64 %0, ptr %range, align 8
  store ptr %self, ptr %self.dbg.spill, align 8
  call void @llvm.dbg.declare(metadata ptr %self.dbg.spill, metadata !1363, metadata !DIExpression()), !dbg !1371
  call void @llvm.dbg.declare(metadata ptr %range, metadata !1364, metadata !DIExpression()), !dbg !1372
; call bit_field::to_regular_range
  %1 = call { i64, i64 } @_ZN9bit_field16to_regular_range17haaaa7fc17545a97dE(ptr align 8 %range, i64 64) #8, !dbg !1373
  %range.0 = extractvalue { i64, i64 } %1, 0, !dbg !1373
  %range.1 = extractvalue { i64, i64 } %1, 1, !dbg !1373
  %2 = getelementptr inbounds { i64, i64 }, ptr %range.dbg.spill, i32 0, i32 0, !dbg !1373
  store i64 %range.0, ptr %2, align 8, !dbg !1373
  %3 = getelementptr inbounds { i64, i64 }, ptr %range.dbg.spill, i32 0, i32 1, !dbg !1373
  store i64 %range.1, ptr %3, align 8, !dbg !1373
  call void @llvm.dbg.declare(metadata ptr %range.dbg.spill, metadata !1365, metadata !DIExpression()), !dbg !1374
  %_6 = icmp ult i64 %range.0, 64, !dbg !1375
  %_5 = xor i1 %_6, true, !dbg !1376
  br i1 %_5, label %bb2, label %bb3, !dbg !1376

bb3:                                              ; preds = %start
  %_10 = icmp ule i64 %range.1, 64, !dbg !1377
  %_9 = xor i1 %_10, true, !dbg !1378
  br i1 %_9, label %bb4, label %bb5, !dbg !1378

bb2:                                              ; preds = %start
; call core::panicking::panic
  call void @_ZN4core9panicking5panic17h758e89f926a8adfcE(ptr align 1 @alloc9581, i64 48, ptr align 8 @alloc9567) #9, !dbg !1376
  unreachable, !dbg !1376

bb5:                                              ; preds = %bb3
  %_14 = icmp ult i64 %range.0, %range.1, !dbg !1379
  %_13 = xor i1 %_14, true, !dbg !1380
  br i1 %_13, label %bb6, label %bb7, !dbg !1380

bb4:                                              ; preds = %bb3
; call core::panicking::panic
  call void @_ZN4core9panicking5panic17h758e89f926a8adfcE(ptr align 1 @alloc9582, i64 47, ptr align 8 @alloc9567) #9, !dbg !1378
  unreachable, !dbg !1378

bb7:                                              ; preds = %bb5
  %_20 = load i64, ptr %self, align 8, !dbg !1381, !noundef !25
  %_23.0 = sub i64 64, %range.1, !dbg !1382
  %_23.1 = icmp ult i64 64, %range.1, !dbg !1382
  %4 = call i1 @llvm.expect.i1(i1 %_23.1, i1 false), !dbg !1382
  br i1 %4, label %panic, label %bb8, !dbg !1382

bb6:                                              ; preds = %bb5
; call core::panicking::panic
  call void @_ZN4core9panicking5panic17h758e89f926a8adfcE(ptr align 1 @alloc9583, i64 41, ptr align 8 @alloc9567) #9, !dbg !1380
  unreachable, !dbg !1380

bb8:                                              ; preds = %bb7
  %5 = and i64 %_23.0, -64, !dbg !1381
  %_24.1 = icmp ne i64 %5, 0, !dbg !1381
  %6 = and i64 %_23.0, 63, !dbg !1381
  %_24.0 = shl i64 %_20, %6, !dbg !1381
  %7 = call i1 @llvm.expect.i1(i1 %_24.1, i1 false), !dbg !1381
  br i1 %7, label %panic1, label %bb9, !dbg !1381

panic:                                            ; preds = %bb7
; call core::panicking::panic
  call void @_ZN4core9panicking5panic17h758e89f926a8adfcE(ptr align 1 @str.0, i64 33, ptr align 8 @alloc9567) #9, !dbg !1382
  unreachable, !dbg !1382

bb9:                                              ; preds = %bb8
  %_27.0 = sub i64 64, %range.1, !dbg !1383
  %_27.1 = icmp ult i64 64, %range.1, !dbg !1383
  %8 = call i1 @llvm.expect.i1(i1 %_27.1, i1 false), !dbg !1383
  br i1 %8, label %panic2, label %bb10, !dbg !1383

panic1:                                           ; preds = %bb8
; call core::panicking::panic
  call void @_ZN4core9panicking5panic17h758e89f926a8adfcE(ptr align 1 @str.1, i64 35, ptr align 8 @alloc9567) #9, !dbg !1381
  unreachable, !dbg !1381

bb10:                                             ; preds = %bb9
  %9 = and i64 %_27.0, -64, !dbg !1381
  %_28.1 = icmp ne i64 %9, 0, !dbg !1381
  %10 = and i64 %_27.0, 63, !dbg !1381
  %_28.0 = lshr i64 %_24.0, %10, !dbg !1381
  %11 = call i1 @llvm.expect.i1(i1 %_28.1, i1 false), !dbg !1381
  br i1 %11, label %panic3, label %bb11, !dbg !1381

panic2:                                           ; preds = %bb9
; call core::panicking::panic
  call void @_ZN4core9panicking5panic17h758e89f926a8adfcE(ptr align 1 @str.0, i64 33, ptr align 8 @alloc9567) #9, !dbg !1383
  unreachable, !dbg !1383

bb11:                                             ; preds = %bb10
  store i64 %_28.0, ptr %bits.dbg.spill, align 8, !dbg !1381
  call void @llvm.dbg.declare(metadata ptr %bits.dbg.spill, metadata !1367, metadata !DIExpression()), !dbg !1384
  %12 = and i64 %range.0, -64, !dbg !1385
  %_30.1 = icmp ne i64 %12, 0, !dbg !1385
  %13 = and i64 %range.0, 63, !dbg !1385
  %_30.0 = lshr i64 %_28.0, %13, !dbg !1385
  %14 = call i1 @llvm.expect.i1(i1 %_30.1, i1 false), !dbg !1385
  br i1 %14, label %panic4, label %bb12, !dbg !1385

panic3:                                           ; preds = %bb10
; call core::panicking::panic
  call void @_ZN4core9panicking5panic17h758e89f926a8adfcE(ptr align 1 @str.2, i64 36, ptr align 8 @alloc9567) #9, !dbg !1381
  unreachable, !dbg !1381

bb12:                                             ; preds = %bb11
  ret i64 %_30.0, !dbg !1386

panic4:                                           ; preds = %bb11
; call core::panicking::panic
  call void @_ZN4core9panicking5panic17h758e89f926a8adfcE(ptr align 1 @str.2, i64 36, ptr align 8 @alloc9567) #9, !dbg !1385
  unreachable, !dbg !1385
}

; <u64 as bit_field::BitField>::get_bits
; Function Attrs: inlinehint noredzone nounwind
define i64 @"_ZN43_$LT$u64$u20$as$u20$bit_field..BitField$GT$8get_bits17h42b9763573d7c860E"(ptr align 8 %self, i64 %0, i64 %1) unnamed_addr #0 !dbg !1387 {
start:
  %bits.dbg.spill = alloca i64, align 8
  %range.dbg.spill = alloca { i64, i64 }, align 8
  %self.dbg.spill = alloca ptr, align 8
  %range = alloca { i64, i64 }, align 8
  %2 = getelementptr inbounds { i64, i64 }, ptr %range, i32 0, i32 0
  store i64 %0, ptr %2, align 8
  %3 = getelementptr inbounds { i64, i64 }, ptr %range, i32 0, i32 1
  store i64 %1, ptr %3, align 8
  store ptr %self, ptr %self.dbg.spill, align 8
  call void @llvm.dbg.declare(metadata ptr %self.dbg.spill, metadata !1391, metadata !DIExpression()), !dbg !1397
  call void @llvm.dbg.declare(metadata ptr %range, metadata !1392, metadata !DIExpression()), !dbg !1398
; call bit_field::to_regular_range
  %4 = call { i64, i64 } @_ZN9bit_field16to_regular_range17hc0f449c7551f57deE(ptr align 8 %range, i64 64) #8, !dbg !1399
  %range.0 = extractvalue { i64, i64 } %4, 0, !dbg !1399
  %range.1 = extractvalue { i64, i64 } %4, 1, !dbg !1399
  %5 = getelementptr inbounds { i64, i64 }, ptr %range.dbg.spill, i32 0, i32 0, !dbg !1399
  store i64 %range.0, ptr %5, align 8, !dbg !1399
  %6 = getelementptr inbounds { i64, i64 }, ptr %range.dbg.spill, i32 0, i32 1, !dbg !1399
  store i64 %range.1, ptr %6, align 8, !dbg !1399
  call void @llvm.dbg.declare(metadata ptr %range.dbg.spill, metadata !1393, metadata !DIExpression()), !dbg !1400
  %_6 = icmp ult i64 %range.0, 64, !dbg !1401
  %_5 = xor i1 %_6, true, !dbg !1402
  br i1 %_5, label %bb2, label %bb3, !dbg !1402

bb3:                                              ; preds = %start
  %_10 = icmp ule i64 %range.1, 64, !dbg !1403
  %_9 = xor i1 %_10, true, !dbg !1404
  br i1 %_9, label %bb4, label %bb5, !dbg !1404

bb2:                                              ; preds = %start
; call core::panicking::panic
  call void @_ZN4core9panicking5panic17h758e89f926a8adfcE(ptr align 1 @alloc9581, i64 48, ptr align 8 @alloc9567) #9, !dbg !1402
  unreachable, !dbg !1402

bb5:                                              ; preds = %bb3
  %_14 = icmp ult i64 %range.0, %range.1, !dbg !1405
  %_13 = xor i1 %_14, true, !dbg !1406
  br i1 %_13, label %bb6, label %bb7, !dbg !1406

bb4:                                              ; preds = %bb3
; call core::panicking::panic
  call void @_ZN4core9panicking5panic17h758e89f926a8adfcE(ptr align 1 @alloc9582, i64 47, ptr align 8 @alloc9567) #9, !dbg !1404
  unreachable, !dbg !1404

bb7:                                              ; preds = %bb5
  %_20 = load i64, ptr %self, align 8, !dbg !1407, !noundef !25
  %_23.0 = sub i64 64, %range.1, !dbg !1408
  %_23.1 = icmp ult i64 64, %range.1, !dbg !1408
  %7 = call i1 @llvm.expect.i1(i1 %_23.1, i1 false), !dbg !1408
  br i1 %7, label %panic, label %bb8, !dbg !1408

bb6:                                              ; preds = %bb5
; call core::panicking::panic
  call void @_ZN4core9panicking5panic17h758e89f926a8adfcE(ptr align 1 @alloc9583, i64 41, ptr align 8 @alloc9567) #9, !dbg !1406
  unreachable, !dbg !1406

bb8:                                              ; preds = %bb7
  %8 = and i64 %_23.0, -64, !dbg !1407
  %_24.1 = icmp ne i64 %8, 0, !dbg !1407
  %9 = and i64 %_23.0, 63, !dbg !1407
  %_24.0 = shl i64 %_20, %9, !dbg !1407
  %10 = call i1 @llvm.expect.i1(i1 %_24.1, i1 false), !dbg !1407
  br i1 %10, label %panic1, label %bb9, !dbg !1407

panic:                                            ; preds = %bb7
; call core::panicking::panic
  call void @_ZN4core9panicking5panic17h758e89f926a8adfcE(ptr align 1 @str.0, i64 33, ptr align 8 @alloc9567) #9, !dbg !1408
  unreachable, !dbg !1408

bb9:                                              ; preds = %bb8
  %_27.0 = sub i64 64, %range.1, !dbg !1409
  %_27.1 = icmp ult i64 64, %range.1, !dbg !1409
  %11 = call i1 @llvm.expect.i1(i1 %_27.1, i1 false), !dbg !1409
  br i1 %11, label %panic2, label %bb10, !dbg !1409

panic1:                                           ; preds = %bb8
; call core::panicking::panic
  call void @_ZN4core9panicking5panic17h758e89f926a8adfcE(ptr align 1 @str.1, i64 35, ptr align 8 @alloc9567) #9, !dbg !1407
  unreachable, !dbg !1407

bb10:                                             ; preds = %bb9
  %12 = and i64 %_27.0, -64, !dbg !1407
  %_28.1 = icmp ne i64 %12, 0, !dbg !1407
  %13 = and i64 %_27.0, 63, !dbg !1407
  %_28.0 = lshr i64 %_24.0, %13, !dbg !1407
  %14 = call i1 @llvm.expect.i1(i1 %_28.1, i1 false), !dbg !1407
  br i1 %14, label %panic3, label %bb11, !dbg !1407

panic2:                                           ; preds = %bb9
; call core::panicking::panic
  call void @_ZN4core9panicking5panic17h758e89f926a8adfcE(ptr align 1 @str.0, i64 33, ptr align 8 @alloc9567) #9, !dbg !1409
  unreachable, !dbg !1409

bb11:                                             ; preds = %bb10
  store i64 %_28.0, ptr %bits.dbg.spill, align 8, !dbg !1407
  call void @llvm.dbg.declare(metadata ptr %bits.dbg.spill, metadata !1395, metadata !DIExpression()), !dbg !1410
  %15 = and i64 %range.0, -64, !dbg !1411
  %_30.1 = icmp ne i64 %15, 0, !dbg !1411
  %16 = and i64 %range.0, 63, !dbg !1411
  %_30.0 = lshr i64 %_28.0, %16, !dbg !1411
  %17 = call i1 @llvm.expect.i1(i1 %_30.1, i1 false), !dbg !1411
  br i1 %17, label %panic4, label %bb12, !dbg !1411

panic3:                                           ; preds = %bb10
; call core::panicking::panic
  call void @_ZN4core9panicking5panic17h758e89f926a8adfcE(ptr align 1 @str.2, i64 36, ptr align 8 @alloc9567) #9, !dbg !1407
  unreachable, !dbg !1407

bb12:                                             ; preds = %bb11
  ret i64 %_30.0, !dbg !1412

panic4:                                           ; preds = %bb11
; call core::panicking::panic
  call void @_ZN4core9panicking5panic17h758e89f926a8adfcE(ptr align 1 @str.2, i64 36, ptr align 8 @alloc9567) #9, !dbg !1411
  unreachable, !dbg !1411
}

; <u64 as bit_field::BitField>::set_bits
; Function Attrs: inlinehint noredzone nounwind
define align 8 ptr @"_ZN43_$LT$u64$u20$as$u20$bit_field..BitField$GT$8set_bits17h1fe3c17f8f636016E"(ptr align 8 %self, i64 %0, i64 %1, i64 %value) unnamed_addr #0 !dbg !1413 {
start:
  %bitmask.dbg.spill = alloca i64, align 8
  %range.dbg.spill = alloca { i64, i64 }, align 8
  %value.dbg.spill = alloca i64, align 8
  %self.dbg.spill = alloca ptr, align 8
  %range = alloca { i64, i64 }, align 8
  %2 = getelementptr inbounds { i64, i64 }, ptr %range, i32 0, i32 0
  store i64 %0, ptr %2, align 8
  %3 = getelementptr inbounds { i64, i64 }, ptr %range, i32 0, i32 1
  store i64 %1, ptr %3, align 8
  store ptr %self, ptr %self.dbg.spill, align 8
  call void @llvm.dbg.declare(metadata ptr %self.dbg.spill, metadata !1418, metadata !DIExpression()), !dbg !1425
  call void @llvm.dbg.declare(metadata ptr %range, metadata !1419, metadata !DIExpression()), !dbg !1426
  store i64 %value, ptr %value.dbg.spill, align 8
  call void @llvm.dbg.declare(metadata ptr %value.dbg.spill, metadata !1420, metadata !DIExpression()), !dbg !1427
; call bit_field::to_regular_range
  %4 = call { i64, i64 } @_ZN9bit_field16to_regular_range17hc0f449c7551f57deE(ptr align 8 %range, i64 64) #8, !dbg !1428
  %range.0 = extractvalue { i64, i64 } %4, 0, !dbg !1428
  %range.1 = extractvalue { i64, i64 } %4, 1, !dbg !1428
  %5 = getelementptr inbounds { i64, i64 }, ptr %range.dbg.spill, i32 0, i32 0, !dbg !1428
  store i64 %range.0, ptr %5, align 8, !dbg !1428
  %6 = getelementptr inbounds { i64, i64 }, ptr %range.dbg.spill, i32 0, i32 1, !dbg !1428
  store i64 %range.1, ptr %6, align 8, !dbg !1428
  call void @llvm.dbg.declare(metadata ptr %range.dbg.spill, metadata !1421, metadata !DIExpression()), !dbg !1429
  %_7 = icmp ult i64 %range.0, 64, !dbg !1430
  %_6 = xor i1 %_7, true, !dbg !1431
  br i1 %_6, label %bb2, label %bb3, !dbg !1431

bb3:                                              ; preds = %start
  %_11 = icmp ule i64 %range.1, 64, !dbg !1432
  %_10 = xor i1 %_11, true, !dbg !1433
  br i1 %_10, label %bb4, label %bb5, !dbg !1433

bb2:                                              ; preds = %start
; call core::panicking::panic
  call void @_ZN4core9panicking5panic17h758e89f926a8adfcE(ptr align 1 @alloc9581, i64 48, ptr align 8 @alloc9567) #9, !dbg !1431
  unreachable, !dbg !1431

bb5:                                              ; preds = %bb3
  %_15 = icmp ult i64 %range.0, %range.1, !dbg !1434
  %_14 = xor i1 %_15, true, !dbg !1435
  br i1 %_14, label %bb6, label %bb7, !dbg !1435

bb4:                                              ; preds = %bb3
; call core::panicking::panic
  call void @_ZN4core9panicking5panic17h758e89f926a8adfcE(ptr align 1 @alloc9582, i64 47, ptr align 8 @alloc9567) #9, !dbg !1433
  unreachable, !dbg !1433

bb7:                                              ; preds = %bb5
  %_27.0 = sub i64 %range.1, %range.0, !dbg !1436
  %_27.1 = icmp ult i64 %range.1, %range.0, !dbg !1436
  %7 = call i1 @llvm.expect.i1(i1 %_27.1, i1 false), !dbg !1436
  br i1 %7, label %panic, label %bb8, !dbg !1436

bb6:                                              ; preds = %bb5
; call core::panicking::panic
  call void @_ZN4core9panicking5panic17h758e89f926a8adfcE(ptr align 1 @alloc9583, i64 41, ptr align 8 @alloc9567) #9, !dbg !1435
  unreachable, !dbg !1435

bb8:                                              ; preds = %bb7
  %_28.0 = sub i64 64, %_27.0, !dbg !1437
  %_28.1 = icmp ult i64 64, %_27.0, !dbg !1437
  %8 = call i1 @llvm.expect.i1(i1 %_28.1, i1 false), !dbg !1437
  br i1 %8, label %panic1, label %bb9, !dbg !1437

panic:                                            ; preds = %bb7
; call core::panicking::panic
  call void @_ZN4core9panicking5panic17h758e89f926a8adfcE(ptr align 1 @str.0, i64 33, ptr align 8 @alloc9567) #9, !dbg !1436
  unreachable, !dbg !1436

bb9:                                              ; preds = %bb8
  %9 = and i64 %_28.0, -64, !dbg !1438
  %_29.1 = icmp ne i64 %9, 0, !dbg !1438
  %10 = and i64 %_28.0, 63, !dbg !1438
  %_29.0 = shl i64 %value, %10, !dbg !1438
  %11 = call i1 @llvm.expect.i1(i1 %_29.1, i1 false), !dbg !1438
  br i1 %11, label %panic2, label %bb10, !dbg !1438

panic1:                                           ; preds = %bb8
; call core::panicking::panic
  call void @_ZN4core9panicking5panic17h758e89f926a8adfcE(ptr align 1 @str.0, i64 33, ptr align 8 @alloc9567) #9, !dbg !1437
  unreachable, !dbg !1437

bb10:                                             ; preds = %bb9
  %_34.0 = sub i64 %range.1, %range.0, !dbg !1439
  %_34.1 = icmp ult i64 %range.1, %range.0, !dbg !1439
  %12 = call i1 @llvm.expect.i1(i1 %_34.1, i1 false), !dbg !1439
  br i1 %12, label %panic3, label %bb11, !dbg !1439

panic2:                                           ; preds = %bb9
; call core::panicking::panic
  call void @_ZN4core9panicking5panic17h758e89f926a8adfcE(ptr align 1 @str.1, i64 35, ptr align 8 @alloc9567) #9, !dbg !1438
  unreachable, !dbg !1438

bb11:                                             ; preds = %bb10
  %_35.0 = sub i64 64, %_34.0, !dbg !1440
  %_35.1 = icmp ult i64 64, %_34.0, !dbg !1440
  %13 = call i1 @llvm.expect.i1(i1 %_35.1, i1 false), !dbg !1440
  br i1 %13, label %panic4, label %bb12, !dbg !1440

panic3:                                           ; preds = %bb10
; call core::panicking::panic
  call void @_ZN4core9panicking5panic17h758e89f926a8adfcE(ptr align 1 @str.0, i64 33, ptr align 8 @alloc9567) #9, !dbg !1439
  unreachable, !dbg !1439

bb12:                                             ; preds = %bb11
  %14 = and i64 %_35.0, -64, !dbg !1438
  %_36.1 = icmp ne i64 %14, 0, !dbg !1438
  %15 = and i64 %_35.0, 63, !dbg !1438
  %_36.0 = lshr i64 %_29.0, %15, !dbg !1438
  %16 = call i1 @llvm.expect.i1(i1 %_36.1, i1 false), !dbg !1438
  br i1 %16, label %panic5, label %bb13, !dbg !1438

panic4:                                           ; preds = %bb11
; call core::panicking::panic
  call void @_ZN4core9panicking5panic17h758e89f926a8adfcE(ptr align 1 @str.0, i64 33, ptr align 8 @alloc9567) #9, !dbg !1440
  unreachable, !dbg !1440

bb13:                                             ; preds = %bb12
  %_20 = icmp eq i64 %_36.0, %value, !dbg !1438
  %_19 = xor i1 %_20, true, !dbg !1441
  br i1 %_19, label %bb14, label %bb15, !dbg !1441

panic5:                                           ; preds = %bb12
; call core::panicking::panic
  call void @_ZN4core9panicking5panic17h758e89f926a8adfcE(ptr align 1 @str.2, i64 36, ptr align 8 @alloc9567) #9, !dbg !1438
  unreachable, !dbg !1438

bb15:                                             ; preds = %bb13
  %_46.0 = sub i64 64, %range.1, !dbg !1442
  %_46.1 = icmp ult i64 64, %range.1, !dbg !1442
  %17 = call i1 @llvm.expect.i1(i1 %_46.1, i1 false), !dbg !1442
  br i1 %17, label %panic6, label %bb16, !dbg !1442

bb14:                                             ; preds = %bb13
; call core::panicking::panic
  call void @_ZN4core9panicking5panic17h758e89f926a8adfcE(ptr align 1 @alloc9584, i64 33, ptr align 8 @alloc9567) #9, !dbg !1441
  unreachable, !dbg !1441

bb16:                                             ; preds = %bb15
  %18 = and i64 %_46.0, -64, !dbg !1443
  %_47.1 = icmp ne i64 %18, 0, !dbg !1443
  %19 = and i64 %_46.0, 63, !dbg !1443
  %_47.0 = shl i64 -1, %19, !dbg !1443
  %20 = call i1 @llvm.expect.i1(i1 %_47.1, i1 false), !dbg !1443
  br i1 %20, label %panic7, label %bb17, !dbg !1443

panic6:                                           ; preds = %bb15
; call core::panicking::panic
  call void @_ZN4core9panicking5panic17h758e89f926a8adfcE(ptr align 1 @str.0, i64 33, ptr align 8 @alloc9567) #9, !dbg !1442
  unreachable, !dbg !1442

bb17:                                             ; preds = %bb16
  %_50.0 = sub i64 64, %range.1, !dbg !1444
  %_50.1 = icmp ult i64 64, %range.1, !dbg !1444
  %21 = call i1 @llvm.expect.i1(i1 %_50.1, i1 false), !dbg !1444
  br i1 %21, label %panic8, label %bb18, !dbg !1444

panic7:                                           ; preds = %bb16
; call core::panicking::panic
  call void @_ZN4core9panicking5panic17h758e89f926a8adfcE(ptr align 1 @str.1, i64 35, ptr align 8 @alloc9567) #9, !dbg !1443
  unreachable, !dbg !1443

bb18:                                             ; preds = %bb17
  %22 = and i64 %_50.0, -64, !dbg !1443
  %_51.1 = icmp ne i64 %22, 0, !dbg !1443
  %23 = and i64 %_50.0, 63, !dbg !1443
  %_51.0 = lshr i64 %_47.0, %23, !dbg !1443
  %24 = call i1 @llvm.expect.i1(i1 %_51.1, i1 false), !dbg !1443
  br i1 %24, label %panic9, label %bb19, !dbg !1443

panic8:                                           ; preds = %bb17
; call core::panicking::panic
  call void @_ZN4core9panicking5panic17h758e89f926a8adfcE(ptr align 1 @str.0, i64 33, ptr align 8 @alloc9567) #9, !dbg !1444
  unreachable, !dbg !1444

bb19:                                             ; preds = %bb18
  %25 = and i64 %range.0, -64, !dbg !1443
  %_53.1 = icmp ne i64 %25, 0, !dbg !1443
  %26 = and i64 %range.0, 63, !dbg !1443
  %_53.0 = lshr i64 %_51.0, %26, !dbg !1443
  %27 = call i1 @llvm.expect.i1(i1 %_53.1, i1 false), !dbg !1443
  br i1 %27, label %panic10, label %bb20, !dbg !1443

panic9:                                           ; preds = %bb18
; call core::panicking::panic
  call void @_ZN4core9panicking5panic17h758e89f926a8adfcE(ptr align 1 @str.2, i64 36, ptr align 8 @alloc9567) #9, !dbg !1443
  unreachable, !dbg !1443

bb20:                                             ; preds = %bb19
  %28 = and i64 %range.0, -64, !dbg !1445
  %_55.1 = icmp ne i64 %28, 0, !dbg !1445
  %29 = and i64 %range.0, 63, !dbg !1445
  %_55.0 = shl i64 %_53.0, %29, !dbg !1445
  %30 = call i1 @llvm.expect.i1(i1 %_55.1, i1 false), !dbg !1445
  br i1 %30, label %panic11, label %bb21, !dbg !1445

panic10:                                          ; preds = %bb19
; call core::panicking::panic
  call void @_ZN4core9panicking5panic17h758e89f926a8adfcE(ptr align 1 @str.2, i64 36, ptr align 8 @alloc9567) #9, !dbg !1443
  unreachable, !dbg !1443

bb21:                                             ; preds = %bb20
  %bitmask = xor i64 %_55.0, -1, !dbg !1446
  store i64 %bitmask, ptr %bitmask.dbg.spill, align 8, !dbg !1446
  call void @llvm.dbg.declare(metadata ptr %bitmask.dbg.spill, metadata !1423, metadata !DIExpression()), !dbg !1447
  %_57 = load i64, ptr %self, align 8, !dbg !1448, !noundef !25
  %_56 = and i64 %_57, %bitmask, !dbg !1449
  %31 = and i64 %range.0, -64, !dbg !1450
  %_60.1 = icmp ne i64 %31, 0, !dbg !1450
  %32 = and i64 %range.0, 63, !dbg !1450
  %_60.0 = shl i64 %value, %32, !dbg !1450
  %33 = call i1 @llvm.expect.i1(i1 %_60.1, i1 false), !dbg !1450
  br i1 %33, label %panic12, label %bb22, !dbg !1450

panic11:                                          ; preds = %bb20
; call core::panicking::panic
  call void @_ZN4core9panicking5panic17h758e89f926a8adfcE(ptr align 1 @str.1, i64 35, ptr align 8 @alloc9567) #9, !dbg !1445
  unreachable, !dbg !1445

bb22:                                             ; preds = %bb21
  %34 = or i64 %_56, %_60.0, !dbg !1451
  store i64 %34, ptr %self, align 8, !dbg !1451
  ret ptr %self, !dbg !1452

panic12:                                          ; preds = %bb21
; call core::panicking::panic
  call void @_ZN4core9panicking5panic17h758e89f926a8adfcE(ptr align 1 @str.1, i64 35, ptr align 8 @alloc9567) #9, !dbg !1450
  unreachable, !dbg !1450
}

; <u64 as bit_field::BitField>::set_bits
; Function Attrs: inlinehint noredzone nounwind
define align 8 ptr @"_ZN43_$LT$u64$u20$as$u20$bit_field..BitField$GT$8set_bits17hf0bfed857ea13c66E"(ptr align 8 %self, i64 %0, i64 %value) unnamed_addr #0 !dbg !1453 {
start:
  %bitmask.dbg.spill = alloca i64, align 8
  %range.dbg.spill = alloca { i64, i64 }, align 8
  %value.dbg.spill = alloca i64, align 8
  %self.dbg.spill = alloca ptr, align 8
  %range = alloca i64, align 8
  store i64 %0, ptr %range, align 8
  store ptr %self, ptr %self.dbg.spill, align 8
  call void @llvm.dbg.declare(metadata ptr %self.dbg.spill, metadata !1457, metadata !DIExpression()), !dbg !1464
  call void @llvm.dbg.declare(metadata ptr %range, metadata !1458, metadata !DIExpression()), !dbg !1465
  store i64 %value, ptr %value.dbg.spill, align 8
  call void @llvm.dbg.declare(metadata ptr %value.dbg.spill, metadata !1459, metadata !DIExpression()), !dbg !1466
; call bit_field::to_regular_range
  %1 = call { i64, i64 } @_ZN9bit_field16to_regular_range17haaaa7fc17545a97dE(ptr align 8 %range, i64 64) #8, !dbg !1467
  %range.0 = extractvalue { i64, i64 } %1, 0, !dbg !1467
  %range.1 = extractvalue { i64, i64 } %1, 1, !dbg !1467
  %2 = getelementptr inbounds { i64, i64 }, ptr %range.dbg.spill, i32 0, i32 0, !dbg !1467
  store i64 %range.0, ptr %2, align 8, !dbg !1467
  %3 = getelementptr inbounds { i64, i64 }, ptr %range.dbg.spill, i32 0, i32 1, !dbg !1467
  store i64 %range.1, ptr %3, align 8, !dbg !1467
  call void @llvm.dbg.declare(metadata ptr %range.dbg.spill, metadata !1460, metadata !DIExpression()), !dbg !1468
  %_7 = icmp ult i64 %range.0, 64, !dbg !1469
  %_6 = xor i1 %_7, true, !dbg !1470
  br i1 %_6, label %bb2, label %bb3, !dbg !1470

bb3:                                              ; preds = %start
  %_11 = icmp ule i64 %range.1, 64, !dbg !1471
  %_10 = xor i1 %_11, true, !dbg !1472
  br i1 %_10, label %bb4, label %bb5, !dbg !1472

bb2:                                              ; preds = %start
; call core::panicking::panic
  call void @_ZN4core9panicking5panic17h758e89f926a8adfcE(ptr align 1 @alloc9581, i64 48, ptr align 8 @alloc9567) #9, !dbg !1470
  unreachable, !dbg !1470

bb5:                                              ; preds = %bb3
  %_15 = icmp ult i64 %range.0, %range.1, !dbg !1473
  %_14 = xor i1 %_15, true, !dbg !1474
  br i1 %_14, label %bb6, label %bb7, !dbg !1474

bb4:                                              ; preds = %bb3
; call core::panicking::panic
  call void @_ZN4core9panicking5panic17h758e89f926a8adfcE(ptr align 1 @alloc9582, i64 47, ptr align 8 @alloc9567) #9, !dbg !1472
  unreachable, !dbg !1472

bb7:                                              ; preds = %bb5
  %_27.0 = sub i64 %range.1, %range.0, !dbg !1475
  %_27.1 = icmp ult i64 %range.1, %range.0, !dbg !1475
  %4 = call i1 @llvm.expect.i1(i1 %_27.1, i1 false), !dbg !1475
  br i1 %4, label %panic, label %bb8, !dbg !1475

bb6:                                              ; preds = %bb5
; call core::panicking::panic
  call void @_ZN4core9panicking5panic17h758e89f926a8adfcE(ptr align 1 @alloc9583, i64 41, ptr align 8 @alloc9567) #9, !dbg !1474
  unreachable, !dbg !1474

bb8:                                              ; preds = %bb7
  %_28.0 = sub i64 64, %_27.0, !dbg !1476
  %_28.1 = icmp ult i64 64, %_27.0, !dbg !1476
  %5 = call i1 @llvm.expect.i1(i1 %_28.1, i1 false), !dbg !1476
  br i1 %5, label %panic1, label %bb9, !dbg !1476

panic:                                            ; preds = %bb7
; call core::panicking::panic
  call void @_ZN4core9panicking5panic17h758e89f926a8adfcE(ptr align 1 @str.0, i64 33, ptr align 8 @alloc9567) #9, !dbg !1475
  unreachable, !dbg !1475

bb9:                                              ; preds = %bb8
  %6 = and i64 %_28.0, -64, !dbg !1477
  %_29.1 = icmp ne i64 %6, 0, !dbg !1477
  %7 = and i64 %_28.0, 63, !dbg !1477
  %_29.0 = shl i64 %value, %7, !dbg !1477
  %8 = call i1 @llvm.expect.i1(i1 %_29.1, i1 false), !dbg !1477
  br i1 %8, label %panic2, label %bb10, !dbg !1477

panic1:                                           ; preds = %bb8
; call core::panicking::panic
  call void @_ZN4core9panicking5panic17h758e89f926a8adfcE(ptr align 1 @str.0, i64 33, ptr align 8 @alloc9567) #9, !dbg !1476
  unreachable, !dbg !1476

bb10:                                             ; preds = %bb9
  %_34.0 = sub i64 %range.1, %range.0, !dbg !1478
  %_34.1 = icmp ult i64 %range.1, %range.0, !dbg !1478
  %9 = call i1 @llvm.expect.i1(i1 %_34.1, i1 false), !dbg !1478
  br i1 %9, label %panic3, label %bb11, !dbg !1478

panic2:                                           ; preds = %bb9
; call core::panicking::panic
  call void @_ZN4core9panicking5panic17h758e89f926a8adfcE(ptr align 1 @str.1, i64 35, ptr align 8 @alloc9567) #9, !dbg !1477
  unreachable, !dbg !1477

bb11:                                             ; preds = %bb10
  %_35.0 = sub i64 64, %_34.0, !dbg !1479
  %_35.1 = icmp ult i64 64, %_34.0, !dbg !1479
  %10 = call i1 @llvm.expect.i1(i1 %_35.1, i1 false), !dbg !1479
  br i1 %10, label %panic4, label %bb12, !dbg !1479

panic3:                                           ; preds = %bb10
; call core::panicking::panic
  call void @_ZN4core9panicking5panic17h758e89f926a8adfcE(ptr align 1 @str.0, i64 33, ptr align 8 @alloc9567) #9, !dbg !1478
  unreachable, !dbg !1478

bb12:                                             ; preds = %bb11
  %11 = and i64 %_35.0, -64, !dbg !1477
  %_36.1 = icmp ne i64 %11, 0, !dbg !1477
  %12 = and i64 %_35.0, 63, !dbg !1477
  %_36.0 = lshr i64 %_29.0, %12, !dbg !1477
  %13 = call i1 @llvm.expect.i1(i1 %_36.1, i1 false), !dbg !1477
  br i1 %13, label %panic5, label %bb13, !dbg !1477

panic4:                                           ; preds = %bb11
; call core::panicking::panic
  call void @_ZN4core9panicking5panic17h758e89f926a8adfcE(ptr align 1 @str.0, i64 33, ptr align 8 @alloc9567) #9, !dbg !1479
  unreachable, !dbg !1479

bb13:                                             ; preds = %bb12
  %_20 = icmp eq i64 %_36.0, %value, !dbg !1477
  %_19 = xor i1 %_20, true, !dbg !1480
  br i1 %_19, label %bb14, label %bb15, !dbg !1480

panic5:                                           ; preds = %bb12
; call core::panicking::panic
  call void @_ZN4core9panicking5panic17h758e89f926a8adfcE(ptr align 1 @str.2, i64 36, ptr align 8 @alloc9567) #9, !dbg !1477
  unreachable, !dbg !1477

bb15:                                             ; preds = %bb13
  %_46.0 = sub i64 64, %range.1, !dbg !1481
  %_46.1 = icmp ult i64 64, %range.1, !dbg !1481
  %14 = call i1 @llvm.expect.i1(i1 %_46.1, i1 false), !dbg !1481
  br i1 %14, label %panic6, label %bb16, !dbg !1481

bb14:                                             ; preds = %bb13
; call core::panicking::panic
  call void @_ZN4core9panicking5panic17h758e89f926a8adfcE(ptr align 1 @alloc9584, i64 33, ptr align 8 @alloc9567) #9, !dbg !1480
  unreachable, !dbg !1480

bb16:                                             ; preds = %bb15
  %15 = and i64 %_46.0, -64, !dbg !1482
  %_47.1 = icmp ne i64 %15, 0, !dbg !1482
  %16 = and i64 %_46.0, 63, !dbg !1482
  %_47.0 = shl i64 -1, %16, !dbg !1482
  %17 = call i1 @llvm.expect.i1(i1 %_47.1, i1 false), !dbg !1482
  br i1 %17, label %panic7, label %bb17, !dbg !1482

panic6:                                           ; preds = %bb15
; call core::panicking::panic
  call void @_ZN4core9panicking5panic17h758e89f926a8adfcE(ptr align 1 @str.0, i64 33, ptr align 8 @alloc9567) #9, !dbg !1481
  unreachable, !dbg !1481

bb17:                                             ; preds = %bb16
  %_50.0 = sub i64 64, %range.1, !dbg !1483
  %_50.1 = icmp ult i64 64, %range.1, !dbg !1483
  %18 = call i1 @llvm.expect.i1(i1 %_50.1, i1 false), !dbg !1483
  br i1 %18, label %panic8, label %bb18, !dbg !1483

panic7:                                           ; preds = %bb16
; call core::panicking::panic
  call void @_ZN4core9panicking5panic17h758e89f926a8adfcE(ptr align 1 @str.1, i64 35, ptr align 8 @alloc9567) #9, !dbg !1482
  unreachable, !dbg !1482

bb18:                                             ; preds = %bb17
  %19 = and i64 %_50.0, -64, !dbg !1482
  %_51.1 = icmp ne i64 %19, 0, !dbg !1482
  %20 = and i64 %_50.0, 63, !dbg !1482
  %_51.0 = lshr i64 %_47.0, %20, !dbg !1482
  %21 = call i1 @llvm.expect.i1(i1 %_51.1, i1 false), !dbg !1482
  br i1 %21, label %panic9, label %bb19, !dbg !1482

panic8:                                           ; preds = %bb17
; call core::panicking::panic
  call void @_ZN4core9panicking5panic17h758e89f926a8adfcE(ptr align 1 @str.0, i64 33, ptr align 8 @alloc9567) #9, !dbg !1483
  unreachable, !dbg !1483

bb19:                                             ; preds = %bb18
  %22 = and i64 %range.0, -64, !dbg !1482
  %_53.1 = icmp ne i64 %22, 0, !dbg !1482
  %23 = and i64 %range.0, 63, !dbg !1482
  %_53.0 = lshr i64 %_51.0, %23, !dbg !1482
  %24 = call i1 @llvm.expect.i1(i1 %_53.1, i1 false), !dbg !1482
  br i1 %24, label %panic10, label %bb20, !dbg !1482

panic9:                                           ; preds = %bb18
; call core::panicking::panic
  call void @_ZN4core9panicking5panic17h758e89f926a8adfcE(ptr align 1 @str.2, i64 36, ptr align 8 @alloc9567) #9, !dbg !1482
  unreachable, !dbg !1482

bb20:                                             ; preds = %bb19
  %25 = and i64 %range.0, -64, !dbg !1484
  %_55.1 = icmp ne i64 %25, 0, !dbg !1484
  %26 = and i64 %range.0, 63, !dbg !1484
  %_55.0 = shl i64 %_53.0, %26, !dbg !1484
  %27 = call i1 @llvm.expect.i1(i1 %_55.1, i1 false), !dbg !1484
  br i1 %27, label %panic11, label %bb21, !dbg !1484

panic10:                                          ; preds = %bb19
; call core::panicking::panic
  call void @_ZN4core9panicking5panic17h758e89f926a8adfcE(ptr align 1 @str.2, i64 36, ptr align 8 @alloc9567) #9, !dbg !1482
  unreachable, !dbg !1482

bb21:                                             ; preds = %bb20
  %bitmask = xor i64 %_55.0, -1, !dbg !1485
  store i64 %bitmask, ptr %bitmask.dbg.spill, align 8, !dbg !1485
  call void @llvm.dbg.declare(metadata ptr %bitmask.dbg.spill, metadata !1462, metadata !DIExpression()), !dbg !1486
  %_57 = load i64, ptr %self, align 8, !dbg !1487, !noundef !25
  %_56 = and i64 %_57, %bitmask, !dbg !1488
  %28 = and i64 %range.0, -64, !dbg !1489
  %_60.1 = icmp ne i64 %28, 0, !dbg !1489
  %29 = and i64 %range.0, 63, !dbg !1489
  %_60.0 = shl i64 %value, %29, !dbg !1489
  %30 = call i1 @llvm.expect.i1(i1 %_60.1, i1 false), !dbg !1489
  br i1 %30, label %panic12, label %bb22, !dbg !1489

panic11:                                          ; preds = %bb20
; call core::panicking::panic
  call void @_ZN4core9panicking5panic17h758e89f926a8adfcE(ptr align 1 @str.1, i64 35, ptr align 8 @alloc9567) #9, !dbg !1484
  unreachable, !dbg !1484

bb22:                                             ; preds = %bb21
  %31 = or i64 %_56, %_60.0, !dbg !1490
  store i64 %31, ptr %self, align 8, !dbg !1490
  ret ptr %self, !dbg !1491

panic12:                                          ; preds = %bb21
; call core::panicking::panic
  call void @_ZN4core9panicking5panic17h758e89f926a8adfcE(ptr align 1 @str.1, i64 35, ptr align 8 @alloc9567) #9, !dbg !1489
  unreachable, !dbg !1489
}

; <[T] as core::fmt::Debug>::fmt
; Function Attrs: noredzone nounwind
define zeroext i1 @"_ZN48_$LT$$u5b$T$u5d$$u20$as$u20$core..fmt..Debug$GT$3fmt17h11bc5142001940d3E"(ptr align 8 %self.0, i64 %self.1, ptr align 8 %f) unnamed_addr #1 !dbg !1492 {
start:
  %f.dbg.spill = alloca ptr, align 8
  %self.dbg.spill = alloca { ptr, i64 }, align 8
  %_6 = alloca %"core::fmt::builders::DebugList<'_, '_>", align 8
  %0 = getelementptr inbounds { ptr, i64 }, ptr %self.dbg.spill, i32 0, i32 0
  store ptr %self.0, ptr %0, align 8
  %1 = getelementptr inbounds { ptr, i64 }, ptr %self.dbg.spill, i32 0, i32 1
  store i64 %self.1, ptr %1, align 8
  call void @llvm.dbg.declare(metadata ptr %self.dbg.spill, metadata !1497, metadata !DIExpression()), !dbg !1499
  store ptr %f, ptr %f.dbg.spill, align 8
  call void @llvm.dbg.declare(metadata ptr %f.dbg.spill, metadata !1498, metadata !DIExpression()), !dbg !1500
; call core::fmt::Formatter::debug_list
  call void @_ZN4core3fmt9Formatter10debug_list17hdd476040ee606f7aE(ptr sret(%"core::fmt::builders::DebugList<'_, '_>") %_6, ptr align 8 %f) #8, !dbg !1501
; call core::slice::<impl [T]>::iter
  %2 = call { ptr, ptr } @"_ZN4core5slice29_$LT$impl$u20$$u5b$T$u5d$$GT$4iter17h3947173fc3bcebf9E"(ptr align 8 %self.0, i64 %self.1) #8, !dbg !1502
  %_7.0 = extractvalue { ptr, ptr } %2, 0, !dbg !1502
  %_7.1 = extractvalue { ptr, ptr } %2, 1, !dbg !1502
; call core::fmt::builders::DebugList::entries
  %_4 = call align 8 ptr @_ZN4core3fmt8builders9DebugList7entries17hecb8edd744c45837E(ptr align 8 %_6, ptr %_7.0, ptr %_7.1) #8, !dbg !1501
; call core::fmt::builders::DebugList::finish
  %3 = call zeroext i1 @_ZN4core3fmt8builders9DebugList6finish17h766ba303799f8e95E(ptr align 8 %_4) #8, !dbg !1501
  ret i1 %3, !dbg !1503
}

; <[T] as core::fmt::Debug>::fmt
; Function Attrs: noredzone nounwind
define zeroext i1 @"_ZN48_$LT$$u5b$T$u5d$$u20$as$u20$core..fmt..Debug$GT$3fmt17h1af1ffabcd9681f6E"(ptr align 8 %self.0, i64 %self.1, ptr align 8 %f) unnamed_addr #1 !dbg !1504 {
start:
  %f.dbg.spill = alloca ptr, align 8
  %self.dbg.spill = alloca { ptr, i64 }, align 8
  %_6 = alloca %"core::fmt::builders::DebugList<'_, '_>", align 8
  %0 = getelementptr inbounds { ptr, i64 }, ptr %self.dbg.spill, i32 0, i32 0
  store ptr %self.0, ptr %0, align 8
  %1 = getelementptr inbounds { ptr, i64 }, ptr %self.dbg.spill, i32 0, i32 1
  store i64 %self.1, ptr %1, align 8
  call void @llvm.dbg.declare(metadata ptr %self.dbg.spill, metadata !1513, metadata !DIExpression()), !dbg !1515
  store ptr %f, ptr %f.dbg.spill, align 8
  call void @llvm.dbg.declare(metadata ptr %f.dbg.spill, metadata !1514, metadata !DIExpression()), !dbg !1516
; call core::fmt::Formatter::debug_list
  call void @_ZN4core3fmt9Formatter10debug_list17hdd476040ee606f7aE(ptr sret(%"core::fmt::builders::DebugList<'_, '_>") %_6, ptr align 8 %f) #8, !dbg !1517
; call core::slice::<impl [T]>::iter
  %2 = call { ptr, ptr } @"_ZN4core5slice29_$LT$impl$u20$$u5b$T$u5d$$GT$4iter17h970d116f657037e1E"(ptr align 8 %self.0, i64 %self.1) #8, !dbg !1518
  %_7.0 = extractvalue { ptr, ptr } %2, 0, !dbg !1518
  %_7.1 = extractvalue { ptr, ptr } %2, 1, !dbg !1518
; call core::fmt::builders::DebugList::entries
  %_4 = call align 8 ptr @_ZN4core3fmt8builders9DebugList7entries17h4793be866498b578E(ptr align 8 %_6, ptr %_7.0, ptr %_7.1) #8, !dbg !1517
; call core::fmt::builders::DebugList::finish
  %3 = call zeroext i1 @_ZN4core3fmt8builders9DebugList6finish17h766ba303799f8e95E(ptr align 8 %_4) #8, !dbg !1517
  ret i1 %3, !dbg !1519
}

; <[T] as core::fmt::Debug>::fmt
; Function Attrs: noredzone nounwind
define zeroext i1 @"_ZN48_$LT$$u5b$T$u5d$$u20$as$u20$core..fmt..Debug$GT$3fmt17h2c6725b96bb94130E"(ptr align 8 %self.0, i64 %self.1, ptr align 8 %f) unnamed_addr #1 !dbg !1520 {
start:
  %f.dbg.spill = alloca ptr, align 8
  %self.dbg.spill = alloca { ptr, i64 }, align 8
  %_6 = alloca %"core::fmt::builders::DebugList<'_, '_>", align 8
  %0 = getelementptr inbounds { ptr, i64 }, ptr %self.dbg.spill, i32 0, i32 0
  store ptr %self.0, ptr %0, align 8
  %1 = getelementptr inbounds { ptr, i64 }, ptr %self.dbg.spill, i32 0, i32 1
  store i64 %self.1, ptr %1, align 8
  call void @llvm.dbg.declare(metadata ptr %self.dbg.spill, metadata !1524, metadata !DIExpression()), !dbg !1526
  store ptr %f, ptr %f.dbg.spill, align 8
  call void @llvm.dbg.declare(metadata ptr %f.dbg.spill, metadata !1525, metadata !DIExpression()), !dbg !1527
; call core::fmt::Formatter::debug_list
  call void @_ZN4core3fmt9Formatter10debug_list17hdd476040ee606f7aE(ptr sret(%"core::fmt::builders::DebugList<'_, '_>") %_6, ptr align 8 %f) #8, !dbg !1528
; call core::slice::<impl [T]>::iter
  %2 = call { ptr, ptr } @"_ZN4core5slice29_$LT$impl$u20$$u5b$T$u5d$$GT$4iter17h0815097e44b928a9E"(ptr align 8 %self.0, i64 %self.1) #8, !dbg !1529
  %_7.0 = extractvalue { ptr, ptr } %2, 0, !dbg !1529
  %_7.1 = extractvalue { ptr, ptr } %2, 1, !dbg !1529
; call core::fmt::builders::DebugList::entries
  %_4 = call align 8 ptr @_ZN4core3fmt8builders9DebugList7entries17h1e44011385258302E(ptr align 8 %_6, ptr %_7.0, ptr %_7.1) #8, !dbg !1528
; call core::fmt::builders::DebugList::finish
  %3 = call zeroext i1 @_ZN4core3fmt8builders9DebugList6finish17h766ba303799f8e95E(ptr align 8 %_4) #8, !dbg !1528
  ret i1 %3, !dbg !1530
}

; <[T] as core::fmt::Debug>::fmt
; Function Attrs: noredzone nounwind
define zeroext i1 @"_ZN48_$LT$$u5b$T$u5d$$u20$as$u20$core..fmt..Debug$GT$3fmt17hfd7a51871a8dc1c4E"(ptr align 4 %self.0, i64 %self.1, ptr align 8 %f) unnamed_addr #1 !dbg !1531 {
start:
  %f.dbg.spill = alloca ptr, align 8
  %self.dbg.spill = alloca { ptr, i64 }, align 8
  %_6 = alloca %"core::fmt::builders::DebugList<'_, '_>", align 8
  %0 = getelementptr inbounds { ptr, i64 }, ptr %self.dbg.spill, i32 0, i32 0
  store ptr %self.0, ptr %0, align 8
  %1 = getelementptr inbounds { ptr, i64 }, ptr %self.dbg.spill, i32 0, i32 1
  store i64 %self.1, ptr %1, align 8
  call void @llvm.dbg.declare(metadata ptr %self.dbg.spill, metadata !1535, metadata !DIExpression()), !dbg !1537
  store ptr %f, ptr %f.dbg.spill, align 8
  call void @llvm.dbg.declare(metadata ptr %f.dbg.spill, metadata !1536, metadata !DIExpression()), !dbg !1538
; call core::fmt::Formatter::debug_list
  call void @_ZN4core3fmt9Formatter10debug_list17hdd476040ee606f7aE(ptr sret(%"core::fmt::builders::DebugList<'_, '_>") %_6, ptr align 8 %f) #8, !dbg !1539
; call core::slice::<impl [T]>::iter
  %2 = call { ptr, ptr } @"_ZN4core5slice29_$LT$impl$u20$$u5b$T$u5d$$GT$4iter17h653303c261f13916E"(ptr align 4 %self.0, i64 %self.1) #8, !dbg !1540
  %_7.0 = extractvalue { ptr, ptr } %2, 0, !dbg !1540
  %_7.1 = extractvalue { ptr, ptr } %2, 1, !dbg !1540
; call core::fmt::builders::DebugList::entries
  %_4 = call align 8 ptr @_ZN4core3fmt8builders9DebugList7entries17h1dc1850f83e19cccE(ptr align 8 %_6, ptr %_7.0, ptr %_7.1) #8, !dbg !1539
; call core::fmt::builders::DebugList::finish
  %3 = call zeroext i1 @_ZN4core3fmt8builders9DebugList6finish17h766ba303799f8e95E(ptr align 8 %_4) #8, !dbg !1539
  ret i1 %3, !dbg !1541
}

; core::fmt::ArgumentV1::new_display
; Function Attrs: inlinehint noredzone nounwind
define { ptr, ptr } @_ZN4core3fmt10ArgumentV111new_display17h573d4a0f335c61e4E(ptr align 2 %x) unnamed_addr #0 !dbg !1542 {
start:
  %x.dbg.spill = alloca ptr, align 8
  store ptr %x, ptr %x.dbg.spill, align 8
  call void @llvm.dbg.declare(metadata ptr %x.dbg.spill, metadata !1546, metadata !DIExpression()), !dbg !1549
; call core::fmt::ArgumentV1::new
  %0 = call { ptr, ptr } @_ZN4core3fmt10ArgumentV13new17h94614bd445dc964eE(ptr align 2 %x, ptr @"_ZN4core3fmt3num3imp52_$LT$impl$u20$core..fmt..Display$u20$for$u20$u16$GT$3fmt17h0bead6995e80eba6E") #8, !dbg !1550
  %1 = extractvalue { ptr, ptr } %0, 0, !dbg !1550
  %2 = extractvalue { ptr, ptr } %0, 1, !dbg !1550
  %3 = insertvalue { ptr, ptr } undef, ptr %1, 0, !dbg !1551
  %4 = insertvalue { ptr, ptr } %3, ptr %2, 1, !dbg !1551
  ret { ptr, ptr } %4, !dbg !1551
}

; core::fmt::ArgumentV1::new_lower_hex
; Function Attrs: inlinehint noredzone nounwind
define { ptr, ptr } @_ZN4core3fmt10ArgumentV113new_lower_hex17h324fae9951ab87e4E(ptr align 8 %x) unnamed_addr #0 !dbg !1552 {
start:
  %x.dbg.spill = alloca ptr, align 8
  store ptr %x, ptr %x.dbg.spill, align 8
  call void @llvm.dbg.declare(metadata ptr %x.dbg.spill, metadata !1556, metadata !DIExpression()), !dbg !1557
; call core::fmt::ArgumentV1::new
  %0 = call { ptr, ptr } @_ZN4core3fmt10ArgumentV13new17hffc168cc2175185cE(ptr align 8 %x, ptr @"_ZN4core3fmt3num53_$LT$impl$u20$core..fmt..LowerHex$u20$for$u20$u64$GT$3fmt17h5485057207139f05E") #8, !dbg !1558
  %1 = extractvalue { ptr, ptr } %0, 0, !dbg !1558
  %2 = extractvalue { ptr, ptr } %0, 1, !dbg !1558
  %3 = insertvalue { ptr, ptr } undef, ptr %1, 0, !dbg !1559
  %4 = insertvalue { ptr, ptr } %3, ptr %2, 1, !dbg !1559
  ret { ptr, ptr } %4, !dbg !1559
}

; core::fmt::ArgumentV1::new_lower_hex
; Function Attrs: inlinehint noredzone nounwind
define { ptr, ptr } @_ZN4core3fmt10ArgumentV113new_lower_hex17h3367872609d605ddE(ptr align 8 %x) unnamed_addr #0 !dbg !1560 {
start:
  %x.dbg.spill = alloca ptr, align 8
  store ptr %x, ptr %x.dbg.spill, align 8
  call void @llvm.dbg.declare(metadata ptr %x.dbg.spill, metadata !1564, metadata !DIExpression()), !dbg !1565
; call core::fmt::ArgumentV1::new
  %0 = call { ptr, ptr } @_ZN4core3fmt10ArgumentV13new17h9aa6d45be004b8b7E(ptr align 8 %x, ptr @"_ZN62_$LT$x86_64..addr..VirtAddr$u20$as$u20$core..fmt..LowerHex$GT$3fmt17h446f02c8e7efee49E") #8, !dbg !1566
  %1 = extractvalue { ptr, ptr } %0, 0, !dbg !1566
  %2 = extractvalue { ptr, ptr } %0, 1, !dbg !1566
  %3 = insertvalue { ptr, ptr } undef, ptr %1, 0, !dbg !1567
  %4 = insertvalue { ptr, ptr } %3, ptr %2, 1, !dbg !1567
  ret { ptr, ptr } %4, !dbg !1567
}

; core::fmt::ArgumentV1::new
; Function Attrs: inlinehint noredzone nounwind
define { ptr, ptr } @_ZN4core3fmt10ArgumentV13new17h9aa6d45be004b8b7E(ptr align 8 %x, ptr %f) unnamed_addr #0 !dbg !1568 {
start:
  %0 = alloca ptr, align 8
  %1 = alloca ptr, align 8
  %f.dbg.spill = alloca ptr, align 8
  %x.dbg.spill = alloca ptr, align 8
  %2 = alloca { ptr, ptr }, align 8
  store ptr %x, ptr %x.dbg.spill, align 8
  call void @llvm.dbg.declare(metadata ptr %x.dbg.spill, metadata !1575, metadata !DIExpression()), !dbg !1577
  store ptr %f, ptr %f.dbg.spill, align 8
  call void @llvm.dbg.declare(metadata ptr %f.dbg.spill, metadata !1576, metadata !DIExpression()), !dbg !1578
  store ptr %f, ptr %1, align 8, !dbg !1579
  %_3 = load ptr, ptr %1, align 8, !dbg !1579, !nonnull !25, !noundef !25
  store ptr %x, ptr %0, align 8, !dbg !1580
  %_4 = load ptr, ptr %0, align 8, !dbg !1580, !nonnull !25, !align !1581, !noundef !25
  store ptr %_4, ptr %2, align 8, !dbg !1582
  %3 = getelementptr inbounds { ptr, ptr }, ptr %2, i32 0, i32 1, !dbg !1582
  store ptr %_3, ptr %3, align 8, !dbg !1582
  %4 = getelementptr inbounds { ptr, ptr }, ptr %2, i32 0, i32 0, !dbg !1583
  %5 = load ptr, ptr %4, align 8, !dbg !1583, !nonnull !25, !align !1581, !noundef !25
  %6 = getelementptr inbounds { ptr, ptr }, ptr %2, i32 0, i32 1, !dbg !1583
  %7 = load ptr, ptr %6, align 8, !dbg !1583, !nonnull !25, !noundef !25
  %8 = insertvalue { ptr, ptr } undef, ptr %5, 0, !dbg !1583
  %9 = insertvalue { ptr, ptr } %8, ptr %7, 1, !dbg !1583
  ret { ptr, ptr } %9, !dbg !1583
}

; core::fmt::rt::v1::Count::Is
; Function Attrs: inlinehint noredzone nounwind
define internal { i64, i64 } @_ZN4core3fmt2rt2v15Count2Is17h0617df29b152aa55E(i64 %_1) unnamed_addr #0 !dbg !1584 {
start:
  %_1.dbg.spill = alloca i64, align 8
  %0 = alloca { i64, i64 }, align 8
  store i64 %_1, ptr %_1.dbg.spill, align 8
  call void @llvm.dbg.declare(metadata ptr %_1.dbg.spill, metadata !1591, metadata !DIExpression()), !dbg !1592
  %1 = getelementptr inbounds { i64, i64 }, ptr %0, i32 0, i32 1, !dbg !1592
  store i64 %_1, ptr %1, align 8, !dbg !1592
  store i64 0, ptr %0, align 8, !dbg !1592
  %2 = getelementptr inbounds { i64, i64 }, ptr %0, i32 0, i32 0, !dbg !1592
  %3 = load i64, ptr %2, align 8, !dbg !1592, !range !933, !noundef !25
  %4 = getelementptr inbounds { i64, i64 }, ptr %0, i32 0, i32 1, !dbg !1592
  %5 = load i64, ptr %4, align 8, !dbg !1592
  %6 = insertvalue { i64, i64 } undef, i64 %3, 0, !dbg !1592
  %7 = insertvalue { i64, i64 } %6, i64 %5, 1, !dbg !1592
  ret { i64, i64 } %7, !dbg !1592
}

; core::fmt::num::<impl core::fmt::Debug for u16>::fmt
; Function Attrs: inlinehint noredzone nounwind
define internal zeroext i1 @"_ZN4core3fmt3num50_$LT$impl$u20$core..fmt..Debug$u20$for$u20$u16$GT$3fmt17hcd9918c2cb738668E"(ptr align 2 %self, ptr align 8 %f) unnamed_addr #0 !dbg !1593 {
start:
  %f.dbg.spill = alloca ptr, align 8
  %self.dbg.spill = alloca ptr, align 8
  %0 = alloca i8, align 1
  store ptr %self, ptr %self.dbg.spill, align 8
  call void @llvm.dbg.declare(metadata ptr %self.dbg.spill, metadata !1600, metadata !DIExpression()), !dbg !1602
  store ptr %f, ptr %f.dbg.spill, align 8
  call void @llvm.dbg.declare(metadata ptr %f.dbg.spill, metadata !1601, metadata !DIExpression()), !dbg !1603
; call core::fmt::Formatter::debug_lower_hex
  %_3 = call zeroext i1 @_ZN4core3fmt9Formatter15debug_lower_hex17h2e46ea5d9e73edb7E(ptr align 8 %f) #8, !dbg !1604
  br i1 %_3, label %bb2, label %bb3, !dbg !1604

bb3:                                              ; preds = %start
; call core::fmt::Formatter::debug_upper_hex
  %_5 = call zeroext i1 @_ZN4core3fmt9Formatter15debug_upper_hex17h4363218cfd11e689E(ptr align 8 %f) #8, !dbg !1605
  br i1 %_5, label %bb5, label %bb6, !dbg !1605

bb2:                                              ; preds = %start
; call core::fmt::num::<impl core::fmt::LowerHex for u16>::fmt
  %1 = call zeroext i1 @"_ZN4core3fmt3num53_$LT$impl$u20$core..fmt..LowerHex$u20$for$u20$u16$GT$3fmt17hf5d8fe884b3785a9E"(ptr align 2 %self, ptr align 8 %f) #8, !dbg !1606
  %2 = zext i1 %1 to i8, !dbg !1606
  store i8 %2, ptr %0, align 1, !dbg !1606
  br label %bb7, !dbg !1606

bb7:                                              ; preds = %bb6, %bb5, %bb2
  %3 = load i8, ptr %0, align 1, !dbg !1607, !range !1608, !noundef !25
  %4 = trunc i8 %3 to i1, !dbg !1607
  ret i1 %4, !dbg !1607

bb6:                                              ; preds = %bb3
; call core::fmt::num::imp::<impl core::fmt::Display for u16>::fmt
  %5 = call zeroext i1 @"_ZN4core3fmt3num3imp52_$LT$impl$u20$core..fmt..Display$u20$for$u20$u16$GT$3fmt17h0bead6995e80eba6E"(ptr align 2 %self, ptr align 8 %f) #8, !dbg !1609
  %6 = zext i1 %5 to i8, !dbg !1609
  store i8 %6, ptr %0, align 1, !dbg !1609
  br label %bb7, !dbg !1609

bb5:                                              ; preds = %bb3
; call core::fmt::num::<impl core::fmt::UpperHex for u16>::fmt
  %7 = call zeroext i1 @"_ZN4core3fmt3num53_$LT$impl$u20$core..fmt..UpperHex$u20$for$u20$u16$GT$3fmt17hd44f957adeaf78f5E"(ptr align 2 %self, ptr align 8 %f) #8, !dbg !1610
  %8 = zext i1 %7 to i8, !dbg !1610
  store i8 %8, ptr %0, align 1, !dbg !1610
  br label %bb7, !dbg !1610
}

; core::fmt::num::<impl core::fmt::Debug for u32>::fmt
; Function Attrs: inlinehint noredzone nounwind
define internal zeroext i1 @"_ZN4core3fmt3num50_$LT$impl$u20$core..fmt..Debug$u20$for$u20$u32$GT$3fmt17h2e1663b96125f5fcE"(ptr align 4 %self, ptr align 8 %f) unnamed_addr #0 !dbg !1611 {
start:
  %f.dbg.spill = alloca ptr, align 8
  %self.dbg.spill = alloca ptr, align 8
  %0 = alloca i8, align 1
  store ptr %self, ptr %self.dbg.spill, align 8
  call void @llvm.dbg.declare(metadata ptr %self.dbg.spill, metadata !1616, metadata !DIExpression()), !dbg !1618
  store ptr %f, ptr %f.dbg.spill, align 8
  call void @llvm.dbg.declare(metadata ptr %f.dbg.spill, metadata !1617, metadata !DIExpression()), !dbg !1619
; call core::fmt::Formatter::debug_lower_hex
  %_3 = call zeroext i1 @_ZN4core3fmt9Formatter15debug_lower_hex17h2e46ea5d9e73edb7E(ptr align 8 %f) #8, !dbg !1620
  br i1 %_3, label %bb2, label %bb3, !dbg !1620

bb3:                                              ; preds = %start
; call core::fmt::Formatter::debug_upper_hex
  %_5 = call zeroext i1 @_ZN4core3fmt9Formatter15debug_upper_hex17h4363218cfd11e689E(ptr align 8 %f) #8, !dbg !1621
  br i1 %_5, label %bb5, label %bb6, !dbg !1621

bb2:                                              ; preds = %start
; call core::fmt::num::<impl core::fmt::LowerHex for u32>::fmt
  %1 = call zeroext i1 @"_ZN4core3fmt3num53_$LT$impl$u20$core..fmt..LowerHex$u20$for$u20$u32$GT$3fmt17h7362acf35cc347eaE"(ptr align 4 %self, ptr align 8 %f) #8, !dbg !1622
  %2 = zext i1 %1 to i8, !dbg !1622
  store i8 %2, ptr %0, align 1, !dbg !1622
  br label %bb7, !dbg !1622

bb7:                                              ; preds = %bb6, %bb5, %bb2
  %3 = load i8, ptr %0, align 1, !dbg !1623, !range !1608, !noundef !25
  %4 = trunc i8 %3 to i1, !dbg !1623
  ret i1 %4, !dbg !1623

bb6:                                              ; preds = %bb3
; call core::fmt::num::imp::<impl core::fmt::Display for u32>::fmt
  %5 = call zeroext i1 @"_ZN4core3fmt3num3imp52_$LT$impl$u20$core..fmt..Display$u20$for$u20$u32$GT$3fmt17h6486f2d7d9c458b9E"(ptr align 4 %self, ptr align 8 %f) #8, !dbg !1624
  %6 = zext i1 %5 to i8, !dbg !1624
  store i8 %6, ptr %0, align 1, !dbg !1624
  br label %bb7, !dbg !1624

bb5:                                              ; preds = %bb3
; call core::fmt::num::<impl core::fmt::UpperHex for u32>::fmt
  %7 = call zeroext i1 @"_ZN4core3fmt3num53_$LT$impl$u20$core..fmt..UpperHex$u20$for$u20$u32$GT$3fmt17hc13e7033a49f3a8eE"(ptr align 4 %self, ptr align 8 %f) #8, !dbg !1625
  %8 = zext i1 %7 to i8, !dbg !1625
  store i8 %8, ptr %0, align 1, !dbg !1625
  br label %bb7, !dbg !1625
}

; core::fmt::num::<impl core::fmt::Debug for u64>::fmt
; Function Attrs: inlinehint noredzone nounwind
define internal zeroext i1 @"_ZN4core3fmt3num50_$LT$impl$u20$core..fmt..Debug$u20$for$u20$u64$GT$3fmt17hafe796f62480d40bE"(ptr align 8 %self, ptr align 8 %f) unnamed_addr #0 !dbg !1626 {
start:
  %f.dbg.spill = alloca ptr, align 8
  %self.dbg.spill = alloca ptr, align 8
  %0 = alloca i8, align 1
  store ptr %self, ptr %self.dbg.spill, align 8
  call void @llvm.dbg.declare(metadata ptr %self.dbg.spill, metadata !1631, metadata !DIExpression()), !dbg !1633
  store ptr %f, ptr %f.dbg.spill, align 8
  call void @llvm.dbg.declare(metadata ptr %f.dbg.spill, metadata !1632, metadata !DIExpression()), !dbg !1634
; call core::fmt::Formatter::debug_lower_hex
  %_3 = call zeroext i1 @_ZN4core3fmt9Formatter15debug_lower_hex17h2e46ea5d9e73edb7E(ptr align 8 %f) #8, !dbg !1635
  br i1 %_3, label %bb2, label %bb3, !dbg !1635

bb3:                                              ; preds = %start
; call core::fmt::Formatter::debug_upper_hex
  %_5 = call zeroext i1 @_ZN4core3fmt9Formatter15debug_upper_hex17h4363218cfd11e689E(ptr align 8 %f) #8, !dbg !1636
  br i1 %_5, label %bb5, label %bb6, !dbg !1636

bb2:                                              ; preds = %start
; call core::fmt::num::<impl core::fmt::LowerHex for u64>::fmt
  %1 = call zeroext i1 @"_ZN4core3fmt3num53_$LT$impl$u20$core..fmt..LowerHex$u20$for$u20$u64$GT$3fmt17h5485057207139f05E"(ptr align 8 %self, ptr align 8 %f) #8, !dbg !1637
  %2 = zext i1 %1 to i8, !dbg !1637
  store i8 %2, ptr %0, align 1, !dbg !1637
  br label %bb7, !dbg !1637

bb7:                                              ; preds = %bb6, %bb5, %bb2
  %3 = load i8, ptr %0, align 1, !dbg !1638, !range !1608, !noundef !25
  %4 = trunc i8 %3 to i1, !dbg !1638
  ret i1 %4, !dbg !1638

bb6:                                              ; preds = %bb3
; call core::fmt::num::imp::<impl core::fmt::Display for u64>::fmt
  %5 = call zeroext i1 @"_ZN4core3fmt3num3imp52_$LT$impl$u20$core..fmt..Display$u20$for$u20$u64$GT$3fmt17h0410f6537dda60c3E"(ptr align 8 %self, ptr align 8 %f) #8, !dbg !1639
  %6 = zext i1 %5 to i8, !dbg !1639
  store i8 %6, ptr %0, align 1, !dbg !1639
  br label %bb7, !dbg !1639

bb5:                                              ; preds = %bb3
; call core::fmt::num::<impl core::fmt::UpperHex for u64>::fmt
  %7 = call zeroext i1 @"_ZN4core3fmt3num53_$LT$impl$u20$core..fmt..UpperHex$u20$for$u20$u64$GT$3fmt17h9ce4179746265d03E"(ptr align 8 %self, ptr align 8 %f) #8, !dbg !1640
  %8 = zext i1 %7 to i8, !dbg !1640
  store i8 %8, ptr %0, align 1, !dbg !1640
  br label %bb7, !dbg !1640
}

; core::fmt::builders::DebugList::entries
; Function Attrs: noredzone nounwind
define align 8 ptr @_ZN4core3fmt8builders9DebugList7entries17h1dc1850f83e19cccE(ptr align 8 %self, ptr %entries.0, ptr %entries.1) unnamed_addr #1 !dbg !1641 {
start:
  %entries.dbg.spill = alloca { ptr, ptr }, align 8
  %self.dbg.spill = alloca ptr, align 8
  %entry = alloca ptr, align 8
  %_5 = alloca ptr, align 8
  %iter = alloca { ptr, ptr }, align 8
  store ptr %self, ptr %self.dbg.spill, align 8
  call void @llvm.dbg.declare(metadata ptr %self.dbg.spill, metadata !1672, metadata !DIExpression()), !dbg !1681
  %0 = getelementptr inbounds { ptr, ptr }, ptr %entries.dbg.spill, i32 0, i32 0
  store ptr %entries.0, ptr %0, align 8
  %1 = getelementptr inbounds { ptr, ptr }, ptr %entries.dbg.spill, i32 0, i32 1
  store ptr %entries.1, ptr %1, align 8
  call void @llvm.dbg.declare(metadata ptr %entries.dbg.spill, metadata !1673, metadata !DIExpression()), !dbg !1682
  call void @llvm.dbg.declare(metadata ptr %iter, metadata !1674, metadata !DIExpression()), !dbg !1683
  call void @llvm.dbg.declare(metadata ptr %entry, metadata !1676, metadata !DIExpression()), !dbg !1684
; call <I as core::iter::traits::collect::IntoIterator>::into_iter
  %2 = call { ptr, ptr } @"_ZN63_$LT$I$u20$as$u20$core..iter..traits..collect..IntoIterator$GT$9into_iter17h60c3691ebbf64ac9E"(ptr %entries.0, ptr %entries.1) #8, !dbg !1685
  %_3.0 = extractvalue { ptr, ptr } %2, 0, !dbg !1685
  %_3.1 = extractvalue { ptr, ptr } %2, 1, !dbg !1685
  %3 = getelementptr inbounds { ptr, ptr }, ptr %iter, i32 0, i32 0, !dbg !1685
  store ptr %_3.0, ptr %3, align 8, !dbg !1685
  %4 = getelementptr inbounds { ptr, ptr }, ptr %iter, i32 0, i32 1, !dbg !1685
  store ptr %_3.1, ptr %4, align 8, !dbg !1685
  br label %bb2, !dbg !1686

bb2:                                              ; preds = %bb4, %start
; call <core::slice::iter::Iter<T> as core::iter::traits::iterator::Iterator>::next
  %5 = call align 4 ptr @"_ZN91_$LT$core..slice..iter..Iter$LT$T$GT$$u20$as$u20$core..iter..traits..iterator..Iterator$GT$4next17hdaa9c7459860c87aE"(ptr align 8 %iter) #8, !dbg !1683
  store ptr %5, ptr %_5, align 8, !dbg !1683
  %6 = load ptr, ptr %_5, align 8, !dbg !1683, !noundef !25
  %7 = ptrtoint ptr %6 to i64, !dbg !1683
  %8 = icmp eq i64 %7, 0, !dbg !1683
  %_7 = select i1 %8, i64 0, i64 1, !dbg !1683
  %9 = icmp eq i64 %_7, 0, !dbg !1683
  br i1 %9, label %bb6, label %bb4, !dbg !1683

bb6:                                              ; preds = %bb2
  ret ptr %self, !dbg !1687

bb4:                                              ; preds = %bb2
  %10 = load ptr, ptr %_5, align 8, !dbg !1688, !nonnull !25, !align !1158, !noundef !25
  store ptr %10, ptr %entry, align 8, !dbg !1688
; call core::fmt::builders::DebugList::entry
  %_9 = call align 8 ptr @_ZN4core3fmt8builders9DebugList5entry17h0f90e83be8890688E(ptr align 8 %self, ptr align 1 %entry, ptr align 8 @vtable.3) #8, !dbg !1689
  br label %bb2, !dbg !1690

bb5:                                              ; No predecessors!
  unreachable, !dbg !1683
}

; core::fmt::builders::DebugList::entries
; Function Attrs: noredzone nounwind
define align 8 ptr @_ZN4core3fmt8builders9DebugList7entries17h1e44011385258302E(ptr align 8 %self, ptr %entries.0, ptr %entries.1) unnamed_addr #1 !dbg !1691 {
start:
  %entries.dbg.spill = alloca { ptr, ptr }, align 8
  %self.dbg.spill = alloca ptr, align 8
  %entry = alloca ptr, align 8
  %_5 = alloca ptr, align 8
  %iter = alloca { ptr, ptr }, align 8
  store ptr %self, ptr %self.dbg.spill, align 8
  call void @llvm.dbg.declare(metadata ptr %self.dbg.spill, metadata !1707, metadata !DIExpression()), !dbg !1716
  %0 = getelementptr inbounds { ptr, ptr }, ptr %entries.dbg.spill, i32 0, i32 0
  store ptr %entries.0, ptr %0, align 8
  %1 = getelementptr inbounds { ptr, ptr }, ptr %entries.dbg.spill, i32 0, i32 1
  store ptr %entries.1, ptr %1, align 8
  call void @llvm.dbg.declare(metadata ptr %entries.dbg.spill, metadata !1708, metadata !DIExpression()), !dbg !1717
  call void @llvm.dbg.declare(metadata ptr %iter, metadata !1709, metadata !DIExpression()), !dbg !1718
  call void @llvm.dbg.declare(metadata ptr %entry, metadata !1711, metadata !DIExpression()), !dbg !1719
; call <I as core::iter::traits::collect::IntoIterator>::into_iter
  %2 = call { ptr, ptr } @"_ZN63_$LT$I$u20$as$u20$core..iter..traits..collect..IntoIterator$GT$9into_iter17h553a838735523ba9E"(ptr %entries.0, ptr %entries.1) #8, !dbg !1720
  %_3.0 = extractvalue { ptr, ptr } %2, 0, !dbg !1720
  %_3.1 = extractvalue { ptr, ptr } %2, 1, !dbg !1720
  %3 = getelementptr inbounds { ptr, ptr }, ptr %iter, i32 0, i32 0, !dbg !1720
  store ptr %_3.0, ptr %3, align 8, !dbg !1720
  %4 = getelementptr inbounds { ptr, ptr }, ptr %iter, i32 0, i32 1, !dbg !1720
  store ptr %_3.1, ptr %4, align 8, !dbg !1720
  br label %bb2, !dbg !1721

bb2:                                              ; preds = %bb4, %start
; call <core::slice::iter::Iter<T> as core::iter::traits::iterator::Iterator>::next
  %5 = call align 8 ptr @"_ZN91_$LT$core..slice..iter..Iter$LT$T$GT$$u20$as$u20$core..iter..traits..iterator..Iterator$GT$4next17h5bde49122677bc55E"(ptr align 8 %iter) #8, !dbg !1718
  store ptr %5, ptr %_5, align 8, !dbg !1718
  %6 = load ptr, ptr %_5, align 8, !dbg !1718, !noundef !25
  %7 = ptrtoint ptr %6 to i64, !dbg !1718
  %8 = icmp eq i64 %7, 0, !dbg !1718
  %_7 = select i1 %8, i64 0, i64 1, !dbg !1718
  %9 = icmp eq i64 %_7, 0, !dbg !1718
  br i1 %9, label %bb6, label %bb4, !dbg !1718

bb6:                                              ; preds = %bb2
  ret ptr %self, !dbg !1722

bb4:                                              ; preds = %bb2
  %10 = load ptr, ptr %_5, align 8, !dbg !1723, !nonnull !25, !align !1062, !noundef !25
  store ptr %10, ptr %entry, align 8, !dbg !1723
; call core::fmt::builders::DebugList::entry
  %_9 = call align 8 ptr @_ZN4core3fmt8builders9DebugList5entry17h0f90e83be8890688E(ptr align 8 %self, ptr align 1 %entry, ptr align 8 @vtable.4) #8, !dbg !1724
  br label %bb2, !dbg !1725

bb5:                                              ; No predecessors!
  unreachable, !dbg !1718
}

; core::fmt::builders::DebugList::entries
; Function Attrs: noredzone nounwind
define align 8 ptr @_ZN4core3fmt8builders9DebugList7entries17h4793be866498b578E(ptr align 8 %self, ptr %entries.0, ptr %entries.1) unnamed_addr #1 !dbg !1726 {
start:
  %entries.dbg.spill = alloca { ptr, ptr }, align 8
  %self.dbg.spill = alloca ptr, align 8
  %entry = alloca ptr, align 8
  %_5 = alloca ptr, align 8
  %iter = alloca { ptr, ptr }, align 8
  store ptr %self, ptr %self.dbg.spill, align 8
  call void @llvm.dbg.declare(metadata ptr %self.dbg.spill, metadata !1742, metadata !DIExpression()), !dbg !1751
  %0 = getelementptr inbounds { ptr, ptr }, ptr %entries.dbg.spill, i32 0, i32 0
  store ptr %entries.0, ptr %0, align 8
  %1 = getelementptr inbounds { ptr, ptr }, ptr %entries.dbg.spill, i32 0, i32 1
  store ptr %entries.1, ptr %1, align 8
  call void @llvm.dbg.declare(metadata ptr %entries.dbg.spill, metadata !1743, metadata !DIExpression()), !dbg !1752
  call void @llvm.dbg.declare(metadata ptr %iter, metadata !1744, metadata !DIExpression()), !dbg !1753
  call void @llvm.dbg.declare(metadata ptr %entry, metadata !1746, metadata !DIExpression()), !dbg !1754
; call <I as core::iter::traits::collect::IntoIterator>::into_iter
  %2 = call { ptr, ptr } @"_ZN63_$LT$I$u20$as$u20$core..iter..traits..collect..IntoIterator$GT$9into_iter17h76d005cf411f732dE"(ptr %entries.0, ptr %entries.1) #8, !dbg !1755
  %_3.0 = extractvalue { ptr, ptr } %2, 0, !dbg !1755
  %_3.1 = extractvalue { ptr, ptr } %2, 1, !dbg !1755
  %3 = getelementptr inbounds { ptr, ptr }, ptr %iter, i32 0, i32 0, !dbg !1755
  store ptr %_3.0, ptr %3, align 8, !dbg !1755
  %4 = getelementptr inbounds { ptr, ptr }, ptr %iter, i32 0, i32 1, !dbg !1755
  store ptr %_3.1, ptr %4, align 8, !dbg !1755
  br label %bb2, !dbg !1756

bb2:                                              ; preds = %bb4, %start
; call <core::slice::iter::Iter<T> as core::iter::traits::iterator::Iterator>::next
  %5 = call align 8 ptr @"_ZN91_$LT$core..slice..iter..Iter$LT$T$GT$$u20$as$u20$core..iter..traits..iterator..Iterator$GT$4next17h5dc0a201e0567a9cE"(ptr align 8 %iter) #8, !dbg !1753
  store ptr %5, ptr %_5, align 8, !dbg !1753
  %6 = load ptr, ptr %_5, align 8, !dbg !1753, !noundef !25
  %7 = ptrtoint ptr %6 to i64, !dbg !1753
  %8 = icmp eq i64 %7, 0, !dbg !1753
  %_7 = select i1 %8, i64 0, i64 1, !dbg !1753
  %9 = icmp eq i64 %_7, 0, !dbg !1753
  br i1 %9, label %bb6, label %bb4, !dbg !1753

bb6:                                              ; preds = %bb2
  ret ptr %self, !dbg !1757

bb4:                                              ; preds = %bb2
  %10 = load ptr, ptr %_5, align 8, !dbg !1758, !nonnull !25, !align !1062, !noundef !25
  store ptr %10, ptr %entry, align 8, !dbg !1758
; call core::fmt::builders::DebugList::entry
  %_9 = call align 8 ptr @_ZN4core3fmt8builders9DebugList5entry17h0f90e83be8890688E(ptr align 8 %self, ptr align 1 %entry, ptr align 8 @vtable.5) #8, !dbg !1759
  br label %bb2, !dbg !1760

bb5:                                              ; No predecessors!
  unreachable, !dbg !1753
}

; core::fmt::builders::DebugList::entries
; Function Attrs: noredzone nounwind
define align 8 ptr @_ZN4core3fmt8builders9DebugList7entries17hecb8edd744c45837E(ptr align 8 %self, ptr %entries.0, ptr %entries.1) unnamed_addr #1 !dbg !1761 {
start:
  %entries.dbg.spill = alloca { ptr, ptr }, align 8
  %self.dbg.spill = alloca ptr, align 8
  %entry = alloca ptr, align 8
  %_5 = alloca ptr, align 8
  %iter = alloca { ptr, ptr }, align 8
  store ptr %self, ptr %self.dbg.spill, align 8
  call void @llvm.dbg.declare(metadata ptr %self.dbg.spill, metadata !1777, metadata !DIExpression()), !dbg !1786
  %0 = getelementptr inbounds { ptr, ptr }, ptr %entries.dbg.spill, i32 0, i32 0
  store ptr %entries.0, ptr %0, align 8
  %1 = getelementptr inbounds { ptr, ptr }, ptr %entries.dbg.spill, i32 0, i32 1
  store ptr %entries.1, ptr %1, align 8
  call void @llvm.dbg.declare(metadata ptr %entries.dbg.spill, metadata !1778, metadata !DIExpression()), !dbg !1787
  call void @llvm.dbg.declare(metadata ptr %iter, metadata !1779, metadata !DIExpression()), !dbg !1788
  call void @llvm.dbg.declare(metadata ptr %entry, metadata !1781, metadata !DIExpression()), !dbg !1789
; call <I as core::iter::traits::collect::IntoIterator>::into_iter
  %2 = call { ptr, ptr } @"_ZN63_$LT$I$u20$as$u20$core..iter..traits..collect..IntoIterator$GT$9into_iter17hb476d9e3ddbc9f03E"(ptr %entries.0, ptr %entries.1) #8, !dbg !1790
  %_3.0 = extractvalue { ptr, ptr } %2, 0, !dbg !1790
  %_3.1 = extractvalue { ptr, ptr } %2, 1, !dbg !1790
  %3 = getelementptr inbounds { ptr, ptr }, ptr %iter, i32 0, i32 0, !dbg !1790
  store ptr %_3.0, ptr %3, align 8, !dbg !1790
  %4 = getelementptr inbounds { ptr, ptr }, ptr %iter, i32 0, i32 1, !dbg !1790
  store ptr %_3.1, ptr %4, align 8, !dbg !1790
  br label %bb2, !dbg !1791

bb2:                                              ; preds = %bb4, %start
; call <core::slice::iter::Iter<T> as core::iter::traits::iterator::Iterator>::next
  %5 = call align 8 ptr @"_ZN91_$LT$core..slice..iter..Iter$LT$T$GT$$u20$as$u20$core..iter..traits..iterator..Iterator$GT$4next17h2183ac85923afa18E"(ptr align 8 %iter) #8, !dbg !1788
  store ptr %5, ptr %_5, align 8, !dbg !1788
  %6 = load ptr, ptr %_5, align 8, !dbg !1788, !noundef !25
  %7 = ptrtoint ptr %6 to i64, !dbg !1788
  %8 = icmp eq i64 %7, 0, !dbg !1788
  %_7 = select i1 %8, i64 0, i64 1, !dbg !1788
  %9 = icmp eq i64 %_7, 0, !dbg !1788
  br i1 %9, label %bb6, label %bb4, !dbg !1788

bb6:                                              ; preds = %bb2
  ret ptr %self, !dbg !1792

bb4:                                              ; preds = %bb2
  %10 = load ptr, ptr %_5, align 8, !dbg !1793, !nonnull !25, !align !1062, !noundef !25
  store ptr %10, ptr %entry, align 8, !dbg !1793
; call core::fmt::builders::DebugList::entry
  %_9 = call align 8 ptr @_ZN4core3fmt8builders9DebugList5entry17h0f90e83be8890688E(ptr align 8 %self, ptr align 1 %entry, ptr align 8 @vtable.6) #8, !dbg !1794
  br label %bb2, !dbg !1795

bb5:                                              ; No predecessors!
  unreachable, !dbg !1788
}

; core::fmt::Arguments::new_v1_formatted
; Function Attrs: inlinehint noredzone nounwind
define internal void @_ZN4core3fmt9Arguments16new_v1_formatted17h0d18fbb15759c5efE(ptr sret(%"core::fmt::Arguments<'_>") %0, ptr align 8 %pieces.0, i64 %pieces.1, ptr align 8 %args.0, i64 %args.1, ptr align 8 %fmt.0, i64 %fmt.1) unnamed_addr #0 !dbg !1796 {
start:
  %_unsafe_arg.dbg.spill = alloca %"core::fmt::UnsafeArg", align 1
  %fmt.dbg.spill = alloca { ptr, i64 }, align 8
  %args.dbg.spill = alloca { ptr, i64 }, align 8
  %pieces.dbg.spill = alloca { ptr, i64 }, align 8
  %_5 = alloca { ptr, i64 }, align 8
  %1 = getelementptr inbounds { ptr, i64 }, ptr %pieces.dbg.spill, i32 0, i32 0
  store ptr %pieces.0, ptr %1, align 8
  %2 = getelementptr inbounds { ptr, i64 }, ptr %pieces.dbg.spill, i32 0, i32 1
  store i64 %pieces.1, ptr %2, align 8
  call void @llvm.dbg.declare(metadata ptr %pieces.dbg.spill, metadata !1803, metadata !DIExpression()), !dbg !1807
  %3 = getelementptr inbounds { ptr, i64 }, ptr %args.dbg.spill, i32 0, i32 0
  store ptr %args.0, ptr %3, align 8
  %4 = getelementptr inbounds { ptr, i64 }, ptr %args.dbg.spill, i32 0, i32 1
  store i64 %args.1, ptr %4, align 8
  call void @llvm.dbg.declare(metadata ptr %args.dbg.spill, metadata !1804, metadata !DIExpression()), !dbg !1808
  %5 = getelementptr inbounds { ptr, i64 }, ptr %fmt.dbg.spill, i32 0, i32 0
  store ptr %fmt.0, ptr %5, align 8
  %6 = getelementptr inbounds { ptr, i64 }, ptr %fmt.dbg.spill, i32 0, i32 1
  store i64 %fmt.1, ptr %6, align 8
  call void @llvm.dbg.declare(metadata ptr %fmt.dbg.spill, metadata !1805, metadata !DIExpression()), !dbg !1809
  call void @llvm.dbg.declare(metadata ptr %_unsafe_arg.dbg.spill, metadata !1806, metadata !DIExpression()), !dbg !1810
  %7 = getelementptr inbounds { ptr, i64 }, ptr %_5, i32 0, i32 0, !dbg !1811
  store ptr %fmt.0, ptr %7, align 8, !dbg !1811
  %8 = getelementptr inbounds { ptr, i64 }, ptr %_5, i32 0, i32 1, !dbg !1811
  store i64 %fmt.1, ptr %8, align 8, !dbg !1811
  %9 = getelementptr inbounds %"core::fmt::Arguments<'_>", ptr %0, i32 0, i32 1, !dbg !1812
  %10 = getelementptr inbounds { ptr, i64 }, ptr %9, i32 0, i32 0, !dbg !1812
  store ptr %pieces.0, ptr %10, align 8, !dbg !1812
  %11 = getelementptr inbounds { ptr, i64 }, ptr %9, i32 0, i32 1, !dbg !1812
  store i64 %pieces.1, ptr %11, align 8, !dbg !1812
  %12 = getelementptr inbounds { ptr, i64 }, ptr %_5, i32 0, i32 0, !dbg !1812
  %13 = load ptr, ptr %12, align 8, !dbg !1812, !align !1062, !noundef !25
  %14 = getelementptr inbounds { ptr, i64 }, ptr %_5, i32 0, i32 1, !dbg !1812
  %15 = load i64, ptr %14, align 8, !dbg !1812
  %16 = getelementptr inbounds { ptr, i64 }, ptr %0, i32 0, i32 0, !dbg !1812
  store ptr %13, ptr %16, align 8, !dbg !1812
  %17 = getelementptr inbounds { ptr, i64 }, ptr %0, i32 0, i32 1, !dbg !1812
  store i64 %15, ptr %17, align 8, !dbg !1812
  %18 = getelementptr inbounds %"core::fmt::Arguments<'_>", ptr %0, i32 0, i32 2, !dbg !1812
  %19 = getelementptr inbounds { ptr, i64 }, ptr %18, i32 0, i32 0, !dbg !1812
  store ptr %args.0, ptr %19, align 8, !dbg !1812
  %20 = getelementptr inbounds { ptr, i64 }, ptr %18, i32 0, i32 1, !dbg !1812
  store i64 %args.1, ptr %20, align 8, !dbg !1812
  ret void, !dbg !1813
}

; core::fmt::Arguments::new_v1
; Function Attrs: inlinehint noredzone nounwind
define internal void @_ZN4core3fmt9Arguments6new_v117h3c610cbbb56b842dE(ptr sret(%"core::fmt::Arguments<'_>") %0, ptr align 8 %pieces.0, i64 %pieces.1, ptr align 8 %args.0, i64 %args.1) unnamed_addr #0 !dbg !1814 {
start:
  %args.dbg.spill = alloca { ptr, i64 }, align 8
  %pieces.dbg.spill = alloca { ptr, i64 }, align 8
  %_16 = alloca { ptr, i64 }, align 8
  %_13 = alloca %"core::fmt::Arguments<'_>", align 8
  %_3 = alloca i8, align 1
  %1 = getelementptr inbounds { ptr, i64 }, ptr %pieces.dbg.spill, i32 0, i32 0
  store ptr %pieces.0, ptr %1, align 8
  %2 = getelementptr inbounds { ptr, i64 }, ptr %pieces.dbg.spill, i32 0, i32 1
  store i64 %pieces.1, ptr %2, align 8
  call void @llvm.dbg.declare(metadata ptr %pieces.dbg.spill, metadata !1818, metadata !DIExpression()), !dbg !1820
  %3 = getelementptr inbounds { ptr, i64 }, ptr %args.dbg.spill, i32 0, i32 0
  store ptr %args.0, ptr %3, align 8
  %4 = getelementptr inbounds { ptr, i64 }, ptr %args.dbg.spill, i32 0, i32 1
  store i64 %args.1, ptr %4, align 8
  call void @llvm.dbg.declare(metadata ptr %args.dbg.spill, metadata !1819, metadata !DIExpression()), !dbg !1821
  %_4 = icmp ult i64 %pieces.1, %args.1, !dbg !1822
  br i1 %_4, label %bb1, label %bb2, !dbg !1822

bb2:                                              ; preds = %start
  %5 = call { i64, i1 } @llvm.uadd.with.overflow.i64(i64 %args.1, i64 1), !dbg !1823
  %_11.0 = extractvalue { i64, i1 } %5, 0, !dbg !1823
  %_11.1 = extractvalue { i64, i1 } %5, 1, !dbg !1823
  %6 = call i1 @llvm.expect.i1(i1 %_11.1, i1 false), !dbg !1823
  br i1 %6, label %panic, label %bb4, !dbg !1823

bb1:                                              ; preds = %start
  store i8 1, ptr %_3, align 1, !dbg !1822
  br label %bb3, !dbg !1822

bb3:                                              ; preds = %bb4, %bb1
  %7 = load i8, ptr %_3, align 1, !dbg !1822, !range !1608, !noundef !25
  %8 = trunc i8 %7 to i1, !dbg !1822
  br i1 %8, label %bb5, label %bb7, !dbg !1822

bb4:                                              ; preds = %bb2
  %_7 = icmp ugt i64 %pieces.1, %_11.0, !dbg !1824
  %9 = zext i1 %_7 to i8, !dbg !1822
  store i8 %9, ptr %_3, align 1, !dbg !1822
  br label %bb3, !dbg !1822

panic:                                            ; preds = %bb2
; call core::panicking::panic
  call void @_ZN4core9panicking5panic17h758e89f926a8adfcE(ptr align 1 @str.7, i64 28, ptr align 8 @alloc9598) #9, !dbg !1823
  unreachable, !dbg !1823

bb7:                                              ; preds = %bb3
  store ptr null, ptr %_16, align 8, !dbg !1825
  %10 = getelementptr inbounds %"core::fmt::Arguments<'_>", ptr %0, i32 0, i32 1, !dbg !1826
  %11 = getelementptr inbounds { ptr, i64 }, ptr %10, i32 0, i32 0, !dbg !1826
  store ptr %pieces.0, ptr %11, align 8, !dbg !1826
  %12 = getelementptr inbounds { ptr, i64 }, ptr %10, i32 0, i32 1, !dbg !1826
  store i64 %pieces.1, ptr %12, align 8, !dbg !1826
  %13 = getelementptr inbounds { ptr, i64 }, ptr %_16, i32 0, i32 0, !dbg !1826
  %14 = load ptr, ptr %13, align 8, !dbg !1826, !align !1062, !noundef !25
  %15 = getelementptr inbounds { ptr, i64 }, ptr %_16, i32 0, i32 1, !dbg !1826
  %16 = load i64, ptr %15, align 8, !dbg !1826
  %17 = getelementptr inbounds { ptr, i64 }, ptr %0, i32 0, i32 0, !dbg !1826
  store ptr %14, ptr %17, align 8, !dbg !1826
  %18 = getelementptr inbounds { ptr, i64 }, ptr %0, i32 0, i32 1, !dbg !1826
  store i64 %16, ptr %18, align 8, !dbg !1826
  %19 = getelementptr inbounds %"core::fmt::Arguments<'_>", ptr %0, i32 0, i32 2, !dbg !1826
  %20 = getelementptr inbounds { ptr, i64 }, ptr %19, i32 0, i32 0, !dbg !1826
  store ptr %args.0, ptr %20, align 8, !dbg !1826
  %21 = getelementptr inbounds { ptr, i64 }, ptr %19, i32 0, i32 1, !dbg !1826
  store i64 %args.1, ptr %21, align 8, !dbg !1826
  ret void, !dbg !1827

bb5:                                              ; preds = %bb3
; call core::fmt::Arguments::new_v1
  call void @_ZN4core3fmt9Arguments6new_v117h3c610cbbb56b842dE(ptr sret(%"core::fmt::Arguments<'_>") %_13, ptr align 8 @alloc8062, i64 1, ptr align 8 @alloc6469, i64 0) #8, !dbg !1828
; call core::panicking::panic_fmt
  call void @_ZN4core9panicking9panic_fmt17hda3097b88687bbd9E(ptr %_13, ptr align 8 @alloc9600) #9, !dbg !1828
  unreachable, !dbg !1828
}

; core::num::<impl u64>::checked_add
; Function Attrs: inlinehint noredzone nounwind
define internal { i64, i64 } @"_ZN4core3num21_$LT$impl$u20$u64$GT$11checked_add17he582a407bd29e6a1E"(i64 %self, i64 %rhs) unnamed_addr #0 !dbg !1829 {
start:
  %b.dbg.spill.i = alloca i8, align 1
  %a.dbg.spill.i = alloca i64, align 8
  %rhs.dbg.spill.i = alloca i64, align 8
  %self.dbg.spill.i = alloca i64, align 8
  %0 = alloca { i64, i8 }, align 8
  %1 = alloca i8, align 1
  %b.dbg.spill = alloca i8, align 1
  %a.dbg.spill = alloca i64, align 8
  %rhs.dbg.spill = alloca i64, align 8
  %self.dbg.spill = alloca i64, align 8
  %2 = alloca { i64, i64 }, align 8
  store i64 %self, ptr %self.dbg.spill, align 8
  call void @llvm.dbg.declare(metadata ptr %self.dbg.spill, metadata !1847, metadata !DIExpression()), !dbg !1852
  store i64 %rhs, ptr %rhs.dbg.spill, align 8
  call void @llvm.dbg.declare(metadata ptr %rhs.dbg.spill, metadata !1848, metadata !DIExpression()), !dbg !1853
  store i64 %self, ptr %self.dbg.spill.i, align 8
  call void @llvm.dbg.declare(metadata ptr %self.dbg.spill.i, metadata !1854, metadata !DIExpression()), !dbg !1867
  store i64 %rhs, ptr %rhs.dbg.spill.i, align 8
  call void @llvm.dbg.declare(metadata ptr %rhs.dbg.spill.i, metadata !1863, metadata !DIExpression()), !dbg !1869
  %3 = call { i64, i1 } @llvm.uadd.with.overflow.i64(i64 %self, i64 %rhs), !dbg !1870
  %_5.0.i = extractvalue { i64, i1 } %3, 0, !dbg !1870
  %_5.1.i = extractvalue { i64, i1 } %3, 1, !dbg !1870
  store i64 %_5.0.i, ptr %a.dbg.spill.i, align 8, !dbg !1871
  call void @llvm.dbg.declare(metadata ptr %a.dbg.spill.i, metadata !1864, metadata !DIExpression()), !dbg !1872
  %4 = zext i1 %_5.1.i to i8, !dbg !1873
  store i8 %4, ptr %b.dbg.spill.i, align 1, !dbg !1873
  call void @llvm.dbg.declare(metadata ptr %b.dbg.spill.i, metadata !1866, metadata !DIExpression()), !dbg !1874
  store i64 %_5.0.i, ptr %0, align 8, !dbg !1875
  %5 = getelementptr inbounds { i64, i8 }, ptr %0, i32 0, i32 1, !dbg !1875
  %6 = zext i1 %_5.1.i to i8, !dbg !1875
  store i8 %6, ptr %5, align 8, !dbg !1875
  %7 = load i64, ptr %0, align 8, !dbg !1876, !noundef !25
  %8 = getelementptr inbounds { i64, i8 }, ptr %0, i32 0, i32 1, !dbg !1876
  %9 = load i8, ptr %8, align 8, !dbg !1876, !range !1608, !noundef !25
  %10 = trunc i8 %9 to i1, !dbg !1876
  %11 = zext i1 %10 to i8, !dbg !1876
  %12 = insertvalue { i64, i8 } undef, i64 %7, 0, !dbg !1876
  %13 = insertvalue { i64, i8 } %12, i8 %11, 1, !dbg !1876
  %_5.0 = extractvalue { i64, i8 } %13, 0, !dbg !1877
  %14 = extractvalue { i64, i8 } %13, 1, !dbg !1877
  %_5.1 = trunc i8 %14 to i1, !dbg !1877
  store i64 %_5.0, ptr %a.dbg.spill, align 8, !dbg !1878
  call void @llvm.dbg.declare(metadata ptr %a.dbg.spill, metadata !1849, metadata !DIExpression()), !dbg !1879
  %15 = zext i1 %_5.1 to i8, !dbg !1880
  store i8 %15, ptr %b.dbg.spill, align 1, !dbg !1880
  call void @llvm.dbg.declare(metadata ptr %b.dbg.spill, metadata !1851, metadata !DIExpression()), !dbg !1881
  %16 = call i1 @llvm.expect.i1(i1 %_5.1, i1 false), !dbg !1882
  %17 = zext i1 %16 to i8, !dbg !1882
  store i8 %17, ptr %1, align 1, !dbg !1882
  %18 = load i8, ptr %1, align 1, !dbg !1882, !range !1608, !noundef !25
  %_6 = trunc i8 %18 to i1, !dbg !1882
  br i1 %_6, label %bb3, label %bb4, !dbg !1882

bb4:                                              ; preds = %start
  %19 = getelementptr inbounds { i64, i64 }, ptr %2, i32 0, i32 1, !dbg !1883
  store i64 %_5.0, ptr %19, align 8, !dbg !1883
  store i64 1, ptr %2, align 8, !dbg !1883
  br label %bb5, !dbg !1884

bb3:                                              ; preds = %start
  store i64 0, ptr %2, align 8, !dbg !1885
  br label %bb5, !dbg !1884

bb5:                                              ; preds = %bb4, %bb3
  %20 = getelementptr inbounds { i64, i64 }, ptr %2, i32 0, i32 0, !dbg !1886
  %21 = load i64, ptr %20, align 8, !dbg !1886, !range !1887, !noundef !25
  %22 = getelementptr inbounds { i64, i64 }, ptr %2, i32 0, i32 1, !dbg !1886
  %23 = load i64, ptr %22, align 8, !dbg !1886
  %24 = insertvalue { i64, i64 } undef, i64 %21, 0, !dbg !1886
  %25 = insertvalue { i64, i64 } %24, i64 %23, 1, !dbg !1886
  ret { i64, i64 } %25, !dbg !1886
}

; core::num::<impl u64>::checked_sub
; Function Attrs: inlinehint noredzone nounwind
define internal { i64, i64 } @"_ZN4core3num21_$LT$impl$u20$u64$GT$11checked_sub17h18a34b1d74441cfcE"(i64 %self, i64 %rhs) unnamed_addr #0 !dbg !1888 {
start:
  %b.dbg.spill.i = alloca i8, align 1
  %a.dbg.spill.i = alloca i64, align 8
  %rhs.dbg.spill.i = alloca i64, align 8
  %self.dbg.spill.i = alloca i64, align 8
  %0 = alloca { i64, i8 }, align 8
  %1 = alloca i8, align 1
  %b.dbg.spill = alloca i8, align 1
  %a.dbg.spill = alloca i64, align 8
  %rhs.dbg.spill = alloca i64, align 8
  %self.dbg.spill = alloca i64, align 8
  %2 = alloca { i64, i64 }, align 8
  store i64 %self, ptr %self.dbg.spill, align 8
  call void @llvm.dbg.declare(metadata ptr %self.dbg.spill, metadata !1890, metadata !DIExpression()), !dbg !1895
  store i64 %rhs, ptr %rhs.dbg.spill, align 8
  call void @llvm.dbg.declare(metadata ptr %rhs.dbg.spill, metadata !1891, metadata !DIExpression()), !dbg !1896
  store i64 %self, ptr %self.dbg.spill.i, align 8
  call void @llvm.dbg.declare(metadata ptr %self.dbg.spill.i, metadata !1897, metadata !DIExpression()), !dbg !1904
  store i64 %rhs, ptr %rhs.dbg.spill.i, align 8
  call void @llvm.dbg.declare(metadata ptr %rhs.dbg.spill.i, metadata !1900, metadata !DIExpression()), !dbg !1906
  %_5.0.i = sub i64 %self, %rhs, !dbg !1907
  %_5.1.i = icmp ult i64 %self, %rhs, !dbg !1907
  store i64 %_5.0.i, ptr %a.dbg.spill.i, align 8, !dbg !1908
  call void @llvm.dbg.declare(metadata ptr %a.dbg.spill.i, metadata !1901, metadata !DIExpression()), !dbg !1909
  %3 = zext i1 %_5.1.i to i8, !dbg !1910
  store i8 %3, ptr %b.dbg.spill.i, align 1, !dbg !1910
  call void @llvm.dbg.declare(metadata ptr %b.dbg.spill.i, metadata !1903, metadata !DIExpression()), !dbg !1911
  store i64 %_5.0.i, ptr %0, align 8, !dbg !1912
  %4 = getelementptr inbounds { i64, i8 }, ptr %0, i32 0, i32 1, !dbg !1912
  %5 = zext i1 %_5.1.i to i8, !dbg !1912
  store i8 %5, ptr %4, align 8, !dbg !1912
  %6 = load i64, ptr %0, align 8, !dbg !1913, !noundef !25
  %7 = getelementptr inbounds { i64, i8 }, ptr %0, i32 0, i32 1, !dbg !1913
  %8 = load i8, ptr %7, align 8, !dbg !1913, !range !1608, !noundef !25
  %9 = trunc i8 %8 to i1, !dbg !1913
  %10 = zext i1 %9 to i8, !dbg !1913
  %11 = insertvalue { i64, i8 } undef, i64 %6, 0, !dbg !1913
  %12 = insertvalue { i64, i8 } %11, i8 %10, 1, !dbg !1913
  %_5.0 = extractvalue { i64, i8 } %12, 0, !dbg !1914
  %13 = extractvalue { i64, i8 } %12, 1, !dbg !1914
  %_5.1 = trunc i8 %13 to i1, !dbg !1914
  store i64 %_5.0, ptr %a.dbg.spill, align 8, !dbg !1915
  call void @llvm.dbg.declare(metadata ptr %a.dbg.spill, metadata !1892, metadata !DIExpression()), !dbg !1916
  %14 = zext i1 %_5.1 to i8, !dbg !1917
  store i8 %14, ptr %b.dbg.spill, align 1, !dbg !1917
  call void @llvm.dbg.declare(metadata ptr %b.dbg.spill, metadata !1894, metadata !DIExpression()), !dbg !1918
  %15 = call i1 @llvm.expect.i1(i1 %_5.1, i1 false), !dbg !1919
  %16 = zext i1 %15 to i8, !dbg !1919
  store i8 %16, ptr %1, align 1, !dbg !1919
  %17 = load i8, ptr %1, align 1, !dbg !1919, !range !1608, !noundef !25
  %_6 = trunc i8 %17 to i1, !dbg !1919
  br i1 %_6, label %bb3, label %bb4, !dbg !1919

bb4:                                              ; preds = %start
  %18 = getelementptr inbounds { i64, i64 }, ptr %2, i32 0, i32 1, !dbg !1920
  store i64 %_5.0, ptr %18, align 8, !dbg !1920
  store i64 1, ptr %2, align 8, !dbg !1920
  br label %bb5, !dbg !1921

bb3:                                              ; preds = %start
  store i64 0, ptr %2, align 8, !dbg !1922
  br label %bb5, !dbg !1921

bb5:                                              ; preds = %bb4, %bb3
  %19 = getelementptr inbounds { i64, i64 }, ptr %2, i32 0, i32 0, !dbg !1923
  %20 = load i64, ptr %19, align 8, !dbg !1923, !range !1887, !noundef !25
  %21 = getelementptr inbounds { i64, i64 }, ptr %2, i32 0, i32 1, !dbg !1923
  %22 = load i64, ptr %21, align 8, !dbg !1923
  %23 = insertvalue { i64, i64 } undef, i64 %20, 0, !dbg !1923
  %24 = insertvalue { i64, i64 } %23, i64 %22, 1, !dbg !1923
  ret { i64, i64 } %24, !dbg !1923
}

; core::ptr::drop_in_place<<x86_64::structures::idt::InterruptStackFrameValue as core::fmt::Debug>::fmt::Hex>
; Function Attrs: inlinehint noredzone nounwind
define internal void @"_ZN4core3ptr116drop_in_place$LT$$LT$x86_64..structures..idt..InterruptStackFrameValue$u20$as$u20$core..fmt..Debug$GT$..fmt..Hex$GT$17h148f84a6707cd818E"(ptr %_1) unnamed_addr #0 !dbg !1924 {
start:
  %_1.dbg.spill = alloca ptr, align 8
  store ptr %_1, ptr %_1.dbg.spill, align 8
  call void @llvm.dbg.declare(metadata ptr %_1.dbg.spill, metadata !1930, metadata !DIExpression()), !dbg !1933
  ret void, !dbg !1933
}

; core::ptr::drop_in_place<&x86_64::structures::paging::frame::PhysFrame<x86_64::structures::paging::page::Size1GiB>>
; Function Attrs: inlinehint noredzone nounwind
define internal void @"_ZN4core3ptr119drop_in_place$LT$$RF$x86_64..structures..paging..frame..PhysFrame$LT$x86_64..structures..paging..page..Size1GiB$GT$$GT$17h6f9f442d53dfe57aE"(ptr %_1) unnamed_addr #0 !dbg !1934 {
start:
  %_1.dbg.spill = alloca ptr, align 8
  store ptr %_1, ptr %_1.dbg.spill, align 8
  call void @llvm.dbg.declare(metadata ptr %_1.dbg.spill, metadata !1939, metadata !DIExpression()), !dbg !1942
  ret void, !dbg !1942
}

; core::ptr::drop_in_place<&x86_64::structures::paging::frame::PhysFrame<x86_64::structures::paging::page::Size2MiB>>
; Function Attrs: inlinehint noredzone nounwind
define internal void @"_ZN4core3ptr119drop_in_place$LT$$RF$x86_64..structures..paging..frame..PhysFrame$LT$x86_64..structures..paging..page..Size2MiB$GT$$GT$17he8ecb884c3fa3f0cE"(ptr %_1) unnamed_addr #0 !dbg !1943 {
start:
  %_1.dbg.spill = alloca ptr, align 8
  store ptr %_1, ptr %_1.dbg.spill, align 8
  call void @llvm.dbg.declare(metadata ptr %_1.dbg.spill, metadata !1948, metadata !DIExpression()), !dbg !1951
  ret void, !dbg !1951
}

; core::ptr::drop_in_place<x86_64::structures::idt::Entry<extern "x86.interrupt" fn(x86_64::structures::idt::InterruptStackFrame)>>
; Function Attrs: inlinehint noredzone nounwind
define internal void @"_ZN4core3ptr152drop_in_place$LT$x86_64..structures..idt..Entry$LT$extern$u20$$u22$x86.interrupt$u22$$u20$fn$LP$x86_64..structures..idt..InterruptStackFrame$RP$$GT$$GT$17he9b2455657497241E"(ptr %_1) unnamed_addr #0 !dbg !1952 {
start:
  %_1.dbg.spill = alloca ptr, align 8
  store ptr %_1, ptr %_1.dbg.spill, align 8
  call void @llvm.dbg.declare(metadata ptr %_1.dbg.spill, metadata !1957, metadata !DIExpression()), !dbg !1958
  ret void, !dbg !1958
}

; core::ptr::drop_in_place<&x86_64::structures::idt::Entry<extern "x86.interrupt" fn(x86_64::structures::idt::InterruptStackFrame)>>
; Function Attrs: inlinehint noredzone nounwind
define internal void @"_ZN4core3ptr156drop_in_place$LT$$RF$x86_64..structures..idt..Entry$LT$extern$u20$$u22$x86.interrupt$u22$$u20$fn$LP$x86_64..structures..idt..InterruptStackFrame$RP$$GT$$GT$17hca56e1fb990f5940E"(ptr %_1) unnamed_addr #0 !dbg !1959 {
start:
  %_1.dbg.spill = alloca ptr, align 8
  store ptr %_1, ptr %_1.dbg.spill, align 8
  call void @llvm.dbg.declare(metadata ptr %_1.dbg.spill, metadata !1964, metadata !DIExpression()), !dbg !1965
  ret void, !dbg !1965
}

; core::ptr::drop_in_place<x86_64::structures::idt::Entry<extern "x86.interrupt" fn(x86_64::structures::idt::InterruptStackFrame,u64)>>
; Function Attrs: inlinehint noredzone nounwind
define internal void @"_ZN4core3ptr158drop_in_place$LT$x86_64..structures..idt..Entry$LT$extern$u20$$u22$x86.interrupt$u22$$u20$fn$LP$x86_64..structures..idt..InterruptStackFrame$C$u64$RP$$GT$$GT$17h605ea4e02a183bffE"(ptr %_1) unnamed_addr #0 !dbg !1966 {
start:
  %_1.dbg.spill = alloca ptr, align 8
  store ptr %_1, ptr %_1.dbg.spill, align 8
  call void @llvm.dbg.declare(metadata ptr %_1.dbg.spill, metadata !1971, metadata !DIExpression()), !dbg !1974
  ret void, !dbg !1974
}

; core::ptr::drop_in_place<x86_64::structures::paging::mapper::mapped_page_table::PageTableWalker<x86_64::structures::paging::mapper::offset_page_table::PhysOffset>>
; Function Attrs: inlinehint noredzone nounwind
define internal void @"_ZN4core3ptr164drop_in_place$LT$x86_64..structures..paging..mapper..mapped_page_table..PageTableWalker$LT$x86_64..structures..paging..mapper..offset_page_table..PhysOffset$GT$$GT$17h6007ab77246d6fb3E"(ptr %_1) unnamed_addr #0 !dbg !1975 {
start:
  %_1.dbg.spill = alloca ptr, align 8
  store ptr %_1, ptr %_1.dbg.spill, align 8
  call void @llvm.dbg.declare(metadata ptr %_1.dbg.spill, metadata !1980, metadata !DIExpression()), !dbg !1983
  ret void, !dbg !1983
}

; core::ptr::drop_in_place<&x86_64::structures::paging::mapper::mapped_page_table::MappedPageTable<x86_64::structures::paging::mapper::offset_page_table::PhysOffset>>
; Function Attrs: inlinehint noredzone nounwind
define internal void @"_ZN4core3ptr168drop_in_place$LT$$RF$x86_64..structures..paging..mapper..mapped_page_table..MappedPageTable$LT$x86_64..structures..paging..mapper..offset_page_table..PhysOffset$GT$$GT$17h5c062e1688dc38faE"(ptr %_1) unnamed_addr #0 !dbg !1984 {
start:
  %_1.dbg.spill = alloca ptr, align 8
  store ptr %_1, ptr %_1.dbg.spill, align 8
  call void @llvm.dbg.declare(metadata ptr %_1.dbg.spill, metadata !1989, metadata !DIExpression()), !dbg !1992
  ret void, !dbg !1992
}

; core::ptr::drop_in_place<x86_64::structures::idt::Entry<extern "x86.interrupt" fn(x86_64::structures::idt::InterruptStackFrame) .> !>>
; Function Attrs: inlinehint noredzone nounwind
define internal void @"_ZN4core3ptr172drop_in_place$LT$x86_64..structures..idt..Entry$LT$extern$u20$$u22$x86.interrupt$u22$$u20$fn$LP$x86_64..structures..idt..InterruptStackFrame$RP$$u20$.$GT$$u20$$u21$$GT$$GT$17hae9305ab9faaf1b2E"(ptr %_1) unnamed_addr #0 !dbg !1993 {
start:
  %_1.dbg.spill = alloca ptr, align 8
  store ptr %_1, ptr %_1.dbg.spill, align 8
  call void @llvm.dbg.declare(metadata ptr %_1.dbg.spill, metadata !1998, metadata !DIExpression()), !dbg !2001
  ret void, !dbg !2001
}

; core::ptr::drop_in_place<[x86_64::structures::idt::Entry<extern "x86.interrupt" fn(x86_64::structures::idt::InterruptStackFrame)>; 8]>
; Function Attrs: inlinehint noredzone nounwind
define internal void @"_ZN4core3ptr173drop_in_place$LT$$u5b$x86_64..structures..idt..Entry$LT$extern$u20$$u22$x86.interrupt$u22$$u20$fn$LP$x86_64..structures..idt..InterruptStackFrame$RP$$GT$$u3b$$u20$8$u5d$$GT$17hd4468f77e3d3e9ceE"(ptr %_1) unnamed_addr #0 !dbg !2002 {
start:
  %_1.dbg.spill = alloca ptr, align 8
  store ptr %_1, ptr %_1.dbg.spill, align 8
  call void @llvm.dbg.declare(metadata ptr %_1.dbg.spill, metadata !2007, metadata !DIExpression()), !dbg !2010
  ret void, !dbg !2010
}

; core::ptr::drop_in_place<x86_64::structures::idt::Entry<extern "x86.interrupt" fn(x86_64::structures::idt::InterruptStackFrame,u64) .> !>>
; Function Attrs: inlinehint noredzone nounwind
define internal void @"_ZN4core3ptr178drop_in_place$LT$x86_64..structures..idt..Entry$LT$extern$u20$$u22$x86.interrupt$u22$$u20$fn$LP$x86_64..structures..idt..InterruptStackFrame$C$u64$RP$$u20$.$GT$$u20$$u21$$GT$$GT$17he595eeddfd02990fE"(ptr %_1) unnamed_addr #0 !dbg !2011 {
start:
  %_1.dbg.spill = alloca ptr, align 8
  store ptr %_1, ptr %_1.dbg.spill, align 8
  call void @llvm.dbg.declare(metadata ptr %_1.dbg.spill, metadata !2016, metadata !DIExpression()), !dbg !2019
  ret void, !dbg !2019
}

; core::ptr::drop_in_place<&[x86_64::structures::idt::Entry<extern "x86.interrupt" fn(x86_64::structures::idt::InterruptStackFrame)>; 224]>
; Function Attrs: inlinehint noredzone nounwind
define internal void @"_ZN4core3ptr179drop_in_place$LT$$RF$$u5b$x86_64..structures..idt..Entry$LT$extern$u20$$u22$x86.interrupt$u22$$u20$fn$LP$x86_64..structures..idt..InterruptStackFrame$RP$$GT$$u3b$$u20$224$u5d$$GT$17h3e95f669e262ad76E"(ptr %_1) unnamed_addr #0 !dbg !2020 {
start:
  %_1.dbg.spill = alloca ptr, align 8
  store ptr %_1, ptr %_1.dbg.spill, align 8
  call void @llvm.dbg.declare(metadata ptr %_1.dbg.spill, metadata !2025, metadata !DIExpression()), !dbg !2028
  ret void, !dbg !2028
}

; core::ptr::drop_in_place<x86_64::structures::idt::Entry<extern "x86.interrupt" fn(x86_64::structures::idt::InterruptStackFrame,x86_64::structures::idt::PageFaultErrorCode)>>
; Function Attrs: inlinehint noredzone nounwind
define internal void @"_ZN4core3ptr198drop_in_place$LT$x86_64..structures..idt..Entry$LT$extern$u20$$u22$x86.interrupt$u22$$u20$fn$LP$x86_64..structures..idt..InterruptStackFrame$C$x86_64..structures..idt..PageFaultErrorCode$RP$$GT$$GT$17hdfa0a7bb229be0abE"(ptr %_1) unnamed_addr #0 !dbg !2029 {
start:
  %_1.dbg.spill = alloca ptr, align 8
  store ptr %_1, ptr %_1.dbg.spill, align 8
  call void @llvm.dbg.declare(metadata ptr %_1.dbg.spill, metadata !2034, metadata !DIExpression()), !dbg !2037
  ret void, !dbg !2037
}

; core::ptr::drop_in_place<u16>
; Function Attrs: inlinehint noredzone nounwind
define internal void @"_ZN4core3ptr24drop_in_place$LT$u16$GT$17h5ba65623709cf715E"(ptr %_1) unnamed_addr #0 !dbg !2038 {
start:
  %_1.dbg.spill = alloca ptr, align 8
  store ptr %_1, ptr %_1.dbg.spill, align 8
  call void @llvm.dbg.declare(metadata ptr %_1.dbg.spill, metadata !2043, metadata !DIExpression()), !dbg !2044
  ret void, !dbg !2044
}

; core::ptr::drop_in_place<u32>
; Function Attrs: inlinehint noredzone nounwind
define internal void @"_ZN4core3ptr24drop_in_place$LT$u32$GT$17h67020f8e4f3913b1E"(ptr %_1) unnamed_addr #0 !dbg !2045 {
start:
  %_1.dbg.spill = alloca ptr, align 8
  store ptr %_1, ptr %_1.dbg.spill, align 8
  call void @llvm.dbg.declare(metadata ptr %_1.dbg.spill, metadata !2050, metadata !DIExpression()), !dbg !2053
  ret void, !dbg !2053
}

; core::ptr::drop_in_place<u64>
; Function Attrs: inlinehint noredzone nounwind
define internal void @"_ZN4core3ptr24drop_in_place$LT$u64$GT$17h49b3965168a37bcfE"(ptr %_1) unnamed_addr #0 !dbg !2054 {
start:
  %_1.dbg.spill = alloca ptr, align 8
  store ptr %_1, ptr %_1.dbg.spill, align 8
  call void @llvm.dbg.declare(metadata ptr %_1.dbg.spill, metadata !2059, metadata !DIExpression()), !dbg !2060
  ret void, !dbg !2060
}

; core::ptr::drop_in_place<bool>
; Function Attrs: inlinehint noredzone nounwind
define internal void @"_ZN4core3ptr25drop_in_place$LT$bool$GT$17hc2383eb42ccf6300E"(ptr %_1) unnamed_addr #0 !dbg !2061 {
start:
  %_1.dbg.spill = alloca ptr, align 8
  store ptr %_1, ptr %_1.dbg.spill, align 8
  call void @llvm.dbg.declare(metadata ptr %_1.dbg.spill, metadata !2066, metadata !DIExpression()), !dbg !2069
  ret void, !dbg !2069
}

; core::ptr::drop_in_place<&u16>
; Function Attrs: inlinehint noredzone nounwind
define internal void @"_ZN4core3ptr28drop_in_place$LT$$RF$u16$GT$17h759fb2abfe4f110aE"(ptr %_1) unnamed_addr #0 !dbg !2070 {
start:
  %_1.dbg.spill = alloca ptr, align 8
  store ptr %_1, ptr %_1.dbg.spill, align 8
  call void @llvm.dbg.declare(metadata ptr %_1.dbg.spill, metadata !2075, metadata !DIExpression()), !dbg !2078
  ret void, !dbg !2078
}

; core::ptr::drop_in_place<&u32>
; Function Attrs: inlinehint noredzone nounwind
define internal void @"_ZN4core3ptr28drop_in_place$LT$$RF$u32$GT$17h6b933ce3c513e459E"(ptr %_1) unnamed_addr #0 !dbg !2079 {
start:
  %_1.dbg.spill = alloca ptr, align 8
  store ptr %_1, ptr %_1.dbg.spill, align 8
  call void @llvm.dbg.declare(metadata ptr %_1.dbg.spill, metadata !2084, metadata !DIExpression()), !dbg !2087
  ret void, !dbg !2087
}

; core::ptr::drop_in_place<&u64>
; Function Attrs: inlinehint noredzone nounwind
define internal void @"_ZN4core3ptr28drop_in_place$LT$$RF$u64$GT$17ha05f688f99faa586E"(ptr %_1) unnamed_addr #0 !dbg !2088 {
start:
  %_1.dbg.spill = alloca ptr, align 8
  store ptr %_1, ptr %_1.dbg.spill, align 8
  call void @llvm.dbg.declare(metadata ptr %_1.dbg.spill, metadata !2093, metadata !DIExpression()), !dbg !2094
  ret void, !dbg !2094
}

; core::ptr::drop_in_place<&usize>
; Function Attrs: inlinehint noredzone nounwind
define internal void @"_ZN4core3ptr30drop_in_place$LT$$RF$usize$GT$17h6cd94752f97c7128E"(ptr %_1) unnamed_addr #0 !dbg !2095 {
start:
  %_1.dbg.spill = alloca ptr, align 8
  store ptr %_1, ptr %_1.dbg.spill, align 8
  call void @llvm.dbg.declare(metadata ptr %_1.dbg.spill, metadata !2100, metadata !DIExpression()), !dbg !2103
  ret void, !dbg !2103
}

; core::ptr::drop_in_place<&()>
; Function Attrs: inlinehint noredzone nounwind
define internal void @"_ZN4core3ptr33drop_in_place$LT$$RF$$LP$$RP$$GT$17he64fb27a079cfd8dE"(ptr %_1) unnamed_addr #0 !dbg !2104 {
start:
  %_1.dbg.spill = alloca ptr, align 8
  store ptr %_1, ptr %_1.dbg.spill, align 8
  call void @llvm.dbg.declare(metadata ptr %_1.dbg.spill, metadata !2109, metadata !DIExpression()), !dbg !2112
  ret void, !dbg !2112
}

; core::ptr::drop_in_place<core::fmt::Arguments>
; Function Attrs: inlinehint noredzone nounwind
define internal void @"_ZN4core3ptr41drop_in_place$LT$core..fmt..Arguments$GT$17h6f8978a61277bd4dE"(ptr %_1) unnamed_addr #0 !dbg !2113 {
start:
  %_1.dbg.spill = alloca ptr, align 8
  store ptr %_1, ptr %_1.dbg.spill, align 8
  call void @llvm.dbg.declare(metadata ptr %_1.dbg.spill, metadata !2118, metadata !DIExpression()), !dbg !2121
  ret void, !dbg !2121
}

; core::ptr::drop_in_place<x86_64::PrivilegeLevel>
; Function Attrs: inlinehint noredzone nounwind
define internal void @"_ZN4core3ptr43drop_in_place$LT$x86_64..PrivilegeLevel$GT$17h3f77e354ff620ed5E"(ptr %_1) unnamed_addr #0 !dbg !2122 {
start:
  %_1.dbg.spill = alloca ptr, align 8
  store ptr %_1, ptr %_1.dbg.spill, align 8
  call void @llvm.dbg.declare(metadata ptr %_1.dbg.spill, metadata !2127, metadata !DIExpression()), !dbg !2130
  ret void, !dbg !2130
}

; core::ptr::drop_in_place<x86_64::addr::PhysAddr>
; Function Attrs: inlinehint noredzone nounwind
define internal void @"_ZN4core3ptr43drop_in_place$LT$x86_64..addr..PhysAddr$GT$17h479443ba81cf3b46E"(ptr %_1) unnamed_addr #0 !dbg !2131 {
start:
  %_1.dbg.spill = alloca ptr, align 8
  store ptr %_1, ptr %_1.dbg.spill, align 8
  call void @llvm.dbg.declare(metadata ptr %_1.dbg.spill, metadata !2136, metadata !DIExpression()), !dbg !2137
  ret void, !dbg !2137
}

; core::ptr::drop_in_place<x86_64::addr::VirtAddr>
; Function Attrs: inlinehint noredzone nounwind
define internal void @"_ZN4core3ptr43drop_in_place$LT$x86_64..addr..VirtAddr$GT$17h672b61b9e84ca04bE"(ptr %_1) unnamed_addr #0 !dbg !2138 {
start:
  %_1.dbg.spill = alloca ptr, align 8
  store ptr %_1, ptr %_1.dbg.spill, align 8
  call void @llvm.dbg.declare(metadata ptr %_1.dbg.spill, metadata !2143, metadata !DIExpression()), !dbg !2144
  ret void, !dbg !2144
}

; core::ptr::drop_in_place<[u64; 8]>
; Function Attrs: inlinehint noredzone nounwind
define internal void @"_ZN4core3ptr45drop_in_place$LT$$u5b$u64$u3b$$u20$8$u5d$$GT$17h753635b82097e3d2E"(ptr %_1) unnamed_addr #0 !dbg !2145 {
start:
  %_1.dbg.spill = alloca ptr, align 8
  store ptr %_1, ptr %_1.dbg.spill, align 8
  call void @llvm.dbg.declare(metadata ptr %_1.dbg.spill, metadata !2150, metadata !DIExpression()), !dbg !2153
  ret void, !dbg !2153
}

; core::ptr::drop_in_place<&x86_64::addr::PhysAddr>
; Function Attrs: inlinehint noredzone nounwind
define internal void @"_ZN4core3ptr47drop_in_place$LT$$RF$x86_64..addr..PhysAddr$GT$17h470dbd348baae334E"(ptr %_1) unnamed_addr #0 !dbg !2154 {
start:
  %_1.dbg.spill = alloca ptr, align 8
  store ptr %_1, ptr %_1.dbg.spill, align 8
  call void @llvm.dbg.declare(metadata ptr %_1.dbg.spill, metadata !2159, metadata !DIExpression()), !dbg !2162
  ret void, !dbg !2162
}

; core::ptr::drop_in_place<&x86_64::addr::VirtAddr>
; Function Attrs: inlinehint noredzone nounwind
define internal void @"_ZN4core3ptr47drop_in_place$LT$$RF$x86_64..addr..VirtAddr$GT$17h31f11adb3a7bd330E"(ptr %_1) unnamed_addr #0 !dbg !2163 {
start:
  %_1.dbg.spill = alloca ptr, align 8
  store ptr %_1, ptr %_1.dbg.spill, align 8
  call void @llvm.dbg.declare(metadata ptr %_1.dbg.spill, metadata !2168, metadata !DIExpression()), !dbg !2169
  ret void, !dbg !2169
}

; core::ptr::drop_in_place<x86_64::addr::VirtAddrNotValid>
; Function Attrs: inlinehint noredzone nounwind
define internal void @"_ZN4core3ptr51drop_in_place$LT$x86_64..addr..VirtAddrNotValid$GT$17ha9d2ef499f31f6b5E"(ptr %_1) unnamed_addr #0 !dbg !2170 {
start:
  %_1.dbg.spill = alloca ptr, align 8
  store ptr %_1, ptr %_1.dbg.spill, align 8
  call void @llvm.dbg.declare(metadata ptr %_1.dbg.spill, metadata !2175, metadata !DIExpression()), !dbg !2178
  ret void, !dbg !2178
}

; core::ptr::drop_in_place<&x86_64::instructions::tlb::Pcid>
; Function Attrs: inlinehint noredzone nounwind
define internal void @"_ZN4core3ptr56drop_in_place$LT$$RF$x86_64..instructions..tlb..Pcid$GT$17h8a19a76c99f0b2cbE"(ptr %_1) unnamed_addr #0 !dbg !2179 {
start:
  %_1.dbg.spill = alloca ptr, align 8
  store ptr %_1, ptr %_1.dbg.spill, align 8
  call void @llvm.dbg.declare(metadata ptr %_1.dbg.spill, metadata !2184, metadata !DIExpression()), !dbg !2187
  ret void, !dbg !2187
}

; core::ptr::drop_in_place<x86_64::structures::idt::EntryOptions>
; Function Attrs: inlinehint noredzone nounwind
define internal void @"_ZN4core3ptr58drop_in_place$LT$x86_64..structures..idt..EntryOptions$GT$17h3be3be2eb3fae44eE"(ptr %_1) unnamed_addr #0 !dbg !2188 {
start:
  %_1.dbg.spill = alloca ptr, align 8
  store ptr %_1, ptr %_1.dbg.spill, align 8
  call void @llvm.dbg.declare(metadata ptr %_1.dbg.spill, metadata !2193, metadata !DIExpression()), !dbg !2196
  ret void, !dbg !2196
}

; core::ptr::drop_in_place<x86_64::structures::idt::DescriptorTable>
; Function Attrs: inlinehint noredzone nounwind
define internal void @"_ZN4core3ptr61drop_in_place$LT$x86_64..structures..idt..DescriptorTable$GT$17h85ac27ec8e3a339fE"(ptr %_1) unnamed_addr #0 !dbg !2197 {
start:
  %_1.dbg.spill = alloca ptr, align 8
  store ptr %_1, ptr %_1.dbg.spill, align 8
  call void @llvm.dbg.declare(metadata ptr %_1.dbg.spill, metadata !2202, metadata !DIExpression()), !dbg !2205
  ret void, !dbg !2205
}

; core::ptr::drop_in_place<[x86_64::addr::VirtAddr; 3]>
; Function Attrs: inlinehint noredzone nounwind
define internal void @"_ZN4core3ptr64drop_in_place$LT$$u5b$x86_64..addr..VirtAddr$u3b$$u20$3$u5d$$GT$17h6d4dd7bda5ae72f4E"(ptr %_1) unnamed_addr #0 !dbg !2206 {
start:
  %_1.dbg.spill = alloca ptr, align 8
  store ptr %_1, ptr %_1.dbg.spill, align 8
  call void @llvm.dbg.declare(metadata ptr %_1.dbg.spill, metadata !2211, metadata !DIExpression()), !dbg !2214
  ret void, !dbg !2214
}

; core::ptr::drop_in_place<[x86_64::addr::VirtAddr; 7]>
; Function Attrs: inlinehint noredzone nounwind
define internal void @"_ZN4core3ptr64drop_in_place$LT$$u5b$x86_64..addr..VirtAddr$u3b$$u20$7$u5d$$GT$17hed3fb2b87ae670b7E"(ptr %_1) unnamed_addr #0 !dbg !2215 {
start:
  %_1.dbg.spill = alloca ptr, align 8
  store ptr %_1, ptr %_1.dbg.spill, align 8
  call void @llvm.dbg.declare(metadata ptr %_1.dbg.spill, metadata !2220, metadata !DIExpression()), !dbg !2223
  ret void, !dbg !2223
}

; core::ptr::drop_in_place<x86_64::structures::paging::mapper::MappedFrame>
; Function Attrs: inlinehint noredzone nounwind
define internal void @"_ZN4core3ptr68drop_in_place$LT$x86_64..structures..paging..mapper..MappedFrame$GT$17ha298feb08fe80656E"(ptr %_1) unnamed_addr #0 !dbg !2224 {
start:
  %_1.dbg.spill = alloca ptr, align 8
  store ptr %_1, ptr %_1.dbg.spill, align 8
  call void @llvm.dbg.declare(metadata ptr %_1.dbg.spill, metadata !2229, metadata !DIExpression()), !dbg !2232
  ret void, !dbg !2232
}

; core::ptr::drop_in_place<&x86_64::structures::paging::frame::PhysFrame>
; Function Attrs: inlinehint noredzone nounwind
define internal void @"_ZN4core3ptr69drop_in_place$LT$$RF$x86_64..structures..paging..frame..PhysFrame$GT$17h14640ca1284c6fe5E"(ptr %_1) unnamed_addr #0 !dbg !2233 {
start:
  %_1.dbg.spill = alloca ptr, align 8
  store ptr %_1, ptr %_1.dbg.spill, align 8
  call void @llvm.dbg.declare(metadata ptr %_1.dbg.spill, metadata !2238, metadata !DIExpression()), !dbg !2241
  ret void, !dbg !2241
}

; core::ptr::drop_in_place<x86_64::structures::paging::page_table::PageTableFlags>
; Function Attrs: inlinehint noredzone nounwind
define internal void @"_ZN4core3ptr75drop_in_place$LT$x86_64..structures..paging..page_table..PageTableFlags$GT$17h1391013c3cc6548bE"(ptr %_1) unnamed_addr #0 !dbg !2242 {
start:
  %_1.dbg.spill = alloca ptr, align 8
  store ptr %_1, ptr %_1.dbg.spill, align 8
  call void @llvm.dbg.declare(metadata ptr %_1.dbg.spill, metadata !2247, metadata !DIExpression()), !dbg !2248
  ret void, !dbg !2248
}

; core::ptr::drop_in_place<&x86_64::structures::paging::page_table::PageTableEntry>
; Function Attrs: inlinehint noredzone nounwind
define internal void @"_ZN4core3ptr79drop_in_place$LT$$RF$x86_64..structures..paging..page_table..PageTableEntry$GT$17h14f2f778e3458a2dE"(ptr %_1) unnamed_addr #0 !dbg !2249 {
start:
  %_1.dbg.spill = alloca ptr, align 8
  store ptr %_1, ptr %_1.dbg.spill, align 8
  call void @llvm.dbg.declare(metadata ptr %_1.dbg.spill, metadata !2254, metadata !DIExpression()), !dbg !2255
  ret void, !dbg !2255
}

; core::ptr::drop_in_place<&x86_64::structures::paging::page_table::PageTableFlags>
; Function Attrs: inlinehint noredzone nounwind
define internal void @"_ZN4core3ptr79drop_in_place$LT$$RF$x86_64..structures..paging..page_table..PageTableFlags$GT$17hfa2e892152b85d7aE"(ptr %_1) unnamed_addr #0 !dbg !2256 {
start:
  %_1.dbg.spill = alloca ptr, align 8
  store ptr %_1, ptr %_1.dbg.spill, align 8
  call void @llvm.dbg.declare(metadata ptr %_1.dbg.spill, metadata !2261, metadata !DIExpression()), !dbg !2264
  ret void, !dbg !2264
}

; core::ptr::drop_in_place<&x86_64::structures::paging::page_table::PageTableIndex>
; Function Attrs: inlinehint noredzone nounwind
define internal void @"_ZN4core3ptr79drop_in_place$LT$$RF$x86_64..structures..paging..page_table..PageTableIndex$GT$17hcf196e1dc5602655E"(ptr %_1) unnamed_addr #0 !dbg !2265 {
start:
  %_1.dbg.spill = alloca ptr, align 8
  store ptr %_1, ptr %_1.dbg.spill, align 8
  call void @llvm.dbg.declare(metadata ptr %_1.dbg.spill, metadata !2270, metadata !DIExpression()), !dbg !2273
  ret void, !dbg !2273
}

; core::ptr::mut_ptr::<impl *mut T>::is_null::runtime_impl
; Function Attrs: inlinehint noredzone nounwind
define internal zeroext i1 @"_ZN4core3ptr7mut_ptr31_$LT$impl$u20$$BP$mut$u20$T$GT$7is_null12runtime_impl17h6937afe8db8bd80cE"(ptr %ptr) unnamed_addr #0 !dbg !2274 {
start:
  %self.dbg.spill.i1 = alloca ptr, align 8
  %0 = alloca i64, align 8
  %self.dbg.spill.i = alloca ptr, align 8
  %ptr.dbg.spill = alloca ptr, align 8
  store ptr %ptr, ptr %ptr.dbg.spill, align 8
  call void @llvm.dbg.declare(metadata ptr %ptr.dbg.spill, metadata !2283, metadata !DIExpression()), !dbg !2284
  store ptr %ptr, ptr %self.dbg.spill.i, align 8
  call void @llvm.dbg.declare(metadata ptr %self.dbg.spill.i, metadata !2285, metadata !DIExpression()), !dbg !2292
  store ptr %ptr, ptr %self.dbg.spill.i1, align 8
  call void @llvm.dbg.declare(metadata ptr %self.dbg.spill.i1, metadata !2294, metadata !DIExpression()), !dbg !2302
  store ptr %ptr, ptr %0, align 8, !dbg !2304
  %1 = load i64, ptr %0, align 8, !dbg !2304, !noundef !25
  %2 = icmp eq i64 %1, 0, !dbg !2305
  ret i1 %2, !dbg !2306
}

; core::ptr::mut_ptr::<impl *mut T>::is_null
; Function Attrs: inlinehint noredzone nounwind
define zeroext i1 @"_ZN4core3ptr7mut_ptr31_$LT$impl$u20$$BP$mut$u20$T$GT$7is_null17h0c778fc137350477E"(ptr %self) unnamed_addr #0 !dbg !2307 {
start:
  %self.dbg.spill = alloca ptr, align 8
  %_2 = alloca ptr, align 8
  store ptr %self, ptr %self.dbg.spill, align 8
  call void @llvm.dbg.declare(metadata ptr %self.dbg.spill, metadata !2311, metadata !DIExpression()), !dbg !2312
  store ptr %self, ptr %_2, align 8, !dbg !2313
  %0 = load ptr, ptr %_2, align 8, !dbg !2314, !noundef !25
; call core::ptr::mut_ptr::<impl *mut T>::is_null::runtime_impl
  %1 = call zeroext i1 @"_ZN4core3ptr7mut_ptr31_$LT$impl$u20$$BP$mut$u20$T$GT$7is_null12runtime_impl17h6937afe8db8bd80cE"(ptr %0) #8, !dbg !2314
  ret i1 %1, !dbg !2315
}

; core::ptr::mut_ptr::<impl *mut T>::is_null
; Function Attrs: inlinehint noredzone nounwind
define zeroext i1 @"_ZN4core3ptr7mut_ptr31_$LT$impl$u20$$BP$mut$u20$T$GT$7is_null17h6cd114e5f52f0653E"(ptr %self) unnamed_addr #0 !dbg !2316 {
start:
  %self.dbg.spill = alloca ptr, align 8
  %_2 = alloca ptr, align 8
  store ptr %self, ptr %self.dbg.spill, align 8
  call void @llvm.dbg.declare(metadata ptr %self.dbg.spill, metadata !2321, metadata !DIExpression()), !dbg !2322
  store ptr %self, ptr %_2, align 8, !dbg !2323
  %0 = load ptr, ptr %_2, align 8, !dbg !2324, !noundef !25
; call core::ptr::mut_ptr::<impl *mut T>::is_null::runtime_impl
  %1 = call zeroext i1 @"_ZN4core3ptr7mut_ptr31_$LT$impl$u20$$BP$mut$u20$T$GT$7is_null12runtime_impl17h6937afe8db8bd80cE"(ptr %0) #8, !dbg !2324
  ret i1 %1, !dbg !2325
}

; core::ptr::mut_ptr::<impl *mut T>::is_null
; Function Attrs: inlinehint noredzone nounwind
define zeroext i1 @"_ZN4core3ptr7mut_ptr31_$LT$impl$u20$$BP$mut$u20$T$GT$7is_null17h9a93812dc4eccaa4E"(ptr %self) unnamed_addr #0 !dbg !2326 {
start:
  %self.dbg.spill = alloca ptr, align 8
  %_2 = alloca ptr, align 8
  store ptr %self, ptr %self.dbg.spill, align 8
  call void @llvm.dbg.declare(metadata ptr %self.dbg.spill, metadata !2330, metadata !DIExpression()), !dbg !2331
  store ptr %self, ptr %_2, align 8, !dbg !2332
  %0 = load ptr, ptr %_2, align 8, !dbg !2333, !noundef !25
; call core::ptr::mut_ptr::<impl *mut T>::is_null::runtime_impl
  %1 = call zeroext i1 @"_ZN4core3ptr7mut_ptr31_$LT$impl$u20$$BP$mut$u20$T$GT$7is_null12runtime_impl17h6937afe8db8bd80cE"(ptr %0) #8, !dbg !2333
  ret i1 %1, !dbg !2334
}

; core::ptr::mut_ptr::<impl *mut T>::is_null
; Function Attrs: inlinehint noredzone nounwind
define zeroext i1 @"_ZN4core3ptr7mut_ptr31_$LT$impl$u20$$BP$mut$u20$T$GT$7is_null17had3c338e09489d49E"(ptr %self) unnamed_addr #0 !dbg !2335 {
start:
  %self.dbg.spill = alloca ptr, align 8
  %_2 = alloca ptr, align 8
  store ptr %self, ptr %self.dbg.spill, align 8
  call void @llvm.dbg.declare(metadata ptr %self.dbg.spill, metadata !2339, metadata !DIExpression()), !dbg !2340
  store ptr %self, ptr %_2, align 8, !dbg !2341
  %0 = load ptr, ptr %_2, align 8, !dbg !2342, !noundef !25
; call core::ptr::mut_ptr::<impl *mut T>::is_null::runtime_impl
  %1 = call zeroext i1 @"_ZN4core3ptr7mut_ptr31_$LT$impl$u20$$BP$mut$u20$T$GT$7is_null12runtime_impl17h6937afe8db8bd80cE"(ptr %0) #8, !dbg !2342
  ret i1 %1, !dbg !2343
}

; core::ptr::drop_in_place<&mut x86_64::structures::paging::page_table::PageTable>
; Function Attrs: inlinehint noredzone nounwind
define internal void @"_ZN4core3ptr82drop_in_place$LT$$RF$mut$u20$x86_64..structures..paging..page_table..PageTable$GT$17h6721da0805d3e66cE"(ptr %_1) unnamed_addr #0 !dbg !2344 {
start:
  %_1.dbg.spill = alloca ptr, align 8
  store ptr %_1, ptr %_1.dbg.spill, align 8
  call void @llvm.dbg.declare(metadata ptr %_1.dbg.spill, metadata !2349, metadata !DIExpression()), !dbg !2350
  ret void, !dbg !2350
}

; core::ptr::drop_in_place<&&mut x86_64::structures::paging::page_table::PageTable>
; Function Attrs: inlinehint noredzone nounwind
define internal void @"_ZN4core3ptr86drop_in_place$LT$$RF$$RF$mut$u20$x86_64..structures..paging..page_table..PageTable$GT$17h681fdf3a9e2516b0E"(ptr %_1) unnamed_addr #0 !dbg !2351 {
start:
  %_1.dbg.spill = alloca ptr, align 8
  store ptr %_1, ptr %_1.dbg.spill, align 8
  call void @llvm.dbg.declare(metadata ptr %_1.dbg.spill, metadata !2356, metadata !DIExpression()), !dbg !2359
  ret void, !dbg !2359
}

; core::ptr::metadata::from_raw_parts
; Function Attrs: inlinehint noredzone nounwind
define ptr @_ZN4core3ptr8metadata14from_raw_parts17h0cf56f19d807a86eE(ptr %data_address) unnamed_addr #0 !dbg !2360 {
start:
  %metadata.dbg.spill = alloca {}, align 1
  %data_address.dbg.spill = alloca ptr, align 8
  %_4 = alloca %"core::ptr::metadata::PtrComponents<u64>", align 8
  %_3 = alloca %"core::ptr::metadata::PtrRepr<u64>", align 8
  store ptr %data_address, ptr %data_address.dbg.spill, align 8
  call void @llvm.dbg.declare(metadata ptr %data_address.dbg.spill, metadata !2366, metadata !DIExpression()), !dbg !2368
  call void @llvm.dbg.declare(metadata ptr %metadata.dbg.spill, metadata !2367, metadata !DIExpression()), !dbg !2369
  store ptr %data_address, ptr %_4, align 8, !dbg !2370
  call void @llvm.memcpy.p0.p0.i64(ptr align 8 %_3, ptr align 8 %_4, i64 8, i1 false), !dbg !2371
  %0 = load ptr, ptr %_3, align 8, !dbg !2371, !noundef !25
  ret ptr %0, !dbg !2372
}

; core::ptr::metadata::from_raw_parts
; Function Attrs: inlinehint noredzone nounwind
define ptr @_ZN4core3ptr8metadata14from_raw_parts17h1ff57bb4eed98618E(ptr %data_address) unnamed_addr #0 !dbg !2373 {
start:
  %metadata.dbg.spill = alloca {}, align 1
  %data_address.dbg.spill = alloca ptr, align 8
  %_4 = alloca %"core::ptr::metadata::PtrComponents<structures::paging::page_table::PageTableEntry>", align 8
  %_3 = alloca %"core::ptr::metadata::PtrRepr<structures::paging::page_table::PageTableEntry>", align 8
  store ptr %data_address, ptr %data_address.dbg.spill, align 8
  call void @llvm.dbg.declare(metadata ptr %data_address.dbg.spill, metadata !2377, metadata !DIExpression()), !dbg !2379
  call void @llvm.dbg.declare(metadata ptr %metadata.dbg.spill, metadata !2378, metadata !DIExpression()), !dbg !2380
  store ptr %data_address, ptr %_4, align 8, !dbg !2381
  call void @llvm.memcpy.p0.p0.i64(ptr align 8 %_3, ptr align 8 %_4, i64 8, i1 false), !dbg !2382
  %0 = load ptr, ptr %_3, align 8, !dbg !2382, !noundef !25
  ret ptr %0, !dbg !2383
}

; core::ptr::metadata::from_raw_parts
; Function Attrs: inlinehint noredzone nounwind
define ptr @_ZN4core3ptr8metadata14from_raw_parts17h79d93be3287a25f7E(ptr %data_address) unnamed_addr #0 !dbg !2384 {
start:
  %metadata.dbg.spill = alloca {}, align 1
  %data_address.dbg.spill = alloca ptr, align 8
  %_4 = alloca %"core::ptr::metadata::PtrComponents<addr::VirtAddr>", align 8
  %_3 = alloca %"core::ptr::metadata::PtrRepr<addr::VirtAddr>", align 8
  store ptr %data_address, ptr %data_address.dbg.spill, align 8
  call void @llvm.dbg.declare(metadata ptr %data_address.dbg.spill, metadata !2388, metadata !DIExpression()), !dbg !2390
  call void @llvm.dbg.declare(metadata ptr %metadata.dbg.spill, metadata !2389, metadata !DIExpression()), !dbg !2391
  store ptr %data_address, ptr %_4, align 8, !dbg !2392
  call void @llvm.memcpy.p0.p0.i64(ptr align 8 %_3, ptr align 8 %_4, i64 8, i1 false), !dbg !2393
  %0 = load ptr, ptr %_3, align 8, !dbg !2393, !noundef !25
  ret ptr %0, !dbg !2394
}

; core::ptr::metadata::from_raw_parts
; Function Attrs: inlinehint noredzone nounwind
define ptr @_ZN4core3ptr8metadata14from_raw_parts17hb201f24527c65e89E(ptr %data_address) unnamed_addr #0 !dbg !2395 {
start:
  %metadata.dbg.spill = alloca {}, align 1
  %data_address.dbg.spill = alloca ptr, align 8
  %_4 = alloca %"core::ptr::metadata::PtrComponents<structures::idt::Entry<extern \22x86-interrupt\22 fn(structures::idt::InterruptStackFrame)>>", align 8
  %_3 = alloca %"core::ptr::metadata::PtrRepr<structures::idt::Entry<extern \22x86-interrupt\22 fn(structures::idt::InterruptStackFrame)>>", align 8
  store ptr %data_address, ptr %data_address.dbg.spill, align 8
  call void @llvm.dbg.declare(metadata ptr %data_address.dbg.spill, metadata !2399, metadata !DIExpression()), !dbg !2401
  call void @llvm.dbg.declare(metadata ptr %metadata.dbg.spill, metadata !2400, metadata !DIExpression()), !dbg !2402
  store ptr %data_address, ptr %_4, align 8, !dbg !2403
  call void @llvm.memcpy.p0.p0.i64(ptr align 8 %_3, ptr align 8 %_4, i64 8, i1 false), !dbg !2404
  %0 = load ptr, ptr %_3, align 8, !dbg !2404, !noundef !25
  ret ptr %0, !dbg !2405
}

; core::ptr::metadata::metadata
; Function Attrs: inlinehint noredzone nounwind
define void @_ZN4core3ptr8metadata8metadata17h3b0d93444b25d986E(ptr %ptr) unnamed_addr #0 !dbg !2406 {
start:
  %ptr.dbg.spill = alloca ptr, align 8
  %_2 = alloca %"core::ptr::metadata::PtrRepr<addr::VirtAddr>", align 8
  store ptr %ptr, ptr %ptr.dbg.spill, align 8
  call void @llvm.dbg.declare(metadata ptr %ptr.dbg.spill, metadata !2410, metadata !DIExpression()), !dbg !2411
  store ptr %ptr, ptr %_2, align 8, !dbg !2412
  ret void, !dbg !2413
}

; core::ptr::metadata::metadata
; Function Attrs: inlinehint noredzone nounwind
define void @_ZN4core3ptr8metadata8metadata17h743fcb83d5522d93E(ptr %ptr) unnamed_addr #0 !dbg !2414 {
start:
  %ptr.dbg.spill = alloca ptr, align 8
  %_2 = alloca %"core::ptr::metadata::PtrRepr<structures::paging::page_table::PageTableEntry>", align 8
  store ptr %ptr, ptr %ptr.dbg.spill, align 8
  call void @llvm.dbg.declare(metadata ptr %ptr.dbg.spill, metadata !2418, metadata !DIExpression()), !dbg !2419
  store ptr %ptr, ptr %_2, align 8, !dbg !2420
  ret void, !dbg !2421
}

; core::ptr::metadata::metadata
; Function Attrs: inlinehint noredzone nounwind
define void @_ZN4core3ptr8metadata8metadata17hc9958bd0e4ffcf5cE(ptr %ptr) unnamed_addr #0 !dbg !2422 {
start:
  %ptr.dbg.spill = alloca ptr, align 8
  %_2 = alloca %"core::ptr::metadata::PtrRepr<structures::idt::Entry<extern \22x86-interrupt\22 fn(structures::idt::InterruptStackFrame)>>", align 8
  store ptr %ptr, ptr %ptr.dbg.spill, align 8
  call void @llvm.dbg.declare(metadata ptr %ptr.dbg.spill, metadata !2426, metadata !DIExpression()), !dbg !2427
  store ptr %ptr, ptr %_2, align 8, !dbg !2428
  ret void, !dbg !2429
}

; core::ptr::metadata::metadata
; Function Attrs: inlinehint noredzone nounwind
define void @_ZN4core3ptr8metadata8metadata17hf0c5166809e4a17bE(ptr %ptr) unnamed_addr #0 !dbg !2430 {
start:
  %ptr.dbg.spill = alloca ptr, align 8
  %_2 = alloca %"core::ptr::metadata::PtrRepr<u64>", align 8
  store ptr %ptr, ptr %ptr.dbg.spill, align 8
  call void @llvm.dbg.declare(metadata ptr %ptr.dbg.spill, metadata !2434, metadata !DIExpression()), !dbg !2435
  store ptr %ptr, ptr %_2, align 8, !dbg !2436
  ret void, !dbg !2437
}

; core::ptr::non_null::NonNull<T>::new_unchecked
; Function Attrs: inlinehint noredzone nounwind
define ptr @"_ZN4core3ptr8non_null16NonNull$LT$T$GT$13new_unchecked17hab1f25dc722ddcd5E"(ptr %ptr) unnamed_addr #0 !dbg !2438 {
start:
  %ptr.dbg.spill.i = alloca ptr, align 8
  %ptr.dbg.spill = alloca ptr, align 8
  %_3 = alloca ptr, align 8
