; ModuleID = 'x86_64.4333146a342224ae-cgu.0'
source_filename = "x86_64.4333146a342224ae-cgu.0"
target datalayout = "e-m:e-i64:64-f80:128-n8:16:32:64-S128"
target triple = "x86_64-obuasi-unknown-none"

%"core::result::Result<(structures::paging::frame::PhysFrame<structures::paging::page::Size1GiB>, structures::paging::mapper::MapperFlush<structures::paging::page::Size1GiB>), structures::paging::mapper::UnmapError>" = type { i64, [2 x i64] }
%"core::result::Result<(structures::paging::frame::PhysFrame<structures::paging::page::Size1GiB>, structures::paging::mapper::MapperFlush<structures::paging::page::Size1GiB>), structures::paging::mapper::UnmapError>::Err" = type { [1 x i64], { i64, i64 } }
%"core::result::Result<(structures::paging::frame::PhysFrame<structures::paging::page::Size2MiB>, structures::paging::mapper::MapperFlush<structures::paging::page::Size2MiB>), structures::paging::mapper::UnmapError>" = type { i64, [2 x i64] }
%"core::result::Result<(structures::paging::frame::PhysFrame<structures::paging::page::Size2MiB>, structures::paging::mapper::MapperFlush<structures::paging::page::Size2MiB>), structures::paging::mapper::UnmapError>::Err" = type { [1 x i64], { i64, i64 } }
%"core::result::Result<(structures::paging::frame::PhysFrame, structures::paging::mapper::MapperFlush<structures::paging::page::Size4KiB>), structures::paging::mapper::UnmapError>" = type { i64, [2 x i64] }
%"core::result::Result<(structures::paging::frame::PhysFrame, structures::paging::mapper::MapperFlush<structures::paging::page::Size4KiB>), structures::paging::mapper::UnmapError>::Err" = type { [1 x i64], { i64, i64 } }
%"core::fmt::Arguments<'_>" = type { { ptr, i64 }, { ptr, i64 }, { ptr, i64 } }
%"core::fmt::rt::UnsafeArg" = type { {} }
%"core::result::Result<structures::paging::frame::PhysFrame<structures::paging::page::Size2MiB>, structures::paging::mapper::UnmapError>" = type { i64, [1 x i64] }
%"structures::paging::page::AddressNotAligned" = type {}
%"structures::paging::frame::PhysFrame<structures::paging::page::Size2MiB>" = type { i64, %"core::marker::PhantomData<structures::paging::page::Size2MiB>" }
%"core::marker::PhantomData<structures::paging::page::Size2MiB>" = type {}
%"core::result::Result<structures::paging::frame::PhysFrame<structures::paging::page::Size2MiB>, structures::paging::page::AddressNotAligned>::Ok" = type { [1 x i64], %"structures::paging::frame::PhysFrame<structures::paging::page::Size2MiB>" }
%"core::result::Result<structures::paging::frame::PhysFrame<structures::paging::page::Size2MiB>, structures::paging::mapper::UnmapError>::Ok" = type { [1 x i64], %"structures::paging::frame::PhysFrame<structures::paging::page::Size2MiB>" }
%"core::result::Result<structures::paging::frame::PhysFrame, structures::paging::mapper::TranslateError>" = type { i64, [1 x i64] }
%"structures::paging::frame::PhysFrame" = type { i64, %"core::marker::PhantomData<structures::paging::page::Size4KiB>" }
%"core::marker::PhantomData<structures::paging::page::Size4KiB>" = type {}
%"core::result::Result<structures::paging::frame::PhysFrame, structures::paging::page::AddressNotAligned>::Ok" = type { [1 x i64], %"structures::paging::frame::PhysFrame" }
%"core::result::Result<structures::paging::frame::PhysFrame, structures::paging::mapper::TranslateError>::Ok" = type { [1 x i64], %"structures::paging::frame::PhysFrame" }
%"core::result::Result<structures::paging::frame::PhysFrame, structures::paging::mapper::UnmapError>" = type { i64, [1 x i64] }
%"{closure@/Users/yaw/.cargo/registry/src/index.crates.io-6f17d22bba15001f/x86_64-0.14.10/src/structures/paging/mapper/recursive_page_table.rs:595:34: 595:39}" = type {}
%"core::result::Result<structures::paging::frame::PhysFrame, structures::paging::page_table::FrameError>::Ok" = type { [1 x i64], %"structures::paging::frame::PhysFrame" }
%"core::result::Result<structures::paging::frame::PhysFrame, structures::paging::mapper::UnmapError>::Ok" = type { [1 x i64], %"structures::paging::frame::PhysFrame" }
%"core::result::Result<structures::paging::frame::PhysFrame, structures::paging::page_table::FrameError>::Err" = type { [1 x i8], i8 }
%"core::result::Result<structures::paging::frame::PhysFrame<structures::paging::page::Size1GiB>, structures::paging::mapper::TranslateError>" = type { i64, [1 x i64] }
%"structures::paging::frame::PhysFrame<structures::paging::page::Size1GiB>" = type { i64, %"core::marker::PhantomData<structures::paging::page::Size1GiB>" }
%"core::marker::PhantomData<structures::paging::page::Size1GiB>" = type {}
%"core::result::Result<structures::paging::frame::PhysFrame<structures::paging::page::Size1GiB>, structures::paging::page::AddressNotAligned>::Ok" = type { [1 x i64], %"structures::paging::frame::PhysFrame<structures::paging::page::Size1GiB>" }
%"core::result::Result<structures::paging::frame::PhysFrame<structures::paging::page::Size1GiB>, structures::paging::mapper::TranslateError>::Ok" = type { [1 x i64], %"structures::paging::frame::PhysFrame<structures::paging::page::Size1GiB>" }
%"{closure@/Users/yaw/.cargo/registry/src/index.crates.io-6f17d22bba15001f/x86_64-0.14.10/src/structures/paging/mapper/recursive_page_table.rs:433:34: 433:39}" = type {}
%"{closure@/Users/yaw/.cargo/registry/src/index.crates.io-6f17d22bba15001f/x86_64-0.14.10/src/structures/paging/mapper/recursive_page_table.rs:610:46: 610:51}" = type {}
%"core::result::Result<structures::paging::frame::PhysFrame<structures::paging::page::Size2MiB>, structures::paging::mapper::TranslateError>" = type { i64, [1 x i64] }
%"core::result::Result<structures::paging::frame::PhysFrame<structures::paging::page::Size2MiB>, structures::paging::mapper::TranslateError>::Ok" = type { [1 x i64], %"structures::paging::frame::PhysFrame<structures::paging::page::Size2MiB>" }
%"{closure@/Users/yaw/.cargo/registry/src/index.crates.io-6f17d22bba15001f/x86_64-0.14.10/src/structures/paging/mapper/recursive_page_table.rs:602:34: 602:39}" = type {}
%"{closure@/Users/yaw/.cargo/registry/src/index.crates.io-6f17d22bba15001f/x86_64-0.14.10/src/structures/paging/mapper/recursive_page_table.rs:440:34: 440:39}" = type {}
%"core::result::Result<structures::paging::frame::PhysFrame<structures::paging::page::Size1GiB>, structures::paging::mapper::UnmapError>" = type { i64, [1 x i64] }
%"core::result::Result<structures::paging::frame::PhysFrame<structures::paging::page::Size1GiB>, structures::paging::mapper::UnmapError>::Ok" = type { [1 x i64], %"structures::paging::frame::PhysFrame<structures::paging::page::Size1GiB>" }
%"{closure@/Users/yaw/.cargo/registry/src/index.crates.io-6f17d22bba15001f/x86_64-0.14.10/src/structures/paging/mapper/recursive_page_table.rs:588:34: 588:39}" = type {}
%"{closure@/Users/yaw/.cargo/registry/src/index.crates.io-6f17d22bba15001f/x86_64-0.14.10/src/structures/paging/mapper/recursive_page_table.rs:314:34: 314:39}" = type {}
%"core::ops::control_flow::ControlFlow<core::result::Result<core::convert::Infallible, structures::paging::mapper::UnmapError>, structures::paging::frame::PhysFrame<structures::paging::page::Size1GiB>>" = type { i64, [1 x i64] }
%"core::ops::control_flow::ControlFlow<core::result::Result<core::convert::Infallible, structures::paging::mapper::UnmapError>, structures::paging::frame::PhysFrame<structures::paging::page::Size1GiB>>::Continue" = type { [1 x i64], %"structures::paging::frame::PhysFrame<structures::paging::page::Size1GiB>" }
%"core::ops::control_flow::ControlFlow<core::result::Result<core::convert::Infallible, structures::paging::mapper::UnmapError>, structures::paging::frame::PhysFrame>" = type { i64, [1 x i64] }
%"core::ops::control_flow::ControlFlow<core::result::Result<core::convert::Infallible, structures::paging::mapper::UnmapError>, structures::paging::frame::PhysFrame>::Continue" = type { [1 x i64], %"structures::paging::frame::PhysFrame" }
%"core::ops::control_flow::ControlFlow<core::result::Result<core::convert::Infallible, structures::paging::mapper::UnmapError>, structures::paging::frame::PhysFrame<structures::paging::page::Size2MiB>>" = type { i64, [1 x i64] }
%"core::ops::control_flow::ControlFlow<core::result::Result<core::convert::Infallible, structures::paging::mapper::UnmapError>, structures::paging::frame::PhysFrame<structures::paging::page::Size2MiB>>::Continue" = type { [1 x i64], %"structures::paging::frame::PhysFrame<structures::paging::page::Size2MiB>" }
%"core::option::Option<core::convert::Infallible>::None" = type {}
%"core::fmt::rt::Placeholder" = type { { i64, i64 }, { i64, i64 }, i64, i32, i32, i8, [7 x i8] }
%"core::fmt::builders::DebugTuple<'_, '_>" = type { i64, ptr, i8, i8, [6 x i8] }
%"core::result::Result<instructions::tlb::Pcid, &str>" = type { ptr, [1 x i64] }
%"core::result::Result<instructions::tlb::Pcid, &str>::Ok" = type { [4 x i16], i16 }
%"core::fmt::builders::DebugStruct<'_, '_>" = type { ptr, i8, i8, [6 x i8] }
%"structures::DescriptorTablePointer" = type <{ i16, i64 }>
%"structures::gdt::GlobalDescriptorTable" = type { [8 x i64], i64 }
%"structures::idt::InterruptStackFrameValue" = type { i64, i64, i64, i64, i64 }
%"core::result::Result<structures::paging::frame::PhysFrame, structures::paging::page::AddressNotAligned>" = type { i64, [1 x i64] }
%"core::result::Result<structures::paging::frame::PhysFrame<structures::paging::page::Size1GiB>, structures::paging::page::AddressNotAligned>" = type { i64, [1 x i64] }
%"core::result::Result<structures::paging::frame::PhysFrame<structures::paging::page::Size2MiB>, structures::paging::page::AddressNotAligned>" = type { i64, [1 x i64] }
%"structures::paging::page::Page<structures::paging::page::Size1GiB>" = type { i64, %"core::marker::PhantomData<structures::paging::page::Size1GiB>" }
%"structures::paging::mapper::MapperFlush<structures::paging::page::Size1GiB>" = type { %"structures::paging::page::Page<structures::paging::page::Size1GiB>" }
%"core::result::Result<structures::paging::frame::PhysFrame, structures::paging::page_table::FrameError>" = type { i8, [15 x i8] }
%"core::result::Result<(structures::paging::frame::PhysFrame<structures::paging::page::Size1GiB>, structures::paging::mapper::MapperFlush<structures::paging::page::Size1GiB>), structures::paging::mapper::UnmapError>::Ok" = type { [1 x i64], { %"structures::paging::frame::PhysFrame<structures::paging::page::Size1GiB>", %"structures::paging::mapper::MapperFlush<structures::paging::page::Size1GiB>" } }
%"core::result::Result<structures::paging::mapper::MapperFlush<structures::paging::page::Size1GiB>, structures::paging::mapper::FlagUpdateError>" = type { i8, [15 x i8] }
%"core::result::Result<structures::paging::mapper::MapperFlush<structures::paging::page::Size1GiB>, structures::paging::mapper::FlagUpdateError>::Err" = type { [1 x i8], i8 }
%"core::result::Result<structures::paging::mapper::MapperFlush<structures::paging::page::Size1GiB>, structures::paging::mapper::FlagUpdateError>::Ok" = type { [1 x i64], %"structures::paging::mapper::MapperFlush<structures::paging::page::Size1GiB>" }
%"structures::paging::page::Page<structures::paging::page::Size2MiB>" = type { i64, %"core::marker::PhantomData<structures::paging::page::Size2MiB>" }
%"structures::paging::mapper::MapperFlush<structures::paging::page::Size2MiB>" = type { %"structures::paging::page::Page<structures::paging::page::Size2MiB>" }
%"core::result::Result<(structures::paging::frame::PhysFrame<structures::paging::page::Size2MiB>, structures::paging::mapper::MapperFlush<structures::paging::page::Size2MiB>), structures::paging::mapper::UnmapError>::Ok" = type { [1 x i64], { %"structures::paging::frame::PhysFrame<structures::paging::page::Size2MiB>", %"structures::paging::mapper::MapperFlush<structures::paging::page::Size2MiB>" } }
%"core::result::Result<structures::paging::mapper::MapperFlush<structures::paging::page::Size2MiB>, structures::paging::mapper::FlagUpdateError>" = type { i8, [15 x i8] }
%"core::result::Result<structures::paging::mapper::MapperFlush<structures::paging::page::Size2MiB>, structures::paging::mapper::FlagUpdateError>::Err" = type { [1 x i8], i8 }
%"core::result::Result<structures::paging::mapper::MapperFlush<structures::paging::page::Size2MiB>, structures::paging::mapper::FlagUpdateError>::Ok" = type { [1 x i64], %"structures::paging::mapper::MapperFlush<structures::paging::page::Size2MiB>" }
%"structures::paging::page::Page" = type { i64, %"core::marker::PhantomData<structures::paging::page::Size4KiB>" }
%"structures::paging::mapper::MapperFlush<structures::paging::page::Size4KiB>" = type { %"structures::paging::page::Page" }
%"core::result::Result<(structures::paging::frame::PhysFrame, structures::paging::mapper::MapperFlush<structures::paging::page::Size4KiB>), structures::paging::mapper::UnmapError>::Ok" = type { [1 x i64], { %"structures::paging::frame::PhysFrame", %"structures::paging::mapper::MapperFlush<structures::paging::page::Size4KiB>" } }
%"core::result::Result<structures::paging::mapper::MapperFlush<structures::paging::page::Size4KiB>, structures::paging::mapper::FlagUpdateError>" = type { i8, [15 x i8] }
%"core::result::Result<structures::paging::mapper::MapperFlush<structures::paging::page::Size4KiB>, structures::paging::mapper::FlagUpdateError>::Err" = type { [1 x i8], i8 }
%"core::result::Result<structures::paging::mapper::MapperFlush<structures::paging::page::Size4KiB>, structures::paging::mapper::FlagUpdateError>::Ok" = type { [1 x i64], %"structures::paging::mapper::MapperFlush<structures::paging::page::Size4KiB>" }
%"structures::paging::mapper::TranslateResult" = type { i64, [3 x i64] }
%"structures::paging::mapper::MappedFrame" = type { i64, [1 x i64] }
%"structures::paging::mapper::MappedFrame::Size1GiB" = type { [1 x i64], %"structures::paging::frame::PhysFrame<structures::paging::page::Size1GiB>" }
%"structures::paging::mapper::TranslateResult::Mapped" = type { %"structures::paging::mapper::MappedFrame", i64, i64 }
%"structures::paging::mapper::MappedFrame::Size2MiB" = type { [1 x i64], %"structures::paging::frame::PhysFrame<structures::paging::page::Size2MiB>" }
%"structures::paging::mapper::MappedFrame::Size4KiB" = type { [1 x i64], %"structures::paging::frame::PhysFrame" }
%"structures::paging::mapper::TranslateResult::InvalidFrameAddress" = type { [1 x i64], i64 }
%"structures::paging::page_table::PageTable" = type { [512 x i64] }
%"core::result::Result<core::convert::Infallible, core::fmt::Error>::Err" = type { %"core::fmt::Error" }
%"core::fmt::Error" = type {}

@alloc_43d3c3e34f8fc6589b4da1b1abdd7b57 = private unnamed_addr constant <{ [48 x i8] }> <{ [48 x i8] c"assertion failed: range.start < Self::BIT_LENGTH" }>, align 1
@alloc_89294a974a2788f895cf677d5bd697c4 = private unnamed_addr constant <{ [91 x i8] }> <{ [91 x i8] c"/Users/yaw/.cargo/registry/src/index.crates.io-6f17d22bba15001f/bit_field-0.10.1/src/lib.rs" }>, align 1
@alloc_f4d2308b1a4d364a80c06ffe6643cbed = private unnamed_addr constant <{ ptr, [16 x i8] }> <{ ptr @alloc_89294a974a2788f895cf677d5bd697c4, [16 x i8] c"[\00\00\00\00\00\00\00\11\01\00\00\01\00\00\00" }>, align 8
@alloc_d3619c0864e1cd3a4478ebd6749a56b0 = private unnamed_addr constant <{ [47 x i8] }> <{ [47 x i8] c"assertion failed: range.end <= Self::BIT_LENGTH" }>, align 1
@alloc_fa3040d11952b12d3c67c30be76bc6a8 = private unnamed_addr constant <{ [41 x i8] }> <{ [41 x i8] c"assertion failed: range.start < range.end" }>, align 1
@str.0 = internal unnamed_addr constant [33 x i8] c"attempt to subtract with overflow"
@str.1 = internal unnamed_addr constant [35 x i8] c"attempt to shift left with overflow"
@str.2 = internal unnamed_addr constant [36 x i8] c"attempt to shift right with overflow"
@alloc_6923360c3161738641b3989c6181ce08 = private unnamed_addr constant <{ [40 x i8] }> <{ [40 x i8] c"assertion failed: bit < Self::BIT_LENGTH" }>, align 1
@alloc_8500726b2f23ea792acf9a1d33d50d56 = private unnamed_addr constant <{ [33 x i8] }> <{ [33 x i8] c"value does not fit into bit range" }>, align 1
@alloc_c2ea93c90919bb7b1e482f917e413fa1 = private unnamed_addr constant <{ [107 x i8] }> <{ [107 x i8] c"/Users/yaw/.rustup/toolchains/nightly-aarch64-apple-darwin/lib/rustlib/src/rust/library/core/src/fmt/mod.rs" }>, align 1
@alloc_1d488b18c5f7c1d3858ca9f0071c91c8 = private unnamed_addr constant <{ ptr, [16 x i8] }> <{ ptr @alloc_c2ea93c90919bb7b1e482f917e413fa1, [16 x i8] c"k\00\00\00\00\00\00\00L\01\00\008\00\00\00" }>, align 8
@str.3 = internal unnamed_addr constant [28 x i8] c"attempt to add with overflow"
@alloc_91c7fa63c3cfeaa3c795652d5cf060e4 = private unnamed_addr constant <{ [12 x i8] }> <{ [12 x i8] c"invalid args" }>, align 1
@alloc_af99043bc04c419363a7f04d23183506 = private unnamed_addr constant <{ ptr, [8 x i8] }> <{ ptr @alloc_91c7fa63c3cfeaa3c795652d5cf060e4, [8 x i8] c"\0C\00\00\00\00\00\00\00" }>, align 8
@alloc_a128bb0331e9cbfe13a5df140fd20243 = private unnamed_addr constant <{ ptr, [16 x i8] }> <{ ptr @alloc_c2ea93c90919bb7b1e482f917e413fa1, [16 x i8] c"k\00\00\00\00\00\00\00M\01\00\00\0D\00\00\00" }>, align 8
@alloc_513570631223a12912d85da2bec3b15a = private unnamed_addr constant <{}> zeroinitializer, align 8
@alloc_40dc4a2e4fa36320ad05a7f7aeedf921 = private unnamed_addr constant <{ ptr, [16 x i8] }> <{ ptr @alloc_c2ea93c90919bb7b1e482f917e413fa1, [16 x i8] c"k\00\00\00\00\00\00\00C\01\00\00\0D\00\00\00" }>, align 8
@alloc_5f55955de67e57c79064b537689facea = private unnamed_addr constant <{ [43 x i8] }> <{ [43 x i8] c"called `Option::unwrap()` on a `None` value" }>, align 1
@vtable.4 = private constant <{ ptr, [16 x i8], ptr }> <{ ptr @"_ZN4core3ptr51drop_in_place$LT$x86_64..addr..VirtAddrNotValid$GT$17h45a1e5a1d4ce5acaE", [16 x i8] c"\08\00\00\00\00\00\00\00\08\00\00\00\00\00\00\00", ptr @"_ZN67_$LT$x86_64..addr..VirtAddrNotValid$u20$as$u20$core..fmt..Debug$GT$3fmt17h5e95f301f6876345E" }>, align 8, !dbg !0
@alloc_57da457cb4ea62e5ea28ca105f4178dd = private unnamed_addr constant <{ ptr, [16 x i8] }> <{ ptr @alloc_89294a974a2788f895cf677d5bd697c4, [16 x i8] c"[\00\00\00\00\00\00\00c\01\00\00$\00\00\00" }>, align 8
@alloc_5df12ee9d1f357a5969b7af7ad53ad5b = private unnamed_addr constant <{ ptr, [16 x i8] }> <{ ptr @alloc_89294a974a2788f895cf677d5bd697c4, [16 x i8] c"[\00\00\00\00\00\00\00i\01\00\00$\00\00\00" }>, align 8
@alloc_dc945488582c36a112c04f49aea120e4 = private unnamed_addr constant <{ [16 x i8] }> <{ [16 x i8] c"VirtAddrNotValid" }>, align 1
@alloc_b99730e73100e73a81f4fbfe74b3821d = private unnamed_addr constant <{ ptr, [8 x i8] }> <{ ptr @alloc_513570631223a12912d85da2bec3b15a, [8 x i8] zeroinitializer }>, align 8
@vtable.5 = private constant <{ ptr, [16 x i8], ptr }> <{ ptr @"_ZN4core3ptr41drop_in_place$LT$core..fmt..Arguments$GT$17h6b3dc4f1cbe0895eE", [16 x i8] c"0\00\00\00\00\00\00\00\08\00\00\00\00\00\00\00", ptr @"_ZN57_$LT$core..fmt..Arguments$u20$as$u20$core..fmt..Debug$GT$3fmt17h7b471c336c5283ebE" }>, align 8, !dbg !19
@alloc_3b30f3c2fe1935017d2714aa9952ea95 = private unnamed_addr constant <{ [74 x i8] }> <{ [74 x i8] c"address passed to VirtAddr::new must not contain any data in bits 48 to 64" }>, align 1
@alloc_25db54aacf10f85b32a6b265696ce69a = private unnamed_addr constant <{ [90 x i8] }> <{ [90 x i8] c"/Users/yaw/.cargo/registry/src/index.crates.io-6f17d22bba15001f/x86_64-0.14.10/src/addr.rs" }>, align 1
@alloc_0d1a04bfc07f4521465dd99c6362240a = private unnamed_addr constant <{ ptr, [16 x i8] }> <{ ptr @alloc_25db54aacf10f85b32a6b265696ce69a, [16 x i8] c"Z\00\00\00\00\00\00\00H\00\00\00\1D\00\00\00" }>, align 8
@alloc_267cc841a759909b7b242b44dbf10212 = private unnamed_addr constant <{ [8 x i8] }> <{ [8 x i8] c"VirtAddr" }>, align 1
@alloc_944eeb69d0ffa7d8812bf7bff1ac43a1 = private unnamed_addr constant <{ ptr, [16 x i8] }> <{ ptr @alloc_25db54aacf10f85b32a6b265696ce69a, [16 x i8] c"Z\00\00\00\00\00\00\00\16\01\00\00\17\00\00\00" }>, align 8
@alloc_cde2f5a520c64992942aebe2db51d857 = private unnamed_addr constant <{ ptr, [16 x i8] }> <{ ptr @alloc_25db54aacf10f85b32a6b265696ce69a, [16 x i8] c"Z\00\00\00\00\00\00\00a\01\00\00>\00\00\00" }>, align 8
@alloc_51f6f672d92676f883a0556ba9651a0b = private unnamed_addr constant <{ [16 x i8] }> <{ [16 x i8] c"PhysAddrNotValid" }>, align 1
@alloc_4c32dd8753956934854651344030b372 = private unnamed_addr constant <{ [67 x i8] }> <{ [67 x i8] c"physical addresses must not have any bits in the range 52 to 64 set" }>, align 1
@alloc_a7a2b7413442fce9f85d6ccfa11c3e6c = private unnamed_addr constant <{ ptr, [16 x i8] }> <{ ptr @alloc_25db54aacf10f85b32a6b265696ce69a, [16 x i8] c"Z\00\00\00\00\00\00\00\B0\01\00\00\17\00\00\00" }>, align 8
@alloc_0b79a4417984a643d0aaf7a6d6a8e288 = private unnamed_addr constant <{ [8 x i8] }> <{ [8 x i8] c"PhysAddr" }>, align 1
@alloc_1dd227ab452b26fb141a985f487cd916 = private unnamed_addr constant <{ [30 x i8] }> <{ [30 x i8] c"`align` must be a power of two" }>, align 1
@alloc_6c3c42021e7756f5861e6591db943580 = private unnamed_addr constant <{ ptr, [16 x i8] }> <{ ptr @alloc_25db54aacf10f85b32a6b265696ce69a, [16 x i8] c"Z\00\00\00\00\00\00\00\82\02\00\00\05\00\00\00" }>, align 8
@alloc_31b064eb4625d2ea0d173dfc0e5c6251 = private unnamed_addr constant <{ ptr, [16 x i8] }> <{ ptr @alloc_25db54aacf10f85b32a6b265696ce69a, [16 x i8] c"Z\00\00\00\00\00\00\00\83\02\00\00\0D\00\00\00" }>, align 8
@alloc_7254953a5374c7a7a7fc525c828c4afa = private unnamed_addr constant <{ [22 x i8] }> <{ [22 x i8] c"PCID should be < 4096." }>, align 1
@alloc_6cdbc67d2a58211cc5e3f5bce2ee098c = private unnamed_addr constant <{ [101 x i8] }> <{ [101 x i8] c"/Users/yaw/.cargo/registry/src/index.crates.io-6f17d22bba15001f/x86_64-0.14.10/src/registers/debug.rs" }>, align 1
@alloc_fd892b713335a11b6e50d41506aef78b = private unnamed_addr constant <{ ptr, [16 x i8] }> <{ ptr @alloc_6cdbc67d2a58211cc5e3f5bce2ee098c, [16 x i8] c"e\00\00\00\00\00\00\00\09\01\00\00\19\00\00\00" }>, align 8
@str.6 = internal unnamed_addr constant [33 x i8] c"attempt to multiply with overflow"
@alloc_d7e1297ed419dadf31c97c98347b60a9 = private unnamed_addr constant <{ ptr, [16 x i8] }> <{ ptr @alloc_6cdbc67d2a58211cc5e3f5bce2ee098c, [16 x i8] c"e\00\00\00\00\00\00\00\09\01\00\00\13\00\00\00" }>, align 8
@alloc_c29077eb886a715156b950584731af34 = private unnamed_addr constant <{ ptr, [16 x i8] }> <{ ptr @alloc_6cdbc67d2a58211cc5e3f5bce2ee098c, [16 x i8] c"e\00\00\00\00\00\00\00\0A\01\00\00\0E\00\00\00" }>, align 8
@alloc_fc06f75d869c0562fc1269cc0d5aa7dc = private unnamed_addr constant <{ ptr, [16 x i8] }> <{ ptr @alloc_6cdbc67d2a58211cc5e3f5bce2ee098c, [16 x i8] c"e\00\00\00\00\00\00\007\01\00\00\19\00\00\00" }>, align 8
@alloc_33aacd96b15acbfdbca2601f0d702e05 = private unnamed_addr constant <{ ptr, [16 x i8] }> <{ ptr @alloc_6cdbc67d2a58211cc5e3f5bce2ee098c, [16 x i8] c"e\00\00\00\00\00\00\007\01\00\00\13\00\00\00" }>, align 8
@alloc_b960c65de708d45193bbbcbacfc0ab36 = private unnamed_addr constant <{ ptr, [16 x i8] }> <{ ptr @alloc_6cdbc67d2a58211cc5e3f5bce2ee098c, [16 x i8] c"e\00\00\00\00\00\00\008\01\00\00\0E\00\00\00" }>, align 8
@alloc_f6e17cc11903d760053855980425f176 = private unnamed_addr constant <{ [32 x i8] }> <{ [32 x i8] c"condition should be always valid" }>, align 1
@alloc_61909a79186920b0572050d46536b500 = private unnamed_addr constant <{ ptr, [16 x i8] }> <{ ptr @alloc_6cdbc67d2a58211cc5e3f5bce2ee098c, [16 x i8] c"e\00\00\00\00\00\00\00\99\01\00\003\00\00\00" }>, align 8
@alloc_d6c4f26a57c04ff64f073816cafe8df5 = private unnamed_addr constant <{ ptr, [16 x i8] }> <{ ptr @alloc_6cdbc67d2a58211cc5e3f5bce2ee098c, [16 x i8] c"e\00\00\00\00\00\00\00\A5\01\00\00)\00\00\00" }>, align 8
@alloc_68b53946c4c55386499e149134f17041 = private unnamed_addr constant <{ [15 x i8] }> <{ [15 x i8] c"SegmentSelector" }>, align 1
@alloc_ce52de59c922b8759e2388a62b9c641f = private unnamed_addr constant <{ [5 x i8] }> <{ [5 x i8] c"index" }>, align 1
@vtable.7 = private constant <{ ptr, [16 x i8], ptr }> <{ ptr @"_ZN4core3ptr24drop_in_place$LT$u16$GT$17h1bb4bcff8d7ad1c2E", [16 x i8] c"\02\00\00\00\00\00\00\00\02\00\00\00\00\00\00\00", ptr @"_ZN4core3fmt3num50_$LT$impl$u20$core..fmt..Debug$u20$for$u20$u16$GT$3fmt17h63eb0c0692067a7bE" }>, align 8, !dbg !161
@alloc_e86631b0558238251612cc9fea7a4632 = private unnamed_addr constant <{ [3 x i8] }> <{ [3 x i8] c"rpl" }>, align 1
@vtable.8 = private constant <{ ptr, [16 x i8], ptr }> <{ ptr @"_ZN4core3ptr43drop_in_place$LT$x86_64..PrivilegeLevel$GT$17hc2f1e637251fbd96E", [16 x i8] c"\01\00\00\00\00\00\00\00\01\00\00\00\00\00\00\00", ptr @"_ZN59_$LT$x86_64..PrivilegeLevel$u20$as$u20$core..fmt..Debug$GT$3fmt17hfdcac3f0bc46b0eeE" }>, align 8, !dbg !170
@alloc_3b64751e5ad482a062ea0dcea91079df = private unnamed_addr constant <{ [100 x i8] }> <{ [100 x i8] c"/Users/yaw/.cargo/registry/src/index.crates.io-6f17d22bba15001f/x86_64-0.14.10/src/structures/gdt.rs" }>, align 1
@alloc_c8c57a72b80802bef58088d69fac92f9 = private unnamed_addr constant <{ ptr, [16 x i8] }> <{ ptr @alloc_3b64751e5ad482a062ea0dcea91079df, [16 x i8] c"d\00\00\00\00\00\00\00\B5\00\00\00\15\00\00\00" }>, align 8
@alloc_c17eb582e89018e1f695609040712501 = private unnamed_addr constant <{ ptr, [16 x i8] }> <{ ptr @alloc_3b64751e5ad482a062ea0dcea91079df, [16 x i8] c"d\00\00\00\00\00\00\00\B5\00\00\00\14\00\00\00" }>, align 8
@alloc_96fe64cab8dd4680071ecfdb397425fd = private unnamed_addr constant <{ [100 x i8] }> <{ [100 x i8] c"/Users/yaw/.cargo/registry/src/index.crates.io-6f17d22bba15001f/x86_64-0.14.10/src/structures/idt.rs" }>, align 1
@alloc_0e72a2b8a97f3020caa2c44104bf74e9 = private unnamed_addr constant <{ ptr, [16 x i8] }> <{ ptr @alloc_96fe64cab8dd4680071ecfdb397425fd, [16 x i8] c"d\00\00\00\00\00\00\00\E6\01\00\00\14\00\00\00" }>, align 8
@alloc_e4f31a51fd47bc2f17c44c45ea3d42a8 = private unnamed_addr constant <{ [12 x i8] }> <{ [12 x i8] c"EntryOptions" }>, align 1
@alloc_e71a923bae6df041e4ac800a90cb99ae = private unnamed_addr constant <{ [19 x i8] }> <{ [19 x i8] c"InterruptStackFrame" }>, align 1
@alloc_0108bad256caff3a6d09567ec08a0c56 = private unnamed_addr constant <{ [19 x i8] }> <{ [19 x i8] c"instruction_pointer" }>, align 1
@vtable.9 = private constant <{ ptr, [16 x i8], ptr }> <{ ptr @"_ZN4core3ptr43drop_in_place$LT$x86_64..addr..VirtAddr$GT$17h0f6f5b9121271eacE", [16 x i8] c"\08\00\00\00\00\00\00\00\08\00\00\00\00\00\00\00", ptr @"_ZN59_$LT$x86_64..addr..VirtAddr$u20$as$u20$core..fmt..Debug$GT$3fmt17hf4fe97fe600d7a9dE" }>, align 8, !dbg !184
@alloc_02bbc211fe818b05a25d8f6c720e2768 = private unnamed_addr constant <{ [12 x i8] }> <{ [12 x i8] c"code_segment" }>, align 1
@vtable.a = private constant <{ ptr, [16 x i8], ptr }> <{ ptr @"_ZN4core3ptr24drop_in_place$LT$u64$GT$17hc3b48bf1e434f2e0E", [16 x i8] c"\08\00\00\00\00\00\00\00\08\00\00\00\00\00\00\00", ptr @"_ZN4core3fmt3num50_$LT$impl$u20$core..fmt..Debug$u20$for$u20$u64$GT$3fmt17h5475832f1374dde5E" }>, align 8, !dbg !195
@alloc_2f98d55e1b5aebe56034024a66fad658 = private unnamed_addr constant <{ [9 x i8] }> <{ [9 x i8] c"cpu_flags" }>, align 1
@vtable.b = private constant <{ ptr, [16 x i8], ptr }> <{ ptr @"_ZN4core3ptr116drop_in_place$LT$$LT$x86_64..structures..idt..InterruptStackFrameValue$u20$as$u20$core..fmt..Debug$GT$..fmt..Hex$GT$17h6391e29fd82d5b32E", [16 x i8] c"\08\00\00\00\00\00\00\00\08\00\00\00\00\00\00\00", ptr @"_ZN132_$LT$$LT$x86_64..structures..idt..InterruptStackFrameValue$u20$as$u20$core..fmt..Debug$GT$..fmt..Hex$u20$as$u20$core..fmt..Debug$GT$3fmt17hf20057f4c22a7db2E" }>, align 8, !dbg !203
@alloc_9cbc566b638aecc8681b4c3c80402332 = private unnamed_addr constant <{ [13 x i8] }> <{ [13 x i8] c"stack_pointer" }>, align 1
@alloc_de03fddf23205a05ee3f3983d6bd1aa4 = private unnamed_addr constant <{ [13 x i8] }> <{ [13 x i8] c"stack_segment" }>, align 1
@alloc_a500d906b91607583596fa15e63c2ada = private unnamed_addr constant <{ [40 x i8] }> <{ [40 x i8] c"internal error: entered unreachable code" }>, align 1
@alloc_4afc87a7d46a6527680a1fc34f2f7550 = private unnamed_addr constant <{ ptr, [16 x i8] }> <{ ptr @alloc_96fe64cab8dd4680071ecfdb397425fd, [16 x i8] c"d\00\00\00\00\00\00\00\F6\03\00\00\12\00\00\00" }>, align 8
@alloc_a6367da77e994b4ff0ea0619c8436d5c = private unnamed_addr constant <{ [14 x i8] }> <{ [14 x i8] c"Selector Error" }>, align 1
@alloc_2fe3f31e15728c16b767e62bf0bf59e0 = private unnamed_addr constant <{ [8 x i8] }> <{ [8 x i8] c"external" }>, align 1
@vtable.c = private constant <{ ptr, [16 x i8], ptr }> <{ ptr @"_ZN4core3ptr25drop_in_place$LT$bool$GT$17h61c224afb6dd3295E", [16 x i8] c"\01\00\00\00\00\00\00\00\01\00\00\00\00\00\00\00", ptr @"_ZN41_$LT$bool$u20$as$u20$core..fmt..Debug$GT$3fmt17h6bd201ce000b0294E" }>, align 8, !dbg !218
@alloc_dbb756e1649e203c973403d51947dc78 = private unnamed_addr constant <{ [16 x i8] }> <{ [16 x i8] c"descriptor table" }>, align 1
@vtable.d = private constant <{ ptr, [16 x i8], ptr }> <{ ptr @"_ZN4core3ptr61drop_in_place$LT$x86_64..structures..idt..DescriptorTable$GT$17h553bd50b32ab73edE", [16 x i8] c"\01\00\00\00\00\00\00\00\01\00\00\00\00\00\00\00", ptr @"_ZN77_$LT$x86_64..structures..idt..DescriptorTable$u20$as$u20$core..fmt..Debug$GT$3fmt17hf82a64b4cdb88507E" }>, align 8, !dbg !227
@alloc_4577f7899c1c3432b3863ade3808e32a = private unnamed_addr constant <{ [131 x i8] }> <{ [131 x i8] c"/Users/yaw/.cargo/registry/src/index.crates.io-6f17d22bba15001f/x86_64-0.14.10/src/structures/paging/mapper/recursive_page_table.rs" }>, align 1
@alloc_d212c5e63660a9c817fcae3058fe326d = private unnamed_addr constant <{ ptr, [16 x i8] }> <{ ptr @alloc_4577f7899c1c3432b3863ade3808e32a, [16 x i8] c"\83\00\00\00\00\00\00\008\01\00\00\1B\00\00\00" }>, align 8
@alloc_b4058fac5c9db56540a3e7fb727f416c = private unnamed_addr constant <{ ptr, [16 x i8] }> <{ ptr @alloc_4577f7899c1c3432b3863ade3808e32a, [16 x i8] c"\83\00\00\00\00\00\00\00@\01\00\00\1F\00\00\00" }>, align 8
@alloc_351e913709d3351ee6c55e0c3692ea81 = private unnamed_addr constant <{ ptr, [16 x i8] }> <{ ptr @alloc_4577f7899c1c3432b3863ade3808e32a, [16 x i8] c"\83\00\00\00\00\00\00\00J\01\00\00\15\00\00\00" }>, align 8
@alloc_a27c8a69be49bed939643db15b08ce87 = private unnamed_addr constant <{ ptr, [16 x i8] }> <{ ptr @alloc_4577f7899c1c3432b3863ade3808e32a, [16 x i8] c"\83\00\00\00\00\00\00\00:\01\00\00\09\00\00\00" }>, align 8
@alloc_2daff477a424214b348eb52dd368e2f9 = private unnamed_addr constant <{ ptr, [16 x i8] }> <{ ptr @alloc_4577f7899c1c3432b3863ade3808e32a, [16 x i8] c"\83\00\00\00\00\00\00\00Y\01\00\00\0E\00\00\00" }>, align 8
@alloc_749e4c647f42b4e4c9caeb9228ea39f1 = private unnamed_addr constant <{ ptr, [16 x i8] }> <{ ptr @alloc_4577f7899c1c3432b3863ade3808e32a, [16 x i8] c"\83\00\00\00\00\00\00\00_\01\00\00\0E\00\00\00" }>, align 8
@alloc_4abb0640bb044f2ae6bf3d23ff922340 = private unnamed_addr constant <{ ptr, [16 x i8] }> <{ ptr @alloc_4577f7899c1c3432b3863ade3808e32a, [16 x i8] c"\83\00\00\00\00\00\00\00b\01\00\00\0B\00\00\00" }>, align 8
@alloc_a529830503df8bdd871f816d35ebbf0a = private unnamed_addr constant <{ ptr, [16 x i8] }> <{ ptr @alloc_4577f7899c1c3432b3863ade3808e32a, [16 x i8] c"\83\00\00\00\00\00\00\00m\01\00\00\1F\00\00\00" }>, align 8
@alloc_78ef90ead52971993be2c634e92c130d = private unnamed_addr constant <{ ptr, [16 x i8] }> <{ ptr @alloc_4577f7899c1c3432b3863ade3808e32a, [16 x i8] c"\83\00\00\00\00\00\00\00\8B\01\00\00\0E\00\00\00" }>, align 8
@alloc_1d678db852a24e4a28a359dcd13a346c = private unnamed_addr constant <{ ptr, [16 x i8] }> <{ ptr @alloc_4577f7899c1c3432b3863ade3808e32a, [16 x i8] c"\83\00\00\00\00\00\00\00\90\01\00\00\1B\00\00\00" }>, align 8
@alloc_5858925ca80483687e587fdbe3b236a8 = private unnamed_addr constant <{ ptr, [16 x i8] }> <{ ptr @alloc_4577f7899c1c3432b3863ade3808e32a, [16 x i8] c"\83\00\00\00\00\00\00\00\B0\01\00\00\1B\00\00\00" }>, align 8
@alloc_c0c3d6ec55cc2839c5c43036958bdc5b = private unnamed_addr constant <{ ptr, [16 x i8] }> <{ ptr @alloc_4577f7899c1c3432b3863ade3808e32a, [16 x i8] c"\83\00\00\00\00\00\00\00\B7\01\00\00\1B\00\00\00" }>, align 8
@alloc_df30a830b1b626f10927692d6f432866 = private unnamed_addr constant <{ ptr, [16 x i8] }> <{ ptr @alloc_4577f7899c1c3432b3863ade3808e32a, [16 x i8] c"\83\00\00\00\00\00\00\00\BE\01\00\00\1F\00\00\00" }>, align 8
@alloc_0268e1459e67d6fdab14b1361a077608 = private unnamed_addr constant <{ ptr, [16 x i8] }> <{ ptr @alloc_4577f7899c1c3432b3863ade3808e32a, [16 x i8] c"\83\00\00\00\00\00\00\00\C8\01\00\00\15\00\00\00" }>, align 8
@alloc_7f41484f25d3072fa45000093cca2751 = private unnamed_addr constant <{ ptr, [16 x i8] }> <{ ptr @alloc_4577f7899c1c3432b3863ade3808e32a, [16 x i8] c"\83\00\00\00\00\00\00\00\B8\01\00\00\09\00\00\00" }>, align 8
@alloc_5fb54047342839fbf7c30bc20f42cf3e = private unnamed_addr constant <{ ptr, [16 x i8] }> <{ ptr @alloc_4577f7899c1c3432b3863ade3808e32a, [16 x i8] c"\83\00\00\00\00\00\00\00\B1\01\00\00\09\00\00\00" }>, align 8
@alloc_8a4c5fbeaffbfc9e190e9de1caff61d8 = private unnamed_addr constant <{ ptr, [16 x i8] }> <{ ptr @alloc_4577f7899c1c3432b3863ade3808e32a, [16 x i8] c"\83\00\00\00\00\00\00\00\D7\01\00\00\0E\00\00\00" }>, align 8
@alloc_34850f4454c847a7bfd7f327d3440137 = private unnamed_addr constant <{ ptr, [16 x i8] }> <{ ptr @alloc_4577f7899c1c3432b3863ade3808e32a, [16 x i8] c"\83\00\00\00\00\00\00\00\DD\01\00\00\0E\00\00\00" }>, align 8
@alloc_09e8d681ef0dbc0deb302422983da676 = private unnamed_addr constant <{ ptr, [16 x i8] }> <{ ptr @alloc_4577f7899c1c3432b3863ade3808e32a, [16 x i8] c"\83\00\00\00\00\00\00\00\E3\01\00\00\0E\00\00\00" }>, align 8
@alloc_f89af889106094f3daf06d71c393c81a = private unnamed_addr constant <{ ptr, [16 x i8] }> <{ ptr @alloc_4577f7899c1c3432b3863ade3808e32a, [16 x i8] c"\83\00\00\00\00\00\00\00\E7\01\00\00\0B\00\00\00" }>, align 8
@alloc_b870f0317b322b3cf600f48a5a6eb536 = private unnamed_addr constant <{ ptr, [16 x i8] }> <{ ptr @alloc_4577f7899c1c3432b3863ade3808e32a, [16 x i8] c"\83\00\00\00\00\00\00\00\F2\01\00\00\1F\00\00\00" }>, align 8
@alloc_1d0ded73c2b9cacc0845d0305221527d = private unnamed_addr constant <{ ptr, [16 x i8] }> <{ ptr @alloc_4577f7899c1c3432b3863ade3808e32a, [16 x i8] c"\83\00\00\00\00\00\00\00\04\02\00\00\0E\00\00\00" }>, align 8
@alloc_2240abd0b94e06fca8cf19a62aedc943 = private unnamed_addr constant <{ ptr, [16 x i8] }> <{ ptr @alloc_4577f7899c1c3432b3863ade3808e32a, [16 x i8] c"\83\00\00\00\00\00\00\00\09\02\00\00\1F\00\00\00" }>, align 8
@alloc_54889d8a51df8291ab9a50b9bff9f120 = private unnamed_addr constant <{ ptr, [16 x i8] }> <{ ptr @alloc_4577f7899c1c3432b3863ade3808e32a, [16 x i8] c"\83\00\00\00\00\00\00\00\1F\02\00\00\0E\00\00\00" }>, align 8
@alloc_2a40896603bad3337b0fd8b141f38fac = private unnamed_addr constant <{ ptr, [16 x i8] }> <{ ptr @alloc_4577f7899c1c3432b3863ade3808e32a, [16 x i8] c"\83\00\00\00\00\00\00\00$\02\00\00\1B\00\00\00" }>, align 8
@alloc_3b1aa135527783f579e4fcf4bac6a165 = private unnamed_addr constant <{ ptr, [16 x i8] }> <{ ptr @alloc_4577f7899c1c3432b3863ade3808e32a, [16 x i8] c"\83\00\00\00\00\00\00\00+\02\00\00\1B\00\00\00" }>, align 8
@alloc_0ca3dc49884ac87a2ac8ca1f4010863e = private unnamed_addr constant <{ ptr, [16 x i8] }> <{ ptr @alloc_4577f7899c1c3432b3863ade3808e32a, [16 x i8] c"\83\00\00\00\00\00\00\00K\02\00\00\1B\00\00\00" }>, align 8
@alloc_243a4af900fdbc7d70a6d95a11635156 = private unnamed_addr constant <{ ptr, [16 x i8] }> <{ ptr @alloc_4577f7899c1c3432b3863ade3808e32a, [16 x i8] c"\83\00\00\00\00\00\00\00R\02\00\00\1B\00\00\00" }>, align 8
@alloc_4a83f948b1e72bf1acf7299b2db54354 = private unnamed_addr constant <{ ptr, [16 x i8] }> <{ ptr @alloc_4577f7899c1c3432b3863ade3808e32a, [16 x i8] c"\83\00\00\00\00\00\00\00Y\02\00\00\1B\00\00\00" }>, align 8
@alloc_dcfa16f4d9e1e4a0cbb082ff0fc5bc57 = private unnamed_addr constant <{ ptr, [16 x i8] }> <{ ptr @alloc_4577f7899c1c3432b3863ade3808e32a, [16 x i8] c"\83\00\00\00\00\00\00\00`\02\00\00\1F\00\00\00" }>, align 8
@alloc_8d668cea90371e195eda4a0aeecfa104 = private unnamed_addr constant <{ ptr, [16 x i8] }> <{ ptr @alloc_4577f7899c1c3432b3863ade3808e32a, [16 x i8] c"\83\00\00\00\00\00\00\00b\02\00\00\15\00\00\00" }>, align 8
@alloc_42ef6bb1c90ba355b58338385ca7beea = private unnamed_addr constant <{ ptr, [16 x i8] }> <{ ptr @alloc_4577f7899c1c3432b3863ade3808e32a, [16 x i8] c"\83\00\00\00\00\00\00\00Z\02\00\00\09\00\00\00" }>, align 8
@alloc_bd2fcc14944896f54aab57ad7eeb8d94 = private unnamed_addr constant <{ ptr, [16 x i8] }> <{ ptr @alloc_4577f7899c1c3432b3863ade3808e32a, [16 x i8] c"\83\00\00\00\00\00\00\00S\02\00\00\09\00\00\00" }>, align 8
@alloc_7d6b94db097d7e05af5c5e741db393d7 = private unnamed_addr constant <{ ptr, [16 x i8] }> <{ ptr @alloc_4577f7899c1c3432b3863ade3808e32a, [16 x i8] c"\83\00\00\00\00\00\00\00L\02\00\00\09\00\00\00" }>, align 8
@alloc_febb90d800edd85e66adf5c570d0b1ab = private unnamed_addr constant <{ ptr, [16 x i8] }> <{ ptr @alloc_4577f7899c1c3432b3863ade3808e32a, [16 x i8] c"\83\00\00\00\00\00\00\00r\02\00\00\0E\00\00\00" }>, align 8
@alloc_64da236e05a1748b6e025b0bc739117c = private unnamed_addr constant <{ ptr, [16 x i8] }> <{ ptr @alloc_4577f7899c1c3432b3863ade3808e32a, [16 x i8] c"\83\00\00\00\00\00\00\00x\02\00\00\0E\00\00\00" }>, align 8
@alloc_4e3afc4bca8bd91b746cbfef5bd77f5d = private unnamed_addr constant <{ ptr, [16 x i8] }> <{ ptr @alloc_4577f7899c1c3432b3863ade3808e32a, [16 x i8] c"\83\00\00\00\00\00\00\00~\02\00\00\0E\00\00\00" }>, align 8
@alloc_295be75a5f8100ecb324901cc9e098f6 = private unnamed_addr constant <{ ptr, [16 x i8] }> <{ ptr @alloc_4577f7899c1c3432b3863ade3808e32a, [16 x i8] c"\83\00\00\00\00\00\00\00\84\02\00\00\0E\00\00\00" }>, align 8
@alloc_cb1772b92e75fac65e3c6f7e33e0285a = private unnamed_addr constant <{ ptr, [16 x i8] }> <{ ptr @alloc_4577f7899c1c3432b3863ade3808e32a, [16 x i8] c"\83\00\00\00\00\00\00\00\88\02\00\00\0B\00\00\00" }>, align 8
@alloc_6f40369365c9d216341b81c1b6b99ae8 = private unnamed_addr constant <{ ptr, [16 x i8] }> <{ ptr @alloc_4577f7899c1c3432b3863ade3808e32a, [16 x i8] c"\83\00\00\00\00\00\00\00\93\02\00\00\1F\00\00\00" }>, align 8
@alloc_d875eca98f223561cd04aae936f2ad6b = private unnamed_addr constant <{ ptr, [16 x i8] }> <{ ptr @alloc_4577f7899c1c3432b3863ade3808e32a, [16 x i8] c"\83\00\00\00\00\00\00\00\A5\02\00\00\0E\00\00\00" }>, align 8
@alloc_aad0948dd013bebc2139e03322730892 = private unnamed_addr constant <{ ptr, [16 x i8] }> <{ ptr @alloc_4577f7899c1c3432b3863ade3808e32a, [16 x i8] c"\83\00\00\00\00\00\00\00\AA\02\00\00\1F\00\00\00" }>, align 8
@alloc_11abd975f81d85955886c17d545e8caa = private unnamed_addr constant <{ ptr, [16 x i8] }> <{ ptr @alloc_4577f7899c1c3432b3863ade3808e32a, [16 x i8] c"\83\00\00\00\00\00\00\00\BC\02\00\00\0E\00\00\00" }>, align 8
@alloc_ae4ee8d7647fb2344deafd3566252b34 = private unnamed_addr constant <{ ptr, [16 x i8] }> <{ ptr @alloc_4577f7899c1c3432b3863ade3808e32a, [16 x i8] c"\83\00\00\00\00\00\00\00\C2\02\00\00\0E\00\00\00" }>, align 8
@alloc_3a52a12e3be11e71d1e13bb268b85669 = private unnamed_addr constant <{ ptr, [16 x i8] }> <{ ptr @alloc_4577f7899c1c3432b3863ade3808e32a, [16 x i8] c"\83\00\00\00\00\00\00\00\C7\02\00\00\1F\00\00\00" }>, align 8
@alloc_cdda564a764051b506f39467847ab266 = private unnamed_addr constant <{ ptr, [16 x i8] }> <{ ptr @alloc_4577f7899c1c3432b3863ade3808e32a, [16 x i8] c"\83\00\00\00\00\00\00\00\D5\02\00\00\0E\00\00\00" }>, align 8
@alloc_44b68b6f0f6ca8729fc777185be26f9e = private unnamed_addr constant <{ ptr, [16 x i8] }> <{ ptr @alloc_4577f7899c1c3432b3863ade3808e32a, [16 x i8] c"\83\00\00\00\00\00\00\00\DA\02\00\00\1B\00\00\00" }>, align 8
@alloc_e40d919175b5e1388bc879eb74ff2075 = private unnamed_addr constant <{ ptr, [16 x i8] }> <{ ptr @alloc_4577f7899c1c3432b3863ade3808e32a, [16 x i8] c"\83\00\00\00\00\00\00\00\E1\02\00\00\1B\00\00\00" }>, align 8
@alloc_9f84c4acda2384474b1db9b14f66884e = private unnamed_addr constant <{ ptr, [16 x i8] }> <{ ptr @alloc_4577f7899c1c3432b3863ade3808e32a, [16 x i8] c"\83\00\00\00\00\00\00\00\E8\02\00\00\1B\00\00\00" }>, align 8
@alloc_a13a8e0350e2aacc78cd0d497a68b528 = private unnamed_addr constant <{ ptr, [16 x i8] }> <{ ptr @alloc_4577f7899c1c3432b3863ade3808e32a, [16 x i8] c"\83\00\00\00\00\00\00\00\F9\02\00\00\1B\00\00\00" }>, align 8
@alloc_478a1304f95ee5e4c147166b2e5abbdb = private unnamed_addr constant <{ ptr, [16 x i8] }> <{ ptr @alloc_4577f7899c1c3432b3863ade3808e32a, [16 x i8] c"\83\00\00\00\00\00\00\00\02\03\00\00\1B\00\00\00" }>, align 8
@alloc_11a35cf5b5fe01158a80ac424bba20ba = private unnamed_addr constant <{ ptr, [16 x i8] }> <{ ptr @alloc_4577f7899c1c3432b3863ade3808e32a, [16 x i8] c"\83\00\00\00\00\00\00\00\13\03\00\00\1B\00\00\00" }>, align 8
@alloc_3c3fab6cca79983e7164cfce16955039 = private unnamed_addr constant <{ ptr, [16 x i8] }> <{ ptr @alloc_4577f7899c1c3432b3863ade3808e32a, [16 x i8] c"\83\00\00\00\00\00\00\00$\03\00\00\1B\00\00\00" }>, align 8
@alloc_aa3962a8c3b27ab7223cf1f939656dd1 = private unnamed_addr constant <{ [35 x i8] }> <{ [35 x i8] c"level 1 entry has huge page bit set" }>, align 1
@alloc_3d2a0673a95c94f7f1a0deffdc5c9874 = private unnamed_addr constant <{ ptr, [16 x i8] }> <{ ptr @alloc_4577f7899c1c3432b3863ade3808e32a, [16 x i8] c"\83\00\00\00\00\00\00\00)\03\00\00\0D\00\00\00" }>, align 8
@alloc_32b61c696e106485ccbe87f3cd651cbe = private unnamed_addr constant <{ ptr, [16 x i8] }> <{ ptr @alloc_4577f7899c1c3432b3863ade3808e32a, [16 x i8] c"\83\00\00\00\00\00\00\00\18\03\00\00\1C\00\00\00" }>, align 8
@alloc_eac875b90fd359cb80f00b2d938d9559 = private unnamed_addr constant <{ ptr, [16 x i8] }> <{ ptr @alloc_4577f7899c1c3432b3863ade3808e32a, [16 x i8] c"\83\00\00\00\00\00\00\00\07\03\00\00\1C\00\00\00" }>, align 8
@alloc_ddc88da32b2765c7908fb63b2dcf7726 = private unnamed_addr constant <{ [35 x i8] }> <{ [35 x i8] c"level 4 entry has huge page bit set" }>, align 1
@alloc_4992db8745ae00afea01c041ffd9d006 = private unnamed_addr constant <{ ptr, [16 x i8] }> <{ ptr @alloc_4577f7899c1c3432b3863ade3808e32a, [16 x i8] c"\83\00\00\00\00\00\00\00\FE\02\00\00\0D\00\00\00" }>, align 8
@alloc_8b35a7ac8ea1908ef14ba5903ae59458 = private unnamed_addr constant <{ [41 x i8] }> <{ [41 x i8] c"given page table address is not recursive" }>, align 1
@alloc_245f71659d6a16859e71997552455b54 = private unnamed_addr constant <{ ptr, [8 x i8] }> <{ ptr @alloc_8b35a7ac8ea1908ef14ba5903ae59458, [8 x i8] c")\00\00\00\00\00\00\00" }>, align 8
@alloc_2428566e0a2b69e6dcd25ea523883752 = private unnamed_addr constant <{ [41 x i8] }> <{ [41 x i8] c"given page table is not active on the CPU" }>, align 1
@alloc_47f20378d56225612475544f0de811e5 = private unnamed_addr constant <{ ptr, [8 x i8] }> <{ ptr @alloc_2428566e0a2b69e6dcd25ea523883752, [8 x i8] c")\00\00\00\00\00\00\00" }>, align 8
@_ZN6x86_6410structures6paging6mapper19_ASSERT_OBJECT_SAFE17h79acb89758374ccbE = internal constant <{ [8 x i8], [8 x i8] }> <{ [8 x i8] zeroinitializer, [8 x i8] undef }>, align 8, !dbg !240
@alloc_05b59a2ecede78c8358587acab3943eb = private unnamed_addr constant <{ [46 x i8] }> <{ [46 x i8] c"the given address was not sufficiently aligned" }>, align 1
@alloc_106d3492fabf6c88cfa100e4dd0611a6 = private unnamed_addr constant <{ ptr, [8 x i8] }> <{ ptr @alloc_05b59a2ecede78c8358587acab3943eb, [8 x i8] c".\00\00\00\00\00\00\00" }>, align 8
@alloc_e637f9181b11d437b46a3b229f90ff2d = private unnamed_addr constant <{ [14 x i8] }> <{ [14 x i8] c"PageTableEntry" }>, align 1
@alloc_54a7bb754f73cc19a80f411dbaeede2b = private unnamed_addr constant <{ [4 x i8] }> <{ [4 x i8] c"addr" }>, align 1
@vtable.e = private constant <{ ptr, [16 x i8], ptr }> <{ ptr @"_ZN4core3ptr43drop_in_place$LT$x86_64..addr..PhysAddr$GT$17h1df360fb3f3f51b1E", [16 x i8] c"\08\00\00\00\00\00\00\00\08\00\00\00\00\00\00\00", ptr @"_ZN59_$LT$x86_64..addr..PhysAddr$u20$as$u20$core..fmt..Debug$GT$3fmt17h099a16633597a666E" }>, align 8, !dbg !264
@alloc_33b38ed17f811d2d9c0ae72269382e55 = private unnamed_addr constant <{ [5 x i8] }> <{ [5 x i8] c"flags" }>, align 1
@vtable.f = private constant <{ ptr, [16 x i8], ptr }> <{ ptr @"_ZN4core3ptr75drop_in_place$LT$x86_64..structures..paging..page_table..PageTableFlags$GT$17hdbd7e68fb1740928E", [16 x i8] c"\08\00\00\00\00\00\00\00\08\00\00\00\00\00\00\00", ptr @"_ZN91_$LT$x86_64..structures..paging..page_table..PageTableFlags$u20$as$u20$core..fmt..Debug$GT$3fmt17hbc535e861e648b40E" }>, align 8, !dbg !275
@alloc_2d04f34c49fd32469d9fb093fee56732 = private unnamed_addr constant <{ [114 x i8] }> <{ [114 x i8] c"/Users/yaw/.cargo/registry/src/index.crates.io-6f17d22bba15001f/x86_64-0.14.10/src/structures/paging/page_table.rs" }>, align 1
@alloc_3b68c04d98bec58a628ba66942ec84ed = private unnamed_addr constant <{ ptr, [16 x i8] }> <{ ptr @alloc_2d04f34c49fd32469d9fb093fee56732, [16 x i8] c"r\00\00\00\00\00\00\00\8A\01\00\00\12\00\00\00" }>, align 8
@alloc_78c877e72b369dac11048aaeac8a5ed2 = private unnamed_addr constant <{ ptr, [16 x i8] }> <{ ptr @alloc_2d04f34c49fd32469d9fb093fee56732, [16 x i8] c"r\00\00\00\00\00\00\00\8A\01\00\00\11\00\00\00" }>, align 8
@alloc_3c498b387c251819a7c79300248b3dcc = private unnamed_addr constant <{ ptr, [16 x i8] }> <{ ptr @alloc_2d04f34c49fd32469d9fb093fee56732, [16 x i8] c"r\00\00\00\00\00\00\00\8A\01\00\00\09\00\00\00" }>, align 8
@alloc_b2deaad9220f210aaf5f067867fa6e48 = private unnamed_addr constant <{ ptr, [16 x i8] }> <{ ptr @alloc_2d04f34c49fd32469d9fb093fee56732, [16 x i8] c"r\00\00\00\00\00\00\00\8F\01\00\00\13\00\00\00" }>, align 8
@alloc_166d3a73b685b11f605709f0cad54cf0 = private unnamed_addr constant <{ ptr, [16 x i8] }> <{ ptr @alloc_2d04f34c49fd32469d9fb093fee56732, [16 x i8] c"r\00\00\00\00\00\00\00\8F\01\00\00\12\00\00\00" }>, align 8
@alloc_cb085e089b7f3451b32e86c726a48f71 = private unnamed_addr constant <{ ptr, [16 x i8] }> <{ ptr @alloc_2d04f34c49fd32469d9fb093fee56732, [16 x i8] c"r\00\00\00\00\00\00\00\8F\01\00\00\11\00\00\00" }>, align 8
@alloc_f6e2e552f847cc95d49c889ebe39149c = private unnamed_addr constant <{ ptr, [16 x i8] }> <{ ptr @alloc_2d04f34c49fd32469d9fb093fee56732, [16 x i8] c"r\00\00\00\00\00\00\00\8F\01\00\00\09\00\00\00" }>, align 8
@alloc_9d52222ee6edbb16dc25e84f6cd19a03 = private unnamed_addr constant <{ [31 x i8] }> <{ [31 x i8] c" is not a valid privilege level" }>, align 1
@alloc_29d423d3d83bf96d5e5a227a8e5882ed = private unnamed_addr constant <{ ptr, [8 x i8], ptr, [8 x i8] }> <{ ptr @alloc_513570631223a12912d85da2bec3b15a, [8 x i8] zeroinitializer, ptr @alloc_9d52222ee6edbb16dc25e84f6cd19a03, [8 x i8] c"\1F\00\00\00\00\00\00\00" }>, align 8
@alloc_09c0fb8d6a97e0bae395a8cc2fa174be = private unnamed_addr constant <{ [89 x i8] }> <{ [89 x i8] c"/Users/yaw/.cargo/registry/src/index.crates.io-6f17d22bba15001f/x86_64-0.14.10/src/lib.rs" }>, align 1
@alloc_e71d51458d6a472e5ced34c0531ace95 = private unnamed_addr constant <{ ptr, [16 x i8] }> <{ ptr @alloc_09c0fb8d6a97e0bae395a8cc2fa174be, [16 x i8] c"Y\00\00\00\00\00\00\00=\00\00\00\12\00\00\00" }>, align 8
@alloc_a73d0e35045fd787c81346701178a687 = private unnamed_addr constant <{ [3 x i8] }> <{ [3 x i8] c" | " }>, align 1
@alloc_af166f07c81c6f1f43facb3d46d2b1b8 = private unnamed_addr constant <{ [103 x i8] }> <{ [103 x i8] c"/Users/yaw/.cargo/registry/src/index.crates.io-6f17d22bba15001f/x86_64-0.14.10/src/registers/control.rs" }>, align 1
@alloc_1f2e1f8ab16c567813b09de1d63b55ca = private unnamed_addr constant <{ ptr, [16 x i8] }> <{ ptr @alloc_af166f07c81c6f1f43facb3d46d2b1b8, [16 x i8] c"g\00\00\00\00\00\00\00\0A\00\00\00\01\00\00\00" }>, align 8
@alloc_7e8830758d595aa86401bc31236e70d9 = private unnamed_addr constant <{ [21 x i8] }> <{ [21 x i8] c"PROTECTED_MODE_ENABLE" }>, align 1
@alloc_1dcbb5ce5e627d83962a48ab5b2d30e8 = private unnamed_addr constant <{ [19 x i8] }> <{ [19 x i8] c"MONITOR_COPROCESSOR" }>, align 1
@alloc_99d26c0b219874888717d899ebef9310 = private unnamed_addr constant <{ [19 x i8] }> <{ [19 x i8] c"EMULATE_COPROCESSOR" }>, align 1
@alloc_836b1ca50347c7608571a510a04af5d2 = private unnamed_addr constant <{ [13 x i8] }> <{ [13 x i8] c"TASK_SWITCHED" }>, align 1
@alloc_df65a33fc906122276c2373cf3dadfe0 = private unnamed_addr constant <{ [14 x i8] }> <{ [14 x i8] c"EXTENSION_TYPE" }>, align 1
@alloc_bf838bd6df4c9d16cc7dfb4d9bdbb737 = private unnamed_addr constant <{ [13 x i8] }> <{ [13 x i8] c"NUMERIC_ERROR" }>, align 1
@alloc_0fd2cf5449c379fb2d1dfa8653b93d33 = private unnamed_addr constant <{ [13 x i8] }> <{ [13 x i8] c"WRITE_PROTECT" }>, align 1
@alloc_099f47db483af288584cccd2e6cd45c0 = private unnamed_addr constant <{ [14 x i8] }> <{ [14 x i8] c"ALIGNMENT_MASK" }>, align 1
@alloc_73fed57ecdfc0c8a6e01700927922fee = private unnamed_addr constant <{ [17 x i8] }> <{ [17 x i8] c"NOT_WRITE_THROUGH" }>, align 1
@alloc_423f67172ab1c61bf609b1b5979c7904 = private unnamed_addr constant <{ [13 x i8] }> <{ [13 x i8] c"CACHE_DISABLE" }>, align 1
@alloc_bd0d7a11d94f110b224bededd3eea615 = private unnamed_addr constant <{ [6 x i8] }> <{ [6 x i8] c"PAGING" }>, align 1
@alloc_83d8d36e705c58ed11bda7b90dabc655 = private unnamed_addr constant <{ [2 x i8] }> <{ [2 x i8] c"0x" }>, align 1
@alloc_3c9121c73b3ca7bd4d0dc09458e4ca54 = private unnamed_addr constant <{ [7 x i8] }> <{ [7 x i8] c"(empty)" }>, align 1
@alloc_f675719ddad3e5515152e8b73ffb14d1 = private unnamed_addr constant <{ ptr, [16 x i8] }> <{ ptr @alloc_af166f07c81c6f1f43facb3d46d2b1b8, [16 x i8] c"g\00\00\00\00\00\00\00>\00\00\00\01\00\00\00" }>, align 8
@alloc_8473f1e8c1559de425fef5632049d3ec = private unnamed_addr constant <{ [23 x i8] }> <{ [23 x i8] c"PAGE_LEVEL_WRITETHROUGH" }>, align 1
@alloc_72562398d85991dd2b9fa08410339493 = private unnamed_addr constant <{ [24 x i8] }> <{ [24 x i8] c"PAGE_LEVEL_CACHE_DISABLE" }>, align 1
@alloc_f6260c06c48f4577ca236bcadddf818d = private unnamed_addr constant <{ ptr, [16 x i8] }> <{ ptr @alloc_af166f07c81c6f1f43facb3d46d2b1b8, [16 x i8] c"g\00\00\00\00\00\00\00O\00\00\00\01\00\00\00" }>, align 8
@alloc_3cd17770600203f1f0a6125e01528d48 = private unnamed_addr constant <{ [28 x i8] }> <{ [28 x i8] c"VIRTUAL_8086_MODE_EXTENSIONS" }>, align 1
@alloc_0f019e3d47fd6e39c8f6e394ac082682 = private unnamed_addr constant <{ [33 x i8] }> <{ [33 x i8] c"PROTECTED_MODE_VIRTUAL_INTERRUPTS" }>, align 1
@alloc_803a549ea6bd4b6d2f54e32af9154475 = private unnamed_addr constant <{ [17 x i8] }> <{ [17 x i8] c"TIMESTAMP_DISABLE" }>, align 1
@alloc_3130e5922af1666981d4b1a92c1c9c90 = private unnamed_addr constant <{ [20 x i8] }> <{ [20 x i8] c"DEBUGGING_EXTENSIONS" }>, align 1
@alloc_d50af00c2ad521c84f7380b8be63c1e8 = private unnamed_addr constant <{ [19 x i8] }> <{ [19 x i8] c"PAGE_SIZE_EXTENSION" }>, align 1
@alloc_7e69978ff0c9547827e6c2a1a1a42624 = private unnamed_addr constant <{ [26 x i8] }> <{ [26 x i8] c"PHYSICAL_ADDRESS_EXTENSION" }>, align 1
@alloc_b91b344ee8d65b8a5808acbd4c8793c0 = private unnamed_addr constant <{ [23 x i8] }> <{ [23 x i8] c"MACHINE_CHECK_EXCEPTION" }>, align 1
@alloc_56210cd2eda51a0897d4a8ae05ba739a = private unnamed_addr constant <{ [11 x i8] }> <{ [11 x i8] c"PAGE_GLOBAL" }>, align 1
@alloc_b60833dfe9d7152efab861bc89ea0c54 = private unnamed_addr constant <{ [27 x i8] }> <{ [27 x i8] c"PERFORMANCE_MONITOR_COUNTER" }>, align 1
@alloc_5eb94a964f4e44a57663de8f144dc156 = private unnamed_addr constant <{ [6 x i8] }> <{ [6 x i8] c"OSFXSR" }>, align 1
@alloc_593defa7938df50164d817f0cfd4d23a = private unnamed_addr constant <{ [17 x i8] }> <{ [17 x i8] c"OSXMMEXCPT_ENABLE" }>, align 1
@alloc_8d53f88f3d7a93cc8e077ad1f33a9104 = private unnamed_addr constant <{ [32 x i8] }> <{ [32 x i8] c"USER_MODE_INSTRUCTION_PREVENTION" }>, align 1
@alloc_1df2c1684cada007b2ee85606d3db575 = private unnamed_addr constant <{ [9 x i8] }> <{ [9 x i8] c"L5_PAGING" }>, align 1
@alloc_6ba0ccf4bc0e7147ad03b9a461c3b871 = private unnamed_addr constant <{ [26 x i8] }> <{ [26 x i8] c"VIRTUAL_MACHINE_EXTENSIONS" }>, align 1
@alloc_17d7257c05cbd2a0f0325627d40d56e5 = private unnamed_addr constant <{ [21 x i8] }> <{ [21 x i8] c"SAFER_MODE_EXTENSIONS" }>, align 1
@alloc_06b7117b18584b484638bd2e31f2c0da = private unnamed_addr constant <{ [8 x i8] }> <{ [8 x i8] c"FSGSBASE" }>, align 1
@alloc_04eb80e29d7a8a2546c9d4a57ad0a35e = private unnamed_addr constant <{ [4 x i8] }> <{ [4 x i8] c"PCID" }>, align 1
@alloc_2167d3afaab2d6be8311548a92f121fd = private unnamed_addr constant <{ [7 x i8] }> <{ [7 x i8] c"OSXSAVE" }>, align 1
@alloc_637e3d682feeec8699edeaa487077351 = private unnamed_addr constant <{ [10 x i8] }> <{ [10 x i8] c"KEY_LOCKER" }>, align 1
@alloc_565fbeee76b78f614b45f0e4de60d327 = private unnamed_addr constant <{ [36 x i8] }> <{ [36 x i8] c"SUPERVISOR_MODE_EXECUTION_PROTECTION" }>, align 1
@alloc_9cab844b3adefa1cf8a3e1fb50b53e8b = private unnamed_addr constant <{ [33 x i8] }> <{ [33 x i8] c"SUPERVISOR_MODE_ACCESS_PREVENTION" }>, align 1
@alloc_3f25cddaa33e0015fc60a6f4108cdb86 = private unnamed_addr constant <{ [19 x i8] }> <{ [19 x i8] c"PROTECTION_KEY_USER" }>, align 1
@alloc_e0f4f3e313283630a9b8570ed4004a61 = private unnamed_addr constant <{ [14 x i8] }> <{ [14 x i8] c"PROTECTION_KEY" }>, align 1
@alloc_878468e6ca3ee071fdc9642b45f9e302 = private unnamed_addr constant <{ [24 x i8] }> <{ [24 x i8] c"CONTROL_FLOW_ENFORCEMENT" }>, align 1
@alloc_de1297b283ef11133563bc0f4439f8ff = private unnamed_addr constant <{ [25 x i8] }> <{ [25 x i8] c"PROTECTION_KEY_SUPERVISOR" }>, align 1
@alloc_62c380bcbe44e7ae08bcc8211914f86d = private unnamed_addr constant <{ ptr, [16 x i8] }> <{ ptr @alloc_6cdbc67d2a58211cc5e3f5bce2ee098c, [16 x i8] c"e\00\00\00\00\00\00\00n\00\00\00\01\00\00\00" }>, align 8
@alloc_45c100c2168fcc3a2c8e8658d8fa72d9 = private unnamed_addr constant <{ [5 x i8] }> <{ [5 x i8] c"TRAP0" }>, align 1
@alloc_3c836bdcb4a2196d4444e3ee070e29d4 = private unnamed_addr constant <{ [5 x i8] }> <{ [5 x i8] c"TRAP1" }>, align 1
@alloc_85e5c2d27dd4c283004b374e4e05a65b = private unnamed_addr constant <{ [5 x i8] }> <{ [5 x i8] c"TRAP2" }>, align 1
@alloc_42f9c29b8076e7504fa2e943015ad085 = private unnamed_addr constant <{ [5 x i8] }> <{ [5 x i8] c"TRAP3" }>, align 1
@alloc_e01af9736b524006e5fb45ad54018c38 = private unnamed_addr constant <{ [4 x i8] }> <{ [4 x i8] c"TRAP" }>, align 1
@alloc_13c8bdb08f493416890b902d07d83f53 = private unnamed_addr constant <{ [15 x i8] }> <{ [15 x i8] c"ACCESS_DETECTED" }>, align 1
@alloc_c63ced38b85c362fb8956d2e446283a2 = private unnamed_addr constant <{ [4 x i8] }> <{ [4 x i8] c"STEP" }>, align 1
@alloc_213388318503421ba921859d9840e0d0 = private unnamed_addr constant <{ [6 x i8] }> <{ [6 x i8] c"SWITCH" }>, align 1
@alloc_0d9a022618f873ac219bcced4b49b3c4 = private unnamed_addr constant <{ [3 x i8] }> <{ [3 x i8] c"RTM" }>, align 1
@alloc_f23d42fe0432432f50e33e160e92f1e4 = private unnamed_addr constant <{ ptr, [16 x i8] }> <{ ptr @alloc_6cdbc67d2a58211cc5e3f5bce2ee098c, [16 x i8] c"e\00\00\00\00\00\00\00\A3\00\00\00\01\00\00\00" }>, align 8
@alloc_617f3d0f9750ad240377121c45925575 = private unnamed_addr constant <{ [25 x i8] }> <{ [25 x i8] c"LOCAL_BREAKPOINT_0_ENABLE" }>, align 1
@alloc_f41ec3c4ea34f66d1d32be5d0f7d84fa = private unnamed_addr constant <{ [25 x i8] }> <{ [25 x i8] c"LOCAL_BREAKPOINT_1_ENABLE" }>, align 1
@alloc_18ef5149a91f8fd299f078254cad3180 = private unnamed_addr constant <{ [25 x i8] }> <{ [25 x i8] c"LOCAL_BREAKPOINT_2_ENABLE" }>, align 1
@alloc_b57d2d50cd4f64d8b73b6b8e0e4d1899 = private unnamed_addr constant <{ [25 x i8] }> <{ [25 x i8] c"LOCAL_BREAKPOINT_3_ENABLE" }>, align 1
@alloc_3e380dd631be11ede75479e8fe00ff1e = private unnamed_addr constant <{ [26 x i8] }> <{ [26 x i8] c"GLOBAL_BREAKPOINT_0_ENABLE" }>, align 1
@alloc_17a158e6a42a64ac6748510ec26c05ee = private unnamed_addr constant <{ [26 x i8] }> <{ [26 x i8] c"GLOBAL_BREAKPOINT_1_ENABLE" }>, align 1
@alloc_5bba4d24c07a9036ae9233aaff6232c6 = private unnamed_addr constant <{ [26 x i8] }> <{ [26 x i8] c"GLOBAL_BREAKPOINT_2_ENABLE" }>, align 1
@alloc_9d4320166e103e0795016eb938cfd0c7 = private unnamed_addr constant <{ [26 x i8] }> <{ [26 x i8] c"GLOBAL_BREAKPOINT_3_ENABLE" }>, align 1
@alloc_f7d8bfadf9baee29aaa910e129a0e64d = private unnamed_addr constant <{ [29 x i8] }> <{ [29 x i8] c"LOCAL_EXACT_BREAKPOINT_ENABLE" }>, align 1
@alloc_5be5ea04cc5cae854de752ee6fc0b1f7 = private unnamed_addr constant <{ [30 x i8] }> <{ [30 x i8] c"GLOBAL_EXACT_BREAKPOINT_ENABLE" }>, align 1
@alloc_acbe4e59274e5d7b6fea0de428eccbfd = private unnamed_addr constant <{ [31 x i8] }> <{ [31 x i8] c"RESTRICTED_TRANSACTIONAL_MEMORY" }>, align 1
@alloc_1de5b8b60713a8c97fab0cf672607e09 = private unnamed_addr constant <{ [21 x i8] }> <{ [21 x i8] c"GENERAL_DETECT_ENABLE" }>, align 1
@alloc_0176df5cace98960386a459093c90bf4 = private unnamed_addr constant <{ [110 x i8] }> <{ [110 x i8] c"/Users/yaw/.cargo/registry/src/index.crates.io-6f17d22bba15001f/x86_64-0.14.10/src/registers/model_specific.rs" }>, align 1
@alloc_e80b88d8b81def3a4f670000fec74984 = private unnamed_addr constant <{ ptr, [16 x i8] }> <{ ptr @alloc_0176df5cace98960386a459093c90bf4, [16 x i8] c"n\00\00\00\00\00\00\00o\00\00\00\01\00\00\00" }>, align 8
@alloc_ceb3075fefa236549f114873fb6322c5 = private unnamed_addr constant <{ [22 x i8] }> <{ [22 x i8] c"SYSTEM_CALL_EXTENSIONS" }>, align 1
@alloc_23183917709bfb7b18e2b27e64795080 = private unnamed_addr constant <{ [16 x i8] }> <{ [16 x i8] c"LONG_MODE_ENABLE" }>, align 1
@alloc_00edffb2880c63885c07b8b63d984171 = private unnamed_addr constant <{ [16 x i8] }> <{ [16 x i8] c"LONG_MODE_ACTIVE" }>, align 1
@alloc_a49000a8806776ae52fbedb9a2638ec9 = private unnamed_addr constant <{ [17 x i8] }> <{ [17 x i8] c"NO_EXECUTE_ENABLE" }>, align 1
@alloc_c5961b0ae9ae4a08564a612c72baa76c = private unnamed_addr constant <{ [29 x i8] }> <{ [29 x i8] c"SECURE_VIRTUAL_MACHINE_ENABLE" }>, align 1
@alloc_4ae9b5b462839d60c41327e34c2f0e10 = private unnamed_addr constant <{ [30 x i8] }> <{ [30 x i8] c"LONG_MODE_SEGMENT_LIMIT_ENABLE" }>, align 1
@alloc_85cca595269f62c6435ecb629d2c0750 = private unnamed_addr constant <{ [19 x i8] }> <{ [19 x i8] c"FAST_FXSAVE_FXRSTOR" }>, align 1
@alloc_53cb917c5379fcf43f5faa3b3b79e7e8 = private unnamed_addr constant <{ [27 x i8] }> <{ [27 x i8] c"TRANSLATION_CACHE_EXTENSION" }>, align 1
@alloc_84ecb629e58039fee110034b22ee4878 = private unnamed_addr constant <{ ptr, [16 x i8] }> <{ ptr @alloc_0176df5cace98960386a459093c90bf4, [16 x i8] c"n\00\00\00\00\00\00\00\85\00\00\00\01\00\00\00" }>, align 8
@alloc_da3386472e802af11e2daae8d71f4e5f = private unnamed_addr constant <{ [9 x i8] }> <{ [9 x i8] c"SS_ENABLE" }>, align 1
@alloc_c5393e416f6a9c358373398c6a9847ba = private unnamed_addr constant <{ [15 x i8] }> <{ [15 x i8] c"SS_WRITE_ENABLE" }>, align 1
@alloc_79753b9dc8b617e3709620f1856e0c93 = private unnamed_addr constant <{ [10 x i8] }> <{ [10 x i8] c"IBT_ENABLE" }>, align 1
@alloc_9936f540789596be08e844c2303cb4eb = private unnamed_addr constant <{ [17 x i8] }> <{ [17 x i8] c"IBT_LEGACY_ENABLE" }>, align 1
@alloc_f5206af8d2786a9a878ae388075bf233 = private unnamed_addr constant <{ [19 x i8] }> <{ [19 x i8] c"IBT_NO_TRACK_ENABLE" }>, align 1
@alloc_7ef313dde9a96c8e9a29e6aa277d98ef = private unnamed_addr constant <{ [26 x i8] }> <{ [26 x i8] c"IBT_LEGACY_SUPPRESS_ENABLE" }>, align 1
@alloc_a94025a2df7033977ee2af5c062317bf = private unnamed_addr constant <{ [19 x i8] }> <{ [19 x i8] c"IBT_SUPPRESS_ENABLE" }>, align 1
@alloc_f0eed43fadb3dcdfb9210f44f842ca35 = private unnamed_addr constant <{ [11 x i8] }> <{ [11 x i8] c"IBT_TRACKED" }>, align 1
@alloc_7281849548151185639d28fd7c0a5eac = private unnamed_addr constant <{ [101 x i8] }> <{ [101 x i8] c"/Users/yaw/.cargo/registry/src/index.crates.io-6f17d22bba15001f/x86_64-0.14.10/src/registers/mxcsr.rs" }>, align 1
@alloc_02a0b8470ea8b0bf5c15156feff310b7 = private unnamed_addr constant <{ ptr, [16 x i8] }> <{ ptr @alloc_7281849548151185639d28fd7c0a5eac, [16 x i8] c"e\00\00\00\00\00\00\00\08\00\00\00\01\00\00\00" }>, align 8
@alloc_350dbcb10d3dac789bff2c27a189e81f = private unnamed_addr constant <{ [17 x i8] }> <{ [17 x i8] c"INVALID_OPERATION" }>, align 1
@alloc_7ec7b854ddb106bca3d2e3aadc6beb75 = private unnamed_addr constant <{ [8 x i8] }> <{ [8 x i8] c"DENORMAL" }>, align 1
@alloc_0698b50985094ab5232d42d450db30cb = private unnamed_addr constant <{ [14 x i8] }> <{ [14 x i8] c"DIVIDE_BY_ZERO" }>, align 1
@alloc_3b8b4793b1ea451345d29976e468891f = private unnamed_addr constant <{ [8 x i8] }> <{ [8 x i8] c"OVERFLOW" }>, align 1
@alloc_7ea326424015707213a4540a6b01ccbc = private unnamed_addr constant <{ [9 x i8] }> <{ [9 x i8] c"UNDERFLOW" }>, align 1
@alloc_65c8d9334162f88c29e9094988ececd2 = private unnamed_addr constant <{ [9 x i8] }> <{ [9 x i8] c"PRECISION" }>, align 1
@alloc_f71adfd8f709c3a17b5ee7464b0e65a7 = private unnamed_addr constant <{ [19 x i8] }> <{ [19 x i8] c"DENORMALS_ARE_ZEROS" }>, align 1
@alloc_9bd11bca8ae23cc51d3a6341c95b96fc = private unnamed_addr constant <{ [22 x i8] }> <{ [22 x i8] c"INVALID_OPERATION_MASK" }>, align 1
@alloc_14a79a8e897526cc9db098787ad82623 = private unnamed_addr constant <{ [13 x i8] }> <{ [13 x i8] c"DENORMAL_MASK" }>, align 1
@alloc_e7459e65b76b299ed2a1432c4b4f7567 = private unnamed_addr constant <{ [19 x i8] }> <{ [19 x i8] c"DIVIDE_BY_ZERO_MASK" }>, align 1
@alloc_23a7a9fd7a65d467bfbc7e54bb2efc1c = private unnamed_addr constant <{ [13 x i8] }> <{ [13 x i8] c"OVERFLOW_MASK" }>, align 1
@alloc_826c9a205ee91afd7a96fabeb2473cae = private unnamed_addr constant <{ [14 x i8] }> <{ [14 x i8] c"UNDERFLOW_MASK" }>, align 1
@alloc_39fe69eff977a9c06b2c3eead5f36a7c = private unnamed_addr constant <{ [14 x i8] }> <{ [14 x i8] c"PRECISION_MASK" }>, align 1
@alloc_6f1c269e29791eb3e3eba5768c9e1567 = private unnamed_addr constant <{ [25 x i8] }> <{ [25 x i8] c"ROUNDING_CONTROL_NEGATIVE" }>, align 1
@alloc_7bc910930806376fb8f9536a186e7134 = private unnamed_addr constant <{ [25 x i8] }> <{ [25 x i8] c"ROUNDING_CONTROL_POSITIVE" }>, align 1
@alloc_430c7d8c98839de51a05c8fe3af9a348 = private unnamed_addr constant <{ [21 x i8] }> <{ [21 x i8] c"ROUNDING_CONTROL_ZERO" }>, align 1
@alloc_b9fade50705e3555d0d831a1f9a510ab = private unnamed_addr constant <{ [13 x i8] }> <{ [13 x i8] c"FLUSH_TO_ZERO" }>, align 1
@alloc_22dd02062df0a0a83499a033127aebc3 = private unnamed_addr constant <{ [102 x i8] }> <{ [102 x i8] c"/Users/yaw/.cargo/registry/src/index.crates.io-6f17d22bba15001f/x86_64-0.14.10/src/registers/rflags.rs" }>, align 1
@alloc_e25f6e2046e737c041a7b42d39f90f99 = private unnamed_addr constant <{ ptr, [16 x i8] }> <{ ptr @alloc_22dd02062df0a0a83499a033127aebc3, [16 x i8] c"f\00\00\00\00\00\00\00\08\00\00\00\01\00\00\00" }>, align 8
@alloc_ec5b1b162c2450c572509f04758eccff = private unnamed_addr constant <{ [2 x i8] }> <{ [2 x i8] c"ID" }>, align 1
@alloc_c6278bda13d4e203e2ffdae4ef6347fb = private unnamed_addr constant <{ [25 x i8] }> <{ [25 x i8] c"VIRTUAL_INTERRUPT_PENDING" }>, align 1
@alloc_3ebb970fb6c33a3b0fe01f3bf4af376e = private unnamed_addr constant <{ [17 x i8] }> <{ [17 x i8] c"VIRTUAL_INTERRUPT" }>, align 1
@alloc_3a1e4c5d12171e7bfcd85ba51395866c = private unnamed_addr constant <{ [15 x i8] }> <{ [15 x i8] c"ALIGNMENT_CHECK" }>, align 1
@alloc_1528d1162bff7baa34e9aa2de578cb61 = private unnamed_addr constant <{ [17 x i8] }> <{ [17 x i8] c"VIRTUAL_8086_MODE" }>, align 1
@alloc_1d6fa5f529e55e2b73521861ceb2d701 = private unnamed_addr constant <{ [11 x i8] }> <{ [11 x i8] c"RESUME_FLAG" }>, align 1
@alloc_48ab5e7fe39f3329897899f9db12fc81 = private unnamed_addr constant <{ [11 x i8] }> <{ [11 x i8] c"NESTED_TASK" }>, align 1
@alloc_9b5da51e8e50cb45b94d88b16558de7d = private unnamed_addr constant <{ [9 x i8] }> <{ [9 x i8] c"IOPL_HIGH" }>, align 1
@alloc_ca8f9c3c90ddb14657eef011778f0d79 = private unnamed_addr constant <{ [8 x i8] }> <{ [8 x i8] c"IOPL_LOW" }>, align 1
@alloc_248573dbdb1f23c6f8497ef162ca133f = private unnamed_addr constant <{ [13 x i8] }> <{ [13 x i8] c"OVERFLOW_FLAG" }>, align 1
@alloc_33e28c56fe990dd47deb92a17608e414 = private unnamed_addr constant <{ [14 x i8] }> <{ [14 x i8] c"DIRECTION_FLAG" }>, align 1
@alloc_301ac14af0c7742428f03f6fb56cbb88 = private unnamed_addr constant <{ [14 x i8] }> <{ [14 x i8] c"INTERRUPT_FLAG" }>, align 1
@alloc_4a4b1b5fd7f29778851f88943a80f7e2 = private unnamed_addr constant <{ [9 x i8] }> <{ [9 x i8] c"TRAP_FLAG" }>, align 1
@alloc_99472ab79f8778654111cd8cd4dce1f6 = private unnamed_addr constant <{ [9 x i8] }> <{ [9 x i8] c"SIGN_FLAG" }>, align 1
@alloc_233a007a17452bb68262e3c1f40af172 = private unnamed_addr constant <{ [9 x i8] }> <{ [9 x i8] c"ZERO_FLAG" }>, align 1
@alloc_28c2c26bc7b83b08dda497f27d5e048a = private unnamed_addr constant <{ [20 x i8] }> <{ [20 x i8] c"AUXILIARY_CARRY_FLAG" }>, align 1
@alloc_4ac2882683871e4ddfd9eb00ed3ca0f8 = private unnamed_addr constant <{ [11 x i8] }> <{ [11 x i8] c"PARITY_FLAG" }>, align 1
@alloc_7fde2caa5e786cf03241bc614c426f83 = private unnamed_addr constant <{ [10 x i8] }> <{ [10 x i8] c"CARRY_FLAG" }>, align 1
@alloc_515a9f016097b7ad2231f4ad96fbb41e = private unnamed_addr constant <{ [104 x i8] }> <{ [104 x i8] c"/Users/yaw/.cargo/registry/src/index.crates.io-6f17d22bba15001f/x86_64-0.14.10/src/registers/xcontrol.rs" }>, align 1
@alloc_39a9d7256ae9be7f0b701103c9fa8cc3 = private unnamed_addr constant <{ ptr, [16 x i8] }> <{ ptr @alloc_515a9f016097b7ad2231f4ad96fbb41e, [16 x i8] c"h\00\00\00\00\00\00\00\08\00\00\00\01\00\00\00" }>, align 8
@alloc_747a0b7482a2129eb50740be0e7177f8 = private unnamed_addr constant <{ [3 x i8] }> <{ [3 x i8] c"X87" }>, align 1
@alloc_4c9b6b069c5380fe8192d71e809390e7 = private unnamed_addr constant <{ [3 x i8] }> <{ [3 x i8] c"SSE" }>, align 1
@alloc_27097c54c41f8ec87311498f3d647372 = private unnamed_addr constant <{ [3 x i8] }> <{ [3 x i8] c"AVX" }>, align 1
@alloc_ceddc304630e501171f8f2abc0a3543d = private unnamed_addr constant <{ [3 x i8] }> <{ [3 x i8] c"YMM" }>, align 1
@alloc_0b077b1fa356f3d470e2a7108b6ebd0a = private unnamed_addr constant <{ [6 x i8] }> <{ [6 x i8] c"BNDREG" }>, align 1
@alloc_c71babe9862dd8a2a3503d16c9b86789 = private unnamed_addr constant <{ [6 x i8] }> <{ [6 x i8] c"BNDCSR" }>, align 1
@alloc_7815300b954b67ee90ccc1cd901baaf3 = private unnamed_addr constant <{ [6 x i8] }> <{ [6 x i8] c"OPMASK" }>, align 1
@alloc_8dd1ecb83146fedb5f2eb3909ab01554 = private unnamed_addr constant <{ [9 x i8] }> <{ [9 x i8] c"ZMM_HI256" }>, align 1
@alloc_7fe0cf0b681130b7f34badff7028b4c6 = private unnamed_addr constant <{ [8 x i8] }> <{ [8 x i8] c"HI16_ZMM" }>, align 1
@alloc_7e8fa1323df12a2587e570b6f5afbc88 = private unnamed_addr constant <{ [3 x i8] }> <{ [3 x i8] c"MPK" }>, align 1
@alloc_d10f39d8e09d915ca6db293020f9b83a = private unnamed_addr constant <{ [3 x i8] }> <{ [3 x i8] c"LWP" }>, align 1
@alloc_98599d327ad5d7cf8cd8407bc38d2c95 = private unnamed_addr constant <{ ptr, [16 x i8] }> <{ ptr @alloc_3b64751e5ad482a062ea0dcea91079df, [16 x i8] c"d\00\00\00\00\00\00\00\C9\00\00\00\01\00\00\00" }>, align 8
@alloc_19d3aa44fa870b709dc54905bd836d40 = private unnamed_addr constant <{ [8 x i8] }> <{ [8 x i8] c"ACCESSED" }>, align 1
@alloc_4b243310d393492e5217a8107bf07d84 = private unnamed_addr constant <{ [8 x i8] }> <{ [8 x i8] c"WRITABLE" }>, align 1
@alloc_4779be00e11e2bd8325eff7e3ba8aad0 = private unnamed_addr constant <{ [10 x i8] }> <{ [10 x i8] c"CONFORMING" }>, align 1
@alloc_f86c4fad9e5b2f292a414639f3972d45 = private unnamed_addr constant <{ [10 x i8] }> <{ [10 x i8] c"EXECUTABLE" }>, align 1
@alloc_7cdabe8725204f339f10fa2c47255f59 = private unnamed_addr constant <{ [12 x i8] }> <{ [12 x i8] c"USER_SEGMENT" }>, align 1
@alloc_895698829804386bab9259fb3a96be93 = private unnamed_addr constant <{ [10 x i8] }> <{ [10 x i8] c"DPL_RING_3" }>, align 1
@alloc_eb59454be9eaca43bb58cc5b4a851242 = private unnamed_addr constant <{ [7 x i8] }> <{ [7 x i8] c"PRESENT" }>, align 1
@alloc_f3b835bb8b1bf0d52df8a952e8472005 = private unnamed_addr constant <{ [9 x i8] }> <{ [9 x i8] c"AVAILABLE" }>, align 1
@alloc_961ace3350b86d8f6207fa225e5d248d = private unnamed_addr constant <{ [9 x i8] }> <{ [9 x i8] c"LONG_MODE" }>, align 1
@alloc_a2aea63e6daa2e56a54a4c2be176a4c0 = private unnamed_addr constant <{ [12 x i8] }> <{ [12 x i8] c"DEFAULT_SIZE" }>, align 1
@alloc_f0005c400e1919e61758093b2c1e0bc3 = private unnamed_addr constant <{ [11 x i8] }> <{ [11 x i8] c"GRANULARITY" }>, align 1
@alloc_f2cff3224737832bf3283d1bbf20a43e = private unnamed_addr constant <{ [10 x i8] }> <{ [10 x i8] c"LIMIT_0_15" }>, align 1
@alloc_6002dcd457f8eb45878170b70ea4e3df = private unnamed_addr constant <{ [11 x i8] }> <{ [11 x i8] c"LIMIT_16_19" }>, align 1
@alloc_3bd1f4c7288782b7ae3d3fa4a45d5dd3 = private unnamed_addr constant <{ [9 x i8] }> <{ [9 x i8] c"BASE_0_23" }>, align 1
@alloc_a32a9108c9973f3646e90a058f393001 = private unnamed_addr constant <{ [10 x i8] }> <{ [10 x i8] c"BASE_24_31" }>, align 1
@alloc_7d4728cd50fb756f75ab276ef91e7f4e = private unnamed_addr constant <{ ptr, [16 x i8] }> <{ ptr @alloc_96fe64cab8dd4680071ecfdb397425fd, [16 x i8] c"d\00\00\00\00\00\00\00\A2\03\00\00\01\00\00\00" }>, align 8
@alloc_ad42669f44e92ceb6ee20c82222f5d1b = private unnamed_addr constant <{ [20 x i8] }> <{ [20 x i8] c"PROTECTION_VIOLATION" }>, align 1
@alloc_27dc1e3e8098ed70b6d5c9dc6fecc197 = private unnamed_addr constant <{ [15 x i8] }> <{ [15 x i8] c"CAUSED_BY_WRITE" }>, align 1
@alloc_6fc3bfebaa11c75067ee8c67855c0e1b = private unnamed_addr constant <{ [9 x i8] }> <{ [9 x i8] c"USER_MODE" }>, align 1
@alloc_8db982c715f12c3d6fff79a292ea56de = private unnamed_addr constant <{ [15 x i8] }> <{ [15 x i8] c"MALFORMED_TABLE" }>, align 1
@alloc_bee90358a428637f2b2e924b432c1168 = private unnamed_addr constant <{ [17 x i8] }> <{ [17 x i8] c"INSTRUCTION_FETCH" }>, align 1
@alloc_965ebe843576369e4be87855c2dd9d5d = private unnamed_addr constant <{ [12 x i8] }> <{ [12 x i8] c"SHADOW_STACK" }>, align 1
@alloc_21f34dbfe73bf3c2a46ca560620af5ee = private unnamed_addr constant <{ [3 x i8] }> <{ [3 x i8] c"SGX" }>, align 1
@alloc_65b5e1b37bb8669586518fe1db400d56 = private unnamed_addr constant <{ [3 x i8] }> <{ [3 x i8] c"RMP" }>, align 1
@alloc_b10b0f7e88f2e6a647488ef7d000dc57 = private unnamed_addr constant <{ [3 x i8] }> <{ [3 x i8] c"Gdt" }>, align 1
@alloc_6c41f34769b7ae3bdb2c01f429ceb4a6 = private unnamed_addr constant <{ [3 x i8] }> <{ [3 x i8] c"Idt" }>, align 1
@alloc_831a0aacdf0f1226b44faf912cfe4c70 = private unnamed_addr constant <{ [3 x i8] }> <{ [3 x i8] c"Ldt" }>, align 1
@alloc_b286b2b9543c66cdab0d1d1a263d53a1 = private unnamed_addr constant <{ ptr, [16 x i8] }> <{ ptr @alloc_2d04f34c49fd32469d9fb093fee56732, [16 x i8] c"r\00\00\00\00\00\00\00k\00\00\00\01\00\00\00" }>, align 8
@alloc_4a70e343dc779c31ae78142f428af841 = private unnamed_addr constant <{ [15 x i8] }> <{ [15 x i8] c"USER_ACCESSIBLE" }>, align 1
@alloc_dafaffa2078a5eff3d59803b86ffd622 = private unnamed_addr constant <{ [13 x i8] }> <{ [13 x i8] c"WRITE_THROUGH" }>, align 1
@alloc_df690a2a46b93ddfad910ba9bbe39b79 = private unnamed_addr constant <{ [8 x i8] }> <{ [8 x i8] c"NO_CACHE" }>, align 1
@alloc_41a8ce9be0bffda31b3d408290af97da = private unnamed_addr constant <{ [5 x i8] }> <{ [5 x i8] c"DIRTY" }>, align 1
@alloc_54d135570180754451080559d9111855 = private unnamed_addr constant <{ [9 x i8] }> <{ [9 x i8] c"HUGE_PAGE" }>, align 1
@alloc_f42e391d754b8bfb22f215449ac9bf70 = private unnamed_addr constant <{ [6 x i8] }> <{ [6 x i8] c"GLOBAL" }>, align 1
@alloc_3ace88701dbfa5797defbe569bd66cce = private unnamed_addr constant <{ [5 x i8] }> <{ [5 x i8] c"BIT_9" }>, align 1
@alloc_ceacba38f9a100163241bf15528d8f0b = private unnamed_addr constant <{ [6 x i8] }> <{ [6 x i8] c"BIT_10" }>, align 1
@alloc_92edb757e61ffda4211bf210439c8bfe = private unnamed_addr constant <{ [6 x i8] }> <{ [6 x i8] c"BIT_11" }>, align 1
@alloc_5a7eac48c026860f717ab651c379a98d = private unnamed_addr constant <{ [6 x i8] }> <{ [6 x i8] c"BIT_52" }>, align 1
@alloc_eafdc2fc022de29bf3865126c27f395d = private unnamed_addr constant <{ [6 x i8] }> <{ [6 x i8] c"BIT_53" }>, align 1
@alloc_c96d9278b59346ccfdcb09ad903ad7ac = private unnamed_addr constant <{ [6 x i8] }> <{ [6 x i8] c"BIT_54" }>, align 1
@alloc_29b2c604ae79ad34fd4794fe8fe1e55d = private unnamed_addr constant <{ [6 x i8] }> <{ [6 x i8] c"BIT_55" }>, align 1
@alloc_9cfed65a90167f569ceede92e32ecd41 = private unnamed_addr constant <{ [6 x i8] }> <{ [6 x i8] c"BIT_56" }>, align 1
@alloc_ef70afa07e97f03ea0d6b174f2b260dc = private unnamed_addr constant <{ [6 x i8] }> <{ [6 x i8] c"BIT_57" }>, align 1
@alloc_b5acc0dad1b60c33a9330540645b56db = private unnamed_addr constant <{ [6 x i8] }> <{ [6 x i8] c"BIT_58" }>, align 1
@alloc_6ac50574536ff49aa367f62b88c020ad = private unnamed_addr constant <{ [6 x i8] }> <{ [6 x i8] c"BIT_59" }>, align 1
@alloc_84a60f40cc665e993380e8869e013c65 = private unnamed_addr constant <{ [6 x i8] }> <{ [6 x i8] c"BIT_60" }>, align 1
@alloc_c1ee36a2ca5655f338c32dfb0848c1c2 = private unnamed_addr constant <{ [6 x i8] }> <{ [6 x i8] c"BIT_61" }>, align 1
@alloc_6c9c238293b27621b285d3f3f0315ab2 = private unnamed_addr constant <{ [6 x i8] }> <{ [6 x i8] c"BIT_62" }>, align 1
@alloc_d6e90771ba36bcbd7a76cdf267ebff76 = private unnamed_addr constant <{ [10 x i8] }> <{ [10 x i8] c"NO_EXECUTE" }>, align 1
@alloc_ed571738fca5c0da22b89e04bb9ebe9a = private unnamed_addr constant <{ [5 x i8] }> <{ [5 x i8] c"Ring0" }>, align 1
@alloc_1f0cb997af4f3e81a37f09e897bba0b3 = private unnamed_addr constant <{ [5 x i8] }> <{ [5 x i8] c"Ring1" }>, align 1
@alloc_e85c31827ed554be766c198415c741b5 = private unnamed_addr constant <{ [5 x i8] }> <{ [5 x i8] c"Ring2" }>, align 1
@alloc_2b7001d9e7e041cffc3e8ea213d6350c = private unnamed_addr constant <{ [5 x i8] }> <{ [5 x i8] c"Ring3" }>, align 1

; <core::result::Result<T,F> as core::ops::try_trait::FromResidual<core::result::Result<core::convert::Infallible,E>>>::from_residual
; Function Attrs: inlinehint noredzone nounwind
define void @"_ZN153_$LT$core..result..Result$LT$T$C$F$GT$$u20$as$u20$core..ops..try_trait..FromResidual$LT$core..result..Result$LT$core..convert..Infallible$C$E$GT$$GT$$GT$13from_residual17h844d64cc2dcd6b53E"(ptr sret(%"core::result::Result<(structures::paging::frame::PhysFrame<structures::paging::page::Size1GiB>, structures::paging::mapper::MapperFlush<structures::paging::page::Size1GiB>), structures::paging::mapper::UnmapError>") align 8 %_0, i64 %0, i64 %1, ptr align 8 %2) unnamed_addr #0 !dbg !334 {
start:
  %t.dbg.spill.i = alloca { i64, i64 }, align 8
  %e.dbg.spill = alloca { i64, i64 }, align 8
  %residual = alloca { i64, i64 }, align 8
  %3 = getelementptr inbounds { i64, i64 }, ptr %residual, i32 0, i32 0
  store i64 %0, ptr %3, align 8
  %4 = getelementptr inbounds { i64, i64 }, ptr %residual, i32 0, i32 1
  store i64 %1, ptr %4, align 8
  call void @llvm.dbg.declare(metadata ptr %residual, metadata !421, metadata !DIExpression()), !dbg !426
  %5 = getelementptr inbounds { i64, i64 }, ptr %residual, i32 0, i32 0, !dbg !427
  %e.0 = load i64, ptr %5, align 8, !dbg !427, !range !428, !noundef !18
  %6 = getelementptr inbounds { i64, i64 }, ptr %residual, i32 0, i32 1, !dbg !427
  %e.1 = load i64, ptr %6, align 8, !dbg !427
  %7 = getelementptr inbounds { i64, i64 }, ptr %e.dbg.spill, i32 0, i32 0, !dbg !427
  store i64 %e.0, ptr %7, align 8, !dbg !427
  %8 = getelementptr inbounds { i64, i64 }, ptr %e.dbg.spill, i32 0, i32 1, !dbg !427
  store i64 %e.1, ptr %8, align 8, !dbg !427
  call void @llvm.dbg.declare(metadata ptr %e.dbg.spill, metadata !422, metadata !DIExpression()), !dbg !429
  store i64 %e.0, ptr %t.dbg.spill.i, align 8
  %9 = getelementptr inbounds { i64, i64 }, ptr %t.dbg.spill.i, i32 0, i32 1
  store i64 %e.1, ptr %9, align 8
  call void @llvm.dbg.declare(metadata ptr %t.dbg.spill.i, metadata !430, metadata !DIExpression()), !dbg !439
  %10 = insertvalue { i64, i64 } poison, i64 %e.0, 0, !dbg !441
  %11 = insertvalue { i64, i64 } %10, i64 %e.1, 1, !dbg !441
  %_3.0 = extractvalue { i64, i64 } %11, 0, !dbg !442
  %_3.1 = extractvalue { i64, i64 } %11, 1, !dbg !442
  %12 = getelementptr inbounds %"core::result::Result<(structures::paging::frame::PhysFrame<structures::paging::page::Size1GiB>, structures::paging::mapper::MapperFlush<structures::paging::page::Size1GiB>), structures::paging::mapper::UnmapError>::Err", ptr %_0, i32 0, i32 1, !dbg !443
  %13 = getelementptr inbounds { i64, i64 }, ptr %12, i32 0, i32 0, !dbg !443
  store i64 %_3.0, ptr %13, align 8, !dbg !443
  %14 = getelementptr inbounds { i64, i64 }, ptr %12, i32 0, i32 1, !dbg !443
  store i64 %_3.1, ptr %14, align 8, !dbg !443
  store i64 1, ptr %_0, align 8, !dbg !443
  ret void, !dbg !444
}

; <core::result::Result<T,F> as core::ops::try_trait::FromResidual<core::result::Result<core::convert::Infallible,E>>>::from_residual
; Function Attrs: inlinehint noredzone nounwind
define void @"_ZN153_$LT$core..result..Result$LT$T$C$F$GT$$u20$as$u20$core..ops..try_trait..FromResidual$LT$core..result..Result$LT$core..convert..Infallible$C$E$GT$$GT$$GT$13from_residual17h9a5e04ac0dc09f02E"(ptr sret(%"core::result::Result<(structures::paging::frame::PhysFrame<structures::paging::page::Size2MiB>, structures::paging::mapper::MapperFlush<structures::paging::page::Size2MiB>), structures::paging::mapper::UnmapError>") align 8 %_0, i64 %0, i64 %1, ptr align 8 %2) unnamed_addr #0 !dbg !445 {
start:
  %t.dbg.spill.i = alloca { i64, i64 }, align 8
  %e.dbg.spill = alloca { i64, i64 }, align 8
  %residual = alloca { i64, i64 }, align 8
  %3 = getelementptr inbounds { i64, i64 }, ptr %residual, i32 0, i32 0
  store i64 %0, ptr %3, align 8
  %4 = getelementptr inbounds { i64, i64 }, ptr %residual, i32 0, i32 1
  store i64 %1, ptr %4, align 8
  call void @llvm.dbg.declare(metadata ptr %residual, metadata !487, metadata !DIExpression()), !dbg !491
  %5 = getelementptr inbounds { i64, i64 }, ptr %residual, i32 0, i32 0, !dbg !492
  %e.0 = load i64, ptr %5, align 8, !dbg !492, !range !428, !noundef !18
  %6 = getelementptr inbounds { i64, i64 }, ptr %residual, i32 0, i32 1, !dbg !492
  %e.1 = load i64, ptr %6, align 8, !dbg !492
  %7 = getelementptr inbounds { i64, i64 }, ptr %e.dbg.spill, i32 0, i32 0, !dbg !492
  store i64 %e.0, ptr %7, align 8, !dbg !492
  %8 = getelementptr inbounds { i64, i64 }, ptr %e.dbg.spill, i32 0, i32 1, !dbg !492
  store i64 %e.1, ptr %8, align 8, !dbg !492
  call void @llvm.dbg.declare(metadata ptr %e.dbg.spill, metadata !488, metadata !DIExpression()), !dbg !493
  store i64 %e.0, ptr %t.dbg.spill.i, align 8
  %9 = getelementptr inbounds { i64, i64 }, ptr %t.dbg.spill.i, i32 0, i32 1
  store i64 %e.1, ptr %9, align 8
  call void @llvm.dbg.declare(metadata ptr %t.dbg.spill.i, metadata !430, metadata !DIExpression()), !dbg !494
  %10 = insertvalue { i64, i64 } poison, i64 %e.0, 0, !dbg !496
  %11 = insertvalue { i64, i64 } %10, i64 %e.1, 1, !dbg !496
  %_3.0 = extractvalue { i64, i64 } %11, 0, !dbg !497
  %_3.1 = extractvalue { i64, i64 } %11, 1, !dbg !497
  %12 = getelementptr inbounds %"core::result::Result<(structures::paging::frame::PhysFrame<structures::paging::page::Size2MiB>, structures::paging::mapper::MapperFlush<structures::paging::page::Size2MiB>), structures::paging::mapper::UnmapError>::Err", ptr %_0, i32 0, i32 1, !dbg !498
  %13 = getelementptr inbounds { i64, i64 }, ptr %12, i32 0, i32 0, !dbg !498
  store i64 %_3.0, ptr %13, align 8, !dbg !498
  %14 = getelementptr inbounds { i64, i64 }, ptr %12, i32 0, i32 1, !dbg !498
  store i64 %_3.1, ptr %14, align 8, !dbg !498
  store i64 1, ptr %_0, align 8, !dbg !498
  ret void, !dbg !499
}

; <core::result::Result<T,F> as core::ops::try_trait::FromResidual<core::result::Result<core::convert::Infallible,E>>>::from_residual
; Function Attrs: inlinehint noredzone nounwind
define void @"_ZN153_$LT$core..result..Result$LT$T$C$F$GT$$u20$as$u20$core..ops..try_trait..FromResidual$LT$core..result..Result$LT$core..convert..Infallible$C$E$GT$$GT$$GT$13from_residual17he99303f8fb88bcb3E"(ptr sret(%"core::result::Result<(structures::paging::frame::PhysFrame, structures::paging::mapper::MapperFlush<structures::paging::page::Size4KiB>), structures::paging::mapper::UnmapError>") align 8 %_0, i64 %0, i64 %1, ptr align 8 %2) unnamed_addr #0 !dbg !500 {
start:
  %t.dbg.spill.i = alloca { i64, i64 }, align 8
  %e.dbg.spill = alloca { i64, i64 }, align 8
  %residual = alloca { i64, i64 }, align 8
  %3 = getelementptr inbounds { i64, i64 }, ptr %residual, i32 0, i32 0
  store i64 %0, ptr %3, align 8
  %4 = getelementptr inbounds { i64, i64 }, ptr %residual, i32 0, i32 1
  store i64 %1, ptr %4, align 8
  call void @llvm.dbg.declare(metadata ptr %residual, metadata !542, metadata !DIExpression()), !dbg !546
  %5 = getelementptr inbounds { i64, i64 }, ptr %residual, i32 0, i32 0, !dbg !547
  %e.0 = load i64, ptr %5, align 8, !dbg !547, !range !428, !noundef !18
  %6 = getelementptr inbounds { i64, i64 }, ptr %residual, i32 0, i32 1, !dbg !547
  %e.1 = load i64, ptr %6, align 8, !dbg !547
  %7 = getelementptr inbounds { i64, i64 }, ptr %e.dbg.spill, i32 0, i32 0, !dbg !547
  store i64 %e.0, ptr %7, align 8, !dbg !547
  %8 = getelementptr inbounds { i64, i64 }, ptr %e.dbg.spill, i32 0, i32 1, !dbg !547
  store i64 %e.1, ptr %8, align 8, !dbg !547
  call void @llvm.dbg.declare(metadata ptr %e.dbg.spill, metadata !543, metadata !DIExpression()), !dbg !548
  store i64 %e.0, ptr %t.dbg.spill.i, align 8
  %9 = getelementptr inbounds { i64, i64 }, ptr %t.dbg.spill.i, i32 0, i32 1
  store i64 %e.1, ptr %9, align 8
  call void @llvm.dbg.declare(metadata ptr %t.dbg.spill.i, metadata !430, metadata !DIExpression()), !dbg !549
  %10 = insertvalue { i64, i64 } poison, i64 %e.0, 0, !dbg !551
  %11 = insertvalue { i64, i64 } %10, i64 %e.1, 1, !dbg !551
  %_3.0 = extractvalue { i64, i64 } %11, 0, !dbg !552
  %_3.1 = extractvalue { i64, i64 } %11, 1, !dbg !552
  %12 = getelementptr inbounds %"core::result::Result<(structures::paging::frame::PhysFrame, structures::paging::mapper::MapperFlush<structures::paging::page::Size4KiB>), structures::paging::mapper::UnmapError>::Err", ptr %_0, i32 0, i32 1, !dbg !553
  %13 = getelementptr inbounds { i64, i64 }, ptr %12, i32 0, i32 0, !dbg !553
  store i64 %_3.0, ptr %13, align 8, !dbg !553
  %14 = getelementptr inbounds { i64, i64 }, ptr %12, i32 0, i32 1, !dbg !553
  store i64 %_3.1, ptr %14, align 8, !dbg !553
  store i64 1, ptr %_0, align 8, !dbg !553
  ret void, !dbg !554
}

; <bool as core::fmt::Debug>::fmt
; Function Attrs: inlinehint noredzone nounwind
define internal zeroext i1 @"_ZN41_$LT$bool$u20$as$u20$core..fmt..Debug$GT$3fmt17h6bd201ce000b0294E"(ptr align 1 %self, ptr align 8 %f) unnamed_addr #0 !dbg !555 {
start:
  %f.dbg.spill = alloca ptr, align 8
  %self.dbg.spill = alloca ptr, align 8
  store ptr %self, ptr %self.dbg.spill, align 8
  call void @llvm.dbg.declare(metadata ptr %self.dbg.spill, metadata !562, metadata !DIExpression()), !dbg !564
  store ptr %f, ptr %f.dbg.spill, align 8
  call void @llvm.dbg.declare(metadata ptr %f.dbg.spill, metadata !563, metadata !DIExpression()), !dbg !565
; call <bool as core::fmt::Display>::fmt
  %_0 = call zeroext i1 @"_ZN43_$LT$bool$u20$as$u20$core..fmt..Display$GT$3fmt17h21f7f70325052013E"(ptr align 1 %self, ptr align 8 %f) #8, !dbg !566
  ret i1 %_0, !dbg !567
}

; <u16 as bit_field::BitField>::get_bits
; Function Attrs: inlinehint noredzone nounwind
define i16 @"_ZN43_$LT$u16$u20$as$u20$bit_field..BitField$GT$8get_bits17h7b08017188b0c65cE"(ptr align 2 %self, i64 %0, i64 %1) unnamed_addr #0 !dbg !568 {
start:
  %bits.dbg.spill = alloca i16, align 2
  %range.dbg.spill = alloca { i64, i64 }, align 8
  %self.dbg.spill = alloca ptr, align 8
  %range = alloca { i64, i64 }, align 8
  %2 = getelementptr inbounds { i64, i64 }, ptr %range, i32 0, i32 0
  store i64 %0, ptr %2, align 8
  %3 = getelementptr inbounds { i64, i64 }, ptr %range, i32 0, i32 1
  store i64 %1, ptr %3, align 8
  store ptr %self, ptr %self.dbg.spill, align 8
  call void @llvm.dbg.declare(metadata ptr %self.dbg.spill, metadata !584, metadata !DIExpression()), !dbg !592
  call void @llvm.dbg.declare(metadata ptr %range, metadata !585, metadata !DIExpression()), !dbg !593
; call bit_field::to_regular_range
  %4 = call { i64, i64 } @_ZN9bit_field16to_regular_range17h9e05adda646e2a98E(ptr align 8 %range, i64 16) #8, !dbg !594
  %range.0 = extractvalue { i64, i64 } %4, 0, !dbg !594
  %range.1 = extractvalue { i64, i64 } %4, 1, !dbg !594
  %5 = getelementptr inbounds { i64, i64 }, ptr %range.dbg.spill, i32 0, i32 0, !dbg !594
  store i64 %range.0, ptr %5, align 8, !dbg !594
  %6 = getelementptr inbounds { i64, i64 }, ptr %range.dbg.spill, i32 0, i32 1, !dbg !594
  store i64 %range.1, ptr %6, align 8, !dbg !594
  call void @llvm.dbg.declare(metadata ptr %range.dbg.spill, metadata !586, metadata !DIExpression()), !dbg !595
  %_5 = icmp ult i64 %range.0, 16, !dbg !596
  br i1 %_5, label %bb2, label %bb3, !dbg !596

bb3:                                              ; preds = %start
; call core::panicking::panic
  call void @_ZN4core9panicking5panic17h91639042aeeb9621E(ptr align 1 @alloc_43d3c3e34f8fc6589b4da1b1abdd7b57, i64 48, ptr align 8 @alloc_f4d2308b1a4d364a80c06ffe6643cbed) #9, !dbg !597
  unreachable, !dbg !597

bb2:                                              ; preds = %start
  %_8 = icmp ule i64 %range.1, 16, !dbg !598
  br i1 %_8, label %bb4, label %bb5, !dbg !598

bb5:                                              ; preds = %bb2
; call core::panicking::panic
  call void @_ZN4core9panicking5panic17h91639042aeeb9621E(ptr align 1 @alloc_d3619c0864e1cd3a4478ebd6749a56b0, i64 47, ptr align 8 @alloc_f4d2308b1a4d364a80c06ffe6643cbed) #9, !dbg !599
  unreachable, !dbg !599

bb4:                                              ; preds = %bb2
  %_11 = icmp ult i64 %range.0, %range.1, !dbg !600
  br i1 %_11, label %bb6, label %bb7, !dbg !600

bb7:                                              ; preds = %bb4
; call core::panicking::panic
  call void @_ZN4core9panicking5panic17h91639042aeeb9621E(ptr align 1 @alloc_fa3040d11952b12d3c67c30be76bc6a8, i64 41, ptr align 8 @alloc_f4d2308b1a4d364a80c06ffe6643cbed) #9, !dbg !601
  unreachable, !dbg !601

bb6:                                              ; preds = %bb4
  %_17 = load i16, ptr %self, align 2, !dbg !602, !noundef !18
  %_20.0 = sub i64 16, %range.1, !dbg !603
  %_20.1 = icmp ult i64 16, %range.1, !dbg !603
  %7 = call i1 @llvm.expect.i1(i1 %_20.1, i1 false), !dbg !603
  br i1 %7, label %panic, label %bb8, !dbg !603

bb8:                                              ; preds = %bb6
  %_21 = icmp ult i64 %_20.0, 16, !dbg !602
  %8 = call i1 @llvm.expect.i1(i1 %_21, i1 true), !dbg !602
  br i1 %8, label %bb9, label %panic1, !dbg !602

panic:                                            ; preds = %bb6
; call core::panicking::panic
  call void @_ZN4core9panicking5panic17h91639042aeeb9621E(ptr align 1 @str.0, i64 33, ptr align 8 @alloc_f4d2308b1a4d364a80c06ffe6643cbed) #9, !dbg !603
  unreachable, !dbg !603

bb9:                                              ; preds = %bb8
  %9 = trunc i64 %_20.0 to i16, !dbg !602
  %10 = and i16 %9, 15, !dbg !602
  %_16 = shl i16 %_17, %10, !dbg !602
  %_24.0 = sub i64 16, %range.1, !dbg !604
  %_24.1 = icmp ult i64 16, %range.1, !dbg !604
  %11 = call i1 @llvm.expect.i1(i1 %_24.1, i1 false), !dbg !604
  br i1 %11, label %panic2, label %bb10, !dbg !604

panic1:                                           ; preds = %bb8
; call core::panicking::panic
  call void @_ZN4core9panicking5panic17h91639042aeeb9621E(ptr align 1 @str.1, i64 35, ptr align 8 @alloc_f4d2308b1a4d364a80c06ffe6643cbed) #9, !dbg !602
  unreachable, !dbg !602

bb10:                                             ; preds = %bb9
  %_25 = icmp ult i64 %_24.0, 16, !dbg !602
  %12 = call i1 @llvm.expect.i1(i1 %_25, i1 true), !dbg !602
  br i1 %12, label %bb11, label %panic3, !dbg !602

panic2:                                           ; preds = %bb9
; call core::panicking::panic
  call void @_ZN4core9panicking5panic17h91639042aeeb9621E(ptr align 1 @str.0, i64 33, ptr align 8 @alloc_f4d2308b1a4d364a80c06ffe6643cbed) #9, !dbg !604
  unreachable, !dbg !604

bb11:                                             ; preds = %bb10
  %13 = trunc i64 %_24.0 to i16, !dbg !602
  %14 = and i16 %13, 15, !dbg !602
  %bits = lshr i16 %_16, %14, !dbg !602
  store i16 %bits, ptr %bits.dbg.spill, align 2, !dbg !602
  call void @llvm.dbg.declare(metadata ptr %bits.dbg.spill, metadata !588, metadata !DIExpression()), !dbg !605
  %_27 = icmp ult i64 %range.0, 16, !dbg !606
  %15 = call i1 @llvm.expect.i1(i1 %_27, i1 true), !dbg !606
  br i1 %15, label %bb12, label %panic4, !dbg !606

panic3:                                           ; preds = %bb10
; call core::panicking::panic
  call void @_ZN4core9panicking5panic17h91639042aeeb9621E(ptr align 1 @str.2, i64 36, ptr align 8 @alloc_f4d2308b1a4d364a80c06ffe6643cbed) #9, !dbg !602
  unreachable, !dbg !602

bb12:                                             ; preds = %bb11
  %16 = trunc i64 %range.0 to i16, !dbg !606
  %17 = and i16 %16, 15, !dbg !606
  %_0 = lshr i16 %bits, %17, !dbg !606
  ret i16 %_0, !dbg !607

panic4:                                           ; preds = %bb11
; call core::panicking::panic
  call void @_ZN4core9panicking5panic17h91639042aeeb9621E(ptr align 1 @str.2, i64 36, ptr align 8 @alloc_f4d2308b1a4d364a80c06ffe6643cbed) #9, !dbg !606
  unreachable, !dbg !606
}

; <u64 as bit_field::BitField>::get_bit
; Function Attrs: inlinehint noredzone nounwind
define internal zeroext i1 @"_ZN43_$LT$u64$u20$as$u20$bit_field..BitField$GT$7get_bit17h7dfd3dab7e76c857E"(ptr align 8 %self, i64 %bit) unnamed_addr #0 !dbg !608 {
start:
  %bit.dbg.spill = alloca i64, align 8
  %self.dbg.spill = alloca ptr, align 8
  store ptr %self, ptr %self.dbg.spill, align 8
  call void @llvm.dbg.declare(metadata ptr %self.dbg.spill, metadata !614, metadata !DIExpression()), !dbg !616
  store i64 %bit, ptr %bit.dbg.spill, align 8
  call void @llvm.dbg.declare(metadata ptr %bit.dbg.spill, metadata !615, metadata !DIExpression()), !dbg !617
  %_3 = icmp ult i64 %bit, 64, !dbg !618
  br i1 %_3, label %bb1, label %bb2, !dbg !618

bb2:                                              ; preds = %start
; call core::panicking::panic
  call void @_ZN4core9panicking5panic17h91639042aeeb9621E(ptr align 1 @alloc_6923360c3161738641b3989c6181ce08, i64 40, ptr align 8 @alloc_f4d2308b1a4d364a80c06ffe6643cbed) #9, !dbg !619
  unreachable, !dbg !619

bb1:                                              ; preds = %start
  %_6 = load i64, ptr %self, align 8, !dbg !620, !noundef !18
  %_8 = icmp ult i64 %bit, 64, !dbg !621
  %0 = call i1 @llvm.expect.i1(i1 %_8, i1 true), !dbg !621
  br i1 %0, label %bb3, label %panic, !dbg !621

bb3:                                              ; preds = %bb1
  %1 = and i64 %bit, 63, !dbg !621
  %_7 = shl i64 1, %1, !dbg !621
  %_5 = and i64 %_6, %_7, !dbg !622
  %_0 = icmp ne i64 %_5, 0, !dbg !622
  ret i1 %_0, !dbg !623

panic:                                            ; preds = %bb1
; call core::panicking::panic
  call void @_ZN4core9panicking5panic17h91639042aeeb9621E(ptr align 1 @str.1, i64 35, ptr align 8 @alloc_f4d2308b1a4d364a80c06ffe6643cbed) #9, !dbg !621
  unreachable, !dbg !621
}

; <u64 as bit_field::BitField>::get_bits
; Function Attrs: inlinehint noredzone nounwind
define i64 @"_ZN43_$LT$u64$u20$as$u20$bit_field..BitField$GT$8get_bits17h2f217ad10ee0b965E"(ptr align 8 %self, i64 %0, i64 %1) unnamed_addr #0 !dbg !624 {
start:
  %bits.dbg.spill = alloca i64, align 8
  %range.dbg.spill = alloca { i64, i64 }, align 8
  %self.dbg.spill = alloca ptr, align 8
  %range = alloca { i64, i64 }, align 8
  %2 = getelementptr inbounds { i64, i64 }, ptr %range, i32 0, i32 0
  store i64 %0, ptr %2, align 8
  %3 = getelementptr inbounds { i64, i64 }, ptr %range, i32 0, i32 1
  store i64 %1, ptr %3, align 8
  store ptr %self, ptr %self.dbg.spill, align 8
  call void @llvm.dbg.declare(metadata ptr %self.dbg.spill, metadata !628, metadata !DIExpression()), !dbg !634
  call void @llvm.dbg.declare(metadata ptr %range, metadata !629, metadata !DIExpression()), !dbg !635
; call bit_field::to_regular_range
  %4 = call { i64, i64 } @_ZN9bit_field16to_regular_range17h9e05adda646e2a98E(ptr align 8 %range, i64 64) #8, !dbg !636
  %range.0 = extractvalue { i64, i64 } %4, 0, !dbg !636
  %range.1 = extractvalue { i64, i64 } %4, 1, !dbg !636
  %5 = getelementptr inbounds { i64, i64 }, ptr %range.dbg.spill, i32 0, i32 0, !dbg !636
  store i64 %range.0, ptr %5, align 8, !dbg !636
  %6 = getelementptr inbounds { i64, i64 }, ptr %range.dbg.spill, i32 0, i32 1, !dbg !636
  store i64 %range.1, ptr %6, align 8, !dbg !636
  call void @llvm.dbg.declare(metadata ptr %range.dbg.spill, metadata !630, metadata !DIExpression()), !dbg !637
  %_5 = icmp ult i64 %range.0, 64, !dbg !638
  br i1 %_5, label %bb2, label %bb3, !dbg !638

bb3:                                              ; preds = %start
; call core::panicking::panic
  call void @_ZN4core9panicking5panic17h91639042aeeb9621E(ptr align 1 @alloc_43d3c3e34f8fc6589b4da1b1abdd7b57, i64 48, ptr align 8 @alloc_f4d2308b1a4d364a80c06ffe6643cbed) #9, !dbg !639
  unreachable, !dbg !639

bb2:                                              ; preds = %start
  %_8 = icmp ule i64 %range.1, 64, !dbg !640
  br i1 %_8, label %bb4, label %bb5, !dbg !640

bb5:                                              ; preds = %bb2
; call core::panicking::panic
  call void @_ZN4core9panicking5panic17h91639042aeeb9621E(ptr align 1 @alloc_d3619c0864e1cd3a4478ebd6749a56b0, i64 47, ptr align 8 @alloc_f4d2308b1a4d364a80c06ffe6643cbed) #9, !dbg !641
  unreachable, !dbg !641

bb4:                                              ; preds = %bb2
  %_11 = icmp ult i64 %range.0, %range.1, !dbg !642
  br i1 %_11, label %bb6, label %bb7, !dbg !642

bb7:                                              ; preds = %bb4
; call core::panicking::panic
  call void @_ZN4core9panicking5panic17h91639042aeeb9621E(ptr align 1 @alloc_fa3040d11952b12d3c67c30be76bc6a8, i64 41, ptr align 8 @alloc_f4d2308b1a4d364a80c06ffe6643cbed) #9, !dbg !643
  unreachable, !dbg !643

bb6:                                              ; preds = %bb4
  %_17 = load i64, ptr %self, align 8, !dbg !644, !noundef !18
  %_20.0 = sub i64 64, %range.1, !dbg !645
  %_20.1 = icmp ult i64 64, %range.1, !dbg !645
  %7 = call i1 @llvm.expect.i1(i1 %_20.1, i1 false), !dbg !645
  br i1 %7, label %panic, label %bb8, !dbg !645

bb8:                                              ; preds = %bb6
  %_21 = icmp ult i64 %_20.0, 64, !dbg !644
  %8 = call i1 @llvm.expect.i1(i1 %_21, i1 true), !dbg !644
  br i1 %8, label %bb9, label %panic1, !dbg !644

panic:                                            ; preds = %bb6
; call core::panicking::panic
  call void @_ZN4core9panicking5panic17h91639042aeeb9621E(ptr align 1 @str.0, i64 33, ptr align 8 @alloc_f4d2308b1a4d364a80c06ffe6643cbed) #9, !dbg !645
  unreachable, !dbg !645

bb9:                                              ; preds = %bb8
  %9 = and i64 %_20.0, 63, !dbg !644
  %_16 = shl i64 %_17, %9, !dbg !644
  %_24.0 = sub i64 64, %range.1, !dbg !646
  %_24.1 = icmp ult i64 64, %range.1, !dbg !646
  %10 = call i1 @llvm.expect.i1(i1 %_24.1, i1 false), !dbg !646
  br i1 %10, label %panic2, label %bb10, !dbg !646

panic1:                                           ; preds = %bb8
; call core::panicking::panic
  call void @_ZN4core9panicking5panic17h91639042aeeb9621E(ptr align 1 @str.1, i64 35, ptr align 8 @alloc_f4d2308b1a4d364a80c06ffe6643cbed) #9, !dbg !644
  unreachable, !dbg !644

bb10:                                             ; preds = %bb9
  %_25 = icmp ult i64 %_24.0, 64, !dbg !644
  %11 = call i1 @llvm.expect.i1(i1 %_25, i1 true), !dbg !644
  br i1 %11, label %bb11, label %panic3, !dbg !644

panic2:                                           ; preds = %bb9
; call core::panicking::panic
  call void @_ZN4core9panicking5panic17h91639042aeeb9621E(ptr align 1 @str.0, i64 33, ptr align 8 @alloc_f4d2308b1a4d364a80c06ffe6643cbed) #9, !dbg !646
  unreachable, !dbg !646

bb11:                                             ; preds = %bb10
  %12 = and i64 %_24.0, 63, !dbg !644
  %bits = lshr i64 %_16, %12, !dbg !644
  store i64 %bits, ptr %bits.dbg.spill, align 8, !dbg !644
  call void @llvm.dbg.declare(metadata ptr %bits.dbg.spill, metadata !632, metadata !DIExpression()), !dbg !647
  %_27 = icmp ult i64 %range.0, 64, !dbg !648
  %13 = call i1 @llvm.expect.i1(i1 %_27, i1 true), !dbg !648
  br i1 %13, label %bb12, label %panic4, !dbg !648

panic3:                                           ; preds = %bb10
; call core::panicking::panic
  call void @_ZN4core9panicking5panic17h91639042aeeb9621E(ptr align 1 @str.2, i64 36, ptr align 8 @alloc_f4d2308b1a4d364a80c06ffe6643cbed) #9, !dbg !644
  unreachable, !dbg !644

bb12:                                             ; preds = %bb11
  %14 = and i64 %range.0, 63, !dbg !648
  %_0 = lshr i64 %bits, %14, !dbg !648
  ret i64 %_0, !dbg !649

panic4:                                           ; preds = %bb11
; call core::panicking::panic
  call void @_ZN4core9panicking5panic17h91639042aeeb9621E(ptr align 1 @str.2, i64 36, ptr align 8 @alloc_f4d2308b1a4d364a80c06ffe6643cbed) #9, !dbg !648
  unreachable, !dbg !648
}

; <u64 as bit_field::BitField>::get_bits
; Function Attrs: inlinehint noredzone nounwind
define i64 @"_ZN43_$LT$u64$u20$as$u20$bit_field..BitField$GT$8get_bits17ha1bbc32d3ecac5b1E"(ptr align 8 %self, i64 %0) unnamed_addr #0 !dbg !650 {
start:
  %bits.dbg.spill = alloca i64, align 8
  %range.dbg.spill = alloca { i64, i64 }, align 8
  %self.dbg.spill = alloca ptr, align 8
  %range = alloca i64, align 8
  store i64 %0, ptr %range, align 8
  store ptr %self, ptr %self.dbg.spill, align 8
  call void @llvm.dbg.declare(metadata ptr %self.dbg.spill, metadata !657, metadata !DIExpression()), !dbg !665
  call void @llvm.dbg.declare(metadata ptr %range, metadata !658, metadata !DIExpression()), !dbg !666
; call bit_field::to_regular_range
  %1 = call { i64, i64 } @_ZN9bit_field16to_regular_range17h85f94678ea43449eE(ptr align 8 %range, i64 64) #8, !dbg !667
  %range.0 = extractvalue { i64, i64 } %1, 0, !dbg !667
  %range.1 = extractvalue { i64, i64 } %1, 1, !dbg !667
  %2 = getelementptr inbounds { i64, i64 }, ptr %range.dbg.spill, i32 0, i32 0, !dbg !667
  store i64 %range.0, ptr %2, align 8, !dbg !667
  %3 = getelementptr inbounds { i64, i64 }, ptr %range.dbg.spill, i32 0, i32 1, !dbg !667
  store i64 %range.1, ptr %3, align 8, !dbg !667
  call void @llvm.dbg.declare(metadata ptr %range.dbg.spill, metadata !659, metadata !DIExpression()), !dbg !668
  %_5 = icmp ult i64 %range.0, 64, !dbg !669
  br i1 %_5, label %bb2, label %bb3, !dbg !669

bb3:                                              ; preds = %start
; call core::panicking::panic
  call void @_ZN4core9panicking5panic17h91639042aeeb9621E(ptr align 1 @alloc_43d3c3e34f8fc6589b4da1b1abdd7b57, i64 48, ptr align 8 @alloc_f4d2308b1a4d364a80c06ffe6643cbed) #9, !dbg !670
  unreachable, !dbg !670

bb2:                                              ; preds = %start
  %_8 = icmp ule i64 %range.1, 64, !dbg !671
  br i1 %_8, label %bb4, label %bb5, !dbg !671

bb5:                                              ; preds = %bb2
; call core::panicking::panic
  call void @_ZN4core9panicking5panic17h91639042aeeb9621E(ptr align 1 @alloc_d3619c0864e1cd3a4478ebd6749a56b0, i64 47, ptr align 8 @alloc_f4d2308b1a4d364a80c06ffe6643cbed) #9, !dbg !672
  unreachable, !dbg !672

bb4:                                              ; preds = %bb2
  %_11 = icmp ult i64 %range.0, %range.1, !dbg !673
  br i1 %_11, label %bb6, label %bb7, !dbg !673

bb7:                                              ; preds = %bb4
; call core::panicking::panic
  call void @_ZN4core9panicking5panic17h91639042aeeb9621E(ptr align 1 @alloc_fa3040d11952b12d3c67c30be76bc6a8, i64 41, ptr align 8 @alloc_f4d2308b1a4d364a80c06ffe6643cbed) #9, !dbg !674
  unreachable, !dbg !674

bb6:                                              ; preds = %bb4
  %_17 = load i64, ptr %self, align 8, !dbg !675, !noundef !18
  %_20.0 = sub i64 64, %range.1, !dbg !676
  %_20.1 = icmp ult i64 64, %range.1, !dbg !676
  %4 = call i1 @llvm.expect.i1(i1 %_20.1, i1 false), !dbg !676
  br i1 %4, label %panic, label %bb8, !dbg !676

bb8:                                              ; preds = %bb6
  %_21 = icmp ult i64 %_20.0, 64, !dbg !675
  %5 = call i1 @llvm.expect.i1(i1 %_21, i1 true), !dbg !675
  br i1 %5, label %bb9, label %panic1, !dbg !675

panic:                                            ; preds = %bb6
; call core::panicking::panic
  call void @_ZN4core9panicking5panic17h91639042aeeb9621E(ptr align 1 @str.0, i64 33, ptr align 8 @alloc_f4d2308b1a4d364a80c06ffe6643cbed) #9, !dbg !676
  unreachable, !dbg !676

bb9:                                              ; preds = %bb8
  %6 = and i64 %_20.0, 63, !dbg !675
  %_16 = shl i64 %_17, %6, !dbg !675
  %_24.0 = sub i64 64, %range.1, !dbg !677
  %_24.1 = icmp ult i64 64, %range.1, !dbg !677
  %7 = call i1 @llvm.expect.i1(i1 %_24.1, i1 false), !dbg !677
  br i1 %7, label %panic2, label %bb10, !dbg !677

panic1:                                           ; preds = %bb8
; call core::panicking::panic
  call void @_ZN4core9panicking5panic17h91639042aeeb9621E(ptr align 1 @str.1, i64 35, ptr align 8 @alloc_f4d2308b1a4d364a80c06ffe6643cbed) #9, !dbg !675
  unreachable, !dbg !675

bb10:                                             ; preds = %bb9
  %_25 = icmp ult i64 %_24.0, 64, !dbg !675
  %8 = call i1 @llvm.expect.i1(i1 %_25, i1 true), !dbg !675
  br i1 %8, label %bb11, label %panic3, !dbg !675

panic2:                                           ; preds = %bb9
; call core::panicking::panic
  call void @_ZN4core9panicking5panic17h91639042aeeb9621E(ptr align 1 @str.0, i64 33, ptr align 8 @alloc_f4d2308b1a4d364a80c06ffe6643cbed) #9, !dbg !677
  unreachable, !dbg !677

bb11:                                             ; preds = %bb10
  %9 = and i64 %_24.0, 63, !dbg !675
  %bits = lshr i64 %_16, %9, !dbg !675
  store i64 %bits, ptr %bits.dbg.spill, align 8, !dbg !675
  call void @llvm.dbg.declare(metadata ptr %bits.dbg.spill, metadata !661, metadata !DIExpression()), !dbg !678
  %_27 = icmp ult i64 %range.0, 64, !dbg !679
  %10 = call i1 @llvm.expect.i1(i1 %_27, i1 true), !dbg !679
  br i1 %10, label %bb12, label %panic4, !dbg !679

panic3:                                           ; preds = %bb10
; call core::panicking::panic
  call void @_ZN4core9panicking5panic17h91639042aeeb9621E(ptr align 1 @str.2, i64 36, ptr align 8 @alloc_f4d2308b1a4d364a80c06ffe6643cbed) #9, !dbg !675
  unreachable, !dbg !675

bb12:                                             ; preds = %bb11
  %11 = and i64 %range.0, 63, !dbg !679
  %_0 = lshr i64 %bits, %11, !dbg !679
  ret i64 %_0, !dbg !680

panic4:                                           ; preds = %bb11
; call core::panicking::panic
  call void @_ZN4core9panicking5panic17h91639042aeeb9621E(ptr align 1 @str.2, i64 36, ptr align 8 @alloc_f4d2308b1a4d364a80c06ffe6643cbed) #9, !dbg !679
  unreachable, !dbg !679
}

; <u64 as bit_field::BitField>::set_bits
; Function Attrs: inlinehint noredzone nounwind
define align 8 ptr @"_ZN43_$LT$u64$u20$as$u20$bit_field..BitField$GT$8set_bits17haaf318cdd880d486E"(ptr align 8 %self, i64 %0, i64 %value) unnamed_addr #0 !dbg !681 {
start:
  %bitmask.dbg.spill = alloca i64, align 8
  %range.dbg.spill = alloca { i64, i64 }, align 8
  %value.dbg.spill = alloca i64, align 8
  %self.dbg.spill = alloca ptr, align 8
  %range = alloca i64, align 8
  store i64 %0, ptr %range, align 8
  store ptr %self, ptr %self.dbg.spill, align 8
  call void @llvm.dbg.declare(metadata ptr %self.dbg.spill, metadata !686, metadata !DIExpression()), !dbg !693
  call void @llvm.dbg.declare(metadata ptr %range, metadata !687, metadata !DIExpression()), !dbg !694
  store i64 %value, ptr %value.dbg.spill, align 8
  call void @llvm.dbg.declare(metadata ptr %value.dbg.spill, metadata !688, metadata !DIExpression()), !dbg !695
; call bit_field::to_regular_range
  %1 = call { i64, i64 } @_ZN9bit_field16to_regular_range17h85f94678ea43449eE(ptr align 8 %range, i64 64) #8, !dbg !696
  %range.0 = extractvalue { i64, i64 } %1, 0, !dbg !696
  %range.1 = extractvalue { i64, i64 } %1, 1, !dbg !696
  %2 = getelementptr inbounds { i64, i64 }, ptr %range.dbg.spill, i32 0, i32 0, !dbg !696
  store i64 %range.0, ptr %2, align 8, !dbg !696
  %3 = getelementptr inbounds { i64, i64 }, ptr %range.dbg.spill, i32 0, i32 1, !dbg !696
  store i64 %range.1, ptr %3, align 8, !dbg !696
  call void @llvm.dbg.declare(metadata ptr %range.dbg.spill, metadata !689, metadata !DIExpression()), !dbg !697
  %_6 = icmp ult i64 %range.0, 64, !dbg !698
  br i1 %_6, label %bb2, label %bb3, !dbg !698

bb3:                                              ; preds = %start
; call core::panicking::panic
  call void @_ZN4core9panicking5panic17h91639042aeeb9621E(ptr align 1 @alloc_43d3c3e34f8fc6589b4da1b1abdd7b57, i64 48, ptr align 8 @alloc_f4d2308b1a4d364a80c06ffe6643cbed) #9, !dbg !699
  unreachable, !dbg !699

bb2:                                              ; preds = %start
  %_9 = icmp ule i64 %range.1, 64, !dbg !700
  br i1 %_9, label %bb4, label %bb5, !dbg !700

bb5:                                              ; preds = %bb2
; call core::panicking::panic
  call void @_ZN4core9panicking5panic17h91639042aeeb9621E(ptr align 1 @alloc_d3619c0864e1cd3a4478ebd6749a56b0, i64 47, ptr align 8 @alloc_f4d2308b1a4d364a80c06ffe6643cbed) #9, !dbg !701
  unreachable, !dbg !701

bb4:                                              ; preds = %bb2
  %_12 = icmp ult i64 %range.0, %range.1, !dbg !702
  br i1 %_12, label %bb6, label %bb7, !dbg !702

bb7:                                              ; preds = %bb4
; call core::panicking::panic
  call void @_ZN4core9panicking5panic17h91639042aeeb9621E(ptr align 1 @alloc_fa3040d11952b12d3c67c30be76bc6a8, i64 41, ptr align 8 @alloc_f4d2308b1a4d364a80c06ffe6643cbed) #9, !dbg !703
  unreachable, !dbg !703

bb6:                                              ; preds = %bb4
  %_23.0 = sub i64 %range.1, %range.0, !dbg !704
  %_23.1 = icmp ult i64 %range.1, %range.0, !dbg !704
  %4 = call i1 @llvm.expect.i1(i1 %_23.1, i1 false), !dbg !704
  br i1 %4, label %panic, label %bb8, !dbg !704

bb8:                                              ; preds = %bb6
  %_24.0 = sub i64 64, %_23.0, !dbg !705
  %_24.1 = icmp ult i64 64, %_23.0, !dbg !705
  %5 = call i1 @llvm.expect.i1(i1 %_24.1, i1 false), !dbg !705
  br i1 %5, label %panic1, label %bb9, !dbg !705

panic:                                            ; preds = %bb6
; call core::panicking::panic
  call void @_ZN4core9panicking5panic17h91639042aeeb9621E(ptr align 1 @str.0, i64 33, ptr align 8 @alloc_f4d2308b1a4d364a80c06ffe6643cbed) #9, !dbg !704
  unreachable, !dbg !704

bb9:                                              ; preds = %bb8
  %_25 = icmp ult i64 %_24.0, 64, !dbg !706
  %6 = call i1 @llvm.expect.i1(i1 %_25, i1 true), !dbg !706
  br i1 %6, label %bb10, label %panic2, !dbg !706

panic1:                                           ; preds = %bb8
; call core::panicking::panic
  call void @_ZN4core9panicking5panic17h91639042aeeb9621E(ptr align 1 @str.0, i64 33, ptr align 8 @alloc_f4d2308b1a4d364a80c06ffe6643cbed) #9, !dbg !705
  unreachable, !dbg !705

bb10:                                             ; preds = %bb9
  %7 = and i64 %_24.0, 63, !dbg !706
  %_18 = shl i64 %value, %7, !dbg !706
  %_30.0 = sub i64 %range.1, %range.0, !dbg !707
  %_30.1 = icmp ult i64 %range.1, %range.0, !dbg !707
  %8 = call i1 @llvm.expect.i1(i1 %_30.1, i1 false), !dbg !707
  br i1 %8, label %panic3, label %bb11, !dbg !707

panic2:                                           ; preds = %bb9
; call core::panicking::panic
  call void @_ZN4core9panicking5panic17h91639042aeeb9621E(ptr align 1 @str.1, i64 35, ptr align 8 @alloc_f4d2308b1a4d364a80c06ffe6643cbed) #9, !dbg !706
  unreachable, !dbg !706

bb11:                                             ; preds = %bb10
  %_31.0 = sub i64 64, %_30.0, !dbg !708
  %_31.1 = icmp ult i64 64, %_30.0, !dbg !708
  %9 = call i1 @llvm.expect.i1(i1 %_31.1, i1 false), !dbg !708
  br i1 %9, label %panic4, label %bb12, !dbg !708

panic3:                                           ; preds = %bb10
; call core::panicking::panic
  call void @_ZN4core9panicking5panic17h91639042aeeb9621E(ptr align 1 @str.0, i64 33, ptr align 8 @alloc_f4d2308b1a4d364a80c06ffe6643cbed) #9, !dbg !707
  unreachable, !dbg !707

bb12:                                             ; preds = %bb11
  %_32 = icmp ult i64 %_31.0, 64, !dbg !706
  %10 = call i1 @llvm.expect.i1(i1 %_32, i1 true), !dbg !706
  br i1 %10, label %bb13, label %panic5, !dbg !706

panic4:                                           ; preds = %bb11
; call core::panicking::panic
  call void @_ZN4core9panicking5panic17h91639042aeeb9621E(ptr align 1 @str.0, i64 33, ptr align 8 @alloc_f4d2308b1a4d364a80c06ffe6643cbed) #9, !dbg !708
  unreachable, !dbg !708

bb13:                                             ; preds = %bb12
  %11 = and i64 %_31.0, 63, !dbg !706
  %_17 = lshr i64 %_18, %11, !dbg !706
  %_16 = icmp eq i64 %_17, %value, !dbg !706
  br i1 %_16, label %bb14, label %bb15, !dbg !706

panic5:                                           ; preds = %bb12
; call core::panicking::panic
  call void @_ZN4core9panicking5panic17h91639042aeeb9621E(ptr align 1 @str.2, i64 36, ptr align 8 @alloc_f4d2308b1a4d364a80c06ffe6643cbed) #9, !dbg !706
  unreachable, !dbg !706

bb15:                                             ; preds = %bb13
; call core::panicking::panic
  call void @_ZN4core9panicking5panic17h91639042aeeb9621E(ptr align 1 @alloc_8500726b2f23ea792acf9a1d33d50d56, i64 33, ptr align 8 @alloc_f4d2308b1a4d364a80c06ffe6643cbed) #9, !dbg !709
  unreachable, !dbg !709

bb14:                                             ; preds = %bb13
  %_42.0 = sub i64 64, %range.1, !dbg !710
  %_42.1 = icmp ult i64 64, %range.1, !dbg !710
  %12 = call i1 @llvm.expect.i1(i1 %_42.1, i1 false), !dbg !710
  br i1 %12, label %panic6, label %bb16, !dbg !710

bb16:                                             ; preds = %bb14
  %_43 = icmp ult i64 %_42.0, 64, !dbg !711
  %13 = call i1 @llvm.expect.i1(i1 %_43, i1 true), !dbg !711
  br i1 %13, label %bb17, label %panic7, !dbg !711

panic6:                                           ; preds = %bb14
; call core::panicking::panic
  call void @_ZN4core9panicking5panic17h91639042aeeb9621E(ptr align 1 @str.0, i64 33, ptr align 8 @alloc_f4d2308b1a4d364a80c06ffe6643cbed) #9, !dbg !710
  unreachable, !dbg !710

bb17:                                             ; preds = %bb16
  %14 = and i64 %_42.0, 63, !dbg !711
  %_38 = shl i64 -1, %14, !dbg !711
  %_46.0 = sub i64 64, %range.1, !dbg !712
  %_46.1 = icmp ult i64 64, %range.1, !dbg !712
  %15 = call i1 @llvm.expect.i1(i1 %_46.1, i1 false), !dbg !712
  br i1 %15, label %panic8, label %bb18, !dbg !712

panic7:                                           ; preds = %bb16
; call core::panicking::panic
  call void @_ZN4core9panicking5panic17h91639042aeeb9621E(ptr align 1 @str.1, i64 35, ptr align 8 @alloc_f4d2308b1a4d364a80c06ffe6643cbed) #9, !dbg !711
  unreachable, !dbg !711

bb18:                                             ; preds = %bb17
  %_47 = icmp ult i64 %_46.0, 64, !dbg !711
  %16 = call i1 @llvm.expect.i1(i1 %_47, i1 true), !dbg !711
  br i1 %16, label %bb19, label %panic9, !dbg !711

panic8:                                           ; preds = %bb17
; call core::panicking::panic
  call void @_ZN4core9panicking5panic17h91639042aeeb9621E(ptr align 1 @str.0, i64 33, ptr align 8 @alloc_f4d2308b1a4d364a80c06ffe6643cbed) #9, !dbg !712
  unreachable, !dbg !712

bb19:                                             ; preds = %bb18
  %17 = and i64 %_46.0, 63, !dbg !711
  %_37 = lshr i64 %_38, %17, !dbg !711
  %_49 = icmp ult i64 %range.0, 64, !dbg !711
  %18 = call i1 @llvm.expect.i1(i1 %_49, i1 true), !dbg !711
  br i1 %18, label %bb20, label %panic10, !dbg !711

panic9:                                           ; preds = %bb18
; call core::panicking::panic
  call void @_ZN4core9panicking5panic17h91639042aeeb9621E(ptr align 1 @str.2, i64 36, ptr align 8 @alloc_f4d2308b1a4d364a80c06ffe6643cbed) #9, !dbg !711
  unreachable, !dbg !711

bb20:                                             ; preds = %bb19
  %19 = and i64 %range.0, 63, !dbg !711
  %_36 = lshr i64 %_37, %19, !dbg !711
  %_51 = icmp ult i64 %range.0, 64, !dbg !713
  %20 = call i1 @llvm.expect.i1(i1 %_51, i1 true), !dbg !713
  br i1 %20, label %bb21, label %panic11, !dbg !713

panic10:                                          ; preds = %bb19
; call core::panicking::panic
  call void @_ZN4core9panicking5panic17h91639042aeeb9621E(ptr align 1 @str.2, i64 36, ptr align 8 @alloc_f4d2308b1a4d364a80c06ffe6643cbed) #9, !dbg !711
  unreachable, !dbg !711

bb21:                                             ; preds = %bb20
  %21 = and i64 %range.0, 63, !dbg !713
  %_35 = shl i64 %_36, %21, !dbg !713
  %bitmask = xor i64 %_35, -1, !dbg !714
  store i64 %bitmask, ptr %bitmask.dbg.spill, align 8, !dbg !714
  call void @llvm.dbg.declare(metadata ptr %bitmask.dbg.spill, metadata !691, metadata !DIExpression()), !dbg !715
  %_53 = load i64, ptr %self, align 8, !dbg !716, !noundef !18
  %_52 = and i64 %_53, %bitmask, !dbg !717
  %_56 = icmp ult i64 %range.0, 64, !dbg !718
  %22 = call i1 @llvm.expect.i1(i1 %_56, i1 true), !dbg !718
  br i1 %22, label %bb22, label %panic12, !dbg !718

panic11:                                          ; preds = %bb20
; call core::panicking::panic
  call void @_ZN4core9panicking5panic17h91639042aeeb9621E(ptr align 1 @str.1, i64 35, ptr align 8 @alloc_f4d2308b1a4d364a80c06ffe6643cbed) #9, !dbg !713
  unreachable, !dbg !713

bb22:                                             ; preds = %bb21
  %23 = and i64 %range.0, 63, !dbg !718
  %_54 = shl i64 %value, %23, !dbg !718
  %24 = or i64 %_52, %_54, !dbg !719
  store i64 %24, ptr %self, align 8, !dbg !719
  ret ptr %self, !dbg !720

panic12:                                          ; preds = %bb21
; call core::panicking::panic
  call void @_ZN4core9panicking5panic17h91639042aeeb9621E(ptr align 1 @str.1, i64 35, ptr align 8 @alloc_f4d2308b1a4d364a80c06ffe6643cbed) #9, !dbg !718
  unreachable, !dbg !718
}

; <u64 as bit_field::BitField>::set_bits
; Function Attrs: inlinehint noredzone nounwind
define align 8 ptr @"_ZN43_$LT$u64$u20$as$u20$bit_field..BitField$GT$8set_bits17hc3755f31b40a6134E"(ptr align 8 %self, i64 %0, i64 %1, i64 %value) unnamed_addr #0 !dbg !721 {
start:
  %bitmask.dbg.spill = alloca i64, align 8
  %range.dbg.spill = alloca { i64, i64 }, align 8
  %value.dbg.spill = alloca i64, align 8
  %self.dbg.spill = alloca ptr, align 8
  %range = alloca { i64, i64 }, align 8
  %2 = getelementptr inbounds { i64, i64 }, ptr %range, i32 0, i32 0
  store i64 %0, ptr %2, align 8
  %3 = getelementptr inbounds { i64, i64 }, ptr %range, i32 0, i32 1
  store i64 %1, ptr %3, align 8
  store ptr %self, ptr %self.dbg.spill, align 8
  call void @llvm.dbg.declare(metadata ptr %self.dbg.spill, metadata !725, metadata !DIExpression()), !dbg !732
  call void @llvm.dbg.declare(metadata ptr %range, metadata !726, metadata !DIExpression()), !dbg !733
  store i64 %value, ptr %value.dbg.spill, align 8
  call void @llvm.dbg.declare(metadata ptr %value.dbg.spill, metadata !727, metadata !DIExpression()), !dbg !734
; call bit_field::to_regular_range
  %4 = call { i64, i64 } @_ZN9bit_field16to_regular_range17h9e05adda646e2a98E(ptr align 8 %range, i64 64) #8, !dbg !735
  %range.0 = extractvalue { i64, i64 } %4, 0, !dbg !735
  %range.1 = extractvalue { i64, i64 } %4, 1, !dbg !735
  %5 = getelementptr inbounds { i64, i64 }, ptr %range.dbg.spill, i32 0, i32 0, !dbg !735
  store i64 %range.0, ptr %5, align 8, !dbg !735
  %6 = getelementptr inbounds { i64, i64 }, ptr %range.dbg.spill, i32 0, i32 1, !dbg !735
  store i64 %range.1, ptr %6, align 8, !dbg !735
  call void @llvm.dbg.declare(metadata ptr %range.dbg.spill, metadata !728, metadata !DIExpression()), !dbg !736
  %_6 = icmp ult i64 %range.0, 64, !dbg !737
  br i1 %_6, label %bb2, label %bb3, !dbg !737

bb3:                                              ; preds = %start
; call core::panicking::panic
  call void @_ZN4core9panicking5panic17h91639042aeeb9621E(ptr align 1 @alloc_43d3c3e34f8fc6589b4da1b1abdd7b57, i64 48, ptr align 8 @alloc_f4d2308b1a4d364a80c06ffe6643cbed) #9, !dbg !738
  unreachable, !dbg !738

bb2:                                              ; preds = %start
  %_9 = icmp ule i64 %range.1, 64, !dbg !739
  br i1 %_9, label %bb4, label %bb5, !dbg !739

bb5:                                              ; preds = %bb2
; call core::panicking::panic
  call void @_ZN4core9panicking5panic17h91639042aeeb9621E(ptr align 1 @alloc_d3619c0864e1cd3a4478ebd6749a56b0, i64 47, ptr align 8 @alloc_f4d2308b1a4d364a80c06ffe6643cbed) #9, !dbg !740
  unreachable, !dbg !740

bb4:                                              ; preds = %bb2
  %_12 = icmp ult i64 %range.0, %range.1, !dbg !741
  br i1 %_12, label %bb6, label %bb7, !dbg !741

bb7:                                              ; preds = %bb4
; call core::panicking::panic
  call void @_ZN4core9panicking5panic17h91639042aeeb9621E(ptr align 1 @alloc_fa3040d11952b12d3c67c30be76bc6a8, i64 41, ptr align 8 @alloc_f4d2308b1a4d364a80c06ffe6643cbed) #9, !dbg !742
  unreachable, !dbg !742

bb6:                                              ; preds = %bb4
  %_23.0 = sub i64 %range.1, %range.0, !dbg !743
  %_23.1 = icmp ult i64 %range.1, %range.0, !dbg !743
  %7 = call i1 @llvm.expect.i1(i1 %_23.1, i1 false), !dbg !743
  br i1 %7, label %panic, label %bb8, !dbg !743

bb8:                                              ; preds = %bb6
  %_24.0 = sub i64 64, %_23.0, !dbg !744
  %_24.1 = icmp ult i64 64, %_23.0, !dbg !744
  %8 = call i1 @llvm.expect.i1(i1 %_24.1, i1 false), !dbg !744
  br i1 %8, label %panic1, label %bb9, !dbg !744

panic:                                            ; preds = %bb6
; call core::panicking::panic
  call void @_ZN4core9panicking5panic17h91639042aeeb9621E(ptr align 1 @str.0, i64 33, ptr align 8 @alloc_f4d2308b1a4d364a80c06ffe6643cbed) #9, !dbg !743
  unreachable, !dbg !743

bb9:                                              ; preds = %bb8
  %_25 = icmp ult i64 %_24.0, 64, !dbg !745
  %9 = call i1 @llvm.expect.i1(i1 %_25, i1 true), !dbg !745
  br i1 %9, label %bb10, label %panic2, !dbg !745

panic1:                                           ; preds = %bb8
; call core::panicking::panic
  call void @_ZN4core9panicking5panic17h91639042aeeb9621E(ptr align 1 @str.0, i64 33, ptr align 8 @alloc_f4d2308b1a4d364a80c06ffe6643cbed) #9, !dbg !744
  unreachable, !dbg !744

bb10:                                             ; preds = %bb9
  %10 = and i64 %_24.0, 63, !dbg !745
  %_18 = shl i64 %value, %10, !dbg !745
  %_30.0 = sub i64 %range.1, %range.0, !dbg !746
  %_30.1 = icmp ult i64 %range.1, %range.0, !dbg !746
  %11 = call i1 @llvm.expect.i1(i1 %_30.1, i1 false), !dbg !746
  br i1 %11, label %panic3, label %bb11, !dbg !746

panic2:                                           ; preds = %bb9
; call core::panicking::panic
  call void @_ZN4core9panicking5panic17h91639042aeeb9621E(ptr align 1 @str.1, i64 35, ptr align 8 @alloc_f4d2308b1a4d364a80c06ffe6643cbed) #9, !dbg !745
  unreachable, !dbg !745

bb11:                                             ; preds = %bb10
  %_31.0 = sub i64 64, %_30.0, !dbg !747
  %_31.1 = icmp ult i64 64, %_30.0, !dbg !747
  %12 = call i1 @llvm.expect.i1(i1 %_31.1, i1 false), !dbg !747
  br i1 %12, label %panic4, label %bb12, !dbg !747

panic3:                                           ; preds = %bb10
; call core::panicking::panic
  call void @_ZN4core9panicking5panic17h91639042aeeb9621E(ptr align 1 @str.0, i64 33, ptr align 8 @alloc_f4d2308b1a4d364a80c06ffe6643cbed) #9, !dbg !746
  unreachable, !dbg !746

bb12:                                             ; preds = %bb11
  %_32 = icmp ult i64 %_31.0, 64, !dbg !745
  %13 = call i1 @llvm.expect.i1(i1 %_32, i1 true), !dbg !745
  br i1 %13, label %bb13, label %panic5, !dbg !745

panic4:                                           ; preds = %bb11
; call core::panicking::panic
  call void @_ZN4core9panicking5panic17h91639042aeeb9621E(ptr align 1 @str.0, i64 33, ptr align 8 @alloc_f4d2308b1a4d364a80c06ffe6643cbed) #9, !dbg !747
  unreachable, !dbg !747

bb13:                                             ; preds = %bb12
  %14 = and i64 %_31.0, 63, !dbg !745
  %_17 = lshr i64 %_18, %14, !dbg !745
  %_16 = icmp eq i64 %_17, %value, !dbg !745
  br i1 %_16, label %bb14, label %bb15, !dbg !745

panic5:                                           ; preds = %bb12
; call core::panicking::panic
  call void @_ZN4core9panicking5panic17h91639042aeeb9621E(ptr align 1 @str.2, i64 36, ptr align 8 @alloc_f4d2308b1a4d364a80c06ffe6643cbed) #9, !dbg !745
  unreachable, !dbg !745

bb15:                                             ; preds = %bb13
; call core::panicking::panic
  call void @_ZN4core9panicking5panic17h91639042aeeb9621E(ptr align 1 @alloc_8500726b2f23ea792acf9a1d33d50d56, i64 33, ptr align 8 @alloc_f4d2308b1a4d364a80c06ffe6643cbed) #9, !dbg !748
  unreachable, !dbg !748

bb14:                                             ; preds = %bb13
  %_42.0 = sub i64 64, %range.1, !dbg !749
  %_42.1 = icmp ult i64 64, %range.1, !dbg !749
  %15 = call i1 @llvm.expect.i1(i1 %_42.1, i1 false), !dbg !749
  br i1 %15, label %panic6, label %bb16, !dbg !749

bb16:                                             ; preds = %bb14
  %_43 = icmp ult i64 %_42.0, 64, !dbg !750
  %16 = call i1 @llvm.expect.i1(i1 %_43, i1 true), !dbg !750
  br i1 %16, label %bb17, label %panic7, !dbg !750

panic6:                                           ; preds = %bb14
; call core::panicking::panic
  call void @_ZN4core9panicking5panic17h91639042aeeb9621E(ptr align 1 @str.0, i64 33, ptr align 8 @alloc_f4d2308b1a4d364a80c06ffe6643cbed) #9, !dbg !749
  unreachable, !dbg !749

bb17:                                             ; preds = %bb16
  %17 = and i64 %_42.0, 63, !dbg !750
  %_38 = shl i64 -1, %17, !dbg !750
  %_46.0 = sub i64 64, %range.1, !dbg !751
  %_46.1 = icmp ult i64 64, %range.1, !dbg !751
  %18 = call i1 @llvm.expect.i1(i1 %_46.1, i1 false), !dbg !751
  br i1 %18, label %panic8, label %bb18, !dbg !751

panic7:                                           ; preds = %bb16
; call core::panicking::panic
  call void @_ZN4core9panicking5panic17h91639042aeeb9621E(ptr align 1 @str.1, i64 35, ptr align 8 @alloc_f4d2308b1a4d364a80c06ffe6643cbed) #9, !dbg !750
  unreachable, !dbg !750

bb18:                                             ; preds = %bb17
  %_47 = icmp ult i64 %_46.0, 64, !dbg !750
  %19 = call i1 @llvm.expect.i1(i1 %_47, i1 true), !dbg !750
  br i1 %19, label %bb19, label %panic9, !dbg !750

panic8:                                           ; preds = %bb17
; call core::panicking::panic
  call void @_ZN4core9panicking5panic17h91639042aeeb9621E(ptr align 1 @str.0, i64 33, ptr align 8 @alloc_f4d2308b1a4d364a80c06ffe6643cbed) #9, !dbg !751
  unreachable, !dbg !751

bb19:                                             ; preds = %bb18
  %20 = and i64 %_46.0, 63, !dbg !750
  %_37 = lshr i64 %_38, %20, !dbg !750
  %_49 = icmp ult i64 %range.0, 64, !dbg !750
  %21 = call i1 @llvm.expect.i1(i1 %_49, i1 true), !dbg !750
  br i1 %21, label %bb20, label %panic10, !dbg !750

panic9:                                           ; preds = %bb18
; call core::panicking::panic
  call void @_ZN4core9panicking5panic17h91639042aeeb9621E(ptr align 1 @str.2, i64 36, ptr align 8 @alloc_f4d2308b1a4d364a80c06ffe6643cbed) #9, !dbg !750
  unreachable, !dbg !750

bb20:                                             ; preds = %bb19
  %22 = and i64 %range.0, 63, !dbg !750
  %_36 = lshr i64 %_37, %22, !dbg !750
  %_51 = icmp ult i64 %range.0, 64, !dbg !752
  %23 = call i1 @llvm.expect.i1(i1 %_51, i1 true), !dbg !752
  br i1 %23, label %bb21, label %panic11, !dbg !752

panic10:                                          ; preds = %bb19
; call core::panicking::panic
  call void @_ZN4core9panicking5panic17h91639042aeeb9621E(ptr align 1 @str.2, i64 36, ptr align 8 @alloc_f4d2308b1a4d364a80c06ffe6643cbed) #9, !dbg !750
  unreachable, !dbg !750

bb21:                                             ; preds = %bb20
  %24 = and i64 %range.0, 63, !dbg !752
  %_35 = shl i64 %_36, %24, !dbg !752
  %bitmask = xor i64 %_35, -1, !dbg !753
  store i64 %bitmask, ptr %bitmask.dbg.spill, align 8, !dbg !753
  call void @llvm.dbg.declare(metadata ptr %bitmask.dbg.spill, metadata !730, metadata !DIExpression()), !dbg !754
  %_53 = load i64, ptr %self, align 8, !dbg !755, !noundef !18
  %_52 = and i64 %_53, %bitmask, !dbg !756
  %_56 = icmp ult i64 %range.0, 64, !dbg !757
  %25 = call i1 @llvm.expect.i1(i1 %_56, i1 true), !dbg !757
  br i1 %25, label %bb22, label %panic12, !dbg !757

panic11:                                          ; preds = %bb20
; call core::panicking::panic
  call void @_ZN4core9panicking5panic17h91639042aeeb9621E(ptr align 1 @str.1, i64 35, ptr align 8 @alloc_f4d2308b1a4d364a80c06ffe6643cbed) #9, !dbg !752
  unreachable, !dbg !752

bb22:                                             ; preds = %bb21
  %26 = and i64 %range.0, 63, !dbg !757
  %_54 = shl i64 %value, %26, !dbg !757
  %27 = or i64 %_52, %_54, !dbg !758
  store i64 %27, ptr %self, align 8, !dbg !758
  ret ptr %self, !dbg !759

panic12:                                          ; preds = %bb21
; call core::panicking::panic
  call void @_ZN4core9panicking5panic17h91639042aeeb9621E(ptr align 1 @str.1, i64 35, ptr align 8 @alloc_f4d2308b1a4d364a80c06ffe6643cbed) #9, !dbg !757
  unreachable, !dbg !757
}

; core::fmt::num::<impl core::fmt::Debug for u16>::fmt
; Function Attrs: inlinehint noredzone nounwind
define internal zeroext i1 @"_ZN4core3fmt3num50_$LT$impl$u20$core..fmt..Debug$u20$for$u20$u16$GT$3fmt17h63eb0c0692067a7bE"(ptr align 2 %self, ptr align 8 %f) unnamed_addr #0 !dbg !760 {
start:
  %f.dbg.spill = alloca ptr, align 8
  %self.dbg.spill = alloca ptr, align 8
  %_0 = alloca i8, align 1
  store ptr %self, ptr %self.dbg.spill, align 8
  call void @llvm.dbg.declare(metadata ptr %self.dbg.spill, metadata !767, metadata !DIExpression()), !dbg !769
  store ptr %f, ptr %f.dbg.spill, align 8
  call void @llvm.dbg.declare(metadata ptr %f.dbg.spill, metadata !768, metadata !DIExpression()), !dbg !770
; call core::fmt::Formatter::debug_lower_hex
  %_3 = call zeroext i1 @_ZN4core3fmt9Formatter15debug_lower_hex17h55e41ffa0a34162dE(ptr align 8 %f) #8, !dbg !771
  br i1 %_3, label %bb2, label %bb3, !dbg !771

bb3:                                              ; preds = %start
; call core::fmt::Formatter::debug_upper_hex
  %_5 = call zeroext i1 @_ZN4core3fmt9Formatter15debug_upper_hex17heb52bce54d8bca08E(ptr align 8 %f) #8, !dbg !772
  br i1 %_5, label %bb5, label %bb6, !dbg !772

bb2:                                              ; preds = %start
; call core::fmt::num::<impl core::fmt::LowerHex for u16>::fmt
  %0 = call zeroext i1 @"_ZN4core3fmt3num53_$LT$impl$u20$core..fmt..LowerHex$u20$for$u20$u16$GT$3fmt17h8f68270a7a8e5139E"(ptr align 2 %self, ptr align 8 %f) #8, !dbg !773
  %1 = zext i1 %0 to i8, !dbg !773
  store i8 %1, ptr %_0, align 1, !dbg !773
  br label %bb7, !dbg !773

bb6:                                              ; preds = %bb3
; call core::fmt::num::imp::<impl core::fmt::Display for u16>::fmt
  %2 = call zeroext i1 @"_ZN4core3fmt3num3imp52_$LT$impl$u20$core..fmt..Display$u20$for$u20$u16$GT$3fmt17hbc603be54a0b25f9E"(ptr align 2 %self, ptr align 8 %f) #8, !dbg !774
  %3 = zext i1 %2 to i8, !dbg !774
  store i8 %3, ptr %_0, align 1, !dbg !774
  br label %bb7, !dbg !774

bb5:                                              ; preds = %bb3
; call core::fmt::num::<impl core::fmt::UpperHex for u16>::fmt
  %4 = call zeroext i1 @"_ZN4core3fmt3num53_$LT$impl$u20$core..fmt..UpperHex$u20$for$u20$u16$GT$3fmt17h4d371bb507c9038cE"(ptr align 2 %self, ptr align 8 %f) #8, !dbg !775
  %5 = zext i1 %4 to i8, !dbg !775
  store i8 %5, ptr %_0, align 1, !dbg !775
  br label %bb7, !dbg !775

bb7:                                              ; preds = %bb2, %bb5, %bb6
  %6 = load i8, ptr %_0, align 1, !dbg !776, !range !777, !noundef !18
  %7 = trunc i8 %6 to i1, !dbg !776
  ret i1 %7, !dbg !776
}

; core::fmt::num::<impl core::fmt::Debug for u64>::fmt
; Function Attrs: inlinehint noredzone nounwind
define internal zeroext i1 @"_ZN4core3fmt3num50_$LT$impl$u20$core..fmt..Debug$u20$for$u20$u64$GT$3fmt17h5475832f1374dde5E"(ptr align 8 %self, ptr align 8 %f) unnamed_addr #0 !dbg !778 {
start:
  %f.dbg.spill = alloca ptr, align 8
  %self.dbg.spill = alloca ptr, align 8
  %_0 = alloca i8, align 1
  store ptr %self, ptr %self.dbg.spill, align 8
  call void @llvm.dbg.declare(metadata ptr %self.dbg.spill, metadata !783, metadata !DIExpression()), !dbg !785
  store ptr %f, ptr %f.dbg.spill, align 8
  call void @llvm.dbg.declare(metadata ptr %f.dbg.spill, metadata !784, metadata !DIExpression()), !dbg !786
; call core::fmt::Formatter::debug_lower_hex
  %_3 = call zeroext i1 @_ZN4core3fmt9Formatter15debug_lower_hex17h55e41ffa0a34162dE(ptr align 8 %f) #8, !dbg !787
  br i1 %_3, label %bb2, label %bb3, !dbg !787

bb3:                                              ; preds = %start
; call core::fmt::Formatter::debug_upper_hex
  %_5 = call zeroext i1 @_ZN4core3fmt9Formatter15debug_upper_hex17heb52bce54d8bca08E(ptr align 8 %f) #8, !dbg !788
  br i1 %_5, label %bb5, label %bb6, !dbg !788

bb2:                                              ; preds = %start
; call core::fmt::num::<impl core::fmt::LowerHex for u64>::fmt
  %0 = call zeroext i1 @"_ZN4core3fmt3num53_$LT$impl$u20$core..fmt..LowerHex$u20$for$u20$u64$GT$3fmt17hd234c40214b86a5bE"(ptr align 8 %self, ptr align 8 %f) #8, !dbg !789
  %1 = zext i1 %0 to i8, !dbg !789
  store i8 %1, ptr %_0, align 1, !dbg !789
  br label %bb7, !dbg !789

bb6:                                              ; preds = %bb3
; call core::fmt::num::imp::<impl core::fmt::Display for u64>::fmt
  %2 = call zeroext i1 @"_ZN4core3fmt3num3imp52_$LT$impl$u20$core..fmt..Display$u20$for$u20$u64$GT$3fmt17h993b31f9a203eab9E"(ptr align 8 %self, ptr align 8 %f) #8, !dbg !790
  %3 = zext i1 %2 to i8, !dbg !790
  store i8 %3, ptr %_0, align 1, !dbg !790
  br label %bb7, !dbg !790

bb5:                                              ; preds = %bb3
; call core::fmt::num::<impl core::fmt::UpperHex for u64>::fmt
  %4 = call zeroext i1 @"_ZN4core3fmt3num53_$LT$impl$u20$core..fmt..UpperHex$u20$for$u20$u64$GT$3fmt17h61905abb65fdf3a4E"(ptr align 8 %self, ptr align 8 %f) #8, !dbg !791
  %5 = zext i1 %4 to i8, !dbg !791
  store i8 %5, ptr %_0, align 1, !dbg !791
  br label %bb7, !dbg !791

bb7:                                              ; preds = %bb2, %bb5, %bb6
  %6 = load i8, ptr %_0, align 1, !dbg !792, !range !777, !noundef !18
  %7 = trunc i8 %6 to i1, !dbg !792
  ret i1 %7, !dbg !792
}

; core::fmt::Arguments::new_v1_formatted
; Function Attrs: inlinehint noredzone nounwind
define internal void @_ZN4core3fmt9Arguments16new_v1_formatted17hf17d20f1d265c757E(ptr sret(%"core::fmt::Arguments<'_>") align 8 %_0, ptr align 8 %pieces.0, i64 %pieces.1, ptr align 8 %args.0, i64 %args.1, ptr align 8 %fmt.0, i64 %fmt.1) unnamed_addr #0 !dbg !793 {
start:
  %_4.dbg.spill = alloca %"core::fmt::rt::UnsafeArg", align 1
  %fmt.dbg.spill = alloca { ptr, i64 }, align 8
  %args.dbg.spill = alloca { ptr, i64 }, align 8
  %pieces.dbg.spill = alloca { ptr, i64 }, align 8
  %_5 = alloca { ptr, i64 }, align 8
  %_unsafe_arg.dbg.spill = alloca %"core::fmt::rt::UnsafeArg", align 1
  call void @llvm.dbg.declare(metadata ptr %_unsafe_arg.dbg.spill, metadata !804, metadata !DIExpression()), !dbg !806
  %0 = getelementptr inbounds { ptr, i64 }, ptr %pieces.dbg.spill, i32 0, i32 0, !dbg !806
  store ptr %pieces.0, ptr %0, align 8, !dbg !806
  %1 = getelementptr inbounds { ptr, i64 }, ptr %pieces.dbg.spill, i32 0, i32 1, !dbg !806
  store i64 %pieces.1, ptr %1, align 8, !dbg !806
  call void @llvm.dbg.declare(metadata ptr %pieces.dbg.spill, metadata !801, metadata !DIExpression()), !dbg !807
  %2 = getelementptr inbounds { ptr, i64 }, ptr %args.dbg.spill, i32 0, i32 0, !dbg !806
  store ptr %args.0, ptr %2, align 8, !dbg !806
  %3 = getelementptr inbounds { ptr, i64 }, ptr %args.dbg.spill, i32 0, i32 1, !dbg !806
  store i64 %args.1, ptr %3, align 8, !dbg !806
  call void @llvm.dbg.declare(metadata ptr %args.dbg.spill, metadata !802, metadata !DIExpression()), !dbg !808
  %4 = getelementptr inbounds { ptr, i64 }, ptr %fmt.dbg.spill, i32 0, i32 0, !dbg !806
  store ptr %fmt.0, ptr %4, align 8, !dbg !806
  %5 = getelementptr inbounds { ptr, i64 }, ptr %fmt.dbg.spill, i32 0, i32 1, !dbg !806
  store i64 %fmt.1, ptr %5, align 8, !dbg !806
  call void @llvm.dbg.declare(metadata ptr %fmt.dbg.spill, metadata !803, metadata !DIExpression()), !dbg !809
  call void @llvm.dbg.declare(metadata ptr %_4.dbg.spill, metadata !805, metadata !DIExpression()), !dbg !806
  %6 = getelementptr inbounds { ptr, i64 }, ptr %_5, i32 0, i32 0, !dbg !810
  store ptr %fmt.0, ptr %6, align 8, !dbg !810
  %7 = getelementptr inbounds { ptr, i64 }, ptr %_5, i32 0, i32 1, !dbg !810
  store i64 %fmt.1, ptr %7, align 8, !dbg !810
  %8 = getelementptr inbounds { ptr, i64 }, ptr %_0, i32 0, i32 0, !dbg !811
  store ptr %pieces.0, ptr %8, align 8, !dbg !811
  %9 = getelementptr inbounds { ptr, i64 }, ptr %_0, i32 0, i32 1, !dbg !811
  store i64 %pieces.1, ptr %9, align 8, !dbg !811
  %10 = getelementptr inbounds { ptr, i64 }, ptr %_5, i32 0, i32 0, !dbg !811
  %11 = load ptr, ptr %10, align 8, !dbg !811, !align !812, !noundef !18
  %12 = getelementptr inbounds { ptr, i64 }, ptr %_5, i32 0, i32 1, !dbg !811
  %13 = load i64, ptr %12, align 8, !dbg !811
  %14 = getelementptr inbounds %"core::fmt::Arguments<'_>", ptr %_0, i32 0, i32 2, !dbg !811
  %15 = getelementptr inbounds { ptr, i64 }, ptr %14, i32 0, i32 0, !dbg !811
  store ptr %11, ptr %15, align 8, !dbg !811
  %16 = getelementptr inbounds { ptr, i64 }, ptr %14, i32 0, i32 1, !dbg !811
  store i64 %13, ptr %16, align 8, !dbg !811
  %17 = getelementptr inbounds %"core::fmt::Arguments<'_>", ptr %_0, i32 0, i32 1, !dbg !811
  %18 = getelementptr inbounds { ptr, i64 }, ptr %17, i32 0, i32 0, !dbg !811
  store ptr %args.0, ptr %18, align 8, !dbg !811
  %19 = getelementptr inbounds { ptr, i64 }, ptr %17, i32 0, i32 1, !dbg !811
  store i64 %args.1, ptr %19, align 8, !dbg !811
  ret void, !dbg !813
}

; core::fmt::Arguments::new_v1
; Function Attrs: inlinehint noredzone nounwind
define internal void @_ZN4core3fmt9Arguments6new_v117hbb9994ecce7fe67eE(ptr sret(%"core::fmt::Arguments<'_>") align 8 %_0, ptr align 8 %pieces.0, i64 %pieces.1, ptr align 8 %args.0, i64 %args.1) unnamed_addr #0 !dbg !814 {
start:
  %args.dbg.spill = alloca { ptr, i64 }, align 8
  %pieces.dbg.spill = alloca { ptr, i64 }, align 8
  %_14 = alloca { ptr, i64 }, align 8
  %_12 = alloca %"core::fmt::Arguments<'_>", align 8
  %0 = getelementptr inbounds { ptr, i64 }, ptr %pieces.dbg.spill, i32 0, i32 0
  store ptr %pieces.0, ptr %0, align 8
  %1 = getelementptr inbounds { ptr, i64 }, ptr %pieces.dbg.spill, i32 0, i32 1
  store i64 %pieces.1, ptr %1, align 8
  call void @llvm.dbg.declare(metadata ptr %pieces.dbg.spill, metadata !819, metadata !DIExpression()), !dbg !821
  %2 = getelementptr inbounds { ptr, i64 }, ptr %args.dbg.spill, i32 0, i32 0
  store ptr %args.0, ptr %2, align 8
  %3 = getelementptr inbounds { ptr, i64 }, ptr %args.dbg.spill, i32 0, i32 1
  store i64 %args.1, ptr %3, align 8
  call void @llvm.dbg.declare(metadata ptr %args.dbg.spill, metadata !820, metadata !DIExpression()), !dbg !822
  %_3 = icmp ult i64 %pieces.1, %args.1, !dbg !823
  br i1 %_3, label %bb3, label %bb1, !dbg !823

bb1:                                              ; preds = %start
  %4 = call { i64, i1 } @llvm.uadd.with.overflow.i64(i64 %args.1, i64 1), !dbg !824
  %_10.0 = extractvalue { i64, i1 } %4, 0, !dbg !824
  %_10.1 = extractvalue { i64, i1 } %4, 1, !dbg !824
  %5 = call i1 @llvm.expect.i1(i1 %_10.1, i1 false), !dbg !824
  br i1 %5, label %panic, label %bb2, !dbg !824

bb3:                                              ; preds = %bb2, %start
; call core::fmt::Arguments::new_const
  call void @_ZN4core3fmt9Arguments9new_const17h83886342be577089E(ptr sret(%"core::fmt::Arguments<'_>") align 8 %_12, ptr align 8 @alloc_af99043bc04c419363a7f04d23183506, i64 1) #8, !dbg !825
; call core::panicking::panic_fmt
  call void @_ZN4core9panicking9panic_fmt17h7c3b1a7d9368f16cE(ptr align 8 %_12, ptr align 8 @alloc_a128bb0331e9cbfe13a5df140fd20243) #9, !dbg !825
  unreachable, !dbg !825

bb2:                                              ; preds = %bb1
  %_6 = icmp ugt i64 %pieces.1, %_10.0, !dbg !826
  br i1 %_6, label %bb3, label %bb5, !dbg !826

panic:                                            ; preds = %bb1
; call core::panicking::panic
  call void @_ZN4core9panicking5panic17h91639042aeeb9621E(ptr align 1 @str.3, i64 28, ptr align 8 @alloc_1d488b18c5f7c1d3858ca9f0071c91c8) #9, !dbg !824
  unreachable, !dbg !824

bb5:                                              ; preds = %bb2
  store ptr null, ptr %_14, align 8, !dbg !827
  %6 = getelementptr inbounds { ptr, i64 }, ptr %_0, i32 0, i32 0, !dbg !828
  store ptr %pieces.0, ptr %6, align 8, !dbg !828
  %7 = getelementptr inbounds { ptr, i64 }, ptr %_0, i32 0, i32 1, !dbg !828
  store i64 %pieces.1, ptr %7, align 8, !dbg !828
  %8 = getelementptr inbounds { ptr, i64 }, ptr %_14, i32 0, i32 0, !dbg !828
  %9 = load ptr, ptr %8, align 8, !dbg !828, !align !812, !noundef !18
  %10 = getelementptr inbounds { ptr, i64 }, ptr %_14, i32 0, i32 1, !dbg !828
  %11 = load i64, ptr %10, align 8, !dbg !828
  %12 = getelementptr inbounds %"core::fmt::Arguments<'_>", ptr %_0, i32 0, i32 2, !dbg !828
  %13 = getelementptr inbounds { ptr, i64 }, ptr %12, i32 0, i32 0, !dbg !828
  store ptr %9, ptr %13, align 8, !dbg !828
  %14 = getelementptr inbounds { ptr, i64 }, ptr %12, i32 0, i32 1, !dbg !828
  store i64 %11, ptr %14, align 8, !dbg !828
  %15 = getelementptr inbounds %"core::fmt::Arguments<'_>", ptr %_0, i32 0, i32 1, !dbg !828
  %16 = getelementptr inbounds { ptr, i64 }, ptr %15, i32 0, i32 0, !dbg !828
  store ptr %args.0, ptr %16, align 8, !dbg !828
  %17 = getelementptr inbounds { ptr, i64 }, ptr %15, i32 0, i32 1, !dbg !828
  store i64 %args.1, ptr %17, align 8, !dbg !828
  ret void, !dbg !829
}

; core::fmt::Arguments::new_const
; Function Attrs: inlinehint noredzone nounwind
define internal void @_ZN4core3fmt9Arguments9new_const17h83886342be577089E(ptr sret(%"core::fmt::Arguments<'_>") align 8 %_0, ptr align 8 %pieces.0, i64 %pieces.1) unnamed_addr #0 !dbg !830 {
start:
  %pieces.dbg.spill = alloca { ptr, i64 }, align 8
  %_7 = alloca { ptr, i64 }, align 8
  %_5 = alloca %"core::fmt::Arguments<'_>", align 8
  %0 = getelementptr inbounds { ptr, i64 }, ptr %pieces.dbg.spill, i32 0, i32 0
  store ptr %pieces.0, ptr %0, align 8
  %1 = getelementptr inbounds { ptr, i64 }, ptr %pieces.dbg.spill, i32 0, i32 1
  store i64 %pieces.1, ptr %1, align 8
  call void @llvm.dbg.declare(metadata ptr %pieces.dbg.spill, metadata !835, metadata !DIExpression()), !dbg !836
  %_2 = icmp ugt i64 %pieces.1, 1, !dbg !837
  br i1 %_2, label %bb1, label %bb3, !dbg !837

bb3:                                              ; preds = %start
  store ptr null, ptr %_7, align 8, !dbg !838
  %2 = getelementptr inbounds { ptr, i64 }, ptr %_0, i32 0, i32 0, !dbg !839
  store ptr %pieces.0, ptr %2, align 8, !dbg !839
  %3 = getelementptr inbounds { ptr, i64 }, ptr %_0, i32 0, i32 1, !dbg !839
  store i64 %pieces.1, ptr %3, align 8, !dbg !839
  %4 = getelementptr inbounds { ptr, i64 }, ptr %_7, i32 0, i32 0, !dbg !839
  %5 = load ptr, ptr %4, align 8, !dbg !839, !align !812, !noundef !18
  %6 = getelementptr inbounds { ptr, i64 }, ptr %_7, i32 0, i32 1, !dbg !839
  %7 = load i64, ptr %6, align 8, !dbg !839
  %8 = getelementptr inbounds %"core::fmt::Arguments<'_>", ptr %_0, i32 0, i32 2, !dbg !839
  %9 = getelementptr inbounds { ptr, i64 }, ptr %8, i32 0, i32 0, !dbg !839
  store ptr %5, ptr %9, align 8, !dbg !839
  %10 = getelementptr inbounds { ptr, i64 }, ptr %8, i32 0, i32 1, !dbg !839
  store i64 %7, ptr %10, align 8, !dbg !839
  %11 = getelementptr inbounds %"core::fmt::Arguments<'_>", ptr %_0, i32 0, i32 1, !dbg !839
  %12 = getelementptr inbounds { ptr, i64 }, ptr %11, i32 0, i32 0, !dbg !839
  store ptr @alloc_513570631223a12912d85da2bec3b15a, ptr %12, align 8, !dbg !839
  %13 = getelementptr inbounds { ptr, i64 }, ptr %11, i32 0, i32 1, !dbg !839
  store i64 0, ptr %13, align 8, !dbg !839
  ret void, !dbg !840

bb1:                                              ; preds = %start
; call core::fmt::Arguments::new_const
  call void @_ZN4core3fmt9Arguments9new_const17h83886342be577089E(ptr sret(%"core::fmt::Arguments<'_>") align 8 %_5, ptr align 8 @alloc_af99043bc04c419363a7f04d23183506, i64 1) #8, !dbg !841
; call core::panicking::panic_fmt
  call void @_ZN4core9panicking9panic_fmt17h7c3b1a7d9368f16cE(ptr align 8 %_5, ptr align 8 @alloc_40dc4a2e4fa36320ad05a7f7aeedf921) #9, !dbg !841
  unreachable, !dbg !841
}

; core::num::<impl u64>::checked_add
; Function Attrs: inlinehint noredzone nounwind
define internal { i64, i64 } @"_ZN4core3num21_$LT$impl$u20$u64$GT$11checked_add17hf75fef985298072bE"(i64 %self, i64 %rhs) unnamed_addr #0 !dbg !842 {
start:
  %b.dbg.spill.i = alloca i8, align 1
  %a.dbg.spill.i = alloca i64, align 8
  %rhs.dbg.spill.i = alloca i64, align 8
  %self.dbg.spill.i = alloca i64, align 8
  %_0.i = alloca { i64, i8 }, align 8
  %0 = alloca i8, align 1
  %b.dbg.spill = alloca i8, align 1
  %a.dbg.spill = alloca i64, align 8
  %rhs.dbg.spill = alloca i64, align 8
  %self.dbg.spill = alloca i64, align 8
  %_0 = alloca { i64, i64 }, align 8
  store i64 %self, ptr %self.dbg.spill, align 8
  call void @llvm.dbg.declare(metadata ptr %self.dbg.spill, metadata !862, metadata !DIExpression()), !dbg !867
  store i64 %rhs, ptr %rhs.dbg.spill, align 8
  call void @llvm.dbg.declare(metadata ptr %rhs.dbg.spill, metadata !863, metadata !DIExpression()), !dbg !868
  store i64 %self, ptr %self.dbg.spill.i, align 8
  call void @llvm.dbg.declare(metadata ptr %self.dbg.spill.i, metadata !869, metadata !DIExpression()), !dbg !882
  store i64 %rhs, ptr %rhs.dbg.spill.i, align 8
  call void @llvm.dbg.declare(metadata ptr %rhs.dbg.spill.i, metadata !878, metadata !DIExpression()), !dbg !884
  %1 = call { i64, i1 } @llvm.uadd.with.overflow.i64(i64 %self, i64 %rhs), !dbg !885
  %_5.0.i = extractvalue { i64, i1 } %1, 0, !dbg !885
  %_5.1.i = extractvalue { i64, i1 } %1, 1, !dbg !885
  store i64 %_5.0.i, ptr %a.dbg.spill.i, align 8, !dbg !886
  call void @llvm.dbg.declare(metadata ptr %a.dbg.spill.i, metadata !879, metadata !DIExpression()), !dbg !887
  %2 = zext i1 %_5.1.i to i8, !dbg !888
  store i8 %2, ptr %b.dbg.spill.i, align 1, !dbg !888
  call void @llvm.dbg.declare(metadata ptr %b.dbg.spill.i, metadata !881, metadata !DIExpression()), !dbg !889
  store i64 %_5.0.i, ptr %_0.i, align 8, !dbg !890
  %3 = getelementptr inbounds { i64, i8 }, ptr %_0.i, i32 0, i32 1, !dbg !890
  %4 = zext i1 %_5.1.i to i8, !dbg !890
  store i8 %4, ptr %3, align 8, !dbg !890
  %5 = load i64, ptr %_0.i, align 8, !dbg !891, !noundef !18
  %6 = getelementptr inbounds { i64, i8 }, ptr %_0.i, i32 0, i32 1, !dbg !891
  %7 = load i8, ptr %6, align 8, !dbg !891, !range !777, !noundef !18
  %8 = trunc i8 %7 to i1, !dbg !891
  %9 = zext i1 %8 to i8, !dbg !891
  %10 = insertvalue { i64, i8 } poison, i64 %5, 0, !dbg !891
  %11 = insertvalue { i64, i8 } %10, i8 %9, 1, !dbg !891
  %_5.0 = extractvalue { i64, i8 } %11, 0, !dbg !892
  %12 = extractvalue { i64, i8 } %11, 1, !dbg !892
  %_5.1 = trunc i8 %12 to i1, !dbg !892
  store i64 %_5.0, ptr %a.dbg.spill, align 8, !dbg !893
  call void @llvm.dbg.declare(metadata ptr %a.dbg.spill, metadata !864, metadata !DIExpression()), !dbg !894
  %13 = zext i1 %_5.1 to i8, !dbg !895
  store i8 %13, ptr %b.dbg.spill, align 1, !dbg !895
  call void @llvm.dbg.declare(metadata ptr %b.dbg.spill, metadata !866, metadata !DIExpression()), !dbg !896
  %14 = call i1 @llvm.expect.i1(i1 %_5.1, i1 false), !dbg !897
  %15 = zext i1 %14 to i8, !dbg !897
  store i8 %15, ptr %0, align 1, !dbg !897
  %16 = load i8, ptr %0, align 1, !dbg !897, !range !777, !noundef !18
  %_6 = trunc i8 %16 to i1, !dbg !897
  br i1 %_6, label %bb3, label %bb4, !dbg !897

bb4:                                              ; preds = %start
  %17 = getelementptr inbounds { i64, i64 }, ptr %_0, i32 0, i32 1, !dbg !898
  store i64 %_5.0, ptr %17, align 8, !dbg !898
  store i64 1, ptr %_0, align 8, !dbg !898
  br label %bb5, !dbg !899

bb3:                                              ; preds = %start
  store i64 0, ptr %_0, align 8, !dbg !900
  br label %bb5, !dbg !899

bb5:                                              ; preds = %bb3, %bb4
  %18 = getelementptr inbounds { i64, i64 }, ptr %_0, i32 0, i32 0, !dbg !901
  %19 = load i64, ptr %18, align 8, !dbg !901, !range !902, !noundef !18
  %20 = getelementptr inbounds { i64, i64 }, ptr %_0, i32 0, i32 1, !dbg !901
  %21 = load i64, ptr %20, align 8, !dbg !901
  %22 = insertvalue { i64, i64 } poison, i64 %19, 0, !dbg !901
  %23 = insertvalue { i64, i64 } %22, i64 %21, 1, !dbg !901
  ret { i64, i64 } %23, !dbg !901
}

; core::num::<impl u64>::checked_sub
; Function Attrs: inlinehint noredzone nounwind
define internal { i64, i64 } @"_ZN4core3num21_$LT$impl$u20$u64$GT$11checked_sub17hb80c8f76826bf7afE"(i64 %self, i64 %rhs) unnamed_addr #0 !dbg !903 {
start:
  %b.dbg.spill.i = alloca i8, align 1
  %a.dbg.spill.i = alloca i64, align 8
  %rhs.dbg.spill.i = alloca i64, align 8
  %self.dbg.spill.i = alloca i64, align 8
  %_0.i = alloca { i64, i8 }, align 8
  %0 = alloca i8, align 1
  %b.dbg.spill = alloca i8, align 1
  %a.dbg.spill = alloca i64, align 8
  %rhs.dbg.spill = alloca i64, align 8
  %self.dbg.spill = alloca i64, align 8
  %_0 = alloca { i64, i64 }, align 8
  store i64 %self, ptr %self.dbg.spill, align 8
  call void @llvm.dbg.declare(metadata ptr %self.dbg.spill, metadata !905, metadata !DIExpression()), !dbg !910
  store i64 %rhs, ptr %rhs.dbg.spill, align 8
  call void @llvm.dbg.declare(metadata ptr %rhs.dbg.spill, metadata !906, metadata !DIExpression()), !dbg !911
  store i64 %self, ptr %self.dbg.spill.i, align 8
  call void @llvm.dbg.declare(metadata ptr %self.dbg.spill.i, metadata !912, metadata !DIExpression()), !dbg !919
  store i64 %rhs, ptr %rhs.dbg.spill.i, align 8
  call void @llvm.dbg.declare(metadata ptr %rhs.dbg.spill.i, metadata !915, metadata !DIExpression()), !dbg !921
  %_5.0.i = sub i64 %self, %rhs, !dbg !922
  %_5.1.i = icmp ult i64 %self, %rhs, !dbg !922
  store i64 %_5.0.i, ptr %a.dbg.spill.i, align 8, !dbg !923
  call void @llvm.dbg.declare(metadata ptr %a.dbg.spill.i, metadata !916, metadata !DIExpression()), !dbg !924
  %1 = zext i1 %_5.1.i to i8, !dbg !925
  store i8 %1, ptr %b.dbg.spill.i, align 1, !dbg !925
  call void @llvm.dbg.declare(metadata ptr %b.dbg.spill.i, metadata !918, metadata !DIExpression()), !dbg !926
  store i64 %_5.0.i, ptr %_0.i, align 8, !dbg !927
  %2 = getelementptr inbounds { i64, i8 }, ptr %_0.i, i32 0, i32 1, !dbg !927
  %3 = zext i1 %_5.1.i to i8, !dbg !927
  store i8 %3, ptr %2, align 8, !dbg !927
  %4 = load i64, ptr %_0.i, align 8, !dbg !928, !noundef !18
  %5 = getelementptr inbounds { i64, i8 }, ptr %_0.i, i32 0, i32 1, !dbg !928
  %6 = load i8, ptr %5, align 8, !dbg !928, !range !777, !noundef !18
  %7 = trunc i8 %6 to i1, !dbg !928
  %8 = zext i1 %7 to i8, !dbg !928
  %9 = insertvalue { i64, i8 } poison, i64 %4, 0, !dbg !928
  %10 = insertvalue { i64, i8 } %9, i8 %8, 1, !dbg !928
  %_5.0 = extractvalue { i64, i8 } %10, 0, !dbg !929
  %11 = extractvalue { i64, i8 } %10, 1, !dbg !929
  %_5.1 = trunc i8 %11 to i1, !dbg !929
  store i64 %_5.0, ptr %a.dbg.spill, align 8, !dbg !930
  call void @llvm.dbg.declare(metadata ptr %a.dbg.spill, metadata !907, metadata !DIExpression()), !dbg !931
  %12 = zext i1 %_5.1 to i8, !dbg !932
  store i8 %12, ptr %b.dbg.spill, align 1, !dbg !932
  call void @llvm.dbg.declare(metadata ptr %b.dbg.spill, metadata !909, metadata !DIExpression()), !dbg !933
  %13 = call i1 @llvm.expect.i1(i1 %_5.1, i1 false), !dbg !934
  %14 = zext i1 %13 to i8, !dbg !934
  store i8 %14, ptr %0, align 1, !dbg !934
  %15 = load i8, ptr %0, align 1, !dbg !934, !range !777, !noundef !18
  %_6 = trunc i8 %15 to i1, !dbg !934
  br i1 %_6, label %bb3, label %bb4, !dbg !934

bb4:                                              ; preds = %start
  %16 = getelementptr inbounds { i64, i64 }, ptr %_0, i32 0, i32 1, !dbg !935
  store i64 %_5.0, ptr %16, align 8, !dbg !935
  store i64 1, ptr %_0, align 8, !dbg !935
  br label %bb5, !dbg !936

bb3:                                              ; preds = %start
  store i64 0, ptr %_0, align 8, !dbg !937
  br label %bb5, !dbg !936

bb5:                                              ; preds = %bb3, %bb4
  %17 = getelementptr inbounds { i64, i64 }, ptr %_0, i32 0, i32 0, !dbg !938
  %18 = load i64, ptr %17, align 8, !dbg !938, !range !902, !noundef !18
  %19 = getelementptr inbounds { i64, i64 }, ptr %_0, i32 0, i32 1, !dbg !938
  %20 = load i64, ptr %19, align 8, !dbg !938
  %21 = insertvalue { i64, i64 } poison, i64 %18, 0, !dbg !938
  %22 = insertvalue { i64, i64 } %21, i64 %20, 1, !dbg !938
  ret { i64, i64 } %22, !dbg !938
}

; core::ptr::drop_in_place<<x86_64::structures::idt::InterruptStackFrameValue as core::fmt::Debug>::fmt::Hex>
; Function Attrs: inlinehint noredzone nounwind
define internal void @"_ZN4core3ptr116drop_in_place$LT$$LT$x86_64..structures..idt..InterruptStackFrameValue$u20$as$u20$core..fmt..Debug$GT$..fmt..Hex$GT$17h6391e29fd82d5b32E"(ptr align 8 %_1) unnamed_addr #0 !dbg !939 {
start:
  %_1.dbg.spill = alloca ptr, align 8
  store ptr %_1, ptr %_1.dbg.spill, align 8
  call void @llvm.dbg.declare(metadata ptr %_1.dbg.spill, metadata !946, metadata !DIExpression()), !dbg !949
  ret void, !dbg !949
}

; core::ptr::drop_in_place<u16>
; Function Attrs: inlinehint noredzone nounwind
define internal void @"_ZN4core3ptr24drop_in_place$LT$u16$GT$17h1bb4bcff8d7ad1c2E"(ptr align 2 %_1) unnamed_addr #0 !dbg !950 {
start:
  %_1.dbg.spill = alloca ptr, align 8
  store ptr %_1, ptr %_1.dbg.spill, align 8
  call void @llvm.dbg.declare(metadata ptr %_1.dbg.spill, metadata !955, metadata !DIExpression()), !dbg !958
  ret void, !dbg !958
}

; core::ptr::drop_in_place<u64>
; Function Attrs: inlinehint noredzone nounwind
define internal void @"_ZN4core3ptr24drop_in_place$LT$u64$GT$17hc3b48bf1e434f2e0E"(ptr align 8 %_1) unnamed_addr #0 !dbg !959 {
start:
  %_1.dbg.spill = alloca ptr, align 8
  store ptr %_1, ptr %_1.dbg.spill, align 8
  call void @llvm.dbg.declare(metadata ptr %_1.dbg.spill, metadata !964, metadata !DIExpression()), !dbg !965
  ret void, !dbg !965
}

; core::ptr::drop_in_place<bool>
; Function Attrs: inlinehint noredzone nounwind
define internal void @"_ZN4core3ptr25drop_in_place$LT$bool$GT$17h61c224afb6dd3295E"(ptr align 1 %_1) unnamed_addr #0 !dbg !966 {
start:
  %_1.dbg.spill = alloca ptr, align 8
  store ptr %_1, ptr %_1.dbg.spill, align 8
  call void @llvm.dbg.declare(metadata ptr %_1.dbg.spill, metadata !971, metadata !DIExpression()), !dbg !974
  ret void, !dbg !974
}

; core::ptr::drop_in_place<core::fmt::Arguments>
; Function Attrs: inlinehint noredzone nounwind
define internal void @"_ZN4core3ptr41drop_in_place$LT$core..fmt..Arguments$GT$17h6b3dc4f1cbe0895eE"(ptr align 8 %_1) unnamed_addr #0 !dbg !975 {
start:
  %_1.dbg.spill = alloca ptr, align 8
  store ptr %_1, ptr %_1.dbg.spill, align 8
  call void @llvm.dbg.declare(metadata ptr %_1.dbg.spill, metadata !980, metadata !DIExpression()), !dbg !983
  ret void, !dbg !983
}

; core::ptr::drop_in_place<x86_64::PrivilegeLevel>
; Function Attrs: inlinehint noredzone nounwind
define internal void @"_ZN4core3ptr43drop_in_place$LT$x86_64..PrivilegeLevel$GT$17hc2f1e637251fbd96E"(ptr align 1 %_1) unnamed_addr #0 !dbg !984 {
start:
  %_1.dbg.spill = alloca ptr, align 8
  store ptr %_1, ptr %_1.dbg.spill, align 8
  call void @llvm.dbg.declare(metadata ptr %_1.dbg.spill, metadata !989, metadata !DIExpression()), !dbg !992
  ret void, !dbg !992
}

; core::ptr::drop_in_place<x86_64::addr::PhysAddr>
; Function Attrs: inlinehint noredzone nounwind
define internal void @"_ZN4core3ptr43drop_in_place$LT$x86_64..addr..PhysAddr$GT$17h1df360fb3f3f51b1E"(ptr align 8 %_1) unnamed_addr #0 !dbg !993 {
start:
  %_1.dbg.spill = alloca ptr, align 8
  store ptr %_1, ptr %_1.dbg.spill, align 8
  call void @llvm.dbg.declare(metadata ptr %_1.dbg.spill, metadata !998, metadata !DIExpression()), !dbg !1001
  ret void, !dbg !1001
}

; core::ptr::drop_in_place<x86_64::addr::VirtAddr>
; Function Attrs: inlinehint noredzone nounwind
define internal void @"_ZN4core3ptr43drop_in_place$LT$x86_64..addr..VirtAddr$GT$17h0f6f5b9121271eacE"(ptr align 8 %_1) unnamed_addr #0 !dbg !1002 {
start:
  %_1.dbg.spill = alloca ptr, align 8
  store ptr %_1, ptr %_1.dbg.spill, align 8
  call void @llvm.dbg.declare(metadata ptr %_1.dbg.spill, metadata !1007, metadata !DIExpression()), !dbg !1010
  ret void, !dbg !1010
}

; core::ptr::drop_in_place<x86_64::addr::VirtAddrNotValid>
; Function Attrs: inlinehint noredzone nounwind
define internal void @"_ZN4core3ptr51drop_in_place$LT$x86_64..addr..VirtAddrNotValid$GT$17h45a1e5a1d4ce5acaE"(ptr align 8 %_1) unnamed_addr #0 !dbg !1011 {
start:
  %_1.dbg.spill = alloca ptr, align 8
  store ptr %_1, ptr %_1.dbg.spill, align 8
  call void @llvm.dbg.declare(metadata ptr %_1.dbg.spill, metadata !1016, metadata !DIExpression()), !dbg !1019
  ret void, !dbg !1019
}

; core::ptr::drop_in_place<x86_64::structures::idt::DescriptorTable>
; Function Attrs: inlinehint noredzone nounwind
define internal void @"_ZN4core3ptr61drop_in_place$LT$x86_64..structures..idt..DescriptorTable$GT$17h553bd50b32ab73edE"(ptr align 1 %_1) unnamed_addr #0 !dbg !1020 {
start:
  %_1.dbg.spill = alloca ptr, align 8
  store ptr %_1, ptr %_1.dbg.spill, align 8
  call void @llvm.dbg.declare(metadata ptr %_1.dbg.spill, metadata !1025, metadata !DIExpression()), !dbg !1028
  ret void, !dbg !1028
}

; core::ptr::drop_in_place<x86_64::structures::paging::page_table::PageTableFlags>
; Function Attrs: inlinehint noredzone nounwind
define internal void @"_ZN4core3ptr75drop_in_place$LT$x86_64..structures..paging..page_table..PageTableFlags$GT$17hdbd7e68fb1740928E"(ptr align 8 %_1) unnamed_addr #0 !dbg !1029 {
start:
  %_1.dbg.spill = alloca ptr, align 8
  store ptr %_1, ptr %_1.dbg.spill, align 8
  call void @llvm.dbg.declare(metadata ptr %_1.dbg.spill, metadata !1034, metadata !DIExpression()), !dbg !1037
  ret void, !dbg !1037
}

; core::option::Option<T>::expect
; Function Attrs: inlinehint noredzone nounwind
define i8 @"_ZN4core6option15Option$LT$T$GT$6expect17he8d275685f9eec77E"(i8 %0, ptr align 1 %msg.0, i64 %msg.1, ptr align 8 %1) unnamed_addr #0 !dbg !1038 {
start:
  %val.dbg.spill = alloca i8, align 1
  %msg.dbg.spill = alloca { ptr, i64 }, align 8
  %self = alloca i8, align 1
  store i8 %0, ptr %self, align 1
  call void @llvm.dbg.declare(metadata ptr %self, metadata !1057, metadata !DIExpression()), !dbg !1061
  %2 = getelementptr inbounds { ptr, i64 }, ptr %msg.dbg.spill, i32 0, i32 0
  store ptr %msg.0, ptr %2, align 8
  %3 = getelementptr inbounds { ptr, i64 }, ptr %msg.dbg.spill, i32 0, i32 1
  store i64 %msg.1, ptr %3, align 8
  call void @llvm.dbg.declare(metadata ptr %msg.dbg.spill, metadata !1058, metadata !DIExpression()), !dbg !1062
  %4 = load i8, ptr %self, align 1, !dbg !1063, !range !1064, !noundef !18
  %5 = icmp eq i8 %4, 4, !dbg !1063
  %_3 = select i1 %5, i64 0, i64 1, !dbg !1063
  %6 = icmp eq i64 %_3, 0, !dbg !1065
  br i1 %6, label %bb1, label %bb3, !dbg !1065

bb1:                                              ; preds = %start
; call core::option::expect_failed
  call void @_ZN4core6option13expect_failed17h696725fc4a4d0c2eE(ptr align 1 %msg.0, i64 %msg.1, ptr align 8 %1) #9, !dbg !1066
  unreachable, !dbg !1066

bb3:                                              ; preds = %start
  %val = load i8, ptr %self, align 1, !dbg !1067, !range !1068, !noundef !18
  store i8 %val, ptr %val.dbg.spill, align 1, !dbg !1067
  call void @llvm.dbg.declare(metadata ptr %val.dbg.spill, metadata !1059, metadata !DIExpression()), !dbg !1069
  ret i8 %val, !dbg !1070

bb2:                                              ; No predecessors!
  unreachable, !dbg !1063
}

; core::option::Option<T>::expect
; Function Attrs: inlinehint noredzone nounwind
define i8 @"_ZN4core6option15Option$LT$T$GT$6expect17hfd65b8b847252be1E"(i8 %0, ptr align 1 %msg.0, i64 %msg.1, ptr align 8 %1) unnamed_addr #0 !dbg !1071 {
start:
  %val.dbg.spill = alloca i8, align 1
  %msg.dbg.spill = alloca { ptr, i64 }, align 8
  %self = alloca i8, align 1
  store i8 %0, ptr %self, align 1
  call void @llvm.dbg.declare(metadata ptr %self, metadata !1089, metadata !DIExpression()), !dbg !1093
  %2 = getelementptr inbounds { ptr, i64 }, ptr %msg.dbg.spill, i32 0, i32 0
  store ptr %msg.0, ptr %2, align 8
  %3 = getelementptr inbounds { ptr, i64 }, ptr %msg.dbg.spill, i32 0, i32 1
  store i64 %msg.1, ptr %3, align 8
  call void @llvm.dbg.declare(metadata ptr %msg.dbg.spill, metadata !1090, metadata !DIExpression()), !dbg !1094
  %4 = load i8, ptr %self, align 1, !dbg !1095, !range !1064, !noundef !18
  %5 = icmp eq i8 %4, 4, !dbg !1095
  %_3 = select i1 %5, i64 0, i64 1, !dbg !1095
  %6 = icmp eq i64 %_3, 0, !dbg !1096
  br i1 %6, label %bb1, label %bb3, !dbg !1096

bb1:                                              ; preds = %start
; call core::option::expect_failed
  call void @_ZN4core6option13expect_failed17h696725fc4a4d0c2eE(ptr align 1 %msg.0, i64 %msg.1, ptr align 8 %1) #9, !dbg !1097
  unreachable, !dbg !1097

bb3:                                              ; preds = %start
  %val = load i8, ptr %self, align 1, !dbg !1098, !range !1068, !noundef !18
  store i8 %val, ptr %val.dbg.spill, align 1, !dbg !1098
  call void @llvm.dbg.declare(metadata ptr %val.dbg.spill, metadata !1091, metadata !DIExpression()), !dbg !1099
  ret i8 %val, !dbg !1100

bb2:                                              ; No predecessors!
  unreachable, !dbg !1095
}

; core::option::Option<T>::unwrap
; Function Attrs: inlinehint noredzone nounwind
define i64 @"_ZN4core6option15Option$LT$T$GT$6unwrap17h39d03fcc7a529787E"(i64 %0, i64 %1, ptr align 8 %2) unnamed_addr #0 !dbg !1101 {
start:
  %val.dbg.spill = alloca i64, align 8
  %self = alloca { i64, i64 }, align 8
  %3 = getelementptr inbounds { i64, i64 }, ptr %self, i32 0, i32 0
  store i64 %0, ptr %3, align 8
  %4 = getelementptr inbounds { i64, i64 }, ptr %self, i32 0, i32 1
  store i64 %1, ptr %4, align 8
  call void @llvm.dbg.declare(metadata ptr %self, metadata !1106, metadata !DIExpression()), !dbg !1109
  %_2 = load i64, ptr %self, align 8, !dbg !1110, !range !902, !noundef !18
  %5 = icmp eq i64 %_2, 0, !dbg !1111
  br i1 %5, label %bb1, label %bb3, !dbg !1111

bb1:                                              ; preds = %start
; call core::panicking::panic
  call void @_ZN4core9panicking5panic17h91639042aeeb9621E(ptr align 1 @alloc_5f55955de67e57c79064b537689facea, i64 43, ptr align 8 %2) #9, !dbg !1112
  unreachable, !dbg !1112

bb3:                                              ; preds = %start
  %6 = getelementptr inbounds { i64, i64 }, ptr %self, i32 0, i32 1, !dbg !1113
  %val = load i64, ptr %6, align 8, !dbg !1113, !noundef !18
  store i64 %val, ptr %val.dbg.spill, align 8, !dbg !1113
  call void @llvm.dbg.declare(metadata ptr %val.dbg.spill, metadata !1107, metadata !DIExpression()), !dbg !1114
  ret i64 %val, !dbg !1115

bb2:                                              ; No predecessors!
  unreachable, !dbg !1110
}

; core::result::Result<T,E>::ok
; Function Attrs: inlinehint noredzone nounwind
define { i64, i64 } @"_ZN4core6result19Result$LT$T$C$E$GT$2ok17he9a2d4412a2a6959E"(i64 %0, i64 %1) unnamed_addr #0 !dbg !1116 {
start:
  %x.dbg.spill = alloca i64, align 8
  %_0 = alloca { i64, i64 }, align 8
  %self = alloca { i64, i64 }, align 8
  %2 = getelementptr inbounds { i64, i64 }, ptr %self, i32 0, i32 0
  store i64 %0, ptr %2, align 8
  %3 = getelementptr inbounds { i64, i64 }, ptr %self, i32 0, i32 1
  store i64 %1, ptr %3, align 8
  call void @llvm.dbg.declare(metadata ptr %self, metadata !1140, metadata !DIExpression()), !dbg !1143
  %_2 = load i64, ptr %self, align 8, !dbg !1144, !range !902, !noundef !18
  %4 = icmp eq i64 %_2, 0, !dbg !1145
  br i1 %4, label %bb3, label %bb1, !dbg !1145

bb3:                                              ; preds = %start
  %5 = getelementptr inbounds { i64, i64 }, ptr %self, i32 0, i32 1, !dbg !1146
  %x = load i64, ptr %5, align 8, !dbg !1146, !noundef !18
  store i64 %x, ptr %x.dbg.spill, align 8, !dbg !1146
  call void @llvm.dbg.declare(metadata ptr %x.dbg.spill, metadata !1141, metadata !DIExpression()), !dbg !1147
  %6 = getelementptr inbounds { i64, i64 }, ptr %_0, i32 0, i32 1, !dbg !1148
  store i64 %x, ptr %6, align 8, !dbg !1148
  store i64 1, ptr %_0, align 8, !dbg !1148
  br label %bb6, !dbg !1149

bb1:                                              ; preds = %start
  store i64 0, ptr %_0, align 8, !dbg !1150
  br label %bb6, !dbg !1150

bb6:                                              ; preds = %bb1, %bb3
  %_4 = load i64, ptr %self, align 8, !dbg !1151, !range !902, !noundef !18
  %7 = icmp eq i64 %_4, 0, !dbg !1151
  br i1 %7, label %bb4, label %bb5, !dbg !1151

bb4:                                              ; preds = %bb5, %bb6
  %8 = getelementptr inbounds { i64, i64 }, ptr %_0, i32 0, i32 0, !dbg !1152
  %9 = load i64, ptr %8, align 8, !dbg !1152, !range !902, !noundef !18
  %10 = getelementptr inbounds { i64, i64 }, ptr %_0, i32 0, i32 1, !dbg !1152
  %11 = load i64, ptr %10, align 8, !dbg !1152
  %12 = insertvalue { i64, i64 } poison, i64 %9, 0, !dbg !1152
  %13 = insertvalue { i64, i64 } %12, i64 %11, 1, !dbg !1152
  ret { i64, i64 } %13, !dbg !1152

bb5:                                              ; preds = %bb6
  br label %bb4, !dbg !1151

bb2:                                              ; No predecessors!
  unreachable, !dbg !1144
}

; core::result::Result<T,E>::ok
; Function Attrs: inlinehint noredzone nounwind
define { i64, i64 } @"_ZN4core6result19Result$LT$T$C$E$GT$2ok17heeea2f3070ffd353E"(i64 %0, i64 %1) unnamed_addr #0 !dbg !1153 {
start:
  %x.dbg.spill = alloca i64, align 8
  %_0 = alloca { i64, i64 }, align 8
  %self = alloca { i64, i64 }, align 8
  %2 = getelementptr inbounds { i64, i64 }, ptr %self, i32 0, i32 0
  store i64 %0, ptr %2, align 8
  %3 = getelementptr inbounds { i64, i64 }, ptr %self, i32 0, i32 1
  store i64 %1, ptr %3, align 8
  call void @llvm.dbg.declare(metadata ptr %self, metadata !1172, metadata !DIExpression()), !dbg !1175
  %_2 = load i64, ptr %self, align 8, !dbg !1176, !range !902, !noundef !18
  %4 = icmp eq i64 %_2, 0, !dbg !1177
  br i1 %4, label %bb3, label %bb1, !dbg !1177

bb3:                                              ; preds = %start
  %5 = getelementptr inbounds { i64, i64 }, ptr %self, i32 0, i32 1, !dbg !1178
  %x = load i64, ptr %5, align 8, !dbg !1178, !noundef !18
  store i64 %x, ptr %x.dbg.spill, align 8, !dbg !1178
  call void @llvm.dbg.declare(metadata ptr %x.dbg.spill, metadata !1173, metadata !DIExpression()), !dbg !1179
  %6 = getelementptr inbounds { i64, i64 }, ptr %_0, i32 0, i32 1, !dbg !1180
  store i64 %x, ptr %6, align 8, !dbg !1180
  store i64 1, ptr %_0, align 8, !dbg !1180
  br label %bb6, !dbg !1181

bb1:                                              ; preds = %start
  store i64 0, ptr %_0, align 8, !dbg !1182
  br label %bb6, !dbg !1182

bb6:                                              ; preds = %bb1, %bb3
  %_4 = load i64, ptr %self, align 8, !dbg !1183, !range !902, !noundef !18
  %7 = icmp eq i64 %_4, 0, !dbg !1183
  br i1 %7, label %bb4, label %bb5, !dbg !1183

bb4:                                              ; preds = %bb5, %bb6
  %8 = getelementptr inbounds { i64, i64 }, ptr %_0, i32 0, i32 0, !dbg !1184
  %9 = load i64, ptr %8, align 8, !dbg !1184, !range !902, !noundef !18
  %10 = getelementptr inbounds { i64, i64 }, ptr %_0, i32 0, i32 1, !dbg !1184
  %11 = load i64, ptr %10, align 8, !dbg !1184
  %12 = insertvalue { i64, i64 } poison, i64 %9, 0, !dbg !1184
  %13 = insertvalue { i64, i64 } %12, i64 %11, 1, !dbg !1184
  ret { i64, i64 } %13, !dbg !1184

bb5:                                              ; preds = %bb6
  br label %bb4, !dbg !1183

bb2:                                              ; No predecessors!
  unreachable, !dbg !1176
}

; core::result::Result<T,E>::expect
; Function Attrs: inlinehint noredzone nounwind
define i64 @"_ZN4core6result19Result$LT$T$C$E$GT$6expect17h38ac5621529231b1E"(i64 %0, i64 %1, ptr align 1 %msg.0, i64 %msg.1, ptr align 8 %2) unnamed_addr #0 !dbg !1185 {
start:
  %t.dbg.spill = alloca i64, align 8
  %msg.dbg.spill = alloca { ptr, i64 }, align 8
  %e = alloca i64, align 8
  %self = alloca { i64, i64 }, align 8
  %3 = getelementptr inbounds { i64, i64 }, ptr %self, i32 0, i32 0
  store i64 %0, ptr %3, align 8
  %4 = getelementptr inbounds { i64, i64 }, ptr %self, i32 0, i32 1
  store i64 %1, ptr %4, align 8
  call void @llvm.dbg.declare(metadata ptr %self, metadata !1205, metadata !DIExpression()), !dbg !1211
  %5 = getelementptr inbounds { ptr, i64 }, ptr %msg.dbg.spill, i32 0, i32 0
  store ptr %msg.0, ptr %5, align 8
  %6 = getelementptr inbounds { ptr, i64 }, ptr %msg.dbg.spill, i32 0, i32 1
  store i64 %msg.1, ptr %6, align 8
  call void @llvm.dbg.declare(metadata ptr %msg.dbg.spill, metadata !1206, metadata !DIExpression()), !dbg !1212
  call void @llvm.dbg.declare(metadata ptr %e, metadata !1209, metadata !DIExpression()), !dbg !1213
  %_3 = load i64, ptr %self, align 8, !dbg !1214, !range !902, !noundef !18
  %7 = icmp eq i64 %_3, 0, !dbg !1215
  br i1 %7, label %bb3, label %bb1, !dbg !1215

bb3:                                              ; preds = %start
  %8 = getelementptr inbounds { i64, i64 }, ptr %self, i32 0, i32 1, !dbg !1216
  %t = load i64, ptr %8, align 8, !dbg !1216, !noundef !18
  store i64 %t, ptr %t.dbg.spill, align 8, !dbg !1216
  call void @llvm.dbg.declare(metadata ptr %t.dbg.spill, metadata !1207, metadata !DIExpression()), !dbg !1217
  ret i64 %t, !dbg !1218

bb1:                                              ; preds = %start
  %9 = getelementptr inbounds { i64, i64 }, ptr %self, i32 0, i32 1, !dbg !1219
  %10 = load i64, ptr %9, align 8, !dbg !1219, !noundef !18
  store i64 %10, ptr %e, align 8, !dbg !1219
; call core::result::unwrap_failed
  call void @_ZN4core6result13unwrap_failed17h729033aa2c51695aE(ptr align 1 %msg.0, i64 %msg.1, ptr align 1 %e, ptr align 8 @vtable.4, ptr align 8 %2) #9, !dbg !1220
  unreachable, !dbg !1220

bb2:                                              ; No predecessors!
  unreachable, !dbg !1214
}

; core::result::Result<T,E>::map_err
; Function Attrs: inlinehint noredzone nounwind
define void @"_ZN4core6result19Result$LT$T$C$E$GT$7map_err17h0542e180f7b2a369E"(ptr sret(%"core::result::Result<structures::paging::frame::PhysFrame<structures::paging::page::Size2MiB>, structures::paging::mapper::UnmapError>") align 8 %_0, ptr align 8 %self, ptr align 8 %op) unnamed_addr #0 !dbg !1221 {
start:
  %e.dbg.spill = alloca %"structures::paging::page::AddressNotAligned", align 1
  %op.dbg.spill = alloca ptr, align 8
  %_9 = alloca i8, align 1
  %t = alloca %"structures::paging::frame::PhysFrame<structures::paging::page::Size2MiB>", align 8
  call void @llvm.dbg.declare(metadata ptr %self, metadata !1269, metadata !DIExpression()), !dbg !1275
  store ptr %op, ptr %op.dbg.spill, align 8
  call void @llvm.dbg.declare(metadata ptr %op.dbg.spill, metadata !1270, metadata !DIExpression()), !dbg !1276
  call void @llvm.dbg.declare(metadata ptr %t, metadata !1271, metadata !DIExpression()), !dbg !1277
  call void @llvm.dbg.declare(metadata ptr %e.dbg.spill, metadata !1273, metadata !DIExpression()), !dbg !1278
  store i8 0, ptr %_9, align 1, !dbg !1279
  store i8 1, ptr %_9, align 1, !dbg !1279
  %_3 = load i64, ptr %self, align 8, !dbg !1279, !range !902, !noundef !18
  %0 = icmp eq i64 %_3, 0, !dbg !1280
  br i1 %0, label %bb3, label %bb1, !dbg !1280

bb3:                                              ; preds = %start
  %1 = getelementptr inbounds %"core::result::Result<structures::paging::frame::PhysFrame<structures::paging::page::Size2MiB>, structures::paging::page::AddressNotAligned>::Ok", ptr %self, i32 0, i32 1, !dbg !1281
  call void @llvm.memcpy.p0.p0.i64(ptr align 8 %t, ptr align 8 %1, i64 8, i1 false), !dbg !1281
  %2 = getelementptr inbounds %"core::result::Result<structures::paging::frame::PhysFrame<structures::paging::page::Size2MiB>, structures::paging::mapper::UnmapError>::Ok", ptr %_0, i32 0, i32 1, !dbg !1282
  call void @llvm.memcpy.p0.p0.i64(ptr align 8 %2, ptr align 8 %t, i64 8, i1 false), !dbg !1282
  store i64 3, ptr %_0, align 8, !dbg !1282
  br label %bb7, !dbg !1283

bb1:                                              ; preds = %start
  store i8 0, ptr %_9, align 1, !dbg !1284
; call <x86_64::structures::paging::mapper::recursive_page_table::RecursivePageTable as x86_64::structures::paging::mapper::Mapper<x86_64::structures::paging::page::Size2MiB>>::unmap::{{closure}}
  %3 = call { i64, i64 } @"_ZN189_$LT$x86_64..structures..paging..mapper..recursive_page_table..RecursivePageTable$u20$as$u20$x86_64..structures..paging..mapper..Mapper$LT$x86_64..structures..paging..page..Size2MiB$GT$$GT$5unmap28_$u7b$$u7b$closure$u7d$$u7d$17h51ee3e1aac7a370aE"(ptr align 8 %op) #8, !dbg !1284
  %_6.0 = extractvalue { i64, i64 } %3, 0, !dbg !1284
  %_6.1 = extractvalue { i64, i64 } %3, 1, !dbg !1284
  %4 = getelementptr inbounds { i64, i64 }, ptr %_0, i32 0, i32 0, !dbg !1285
  store i64 %_6.0, ptr %4, align 8, !dbg !1285
  %5 = getelementptr inbounds { i64, i64 }, ptr %_0, i32 0, i32 1, !dbg !1285
  store i64 %_6.1, ptr %5, align 8, !dbg !1285
  br label %bb7, !dbg !1286

bb7:                                              ; preds = %bb1, %bb3
  %6 = load i8, ptr %_9, align 1, !dbg !1287, !range !777, !noundef !18
  %7 = trunc i8 %6 to i1, !dbg !1287
  br i1 %7, label %bb6, label %bb5, !dbg !1287

bb5:                                              ; preds = %bb6, %bb7
  ret void, !dbg !1288

bb6:                                              ; preds = %bb7
  br label %bb5, !dbg !1287

bb2:                                              ; No predecessors!
  unreachable, !dbg !1279
}

; core::result::Result<T,E>::map_err
; Function Attrs: inlinehint noredzone nounwind
define void @"_ZN4core6result19Result$LT$T$C$E$GT$7map_err17h189854f20b4334b7E"(ptr sret(%"core::result::Result<structures::paging::frame::PhysFrame, structures::paging::mapper::TranslateError>") align 8 %_0, ptr align 8 %self, ptr align 8 %op) unnamed_addr #0 !dbg !1289 {
start:
  %e.dbg.spill = alloca %"structures::paging::page::AddressNotAligned", align 1
  %op.dbg.spill = alloca ptr, align 8
  %_9 = alloca i8, align 1
  %t = alloca %"structures::paging::frame::PhysFrame", align 8
  call void @llvm.dbg.declare(metadata ptr %self, metadata !1347, metadata !DIExpression()), !dbg !1353
  store ptr %op, ptr %op.dbg.spill, align 8
  call void @llvm.dbg.declare(metadata ptr %op.dbg.spill, metadata !1348, metadata !DIExpression()), !dbg !1354
  call void @llvm.dbg.declare(metadata ptr %t, metadata !1349, metadata !DIExpression()), !dbg !1355
  call void @llvm.dbg.declare(metadata ptr %e.dbg.spill, metadata !1351, metadata !DIExpression()), !dbg !1356
  store i8 0, ptr %_9, align 1, !dbg !1357
  store i8 1, ptr %_9, align 1, !dbg !1357
  %_3 = load i64, ptr %self, align 8, !dbg !1357, !range !902, !noundef !18
  %0 = icmp eq i64 %_3, 0, !dbg !1358
  br i1 %0, label %bb3, label %bb1, !dbg !1358

bb3:                                              ; preds = %start
  %1 = getelementptr inbounds %"core::result::Result<structures::paging::frame::PhysFrame, structures::paging::page::AddressNotAligned>::Ok", ptr %self, i32 0, i32 1, !dbg !1359
  call void @llvm.memcpy.p0.p0.i64(ptr align 8 %t, ptr align 8 %1, i64 8, i1 false), !dbg !1359
  %2 = getelementptr inbounds %"core::result::Result<structures::paging::frame::PhysFrame, structures::paging::mapper::TranslateError>::Ok", ptr %_0, i32 0, i32 1, !dbg !1360
  call void @llvm.memcpy.p0.p0.i64(ptr align 8 %2, ptr align 8 %t, i64 8, i1 false), !dbg !1360
  store i64 3, ptr %_0, align 8, !dbg !1360
  br label %bb7, !dbg !1361

bb1:                                              ; preds = %start
  store i8 0, ptr %_9, align 1, !dbg !1362
; call <x86_64::structures::paging::mapper::recursive_page_table::RecursivePageTable as x86_64::structures::paging::mapper::Mapper<x86_64::structures::paging::page::Size4KiB>>::translate_page::{{closure}}
  %3 = call { i64, i64 } @"_ZN189_$LT$x86_64..structures..paging..mapper..recursive_page_table..RecursivePageTable$u20$as$u20$x86_64..structures..paging..mapper..Mapper$LT$x86_64..structures..paging..page..Size4KiB$GT$$GT$14translate_page28_$u7b$$u7b$closure$u7d$$u7d$17h092bd8b67d49f14aE"(ptr align 8 %op) #8, !dbg !1362
  %_6.0 = extractvalue { i64, i64 } %3, 0, !dbg !1362
  %_6.1 = extractvalue { i64, i64 } %3, 1, !dbg !1362
  %4 = getelementptr inbounds { i64, i64 }, ptr %_0, i32 0, i32 0, !dbg !1363
  store i64 %_6.0, ptr %4, align 8, !dbg !1363
  %5 = getelementptr inbounds { i64, i64 }, ptr %_0, i32 0, i32 1, !dbg !1363
  store i64 %_6.1, ptr %5, align 8, !dbg !1363
  br label %bb7, !dbg !1364

bb7:                                              ; preds = %bb1, %bb3
  %6 = load i8, ptr %_9, align 1, !dbg !1365, !range !777, !noundef !18
  %7 = trunc i8 %6 to i1, !dbg !1365
  br i1 %7, label %bb6, label %bb5, !dbg !1365

bb5:                                              ; preds = %bb6, %bb7
  ret void, !dbg !1366

bb6:                                              ; preds = %bb7
  br label %bb5, !dbg !1365

bb2:                                              ; No predecessors!
  unreachable, !dbg !1357
}

; core::result::Result<T,E>::map_err
; Function Attrs: inlinehint noredzone nounwind
define void @"_ZN4core6result19Result$LT$T$C$E$GT$7map_err17h19a589ea35b6d895E"(ptr sret(%"core::result::Result<structures::paging::frame::PhysFrame, structures::paging::mapper::UnmapError>") align 8 %_0, ptr align 8 %self) unnamed_addr #0 !dbg !1367 {
start:
  %e.dbg.spill = alloca i8, align 1
  %op.dbg.spill = alloca %"{closure@/Users/yaw/.cargo/registry/src/index.crates.io-6f17d22bba15001f/x86_64-0.14.10/src/structures/paging/mapper/recursive_page_table.rs:595:34: 595:39}", align 1
  %_9 = alloca i8, align 1
  %_8 = alloca i8, align 1
  %t = alloca %"structures::paging::frame::PhysFrame", align 8
  call void @llvm.dbg.declare(metadata ptr %self, metadata !1405, metadata !DIExpression()), !dbg !1411
  call void @llvm.dbg.declare(metadata ptr %op.dbg.spill, metadata !1406, metadata !DIExpression()), !dbg !1412
  call void @llvm.dbg.declare(metadata ptr %t, metadata !1407, metadata !DIExpression()), !dbg !1413
  store i8 0, ptr %_9, align 1, !dbg !1414
  store i8 1, ptr %_9, align 1, !dbg !1414
  %0 = load i8, ptr %self, align 8, !dbg !1414, !range !777, !noundef !18
  %1 = trunc i8 %0 to i1, !dbg !1414
  %_3 = zext i1 %1 to i64, !dbg !1414
  %2 = icmp eq i64 %_3, 0, !dbg !1415
  br i1 %2, label %bb3, label %bb1, !dbg !1415

bb3:                                              ; preds = %start
  %3 = getelementptr inbounds %"core::result::Result<structures::paging::frame::PhysFrame, structures::paging::page_table::FrameError>::Ok", ptr %self, i32 0, i32 1, !dbg !1416
  call void @llvm.memcpy.p0.p0.i64(ptr align 8 %t, ptr align 8 %3, i64 8, i1 false), !dbg !1416
  %4 = getelementptr inbounds %"core::result::Result<structures::paging::frame::PhysFrame, structures::paging::mapper::UnmapError>::Ok", ptr %_0, i32 0, i32 1, !dbg !1417
  call void @llvm.memcpy.p0.p0.i64(ptr align 8 %4, ptr align 8 %t, i64 8, i1 false), !dbg !1417
  store i64 3, ptr %_0, align 8, !dbg !1417
  br label %bb7, !dbg !1418

bb1:                                              ; preds = %start
  %5 = getelementptr inbounds %"core::result::Result<structures::paging::frame::PhysFrame, structures::paging::page_table::FrameError>::Err", ptr %self, i32 0, i32 1, !dbg !1419
  %6 = load i8, ptr %5, align 1, !dbg !1419, !range !777, !noundef !18
  %e = trunc i8 %6 to i1, !dbg !1419
  %7 = zext i1 %e to i8, !dbg !1419
  store i8 %7, ptr %e.dbg.spill, align 1, !dbg !1419
  call void @llvm.dbg.declare(metadata ptr %e.dbg.spill, metadata !1409, metadata !DIExpression()), !dbg !1420
  store i8 0, ptr %_9, align 1, !dbg !1421
  %8 = zext i1 %e to i8, !dbg !1421
  store i8 %8, ptr %_8, align 1, !dbg !1421
  %9 = load i8, ptr %_8, align 1, !dbg !1421, !range !777, !noundef !18
  %10 = trunc i8 %9 to i1, !dbg !1421
; call <x86_64::structures::paging::mapper::recursive_page_table::RecursivePageTable as x86_64::structures::paging::mapper::Mapper<x86_64::structures::paging::page::Size4KiB>>::unmap::{{closure}}
  %11 = call { i64, i64 } @"_ZN189_$LT$x86_64..structures..paging..mapper..recursive_page_table..RecursivePageTable$u20$as$u20$x86_64..structures..paging..mapper..Mapper$LT$x86_64..structures..paging..page..Size4KiB$GT$$GT$5unmap28_$u7b$$u7b$closure$u7d$$u7d$17h6986d62d5554bdc3E"(i1 zeroext %10) #8, !dbg !1421
  %_6.0 = extractvalue { i64, i64 } %11, 0, !dbg !1421
  %_6.1 = extractvalue { i64, i64 } %11, 1, !dbg !1421
  %12 = getelementptr inbounds { i64, i64 }, ptr %_0, i32 0, i32 0, !dbg !1422
  store i64 %_6.0, ptr %12, align 8, !dbg !1422
  %13 = getelementptr inbounds { i64, i64 }, ptr %_0, i32 0, i32 1, !dbg !1422
  store i64 %_6.1, ptr %13, align 8, !dbg !1422
  br label %bb7, !dbg !1423

bb7:                                              ; preds = %bb1, %bb3
  %14 = load i8, ptr %_9, align 1, !dbg !1424, !range !777, !noundef !18
  %15 = trunc i8 %14 to i1, !dbg !1424
  br i1 %15, label %bb6, label %bb5, !dbg !1424

bb5:                                              ; preds = %bb6, %bb7
  ret void, !dbg !1425

bb6:                                              ; preds = %bb7
  br label %bb5, !dbg !1424

bb2:                                              ; No predecessors!
  unreachable, !dbg !1414
}

; core::result::Result<T,E>::map_err
; Function Attrs: inlinehint noredzone nounwind
define void @"_ZN4core6result19Result$LT$T$C$E$GT$7map_err17h234c8fc4c19eeb67E"(ptr sret(%"core::result::Result<structures::paging::frame::PhysFrame<structures::paging::page::Size1GiB>, structures::paging::mapper::TranslateError>") align 8 %_0, ptr align 8 %self, ptr align 8 %op) unnamed_addr #0 !dbg !1426 {
start:
  %e.dbg.spill = alloca %"structures::paging::page::AddressNotAligned", align 1
  %op.dbg.spill = alloca ptr, align 8
  %_9 = alloca i8, align 1
  %t = alloca %"structures::paging::frame::PhysFrame<structures::paging::page::Size1GiB>", align 8
  call void @llvm.dbg.declare(metadata ptr %self, metadata !1467, metadata !DIExpression()), !dbg !1473
  store ptr %op, ptr %op.dbg.spill, align 8
  call void @llvm.dbg.declare(metadata ptr %op.dbg.spill, metadata !1468, metadata !DIExpression()), !dbg !1474
  call void @llvm.dbg.declare(metadata ptr %t, metadata !1469, metadata !DIExpression()), !dbg !1475
  call void @llvm.dbg.declare(metadata ptr %e.dbg.spill, metadata !1471, metadata !DIExpression()), !dbg !1476
  store i8 0, ptr %_9, align 1, !dbg !1477
  store i8 1, ptr %_9, align 1, !dbg !1477
  %_3 = load i64, ptr %self, align 8, !dbg !1477, !range !902, !noundef !18
  %0 = icmp eq i64 %_3, 0, !dbg !1478
  br i1 %0, label %bb3, label %bb1, !dbg !1478

bb3:                                              ; preds = %start
  %1 = getelementptr inbounds %"core::result::Result<structures::paging::frame::PhysFrame<structures::paging::page::Size1GiB>, structures::paging::page::AddressNotAligned>::Ok", ptr %self, i32 0, i32 1, !dbg !1479
  call void @llvm.memcpy.p0.p0.i64(ptr align 8 %t, ptr align 8 %1, i64 8, i1 false), !dbg !1479
  %2 = getelementptr inbounds %"core::result::Result<structures::paging::frame::PhysFrame<structures::paging::page::Size1GiB>, structures::paging::mapper::TranslateError>::Ok", ptr %_0, i32 0, i32 1, !dbg !1480
  call void @llvm.memcpy.p0.p0.i64(ptr align 8 %2, ptr align 8 %t, i64 8, i1 false), !dbg !1480
  store i64 3, ptr %_0, align 8, !dbg !1480
  br label %bb7, !dbg !1481

bb1:                                              ; preds = %start
  store i8 0, ptr %_9, align 1, !dbg !1482
; call <x86_64::structures::paging::mapper::recursive_page_table::RecursivePageTable as x86_64::structures::paging::mapper::Mapper<x86_64::structures::paging::page::Size1GiB>>::translate_page::{{closure}}
  %3 = call { i64, i64 } @"_ZN189_$LT$x86_64..structures..paging..mapper..recursive_page_table..RecursivePageTable$u20$as$u20$x86_64..structures..paging..mapper..Mapper$LT$x86_64..structures..paging..page..Size1GiB$GT$$GT$14translate_page28_$u7b$$u7b$closure$u7d$$u7d$17hf5b57fd000560cecE"(ptr align 8 %op) #8, !dbg !1482
  %_6.0 = extractvalue { i64, i64 } %3, 0, !dbg !1482
  %_6.1 = extractvalue { i64, i64 } %3, 1, !dbg !1482
  %4 = getelementptr inbounds { i64, i64 }, ptr %_0, i32 0, i32 0, !dbg !1483
  store i64 %_6.0, ptr %4, align 8, !dbg !1483
  %5 = getelementptr inbounds { i64, i64 }, ptr %_0, i32 0, i32 1, !dbg !1483
  store i64 %_6.1, ptr %5, align 8, !dbg !1483
  br label %bb7, !dbg !1484

bb7:                                              ; preds = %bb1, %bb3
  %6 = load i8, ptr %_9, align 1, !dbg !1485, !range !777, !noundef !18
  %7 = trunc i8 %6 to i1, !dbg !1485
  br i1 %7, label %bb6, label %bb5, !dbg !1485

bb5:                                              ; preds = %bb6, %bb7
  ret void, !dbg !1486

bb6:                                              ; preds = %bb7
  br label %bb5, !dbg !1485

bb2:                                              ; No predecessors!
  unreachable, !dbg !1477
}

; core::result::Result<T,E>::map_err
; Function Attrs: inlinehint noredzone nounwind
define void @"_ZN4core6result19Result$LT$T$C$E$GT$7map_err17h2f9a0feeae36ef59E"(ptr sret(%"core::result::Result<structures::paging::frame::PhysFrame, structures::paging::mapper::UnmapError>") align 8 %_0, ptr align 8 %self) unnamed_addr #0 !dbg !1487 {
start:
  %e.dbg.spill = alloca i8, align 1
  %op.dbg.spill = alloca %"{closure@/Users/yaw/.cargo/registry/src/index.crates.io-6f17d22bba15001f/x86_64-0.14.10/src/structures/paging/mapper/recursive_page_table.rs:433:34: 433:39}", align 1
  %_9 = alloca i8, align 1
  %_8 = alloca i8, align 1
  %t = alloca %"structures::paging::frame::PhysFrame", align 8
  call void @llvm.dbg.declare(metadata ptr %self, metadata !1495, metadata !DIExpression()), !dbg !1501
  call void @llvm.dbg.declare(metadata ptr %op.dbg.spill, metadata !1496, metadata !DIExpression()), !dbg !1502
  call void @llvm.dbg.declare(metadata ptr %t, metadata !1497, metadata !DIExpression()), !dbg !1503
  store i8 0, ptr %_9, align 1, !dbg !1504
  store i8 1, ptr %_9, align 1, !dbg !1504
  %0 = load i8, ptr %self, align 8, !dbg !1504, !range !777, !noundef !18
  %1 = trunc i8 %0 to i1, !dbg !1504
  %_3 = zext i1 %1 to i64, !dbg !1504
  %2 = icmp eq i64 %_3, 0, !dbg !1505
  br i1 %2, label %bb3, label %bb1, !dbg !1505

bb3:                                              ; preds = %start
  %3 = getelementptr inbounds %"core::result::Result<structures::paging::frame::PhysFrame, structures::paging::page_table::FrameError>::Ok", ptr %self, i32 0, i32 1, !dbg !1506
  call void @llvm.memcpy.p0.p0.i64(ptr align 8 %t, ptr align 8 %3, i64 8, i1 false), !dbg !1506
  %4 = getelementptr inbounds %"core::result::Result<structures::paging::frame::PhysFrame, structures::paging::mapper::UnmapError>::Ok", ptr %_0, i32 0, i32 1, !dbg !1507
  call void @llvm.memcpy.p0.p0.i64(ptr align 8 %4, ptr align 8 %t, i64 8, i1 false), !dbg !1507
  store i64 3, ptr %_0, align 8, !dbg !1507
  br label %bb7, !dbg !1508

bb1:                                              ; preds = %start
  %5 = getelementptr inbounds %"core::result::Result<structures::paging::frame::PhysFrame, structures::paging::page_table::FrameError>::Err", ptr %self, i32 0, i32 1, !dbg !1509
  %6 = load i8, ptr %5, align 1, !dbg !1509, !range !777, !noundef !18
  %e = trunc i8 %6 to i1, !dbg !1509
  %7 = zext i1 %e to i8, !dbg !1509
  store i8 %7, ptr %e.dbg.spill, align 1, !dbg !1509
  call void @llvm.dbg.declare(metadata ptr %e.dbg.spill, metadata !1499, metadata !DIExpression()), !dbg !1510
  store i8 0, ptr %_9, align 1, !dbg !1511
  %8 = zext i1 %e to i8, !dbg !1511
  store i8 %8, ptr %_8, align 1, !dbg !1511
  %9 = load i8, ptr %_8, align 1, !dbg !1511, !range !777, !noundef !18
  %10 = trunc i8 %9 to i1, !dbg !1511
; call <x86_64::structures::paging::mapper::recursive_page_table::RecursivePageTable as x86_64::structures::paging::mapper::Mapper<x86_64::structures::paging::page::Size2MiB>>::unmap::{{closure}}
  %11 = call { i64, i64 } @"_ZN189_$LT$x86_64..structures..paging..mapper..recursive_page_table..RecursivePageTable$u20$as$u20$x86_64..structures..paging..mapper..Mapper$LT$x86_64..structures..paging..page..Size2MiB$GT$$GT$5unmap28_$u7b$$u7b$closure$u7d$$u7d$17h7df735df4785856bE"(i1 zeroext %10) #8, !dbg !1511
  %_6.0 = extractvalue { i64, i64 } %11, 0, !dbg !1511
  %_6.1 = extractvalue { i64, i64 } %11, 1, !dbg !1511
  %12 = getelementptr inbounds { i64, i64 }, ptr %_0, i32 0, i32 0, !dbg !1512
  store i64 %_6.0, ptr %12, align 8, !dbg !1512
  %13 = getelementptr inbounds { i64, i64 }, ptr %_0, i32 0, i32 1, !dbg !1512
  store i64 %_6.1, ptr %13, align 8, !dbg !1512
  br label %bb7, !dbg !1513

bb7:                                              ; preds = %bb1, %bb3
  %14 = load i8, ptr %_9, align 1, !dbg !1514, !range !777, !noundef !18
  %15 = trunc i8 %14 to i1, !dbg !1514
  br i1 %15, label %bb6, label %bb5, !dbg !1514

bb5:                                              ; preds = %bb6, %bb7
  ret void, !dbg !1515

bb6:                                              ; preds = %bb7
  br label %bb5, !dbg !1514

bb2:                                              ; No predecessors!
  unreachable, !dbg !1504
}

; core::result::Result<T,E>::map_err
; Function Attrs: inlinehint noredzone nounwind
define void @"_ZN4core6result19Result$LT$T$C$E$GT$7map_err17h7c19ec52344e815aE"(ptr sret(%"core::result::Result<structures::paging::frame::PhysFrame, structures::paging::mapper::UnmapError>") align 8 %_0, ptr align 8 %self) unnamed_addr #0 !dbg !1516 {
start:
  %e.dbg.spill = alloca i8, align 1
  %op.dbg.spill = alloca %"{closure@/Users/yaw/.cargo/registry/src/index.crates.io-6f17d22bba15001f/x86_64-0.14.10/src/structures/paging/mapper/recursive_page_table.rs:610:46: 610:51}", align 1
  %_9 = alloca i8, align 1
  %_8 = alloca i8, align 1
  %t = alloca %"structures::paging::frame::PhysFrame", align 8
  call void @llvm.dbg.declare(metadata ptr %self, metadata !1524, metadata !DIExpression()), !dbg !1530
  call void @llvm.dbg.declare(metadata ptr %op.dbg.spill, metadata !1525, metadata !DIExpression()), !dbg !1531
  call void @llvm.dbg.declare(metadata ptr %t, metadata !1526, metadata !DIExpression()), !dbg !1532
  store i8 0, ptr %_9, align 1, !dbg !1533
  store i8 1, ptr %_9, align 1, !dbg !1533
  %0 = load i8, ptr %self, align 8, !dbg !1533, !range !777, !noundef !18
  %1 = trunc i8 %0 to i1, !dbg !1533
  %_3 = zext i1 %1 to i64, !dbg !1533
  %2 = icmp eq i64 %_3, 0, !dbg !1534
  br i1 %2, label %bb3, label %bb1, !dbg !1534

bb3:                                              ; preds = %start
  %3 = getelementptr inbounds %"core::result::Result<structures::paging::frame::PhysFrame, structures::paging::page_table::FrameError>::Ok", ptr %self, i32 0, i32 1, !dbg !1535
  call void @llvm.memcpy.p0.p0.i64(ptr align 8 %t, ptr align 8 %3, i64 8, i1 false), !dbg !1535
  %4 = getelementptr inbounds %"core::result::Result<structures::paging::frame::PhysFrame, structures::paging::mapper::UnmapError>::Ok", ptr %_0, i32 0, i32 1, !dbg !1536
  call void @llvm.memcpy.p0.p0.i64(ptr align 8 %4, ptr align 8 %t, i64 8, i1 false), !dbg !1536
  store i64 3, ptr %_0, align 8, !dbg !1536
  br label %bb7, !dbg !1537

bb1:                                              ; preds = %start
  %5 = getelementptr inbounds %"core::result::Result<structures::paging::frame::PhysFrame, structures::paging::page_table::FrameError>::Err", ptr %self, i32 0, i32 1, !dbg !1538
  %6 = load i8, ptr %5, align 1, !dbg !1538, !range !777, !noundef !18
  %e = trunc i8 %6 to i1, !dbg !1538
  %7 = zext i1 %e to i8, !dbg !1538
  store i8 %7, ptr %e.dbg.spill, align 1, !dbg !1538
  call void @llvm.dbg.declare(metadata ptr %e.dbg.spill, metadata !1528, metadata !DIExpression()), !dbg !1539
  store i8 0, ptr %_9, align 1, !dbg !1540
  %8 = zext i1 %e to i8, !dbg !1540
  store i8 %8, ptr %_8, align 1, !dbg !1540
  %9 = load i8, ptr %_8, align 1, !dbg !1540, !range !777, !noundef !18
  %10 = trunc i8 %9 to i1, !dbg !1540
; call <x86_64::structures::paging::mapper::recursive_page_table::RecursivePageTable as x86_64::structures::paging::mapper::Mapper<x86_64::structures::paging::page::Size4KiB>>::unmap::{{closure}}
  %11 = call { i64, i64 } @"_ZN189_$LT$x86_64..structures..paging..mapper..recursive_page_table..RecursivePageTable$u20$as$u20$x86_64..structures..paging..mapper..Mapper$LT$x86_64..structures..paging..page..Size4KiB$GT$$GT$5unmap28_$u7b$$u7b$closure$u7d$$u7d$17h7ed577b5bb5f8bc4E"(i1 zeroext %10) #8, !dbg !1540
  %_6.0 = extractvalue { i64, i64 } %11, 0, !dbg !1540
  %_6.1 = extractvalue { i64, i64 } %11, 1, !dbg !1540
  %12 = getelementptr inbounds { i64, i64 }, ptr %_0, i32 0, i32 0, !dbg !1541
  store i64 %_6.0, ptr %12, align 8, !dbg !1541
  %13 = getelementptr inbounds { i64, i64 }, ptr %_0, i32 0, i32 1, !dbg !1541
  store i64 %_6.1, ptr %13, align 8, !dbg !1541
  br label %bb7, !dbg !1542

bb7:                                              ; preds = %bb1, %bb3
  %14 = load i8, ptr %_9, align 1, !dbg !1543, !range !777, !noundef !18
  %15 = trunc i8 %14 to i1, !dbg !1543
  br i1 %15, label %bb6, label %bb5, !dbg !1543

bb5:                                              ; preds = %bb6, %bb7
  ret void, !dbg !1544

bb6:                                              ; preds = %bb7
  br label %bb5, !dbg !1543

bb2:                                              ; No predecessors!
  unreachable, !dbg !1533
}

; core::result::Result<T,E>::map_err
; Function Attrs: inlinehint noredzone nounwind
define void @"_ZN4core6result19Result$LT$T$C$E$GT$7map_err17h80025abf4798de96E"(ptr sret(%"core::result::Result<structures::paging::frame::PhysFrame<structures::paging::page::Size2MiB>, structures::paging::mapper::TranslateError>") align 8 %_0, ptr align 8 %self, ptr align 8 %op) unnamed_addr #0 !dbg !1545 {
start:
  %e.dbg.spill = alloca %"structures::paging::page::AddressNotAligned", align 1
  %op.dbg.spill = alloca ptr, align 8
  %_9 = alloca i8, align 1
  %t = alloca %"structures::paging::frame::PhysFrame<structures::paging::page::Size2MiB>", align 8
  call void @llvm.dbg.declare(metadata ptr %self, metadata !1570, metadata !DIExpression()), !dbg !1576
  store ptr %op, ptr %op.dbg.spill, align 8
  call void @llvm.dbg.declare(metadata ptr %op.dbg.spill, metadata !1571, metadata !DIExpression()), !dbg !1577
  call void @llvm.dbg.declare(metadata ptr %t, metadata !1572, metadata !DIExpression()), !dbg !1578
  call void @llvm.dbg.declare(metadata ptr %e.dbg.spill, metadata !1574, metadata !DIExpression()), !dbg !1579
  store i8 0, ptr %_9, align 1, !dbg !1580
  store i8 1, ptr %_9, align 1, !dbg !1580
  %_3 = load i64, ptr %self, align 8, !dbg !1580, !range !902, !noundef !18
  %0 = icmp eq i64 %_3, 0, !dbg !1581
  br i1 %0, label %bb3, label %bb1, !dbg !1581

bb3:                                              ; preds = %start
  %1 = getelementptr inbounds %"core::result::Result<structures::paging::frame::PhysFrame<structures::paging::page::Size2MiB>, structures::paging::page::AddressNotAligned>::Ok", ptr %self, i32 0, i32 1, !dbg !1582
  call void @llvm.memcpy.p0.p0.i64(ptr align 8 %t, ptr align 8 %1, i64 8, i1 false), !dbg !1582
  %2 = getelementptr inbounds %"core::result::Result<structures::paging::frame::PhysFrame<structures::paging::page::Size2MiB>, structures::paging::mapper::TranslateError>::Ok", ptr %_0, i32 0, i32 1, !dbg !1583
  call void @llvm.memcpy.p0.p0.i64(ptr align 8 %2, ptr align 8 %t, i64 8, i1 false), !dbg !1583
  store i64 3, ptr %_0, align 8, !dbg !1583
  br label %bb7, !dbg !1584

bb1:                                              ; preds = %start
  store i8 0, ptr %_9, align 1, !dbg !1585
; call <x86_64::structures::paging::mapper::recursive_page_table::RecursivePageTable as x86_64::structures::paging::mapper::Mapper<x86_64::structures::paging::page::Size2MiB>>::translate_page::{{closure}}
  %3 = call { i64, i64 } @"_ZN189_$LT$x86_64..structures..paging..mapper..recursive_page_table..RecursivePageTable$u20$as$u20$x86_64..structures..paging..mapper..Mapper$LT$x86_64..structures..paging..page..Size2MiB$GT$$GT$14translate_page28_$u7b$$u7b$closure$u7d$$u7d$17hb17545ea5ff64845E"(ptr align 8 %op) #8, !dbg !1585
  %_6.0 = extractvalue { i64, i64 } %3, 0, !dbg !1585
  %_6.1 = extractvalue { i64, i64 } %3, 1, !dbg !1585
  %4 = getelementptr inbounds { i64, i64 }, ptr %_0, i32 0, i32 0, !dbg !1586
  store i64 %_6.0, ptr %4, align 8, !dbg !1586
  %5 = getelementptr inbounds { i64, i64 }, ptr %_0, i32 0, i32 1, !dbg !1586
  store i64 %_6.1, ptr %5, align 8, !dbg !1586
  br label %bb7, !dbg !1587

bb7:                                              ; preds = %bb1, %bb3
  %6 = load i8, ptr %_9, align 1, !dbg !1588, !range !777, !noundef !18
  %7 = trunc i8 %6 to i1, !dbg !1588
  br i1 %7, label %bb6, label %bb5, !dbg !1588

bb5:                                              ; preds = %bb6, %bb7
  ret void, !dbg !1589

bb6:                                              ; preds = %bb7
  br label %bb5, !dbg !1588

bb2:                                              ; No predecessors!
  unreachable, !dbg !1580
}

; core::result::Result<T,E>::map_err
; Function Attrs: inlinehint noredzone nounwind
define void @"_ZN4core6result19Result$LT$T$C$E$GT$7map_err17ha4c074370696f73aE"(ptr sret(%"core::result::Result<structures::paging::frame::PhysFrame, structures::paging::mapper::UnmapError>") align 8 %_0, ptr align 8 %self) unnamed_addr #0 !dbg !1590 {
start:
  %e.dbg.spill = alloca i8, align 1
  %op.dbg.spill = alloca %"{closure@/Users/yaw/.cargo/registry/src/index.crates.io-6f17d22bba15001f/x86_64-0.14.10/src/structures/paging/mapper/recursive_page_table.rs:602:34: 602:39}", align 1
  %_9 = alloca i8, align 1
  %_8 = alloca i8, align 1
  %t = alloca %"structures::paging::frame::PhysFrame", align 8
  call void @llvm.dbg.declare(metadata ptr %self, metadata !1598, metadata !DIExpression()), !dbg !1604
  call void @llvm.dbg.declare(metadata ptr %op.dbg.spill, metadata !1599, metadata !DIExpression()), !dbg !1605
  call void @llvm.dbg.declare(metadata ptr %t, metadata !1600, metadata !DIExpression()), !dbg !1606
  store i8 0, ptr %_9, align 1, !dbg !1607
  store i8 1, ptr %_9, align 1, !dbg !1607
  %0 = load i8, ptr %self, align 8, !dbg !1607, !range !777, !noundef !18
  %1 = trunc i8 %0 to i1, !dbg !1607
  %_3 = zext i1 %1 to i64, !dbg !1607
  %2 = icmp eq i64 %_3, 0, !dbg !1608
  br i1 %2, label %bb3, label %bb1, !dbg !1608

bb3:                                              ; preds = %start
  %3 = getelementptr inbounds %"core::result::Result<structures::paging::frame::PhysFrame, structures::paging::page_table::FrameError>::Ok", ptr %self, i32 0, i32 1, !dbg !1609
  call void @llvm.memcpy.p0.p0.i64(ptr align 8 %t, ptr align 8 %3, i64 8, i1 false), !dbg !1609
  %4 = getelementptr inbounds %"core::result::Result<structures::paging::frame::PhysFrame, structures::paging::mapper::UnmapError>::Ok", ptr %_0, i32 0, i32 1, !dbg !1610
  call void @llvm.memcpy.p0.p0.i64(ptr align 8 %4, ptr align 8 %t, i64 8, i1 false), !dbg !1610
  store i64 3, ptr %_0, align 8, !dbg !1610
  br label %bb7, !dbg !1611

bb1:                                              ; preds = %start
  %5 = getelementptr inbounds %"core::result::Result<structures::paging::frame::PhysFrame, structures::paging::page_table::FrameError>::Err", ptr %self, i32 0, i32 1, !dbg !1612
  %6 = load i8, ptr %5, align 1, !dbg !1612, !range !777, !noundef !18
  %e = trunc i8 %6 to i1, !dbg !1612
  %7 = zext i1 %e to i8, !dbg !1612
  store i8 %7, ptr %e.dbg.spill, align 1, !dbg !1612
  call void @llvm.dbg.declare(metadata ptr %e.dbg.spill, metadata !1602, metadata !DIExpression()), !dbg !1613
  store i8 0, ptr %_9, align 1, !dbg !1614
  %8 = zext i1 %e to i8, !dbg !1614
  store i8 %8, ptr %_8, align 1, !dbg !1614
  %9 = load i8, ptr %_8, align 1, !dbg !1614, !range !777, !noundef !18
  %10 = trunc i8 %9 to i1, !dbg !1614
; call <x86_64::structures::paging::mapper::recursive_page_table::RecursivePageTable as x86_64::structures::paging::mapper::Mapper<x86_64::structures::paging::page::Size4KiB>>::unmap::{{closure}}
  %11 = call { i64, i64 } @"_ZN189_$LT$x86_64..structures..paging..mapper..recursive_page_table..RecursivePageTable$u20$as$u20$x86_64..structures..paging..mapper..Mapper$LT$x86_64..structures..paging..page..Size4KiB$GT$$GT$5unmap28_$u7b$$u7b$closure$u7d$$u7d$17h9dc948d8d4997121E"(i1 zeroext %10) #8, !dbg !1614
  %_6.0 = extractvalue { i64, i64 } %11, 0, !dbg !1614
  %_6.1 = extractvalue { i64, i64 } %11, 1, !dbg !1614
  %12 = getelementptr inbounds { i64, i64 }, ptr %_0, i32 0, i32 0, !dbg !1615
  store i64 %_6.0, ptr %12, align 8, !dbg !1615
  %13 = getelementptr inbounds { i64, i64 }, ptr %_0, i32 0, i32 1, !dbg !1615
  store i64 %_6.1, ptr %13, align 8, !dbg !1615
  br label %bb7, !dbg !1616

bb7:                                              ; preds = %bb1, %bb3
  %14 = load i8, ptr %_9, align 1, !dbg !1617, !range !777, !noundef !18
  %15 = trunc i8 %14 to i1, !dbg !1617
  br i1 %15, label %bb6, label %bb5, !dbg !1617

bb5:                                              ; preds = %bb6, %bb7
  ret void, !dbg !1618

bb6:                                              ; preds = %bb7
  br label %bb5, !dbg !1617

bb2:                                              ; No predecessors!
  unreachable, !dbg !1607
}

; core::result::Result<T,E>::map_err
; Function Attrs: inlinehint noredzone nounwind
define void @"_ZN4core6result19Result$LT$T$C$E$GT$7map_err17hd340c6e23b9fd442E"(ptr sret(%"core::result::Result<structures::paging::frame::PhysFrame, structures::paging::mapper::UnmapError>") align 8 %_0, ptr align 8 %self) unnamed_addr #0 !dbg !1619 {
start:
  %e.dbg.spill = alloca i8, align 1
  %op.dbg.spill = alloca %"{closure@/Users/yaw/.cargo/registry/src/index.crates.io-6f17d22bba15001f/x86_64-0.14.10/src/structures/paging/mapper/recursive_page_table.rs:440:34: 440:39}", align 1
  %_9 = alloca i8, align 1
  %_8 = alloca i8, align 1
  %t = alloca %"structures::paging::frame::PhysFrame", align 8
  call void @llvm.dbg.declare(metadata ptr %self, metadata !1627, metadata !DIExpression()), !dbg !1633
  call void @llvm.dbg.declare(metadata ptr %op.dbg.spill, metadata !1628, metadata !DIExpression()), !dbg !1634
  call void @llvm.dbg.declare(metadata ptr %t, metadata !1629, metadata !DIExpression()), !dbg !1635
  store i8 0, ptr %_9, align 1, !dbg !1636
  store i8 1, ptr %_9, align 1, !dbg !1636
  %0 = load i8, ptr %self, align 8, !dbg !1636, !range !777, !noundef !18
  %1 = trunc i8 %0 to i1, !dbg !1636
  %_3 = zext i1 %1 to i64, !dbg !1636
  %2 = icmp eq i64 %_3, 0, !dbg !1637
  br i1 %2, label %bb3, label %bb1, !dbg !1637

bb3:                                              ; preds = %start
  %3 = getelementptr inbounds %"core::result::Result<structures::paging::frame::PhysFrame, structures::paging::page_table::FrameError>::Ok", ptr %self, i32 0, i32 1, !dbg !1638
  call void @llvm.memcpy.p0.p0.i64(ptr align 8 %t, ptr align 8 %3, i64 8, i1 false), !dbg !1638
  %4 = getelementptr inbounds %"core::result::Result<structures::paging::frame::PhysFrame, structures::paging::mapper::UnmapError>::Ok", ptr %_0, i32 0, i32 1, !dbg !1639
  call void @llvm.memcpy.p0.p0.i64(ptr align 8 %4, ptr align 8 %t, i64 8, i1 false), !dbg !1639
  store i64 3, ptr %_0, align 8, !dbg !1639
  br label %bb7, !dbg !1640

bb1:                                              ; preds = %start
  %5 = getelementptr inbounds %"core::result::Result<structures::paging::frame::PhysFrame, structures::paging::page_table::FrameError>::Err", ptr %self, i32 0, i32 1, !dbg !1641
  %6 = load i8, ptr %5, align 1, !dbg !1641, !range !777, !noundef !18
  %e = trunc i8 %6 to i1, !dbg !1641
  %7 = zext i1 %e to i8, !dbg !1641
  store i8 %7, ptr %e.dbg.spill, align 1, !dbg !1641
  call void @llvm.dbg.declare(metadata ptr %e.dbg.spill, metadata !1631, metadata !DIExpression()), !dbg !1642
  store i8 0, ptr %_9, align 1, !dbg !1643
  %8 = zext i1 %e to i8, !dbg !1643
  store i8 %8, ptr %_8, align 1, !dbg !1643
  %9 = load i8, ptr %_8, align 1, !dbg !1643, !range !777, !noundef !18
  %10 = trunc i8 %9 to i1, !dbg !1643
; call <x86_64::structures::paging::mapper::recursive_page_table::RecursivePageTable as x86_64::structures::paging::mapper::Mapper<x86_64::structures::paging::page::Size2MiB>>::unmap::{{closure}}
  %11 = call { i64, i64 } @"_ZN189_$LT$x86_64..structures..paging..mapper..recursive_page_table..RecursivePageTable$u20$as$u20$x86_64..structures..paging..mapper..Mapper$LT$x86_64..structures..paging..page..Size2MiB$GT$$GT$5unmap28_$u7b$$u7b$closure$u7d$$u7d$17ha0708acf9eb26ba1E"(i1 zeroext %10) #8, !dbg !1643
  %_6.0 = extractvalue { i64, i64 } %11, 0, !dbg !1643
  %_6.1 = extractvalue { i64, i64 } %11, 1, !dbg !1643
  %12 = getelementptr inbounds { i64, i64 }, ptr %_0, i32 0, i32 0, !dbg !1644
  store i64 %_6.0, ptr %12, align 8, !dbg !1644
  %13 = getelementptr inbounds { i64, i64 }, ptr %_0, i32 0, i32 1, !dbg !1644
  store i64 %_6.1, ptr %13, align 8, !dbg !1644
  br label %bb7, !dbg !1645

bb7:                                              ; preds = %bb1, %bb3
  %14 = load i8, ptr %_9, align 1, !dbg !1646, !range !777, !noundef !18
  %15 = trunc i8 %14 to i1, !dbg !1646
  br i1 %15, label %bb6, label %bb5, !dbg !1646

bb5:                                              ; preds = %bb6, %bb7
  ret void, !dbg !1647

bb6:                                              ; preds = %bb7
  br label %bb5, !dbg !1646

bb2:                                              ; No predecessors!
  unreachable, !dbg !1636
}

; core::result::Result<T,E>::map_err
; Function Attrs: inlinehint noredzone nounwind
define void @"_ZN4core6result19Result$LT$T$C$E$GT$7map_err17hdd091bfee785240cE"(ptr sret(%"core::result::Result<structures::paging::frame::PhysFrame<structures::paging::page::Size1GiB>, structures::paging::mapper::UnmapError>") align 8 %_0, ptr align 8 %self, ptr align 8 %op) unnamed_addr #0 !dbg !1648 {
start:
  %e.dbg.spill = alloca %"structures::paging::page::AddressNotAligned", align 1
  %op.dbg.spill = alloca ptr, align 8
  %_9 = alloca i8, align 1
  %t = alloca %"structures::paging::frame::PhysFrame<structures::paging::page::Size1GiB>", align 8
  call void @llvm.dbg.declare(metadata ptr %self, metadata !1673, metadata !DIExpression()), !dbg !1679
  store ptr %op, ptr %op.dbg.spill, align 8
  call void @llvm.dbg.declare(metadata ptr %op.dbg.spill, metadata !1674, metadata !DIExpression()), !dbg !1680
  call void @llvm.dbg.declare(metadata ptr %t, metadata !1675, metadata !DIExpression()), !dbg !1681
  call void @llvm.dbg.declare(metadata ptr %e.dbg.spill, metadata !1677, metadata !DIExpression()), !dbg !1682
  store i8 0, ptr %_9, align 1, !dbg !1683
  store i8 1, ptr %_9, align 1, !dbg !1683
  %_3 = load i64, ptr %self, align 8, !dbg !1683, !range !902, !noundef !18
  %0 = icmp eq i64 %_3, 0, !dbg !1684
  br i1 %0, label %bb3, label %bb1, !dbg !1684

bb3:                                              ; preds = %start
  %1 = getelementptr inbounds %"core::result::Result<structures::paging::frame::PhysFrame<structures::paging::page::Size1GiB>, structures::paging::page::AddressNotAligned>::Ok", ptr %self, i32 0, i32 1, !dbg !1685
  call void @llvm.memcpy.p0.p0.i64(ptr align 8 %t, ptr align 8 %1, i64 8, i1 false), !dbg !1685
  %2 = getelementptr inbounds %"core::result::Result<structures::paging::frame::PhysFrame<structures::paging::page::Size1GiB>, structures::paging::mapper::UnmapError>::Ok", ptr %_0, i32 0, i32 1, !dbg !1686
  call void @llvm.memcpy.p0.p0.i64(ptr align 8 %2, ptr align 8 %t, i64 8, i1 false), !dbg !1686
  store i64 3, ptr %_0, align 8, !dbg !1686
  br label %bb7, !dbg !1687

bb1:                                              ; preds = %start
  store i8 0, ptr %_9, align 1, !dbg !1688
; call <x86_64::structures::paging::mapper::recursive_page_table::RecursivePageTable as x86_64::structures::paging::mapper::Mapper<x86_64::structures::paging::page::Size1GiB>>::unmap::{{closure}}
  %3 = call { i64, i64 } @"_ZN189_$LT$x86_64..structures..paging..mapper..recursive_page_table..RecursivePageTable$u20$as$u20$x86_64..structures..paging..mapper..Mapper$LT$x86_64..structures..paging..page..Size1GiB$GT$$GT$5unmap28_$u7b$$u7b$closure$u7d$$u7d$17h6ea67b7414d8c550E"(ptr align 8 %op) #8, !dbg !1688
  %_6.0 = extractvalue { i64, i64 } %3, 0, !dbg !1688
  %_6.1 = extractvalue { i64, i64 } %3, 1, !dbg !1688
  %4 = getelementptr inbounds { i64, i64 }, ptr %_0, i32 0, i32 0, !dbg !1689
  store i64 %_6.0, ptr %4, align 8, !dbg !1689
  %5 = getelementptr inbounds { i64, i64 }, ptr %_0, i32 0, i32 1, !dbg !1689
  store i64 %_6.1, ptr %5, align 8, !dbg !1689
  br label %bb7, !dbg !1690

bb7:                                              ; preds = %bb1, %bb3
  %6 = load i8, ptr %_9, align 1, !dbg !1691, !range !777, !noundef !18
  %7 = trunc i8 %6 to i1, !dbg !1691
  br i1 %7, label %bb6, label %bb5, !dbg !1691

bb5:                                              ; preds = %bb6, %bb7
  ret void, !dbg !1692

bb6:                                              ; preds = %bb7
  br label %bb5, !dbg !1691

bb2:                                              ; No predecessors!
  unreachable, !dbg !1683
}

; core::result::Result<T,E>::map_err
; Function Attrs: inlinehint noredzone nounwind
define void @"_ZN4core6result19Result$LT$T$C$E$GT$7map_err17hee867d3fa11f2d75E"(ptr sret(%"core::result::Result<structures::paging::frame::PhysFrame, structures::paging::mapper::UnmapError>") align 8 %_0, ptr align 8 %self) unnamed_addr #0 !dbg !1693 {
start:
  %e.dbg.spill = alloca i8, align 1
  %op.dbg.spill = alloca %"{closure@/Users/yaw/.cargo/registry/src/index.crates.io-6f17d22bba15001f/x86_64-0.14.10/src/structures/paging/mapper/recursive_page_table.rs:588:34: 588:39}", align 1
  %_9 = alloca i8, align 1
  %_8 = alloca i8, align 1
  %t = alloca %"structures::paging::frame::PhysFrame", align 8
  call void @llvm.dbg.declare(metadata ptr %self, metadata !1701, metadata !DIExpression()), !dbg !1707
  call void @llvm.dbg.declare(metadata ptr %op.dbg.spill, metadata !1702, metadata !DIExpression()), !dbg !1708
  call void @llvm.dbg.declare(metadata ptr %t, metadata !1703, metadata !DIExpression()), !dbg !1709
  store i8 0, ptr %_9, align 1, !dbg !1710
  store i8 1, ptr %_9, align 1, !dbg !1710
  %0 = load i8, ptr %self, align 8, !dbg !1710, !range !777, !noundef !18
  %1 = trunc i8 %0 to i1, !dbg !1710
  %_3 = zext i1 %1 to i64, !dbg !1710
  %2 = icmp eq i64 %_3, 0, !dbg !1711
  br i1 %2, label %bb3, label %bb1, !dbg !1711

bb3:                                              ; preds = %start
  %3 = getelementptr inbounds %"core::result::Result<structures::paging::frame::PhysFrame, structures::paging::page_table::FrameError>::Ok", ptr %self, i32 0, i32 1, !dbg !1712
  call void @llvm.memcpy.p0.p0.i64(ptr align 8 %t, ptr align 8 %3, i64 8, i1 false), !dbg !1712
  %4 = getelementptr inbounds %"core::result::Result<structures::paging::frame::PhysFrame, structures::paging::mapper::UnmapError>::Ok", ptr %_0, i32 0, i32 1, !dbg !1713
  call void @llvm.memcpy.p0.p0.i64(ptr align 8 %4, ptr align 8 %t, i64 8, i1 false), !dbg !1713
  store i64 3, ptr %_0, align 8, !dbg !1713
  br label %bb7, !dbg !1714

bb1:                                              ; preds = %start
  %5 = getelementptr inbounds %"core::result::Result<structures::paging::frame::PhysFrame, structures::paging::page_table::FrameError>::Err", ptr %self, i32 0, i32 1, !dbg !1715
  %6 = load i8, ptr %5, align 1, !dbg !1715, !range !777, !noundef !18
  %e = trunc i8 %6 to i1, !dbg !1715
  %7 = zext i1 %e to i8, !dbg !1715
  store i8 %7, ptr %e.dbg.spill, align 1, !dbg !1715
  call void @llvm.dbg.declare(metadata ptr %e.dbg.spill, metadata !1705, metadata !DIExpression()), !dbg !1716
  store i8 0, ptr %_9, align 1, !dbg !1717
  %8 = zext i1 %e to i8, !dbg !1717
  store i8 %8, ptr %_8, align 1, !dbg !1717
  %9 = load i8, ptr %_8, align 1, !dbg !1717, !range !777, !noundef !18
  %10 = trunc i8 %9 to i1, !dbg !1717
; call <x86_64::structures::paging::mapper::recursive_page_table::RecursivePageTable as x86_64::structures::paging::mapper::Mapper<x86_64::structures::paging::page::Size4KiB>>::unmap::{{closure}}
  %11 = call { i64, i64 } @"_ZN189_$LT$x86_64..structures..paging..mapper..recursive_page_table..RecursivePageTable$u20$as$u20$x86_64..structures..paging..mapper..Mapper$LT$x86_64..structures..paging..page..Size4KiB$GT$$GT$5unmap28_$u7b$$u7b$closure$u7d$$u7d$17h3caf21caf98af9c7E"(i1 zeroext %10) #8, !dbg !1717
  %_6.0 = extractvalue { i64, i64 } %11, 0, !dbg !1717
  %_6.1 = extractvalue { i64, i64 } %11, 1, !dbg !1717
  %12 = getelementptr inbounds { i64, i64 }, ptr %_0, i32 0, i32 0, !dbg !1718
  store i64 %_6.0, ptr %12, align 8, !dbg !1718
  %13 = getelementptr inbounds { i64, i64 }, ptr %_0, i32 0, i32 1, !dbg !1718
  store i64 %_6.1, ptr %13, align 8, !dbg !1718
  br label %bb7, !dbg !1719

bb7:                                              ; preds = %bb1, %bb3
  %14 = load i8, ptr %_9, align 1, !dbg !1720, !range !777, !noundef !18
  %15 = trunc i8 %14 to i1, !dbg !1720
  br i1 %15, label %bb6, label %bb5, !dbg !1720

bb5:                                              ; preds = %bb6, %bb7
  ret void, !dbg !1721

bb6:                                              ; preds = %bb7
  br label %bb5, !dbg !1720

bb2:                                              ; No predecessors!
  unreachable, !dbg !1710
}

; core::result::Result<T,E>::map_err
; Function Attrs: inlinehint noredzone nounwind
define void @"_ZN4core6result19Result$LT$T$C$E$GT$7map_err17hef67ee25afc42ed5E"(ptr sret(%"core::result::Result<structures::paging::frame::PhysFrame, structures::paging::mapper::UnmapError>") align 8 %_0, ptr align 8 %self) unnamed_addr #0 !dbg !1722 {
start:
  %e.dbg.spill = alloca i8, align 1
  %op.dbg.spill = alloca %"{closure@/Users/yaw/.cargo/registry/src/index.crates.io-6f17d22bba15001f/x86_64-0.14.10/src/structures/paging/mapper/recursive_page_table.rs:314:34: 314:39}", align 1
  %_9 = alloca i8, align 1
  %_8 = alloca i8, align 1
  %t = alloca %"structures::paging::frame::PhysFrame", align 8
  call void @llvm.dbg.declare(metadata ptr %self, metadata !1730, metadata !DIExpression()), !dbg !1736
  call void @llvm.dbg.declare(metadata ptr %op.dbg.spill, metadata !1731, metadata !DIExpression()), !dbg !1737
  call void @llvm.dbg.declare(metadata ptr %t, metadata !1732, metadata !DIExpression()), !dbg !1738
  store i8 0, ptr %_9, align 1, !dbg !1739
  store i8 1, ptr %_9, align 1, !dbg !1739
  %0 = load i8, ptr %self, align 8, !dbg !1739, !range !777, !noundef !18
  %1 = trunc i8 %0 to i1, !dbg !1739
  %_3 = zext i1 %1 to i64, !dbg !1739
  %2 = icmp eq i64 %_3, 0, !dbg !1740
  br i1 %2, label %bb3, label %bb1, !dbg !1740

bb3:                                              ; preds = %start
  %3 = getelementptr inbounds %"core::result::Result<structures::paging::frame::PhysFrame, structures::paging::page_table::FrameError>::Ok", ptr %self, i32 0, i32 1, !dbg !1741
  call void @llvm.memcpy.p0.p0.i64(ptr align 8 %t, ptr align 8 %3, i64 8, i1 false), !dbg !1741
  %4 = getelementptr inbounds %"core::result::Result<structures::paging::frame::PhysFrame, structures::paging::mapper::UnmapError>::Ok", ptr %_0, i32 0, i32 1, !dbg !1742
  call void @llvm.memcpy.p0.p0.i64(ptr align 8 %4, ptr align 8 %t, i64 8, i1 false), !dbg !1742
  store i64 3, ptr %_0, align 8, !dbg !1742
  br label %bb7, !dbg !1743

bb1:                                              ; preds = %start
  %5 = getelementptr inbounds %"core::result::Result<structures::paging::frame::PhysFrame, structures::paging::page_table::FrameError>::Err", ptr %self, i32 0, i32 1, !dbg !1744
  %6 = load i8, ptr %5, align 1, !dbg !1744, !range !777, !noundef !18
  %e = trunc i8 %6 to i1, !dbg !1744
  %7 = zext i1 %e to i8, !dbg !1744
  store i8 %7, ptr %e.dbg.spill, align 1, !dbg !1744
  call void @llvm.dbg.declare(metadata ptr %e.dbg.spill, metadata !1734, metadata !DIExpression()), !dbg !1745
  store i8 0, ptr %_9, align 1, !dbg !1746
  %8 = zext i1 %e to i8, !dbg !1746
  store i8 %8, ptr %_8, align 1, !dbg !1746
  %9 = load i8, ptr %_8, align 1, !dbg !1746, !range !777, !noundef !18
  %10 = trunc i8 %9 to i1, !dbg !1746
; call <x86_64::structures::paging::mapper::recursive_page_table::RecursivePageTable as x86_64::structures::paging::mapper::Mapper<x86_64::structures::paging::page::Size1GiB>>::unmap::{{closure}}
  %11 = call { i64, i64 } @"_ZN189_$LT$x86_64..structures..paging..mapper..recursive_page_table..RecursivePageTable$u20$as$u20$x86_64..structures..paging..mapper..Mapper$LT$x86_64..structures..paging..page..Size1GiB$GT$$GT$5unmap28_$u7b$$u7b$closure$u7d$$u7d$17h32181cfe38845d18E"(i1 zeroext %10) #8, !dbg !1746
  %_6.0 = extractvalue { i64, i64 } %11, 0, !dbg !1746
  %_6.1 = extractvalue { i64, i64 } %11, 1, !dbg !1746
  %12 = getelementptr inbounds { i64, i64 }, ptr %_0, i32 0, i32 0, !dbg !1747
  store i64 %_6.0, ptr %12, align 8, !dbg !1747
  %13 = getelementptr inbounds { i64, i64 }, ptr %_0, i32 0, i32 1, !dbg !1747
  store i64 %_6.1, ptr %13, align 8, !dbg !1747
  br label %bb7, !dbg !1748

bb7:                                              ; preds = %bb1, %bb3
  %14 = load i8, ptr %_9, align 1, !dbg !1749, !range !777, !noundef !18
  %15 = trunc i8 %14 to i1, !dbg !1749
  br i1 %15, label %bb6, label %bb5, !dbg !1749

bb5:                                              ; preds = %bb6, %bb7
  ret void, !dbg !1750

bb6:                                              ; preds = %bb7
  br label %bb5, !dbg !1749

bb2:                                              ; No predecessors!
  unreachable, !dbg !1739
}

; core::convert::num::ptr_try_from_impls::<impl core::convert::TryFrom<u64> for usize>::try_from
; Function Attrs: inlinehint noredzone nounwind
define internal { i64, i64 } @"_ZN4core7convert3num18ptr_try_from_impls69_$LT$impl$u20$core..convert..TryFrom$LT$u64$GT$$u20$for$u20$usize$GT$8try_from17h1782b4522293fd4dE"(i64 %value) unnamed_addr #0 !dbg !1751 {
start:
  %value.dbg.spill = alloca i64, align 8
  %_0 = alloca { i64, i64 }, align 8
  store i64 %value, ptr %value.dbg.spill, align 8
  call void @llvm.dbg.declare(metadata ptr %value.dbg.spill, metadata !1759, metadata !DIExpression()), !dbg !1760
  %0 = getelementptr inbounds { i64, i64 }, ptr %_0, i32 0, i32 1, !dbg !1761
  store i64 %value, ptr %0, align 8, !dbg !1761
  store i64 0, ptr %_0, align 8, !dbg !1761
  %1 = getelementptr inbounds { i64, i64 }, ptr %_0, i32 0, i32 0, !dbg !1762
  %2 = load i64, ptr %1, align 8, !dbg !1762, !range !902, !noundef !18
  %3 = getelementptr inbounds { i64, i64 }, ptr %_0, i32 0, i32 1, !dbg !1762
  %4 = load i64, ptr %3, align 8, !dbg !1762
  %5 = insertvalue { i64, i64 } poison, i64 %2, 0, !dbg !1762
  %6 = insertvalue { i64, i64 } %5, i64 %4, 1, !dbg !1762
  ret { i64, i64 } %6, !dbg !1762
}

; core::convert::num::ptr_try_from_impls::<impl core::convert::TryFrom<usize> for u64>::try_from
; Function Attrs: inlinehint noredzone nounwind
define internal { i64, i64 } @"_ZN4core7convert3num18ptr_try_from_impls69_$LT$impl$u20$core..convert..TryFrom$LT$usize$GT$$u20$for$u20$u64$GT$8try_from17h5c97c395b069580aE"(i64 %value) unnamed_addr #0 !dbg !1763 {
start:
  %value.dbg.spill = alloca i64, align 8
  %_0 = alloca { i64, i64 }, align 8
  store i64 %value, ptr %value.dbg.spill, align 8
  call void @llvm.dbg.declare(metadata ptr %value.dbg.spill, metadata !1768, metadata !DIExpression()), !dbg !1769
  %0 = getelementptr inbounds { i64, i64 }, ptr %_0, i32 0, i32 1, !dbg !1770
  store i64 %value, ptr %0, align 8, !dbg !1770
  store i64 0, ptr %_0, align 8, !dbg !1770
  %1 = getelementptr inbounds { i64, i64 }, ptr %_0, i32 0, i32 0, !dbg !1771
  %2 = load i64, ptr %1, align 8, !dbg !1771, !range !902, !noundef !18
  %3 = getelementptr inbounds { i64, i64 }, ptr %_0, i32 0, i32 1, !dbg !1771
  %4 = load i64, ptr %3, align 8, !dbg !1771
  %5 = insertvalue { i64, i64 } poison, i64 %2, 0, !dbg !1771
  %6 = insertvalue { i64, i64 } %5, i64 %4, 1, !dbg !1771
  ret { i64, i64 } %6, !dbg !1771
}

; <T as core::convert::Into<U>>::into
; Function Attrs: inlinehint noredzone nounwind
define i64 @"_ZN50_$LT$T$u20$as$u20$core..convert..Into$LT$U$GT$$GT$4into17h473751cb36709d5aE"(i64 %self) unnamed_addr #0 !dbg !1772 {
start:
  %t.dbg.spill.i = alloca i64, align 8
  %self.dbg.spill = alloca i64, align 8
  store i64 %self, ptr %self.dbg.spill, align 8
  call void @llvm.dbg.declare(metadata ptr %self.dbg.spill, metadata !1777, metadata !DIExpression()), !dbg !1780
  store i64 %self, ptr %t.dbg.spill.i, align 8
  call void @llvm.dbg.declare(metadata ptr %t.dbg.spill.i, metadata !1781, metadata !DIExpression()), !dbg !1784
  ret i64 %self, !dbg !1786
}

; <core::result::Result<T,E> as core::ops::try_trait::Try>::branch
; Function Attrs: inlinehint noredzone nounwind
define void @"_ZN79_$LT$core..result..Result$LT$T$C$E$GT$$u20$as$u20$core..ops..try_trait..Try$GT$6branch17h05c1445f28eb908bE"(ptr sret(%"core::ops::control_flow::ControlFlow<core::result::Result<core::convert::Infallible, structures::paging::mapper::UnmapError>, structures::paging::frame::PhysFrame<structures::paging::page::Size1GiB>>") align 8 %_0, ptr align 8 %self) unnamed_addr #0 !dbg !1787 {
start:
  %e.dbg.spill = alloca { i64, i64 }, align 8
  %_5 = alloca { i64, i64 }, align 8
  %v = alloca %"structures::paging::frame::PhysFrame<structures::paging::page::Size1GiB>", align 8
  call void @llvm.dbg.declare(metadata ptr %self, metadata !1809, metadata !DIExpression()), !dbg !1814
  call void @llvm.dbg.declare(metadata ptr %v, metadata !1810, metadata !DIExpression()), !dbg !1815
  %0 = load i64, ptr %self, align 8, !dbg !1816, !range !1817, !noundef !18
  %1 = icmp eq i64 %0, 3, !dbg !1816
  %_2 = select i1 %1, i64 0, i64 1, !dbg !1816
  %2 = icmp eq i64 %_2, 0, !dbg !1818
  br i1 %2, label %bb3, label %bb1, !dbg !1818

bb3:                                              ; preds = %start
  %3 = getelementptr inbounds %"core::result::Result<structures::paging::frame::PhysFrame<structures::paging::page::Size1GiB>, structures::paging::mapper::UnmapError>::Ok", ptr %self, i32 0, i32 1, !dbg !1819
  call void @llvm.memcpy.p0.p0.i64(ptr align 8 %v, ptr align 8 %3, i64 8, i1 false), !dbg !1819
  %4 = getelementptr inbounds %"core::ops::control_flow::ControlFlow<core::result::Result<core::convert::Infallible, structures::paging::mapper::UnmapError>, structures::paging::frame::PhysFrame<structures::paging::page::Size1GiB>>::Continue", ptr %_0, i32 0, i32 1, !dbg !1820
  call void @llvm.memcpy.p0.p0.i64(ptr align 8 %4, ptr align 8 %v, i64 8, i1 false), !dbg !1820
  store i64 3, ptr %_0, align 8, !dbg !1820
  br label %bb4, !dbg !1821

bb1:                                              ; preds = %start
  %5 = getelementptr inbounds { i64, i64 }, ptr %self, i32 0, i32 0, !dbg !1822
  %e.0 = load i64, ptr %5, align 8, !dbg !1822, !range !428, !noundef !18
  %6 = getelementptr inbounds { i64, i64 }, ptr %self, i32 0, i32 1, !dbg !1822
  %e.1 = load i64, ptr %6, align 8, !dbg !1822
  %7 = getelementptr inbounds { i64, i64 }, ptr %e.dbg.spill, i32 0, i32 0, !dbg !1822
  store i64 %e.0, ptr %7, align 8, !dbg !1822
  %8 = getelementptr inbounds { i64, i64 }, ptr %e.dbg.spill, i32 0, i32 1, !dbg !1822
  store i64 %e.1, ptr %8, align 8, !dbg !1822
  call void @llvm.dbg.declare(metadata ptr %e.dbg.spill, metadata !1812, metadata !DIExpression()), !dbg !1823
  %9 = getelementptr inbounds { i64, i64 }, ptr %_5, i32 0, i32 0, !dbg !1824
  store i64 %e.0, ptr %9, align 8, !dbg !1824
  %10 = getelementptr inbounds { i64, i64 }, ptr %_5, i32 0, i32 1, !dbg !1824
  store i64 %e.1, ptr %10, align 8, !dbg !1824
  %11 = getelementptr inbounds { i64, i64 }, ptr %_5, i32 0, i32 0, !dbg !1825
  %12 = load i64, ptr %11, align 8, !dbg !1825, !range !428, !noundef !18
  %13 = getelementptr inbounds { i64, i64 }, ptr %_5, i32 0, i32 1, !dbg !1825
  %14 = load i64, ptr %13, align 8, !dbg !1825
  %15 = getelementptr inbounds { i64, i64 }, ptr %_0, i32 0, i32 0, !dbg !1825
  store i64 %12, ptr %15, align 8, !dbg !1825
  %16 = getelementptr inbounds { i64, i64 }, ptr %_0, i32 0, i32 1, !dbg !1825
  store i64 %14, ptr %16, align 8, !dbg !1825
  br label %bb4, !dbg !1826

bb4:                                              ; preds = %bb1, %bb3
  ret void, !dbg !1827

bb2:                                              ; No predecessors!
  unreachable, !dbg !1816
}

; <core::result::Result<T,E> as core::ops::try_trait::Try>::branch
; Function Attrs: inlinehint noredzone nounwind
define void @"_ZN79_$LT$core..result..Result$LT$T$C$E$GT$$u20$as$u20$core..ops..try_trait..Try$GT$6branch17h61290bec2ee60db8E"(ptr sret(%"core::ops::control_flow::ControlFlow<core::result::Result<core::convert::Infallible, structures::paging::mapper::UnmapError>, structures::paging::frame::PhysFrame>") align 8 %_0, ptr align 8 %self) unnamed_addr #0 !dbg !1828 {
start:
  %e.dbg.spill = alloca { i64, i64 }, align 8
  %_5 = alloca { i64, i64 }, align 8
  %v = alloca %"structures::paging::frame::PhysFrame", align 8
  call void @llvm.dbg.declare(metadata ptr %self, metadata !1847, metadata !DIExpression()), !dbg !1852
  call void @llvm.dbg.declare(metadata ptr %v, metadata !1848, metadata !DIExpression()), !dbg !1853
  %0 = load i64, ptr %self, align 8, !dbg !1854, !range !1817, !noundef !18
  %1 = icmp eq i64 %0, 3, !dbg !1854
  %_2 = select i1 %1, i64 0, i64 1, !dbg !1854
  %2 = icmp eq i64 %_2, 0, !dbg !1855
  br i1 %2, label %bb3, label %bb1, !dbg !1855

bb3:                                              ; preds = %start
  %3 = getelementptr inbounds %"core::result::Result<structures::paging::frame::PhysFrame, structures::paging::mapper::UnmapError>::Ok", ptr %self, i32 0, i32 1, !dbg !1856
  call void @llvm.memcpy.p0.p0.i64(ptr align 8 %v, ptr align 8 %3, i64 8, i1 false), !dbg !1856
  %4 = getelementptr inbounds %"core::ops::control_flow::ControlFlow<core::result::Result<core::convert::Infallible, structures::paging::mapper::UnmapError>, structures::paging::frame::PhysFrame>::Continue", ptr %_0, i32 0, i32 1, !dbg !1857
  call void @llvm.memcpy.p0.p0.i64(ptr align 8 %4, ptr align 8 %v, i64 8, i1 false), !dbg !1857
  store i64 3, ptr %_0, align 8, !dbg !1857
  br label %bb4, !dbg !1858

bb1:                                              ; preds = %start
  %5 = getelementptr inbounds { i64, i64 }, ptr %self, i32 0, i32 0, !dbg !1859
  %e.0 = load i64, ptr %5, align 8, !dbg !1859, !range !428, !noundef !18
  %6 = getelementptr inbounds { i64, i64 }, ptr %self, i32 0, i32 1, !dbg !1859
  %e.1 = load i64, ptr %6, align 8, !dbg !1859
  %7 = getelementptr inbounds { i64, i64 }, ptr %e.dbg.spill, i32 0, i32 0, !dbg !1859
  store i64 %e.0, ptr %7, align 8, !dbg !1859
  %8 = getelementptr inbounds { i64, i64 }, ptr %e.dbg.spill, i32 0, i32 1, !dbg !1859
  store i64 %e.1, ptr %8, align 8, !dbg !1859
  call void @llvm.dbg.declare(metadata ptr %e.dbg.spill, metadata !1850, metadata !DIExpression()), !dbg !1860
  %9 = getelementptr inbounds { i64, i64 }, ptr %_5, i32 0, i32 0, !dbg !1861
  store i64 %e.0, ptr %9, align 8, !dbg !1861
  %10 = getelementptr inbounds { i64, i64 }, ptr %_5, i32 0, i32 1, !dbg !1861
  store i64 %e.1, ptr %10, align 8, !dbg !1861
  %11 = getelementptr inbounds { i64, i64 }, ptr %_5, i32 0, i32 0, !dbg !1862
  %12 = load i64, ptr %11, align 8, !dbg !1862, !range !428, !noundef !18
  %13 = getelementptr inbounds { i64, i64 }, ptr %_5, i32 0, i32 1, !dbg !1862
  %14 = load i64, ptr %13, align 8, !dbg !1862
  %15 = getelementptr inbounds { i64, i64 }, ptr %_0, i32 0, i32 0, !dbg !1862
  store i64 %12, ptr %15, align 8, !dbg !1862
  %16 = getelementptr inbounds { i64, i64 }, ptr %_0, i32 0, i32 1, !dbg !1862
  store i64 %14, ptr %16, align 8, !dbg !1862
  br label %bb4, !dbg !1863

bb4:                                              ; preds = %bb1, %bb3
  ret void, !dbg !1864

bb2:                                              ; No predecessors!
  unreachable, !dbg !1854
}

; <core::result::Result<T,E> as core::ops::try_trait::Try>::branch
; Function Attrs: inlinehint noredzone nounwind
define void @"_ZN79_$LT$core..result..Result$LT$T$C$E$GT$$u20$as$u20$core..ops..try_trait..Try$GT$6branch17he7b499b98108baccE"(ptr sret(%"core::ops::control_flow::ControlFlow<core::result::Result<core::convert::Infallible, structures::paging::mapper::UnmapError>, structures::paging::frame::PhysFrame<structures::paging::page::Size2MiB>>") align 8 %_0, ptr align 8 %self) unnamed_addr #0 !dbg !1865 {
start:
  %e.dbg.spill = alloca { i64, i64 }, align 8
  %_5 = alloca { i64, i64 }, align 8
  %v = alloca %"structures::paging::frame::PhysFrame<structures::paging::page::Size2MiB>", align 8
  call void @llvm.dbg.declare(metadata ptr %self, metadata !1884, metadata !DIExpression()), !dbg !1889
  call void @llvm.dbg.declare(metadata ptr %v, metadata !1885, metadata !DIExpression()), !dbg !1890
  %0 = load i64, ptr %self, align 8, !dbg !1891, !range !1817, !noundef !18
  %1 = icmp eq i64 %0, 3, !dbg !1891
  %_2 = select i1 %1, i64 0, i64 1, !dbg !1891
  %2 = icmp eq i64 %_2, 0, !dbg !1892
  br i1 %2, label %bb3, label %bb1, !dbg !1892

bb3:                                              ; preds = %start
  %3 = getelementptr inbounds %"core::result::Result<structures::paging::frame::PhysFrame<structures::paging::page::Size2MiB>, structures::paging::mapper::UnmapError>::Ok", ptr %self, i32 0, i32 1, !dbg !1893
  call void @llvm.memcpy.p0.p0.i64(ptr align 8 %v, ptr align 8 %3, i64 8, i1 false), !dbg !1893
  %4 = getelementptr inbounds %"core::ops::control_flow::ControlFlow<core::result::Result<core::convert::Infallible, structures::paging::mapper::UnmapError>, structures::paging::frame::PhysFrame<structures::paging::page::Size2MiB>>::Continue", ptr %_0, i32 0, i32 1, !dbg !1894
  call void @llvm.memcpy.p0.p0.i64(ptr align 8 %4, ptr align 8 %v, i64 8, i1 false), !dbg !1894
  store i64 3, ptr %_0, align 8, !dbg !1894
  br label %bb4, !dbg !1895

bb1:                                              ; preds = %start
  %5 = getelementptr inbounds { i64, i64 }, ptr %self, i32 0, i32 0, !dbg !1896
  %e.0 = load i64, ptr %5, align 8, !dbg !1896, !range !428, !noundef !18
  %6 = getelementptr inbounds { i64, i64 }, ptr %self, i32 0, i32 1, !dbg !1896
  %e.1 = load i64, ptr %6, align 8, !dbg !1896
  %7 = getelementptr inbounds { i64, i64 }, ptr %e.dbg.spill, i32 0, i32 0, !dbg !1896
  store i64 %e.0, ptr %7, align 8, !dbg !1896
  %8 = getelementptr inbounds { i64, i64 }, ptr %e.dbg.spill, i32 0, i32 1, !dbg !1896
  store i64 %e.1, ptr %8, align 8, !dbg !1896
  call void @llvm.dbg.declare(metadata ptr %e.dbg.spill, metadata !1887, metadata !DIExpression()), !dbg !1897
  %9 = getelementptr inbounds { i64, i64 }, ptr %_5, i32 0, i32 0, !dbg !1898
  store i64 %e.0, ptr %9, align 8, !dbg !1898
  %10 = getelementptr inbounds { i64, i64 }, ptr %_5, i32 0, i32 1, !dbg !1898
  store i64 %e.1, ptr %10, align 8, !dbg !1898
  %11 = getelementptr inbounds { i64, i64 }, ptr %_5, i32 0, i32 0, !dbg !1899
  %12 = load i64, ptr %11, align 8, !dbg !1899, !range !428, !noundef !18
  %13 = getelementptr inbounds { i64, i64 }, ptr %_5, i32 0, i32 1, !dbg !1899
  %14 = load i64, ptr %13, align 8, !dbg !1899
  %15 = getelementptr inbounds { i64, i64 }, ptr %_0, i32 0, i32 0, !dbg !1899
  store i64 %12, ptr %15, align 8, !dbg !1899
  %16 = getelementptr inbounds { i64, i64 }, ptr %_0, i32 0, i32 1, !dbg !1899
  store i64 %14, ptr %16, align 8, !dbg !1899
  br label %bb4, !dbg !1900

bb4:                                              ; preds = %bb1, %bb3
  ret void, !dbg !1901

bb2:                                              ; No predecessors!
  unreachable, !dbg !1891
}

; <core::option::Option<T> as core::ops::try_trait::FromResidual>::from_residual
; Function Attrs: inlinehint noredzone nounwind
define { i64, i64 } @"_ZN84_$LT$core..option..Option$LT$T$GT$$u20$as$u20$core..ops..try_trait..FromResidual$GT$13from_residual17hfc54b22b7fe414dfE"() unnamed_addr #0 !dbg !1902 {
start:
  %_1.dbg.spill = alloca %"core::option::Option<core::convert::Infallible>::None", align 1
  %_0 = alloca { i64, i64 }, align 8
  %residual.dbg.spill = alloca %"core::option::Option<core::convert::Infallible>::None", align 1
  call void @llvm.dbg.declare(metadata ptr %residual.dbg.spill, metadata !1929, metadata !DIExpression()), !dbg !1931
  call void @llvm.dbg.declare(metadata ptr %_1.dbg.spill, metadata !1930, metadata !DIExpression()), !dbg !1931
  store i64 0, ptr %_0, align 8, !dbg !1932
  %0 = getelementptr inbounds { i64, i64 }, ptr %_0, i32 0, i32 0, !dbg !1933
  %1 = load i64, ptr %0, align 8, !dbg !1933, !range !902, !noundef !18
  %2 = getelementptr inbounds { i64, i64 }, ptr %_0, i32 0, i32 1, !dbg !1933
  %3 = load i64, ptr %2, align 8, !dbg !1933
  %4 = insertvalue { i64, i64 } poison, i64 %1, 0, !dbg !1933
  %5 = insertvalue { i64, i64 } %4, i64 %3, 1, !dbg !1933
  ret { i64, i64 } %5, !dbg !1933
}

; <core::ops::range::Range<T> as core::ops::range::RangeBounds<T>>::start_bound
; Function Attrs: noredzone nounwind
define { i64, ptr } @"_ZN91_$LT$core..ops..range..Range$LT$T$GT$$u20$as$u20$core..ops..range..RangeBounds$LT$T$GT$$GT$11start_bound17h526802a23a8701c2E"(ptr align 8 %self) unnamed_addr #1 !dbg !1934 {
start:
  %self.dbg.spill = alloca ptr, align 8
  %_0 = alloca { i64, ptr }, align 8
  store ptr %self, ptr %self.dbg.spill, align 8
  call void @llvm.dbg.declare(metadata ptr %self.dbg.spill, metadata !1959, metadata !DIExpression()), !dbg !1960
  %0 = getelementptr inbounds { i64, ptr }, ptr %_0, i32 0, i32 1, !dbg !1961
  store ptr %self, ptr %0, align 8, !dbg !1961
  store i64 0, ptr %_0, align 8, !dbg !1961
  %1 = getelementptr inbounds { i64, ptr }, ptr %_0, i32 0, i32 0, !dbg !1962
  %2 = load i64, ptr %1, align 8, !dbg !1962, !range !428, !noundef !18
  %3 = getelementptr inbounds { i64, ptr }, ptr %_0, i32 0, i32 1, !dbg !1962
  %4 = load ptr, ptr %3, align 8, !dbg !1962
  %5 = insertvalue { i64, ptr } poison, i64 %2, 0, !dbg !1962
  %6 = insertvalue { i64, ptr } %5, ptr %4, 1, !dbg !1962
  ret { i64, ptr } %6, !dbg !1962
}

; <core::ops::range::Range<T> as core::ops::range::RangeBounds<T>>::end_bound
; Function Attrs: noredzone nounwind
define { i64, ptr } @"_ZN91_$LT$core..ops..range..Range$LT$T$GT$$u20$as$u20$core..ops..range..RangeBounds$LT$T$GT$$GT$9end_bound17h1c416404d82f5e57E"(ptr align 8 %self) unnamed_addr #1 !dbg !1963 {
start:
  %self.dbg.spill = alloca ptr, align 8
  %_0 = alloca { i64, ptr }, align 8
  store ptr %self, ptr %self.dbg.spill, align 8
  call void @llvm.dbg.declare(metadata ptr %self.dbg.spill, metadata !1965, metadata !DIExpression()), !dbg !1966
  %_2 = getelementptr inbounds { i64, i64 }, ptr %self, i32 0, i32 1, !dbg !1967
  %0 = getelementptr inbounds { i64, ptr }, ptr %_0, i32 0, i32 1, !dbg !1968
  store ptr %_2, ptr %0, align 8, !dbg !1968
  store i64 1, ptr %_0, align 8, !dbg !1968
  %1 = getelementptr inbounds { i64, ptr }, ptr %_0, i32 0, i32 0, !dbg !1969
  %2 = load i64, ptr %1, align 8, !dbg !1969, !range !428, !noundef !18
  %3 = getelementptr inbounds { i64, ptr }, ptr %_0, i32 0, i32 1, !dbg !1969
  %4 = load ptr, ptr %3, align 8, !dbg !1969
  %5 = insertvalue { i64, ptr } poison, i64 %2, 0, !dbg !1969
  %6 = insertvalue { i64, ptr } %5, ptr %4, 1, !dbg !1969
  ret { i64, ptr } %6, !dbg !1969
}

; <core::ops::range::RangeFrom<T> as core::ops::range::RangeBounds<T>>::start_bound
; Function Attrs: noredzone nounwind
define { i64, ptr } @"_ZN95_$LT$core..ops..range..RangeFrom$LT$T$GT$$u20$as$u20$core..ops..range..RangeBounds$LT$T$GT$$GT$11start_bound17h30b86393326647abE"(ptr align 8 %self) unnamed_addr #1 !dbg !1970 {
start:
  %self.dbg.spill = alloca ptr, align 8
  %_0 = alloca { i64, ptr }, align 8
  store ptr %self, ptr %self.dbg.spill, align 8
  call void @llvm.dbg.declare(metadata ptr %self.dbg.spill, metadata !1976, metadata !DIExpression()), !dbg !1977
  %0 = getelementptr inbounds { i64, ptr }, ptr %_0, i32 0, i32 1, !dbg !1978
  store ptr %self, ptr %0, align 8, !dbg !1978
  store i64 0, ptr %_0, align 8, !dbg !1978
  %1 = getelementptr inbounds { i64, ptr }, ptr %_0, i32 0, i32 0, !dbg !1979
  %2 = load i64, ptr %1, align 8, !dbg !1979, !range !428, !noundef !18
  %3 = getelementptr inbounds { i64, ptr }, ptr %_0, i32 0, i32 1, !dbg !1979
  %4 = load ptr, ptr %3, align 8, !dbg !1979
  %5 = insertvalue { i64, ptr } poison, i64 %2, 0, !dbg !1979
  %6 = insertvalue { i64, ptr } %5, ptr %4, 1, !dbg !1979
  ret { i64, ptr } %6, !dbg !1979
}

; <core::ops::range::RangeFrom<T> as core::ops::range::RangeBounds<T>>::end_bound
; Function Attrs: noredzone nounwind
define { i64, ptr } @"_ZN95_$LT$core..ops..range..RangeFrom$LT$T$GT$$u20$as$u20$core..ops..range..RangeBounds$LT$T$GT$$GT$9end_bound17h51bf01e9862af92fE"(ptr align 8 %self) unnamed_addr #1 !dbg !1980 {
start:
  %self.dbg.spill = alloca ptr, align 8
  %_0 = alloca { i64, ptr }, align 8
  store ptr %self, ptr %self.dbg.spill, align 8
  call void @llvm.dbg.declare(metadata ptr %self.dbg.spill, metadata !1982, metadata !DIExpression()), !dbg !1983
  store i64 2, ptr %_0, align 8, !dbg !1984
  %0 = getelementptr inbounds { i64, ptr }, ptr %_0, i32 0, i32 0, !dbg !1985
  %1 = load i64, ptr %0, align 8, !dbg !1985, !range !428, !noundef !18
  %2 = getelementptr inbounds { i64, ptr }, ptr %_0, i32 0, i32 1, !dbg !1985
  %3 = load ptr, ptr %2, align 8, !dbg !1985
  %4 = insertvalue { i64, ptr } poison, i64 %1, 0, !dbg !1985
  %5 = insertvalue { i64, ptr } %4, ptr %3, 1, !dbg !1985
  ret { i64, ptr } %5, !dbg !1985
}

; bit_field::to_regular_range
; Function Attrs: noredzone nounwind
define { i64, i64 } @_ZN9bit_field16to_regular_range17h85f94678ea43449eE(ptr align 8 %generic_rage, i64 %bit_length) unnamed_addr #1 !dbg !1986 {
start:
  %value.dbg.spill8 = alloca i64, align 8
  %value.dbg.spill5 = alloca i64, align 8
  %value.dbg.spill3 = alloca i64, align 8
  %value.dbg.spill = alloca i64, align 8
  %bit_length.dbg.spill = alloca i64, align 8
  %generic_rage.dbg.spill = alloca ptr, align 8
  %_10 = alloca { i64, ptr }, align 8
  %end = alloca i64, align 8
  %_4 = alloca { i64, ptr }, align 8
  %start1 = alloca i64, align 8
  %_0 = alloca { i64, i64 }, align 8
  store ptr %generic_rage, ptr %generic_rage.dbg.spill, align 8
  call void @llvm.dbg.declare(metadata ptr %generic_rage.dbg.spill, metadata !1990, metadata !DIExpression()), !dbg !2004
  store i64 %bit_length, ptr %bit_length.dbg.spill, align 8
  call void @llvm.dbg.declare(metadata ptr %bit_length.dbg.spill, metadata !1991, metadata !DIExpression()), !dbg !2005
  call void @llvm.dbg.declare(metadata ptr %start1, metadata !1992, metadata !DIExpression()), !dbg !2006
  call void @llvm.dbg.declare(metadata ptr %end, metadata !1998, metadata !DIExpression()), !dbg !2007
; call <core::ops::range::RangeFrom<T> as core::ops::range::RangeBounds<T>>::start_bound
  %0 = call { i64, ptr } @"_ZN95_$LT$core..ops..range..RangeFrom$LT$T$GT$$u20$as$u20$core..ops..range..RangeBounds$LT$T$GT$$GT$11start_bound17h30b86393326647abE"(ptr align 8 %generic_rage) #8, !dbg !2008
  store { i64, ptr } %0, ptr %_4, align 8, !dbg !2008
  %_5 = load i64, ptr %_4, align 8, !dbg !2008, !range !428, !noundef !18
  switch i64 %_5, label %bb3 [
    i64 0, label %bb6
    i64 1, label %bb4
    i64 2, label %bb2
  ], !dbg !2009

bb3:                                              ; preds = %bb7, %start
  unreachable, !dbg !2008

bb6:                                              ; preds = %start
  %1 = getelementptr inbounds { i64, ptr }, ptr %_4, i32 0, i32 1, !dbg !2010
  %_18 = load ptr, ptr %1, align 8, !dbg !2010, !nonnull !18, !align !812, !noundef !18
  %value = load i64, ptr %_18, align 8, !dbg !2010, !noundef !18
  store i64 %value, ptr %value.dbg.spill, align 8, !dbg !2010
  call void @llvm.dbg.declare(metadata ptr %value.dbg.spill, metadata !1996, metadata !DIExpression()), !dbg !2011
  store i64 %value, ptr %start1, align 8, !dbg !2012
  br label %bb7, !dbg !2013

bb4:                                              ; preds = %start
  %2 = getelementptr inbounds { i64, ptr }, ptr %_4, i32 0, i32 1, !dbg !2014
  %_17 = load ptr, ptr %2, align 8, !dbg !2014, !nonnull !18, !align !812, !noundef !18
  %value2 = load i64, ptr %_17, align 8, !dbg !2014, !noundef !18
  store i64 %value2, ptr %value.dbg.spill3, align 8, !dbg !2014
  call void @llvm.dbg.declare(metadata ptr %value.dbg.spill3, metadata !1994, metadata !DIExpression()), !dbg !2015
  %3 = call { i64, i1 } @llvm.uadd.with.overflow.i64(i64 %value2, i64 1), !dbg !2016
  %_7.0 = extractvalue { i64, i1 } %3, 0, !dbg !2016
  %_7.1 = extractvalue { i64, i1 } %3, 1, !dbg !2016
  %4 = call i1 @llvm.expect.i1(i1 %_7.1, i1 false), !dbg !2016
  br i1 %4, label %panic, label %bb5, !dbg !2016

bb2:                                              ; preds = %start
  store i64 0, ptr %start1, align 8, !dbg !2017
  br label %bb7, !dbg !2017

bb7:                                              ; preds = %bb2, %bb5, %bb6
; call <core::ops::range::RangeFrom<T> as core::ops::range::RangeBounds<T>>::end_bound
  %5 = call { i64, ptr } @"_ZN95_$LT$core..ops..range..RangeFrom$LT$T$GT$$u20$as$u20$core..ops..range..RangeBounds$LT$T$GT$$GT$9end_bound17h51bf01e9862af92fE"(ptr align 8 %generic_rage) #8, !dbg !2018
  store { i64, ptr } %5, ptr %_10, align 8, !dbg !2018
  %_11 = load i64, ptr %_10, align 8, !dbg !2018, !range !428, !noundef !18
  switch i64 %_11, label %bb3 [
    i64 0, label %bb11
    i64 1, label %bb10
    i64 2, label %bb9
  ], !dbg !2019

bb5:                                              ; preds = %bb4
  store i64 %_7.0, ptr %start1, align 8, !dbg !2016
  br label %bb7, !dbg !2020

panic:                                            ; preds = %bb4
; call core::panicking::panic
  call void @_ZN4core9panicking5panic17h91639042aeeb9621E(ptr align 1 @str.3, i64 28, ptr align 8 @alloc_57da457cb4ea62e5ea28ca105f4178dd) #9, !dbg !2016
  unreachable, !dbg !2016

bb11:                                             ; preds = %bb7
  %6 = getelementptr inbounds { i64, ptr }, ptr %_10, i32 0, i32 1, !dbg !2021
  %_20 = load ptr, ptr %6, align 8, !dbg !2021, !nonnull !18, !align !812, !noundef !18
  %value4 = load i64, ptr %_20, align 8, !dbg !2021, !noundef !18
  store i64 %value4, ptr %value.dbg.spill5, align 8, !dbg !2021
  call void @llvm.dbg.declare(metadata ptr %value.dbg.spill5, metadata !2002, metadata !DIExpression()), !dbg !2022
  %7 = call { i64, i1 } @llvm.uadd.with.overflow.i64(i64 %value4, i64 1), !dbg !2023
  %_14.0 = extractvalue { i64, i1 } %7, 0, !dbg !2023
  %_14.1 = extractvalue { i64, i1 } %7, 1, !dbg !2023
  %8 = call i1 @llvm.expect.i1(i1 %_14.1, i1 false), !dbg !2023
  br i1 %8, label %panic6, label %bb12, !dbg !2023

bb10:                                             ; preds = %bb7
  %9 = getelementptr inbounds { i64, ptr }, ptr %_10, i32 0, i32 1, !dbg !2024
  %_19 = load ptr, ptr %9, align 8, !dbg !2024, !nonnull !18, !align !812, !noundef !18
  %value7 = load i64, ptr %_19, align 8, !dbg !2024, !noundef !18
  store i64 %value7, ptr %value.dbg.spill8, align 8, !dbg !2024
  call void @llvm.dbg.declare(metadata ptr %value.dbg.spill8, metadata !2000, metadata !DIExpression()), !dbg !2025
  store i64 %value7, ptr %end, align 8, !dbg !2026
  br label %bb13, !dbg !2027

bb9:                                              ; preds = %bb7
  store i64 %bit_length, ptr %end, align 8, !dbg !2028
  br label %bb13, !dbg !2028

bb12:                                             ; preds = %bb11
  store i64 %_14.0, ptr %end, align 8, !dbg !2023
  br label %bb13, !dbg !2029

panic6:                                           ; preds = %bb11
; call core::panicking::panic
  call void @_ZN4core9panicking5panic17h91639042aeeb9621E(ptr align 1 @str.3, i64 28, ptr align 8 @alloc_5df12ee9d1f357a5969b7af7ad53ad5b) #9, !dbg !2023
  unreachable, !dbg !2023

bb13:                                             ; preds = %bb9, %bb10, %bb12
  %_15 = load i64, ptr %start1, align 8, !dbg !2030, !noundef !18
  %_16 = load i64, ptr %end, align 8, !dbg !2031, !noundef !18
  store i64 %_15, ptr %_0, align 8, !dbg !2030
  %10 = getelementptr inbounds { i64, i64 }, ptr %_0, i32 0, i32 1, !dbg !2030
  store i64 %_16, ptr %10, align 8, !dbg !2030
  %11 = getelementptr inbounds { i64, i64 }, ptr %_0, i32 0, i32 0, !dbg !2032
  %12 = load i64, ptr %11, align 8, !dbg !2032, !noundef !18
  %13 = getelementptr inbounds { i64, i64 }, ptr %_0, i32 0, i32 1, !dbg !2032
  %14 = load i64, ptr %13, align 8, !dbg !2032, !noundef !18
  %15 = insertvalue { i64, i64 } poison, i64 %12, 0, !dbg !2032
  %16 = insertvalue { i64, i64 } %15, i64 %14, 1, !dbg !2032
  ret { i64, i64 } %16, !dbg !2032
}

; bit_field::to_regular_range
; Function Attrs: noredzone nounwind
define { i64, i64 } @_ZN9bit_field16to_regular_range17h9e05adda646e2a98E(ptr align 8 %generic_rage, i64 %bit_length) unnamed_addr #1 !dbg !2033 {
start:
  %value.dbg.spill8 = alloca i64, align 8
  %value.dbg.spill5 = alloca i64, align 8
  %value.dbg.spill3 = alloca i64, align 8
  %value.dbg.spill = alloca i64, align 8
  %bit_length.dbg.spill = alloca i64, align 8
  %generic_rage.dbg.spill = alloca ptr, align 8
  %_10 = alloca { i64, ptr }, align 8
  %end = alloca i64, align 8
  %_4 = alloca { i64, ptr }, align 8
  %start1 = alloca i64, align 8
  %_0 = alloca { i64, i64 }, align 8
  store ptr %generic_rage, ptr %generic_rage.dbg.spill, align 8
  call void @llvm.dbg.declare(metadata ptr %generic_rage.dbg.spill, metadata !2037, metadata !DIExpression()), !dbg !2051
  store i64 %bit_length, ptr %bit_length.dbg.spill, align 8
  call void @llvm.dbg.declare(metadata ptr %bit_length.dbg.spill, metadata !2038, metadata !DIExpression()), !dbg !2052
  call void @llvm.dbg.declare(metadata ptr %start1, metadata !2039, metadata !DIExpression()), !dbg !2053
  call void @llvm.dbg.declare(metadata ptr %end, metadata !2045, metadata !DIExpression()), !dbg !2054
; call <core::ops::range::Range<T> as core::ops::range::RangeBounds<T>>::start_bound
  %0 = call { i64, ptr } @"_ZN91_$LT$core..ops..range..Range$LT$T$GT$$u20$as$u20$core..ops..range..RangeBounds$LT$T$GT$$GT$11start_bound17h526802a23a8701c2E"(ptr align 8 %generic_rage) #8, !dbg !2055
  store { i64, ptr } %0, ptr %_4, align 8, !dbg !2055
  %_5 = load i64, ptr %_4, align 8, !dbg !2055, !range !428, !noundef !18
  switch i64 %_5, label %bb3 [
    i64 0, label %bb6
    i64 1, label %bb4
    i64 2, label %bb2
  ], !dbg !2056

bb3:                                              ; preds = %bb7, %start
  unreachable, !dbg !2055

bb6:                                              ; preds = %start
  %1 = getelementptr inbounds { i64, ptr }, ptr %_4, i32 0, i32 1, !dbg !2057
  %_18 = load ptr, ptr %1, align 8, !dbg !2057, !nonnull !18, !align !812, !noundef !18
  %value = load i64, ptr %_18, align 8, !dbg !2057, !noundef !18
  store i64 %value, ptr %value.dbg.spill, align 8, !dbg !2057
  call void @llvm.dbg.declare(metadata ptr %value.dbg.spill, metadata !2043, metadata !DIExpression()), !dbg !2058
  store i64 %value, ptr %start1, align 8, !dbg !2059
  br label %bb7, !dbg !2060

bb4:                                              ; preds = %start
  %2 = getelementptr inbounds { i64, ptr }, ptr %_4, i32 0, i32 1, !dbg !2061
  %_17 = load ptr, ptr %2, align 8, !dbg !2061, !nonnull !18, !align !812, !noundef !18
  %value2 = load i64, ptr %_17, align 8, !dbg !2061, !noundef !18
  store i64 %value2, ptr %value.dbg.spill3, align 8, !dbg !2061
  call void @llvm.dbg.declare(metadata ptr %value.dbg.spill3, metadata !2041, metadata !DIExpression()), !dbg !2062
  %3 = call { i64, i1 } @llvm.uadd.with.overflow.i64(i64 %value2, i64 1), !dbg !2063
  %_7.0 = extractvalue { i64, i1 } %3, 0, !dbg !2063
  %_7.1 = extractvalue { i64, i1 } %3, 1, !dbg !2063
  %4 = call i1 @llvm.expect.i1(i1 %_7.1, i1 false), !dbg !2063
  br i1 %4, label %panic, label %bb5, !dbg !2063

bb2:                                              ; preds = %start
  store i64 0, ptr %start1, align 8, !dbg !2064
  br label %bb7, !dbg !2064

bb7:                                              ; preds = %bb2, %bb5, %bb6
; call <core::ops::range::Range<T> as core::ops::range::RangeBounds<T>>::end_bound
  %5 = call { i64, ptr } @"_ZN91_$LT$core..ops..range..Range$LT$T$GT$$u20$as$u20$core..ops..range..RangeBounds$LT$T$GT$$GT$9end_bound17h1c416404d82f5e57E"(ptr align 8 %generic_rage) #8, !dbg !2065
  store { i64, ptr } %5, ptr %_10, align 8, !dbg !2065
  %_11 = load i64, ptr %_10, align 8, !dbg !2065, !range !428, !noundef !18
  switch i64 %_11, label %bb3 [
    i64 0, label %bb11
    i64 1, label %bb10
    i64 2, label %bb9
  ], !dbg !2066

bb5:                                              ; preds = %bb4
  store i64 %_7.0, ptr %start1, align 8, !dbg !2063
  br label %bb7, !dbg !2067

panic:                                            ; preds = %bb4
; call core::panicking::panic
  call void @_ZN4core9panicking5panic17h91639042aeeb9621E(ptr align 1 @str.3, i64 28, ptr align 8 @alloc_57da457cb4ea62e5ea28ca105f4178dd) #9, !dbg !2063
  unreachable, !dbg !2063

bb11:                                             ; preds = %bb7
  %6 = getelementptr inbounds { i64, ptr }, ptr %_10, i32 0, i32 1, !dbg !2068
  %_20 = load ptr, ptr %6, align 8, !dbg !2068, !nonnull !18, !align !812, !noundef !18
  %value4 = load i64, ptr %_20, align 8, !dbg !2068, !noundef !18
  store i64 %value4, ptr %value.dbg.spill5, align 8, !dbg !2068
  call void @llvm.dbg.declare(metadata ptr %value.dbg.spill5, metadata !2049, metadata !DIExpression()), !dbg !2069
  %7 = call { i64, i1 } @llvm.uadd.with.overflow.i64(i64 %value4, i64 1), !dbg !2070
  %_14.0 = extractvalue { i64, i1 } %7, 0, !dbg !2070
  %_14.1 = extractvalue { i64, i1 } %7, 1, !dbg !2070
  %8 = call i1 @llvm.expect.i1(i1 %_14.1, i1 false), !dbg !2070
  br i1 %8, label %panic6, label %bb12, !dbg !2070

bb10:                                             ; preds = %bb7
  %9 = getelementptr inbounds { i64, ptr }, ptr %_10, i32 0, i32 1, !dbg !2071
  %_19 = load ptr, ptr %9, align 8, !dbg !2071, !nonnull !18, !align !812, !noundef !18
  %value7 = load i64, ptr %_19, align 8, !dbg !2071, !noundef !18
  store i64 %value7, ptr %value.dbg.spill8, align 8, !dbg !2071
  call void @llvm.dbg.declare(metadata ptr %value.dbg.spill8, metadata !2047, metadata !DIExpression()), !dbg !2072
  store i64 %value7, ptr %end, align 8, !dbg !2073
  br label %bb13, !dbg !2074

bb9:                                              ; preds = %bb7
  store i64 %bit_length, ptr %end, align 8, !dbg !2075
  br label %bb13, !dbg !2075

bb12:                                             ; preds = %bb11
  store i64 %_14.0, ptr %end, align 8, !dbg !2070
  br label %bb13, !dbg !2076

panic6:                                           ; preds = %bb11
; call core::panicking::panic
  call void @_ZN4core9panicking5panic17h91639042aeeb9621E(ptr align 1 @str.3, i64 28, ptr align 8 @alloc_5df12ee9d1f357a5969b7af7ad53ad5b) #9, !dbg !2070
  unreachable, !dbg !2070

bb13:                                             ; preds = %bb9, %bb10, %bb12
  %_15 = load i64, ptr %start1, align 8, !dbg !2077, !noundef !18
  %_16 = load i64, ptr %end, align 8, !dbg !2078, !noundef !18
  store i64 %_15, ptr %_0, align 8, !dbg !2077
  %10 = getelementptr inbounds { i64, i64 }, ptr %_0, i32 0, i32 1, !dbg !2077
  store i64 %_16, ptr %10, align 8, !dbg !2077
  %11 = getelementptr inbounds { i64, i64 }, ptr %_0, i32 0, i32 0, !dbg !2079
  %12 = load i64, ptr %11, align 8, !dbg !2079, !noundef !18
  %13 = getelementptr inbounds { i64, i64 }, ptr %_0, i32 0, i32 1, !dbg !2079
  %14 = load i64, ptr %13, align 8, !dbg !2079, !noundef !18
  %15 = insertvalue { i64, i64 } poison, i64 %12, 0, !dbg !2079
  %16 = insertvalue { i64, i64 } %15, i64 %14, 1, !dbg !2079
  ret { i64, i64 } %16, !dbg !2079
}

; <x86_64::addr::VirtAddrNotValid as core::fmt::Debug>::fmt
; Function Attrs: noredzone nounwind
define zeroext i1 @"_ZN67_$LT$x86_64..addr..VirtAddrNotValid$u20$as$u20$core..fmt..Debug$GT$3fmt17h5e95f301f6876345E"(ptr align 8 %self, ptr align 8 %f) unnamed_addr #1 !dbg !2080 {
start:
  %f.dbg.spill.i = alloca ptr, align 8
  %x.dbg.spill.i1 = alloca ptr, align 8
  %_0.i = alloca { ptr, ptr }, align 8
  %x.dbg.spill.i = alloca ptr, align 8
  %width.dbg.spill.i = alloca { i64, i64 }, align 8
  %precision.dbg.spill.i = alloca { i64, i64 }, align 8
  %flags.dbg.spill.i = alloca i32, align 4
  %align.dbg.spill.i = alloca i8, align 1
  %fill.dbg.spill.i = alloca i32, align 4
  %position.dbg.spill.i = alloca i64, align 8
  %f.dbg.spill = alloca ptr, align 8
  %self.dbg.spill = alloca ptr, align 8
  %_22 = alloca { i64, i64 }, align 8
  %_21 = alloca { i64, i64 }, align 8
  %_20 = alloca i8, align 1
  %_19 = alloca %"core::fmt::rt::Placeholder", align 8
  %_18 = alloca [1 x %"core::fmt::rt::Placeholder"], align 8
  %_13 = alloca [1 x { ptr, ptr }], align 8
  %_9 = alloca %"core::fmt::Arguments<'_>", align 8
  %_5 = alloca %"core::fmt::builders::DebugTuple<'_, '_>", align 8
  store ptr %self, ptr %self.dbg.spill, align 8
  call void @llvm.dbg.declare(metadata ptr %self.dbg.spill, metadata !2087, metadata !DIExpression()), !dbg !2089
  store ptr %f, ptr %f.dbg.spill, align 8
  call void @llvm.dbg.declare(metadata ptr %f.dbg.spill, metadata !2088, metadata !DIExpression()), !dbg !2090
; call core::fmt::Formatter::debug_tuple
