; ModuleID = 'alloc.86517141-cgu.0'
source_filename = "alloc.86517141-cgu.0"
target datalayout = "e-m:e-i64:64-f80:128-n8:16:32:64-S128"
target triple = "x86_64-obuasi-unknown-none"

%"[closure@<usize as core::iter::traits::accum::Sum>::sum<core::iter::adapters::map::Map<core::slice::iter::Iter<'_, &str>, [closure@core::fmt::Arguments<'_>::estimated_capacity::{closure#0}]>>::{closure#0}]" = type {}
%"core::iter::adapters::skip_while::SkipWhile<core::iter::adapters::rev::Rev<core::str::iter::Chars<'_>>, [closure@/Users/yaw/.rustup/toolchains/nightly-aarch64-apple-darwin/lib/rustlib/src/rust/library/alloc/src/str.rs:414:35: 414:39]>" = type { %"[closure@/Users/yaw/.rustup/toolchains/nightly-aarch64-apple-darwin/lib/rustlib/src/rust/library/alloc/src/str.rs:414:35: 414:39]", { ptr, ptr }, i8, [7 x i8] }
%"[closure@/Users/yaw/.rustup/toolchains/nightly-aarch64-apple-darwin/lib/rustlib/src/rust/library/alloc/src/str.rs:414:35: 414:39]" = type {}
%"core::iter::adapters::skip_while::SkipWhile<core::str::iter::Chars<'_>, [closure@/Users/yaw/.rustup/toolchains/nightly-aarch64-apple-darwin/lib/rustlib/src/rust/library/alloc/src/str.rs:414:35: 414:39]>" = type { %"[closure@/Users/yaw/.rustup/toolchains/nightly-aarch64-apple-darwin/lib/rustlib/src/rust/library/alloc/src/str.rs:414:35: 414:39].0", { ptr, ptr }, i8, [7 x i8] }
%"[closure@/Users/yaw/.rustup/toolchains/nightly-aarch64-apple-darwin/lib/rustlib/src/rust/library/alloc/src/str.rs:414:35: 414:39].0" = type {}
%"core::alloc::AllocError" = type {}
%"core::result::Result<core::convert::Infallible, core::alloc::AllocError>::Err" = type { %"core::alloc::AllocError" }
%"core::result::Result<(core::alloc::layout::Layout, usize), core::alloc::layout::LayoutError>" = type { [1 x i64], i64, [1 x i64] }
%"core::alloc::layout::LayoutError" = type {}
%"core::result::Result<core::convert::Infallible, core::alloc::layout::LayoutError>::Err" = type { %"core::alloc::layout::LayoutError" }
%"core::result::Result<core::ptr::non_null::NonNull<[u8]>, collections::TryReserveError>" = type { i64, [2 x i64] }
%"core::result::Result<core::ptr::non_null::NonNull<[u8]>, collections::TryReserveError>::Err" = type { [1 x i64], { i64, i64 } }
%"core::fmt::Arguments<'_>" = type { { ptr, i64 }, { ptr, i64 }, { ptr, i64 } }
%"string::String" = type { %"vec::Vec<u8>" }
%"vec::Vec<u8>" = type { { i64, ptr }, i64 }
%"core::mem::maybe_uninit::MaybeUninit<alloc::Global>" = type { [0 x i8] }
%"core::mem::manually_drop::ManuallyDrop<string::String>" = type { %"string::String" }
%"core::mem::maybe_uninit::MaybeUninit<string::String>" = type { [3 x i64] }
%"borrow::Cow<'_, str>::Owned" = type { [1 x i64], %"string::String" }
%"core::ptr::metadata::PtrRepr<[i8]>" = type { [2 x i64] }
%"core::option::Option<core::convert::Infallible>::None" = type {}
%"core::str::iter::CharIndices<'_>" = type { { ptr, ptr }, i64 }
%"core::ops::range::RangeFull" = type {}
%"core::char::decode::DecodeUtf16<core::iter::adapters::cloned::Cloned<core::slice::iter::Iter<'_, u16>>>" = type { { ptr, ptr }, { i16, i16 }, [2 x i16] }
%"[closure@core::fmt::Arguments<'_>::estimated_capacity::{closure#0}]" = type {}
%"[closure@core::iter::adapters::map::map_fold<&&str, usize, usize, [closure@core::fmt::Arguments<'_>::estimated_capacity::{closure#0}], [closure@<usize as core::iter::traits::accum::Sum>::sum<core::iter::adapters::map::Map<core::slice::iter::Iter<'_, &str>, [closure@core::fmt::Arguments<'_>::estimated_capacity::{closure#0}]>>::{closure#0}]>::{closure#0}]" = type { %"[closure@<usize as core::iter::traits::accum::Sum>::sum<core::iter::adapters::map::Map<core::slice::iter::Iter<'_, &str>, [closure@core::fmt::Arguments<'_>::estimated_capacity::{closure#0}]>>::{closure#0}]", %"[closure@core::fmt::Arguments<'_>::estimated_capacity::{closure#0}]" }
%"core::error::private::Internal" = type {}
%"[closure@core::slice::index::range<core::ops::range::Range<usize>>::{closure#0}]" = type {}
%"[closure@core::slice::index::range<core::ops::range::Range<usize>>::{closure#1}]" = type {}
%"[closure@<core::str::iter::Chars<'_> as core::iter::traits::double_ended::DoubleEndedIterator>::next_back::{closure#0}]" = type {}
%"core::result::Result<usize, collections::TryReserveErrorKind>" = type { [1 x i64], i64 }
%"core::fmt::Error" = type {}
%"core::result::Result<core::ptr::non_null::NonNull<[u8]>, collections::TryReserveError>::Ok" = type { [1 x i64], { ptr, i64 } }
%"core::result::Result<core::alloc::layout::Layout, collections::TryReserveErrorKind>" = type { i64, [2 x i64] }
%"[closure@/Users/yaw/.rustup/toolchains/nightly-aarch64-apple-darwin/lib/rustlib/src/rust/library/alloc/src/raw_vec.rs:464:41: 464:44]" = type {}
%"core::result::Result<core::alloc::layout::Layout, collections::TryReserveErrorKind>::Ok" = type { [1 x i64], { i64, i64 } }
%"core::result::Result<core::alloc::layout::Layout, collections::TryReserveErrorKind>::Err" = type { [1 x i64], { i64, i64 } }
%"core::result::Result<core::ptr::non_null::NonNull<[u8]>, collections::TryReserveErrorKind>" = type { i64, [2 x i64] }
%"core::result::Result<core::ptr::non_null::NonNull<[u8]>, collections::TryReserveErrorKind>::Ok" = type { [1 x i64], { ptr, i64 } }
%"core::result::Result<core::ptr::non_null::NonNull<[u8]>, collections::TryReserveErrorKind>::Err" = type { [1 x i64], { i64, i64 } }
%"core::result::Result<string::String, ffi::c_str::IntoStringError>" = type { [24 x i8], i8, [7 x i8] }
%"[closure@/Users/yaw/.rustup/toolchains/nightly-aarch64-apple-darwin/lib/rustlib/src/rust/library/alloc/src/ffi/c_str.rs:474:54: 474:57]" = type {}
%"string::FromUtf8Error" = type { %"core::str::error::Utf8Error", %"vec::Vec<u8>" }
%"core::str::error::Utf8Error" = type { i64, { i8, i8 }, [6 x i8] }
%"ffi::c_str::IntoStringError" = type { { ptr, i64 }, %"core::str::error::Utf8Error" }
%"core::result::Result<string::String, string::FromUtf8Error>" = type { [8 x i8], i8, [31 x i8] }
%"core::result::Result<string::String, string::FromUtf8Error>::Ok" = type { [2 x i64], %"string::String" }
%"[closure@/Users/yaw/.rustup/toolchains/nightly-aarch64-apple-darwin/lib/rustlib/src/rust/library/alloc/src/raw_vec.rs:495:26: 495:29]" = type {}
%"core::option::Option<core::fmt::Arguments<'_>>" = type { [2 x i64], ptr, [3 x i64] }
%"core::str::pattern::StrSearcher<'_, '_>" = type { { ptr, i64 }, { ptr, i64 }, %"core::str::pattern::StrSearcherImpl" }
%"core::str::pattern::StrSearcherImpl" = type { i64, [8 x i64] }
%"core::ops::control_flow::ControlFlow<core::result::Result<core::convert::Infallible, collections::TryReserveErrorKind>, core::alloc::layout::Layout>" = type { i64, [2 x i64] }
%"core::ops::control_flow::ControlFlow<core::result::Result<core::convert::Infallible, collections::TryReserveErrorKind>, core::alloc::layout::Layout>::Continue" = type { [1 x i64], { i64, i64 } }
%"core::ops::control_flow::ControlFlow<core::result::Result<core::convert::Infallible, collections::TryReserveErrorKind>, core::alloc::layout::Layout>::Break" = type { [1 x i64], { i64, i64 } }
%"core::ops::control_flow::ControlFlow<core::result::Result<core::convert::Infallible, collections::TryReserveError>, core::ptr::non_null::NonNull<[u8]>>" = type { i64, [2 x i64] }
%"core::ops::control_flow::ControlFlow<core::result::Result<core::convert::Infallible, collections::TryReserveError>, core::ptr::non_null::NonNull<[u8]>>::Continue" = type { [1 x i64], { ptr, i64 } }
%"core::ops::control_flow::ControlFlow<core::result::Result<core::convert::Infallible, collections::TryReserveError>, core::ptr::non_null::NonNull<[u8]>>::Break" = type { [1 x i64], { i64, i64 } }
%"core::ops::control_flow::ControlFlow<core::result::Result<core::convert::Infallible, collections::TryReserveErrorKind>, core::ptr::non_null::NonNull<[u8]>>" = type { i64, [2 x i64] }
%"core::ops::control_flow::ControlFlow<core::result::Result<core::convert::Infallible, collections::TryReserveErrorKind>, core::ptr::non_null::NonNull<[u8]>>::Continue" = type { [1 x i64], { ptr, i64 } }
%"core::ops::control_flow::ControlFlow<core::result::Result<core::convert::Infallible, collections::TryReserveErrorKind>, core::ptr::non_null::NonNull<[u8]>>::Break" = type { [1 x i64], { i64, i64 } }
%"core::ops::control_flow::ControlFlow<core::result::Result<core::convert::Infallible, collections::TryReserveErrorKind>, usize>" = type { [1 x i64], i64 }
%"core::option::Option<core::result::Result<char, core::char::decode::DecodeUtf16Error>>" = type { i16, [3 x i16] }
%"core::result::Result<char, core::char::decode::DecodeUtf16Error>" = type { i16, [3 x i16] }
%"core::result::Result<char, core::char::decode::DecodeUtf16Error>::Ok" = type { [1 x i32], i32 }
%"core::result::Result<char, core::char::decode::DecodeUtf16Error>::Err" = type { [1 x i16], i16 }
%"alloc::Global" = type {}
%"core::option::Option<(core::ptr::non_null::NonNull<u8>, core::alloc::layout::Layout)>" = type { [2 x i64], i64 }
%"<boxed::Box<(dyn core::error::Error + core::marker::Send + core::marker::Sync + 'static)> as core::convert::From<string::String>>::from::StringError" = type { %"string::String" }
%"borrow::Cow<'_, str>" = type { i64, [3 x i64] }
%"borrow::Cow<'_, str>::Borrowed" = type { [1 x i64], { ptr, i64 } }
%"core::result::Result<core::convert::Infallible, core::fmt::Error>::Err" = type { %"core::fmt::Error" }
%"ffi::c_str::FromVecWithNulError" = type { { i64, i64 }, %"vec::Vec<u8>" }
%"core::result::Result<ffi::c_str::CString, ffi::c_str::NulError>" = type { [2 x i64], ptr, [1 x i64] }
%"ffi::c_str::NulError" = type { i64, %"vec::Vec<u8>" }
%"core::result::Result<ffi::c_str::CString, ffi::c_str::FromVecWithNulError>" = type { i64, [4 x i64] }
%"core::result::Result<ffi::c_str::CString, ffi::c_str::FromVecWithNulError>::Ok" = type { [1 x i64], { ptr, i64 } }
%"core::result::Result<&str, core::str::error::Utf8Error>" = type { i64, [2 x i64] }
%"core::result::Result<&str, core::str::error::Utf8Error>::Err" = type { [1 x i64], %"core::str::error::Utf8Error" }
%"core::str::lossy::Utf8Chunk<'_>" = type { { ptr, i64 }, { ptr, i64 } }
%"core::option::Option<core::str::lossy::Utf8Chunk<'_>>" = type { ptr, [3 x i64] }
%"core::result::Result<string::String, string::FromUtf16Error>" = type { [1 x i64], ptr, [1 x i64] }
%"string::String::retain::SetLenOnDrop<'_>" = type { i64, i64, ptr }
%"core::fmt::builders::DebugTuple<'_, '_>" = type { i64, ptr, i8, i8, [6 x i8] }
%"vec::drain::Drain<'_, u8>" = type { { ptr, ptr }, i64, i64, ptr }
%"string::Drain<'_>" = type { { ptr, ptr }, ptr, i64, i64 }
%"core::mem::manually_drop::ManuallyDrop<vec::Vec<u8>>" = type { %"vec::Vec<u8>" }

@alloc_a1d063fc56d08794b1bf303ec0d8a16b = private unnamed_addr constant <{ [112 x i8] }> <{ [112 x i8] c"unsafe precondition(s) violated: ptr::copy requires that both pointer arguments are aligned aligned and non-null" }>, align 1
@alloc_daed643f7d1c4ab3f5a3683bc711f4c0 = private unnamed_addr constant <{ [109 x i8] }> <{ [109 x i8] c"/Users/yaw/.rustup/toolchains/nightly-aarch64-apple-darwin/lib/rustlib/src/rust/library/core/src/ffi/c_str.rs" }>, align 1
@alloc_7e9d09d970da31351a3a2baab06340b4 = private unnamed_addr constant <{ ptr, [16 x i8] }> <{ ptr @alloc_daed643f7d1c4ab3f5a3683bc711f4c0, [16 x i8] c"m\00\00\00\00\00\00\00\A5\01\00\006\00\00\00" }>, align 8
@str.0 = internal constant [33 x i8] c"attempt to subtract with overflow"
@alloc_858bb74fd281da4f8d7ba1064cf372e9 = private unnamed_addr constant <{ ptr, [16 x i8] }> <{ ptr @alloc_daed643f7d1c4ab3f5a3683bc711f4c0, [16 x i8] c"m\00\00\00\00\00\00\00\A5\01\00\000\00\00\00" }>, align 8
@alloc_2aadb9d815d34bd6a9eb97b94a849bcf = private unnamed_addr constant <{ [66 x i8] }> <{ [66 x i8] c"assertion failed: !bytes.is_empty() && bytes[bytes.len() - 1] == 0" }>, align 1
@alloc_9d23f9ee21ea68ee2190adef8e985ab6 = private unnamed_addr constant <{ ptr, [16 x i8] }> <{ ptr @alloc_daed643f7d1c4ab3f5a3683bc711f4c0, [16 x i8] c"m\00\00\00\00\00\00\00\A5\01\00\00\0D\00\00\00" }>, align 8
@alloc_dcd8707297622958cf4db4070c7dc808 = private unnamed_addr constant <{ ptr, [16 x i8] }> <{ ptr @alloc_daed643f7d1c4ab3f5a3683bc711f4c0, [16 x i8] c"m\00\00\00\00\00\00\006\02\00\00(\00\00\00" }>, align 8
@vtable.1 = private constant <{ ptr, [16 x i8], ptr, ptr, ptr }> <{ ptr @"_ZN4core3ptr54drop_in_place$LT$$RF$mut$u20$alloc..string..String$GT$17h0b890ab8f8f6221fE", [16 x i8] c"\08\00\00\00\00\00\00\00\08\00\00\00\00\00\00\00", ptr @"_ZN50_$LT$$RF$mut$u20$W$u20$as$u20$core..fmt..Write$GT$9write_str17hd1c3d17891a2d950E", ptr @"_ZN50_$LT$$RF$mut$u20$W$u20$as$u20$core..fmt..Write$GT$10write_char17hc0934a2fde0a5e18E", ptr @"_ZN50_$LT$$RF$mut$u20$W$u20$as$u20$core..fmt..Write$GT$9write_fmt17h9af8cf731126fe82E" }>, align 8, !dbg !0
@alloc_c5abb592cb74b08c04728308b178bcc8 = private unnamed_addr constant <{ [107 x i8] }> <{ [107 x i8] c"/Users/yaw/.rustup/toolchains/nightly-aarch64-apple-darwin/lib/rustlib/src/rust/library/core/src/fmt/mod.rs" }>, align 1
@alloc_0f3bb02bc65dc1e76fd29ee3d1aa7b76 = private unnamed_addr constant <{ ptr, [16 x i8] }> <{ ptr @alloc_c5abb592cb74b08c04728308b178bcc8, [16 x i8] c"k\00\00\00\00\00\00\00\BA\01\00\00.\00\00\00" }>, align 8
@alloc_47ee623a9f06017983b1b14793104f21 = private unnamed_addr constant <{ ptr, [16 x i8] }> <{ ptr @alloc_c5abb592cb74b08c04728308b178bcc8, [16 x i8] c"k\00\00\00\00\00\00\00\92\01\00\008\00\00\00" }>, align 8
@str.2 = internal constant [28 x i8] c"attempt to add with overflow"
@alloc_09d11aa498739cbf0519d318f9792c9b = private unnamed_addr constant <{ [12 x i8] }> <{ [12 x i8] c"invalid args" }>, align 1
@alloc_71b99a1804d93c013f301ec59bc480be = private unnamed_addr constant <{ ptr, [8 x i8] }> <{ ptr @alloc_09d11aa498739cbf0519d318f9792c9b, [8 x i8] c"\0C\00\00\00\00\00\00\00" }>, align 8
@alloc_2bfeba76c1438a46208a034153050220 = private unnamed_addr constant <{}> zeroinitializer, align 8
@alloc_06016551127ebd46210a364dc7059aaa = private unnamed_addr constant <{ ptr, [16 x i8] }> <{ ptr @alloc_c5abb592cb74b08c04728308b178bcc8, [16 x i8] c"k\00\00\00\00\00\00\00\93\01\00\00\0D\00\00\00" }>, align 8
@alloc_fa95777c91a88ace608c067b20a99eef = private unnamed_addr constant <{ [107 x i8] }> <{ [107 x i8] c"/Users/yaw/.rustup/toolchains/nightly-aarch64-apple-darwin/lib/rustlib/src/rust/library/core/src/num/mod.rs" }>, align 1
@alloc_ae4b10a272bd9909bc9c09fa3f48c1a6 = private unnamed_addr constant <{ ptr, [16 x i8] }> <{ ptr @alloc_fa95777c91a88ace608c067b20a99eef, [16 x i8] c"k\00\00\00\00\00\00\00\FC\01\00\00\11\00\00\00" }>, align 8
@str.3 = internal constant [33 x i8] c"attempt to multiply with overflow"
@alloc_197ff2b1f35e9df4c9071866b5a5c88f = private unnamed_addr constant <{ ptr, [16 x i8] }> <{ ptr @alloc_fa95777c91a88ace608c067b20a99eef, [16 x i8] c"k\00\00\00\00\00\00\00\E3\01\00\00\11\00\00\00" }>, align 8
@alloc_b2e55a4cbcb6887201afb45ca4813535 = private unnamed_addr constant <{ [89 x i8] }> <{ [89 x i8] c"unsafe precondition(s) violated: NonZeroUsize::new_unchecked requires a non-zero argument" }>, align 1
@alloc_0925410b7c4917ded038883dd048bfe8 = private unnamed_addr constant <{ [107 x i8] }> <{ [107 x i8] c"/Users/yaw/.rustup/toolchains/nightly-aarch64-apple-darwin/lib/rustlib/src/rust/library/core/src/ptr/mod.rs" }>, align 1
@alloc_2816ee49767e721919b598d9f24c33d7 = private unnamed_addr constant <{ ptr, [16 x i8] }> <{ ptr @alloc_0925410b7c4917ded038883dd048bfe8, [16 x i8] c"k\00\00\00\00\00\00\00\E3\04\00\00\0D\00\00\00" }>, align 8
@alloc_9562f34aec96353760f71a2d048344df = private unnamed_addr constant <{ ptr, [16 x i8] }> <{ ptr @alloc_0925410b7c4917ded038883dd048bfe8, [16 x i8] c"k\00\00\00\00\00\00\00\86\04\00\00\0D\00\00\00" }>, align 8
@alloc_efce4ff77543cc2403477cd546743a0c = private unnamed_addr constant <{ [101 x i8] }> <{ [101 x i8] c"unsafe precondition(s) violated: ptr::read requires that the pointer argument is aligned and non-null" }>, align 1
@alloc_98d916830fc7cab3c43d0ae7d762d17f = private unnamed_addr constant <{ [102 x i8] }> <{ [102 x i8] c"unsafe precondition(s) violated: ptr::write requires that the pointer argument is aligned and non-null" }>, align 1
@alloc_d0afbdd8e12853f26980a9342bb4d429 = private unnamed_addr constant <{ [93 x i8] }> <{ [93 x i8] c"unsafe precondition(s) violated: NonNull::new_unchecked requires that the pointer is non-null" }>, align 1
@alloc_f87acf8c929a49cd44819755e05698cc = private unnamed_addr constant <{ [81 x i8] }> <{ [81 x i8] c"unsafe precondition(s) violated: Alignment::new_unchecked requires a power of two" }>, align 1
@alloc_e79f2aa950e86e6cb565ecb827afe5ce = private unnamed_addr constant <{ [113 x i8] }> <{ [113 x i8] c"/Users/yaw/.rustup/toolchains/nightly-aarch64-apple-darwin/lib/rustlib/src/rust/library/core/src/ptr/const_ptr.rs" }>, align 1
@alloc_4105d0742918b74e2c640d9349dca984 = private unnamed_addr constant <{ ptr, [16 x i8] }> <{ ptr @alloc_e79f2aa950e86e6cb565ecb827afe5ce, [16 x i8] c"q\00\00\00\00\00\00\00#\06\00\00\1A\00\00\00" }>, align 8
@alloc_4ed5ec8bf80b80ae433a004a3507c2ef = private unnamed_addr constant <{ [42 x i8] }> <{ [42 x i8] c"is_aligned_to: align is not a power-of-two" }>, align 1
@alloc_e5e5ee84beb26a7d629d956d12efff36 = private unnamed_addr constant <{ ptr, [8 x i8] }> <{ ptr @alloc_4ed5ec8bf80b80ae433a004a3507c2ef, [8 x i8] c"*\00\00\00\00\00\00\00" }>, align 8
@alloc_360e68377b15a3e0dd13581a5ee2cd6d = private unnamed_addr constant <{ ptr, [16 x i8] }> <{ ptr @alloc_e79f2aa950e86e6cb565ecb827afe5ce, [16 x i8] c"q\00\00\00\00\00\00\00\1E\06\00\00\0D\00\00\00" }>, align 8
@alloc_3eac478289b397b518722a8992f985e7 = private unnamed_addr constant <{ [115 x i8] }> <{ [115 x i8] c"/Users/yaw/.rustup/toolchains/nightly-aarch64-apple-darwin/lib/rustlib/src/rust/library/core/src/str/validations.rs" }>, align 1
@alloc_063f7a84c62c81319e71ae37ddc8fa30 = private unnamed_addr constant <{ ptr, [16 x i8] }> <{ ptr @alloc_3eac478289b397b518722a8992f985e7, [16 x i8] c"s\00\00\00\00\00\00\00\0C\00\00\00\0D\00\00\00" }>, align 8
@str.4 = internal constant [36 x i8] c"attempt to shift right with overflow"
@alloc_7273c41473f00f86e42c393244ad94f5 = private unnamed_addr constant <{ ptr, [16 x i8] }> <{ ptr @alloc_3eac478289b397b518722a8992f985e7, [16 x i8] c"s\00\00\00\00\00\00\00^\00\00\00)\00\00\00" }>, align 8
@alloc_e4e36abea95a03db245d0863e70155c0 = private unnamed_addr constant <{ ptr, [16 x i8] }> <{ ptr @alloc_3eac478289b397b518722a8992f985e7, [16 x i8] c"s\00\00\00\00\00\00\00c\00\00\00-\00\00\00" }>, align 8
@alloc_1545cd1ebb0872a6ec5ebdd8a18d6546 = private unnamed_addr constant <{ ptr, [16 x i8] }> <{ ptr @alloc_3eac478289b397b518722a8992f985e7, [16 x i8] c"s\00\00\00\00\00\00\00h\00\00\001\00\00\00" }>, align 8
@alloc_7a9c38d63e1b756b52c6cecbb970fb25 = private unnamed_addr constant <{ [110 x i8] }> <{ [110 x i8] c"/Users/yaw/.rustup/toolchains/nightly-aarch64-apple-darwin/lib/rustlib/src/rust/library/core/src/str/traits.rs" }>, align 1
@alloc_38c8cd6434e73d50b2182c955ab961e0 = private unnamed_addr constant <{ ptr, [16 x i8] }> <{ ptr @alloc_7a9c38d63e1b756b52c6cecbb970fb25, [16 x i8] c"n\00\00\00\00\00\00\00\D5\00\00\00\13\00\00\00" }>, align 8
@alloc_c969049a883a8410a47f5b922739141d = private unnamed_addr constant <{ [102 x i8] }> <{ [102 x i8] c"unsafe precondition(s) violated: str::get_unchecked requires that the range is within the string slice" }>, align 1
@alloc_72708b2488ca356088a99a4ac7282480 = private unnamed_addr constant <{ [112 x i8] }> <{ [112 x i8] c"/Users/yaw/.rustup/toolchains/nightly-aarch64-apple-darwin/lib/rustlib/src/rust/library/core/src/char/convert.rs" }>, align 1
@alloc_f47b99061b7d74d955e264e9e163dc80 = private unnamed_addr constant <{ ptr, [16 x i8] }> <{ ptr @alloc_72708b2488ca356088a99a4ac7282480, [16 x i8] c"p\00\00\00\00\00\00\00\1A\00\00\003\00\00\00" }>, align 8
@alloc_f035ff625bdb863e979e7d167d7513e0 = private unnamed_addr constant <{ [112 x i8] }> <{ [112 x i8] c"/Users/yaw/.rustup/toolchains/nightly-aarch64-apple-darwin/lib/rustlib/src/rust/library/core/src/char/methods.rs" }>, align 1
@alloc_cd65f6eec8b4e6b41cac5d8b9191bc46 = private unnamed_addr constant <{ ptr, [16 x i8] }> <{ ptr @alloc_f035ff625bdb863e979e7d167d7513e0, [16 x i8] c"p\00\00\00\00\00\00\00\B3\06\00\00\16\00\00\00" }>, align 8
@alloc_c60dbbb04a129df5bc7f7f986da85346 = private unnamed_addr constant <{ ptr, [16 x i8] }> <{ ptr @alloc_f035ff625bdb863e979e7d167d7513e0, [16 x i8] c"p\00\00\00\00\00\00\00\CD\06\00\00\0A\00\00\00" }>, align 8
@alloc_570f1697fe8be6fb3863e12e5c2d6c59 = private unnamed_addr constant <{ [18 x i8] }> <{ [18 x i8] c"encode_utf8: need " }>, align 1
@alloc_05f35d52df396706b8f70b8cd9878ab0 = private unnamed_addr constant <{ [19 x i8] }> <{ [19 x i8] c" bytes to encode U+" }>, align 1
@alloc_cfce99b89dbbaa177e38459ea5834dfe = private unnamed_addr constant <{ [21 x i8] }> <{ [21 x i8] c", but the buffer has " }>, align 1
@alloc_17eda000eed4fa50c9930631838b2137 = private unnamed_addr constant <{ ptr, [8 x i8], ptr, [8 x i8], ptr, [8 x i8] }> <{ ptr @alloc_570f1697fe8be6fb3863e12e5c2d6c59, [8 x i8] c"\12\00\00\00\00\00\00\00", ptr @alloc_05f35d52df396706b8f70b8cd9878ab0, [8 x i8] c"\13\00\00\00\00\00\00\00", ptr @alloc_cfce99b89dbbaa177e38459ea5834dfe, [8 x i8] c"\15\00\00\00\00\00\00\00" }>, align 8
@alloc_7c2f04411e058dac6a183b0d236738b2 = private unnamed_addr constant <{ ptr, [16 x i8] }> <{ ptr @alloc_f035ff625bdb863e979e7d167d7513e0, [16 x i8] c"p\00\00\00\00\00\00\00\C6\06\00\00\0E\00\00\00" }>, align 8
@alloc_a29f6f508d151c7ebbb0aeb4b1211a63 = private unnamed_addr constant <{ [112 x i8] }> <{ [112 x i8] c"/Users/yaw/.rustup/toolchains/nightly-aarch64-apple-darwin/lib/rustlib/src/rust/library/core/src/alloc/layout.rs" }>, align 1
@alloc_20a085c17f2c881db97732b2cf0b38fd = private unnamed_addr constant <{ ptr, [16 x i8] }> <{ ptr @alloc_a29f6f508d151c7ebbb0aeb4b1211a63, [16 x i8] c"p\00\00\00\00\00\00\00/\01\00\00\18\00\00\00" }>, align 8
@alloc_d289cbc6d164b49a3dfa9a42cb95d879 = private unnamed_addr constant <{ ptr, [16 x i8] }> <{ ptr @alloc_a29f6f508d151c7ebbb0aeb4b1211a63, [16 x i8] c"p\00\00\00\00\00\00\00]\00\00\00\1F\00\00\00" }>, align 8
@alloc_ffdb42e83584bd7c10adfc72ce12eabe = private unnamed_addr constant <{ ptr, [16 x i8] }> <{ ptr @alloc_a29f6f508d151c7ebbb0aeb4b1211a63, [16 x i8] c"p\00\00\00\00\00\00\00]\00\00\00\09\00\00\00" }>, align 8
@alloc_02f45c5ccc7b81d3bde0290dbb9a392f = private unnamed_addr constant <{ ptr, [16 x i8] }> <{ ptr @alloc_a29f6f508d151c7ebbb0aeb4b1211a63, [16 x i8] c"p\00\00\00\00\00\00\00\C4\01\00\00)\00\00\00" }>, align 8
@str.5 = internal constant [25 x i8] c"attempt to divide by zero"
@alloc_b3e3a8f01e57ea89155914a5657b3d48 = private unnamed_addr constant <{ ptr, [16 x i8] }> <{ ptr @alloc_a29f6f508d151c7ebbb0aeb4b1211a63, [16 x i8] c"p\00\00\00\00\00\00\00\C8\01\00\00\1E\00\00\00" }>, align 8
@alloc_167d287dd54ac614eda347c3c2d978e2 = private unnamed_addr constant <{ ptr, [16 x i8] }> <{ ptr @alloc_a29f6f508d151c7ebbb0aeb4b1211a63, [16 x i8] c"p\00\00\00\00\00\00\00\81\01\00\00\16\00\00\00" }>, align 8
@alloc_1a3da72cf886500b2d934766a7a1d062 = private unnamed_addr constant <{ ptr, [16 x i8] }> <{ ptr @alloc_a29f6f508d151c7ebbb0aeb4b1211a63, [16 x i8] c"p\00\00\00\00\00\00\00\82\01\00\00\18\00\00\00" }>, align 8
@alloc_7322928140fdc03ddb6b2ef2e6fddfc3 = private unnamed_addr constant <{ ptr, [16 x i8] }> <{ ptr @alloc_a29f6f508d151c7ebbb0aeb4b1211a63, [16 x i8] c"p\00\00\00\00\00\00\00\85\01\00\00\16\00\00\00" }>, align 8
@alloc_eb29d283dadbfac1e0da90551ac8d261 = private unnamed_addr constant <{ [166 x i8] }> <{ [166 x i8] c"unsafe precondition(s) violated: slice::from_raw_parts_mut requires the pointer to be aligned and non-null, and the total size of the slice not to exceed `isize::MAX`" }>, align 1
@alloc_8f8ca95cb31c5f3162b21d773e7660f9 = private unnamed_addr constant <{ [111 x i8] }> <{ [111 x i8] c"/Users/yaw/.rustup/toolchains/nightly-aarch64-apple-darwin/lib/rustlib/src/rust/library/core/src/slice/index.rs" }>, align 1
@alloc_f446e7ca7075308174dde43056e6eb22 = private unnamed_addr constant <{ ptr, [16 x i8] }> <{ ptr @alloc_8f8ca95cb31c5f3162b21d773e7660f9, [16 x i8] c"o\00\00\00\00\00\00\00\C1\02\00\004\00\00\00" }>, align 8
@alloc_fed8e75dfeeff8c27eef651baf293b43 = private unnamed_addr constant <{ ptr, [16 x i8] }> <{ ptr @alloc_8f8ca95cb31c5f3162b21d773e7660f9, [16 x i8] c"o\00\00\00\00\00\00\00\C9\02\00\002\00\00\00" }>, align 8
@alloc_1eb6c23242465c5f19c2022a7a12d288 = private unnamed_addr constant <{ [112 x i8] }> <{ [112 x i8] c"/Users/yaw/.rustup/toolchains/nightly-aarch64-apple-darwin/lib/rustlib/src/rust/library/core/src/slice/memchr.rs" }>, align 1
@alloc_7a6222c0398fdf1a39e96f26839bab7e = private unnamed_addr constant <{ ptr, [16 x i8] }> <{ ptr @alloc_1eb6c23242465c5f19c2022a7a12d288, [16 x i8] c"p\00\00\00\00\00\00\00:\00\00\00\0C\00\00\00" }>, align 8
@alloc_80e6d1880504b883c53c5d815a87cff0 = private unnamed_addr constant <{ ptr, [16 x i8] }> <{ ptr @alloc_1eb6c23242465c5f19c2022a7a12d288, [16 x i8] c"p\00\00\00\00\00\00\00>\00\00\00\09\00\00\00" }>, align 8
@vtable.6 = private constant <{ ptr, [16 x i8], ptr }> <{ ptr @"_ZN4core3ptr37drop_in_place$LT$core..fmt..Error$GT$17hc108cbe123dc37adE", [16 x i8] c"\00\00\00\00\00\00\00\00\01\00\00\00\00\00\00\00", ptr @"_ZN53_$LT$core..fmt..Error$u20$as$u20$core..fmt..Debug$GT$3fmt17h0cd1682f20b9dd77E" }>, align 8, !dbg !53
@alloc_24c9aed79b28e5b93fbc20adee13aef0 = private unnamed_addr constant <{ [43 x i8] }> <{ [43 x i8] c"called `Result::unwrap()` on an `Err` value" }>, align 1
@vtable.7 = private constant <{ ptr, [16 x i8], ptr }> <{ ptr @"_ZN4core3ptr53drop_in_place$LT$core..alloc..layout..LayoutError$GT$17he05a8a1bf4c8fc09E", [16 x i8] c"\00\00\00\00\00\00\00\00\01\00\00\00\00\00\00\00", ptr @"_ZN69_$LT$core..alloc..layout..LayoutError$u20$as$u20$core..fmt..Debug$GT$3fmt17h7b1b1b0c8f69cf75E" }>, align 8, !dbg !63
@vtable.8 = private constant <{ ptr, [16 x i8], ptr }> <{ ptr @"_ZN4core3ptr55drop_in_place$LT$$RF$core..option..Option$LT$u8$GT$$GT$17h848328e1cf5ca3d2E", [16 x i8] c"\08\00\00\00\00\00\00\00\08\00\00\00\00\00\00\00", ptr @"_ZN42_$LT$$RF$T$u20$as$u20$core..fmt..Debug$GT$3fmt17h89aa2bd3a4799f56E" }>, align 8, !dbg !74
@alloc_9994b1c6074626d50f3c935ba1910090 = private unnamed_addr constant <{ [117 x i8] }> <{ [117 x i8] c"/Users/yaw/.rustup/toolchains/nightly-aarch64-apple-darwin/lib/rustlib/src/rust/library/core/src/iter/traits/accum.rs" }>, align 1
@alloc_c7344677dd41d0c35941541aa568b4d0 = private unnamed_addr constant <{ ptr, [16 x i8] }> <{ ptr @alloc_9994b1c6074626d50f3c935ba1910090, [16 x i8] c"u\00\00\00\00\00\00\00\95\00\00\00\01\00\00\00" }>, align 8
@alloc_18ca0805f8b71f31ac76ef9d667d311b = private unnamed_addr constant <{ [101 x i8] }> <{ [101 x i8] c"unsafe precondition(s) violated: slice::get_unchecked_mut requires that the index is within the slice" }>, align 1
@alloc_5de95ea62957ceb4846a3d886d909c69 = private unnamed_addr constant <{ [108 x i8] }> <{ [108 x i8] c"/Users/yaw/.rustup/toolchains/nightly-aarch64-apple-darwin/lib/rustlib/src/rust/library/core/src/str/iter.rs" }>, align 1
@alloc_7f10fad61f04c36f7b13eb20a67afb16 = private unnamed_addr constant <{ ptr, [16 x i8] }> <{ ptr @alloc_5de95ea62957ceb4846a3d886d909c69, [16 x i8] c"l\00\00\00\00\00\00\00:\00\00\00\0A\00\00\00" }>, align 8
@alloc_163ddd424740f2e23491ea382f7449b8 = private unnamed_addr constant <{ ptr, [16 x i8] }> <{ ptr @alloc_5de95ea62957ceb4846a3d886d909c69, [16 x i8] c"l\00\00\00\00\00\00\00\91\00\00\00&\00\00\00" }>, align 8
@alloc_2b3f523e9e2c5f09fa11ae6558c01255 = private unnamed_addr constant <{ ptr, [16 x i8] }> <{ ptr @alloc_5de95ea62957ceb4846a3d886d909c69, [16 x i8] c"l\00\00\00\00\00\00\00\91\00\00\00\11\00\00\00" }>, align 8
@alloc_53294b26580165951d6dd1c6deb94a10 = private unnamed_addr constant <{ [111 x i8] }> <{ [111 x i8] c"/Users/yaw/.rustup/toolchains/nightly-aarch64-apple-darwin/lib/rustlib/src/rust/library/core/src/char/decode.rs" }>, align 1
@alloc_fa54d430b27b5ac9d335d8eb42ea0f03 = private unnamed_addr constant <{ ptr, [16 x i8] }> <{ ptr @alloc_53294b26580165951d6dd1c6deb94a10, [16 x i8] c"o\00\00\00\00\00\00\00D\00\00\00\15\00\00\00" }>, align 8
@alloc_4dca7c50455e81c4b9f6dd7c3de59d88 = private unnamed_addr constant <{ [56 x i8] }> <{ [56 x i8] c"`len` must be smaller than or equal to `self.capacity()`" }>, align 1
@alloc_99f15b03f3bfa75339564618e0666c4b = private unnamed_addr constant <{ ptr, [8 x i8] }> <{ ptr @alloc_4dca7c50455e81c4b9f6dd7c3de59d88, [8 x i8] c"8\00\00\00\00\00\00\00" }>, align 8
@alloc_f5252e66217b9fa4bace4b8beb50ce2f = private unnamed_addr constant <{ [108 x i8] }> <{ [108 x i8] c"/Users/yaw/.rustup/toolchains/nightly-aarch64-apple-darwin/lib/rustlib/src/rust/library/alloc/src/raw_vec.rs" }>, align 1
@alloc_1c210fcabb299bceb5cd2832a80973ef = private unnamed_addr constant <{ ptr, [16 x i8] }> <{ ptr @alloc_f5252e66217b9fa4bace4b8beb50ce2f, [16 x i8] c"l\00\00\00\00\00\00\00\9C\00\00\00\09\00\00\00" }>, align 8
@alloc_d3508941bd1314ad862e861ef6a1d679 = private unnamed_addr constant <{ [32 x i8] }> <{ [32 x i8] c"assertion failed: additional > 0" }>, align 1
@alloc_94e90bae3af186068bc5eff3e8be1f9c = private unnamed_addr constant <{ ptr, [16 x i8] }> <{ ptr @alloc_f5252e66217b9fa4bace4b8beb50ce2f, [16 x i8] c"l\00\00\00\00\00\00\00\82\01\00\00\09\00\00\00" }>, align 8
@alloc_ca73d4a7f3b47bdd6ee27b5651256d1d = private unnamed_addr constant <{ ptr, [16 x i8] }> <{ ptr @alloc_f5252e66217b9fa4bace4b8beb50ce2f, [16 x i8] c"l\00\00\00\00\00\00\00\8B\01\00\00\1C\00\00\00" }>, align 8
@alloc_b0d2abe837007f946c701cf26af6b272 = private unnamed_addr constant <{ ptr, [16 x i8] }> <{ ptr @alloc_f5252e66217b9fa4bace4b8beb50ce2f, [16 x i8] c"l\00\00\00\00\00\00\00\8F\01\00\00\1C\00\00\00" }>, align 8
@alloc_8354cad0daccd5be411414d5095631e5 = private unnamed_addr constant <{ ptr, [16 x i8] }> <{ ptr @alloc_f5252e66217b9fa4bace4b8beb50ce2f, [16 x i8] c"l\00\00\00\00\00\00\00\95\01\00\00\13\00\00\00" }>, align 8
@alloc_ad64aa38a833c3d5a5967dd6dbe76083 = private unnamed_addr constant <{ ptr, [16 x i8] }> <{ ptr @alloc_f5252e66217b9fa4bace4b8beb50ce2f, [16 x i8] c"l\00\00\00\00\00\00\00\A4\01\00\00\13\00\00\00" }>, align 8
@alloc_85a446c1ecb346528560f53666524a51 = private unnamed_addr constant <{ ptr, [16 x i8] }> <{ ptr @alloc_f5252e66217b9fa4bace4b8beb50ce2f, [16 x i8] c"l\00\00\00\00\00\00\00\A8\01\00\00\13\00\00\00" }>, align 8
@alloc_eb7f783e65ced90dbeb407f96bd71f23 = private unnamed_addr constant <{ [36 x i8] }> <{ [36 x i8] c"Tried to shrink to a larger capacity" }>, align 1
@alloc_3f013c2ff3b77455620c7b6030459892 = private unnamed_addr constant <{ ptr, [8 x i8] }> <{ ptr @alloc_eb7f783e65ced90dbeb407f96bd71f23, [8 x i8] c"$\00\00\00\00\00\00\00" }>, align 8
@alloc_dd850b3781d858ab4752fb03517d9dc6 = private unnamed_addr constant <{ ptr, [16 x i8] }> <{ ptr @alloc_f5252e66217b9fa4bace4b8beb50ce2f, [16 x i8] c"l\00\00\00\00\00\00\00\AF\01\00\00\09\00\00\00" }>, align 8
@alloc_4c7c158a760514eb3dbb50de0c5ebf0f = private unnamed_addr constant <{ ptr, [16 x i8] }> <{ ptr @alloc_f5252e66217b9fa4bace4b8beb50ce2f, [16 x i8] c"l\00\00\00\00\00\00\00\B9\01\00\00\0D\00\00\00" }>, align 8
@alloc_aaf45724aeefb2c6a1bae46622d83c0b = private unnamed_addr constant <{ ptr, [16 x i8] }> <{ ptr @alloc_f5252e66217b9fa4bace4b8beb50ce2f, [16 x i8] c"l\00\00\00\00\00\00\00\D0\01\00\00\16\00\00\00" }>, align 8
@alloc_a1f6e47b5a36ea7a9456db24008c1993 = private unnamed_addr constant <{ ptr, [16 x i8] }> <{ ptr @alloc_f5252e66217b9fa4bace4b8beb50ce2f, [16 x i8] c"l\00\00\00\00\00\00\00\D2\01\00\00\05\00\00\00" }>, align 8
@alloc_8bab2e9119408a09adc6a32ea81797f0 = private unnamed_addr constant <{ ptr, [16 x i8] }> <{ ptr @alloc_f5252e66217b9fa4bace4b8beb50ce2f, [16 x i8] c"l\00\00\00\00\00\00\00\D5\01\00\00\09\00\00\00" }>, align 8
@alloc_d8b623796366cfc3ee7fa9ba650aaec9 = private unnamed_addr constant <{ [17 x i8] }> <{ [17 x i8] c"capacity overflow" }>, align 1
@alloc_f1c3fdd4952167f08a45eb50e2155f84 = private unnamed_addr constant <{ ptr, [8 x i8] }> <{ ptr @alloc_d8b623796366cfc3ee7fa9ba650aaec9, [8 x i8] c"\11\00\00\00\00\00\00\00" }>, align 8
@alloc_27e9d3c6822f06b19afc0132a3987374 = private unnamed_addr constant <{ ptr, [16 x i8] }> <{ ptr @alloc_f5252e66217b9fa4bace4b8beb50ce2f, [16 x i8] c"l\00\00\00\00\00\00\00\0D\02\00\00\05\00\00\00" }>, align 8
@alloc_887b25f508125e2737e766393cb675b3 = private unnamed_addr constant <{ [106 x i8] }> <{ [106 x i8] c"/Users/yaw/.rustup/toolchains/nightly-aarch64-apple-darwin/lib/rustlib/src/rust/library/alloc/src/alloc.rs" }>, align 1
@alloc_2872501864a693c161a3561717ff8559 = private unnamed_addr constant <{ ptr, [16 x i8] }> <{ ptr @alloc_887b25f508125e2737e766393cb675b3, [16 x i8] c"j\00\00\00\00\00\00\00\B2\00\00\00\1B\00\00\00" }>, align 8
@alloc_1d41406411ecce6c01c45b934589836f = private unnamed_addr constant <{ [72 x i8] }> <{ [72 x i8] c"`new_layout.size()` must be greater than or equal to `old_layout.size()`" }>, align 1
@alloc_c7ae1f954522dd90a8f44baae431be9b = private unnamed_addr constant <{ ptr, [8 x i8] }> <{ ptr @alloc_1d41406411ecce6c01c45b934589836f, [8 x i8] c"H\00\00\00\00\00\00\00" }>, align 8
@alloc_42a5b49c9776b0b33fbe13836c2b4582 = private unnamed_addr constant <{ ptr, [16 x i8] }> <{ ptr @alloc_887b25f508125e2737e766393cb675b3, [16 x i8] c"j\00\00\00\00\00\00\00\C1\00\00\00\09\00\00\00" }>, align 8
@alloc_5ba5b2714b896f0859d1ee0da6af33f1 = private unnamed_addr constant <{ ptr, [16 x i8] }> <{ ptr @alloc_887b25f508125e2737e766393cb675b3, [16 x i8] c"j\00\00\00\00\00\00\00\D2\00\00\00\1B\00\00\00" }>, align 8
@alloc_1a9182a6a32222e32930dc0b0f8a3d32 = private unnamed_addr constant <{ ptr, [16 x i8] }> <{ ptr @alloc_887b25f508125e2737e766393cb675b3, [16 x i8] c"j\00\00\00\00\00\00\00\D4\00\00\00:\00\00\00" }>, align 8
@alloc_b9654aef1a48a42f4d2c4b2fa0500faf = private unnamed_addr constant <{ ptr, [16 x i8] }> <{ ptr @alloc_887b25f508125e2737e766393cb675b3, [16 x i8] c"j\00\00\00\00\00\00\00\DF\00\00\00\1F\00\00\00" }>, align 8
@alloc_f206476bd43b1c6099be0fc025f8fa2a = private unnamed_addr constant <{ [72 x i8] }> <{ [72 x i8] c"`new_layout.size()` must be smaller than or equal to `old_layout.size()`" }>, align 1
@alloc_295c34c5e2d6fdb08fc4b6bc306e1ee7 = private unnamed_addr constant <{ ptr, [8 x i8] }> <{ ptr @alloc_f206476bd43b1c6099be0fc025f8fa2a, [8 x i8] c"H\00\00\00\00\00\00\00" }>, align 8
@alloc_5ee2bbb77c0637aaa442027ef1fa39e3 = private unnamed_addr constant <{ ptr, [16 x i8] }> <{ ptr @alloc_887b25f508125e2737e766393cb675b3, [16 x i8] c"j\00\00\00\00\00\00\00\1B\01\00\00\09\00\00\00" }>, align 8
@alloc_1e7ae1386431630e92494d74a0d85183 = private unnamed_addr constant <{ ptr, [16 x i8] }> <{ ptr @alloc_887b25f508125e2737e766393cb675b3, [16 x i8] c"j\00\00\00\00\00\00\00-\01\00\00\1B\00\00\00" }>, align 8
@alloc_35dfdc4542b0bb7bfbad545cd5525a84 = private unnamed_addr constant <{ ptr, [16 x i8] }> <{ ptr @alloc_887b25f508125e2737e766393cb675b3, [16 x i8] c"j\00\00\00\00\00\00\007\01\00\00\1F\00\00\00" }>, align 8
@alloc_2af46b984fb8a0618661e3645ce38927 = private unnamed_addr constant <{ [17 x i8] }> <{ [17 x i8] c"allocation failed" }>, align 1
@alloc_dfa5f7cf5e3f2df862c3d4059657cfe8 = private unnamed_addr constant <{ ptr, [8 x i8] }> <{ ptr @alloc_2af46b984fb8a0618661e3645ce38927, [8 x i8] c"\11\00\00\00\00\00\00\00" }>, align 8
@alloc_6afbb5a3d969e7c44f72297774c796a6 = private unnamed_addr constant <{ ptr, [16 x i8] }> <{ ptr @alloc_887b25f508125e2737e766393cb675b3, [16 x i8] c"j\00\00\00\00\00\00\00|\01\00\00\09\00\00\00" }>, align 8
@__rust_alloc_error_handler_should_panic = external global i8
@alloc_c1a33bfa432a4fa61b581fd3090fb74b = private unnamed_addr constant <{ [21 x i8] }> <{ [21 x i8] c"memory allocation of " }>, align 1
@alloc_42f337f0650a4d15b81106ff80c390a6 = private unnamed_addr constant <{ [13 x i8] }> <{ [13 x i8] c" bytes failed" }>, align 1
@alloc_854e778decf79add00bb0a9150bedfd6 = private unnamed_addr constant <{ ptr, [8 x i8], ptr, [8 x i8] }> <{ ptr @alloc_c1a33bfa432a4fa61b581fd3090fb74b, [8 x i8] c"\15\00\00\00\00\00\00\00", ptr @alloc_42f337f0650a4d15b81106ff80c390a6, [8 x i8] c"\0D\00\00\00\00\00\00\00" }>, align 8
@alloc_cbe954214f19b8f269230475688cf3e8 = private unnamed_addr constant <{ ptr, [16 x i8] }> <{ ptr @alloc_887b25f508125e2737e766393cb675b3, [16 x i8] c"j\00\00\00\00\00\00\00\9D\01\00\00\0D\00\00\00" }>, align 8
@alloc_62a007f8b0a57ed8a5806817f7ceb665 = private unnamed_addr constant <{ ptr, [16 x i8] }> <{ ptr @alloc_887b25f508125e2737e766393cb675b3, [16 x i8] c"j\00\00\00\00\00\00\00\9F\01\00\00\0D\00\00\00" }>, align 8
@alloc_27537360c484533d7d9126a82c87562d = private unnamed_addr constant <{ ptr, [16 x i8], ptr }> <{ ptr @"_ZN4core3ptr205drop_in_place$LT$$LT$alloc..boxed..Box$LT$dyn$u20$core..error..Error$u2b$core..marker..Send$u2b$core..marker..Sync$GT$$u20$as$u20$core..convert..From$LT$alloc..string..String$GT$$GT$..from..StringError$GT$17h996a1f7630265b0eE", [16 x i8] c"\18\00\00\00\00\00\00\00\08\00\00\00\00\00\00\00", ptr @"_ZN223_$LT$$LT$alloc..boxed..Box$LT$dyn$u20$core..error..Error$u2b$core..marker..Send$u2b$core..marker..Sync$GT$$u20$as$u20$core..convert..From$LT$alloc..string..String$GT$$GT$..from..StringError$u20$as$u20$core..fmt..Display$GT$3fmt17h34dc5803b1268706E" }>, align 8
@vtable.9 = private constant <{ ptr, [16 x i8], ptr, ptr, ptr, ptr, ptr, ptr, ptr, ptr }> <{ ptr @"_ZN4core3ptr205drop_in_place$LT$$LT$alloc..boxed..Box$LT$dyn$u20$core..error..Error$u2b$core..marker..Send$u2b$core..marker..Sync$GT$$u20$as$u20$core..convert..From$LT$alloc..string..String$GT$$GT$..from..StringError$GT$17h996a1f7630265b0eE", [16 x i8] c"\18\00\00\00\00\00\00\00\08\00\00\00\00\00\00\00", ptr @"_ZN221_$LT$$LT$alloc..boxed..Box$LT$dyn$u20$core..error..Error$u2b$core..marker..Send$u2b$core..marker..Sync$GT$$u20$as$u20$core..convert..From$LT$alloc..string..String$GT$$GT$..from..StringError$u20$as$u20$core..fmt..Debug$GT$3fmt17he6b554d75f9bf311E", ptr @"_ZN223_$LT$$LT$alloc..boxed..Box$LT$dyn$u20$core..error..Error$u2b$core..marker..Send$u2b$core..marker..Sync$GT$$u20$as$u20$core..convert..From$LT$alloc..string..String$GT$$GT$..from..StringError$u20$as$u20$core..fmt..Display$GT$3fmt17h34dc5803b1268706E", ptr @alloc_27537360c484533d7d9126a82c87562d, ptr @_ZN4core5error5Error6source17h64834ca2e701851dE, ptr @_ZN4core5error5Error7type_id17h5b316b3835b36a28E, ptr @"_ZN223_$LT$$LT$alloc..boxed..Box$LT$dyn$u20$core..error..Error$u2b$core..marker..Send$u2b$core..marker..Sync$GT$$u20$as$u20$core..convert..From$LT$alloc..string..String$GT$$GT$..from..StringError$u20$as$u20$core..error..Error$GT$11description17ha04aa3aedf33712bE", ptr @_ZN4core5error5Error5cause17h7571e2326d752b49E, ptr @_ZN4core5error5Error7provide17h0facdcbdc4ed310dE }>, align 8, !dbg !95
@alloc_3ef7a8cb2faf5c9e657d645555199e24 = private unnamed_addr constant <{ [40 x i8] }> <{ [40 x i8] c"internal error: entered unreachable code" }>, align 1
@alloc_b228939dbf23c76e6f69d61a32fc2e7a = private unnamed_addr constant <{ [107 x i8] }> <{ [107 x i8] c"/Users/yaw/.rustup/toolchains/nightly-aarch64-apple-darwin/lib/rustlib/src/rust/library/alloc/src/borrow.rs" }>, align 1
@alloc_0f593a343d974519341042e8e5b41f3d = private unnamed_addr constant <{ ptr, [16 x i8] }> <{ ptr @alloc_b228939dbf23c76e6f69d61a32fc2e7a, [16 x i8] c"k\00\00\00\00\00\00\00\17\01\00\00%\00\00\00" }>, align 8
@alloc_068e3c87972b8effe20f1830561f8e95 = private unnamed_addr constant <{ ptr, [16 x i8] }> <{ ptr @alloc_b228939dbf23c76e6f69d61a32fc2e7a, [16 x i8] c"k\00\00\00\00\00\00\00\D6\01\00\003\00\00\00" }>, align 8
@alloc_1987c0da2b591ee4a82a52e15d549fa1 = private unnamed_addr constant <{ ptr, [16 x i8] }> <{ ptr @alloc_b228939dbf23c76e6f69d61a32fc2e7a, [16 x i8] c"k\00\00\00\00\00\00\00\E7\01\00\003\00\00\00" }>, align 8
@alloc_fca685c3a5d754d3fffe814a538cb9f8 = private unnamed_addr constant <{ [38 x i8] }> <{ [38 x i8] c"assertion failed: edge_idx <= CAPACITY" }>, align 1
@alloc_296faeeaa51ebbde85bba591d3b13e69 = private unnamed_addr constant <{ [123 x i8] }> <{ [123 x i8] c"/Users/yaw/.rustup/toolchains/nightly-aarch64-apple-darwin/lib/rustlib/src/rust/library/alloc/src/collections/btree/node.rs" }>, align 1
@alloc_709e40febbd32ea7182ea83096e66eef = private unnamed_addr constant <{ ptr, [16 x i8] }> <{ ptr @alloc_296faeeaa51ebbde85bba591d3b13e69, [16 x i8] c"{\00\00\00\00\00\00\00m\03\00\00\05\00\00\00" }>, align 8
@alloc_19abf371dbe1b11983996d7d3c133749 = private unnamed_addr constant <{ ptr, [16 x i8] }> <{ ptr @alloc_296faeeaa51ebbde85bba591d3b13e69, [16 x i8] c"{\00\00\00\00\00\00\00s\03\00\005\00\00\00" }>, align 8
@alloc_563b2d33981876a7fc39df820c94bae4 = private unnamed_addr constant <{ [24 x i8] }> <{ [24 x i8] c"memory allocation failed" }>, align 1
@alloc_a8dc7f44160fc3d654e2b16de6a4f07c = private unnamed_addr constant <{ [116 x i8] }> <{ [116 x i8] c"/Users/yaw/.rustup/toolchains/nightly-aarch64-apple-darwin/lib/rustlib/src/rust/library/alloc/src/collections/mod.rs" }>, align 1
@alloc_0b0286357274b4c9eaf3f5533930fa13 = private unnamed_addr constant <{ ptr, [16 x i8] }> <{ ptr @alloc_a8dc7f44160fc3d654e2b16de6a4f07c, [16 x i8] c"t\00\00\00\00\00\00\00\88\00\00\00\09\00\00\00" }>, align 8
@alloc_f6ade82938a5b491d71dfc9097e36761 = private unnamed_addr constant <{ [47 x i8] }> <{ [47 x i8] c" because the memory allocator returned an error" }>, align 1
@alloc_c7b932db62d5bdcb5ca2fe37b37b7944 = private unnamed_addr constant <{ [64 x i8] }> <{ [64 x i8] c" because the computed capacity exceeded the collection's maximum" }>, align 1
@alloc_989dfdd4d9afd8a157043aa483a3ea3c = private unnamed_addr constant <{ [110 x i8] }> <{ [110 x i8] c"/Users/yaw/.rustup/toolchains/nightly-aarch64-apple-darwin/lib/rustlib/src/rust/library/alloc/src/ffi/c_str.rs" }>, align 1
@alloc_a5b3eabf9c22cb61c05bc8e297096434 = private unnamed_addr constant <{ ptr, [16 x i8] }> <{ ptr @alloc_989dfdd4d9afd8a157043aa483a3ea3c, [16 x i8] c"n\00\00\00\00\00\00\00\BB\00\00\00\0A\00\00\00" }>, align 8
@alloc_2afa95efdaceb1c5922c4b8a2e16a67d = private unnamed_addr constant <{ ptr, [16 x i8] }> <{ ptr @alloc_989dfdd4d9afd8a157043aa483a3ea3c, [16 x i8] c"n\00\00\00\00\00\00\00\1B\01\00\007\00\00\00" }>, align 8
@alloc_5e5813a368e2861717aea807bfd3dab8 = private unnamed_addr constant <{ [49 x i8] }> <{ [49 x i8] c"assertion failed: memchr::memchr(0, &v).is_none()" }>, align 1
@alloc_21eae8b1b78c21c4127420364ce37047 = private unnamed_addr constant <{ ptr, [16 x i8] }> <{ ptr @alloc_989dfdd4d9afd8a157043aa483a3ea3c, [16 x i8] c"n\00\00\00\00\00\00\00U\01\00\00\09\00\00\00" }>, align 8
@alloc_e4479345af98ed73e24ee37f36dbc23a = private unnamed_addr constant <{ ptr, [16 x i8] }> <{ ptr @alloc_989dfdd4d9afd8a157043aa483a3ea3c, [16 x i8] c"n\00\00\00\00\00\00\00\98\01\00\00\17\00\00\00" }>, align 8
@alloc_d1e2722b54ef8ec03f2047485c081942 = private unnamed_addr constant <{ [2 x i8] }> <{ [2 x i8] c"\01\00" }>, align 1
@alloc_b907c864b0f545588eec0b633078b1e8 = private unnamed_addr constant <{ ptr, [16 x i8] }> <{ ptr @alloc_989dfdd4d9afd8a157043aa483a3ea3c, [16 x i8] c"n\00\00\00\00\00\00\00\F4\01\00\00\09\00\00\00" }>, align 8
@alloc_752ec64ad4297d322aadfa88b3472ebb = private unnamed_addr constant <{ ptr, [16 x i8] }> <{ ptr @alloc_989dfdd4d9afd8a157043aa483a3ea3c, [16 x i8] c"n\00\00\00\00\00\00\00y\02\00\00-\00\00\00" }>, align 8
@alloc_aa57af6dfbaa5650830dfb1fee8cd9ef = private unnamed_addr constant <{ ptr, [16 x i8] }> <{ ptr @alloc_989dfdd4d9afd8a157043aa483a3ea3c, [16 x i8] c"n\00\00\00\00\00\00\00y\02\00\00\17\00\00\00" }>, align 8
@alloc_3df6d204130c5bfa5e2f056efb06b697 = private unnamed_addr constant <{ [63 x i8] }> <{ [63 x i8] c"assertion failed: memchr::memchr(0, &v).unwrap() + 1 == v.len()" }>, align 1
@alloc_f8ea6406c66a7ce76f083b51c92be73b = private unnamed_addr constant <{ ptr, [16 x i8] }> <{ ptr @alloc_989dfdd4d9afd8a157043aa483a3ea3c, [16 x i8] c"n\00\00\00\00\00\00\00y\02\00\00\09\00\00\00" }>, align 8
@alloc_8eb2c3650813749787940e1e6e40b97c = private unnamed_addr constant <{ ptr, [16 x i8] }> <{ ptr @alloc_989dfdd4d9afd8a157043aa483a3ea3c, [16 x i8] c"n\00\00\00\00\00\00\00\A6\02\00\00\1E\00\00\00" }>, align 8
@alloc_dbd3191b20a72f8f00d4fe85b704ac74 = private unnamed_addr constant <{ [45 x i8] }> <{ [45 x i8] c"nul byte found in provided data at position: " }>, align 1
@alloc_1b43b30ce11b2325ac265e2f39339fd5 = private unnamed_addr constant <{ ptr, [8 x i8] }> <{ ptr @alloc_dbd3191b20a72f8f00d4fe85b704ac74, [8 x i8] c"-\00\00\00\00\00\00\00" }>, align 8
@alloc_636bae917ef5bbe7e6c4ea681f79c5bf = private unnamed_addr constant <{ [35 x i8] }> <{ [35 x i8] c"data provided is not nul terminated" }>, align 1
@alloc_6f7e1863f9eb0b975e014710d5491d4d = private unnamed_addr constant <{ ptr, [8 x i8] }> <{ ptr @alloc_636bae917ef5bbe7e6c4ea681f79c5bf, [8 x i8] c"#\00\00\00\00\00\00\00" }>, align 8
@alloc_a13a52daaefdc286649dbca47fe12c19 = private unnamed_addr constant <{ [51 x i8] }> <{ [51 x i8] c"data provided contains an interior nul byte at pos " }>, align 1
@alloc_28948e56a703a1cfad9ad8b1fe5790eb = private unnamed_addr constant <{ ptr, [8 x i8] }> <{ ptr @alloc_a13a52daaefdc286649dbca47fe12c19, [8 x i8] c"3\00\00\00\00\00\00\00" }>, align 8
@alloc_1add4574f5ab41a1316837f308f660f3 = private unnamed_addr constant <{ [33 x i8] }> <{ [33 x i8] c"C string contained non-utf8 bytes" }>, align 1
@alloc_2d0407af131f995f6ab914c51ddf2d12 = private unnamed_addr constant <{ [22 x i8] }> <{ [22 x i8] c"nul byte found in data" }>, align 1
@alloc_1f5719c1cabc8abe76a764aa1edc5b0d = private unnamed_addr constant <{ ptr, [16 x i8], ptr }> <{ ptr @"_ZN4core3ptr48drop_in_place$LT$core..str..error..Utf8Error$GT$17h8722002bc00b874fE", [16 x i8] c"\10\00\00\00\00\00\00\00\08\00\00\00\00\00\00\00", ptr @"_ZN66_$LT$core..str..error..Utf8Error$u20$as$u20$core..fmt..Display$GT$3fmt17h6f070f97c6b024f0E" }>, align 8
@vtable.a = private constant <{ ptr, [16 x i8], ptr, ptr, ptr, ptr, ptr, ptr, ptr, ptr }> <{ ptr @"_ZN4core3ptr48drop_in_place$LT$core..str..error..Utf8Error$GT$17h8722002bc00b874fE", [16 x i8] c"\10\00\00\00\00\00\00\00\08\00\00\00\00\00\00\00", ptr @"_ZN64_$LT$core..str..error..Utf8Error$u20$as$u20$core..fmt..Debug$GT$3fmt17he8fc625818b35893E", ptr @"_ZN66_$LT$core..str..error..Utf8Error$u20$as$u20$core..fmt..Display$GT$3fmt17h6f070f97c6b024f0E", ptr @alloc_1f5719c1cabc8abe76a764aa1edc5b0d, ptr @_ZN4core5error5Error6source17h8d69b3ad77d08327E, ptr @_ZN4core5error5Error7type_id17h45fb35de5050bdc5E, ptr @"_ZN66_$LT$core..str..error..Utf8Error$u20$as$u20$core..error..Error$GT$11description17h3d1d1e88c080eb28E", ptr @_ZN4core5error5Error5cause17h4f3413bed4738be7E, ptr @_ZN4core5error5Error7provide17h9ded8b4725c23ab2E }>, align 8, !dbg !116
@alloc_0105dc2397ac7c966adc13e0ee71a018 = private unnamed_addr constant <{ [51 x i8] }> <{ [51 x i8] c"a formatting trait implementation returned an error" }>, align 1
@alloc_2bd9605d33476a4b9b33dadddaca593b = private unnamed_addr constant <{ [104 x i8] }> <{ [104 x i8] c"/Users/yaw/.rustup/toolchains/nightly-aarch64-apple-darwin/lib/rustlib/src/rust/library/alloc/src/fmt.rs" }>, align 1
@alloc_94d00f93c1bf1ae927599c29067f4888 = private unnamed_addr constant <{ ptr, [16 x i8] }> <{ ptr @alloc_2bd9605d33476a4b9b33dadddaca593b, [16 x i8] c"h\00\00\00\00\00\00\00d\02\00\00 \00\00\00" }>, align 8
@alloc_1c5f83cd77b797d121ee150552e68517 = private unnamed_addr constant <{ [103 x i8] }> <{ [103 x i8] c"/Users/yaw/.rustup/toolchains/nightly-aarch64-apple-darwin/lib/rustlib/src/rust/library/alloc/src/rc.rs" }>, align 1
@alloc_692eaf18796bf7142ac5b58f8314fe17 = private unnamed_addr constant <{ ptr, [16 x i8] }> <{ ptr @alloc_1c5f83cd77b797d121ee150552e68517, [16 x i8] c"g\00\00\00\00\00\00\00.\01\00\00/\00\00\00" }>, align 8
@alloc_4144cdbf29b693e982425a7ba5ad8d06 = private unnamed_addr constant <{ [106 x i8] }> <{ [106 x i8] c"/Users/yaw/.rustup/toolchains/nightly-aarch64-apple-darwin/lib/rustlib/src/rust/library/alloc/src/slice.rs" }>, align 1
@alloc_aa2fb326309c571bd6804aef16b72d41 = private unnamed_addr constant <{ ptr, [16 x i8] }> <{ ptr @alloc_4144cdbf29b693e982425a7ba5ad8d06, [16 x i8] c"j\00\00\00\00\00\00\00\F7\01\00\002\00\00\00" }>, align 8
@alloc_4e9b3f228f56f0da67519e4729f2ed74 = private unnamed_addr constant <{ ptr, [16 x i8] }> <{ ptr @alloc_4144cdbf29b693e982425a7ba5ad8d06, [16 x i8] c"j\00\00\00\00\00\00\00\09\02\00\00!\00\00\00" }>, align 8
@alloc_e89e95604460e16501483f537c64bb3f = private unnamed_addr constant <{ ptr, [16 x i8] }> <{ ptr @alloc_4144cdbf29b693e982425a7ba5ad8d06, [16 x i8] c"j\00\00\00\00\00\00\00\12\02\00\00\17\00\00\00" }>, align 8
@alloc_7c58a935273a6e7e69b3ae5c4f2532c1 = private unnamed_addr constant <{ [104 x i8] }> <{ [104 x i8] c"/Users/yaw/.rustup/toolchains/nightly-aarch64-apple-darwin/lib/rustlib/src/rust/library/alloc/src/str.rs" }>, align 1
@alloc_a63230b74baa92f23482115faa65bbaf = private unnamed_addr constant <{ ptr, [16 x i8] }> <{ ptr @alloc_7c58a935273a6e7e69b3ae5c4f2532c1, [16 x i8] c"h\00\00\00\00\00\00\00\BF\00\00\00\0A\00\00\00" }>, align 8
@alloc_ff3207273e189921ff430500eba35823 = private unnamed_addr constant <{ ptr, [16 x i8] }> <{ ptr @alloc_7c58a935273a6e7e69b3ae5c4f2532c1, [16 x i8] c"h\00\00\00\00\00\00\00z\01\00\00\17\00\00\00" }>, align 8
@alloc_797840ed541c959df2e77a56b76cfb15 = private unnamed_addr constant <{ [40 x i8] }> <{ [40 x i8] c"assertion failed: \\'\CE\A3\\'.len_utf8() == 2" }>, align 1
@alloc_b1a001e9d5f2d059c3feaa2c9220b939 = private unnamed_addr constant <{ ptr, [16 x i8] }> <{ ptr @alloc_7c58a935273a6e7e69b3ae5c4f2532c1, [16 x i8] c"h\00\00\00\00\00\00\00\96\01\00\00\0D\00\00\00" }>, align 8
@alloc_bf38d0eb53f1bcc3766b65c9c2984b81 = private unnamed_addr constant <{ ptr, [16 x i8] }> <{ ptr @alloc_7c58a935273a6e7e69b3ae5c4f2532c1, [16 x i8] c"h\00\00\00\00\00\00\00\97\01\00\00<\00\00\00" }>, align 8
@alloc_f263bbb188aa42b59bf2b2c0d48c5a8e = private unnamed_addr constant <{ ptr, [16 x i8] }> <{ ptr @alloc_7c58a935273a6e7e69b3ae5c4f2532c1, [16 x i8] c"h\00\00\00\00\00\00\00\98\01\00\005\00\00\00" }>, align 8
@alloc_799b91a0ea3abe5e1030c8fbd3e9682c = private unnamed_addr constant <{ ptr, [16 x i8] }> <{ ptr @alloc_7c58a935273a6e7e69b3ae5c4f2532c1, [16 x i8] c"h\00\00\00\00\00\00\00\98\01\00\000\00\00\00" }>, align 8
@alloc_0a6f3b2c3782af21135dace948aa7901 = private unnamed_addr constant <{ [2 x i8] }> <{ [2 x i8] c"\CF\82" }>, align 1
@alloc_f1aadf2fefd80bee2f8993682f83477f = private unnamed_addr constant <{ [2 x i8] }> <{ [2 x i8] c"\CF\83" }>, align 1
@alloc_d437df2fae4ef9f6fed9560495d60e40 = private unnamed_addr constant <{ ptr, [16 x i8] }> <{ ptr @alloc_7c58a935273a6e7e69b3ae5c4f2532c1, [16 x i8] c"h\00\00\00\00\00\00\00|\02\00\00\0F\00\00\00" }>, align 8
@alloc_7e08701eade7da3c360e001994f1aa3b = private unnamed_addr constant <{ ptr, [16 x i8] }> <{ ptr @alloc_7c58a935273a6e7e69b3ae5c4f2532c1, [16 x i8] c"h\00\00\00\00\00\00\00~\02\00\00/\00\00\00" }>, align 8
@alloc_59b6c1bac895757c4e915f7838a90920 = private unnamed_addr constant <{ ptr, [16 x i8] }> <{ ptr @alloc_7c58a935273a6e7e69b3ae5c4f2532c1, [16 x i8] c"h\00\00\00\00\00\00\00\7F\02\00\00K\00\00\00" }>, align 8
@alloc_f4e258cab95dd3d2687370c891e78fd4 = private unnamed_addr constant <{ ptr, [16 x i8] }> <{ ptr @alloc_7c58a935273a6e7e69b3ae5c4f2532c1, [16 x i8] c"h\00\00\00\00\00\00\00\94\02\00\00\0D\00\00\00" }>, align 8
@alloc_f94fd91e544fe18db126bd037bca2593 = private unnamed_addr constant <{ [107 x i8] }> <{ [107 x i8] c"/Users/yaw/.rustup/toolchains/nightly-aarch64-apple-darwin/lib/rustlib/src/rust/library/alloc/src/string.rs" }>, align 1
@alloc_cb204d54ed5b86b77c53dcaa96356cac = private unnamed_addr constant <{ ptr, [16 x i8] }> <{ ptr @alloc_f94fd91e544fe18db126bd037bca2593, [16 x i8] c"k\00\00\00\00\00\00\00{\02\00\00\11\00\00\00" }>, align 8
@alloc_aa329616e90d5f6d8c9641ac2278f51f = private unnamed_addr constant <{ [3 x i8] }> <{ [3 x i8] c"\EF\BF\BD" }>, align 1
@alloc_6564cfadb1513ab6a9e19a5883fd642f = private unnamed_addr constant <{ ptr, [16 x i8] }> <{ ptr @alloc_f94fd91e544fe18db126bd037bca2593, [16 x i8] c"k\00\00\00\00\00\00\00\B8\05\00\00\1F\00\00\00" }>, align 8
@alloc_1b40162c2ad9290d2e87219ac6f22a34 = private unnamed_addr constant <{ [41 x i8] }> <{ [41 x i8] c"assertion failed: new_len <= self.s.len()" }>, align 1
@alloc_cdb18e0ac2fdf07ff8d065001ccf4deb = private unnamed_addr constant <{ ptr, [16 x i8] }> <{ ptr @alloc_f94fd91e544fe18db126bd037bca2593, [16 x i8] c"k\00\00\00\00\00\00\00\B9\05\00\00\11\00\00\00" }>, align 8
@alloc_c4f9797b0f1e481486cf1805b69152bb = private unnamed_addr constant <{ ptr, [16 x i8] }> <{ ptr @alloc_f94fd91e544fe18db126bd037bca2593, [16 x i8] c"k\00\00\00\00\00\00\00\0C\06\00\00M\00\00\00" }>, align 8
@alloc_51756ffd9ef1692e98058c841f3b1d25 = private unnamed_addr constant <{ ptr, [16 x i8] }> <{ ptr @alloc_f94fd91e544fe18db126bd037bca2593, [16 x i8] c"k\00\00\00\00\00\00\00\0C\06\00\00Y\00\00\00" }>, align 8
@alloc_179b204dd41604643e7e05e15770286f = private unnamed_addr constant <{ ptr, [16 x i8] }> <{ ptr @alloc_f94fd91e544fe18db126bd037bca2593, [16 x i8] c"k\00\00\00\00\00\00\00\0E\06\00\00\1E\00\00\00" }>, align 8
@alloc_e7a54bfd3f40ffe1b4770061f50c2565 = private unnamed_addr constant <{ ptr, [16 x i8] }> <{ ptr @alloc_f94fd91e544fe18db126bd037bca2593, [16 x i8] c"k\00\00\00\00\00\00\00m\07\00\00\0A\00\00\00" }>, align 8
@alloc_7e441d31300c821308b0a441ed1ccfa5 = private unnamed_addr constant <{ [36 x i8] }> <{ [36 x i8] c"invalid utf-16: lone surrogate found" }>, align 1
@alloc_46abab1c9fd8e8791359e4d0f3710c93 = private unnamed_addr constant <{ [13 x i8] }> <{ [13 x i8] c"invalid utf-8" }>, align 1
@alloc_0348276978820a5ed4f30a14cea57144 = private unnamed_addr constant <{ [14 x i8] }> <{ [14 x i8] c"invalid utf-16" }>, align 1
@alloc_2def5dfce2dcd52f802e5cbd740e3552 = private unnamed_addr constant <{ ptr, [16 x i8] }> <{ ptr @alloc_f94fd91e544fe18db126bd037bca2593, [16 x i8] c"k\00\00\00\00\00\00\00\85\08\00\00\09\00\00\00" }>, align 8
@alloc_c3a853c9e224f646db894333f8d4e0c8 = private unnamed_addr constant <{ [5 x i8] }> <{ [5 x i8] c"Drain" }>, align 1
@vtable.b = private constant <{ ptr, [16 x i8], ptr }> <{ ptr @"_ZN4core3ptr28drop_in_place$LT$$RF$str$GT$17h425384f8669752d8E", [16 x i8] c"\10\00\00\00\00\00\00\00\08\00\00\00\00\00\00\00", ptr @"_ZN42_$LT$$RF$T$u20$as$u20$core..fmt..Debug$GT$3fmt17he975b5950af71586E" }>, align 8, !dbg !137
@alloc_beb401aa303c19b9b9147d6b639c7a16 = private unnamed_addr constant <{ [105 x i8] }> <{ [105 x i8] c"/Users/yaw/.rustup/toolchains/nightly-aarch64-apple-darwin/lib/rustlib/src/rust/library/alloc/src/sync.rs" }>, align 1
@alloc_3a3a41ed10ad0b95ca64ca5e7928adac = private unnamed_addr constant <{ ptr, [16 x i8] }> <{ ptr @alloc_beb401aa303c19b9b9147d6b639c7a16, [16 x i8] c"i\00\00\00\00\00\00\00V\01\00\002\00\00\00" }>, align 8
@alloc_1f4c42c67292ffe6432cc82856fc2cf5 = private unnamed_addr constant <{ [110 x i8] }> <{ [110 x i8] c"/Users/yaw/.rustup/toolchains/nightly-aarch64-apple-darwin/lib/rustlib/src/rust/library/alloc/src/vec/drain.rs" }>, align 1
@alloc_2f628df24e0dd1463907a30b78b3f33c = private unnamed_addr constant <{ ptr, [16 x i8] }> <{ ptr @alloc_1f4c42c67292ffe6432cc82856fc2cf5, [16 x i8] c"n\00\00\00\00\00\00\00\D3\00\00\00\1D\00\00\00" }>, align 8
@alloc_6139328b7c88b831187aaec75c25f44d = private unnamed_addr constant <{ ptr, [16 x i8] }> <{ ptr @alloc_1f4c42c67292ffe6432cc82856fc2cf5, [16 x i8] c"n\00\00\00\00\00\00\00\D4\00\00\00\1E\00\00\00" }>, align 8
@alloc_9acf83b40754c1656f9cdee18fdd39d4 = private unnamed_addr constant <{ ptr, [16 x i8] }> <{ ptr @alloc_1f4c42c67292ffe6432cc82856fc2cf5, [16 x i8] c"n\00\00\00\00\00\00\00\C2\00\00\00,\00\00\00" }>, align 8
@0 = private unnamed_addr constant <{ [16 x i8] }> <{ [16 x i8] c"\00\00\00\00\00\00\00\00\01\00\00\00\00\00\00\00" }>, align 8
@alloc_2dc1f9066482a29f16cd5b38832168cd = private unnamed_addr constant <{ [108 x i8] }> <{ [108 x i8] c"/Users/yaw/.rustup/toolchains/nightly-aarch64-apple-darwin/lib/rustlib/src/rust/library/alloc/src/vec/mod.rs" }>, align 1
@alloc_f6d6eaf1db965a6be09fd26ade1bc4eb = private unnamed_addr constant <{ ptr, [16 x i8] }> <{ ptr @alloc_2dc1f9066482a29f16cd5b38832168cd, [16 x i8] c"l\00\00\00\00\00\00\00\93\04\00\00!\00\00\00" }>, align 8
@alloc_c13931f7e9e9ebea27efae909e013fd2 = private unnamed_addr constant <{ [44 x i8] }> <{ [44 x i8] c"assertion failed: new_len <= self.capacity()" }>, align 1
@alloc_1ba0719c30b5d3d54d2645e185278fec = private unnamed_addr constant <{ ptr, [16 x i8] }> <{ ptr @alloc_2dc1f9066482a29f16cd5b38832168cd, [16 x i8] c"l\00\00\00\00\00\00\00_\05\00\00\09\00\00\00" }>, align 8
@alloc_74fa3559d92ffac80cb074ff5820a44a = private unnamed_addr constant <{ [22 x i8] }> <{ [22 x i8] c"swap_remove index (is " }>, align 1
@alloc_2e2c85020d1d4202a78e407dc5f14bb6 = private unnamed_addr constant <{ [22 x i8] }> <{ [22 x i8] c") should be < len (is " }>, align 1
@alloc_bacb0500a8e518371fd52ddb8e3ff6e7 = private unnamed_addr constant <{ [1 x i8] }> <{ [1 x i8] c")" }>, align 1
@alloc_1ee46c7ef9489069f10170c82c599b4a = private unnamed_addr constant <{ ptr, [8 x i8], ptr, [8 x i8], ptr, [8 x i8] }> <{ ptr @alloc_74fa3559d92ffac80cb074ff5820a44a, [8 x i8] c"\16\00\00\00\00\00\00\00", ptr @alloc_2e2c85020d1d4202a78e407dc5f14bb6, [8 x i8] c"\16\00\00\00\00\00\00\00", ptr @alloc_bacb0500a8e518371fd52ddb8e3ff6e7, [8 x i8] c"\01\00\00\00\00\00\00\00" }>, align 8
@alloc_021ecaf3b9e9d10672a87d3fccfd178d = private unnamed_addr constant <{ ptr, [16 x i8] }> <{ ptr @alloc_2dc1f9066482a29f16cd5b38832168cd, [16 x i8] c"l\00\00\00\00\00\00\00\82\05\00\00\0D\00\00\00" }>, align 8
@alloc_bbbd8d868308fe748a42098ee7c1698e = private unnamed_addr constant <{ [20 x i8] }> <{ [20 x i8] c"insertion index (is " }>, align 1
@alloc_07a8dfa99906a23b6593562204ab5272 = private unnamed_addr constant <{ [23 x i8] }> <{ [23 x i8] c") should be <= len (is " }>, align 1
@alloc_0fc675edd11936a791c597fa39eb0cdc = private unnamed_addr constant <{ ptr, [8 x i8], ptr, [8 x i8], ptr, [8 x i8] }> <{ ptr @alloc_bbbd8d868308fe748a42098ee7c1698e, [8 x i8] c"\14\00\00\00\00\00\00\00", ptr @alloc_07a8dfa99906a23b6593562204ab5272, [8 x i8] c"\17\00\00\00\00\00\00\00", ptr @alloc_bacb0500a8e518371fd52ddb8e3ff6e7, [8 x i8] c"\01\00\00\00\00\00\00\00" }>, align 8
@alloc_75eec5a9bf93217b91f0d85ef446d86d = private unnamed_addr constant <{ ptr, [16 x i8] }> <{ ptr @alloc_2dc1f9066482a29f16cd5b38832168cd, [16 x i8] c"l\00\00\00\00\00\00\00\AB\05\00\00\0D\00\00\00" }>, align 8
@alloc_5033bdab25dcee6bf7285cf95bd64a60 = private unnamed_addr constant <{ [18 x i8] }> <{ [18 x i8] c"removal index (is " }>, align 1
@alloc_2ca41611c3f9af1c4961102fd5021961 = private unnamed_addr constant <{ ptr, [8 x i8], ptr, [8 x i8], ptr, [8 x i8] }> <{ ptr @alloc_5033bdab25dcee6bf7285cf95bd64a60, [8 x i8] c"\12\00\00\00\00\00\00\00", ptr @alloc_2e2c85020d1d4202a78e407dc5f14bb6, [8 x i8] c"\16\00\00\00\00\00\00\00", ptr @alloc_bacb0500a8e518371fd52ddb8e3ff6e7, [8 x i8] c"\01\00\00\00\00\00\00\00" }>, align 8
@alloc_b99318ccbf51b1bf7a9d2232279292ea = private unnamed_addr constant <{ ptr, [16 x i8] }> <{ ptr @alloc_2dc1f9066482a29f16cd5b38832168cd, [16 x i8] c"l\00\00\00\00\00\00\005\07\00\00\0D\00\00\00" }>, align 8
@alloc_191041be788d99199d297d0f6b497cc9 = private unnamed_addr constant <{ ptr, [16 x i8] }> <{ ptr @alloc_2dc1f9066482a29f16cd5b38832168cd, [16 x i8] c"l\00\00\00\00\00\00\00|\07\00\00\11\00\00\00" }>, align 8
@alloc_678b85d2616044cae3ab040f83b9c2b7 = private unnamed_addr constant <{ ptr, [16 x i8] }> <{ ptr @alloc_2dc1f9066482a29f16cd5b38832168cd, [16 x i8] c"l\00\00\00\00\00\00\00\A3\07\00\00\09\00\00\00" }>, align 8
@alloc_6f72c8639928306d8b274daf2f21be7d = private unnamed_addr constant <{ ptr, [16 x i8] }> <{ ptr @alloc_2dc1f9066482a29f16cd5b38832168cd, [16 x i8] c"l\00\00\00\00\00\00\00\D4\07\00\00$\00\00\00" }>, align 8
@alloc_918855f270549a980391bb633a1ed9d7 = private unnamed_addr constant <{ ptr, [16 x i8] }> <{ ptr @alloc_2dc1f9066482a29f16cd5b38832168cd, [16 x i8] c"l\00\00\00\00\00\00\00\D9\07\00\00O\00\00\00" }>, align 8
@alloc_0cadfb3ea2bb7904c434fe7d632b6ea1 = private unnamed_addr constant <{ ptr, [16 x i8] }> <{ ptr @alloc_2dc1f9066482a29f16cd5b38832168cd, [16 x i8] c"l\00\00\00\00\00\00\00\DC\07\00\00\1B\00\00\00" }>, align 8
@alloc_250f17991e1eefae877ca9ec690d667b = private unnamed_addr constant <{ [21 x i8] }> <{ [21 x i8] c"`at` split index (is " }>, align 1
@alloc_49b342258e20faddfe12440339703d6a = private unnamed_addr constant <{ ptr, [8 x i8], ptr, [8 x i8], ptr, [8 x i8] }> <{ ptr @alloc_250f17991e1eefae877ca9ec690d667b, [8 x i8] c"\15\00\00\00\00\00\00\00", ptr @alloc_07a8dfa99906a23b6593562204ab5272, [8 x i8] c"\17\00\00\00\00\00\00\00", ptr @alloc_bacb0500a8e518371fd52ddb8e3ff6e7, [8 x i8] c"\01\00\00\00\00\00\00\00" }>, align 8
@alloc_2c87b7943a9ecddc828646051a024b77 = private unnamed_addr constant <{ ptr, [16 x i8] }> <{ ptr @alloc_2dc1f9066482a29f16cd5b38832168cd, [16 x i8] c"l\00\00\00\00\00\00\00>\08\00\00\0D\00\00\00" }>, align 8
@alloc_ea57f57400c824483b5c5230769f8fad = private unnamed_addr constant <{ ptr, [16 x i8] }> <{ ptr @alloc_2dc1f9066482a29f16cd5b38832168cd, [16 x i8] c"l\00\00\00\00\00\00\00\C8\08\00\00\11\00\00\00" }>, align 8
@alloc_e873c9a97e8e44f67e8d3766fdac59f0 = private unnamed_addr constant <{ [6 x i8] }> <{ [6 x i8] c"Global" }>, align 1
@alloc_e703872a2c10cdc34127474aff6c4963 = private unnamed_addr constant <{ [9 x i8] }> <{ [9 x i8] c"SetValZST" }>, align 1
@alloc_82b6d848cfc80ab1d9a0aefd21242bca = private unnamed_addr constant <{ [15 x i8] }> <{ [15 x i8] c"TryReserveError" }>, align 1
@alloc_c735c82aaaacbc2e8a3c93175de1f58d = private unnamed_addr constant <{ [4 x i8] }> <{ [4 x i8] c"kind" }>, align 1
@vtable.c = private constant <{ ptr, [16 x i8], ptr }> <{ ptr @"_ZN4core3ptr64drop_in_place$LT$$RF$alloc..collections..TryReserveErrorKind$GT$17hb943e1041e1118a1E", [16 x i8] c"\08\00\00\00\00\00\00\00\08\00\00\00\00\00\00\00", ptr @"_ZN42_$LT$$RF$T$u20$as$u20$core..fmt..Debug$GT$3fmt17h3525879dc69536aeE" }>, align 8, !dbg !150
@alloc_a6c7dd7aa492c2630267989583a5c43b = private unnamed_addr constant <{ [10 x i8] }> <{ [10 x i8] c"AllocError" }>, align 1
@alloc_b9b5b438fddc1a9ac3c2652ae34d59e0 = private unnamed_addr constant <{ [6 x i8] }> <{ [6 x i8] c"layout" }>, align 1
@vtable.d = private constant <{ ptr, [16 x i8], ptr }> <{ ptr @"_ZN4core3ptr48drop_in_place$LT$core..alloc..layout..Layout$GT$17h40366a13cd7dfce8E", [16 x i8] c"\10\00\00\00\00\00\00\00\08\00\00\00\00\00\00\00", ptr @"_ZN64_$LT$core..alloc..layout..Layout$u20$as$u20$core..fmt..Debug$GT$3fmt17h710c88d4bb05476bE" }>, align 8, !dbg !247
@alloc_cf473b689ec9b095552d8d6273c13657 = private unnamed_addr constant <{ [14 x i8] }> <{ [14 x i8] c"non_exhaustive" }>, align 1
@vtable.e = private constant <{ ptr, [16 x i8], ptr }> <{ ptr @"_ZN4core3ptr33drop_in_place$LT$$RF$$LP$$RP$$GT$17h42411c55286b31a8E", [16 x i8] c"\08\00\00\00\00\00\00\00\08\00\00\00\00\00\00\00", ptr @"_ZN42_$LT$$RF$T$u20$as$u20$core..fmt..Debug$GT$3fmt17h48ab2cfcf08788adE" }>, align 8, !dbg !255
@alloc_c966fd153c036719e7d1550713127bf0 = private unnamed_addr constant <{ [16 x i8] }> <{ [16 x i8] c"CapacityOverflow" }>, align 1
@alloc_8c092c543c31c75ea0ddbfd3407361bc = private unnamed_addr constant <{ [8 x i8] }> <{ [8 x i8] c"NulError" }>, align 1
@vtable.f = private constant <{ ptr, [16 x i8], ptr }> <{ ptr @"_ZN4core3ptr26drop_in_place$LT$usize$GT$17h9af800b9ffc2209bE", [16 x i8] c"\08\00\00\00\00\00\00\00\08\00\00\00\00\00\00\00", ptr @"_ZN4core3fmt3num52_$LT$impl$u20$core..fmt..Debug$u20$for$u20$usize$GT$3fmt17hc0df83b4a7aeedffE" }>, align 8, !dbg !264
@vtable.g = private constant <{ ptr, [16 x i8], ptr }> <{ ptr @"_ZN4core3ptr50drop_in_place$LT$$RF$alloc..vec..Vec$LT$u8$GT$$GT$17h8a1c1afc14e91cc3E", [16 x i8] c"\08\00\00\00\00\00\00\00\08\00\00\00\00\00\00\00", ptr @"_ZN42_$LT$$RF$T$u20$as$u20$core..fmt..Debug$GT$3fmt17hca3fecd557984023E" }>, align 8, !dbg !272
@alloc_a13e8fc0a6880042d51602b8537474b5 = private unnamed_addr constant <{ [16 x i8] }> <{ [16 x i8] c"NotNulTerminated" }>, align 1
@alloc_4af9ea6bd86e597fca4c445911a6ff30 = private unnamed_addr constant <{ [11 x i8] }> <{ [11 x i8] c"InteriorNul" }>, align 1
@vtable.h = private constant <{ ptr, [16 x i8], ptr }> <{ ptr @"_ZN4core3ptr30drop_in_place$LT$$RF$usize$GT$17h9df263826f7fdbadE", [16 x i8] c"\08\00\00\00\00\00\00\00\08\00\00\00\00\00\00\00", ptr @"_ZN42_$LT$$RF$T$u20$as$u20$core..fmt..Debug$GT$3fmt17h2d36763529dcc5c8E" }>, align 8, !dbg !281
@alloc_77cb2fbc630e0a6db548f2c425431f8c = private unnamed_addr constant <{ [19 x i8] }> <{ [19 x i8] c"FromVecWithNulError" }>, align 1
@alloc_eb727971a8c0256e75ac27084e837dc2 = private unnamed_addr constant <{ [10 x i8] }> <{ [10 x i8] c"error_kind" }>, align 1
@vtable.i = private constant <{ ptr, [16 x i8], ptr }> <{ ptr @"_ZN4core3ptr65drop_in_place$LT$alloc..ffi..c_str..FromBytesWithNulErrorKind$GT$17he5de423ab36c6fddE", [16 x i8] c"\10\00\00\00\00\00\00\00\08\00\00\00\00\00\00\00", ptr @"_ZN81_$LT$alloc..ffi..c_str..FromBytesWithNulErrorKind$u20$as$u20$core..fmt..Debug$GT$3fmt17h71d4027fe13800b0E" }>, align 8, !dbg !290
@alloc_067cd0ecb808289752b17e63d2086487 = private unnamed_addr constant <{ [5 x i8] }> <{ [5 x i8] c"bytes" }>, align 1
@alloc_073efc19633283e27d64bdcc0e32bf21 = private unnamed_addr constant <{ [15 x i8] }> <{ [15 x i8] c"IntoStringError" }>, align 1
@alloc_1b49e3d41ebccbfcd0be63976b649f2c = private unnamed_addr constant <{ [5 x i8] }> <{ [5 x i8] c"inner" }>, align 1
@vtable.j = private constant <{ ptr, [16 x i8], ptr }> <{ ptr @"_ZN4core3ptr47drop_in_place$LT$alloc..ffi..c_str..CString$GT$17h1855343d3c26b10dE", [16 x i8] c"\10\00\00\00\00\00\00\00\08\00\00\00\00\00\00\00", ptr @"_ZN63_$LT$alloc..ffi..c_str..CString$u20$as$u20$core..fmt..Debug$GT$3fmt17hff8af2778d2a7e4fE" }>, align 8, !dbg !311
@alloc_8b598a7aaf99963d6d65bec852f36b67 = private unnamed_addr constant <{ [5 x i8] }> <{ [5 x i8] c"error" }>, align 1
@vtable.k = private constant <{ ptr, [16 x i8], ptr }> <{ ptr @"_ZN4core3ptr52drop_in_place$LT$$RF$core..str..error..Utf8Error$GT$17ha91a37f5545185bfE", [16 x i8] c"\08\00\00\00\00\00\00\00\08\00\00\00\00\00\00\00", ptr @"_ZN42_$LT$$RF$T$u20$as$u20$core..fmt..Debug$GT$3fmt17h48dacd3e93df9961E" }>, align 8, !dbg !326
@alloc_a2ba53d8e8e6c9b4cfaadee4afdf5070 = private unnamed_addr constant <{ [13 x i8] }> <{ [13 x i8] c"FromUtf8Error" }>, align 1
@vtable.l = private constant <{ ptr, [16 x i8], ptr }> <{ ptr @"_ZN4core3ptr46drop_in_place$LT$alloc..vec..Vec$LT$u8$GT$$GT$17h8b2112aa825e6ef9E", [16 x i8] c"\18\00\00\00\00\00\00\00\08\00\00\00\00\00\00\00", ptr @"_ZN65_$LT$alloc..vec..Vec$LT$T$C$A$GT$$u20$as$u20$core..fmt..Debug$GT$3fmt17hd393aa0156f5d7a0E" }>, align 8, !dbg !335
@alloc_c5aa50b55a127b9a5daf41c471ea2b31 = private unnamed_addr constant <{ [14 x i8] }> <{ [14 x i8] c"FromUtf16Error" }>, align 1

; <core::iter::adapters::map::Map<I,F> as core::iter::traits::iterator::Iterator>::fold
; Function Attrs: noredzone nounwind
define i64 @"_ZN102_$LT$core..iter..adapters..map..Map$LT$I$C$F$GT$$u20$as$u20$core..iter..traits..iterator..Iterator$GT$4fold17h6731b00e9f66dbe2E"(ptr %self.0, ptr %self.1, i64 %init) unnamed_addr #0 !dbg !375 {
start:
  %g.dbg.spill = alloca %"[closure@<usize as core::iter::traits::accum::Sum>::sum<core::iter::adapters::map::Map<core::slice::iter::Iter<'_, &str>, [closure@core::fmt::Arguments<'_>::estimated_capacity::{closure#0}]>>::{closure#0}]", align 1
  %init.dbg.spill = alloca i64, align 8
  %self.dbg.spill = alloca { ptr, ptr }, align 8
  %0 = getelementptr inbounds { ptr, ptr }, ptr %self.dbg.spill, i32 0, i32 0
  store ptr %self.0, ptr %0, align 8
  %1 = getelementptr inbounds { ptr, ptr }, ptr %self.dbg.spill, i32 0, i32 1
  store ptr %self.1, ptr %1, align 8
  call void @llvm.dbg.declare(metadata ptr %self.dbg.spill, metadata !416, metadata !DIExpression()), !dbg !423
  store i64 %init, ptr %init.dbg.spill, align 8
  call void @llvm.dbg.declare(metadata ptr %init.dbg.spill, metadata !417, metadata !DIExpression()), !dbg !424
  call void @llvm.dbg.declare(metadata ptr %g.dbg.spill, metadata !418, metadata !DIExpression()), !dbg !425
; call core::iter::adapters::map::map_fold
  call void @_ZN4core4iter8adapters3map8map_fold17h4082c70a4f2cebe2E() #17, !dbg !426
; call core::iter::traits::iterator::Iterator::fold
  %2 = call i64 @_ZN4core4iter6traits8iterator8Iterator4fold17hb4d475b31ccfa8e3E(ptr %self.0, ptr %self.1, i64 %init) #17, !dbg !427
  ret i64 %2, !dbg !428
}

; <core::iter::adapters::cloned::Cloned<I> as core::iter::traits::iterator::Iterator>::next
; Function Attrs: noredzone nounwind
define { i16, i16 } @"_ZN104_$LT$core..iter..adapters..cloned..Cloned$LT$I$GT$$u20$as$u20$core..iter..traits..iterator..Iterator$GT$4next17h236747a0ed2b2f8fE"(ptr align 8 %self) unnamed_addr #0 !dbg !429 {
start:
  %self.dbg.spill = alloca ptr, align 8
  store ptr %self, ptr %self.dbg.spill, align 8
  call void @llvm.dbg.declare(metadata ptr %self.dbg.spill, metadata !469, metadata !DIExpression()), !dbg !471
; call <core::slice::iter::Iter<T> as core::iter::traits::iterator::Iterator>::next
  %_2 = call align 2 ptr @"_ZN91_$LT$core..slice..iter..Iter$LT$T$GT$$u20$as$u20$core..iter..traits..iterator..Iterator$GT$4next17h5b5bc9ce8c7bc0b7E"(ptr align 8 %self) #17, !dbg !472
; call core::option::Option<&T>::cloned
  %0 = call { i16, i16 } @"_ZN4core6option19Option$LT$$RF$T$GT$6cloned17he042b838fdc0bc1dE"(ptr align 2 %_2) #17, !dbg !472
  %1 = extractvalue { i16, i16 } %0, 0, !dbg !472
  %2 = extractvalue { i16, i16 } %0, 1, !dbg !472
  %3 = insertvalue { i16, i16 } undef, i16 %1, 0, !dbg !473
  %4 = insertvalue { i16, i16 } %3, i16 %2, 1, !dbg !473
  ret { i16, i16 } %4, !dbg !473
}

; <core::ops::control_flow::ControlFlow<B,C> as core::ops::try_trait::FromResidual>::from_residual
; Function Attrs: inlinehint noredzone nounwind
define i32 @"_ZN104_$LT$core..ops..control_flow..ControlFlow$LT$B$C$C$GT$$u20$as$u20$core..ops..try_trait..FromResidual$GT$13from_residual17h7baf4f06fa1440fcE"(i32 %0) unnamed_addr #1 !dbg !474 {
start:
  %b.dbg.spill = alloca i32, align 4
  %1 = alloca i32, align 4
  %residual = alloca i32, align 4
  store i32 %0, ptr %residual, align 4
  call void @llvm.dbg.declare(metadata ptr %residual, metadata !518, metadata !DIExpression()), !dbg !521
  %b = load i32, ptr %residual, align 4, !dbg !522, !range !523, !noundef !45
  store i32 %b, ptr %b.dbg.spill, align 4, !dbg !522
  call void @llvm.dbg.declare(metadata ptr %b.dbg.spill, metadata !519, metadata !DIExpression()), !dbg !524
  store i32 %b, ptr %1, align 4, !dbg !525
  %2 = load i32, ptr %1, align 4, !dbg !526, !range !527, !noundef !45
  ret i32 %2, !dbg !526
}

; <core::iter::adapters::skip_while::SkipWhile<I,P> as core::iter::traits::iterator::Iterator>::next
; Function Attrs: inlinehint noredzone nounwind
define i32 @"_ZN115_$LT$core..iter..adapters..skip_while..SkipWhile$LT$I$C$P$GT$$u20$as$u20$core..iter..traits..iterator..Iterator$GT$4next17h4567bd3a028715ceE"(ptr align 8 %self) unnamed_addr #1 !dbg !528 {
start:
  %pred.dbg.spill = alloca ptr, align 8
  %flag.dbg.spill = alloca ptr, align 8
  %self.dbg.spill = alloca ptr, align 8
  store ptr %self, ptr %self.dbg.spill, align 8
  call void @llvm.dbg.declare(metadata ptr %self.dbg.spill, metadata !582, metadata !DIExpression()), !dbg !589
  %flag = getelementptr inbounds %"core::iter::adapters::skip_while::SkipWhile<core::iter::adapters::rev::Rev<core::str::iter::Chars<'_>>, [closure@/Users/yaw/.rustup/toolchains/nightly-aarch64-apple-darwin/lib/rustlib/src/rust/library/alloc/src/str.rs:414:35: 414:39]>", ptr %self, i32 0, i32 2, !dbg !590
  store ptr %flag, ptr %flag.dbg.spill, align 8, !dbg !590
  call void @llvm.dbg.declare(metadata ptr %flag.dbg.spill, metadata !583, metadata !DIExpression()), !dbg !591
  store ptr %self, ptr %pred.dbg.spill, align 8, !dbg !592
  call void @llvm.dbg.declare(metadata ptr %pred.dbg.spill, metadata !586, metadata !DIExpression()), !dbg !593
; call <core::iter::adapters::skip_while::SkipWhile<I,P> as core::iter::traits::iterator::Iterator>::next::check
  %0 = call { ptr, ptr } @"_ZN115_$LT$core..iter..adapters..skip_while..SkipWhile$LT$I$C$P$GT$$u20$as$u20$core..iter..traits..iterator..Iterator$GT$4next5check17h740395a9de9b7556E"(ptr align 1 %flag, ptr align 1 %self) #17, !dbg !594
  %_5.0 = extractvalue { ptr, ptr } %0, 0, !dbg !594
  %_5.1 = extractvalue { ptr, ptr } %0, 1, !dbg !594
; call <core::iter::adapters::rev::Rev<I> as core::iter::traits::iterator::Iterator>::find
  %1 = call i32 @"_ZN98_$LT$core..iter..adapters..rev..Rev$LT$I$GT$$u20$as$u20$core..iter..traits..iterator..Iterator$GT$4find17hbe1371b282d78156E"(ptr align 8 %self, ptr align 1 %_5.0, ptr align 1 %_5.1) #17, !dbg !595, !range !527
  ret i32 %1, !dbg !596
}

; <core::iter::adapters::skip_while::SkipWhile<I,P> as core::iter::traits::iterator::Iterator>::next
; Function Attrs: inlinehint noredzone nounwind
define i32 @"_ZN115_$LT$core..iter..adapters..skip_while..SkipWhile$LT$I$C$P$GT$$u20$as$u20$core..iter..traits..iterator..Iterator$GT$4next17h5c77ee3a77e52598E"(ptr align 8 %self) unnamed_addr #1 !dbg !597 {
start:
  %pred.dbg.spill = alloca ptr, align 8
  %flag.dbg.spill = alloca ptr, align 8
  %self.dbg.spill = alloca ptr, align 8
  store ptr %self, ptr %self.dbg.spill, align 8
  call void @llvm.dbg.declare(metadata ptr %self.dbg.spill, metadata !611, metadata !DIExpression()), !dbg !617
  %flag = getelementptr inbounds %"core::iter::adapters::skip_while::SkipWhile<core::str::iter::Chars<'_>, [closure@/Users/yaw/.rustup/toolchains/nightly-aarch64-apple-darwin/lib/rustlib/src/rust/library/alloc/src/str.rs:414:35: 414:39]>", ptr %self, i32 0, i32 2, !dbg !618
  store ptr %flag, ptr %flag.dbg.spill, align 8, !dbg !618
  call void @llvm.dbg.declare(metadata ptr %flag.dbg.spill, metadata !612, metadata !DIExpression()), !dbg !619
  store ptr %self, ptr %pred.dbg.spill, align 8, !dbg !620
  call void @llvm.dbg.declare(metadata ptr %pred.dbg.spill, metadata !614, metadata !DIExpression()), !dbg !621
; call <core::iter::adapters::skip_while::SkipWhile<I,P> as core::iter::traits::iterator::Iterator>::next::check
  %0 = call { ptr, ptr } @"_ZN115_$LT$core..iter..adapters..skip_while..SkipWhile$LT$I$C$P$GT$$u20$as$u20$core..iter..traits..iterator..Iterator$GT$4next5check17h82c86c3488a72399E"(ptr align 1 %flag, ptr align 1 %self) #17, !dbg !622
  %_5.0 = extractvalue { ptr, ptr } %0, 0, !dbg !622
  %_5.1 = extractvalue { ptr, ptr } %0, 1, !dbg !622
; call core::iter::traits::iterator::Iterator::find
  %1 = call i32 @_ZN4core4iter6traits8iterator8Iterator4find17h0cb5f0aac3ff5547E(ptr align 8 %self, ptr align 1 %_5.0, ptr align 1 %_5.1) #17, !dbg !623, !range !527
  ret i32 %1, !dbg !624
}

; <core::iter::adapters::skip_while::SkipWhile<I,P> as core::iter::traits::iterator::Iterator>::next::check
; Function Attrs: noredzone nounwind
define { ptr, ptr } @"_ZN115_$LT$core..iter..adapters..skip_while..SkipWhile$LT$I$C$P$GT$$u20$as$u20$core..iter..traits..iterator..Iterator$GT$4next5check17h740395a9de9b7556E"(ptr align 1 %flag, ptr align 1 %pred) unnamed_addr #0 !dbg !625 {
start:
  %pred.dbg.spill = alloca ptr, align 8
  %flag.dbg.spill = alloca ptr, align 8
  %0 = alloca { ptr, ptr }, align 8
  store ptr %flag, ptr %flag.dbg.spill, align 8
  call void @llvm.dbg.declare(metadata ptr %flag.dbg.spill, metadata !635, metadata !DIExpression()), !dbg !639
  store ptr %pred, ptr %pred.dbg.spill, align 8
  call void @llvm.dbg.declare(metadata ptr %pred.dbg.spill, metadata !636, metadata !DIExpression()), !dbg !640
  store ptr %flag, ptr %0, align 8, !dbg !641
  %1 = getelementptr inbounds { ptr, ptr }, ptr %0, i32 0, i32 1, !dbg !641
  store ptr %pred, ptr %1, align 8, !dbg !641
  %2 = getelementptr inbounds { ptr, ptr }, ptr %0, i32 0, i32 0, !dbg !642
  %3 = load ptr, ptr %2, align 8, !dbg !642, !nonnull !45, !align !643, !noundef !45
  %4 = getelementptr inbounds { ptr, ptr }, ptr %0, i32 0, i32 1, !dbg !642
  %5 = load ptr, ptr %4, align 8, !dbg !642, !nonnull !45, !align !643, !noundef !45
  %6 = insertvalue { ptr, ptr } undef, ptr %3, 0, !dbg !642
  %7 = insertvalue { ptr, ptr } %6, ptr %5, 1, !dbg !642
  ret { ptr, ptr } %7, !dbg !642
}

; <core::iter::adapters::skip_while::SkipWhile<I,P> as core::iter::traits::iterator::Iterator>::next::check
; Function Attrs: noredzone nounwind
define { ptr, ptr } @"_ZN115_$LT$core..iter..adapters..skip_while..SkipWhile$LT$I$C$P$GT$$u20$as$u20$core..iter..traits..iterator..Iterator$GT$4next5check17h82c86c3488a72399E"(ptr align 1 %flag, ptr align 1 %pred) unnamed_addr #0 !dbg !644 {
start:
  %pred.dbg.spill = alloca ptr, align 8
  %flag.dbg.spill = alloca ptr, align 8
  %0 = alloca { ptr, ptr }, align 8
  store ptr %flag, ptr %flag.dbg.spill, align 8
  call void @llvm.dbg.declare(metadata ptr %flag.dbg.spill, metadata !652, metadata !DIExpression()), !dbg !656
  store ptr %pred, ptr %pred.dbg.spill, align 8
  call void @llvm.dbg.declare(metadata ptr %pred.dbg.spill, metadata !653, metadata !DIExpression()), !dbg !657
  store ptr %flag, ptr %0, align 8, !dbg !658
  %1 = getelementptr inbounds { ptr, ptr }, ptr %0, i32 0, i32 1, !dbg !658
  store ptr %pred, ptr %1, align 8, !dbg !658
  %2 = getelementptr inbounds { ptr, ptr }, ptr %0, i32 0, i32 0, !dbg !659
  %3 = load ptr, ptr %2, align 8, !dbg !659, !nonnull !45, !align !643, !noundef !45
  %4 = getelementptr inbounds { ptr, ptr }, ptr %0, i32 0, i32 1, !dbg !659
  %5 = load ptr, ptr %4, align 8, !dbg !659, !nonnull !45, !align !643, !noundef !45
  %6 = insertvalue { ptr, ptr } undef, ptr %3, 0, !dbg !659
  %7 = insertvalue { ptr, ptr } %6, ptr %5, 1, !dbg !659
  ret { ptr, ptr } %7, !dbg !659
}

; <core::iter::adapters::skip_while::SkipWhile<I,P> as core::iter::traits::iterator::Iterator>::next::check::{{closure}}
; Function Attrs: inlinehint noredzone nounwind
define zeroext i1 @"_ZN115_$LT$core..iter..adapters..skip_while..SkipWhile$LT$I$C$P$GT$$u20$as$u20$core..iter..traits..iterator..Iterator$GT$4next5check28_$u7b$$u7b$closure$u7d$$u7d$17h6861385569cb6a98E"(ptr align 8 %_1, ptr align 4 %x) unnamed_addr #1 !dbg !660 {
start:
  %x.dbg.spill = alloca ptr, align 8
  %_1.dbg.spill = alloca ptr, align 8
  %_7 = alloca ptr, align 8
  %_3 = alloca i8, align 1
  %0 = alloca i8, align 1
  store ptr %_1, ptr %_1.dbg.spill, align 8
  call void @llvm.dbg.declare(metadata ptr %_1.dbg.spill, metadata !667, metadata !DIExpression(DW_OP_deref)), !dbg !669
  call void @llvm.dbg.declare(metadata ptr %_1.dbg.spill, metadata !668, metadata !DIExpression(DW_OP_deref, DW_OP_plus_uconst, 8)), !dbg !670
  store ptr %x, ptr %x.dbg.spill, align 8
  call void @llvm.dbg.declare(metadata ptr %x.dbg.spill, metadata !666, metadata !DIExpression()), !dbg !671
  %_8 = load ptr, ptr %_1, align 8, !dbg !672, !nonnull !45, !align !643, !noundef !45
  %1 = load i8, ptr %_8, align 1, !dbg !672, !range !673, !noundef !45
  %_4 = trunc i8 %1 to i1, !dbg !672
  br i1 %_4, label %bb1, label %bb2, !dbg !672

bb2:                                              ; preds = %start
  %2 = getelementptr inbounds { ptr, ptr }, ptr %_1, i32 0, i32 1, !dbg !674
  %_9 = load ptr, ptr %2, align 8, !dbg !674, !nonnull !45, !align !643, !noundef !45
  store ptr %x, ptr %_7, align 8, !dbg !674
  %3 = load ptr, ptr %_7, align 8, !dbg !674, !nonnull !45, !align !675, !noundef !45
; call alloc::str::<impl str>::to_lowercase::case_ignoreable_then_cased::{{closure}}
  %_6 = call zeroext i1 @"_ZN5alloc3str21_$LT$impl$u20$str$GT$12to_lowercase26case_ignoreable_then_cased28_$u7b$$u7b$closure$u7d$$u7d$17hb3211b0d5234fad3E"(ptr align 1 %_9, ptr align 4 %3) #17, !dbg !674
  %_5 = xor i1 %_6, true, !dbg !676
  %4 = zext i1 %_5 to i8, !dbg !672
  store i8 %4, ptr %_3, align 1, !dbg !672
  br label %bb3, !dbg !672

bb1:                                              ; preds = %start
  store i8 1, ptr %_3, align 1, !dbg !672
  br label %bb3, !dbg !672

bb3:                                              ; preds = %bb2, %bb1
  %5 = load i8, ptr %_3, align 1, !dbg !672, !range !673, !noundef !45
  %6 = trunc i8 %5 to i1, !dbg !672
  br i1 %6, label %bb5, label %bb6, !dbg !672

bb6:                                              ; preds = %bb3
  store i8 0, ptr %0, align 1, !dbg !677
  br label %bb7, !dbg !678

bb5:                                              ; preds = %bb3
  %_10 = load ptr, ptr %_1, align 8, !dbg !679, !nonnull !45, !align !643, !noundef !45
  store i8 1, ptr %_10, align 1, !dbg !679
  store i8 1, ptr %0, align 1, !dbg !680
  br label %bb7, !dbg !678

bb7:                                              ; preds = %bb6, %bb5
  %7 = load i8, ptr %0, align 1, !dbg !681, !range !673, !noundef !45
  %8 = trunc i8 %7 to i1, !dbg !681
  ret i1 %8, !dbg !681
}

; <core::iter::adapters::skip_while::SkipWhile<I,P> as core::iter::traits::iterator::Iterator>::next::check::{{closure}}
; Function Attrs: inlinehint noredzone nounwind
define zeroext i1 @"_ZN115_$LT$core..iter..adapters..skip_while..SkipWhile$LT$I$C$P$GT$$u20$as$u20$core..iter..traits..iterator..Iterator$GT$4next5check28_$u7b$$u7b$closure$u7d$$u7d$17hb307dce8a79ea034E"(ptr align 8 %_1, ptr align 4 %x) unnamed_addr #1 !dbg !682 {
start:
  %x.dbg.spill = alloca ptr, align 8
  %_1.dbg.spill = alloca ptr, align 8
  %_7 = alloca ptr, align 8
  %_3 = alloca i8, align 1
  %0 = alloca i8, align 1
  store ptr %_1, ptr %_1.dbg.spill, align 8
  call void @llvm.dbg.declare(metadata ptr %_1.dbg.spill, metadata !688, metadata !DIExpression(DW_OP_deref)), !dbg !690
  call void @llvm.dbg.declare(metadata ptr %_1.dbg.spill, metadata !689, metadata !DIExpression(DW_OP_deref, DW_OP_plus_uconst, 8)), !dbg !691
  store ptr %x, ptr %x.dbg.spill, align 8
  call void @llvm.dbg.declare(metadata ptr %x.dbg.spill, metadata !687, metadata !DIExpression()), !dbg !692
  %_8 = load ptr, ptr %_1, align 8, !dbg !693, !nonnull !45, !align !643, !noundef !45
  %1 = load i8, ptr %_8, align 1, !dbg !693, !range !673, !noundef !45
  %_4 = trunc i8 %1 to i1, !dbg !693
  br i1 %_4, label %bb1, label %bb2, !dbg !693

bb2:                                              ; preds = %start
  %2 = getelementptr inbounds { ptr, ptr }, ptr %_1, i32 0, i32 1, !dbg !694
  %_9 = load ptr, ptr %2, align 8, !dbg !694, !nonnull !45, !align !643, !noundef !45
  store ptr %x, ptr %_7, align 8, !dbg !694
  %3 = load ptr, ptr %_7, align 8, !dbg !694, !nonnull !45, !align !675, !noundef !45
; call alloc::str::<impl str>::to_lowercase::case_ignoreable_then_cased::{{closure}}
  %_6 = call zeroext i1 @"_ZN5alloc3str21_$LT$impl$u20$str$GT$12to_lowercase26case_ignoreable_then_cased28_$u7b$$u7b$closure$u7d$$u7d$17hb4b2b00fec2f862cE"(ptr align 1 %_9, ptr align 4 %3) #17, !dbg !694
  %_5 = xor i1 %_6, true, !dbg !695
  %4 = zext i1 %_5 to i8, !dbg !693
  store i8 %4, ptr %_3, align 1, !dbg !693
  br label %bb3, !dbg !693

bb1:                                              ; preds = %start
  store i8 1, ptr %_3, align 1, !dbg !693
  br label %bb3, !dbg !693

bb3:                                              ; preds = %bb2, %bb1
  %5 = load i8, ptr %_3, align 1, !dbg !693, !range !673, !noundef !45
  %6 = trunc i8 %5 to i1, !dbg !693
  br i1 %6, label %bb5, label %bb6, !dbg !693

bb6:                                              ; preds = %bb3
  store i8 0, ptr %0, align 1, !dbg !696
  br label %bb7, !dbg !697

bb5:                                              ; preds = %bb3
  %_10 = load ptr, ptr %_1, align 8, !dbg !698, !nonnull !45, !align !643, !noundef !45
  store i8 1, ptr %_10, align 1, !dbg !698
  store i8 1, ptr %0, align 1, !dbg !699
  br label %bb7, !dbg !697

bb7:                                              ; preds = %bb6, %bb5
  %7 = load i8, ptr %0, align 1, !dbg !700, !range !673, !noundef !45
  %8 = trunc i8 %7 to i1, !dbg !700
  ret i1 %8, !dbg !700
}

; <core::ptr::non_null::NonNull<T> as core::convert::From<core::ptr::unique::Unique<T>>>::from
; Function Attrs: inlinehint noredzone nounwind
define ptr @"_ZN119_$LT$core..ptr..non_null..NonNull$LT$T$GT$$u20$as$u20$core..convert..From$LT$core..ptr..unique..Unique$LT$T$GT$$GT$$GT$4from17ha4a5f23a1739fb8bE"(ptr %unique) unnamed_addr #1 !dbg !701 {
start:
  %unique.dbg.spill = alloca ptr, align 8
  store ptr %unique, ptr %unique.dbg.spill, align 8
  call void @llvm.dbg.declare(metadata ptr %unique.dbg.spill, metadata !707, metadata !DIExpression()), !dbg !708
; call core::ptr::unique::Unique<T>::as_ptr
  %_2 = call ptr @"_ZN4core3ptr6unique15Unique$LT$T$GT$6as_ptr17h6c7e501aa8d05bbeE"(ptr %unique) #17, !dbg !709
; call core::ptr::non_null::NonNull<T>::new_unchecked
  %0 = call ptr @"_ZN4core3ptr8non_null16NonNull$LT$T$GT$13new_unchecked17h9eb1d87c9d7b337eE"(ptr %_2) #17, !dbg !710
  ret ptr %0, !dbg !711
}

; <core::ptr::unique::Unique<T> as core::convert::From<core::ptr::non_null::NonNull<T>>>::from
; Function Attrs: inlinehint noredzone nounwind
define ptr @"_ZN119_$LT$core..ptr..unique..Unique$LT$T$GT$$u20$as$u20$core..convert..From$LT$core..ptr..non_null..NonNull$LT$T$GT$$GT$$GT$4from17h48b8596408a422faE"(ptr %pointer) unnamed_addr #1 !dbg !712 {
start:
  %pointer.dbg.spill = alloca ptr, align 8
  %0 = alloca ptr, align 8
  store ptr %pointer, ptr %pointer.dbg.spill, align 8
  call void @llvm.dbg.declare(metadata ptr %pointer.dbg.spill, metadata !732, metadata !DIExpression()), !dbg !733
  store ptr %pointer, ptr %0, align 8, !dbg !734
  %1 = load ptr, ptr %0, align 8, !dbg !735, !nonnull !45, !noundef !45
  ret ptr %1, !dbg !735
}

; <core::ptr::unique::Unique<T> as core::convert::From<core::ptr::non_null::NonNull<T>>>::from
; Function Attrs: inlinehint noredzone nounwind
define { ptr, i64 } @"_ZN119_$LT$core..ptr..unique..Unique$LT$T$GT$$u20$as$u20$core..convert..From$LT$core..ptr..non_null..NonNull$LT$T$GT$$GT$$GT$4from17h5a77d6d20903ef2aE"(ptr %pointer.0, i64 %pointer.1) unnamed_addr #1 !dbg !736 {
start:
  %pointer.dbg.spill = alloca { ptr, i64 }, align 8
  %0 = alloca { ptr, i64 }, align 8
  %1 = getelementptr inbounds { ptr, i64 }, ptr %pointer.dbg.spill, i32 0, i32 0
  store ptr %pointer.0, ptr %1, align 8
  %2 = getelementptr inbounds { ptr, i64 }, ptr %pointer.dbg.spill, i32 0, i32 1
  store i64 %pointer.1, ptr %2, align 8
  call void @llvm.dbg.declare(metadata ptr %pointer.dbg.spill, metadata !765, metadata !DIExpression()), !dbg !766
  %3 = getelementptr inbounds { ptr, i64 }, ptr %0, i32 0, i32 0, !dbg !767
  store ptr %pointer.0, ptr %3, align 8, !dbg !767
  %4 = getelementptr inbounds { ptr, i64 }, ptr %0, i32 0, i32 1, !dbg !767
  store i64 %pointer.1, ptr %4, align 8, !dbg !767
  %5 = getelementptr inbounds { ptr, i64 }, ptr %0, i32 0, i32 0, !dbg !768
  %6 = load ptr, ptr %5, align 8, !dbg !768, !nonnull !45, !noundef !45
  %7 = getelementptr inbounds { ptr, i64 }, ptr %0, i32 0, i32 1, !dbg !768
  %8 = load i64, ptr %7, align 8, !dbg !768, !noundef !45
  %9 = insertvalue { ptr, i64 } undef, ptr %6, 0, !dbg !768
  %10 = insertvalue { ptr, i64 } %9, i64 %8, 1, !dbg !768
  ret { ptr, i64 } %10, !dbg !768
}

; <core::ptr::unique::Unique<T> as core::convert::From<core::ptr::non_null::NonNull<T>>>::from
; Function Attrs: inlinehint noredzone nounwind
define ptr @"_ZN119_$LT$core..ptr..unique..Unique$LT$T$GT$$u20$as$u20$core..convert..From$LT$core..ptr..non_null..NonNull$LT$T$GT$$GT$$GT$4from17h6536788035efc0bdE"(ptr %pointer) unnamed_addr #1 !dbg !769 {
start:
  %pointer.dbg.spill = alloca ptr, align 8
  %0 = alloca ptr, align 8
  store ptr %pointer, ptr %pointer.dbg.spill, align 8
  call void @llvm.dbg.declare(metadata ptr %pointer.dbg.spill, metadata !773, metadata !DIExpression()), !dbg !774
  store ptr %pointer, ptr %0, align 8, !dbg !775
  %1 = load ptr, ptr %0, align 8, !dbg !776, !nonnull !45, !noundef !45
  ret ptr %1, !dbg !776
}

; <core::ptr::unique::Unique<T> as core::convert::From<core::ptr::non_null::NonNull<T>>>::from
; Function Attrs: inlinehint noredzone nounwind
define { ptr, i64 } @"_ZN119_$LT$core..ptr..unique..Unique$LT$T$GT$$u20$as$u20$core..convert..From$LT$core..ptr..non_null..NonNull$LT$T$GT$$GT$$GT$4from17h8dfa8cec0e925604E"(ptr %pointer.0, i64 %pointer.1) unnamed_addr #1 !dbg !777 {
start:
  %pointer.dbg.spill = alloca { ptr, i64 }, align 8
  %0 = alloca { ptr, i64 }, align 8
  %1 = getelementptr inbounds { ptr, i64 }, ptr %pointer.dbg.spill, i32 0, i32 0
  store ptr %pointer.0, ptr %1, align 8
  %2 = getelementptr inbounds { ptr, i64 }, ptr %pointer.dbg.spill, i32 0, i32 1
  store i64 %pointer.1, ptr %2, align 8
  call void @llvm.dbg.declare(metadata ptr %pointer.dbg.spill, metadata !793, metadata !DIExpression()), !dbg !794
  %3 = getelementptr inbounds { ptr, i64 }, ptr %0, i32 0, i32 0, !dbg !795
  store ptr %pointer.0, ptr %3, align 8, !dbg !795
  %4 = getelementptr inbounds { ptr, i64 }, ptr %0, i32 0, i32 1, !dbg !795
  store i64 %pointer.1, ptr %4, align 8, !dbg !795
  %5 = getelementptr inbounds { ptr, i64 }, ptr %0, i32 0, i32 0, !dbg !796
  %6 = load ptr, ptr %5, align 8, !dbg !796, !nonnull !45, !noundef !45
  %7 = getelementptr inbounds { ptr, i64 }, ptr %0, i32 0, i32 1, !dbg !796
  %8 = load i64, ptr %7, align 8, !dbg !796, !noundef !45
  %9 = insertvalue { ptr, i64 } undef, ptr %6, 0, !dbg !796
  %10 = insertvalue { ptr, i64 } %9, i64 %8, 1, !dbg !796
  ret { ptr, i64 } %10, !dbg !796
}

; <core::ptr::unique::Unique<T> as core::convert::From<core::ptr::non_null::NonNull<T>>>::from
; Function Attrs: inlinehint noredzone nounwind
define { ptr, i64 } @"_ZN119_$LT$core..ptr..unique..Unique$LT$T$GT$$u20$as$u20$core..convert..From$LT$core..ptr..non_null..NonNull$LT$T$GT$$GT$$GT$4from17ha1829cc479268ba9E"(ptr %pointer.0, i64 %pointer.1) unnamed_addr #1 !dbg !797 {
start:
  %pointer.dbg.spill = alloca { ptr, i64 }, align 8
  %0 = alloca { ptr, i64 }, align 8
  %1 = getelementptr inbounds { ptr, i64 }, ptr %pointer.dbg.spill, i32 0, i32 0
  store ptr %pointer.0, ptr %1, align 8
  %2 = getelementptr inbounds { ptr, i64 }, ptr %pointer.dbg.spill, i32 0, i32 1
  store i64 %pointer.1, ptr %2, align 8
  call void @llvm.dbg.declare(metadata ptr %pointer.dbg.spill, metadata !821, metadata !DIExpression()), !dbg !822
  %3 = getelementptr inbounds { ptr, i64 }, ptr %0, i32 0, i32 0, !dbg !823
  store ptr %pointer.0, ptr %3, align 8, !dbg !823
  %4 = getelementptr inbounds { ptr, i64 }, ptr %0, i32 0, i32 1, !dbg !823
  store i64 %pointer.1, ptr %4, align 8, !dbg !823
  %5 = getelementptr inbounds { ptr, i64 }, ptr %0, i32 0, i32 0, !dbg !824
  %6 = load ptr, ptr %5, align 8, !dbg !824, !nonnull !45, !noundef !45
  %7 = getelementptr inbounds { ptr, i64 }, ptr %0, i32 0, i32 1, !dbg !824
  %8 = load i64, ptr %7, align 8, !dbg !824, !noundef !45
  %9 = insertvalue { ptr, i64 } undef, ptr %6, 0, !dbg !824
  %10 = insertvalue { ptr, i64 } %9, i64 %8, 1, !dbg !824
  ret { ptr, i64 } %10, !dbg !824
}

; <core::ptr::unique::Unique<T> as core::convert::From<core::ptr::non_null::NonNull<T>>>::from
; Function Attrs: inlinehint noredzone nounwind
define { ptr, i64 } @"_ZN119_$LT$core..ptr..unique..Unique$LT$T$GT$$u20$as$u20$core..convert..From$LT$core..ptr..non_null..NonNull$LT$T$GT$$GT$$GT$4from17hbf2c858b77d1c5ebE"(ptr %pointer.0, i64 %pointer.1) unnamed_addr #1 !dbg !825 {
start:
  %pointer.dbg.spill = alloca { ptr, i64 }, align 8
  %0 = alloca { ptr, i64 }, align 8
  %1 = getelementptr inbounds { ptr, i64 }, ptr %pointer.dbg.spill, i32 0, i32 0
  store ptr %pointer.0, ptr %1, align 8
  %2 = getelementptr inbounds { ptr, i64 }, ptr %pointer.dbg.spill, i32 0, i32 1
  store i64 %pointer.1, ptr %2, align 8
  call void @llvm.dbg.declare(metadata ptr %pointer.dbg.spill, metadata !841, metadata !DIExpression()), !dbg !842
  %3 = getelementptr inbounds { ptr, i64 }, ptr %0, i32 0, i32 0, !dbg !843
  store ptr %pointer.0, ptr %3, align 8, !dbg !843
  %4 = getelementptr inbounds { ptr, i64 }, ptr %0, i32 0, i32 1, !dbg !843
  store i64 %pointer.1, ptr %4, align 8, !dbg !843
  %5 = getelementptr inbounds { ptr, i64 }, ptr %0, i32 0, i32 0, !dbg !844
  %6 = load ptr, ptr %5, align 8, !dbg !844, !nonnull !45, !noundef !45
  %7 = getelementptr inbounds { ptr, i64 }, ptr %0, i32 0, i32 1, !dbg !844
  %8 = load i64, ptr %7, align 8, !dbg !844, !noundef !45
  %9 = insertvalue { ptr, i64 } undef, ptr %6, 0, !dbg !844
  %10 = insertvalue { ptr, i64 } %9, i64 %8, 1, !dbg !844
  ret { ptr, i64 } %10, !dbg !844
}

; <core::result::Result<T,F> as core::ops::try_trait::FromResidual<core::result::Result<core::convert::Infallible,E>>>::from_residual
; Function Attrs: inlinehint noredzone nounwind
define { ptr, i64 } @"_ZN153_$LT$core..result..Result$LT$T$C$F$GT$$u20$as$u20$core..ops..try_trait..FromResidual$LT$core..result..Result$LT$core..convert..Infallible$C$E$GT$$GT$$GT$13from_residual17h1b03909c43de7f90E"(ptr align 8 %0) unnamed_addr #1 !dbg !845 {
start:
  %e.dbg.spill = alloca %"core::alloc::AllocError", align 1
  %residual.dbg.spill = alloca %"core::result::Result<core::convert::Infallible, core::alloc::AllocError>::Err", align 1
  %1 = alloca { ptr, i64 }, align 8
  call void @llvm.dbg.declare(metadata ptr %residual.dbg.spill, metadata !891, metadata !DIExpression()), !dbg !896
  call void @llvm.dbg.declare(metadata ptr %e.dbg.spill, metadata !892, metadata !DIExpression()), !dbg !897
  call void @llvm.dbg.declare(metadata ptr undef, metadata !898, metadata !DIExpression()), !dbg !907
  store ptr null, ptr %1, align 8, !dbg !909
  %2 = getelementptr inbounds { ptr, i64 }, ptr %1, i32 0, i32 0, !dbg !910
  %3 = load ptr, ptr %2, align 8, !dbg !910, !noundef !45
  %4 = getelementptr inbounds { ptr, i64 }, ptr %1, i32 0, i32 1, !dbg !910
  %5 = load i64, ptr %4, align 8, !dbg !910
  %6 = insertvalue { ptr, i64 } undef, ptr %3, 0, !dbg !910
  %7 = insertvalue { ptr, i64 } %6, i64 %5, 1, !dbg !910
  ret { ptr, i64 } %7, !dbg !910
}

; <core::result::Result<T,F> as core::ops::try_trait::FromResidual<core::result::Result<core::convert::Infallible,E>>>::from_residual
; Function Attrs: inlinehint noredzone nounwind
define void @"_ZN153_$LT$core..result..Result$LT$T$C$F$GT$$u20$as$u20$core..ops..try_trait..FromResidual$LT$core..result..Result$LT$core..convert..Infallible$C$E$GT$$GT$$GT$13from_residual17h73bf25d0b11c1868E"(ptr sret(%"core::result::Result<(core::alloc::layout::Layout, usize), core::alloc::layout::LayoutError>") %0, ptr align 8 %1) unnamed_addr #1 !dbg !911 {
start:
  %e.dbg.spill = alloca %"core::alloc::layout::LayoutError", align 1
  %residual.dbg.spill = alloca %"core::result::Result<core::convert::Infallible, core::alloc::layout::LayoutError>::Err", align 1
  call void @llvm.dbg.declare(metadata ptr %residual.dbg.spill, metadata !948, metadata !DIExpression()), !dbg !953
  call void @llvm.dbg.declare(metadata ptr %e.dbg.spill, metadata !949, metadata !DIExpression()), !dbg !954
  call void @llvm.dbg.declare(metadata ptr undef, metadata !955, metadata !DIExpression()), !dbg !962
  %2 = getelementptr inbounds %"core::result::Result<(core::alloc::layout::Layout, usize), core::alloc::layout::LayoutError>", ptr %0, i32 0, i32 1, !dbg !964
  store i64 0, ptr %2, align 8, !dbg !964
  ret void, !dbg !965
}

; <core::result::Result<T,F> as core::ops::try_trait::FromResidual<core::result::Result<core::convert::Infallible,E>>>::from_residual
; Function Attrs: inlinehint noredzone nounwind
define { i64, i64 } @"_ZN153_$LT$core..result..Result$LT$T$C$F$GT$$u20$as$u20$core..ops..try_trait..FromResidual$LT$core..result..Result$LT$core..convert..Infallible$C$E$GT$$GT$$GT$13from_residual17h8a0a8f0657d23512E"(i64 %0, i64 %1, ptr align 8 %2) unnamed_addr #1 !dbg !966 {
start:
  %t.dbg.spill.i = alloca { i64, i64 }, align 8
  %e.dbg.spill = alloca { i64, i64 }, align 8
  %3 = alloca { i64, i64 }, align 8
  %residual = alloca { i64, i64 }, align 8
  %4 = getelementptr inbounds { i64, i64 }, ptr %residual, i32 0, i32 0
  store i64 %0, ptr %4, align 8
  %5 = getelementptr inbounds { i64, i64 }, ptr %residual, i32 0, i32 1
  store i64 %1, ptr %5, align 8
  call void @llvm.dbg.declare(metadata ptr %residual, metadata !1002, metadata !DIExpression()), !dbg !1007
  %6 = getelementptr inbounds { i64, i64 }, ptr %residual, i32 0, i32 0, !dbg !1008
  %e.0 = load i64, ptr %6, align 8, !dbg !1008
  %7 = getelementptr inbounds { i64, i64 }, ptr %residual, i32 0, i32 1, !dbg !1008
  %e.1 = load i64, ptr %7, align 8, !dbg !1008, !range !1009, !noundef !45
  %8 = getelementptr inbounds { i64, i64 }, ptr %e.dbg.spill, i32 0, i32 0, !dbg !1008
  store i64 %e.0, ptr %8, align 8, !dbg !1008
  %9 = getelementptr inbounds { i64, i64 }, ptr %e.dbg.spill, i32 0, i32 1, !dbg !1008
  store i64 %e.1, ptr %9, align 8, !dbg !1008
  call void @llvm.dbg.declare(metadata ptr %e.dbg.spill, metadata !1003, metadata !DIExpression()), !dbg !1010
  store i64 %e.0, ptr %t.dbg.spill.i, align 8
  %10 = getelementptr inbounds { i64, i64 }, ptr %t.dbg.spill.i, i32 0, i32 1
  store i64 %e.1, ptr %10, align 8
  call void @llvm.dbg.declare(metadata ptr %t.dbg.spill.i, metadata !1011, metadata !DIExpression()), !dbg !1018
  %11 = insertvalue { i64, i64 } undef, i64 %e.0, 0, !dbg !1020
  %12 = insertvalue { i64, i64 } %11, i64 %e.1, 1, !dbg !1020
  %_3.0 = extractvalue { i64, i64 } %12, 0, !dbg !1021
  %_3.1 = extractvalue { i64, i64 } %12, 1, !dbg !1021
  %13 = getelementptr inbounds { i64, i64 }, ptr %3, i32 0, i32 0, !dbg !1022
  store i64 %_3.0, ptr %13, align 8, !dbg !1022
  %14 = getelementptr inbounds { i64, i64 }, ptr %3, i32 0, i32 1, !dbg !1022
  store i64 %_3.1, ptr %14, align 8, !dbg !1022
  %15 = getelementptr inbounds { i64, i64 }, ptr %3, i32 0, i32 0, !dbg !1023
  %16 = load i64, ptr %15, align 8, !dbg !1023
  %17 = getelementptr inbounds { i64, i64 }, ptr %3, i32 0, i32 1, !dbg !1023
  %18 = load i64, ptr %17, align 8, !dbg !1023, !range !1024, !noundef !45
  %19 = insertvalue { i64, i64 } undef, i64 %16, 0, !dbg !1023
  %20 = insertvalue { i64, i64 } %19, i64 %18, 1, !dbg !1023
  ret { i64, i64 } %20, !dbg !1023
}

; <core::result::Result<T,F> as core::ops::try_trait::FromResidual<core::result::Result<core::convert::Infallible,E>>>::from_residual
; Function Attrs: inlinehint noredzone nounwind
define void @"_ZN153_$LT$core..result..Result$LT$T$C$F$GT$$u20$as$u20$core..ops..try_trait..FromResidual$LT$core..result..Result$LT$core..convert..Infallible$C$E$GT$$GT$$GT$13from_residual17hcf0d5a0139af7265E"(ptr sret(%"core::result::Result<core::ptr::non_null::NonNull<[u8]>, collections::TryReserveError>") %0, i64 %1, i64 %2, ptr align 8 %3) unnamed_addr #1 !dbg !1025 {
start:
  %t.dbg.spill.i = alloca { i64, i64 }, align 8
  %e.dbg.spill = alloca { i64, i64 }, align 8
  %residual = alloca { i64, i64 }, align 8
  %4 = getelementptr inbounds { i64, i64 }, ptr %residual, i32 0, i32 0
  store i64 %1, ptr %4, align 8
  %5 = getelementptr inbounds { i64, i64 }, ptr %residual, i32 0, i32 1
  store i64 %2, ptr %5, align 8
  call void @llvm.dbg.declare(metadata ptr %residual, metadata !1043, metadata !DIExpression()), !dbg !1047
  %6 = getelementptr inbounds { i64, i64 }, ptr %residual, i32 0, i32 0, !dbg !1048
  %e.0 = load i64, ptr %6, align 8, !dbg !1048
  %7 = getelementptr inbounds { i64, i64 }, ptr %residual, i32 0, i32 1, !dbg !1048
  %e.1 = load i64, ptr %7, align 8, !dbg !1048, !range !1009, !noundef !45
  %8 = getelementptr inbounds { i64, i64 }, ptr %e.dbg.spill, i32 0, i32 0, !dbg !1048
  store i64 %e.0, ptr %8, align 8, !dbg !1048
  %9 = getelementptr inbounds { i64, i64 }, ptr %e.dbg.spill, i32 0, i32 1, !dbg !1048
  store i64 %e.1, ptr %9, align 8, !dbg !1048
  call void @llvm.dbg.declare(metadata ptr %e.dbg.spill, metadata !1044, metadata !DIExpression()), !dbg !1049
  store i64 %e.0, ptr %t.dbg.spill.i, align 8
  %10 = getelementptr inbounds { i64, i64 }, ptr %t.dbg.spill.i, i32 0, i32 1
  store i64 %e.1, ptr %10, align 8
  call void @llvm.dbg.declare(metadata ptr %t.dbg.spill.i, metadata !1011, metadata !DIExpression()), !dbg !1050
  %11 = insertvalue { i64, i64 } undef, i64 %e.0, 0, !dbg !1052
  %12 = insertvalue { i64, i64 } %11, i64 %e.1, 1, !dbg !1052
  %_3.0 = extractvalue { i64, i64 } %12, 0, !dbg !1053
  %_3.1 = extractvalue { i64, i64 } %12, 1, !dbg !1053
  %13 = getelementptr inbounds %"core::result::Result<core::ptr::non_null::NonNull<[u8]>, collections::TryReserveError>::Err", ptr %0, i32 0, i32 1, !dbg !1054
  %14 = getelementptr inbounds { i64, i64 }, ptr %13, i32 0, i32 0, !dbg !1054
  store i64 %_3.0, ptr %14, align 8, !dbg !1054
  %15 = getelementptr inbounds { i64, i64 }, ptr %13, i32 0, i32 1, !dbg !1054
  store i64 %_3.1, ptr %15, align 8, !dbg !1054
  store i64 1, ptr %0, align 8, !dbg !1054
  ret void, !dbg !1055
}

; <core::result::Result<T,F> as core::ops::try_trait::FromResidual<core::result::Result<core::convert::Infallible,E>>>::from_residual
; Function Attrs: inlinehint noredzone nounwind
define { i64, i64 } @"_ZN153_$LT$core..result..Result$LT$T$C$F$GT$$u20$as$u20$core..ops..try_trait..FromResidual$LT$core..result..Result$LT$core..convert..Infallible$C$E$GT$$GT$$GT$13from_residual17hd6f3d9742227c4e7E"(i64 %0, i64 %1, ptr align 8 %2) unnamed_addr #1 !dbg !1056 {
start:
  %e.dbg.spill = alloca { i64, i64 }, align 8
  %3 = alloca { i64, i64 }, align 8
  %residual = alloca { i64, i64 }, align 8
  %4 = getelementptr inbounds { i64, i64 }, ptr %residual, i32 0, i32 0
  store i64 %0, ptr %4, align 8
  %5 = getelementptr inbounds { i64, i64 }, ptr %residual, i32 0, i32 1
  store i64 %1, ptr %5, align 8
  call void @llvm.dbg.declare(metadata ptr %residual, metadata !1074, metadata !DIExpression()), !dbg !1078
  %6 = getelementptr inbounds { i64, i64 }, ptr %residual, i32 0, i32 0, !dbg !1079
  %e.0 = load i64, ptr %6, align 8, !dbg !1079
  %7 = getelementptr inbounds { i64, i64 }, ptr %residual, i32 0, i32 1, !dbg !1079
  %e.1 = load i64, ptr %7, align 8, !dbg !1079, !range !1009, !noundef !45
  %8 = getelementptr inbounds { i64, i64 }, ptr %e.dbg.spill, i32 0, i32 0, !dbg !1079
  store i64 %e.0, ptr %8, align 8, !dbg !1079
  %9 = getelementptr inbounds { i64, i64 }, ptr %e.dbg.spill, i32 0, i32 1, !dbg !1079
  store i64 %e.1, ptr %9, align 8, !dbg !1079
  call void @llvm.dbg.declare(metadata ptr %e.dbg.spill, metadata !1075, metadata !DIExpression()), !dbg !1080
; call <alloc::collections::TryReserveError as core::convert::From<alloc::collections::TryReserveErrorKind>>::from
  %10 = call { i64, i64 } @"_ZN122_$LT$alloc..collections..TryReserveError$u20$as$u20$core..convert..From$LT$alloc..collections..TryReserveErrorKind$GT$$GT$4from17hd6ef18c3114f3244E"(i64 %e.0, i64 %e.1) #17, !dbg !1081
  %_3.0 = extractvalue { i64, i64 } %10, 0, !dbg !1081
  %_3.1 = extractvalue { i64, i64 } %10, 1, !dbg !1081
  %11 = getelementptr inbounds { i64, i64 }, ptr %3, i32 0, i32 0, !dbg !1082
  store i64 %_3.0, ptr %11, align 8, !dbg !1082
  %12 = getelementptr inbounds { i64, i64 }, ptr %3, i32 0, i32 1, !dbg !1082
  store i64 %_3.1, ptr %12, align 8, !dbg !1082
  %13 = getelementptr inbounds { i64, i64 }, ptr %3, i32 0, i32 0, !dbg !1083
  %14 = load i64, ptr %13, align 8, !dbg !1083
  %15 = getelementptr inbounds { i64, i64 }, ptr %3, i32 0, i32 1, !dbg !1083
  %16 = load i64, ptr %15, align 8, !dbg !1083, !range !1024, !noundef !45
  %17 = insertvalue { i64, i64 } undef, i64 %14, 0, !dbg !1083
  %18 = insertvalue { i64, i64 } %17, i64 %16, 1, !dbg !1083
  ret { i64, i64 } %18, !dbg !1083
}

; <core::result::Result<T,F> as core::ops::try_trait::FromResidual<core::result::Result<core::convert::Infallible,E>>>::from_residual
; Function Attrs: inlinehint noredzone nounwind
define void @"_ZN153_$LT$core..result..Result$LT$T$C$F$GT$$u20$as$u20$core..ops..try_trait..FromResidual$LT$core..result..Result$LT$core..convert..Infallible$C$E$GT$$GT$$GT$13from_residual17heaf6fce254c61816E"(ptr sret(%"core::result::Result<core::ptr::non_null::NonNull<[u8]>, collections::TryReserveError>") %0, i64 %1, i64 %2, ptr align 8 %3) unnamed_addr #1 !dbg !1084 {
start:
  %e.dbg.spill = alloca { i64, i64 }, align 8
  %residual = alloca { i64, i64 }, align 8
  %4 = getelementptr inbounds { i64, i64 }, ptr %residual, i32 0, i32 0
  store i64 %1, ptr %4, align 8
  %5 = getelementptr inbounds { i64, i64 }, ptr %residual, i32 0, i32 1
  store i64 %2, ptr %5, align 8
  call void @llvm.dbg.declare(metadata ptr %residual, metadata !1088, metadata !DIExpression()), !dbg !1092
  %6 = getelementptr inbounds { i64, i64 }, ptr %residual, i32 0, i32 0, !dbg !1093
  %e.0 = load i64, ptr %6, align 8, !dbg !1093
  %7 = getelementptr inbounds { i64, i64 }, ptr %residual, i32 0, i32 1, !dbg !1093
  %e.1 = load i64, ptr %7, align 8, !dbg !1093, !range !1009, !noundef !45
  %8 = getelementptr inbounds { i64, i64 }, ptr %e.dbg.spill, i32 0, i32 0, !dbg !1093
  store i64 %e.0, ptr %8, align 8, !dbg !1093
  %9 = getelementptr inbounds { i64, i64 }, ptr %e.dbg.spill, i32 0, i32 1, !dbg !1093
  store i64 %e.1, ptr %9, align 8, !dbg !1093
  call void @llvm.dbg.declare(metadata ptr %e.dbg.spill, metadata !1089, metadata !DIExpression()), !dbg !1094
; call <alloc::collections::TryReserveError as core::convert::From<alloc::collections::TryReserveErrorKind>>::from
  %10 = call { i64, i64 } @"_ZN122_$LT$alloc..collections..TryReserveError$u20$as$u20$core..convert..From$LT$alloc..collections..TryReserveErrorKind$GT$$GT$4from17hd6ef18c3114f3244E"(i64 %e.0, i64 %e.1) #17, !dbg !1095
  %_3.0 = extractvalue { i64, i64 } %10, 0, !dbg !1095
  %_3.1 = extractvalue { i64, i64 } %10, 1, !dbg !1095
  %11 = getelementptr inbounds %"core::result::Result<core::ptr::non_null::NonNull<[u8]>, collections::TryReserveError>::Err", ptr %0, i32 0, i32 1, !dbg !1096
  %12 = getelementptr inbounds { i64, i64 }, ptr %11, i32 0, i32 0, !dbg !1096
  store i64 %_3.0, ptr %12, align 8, !dbg !1096
  %13 = getelementptr inbounds { i64, i64 }, ptr %11, i32 0, i32 1, !dbg !1096
  store i64 %_3.1, ptr %13, align 8, !dbg !1096
  store i64 1, ptr %0, align 8, !dbg !1096
  ret void, !dbg !1097
}

; <&T as core::fmt::Debug>::fmt
; Function Attrs: noredzone nounwind
define zeroext i1 @"_ZN42_$LT$$RF$T$u20$as$u20$core..fmt..Debug$GT$3fmt17h3525879dc69536aeE"(ptr align 8 %self, ptr align 8 %f) unnamed_addr #0 !dbg !1098 {
start:
  %f.dbg.spill = alloca ptr, align 8
  %self.dbg.spill = alloca ptr, align 8
  store ptr %self, ptr %self.dbg.spill, align 8
  call void @llvm.dbg.declare(metadata ptr %self.dbg.spill, metadata !1152, metadata !DIExpression()), !dbg !1156
  store ptr %f, ptr %f.dbg.spill, align 8
  call void @llvm.dbg.declare(metadata ptr %f.dbg.spill, metadata !1153, metadata !DIExpression()), !dbg !1157
  %_3 = load ptr, ptr %self, align 8, !dbg !1158, !nonnull !45, !align !1159, !noundef !45
; call <alloc::collections::TryReserveErrorKind as core::fmt::Debug>::fmt
  %0 = call zeroext i1 @"_ZN76_$LT$alloc..collections..TryReserveErrorKind$u20$as$u20$core..fmt..Debug$GT$3fmt17h96f06e6fa50bef9fE"(ptr align 8 %_3, ptr align 8 %f) #17, !dbg !1160
  ret i1 %0, !dbg !1161
}

; <&T as core::fmt::Debug>::fmt
; Function Attrs: noredzone nounwind
define zeroext i1 @"_ZN42_$LT$$RF$T$u20$as$u20$core..fmt..Debug$GT$3fmt17h48dacd3e93df9961E"(ptr align 8 %self, ptr align 8 %f) unnamed_addr #0 !dbg !1162 {
start:
  %f.dbg.spill = alloca ptr, align 8
  %self.dbg.spill = alloca ptr, align 8
  store ptr %self, ptr %self.dbg.spill, align 8
  call void @llvm.dbg.declare(metadata ptr %self.dbg.spill, metadata !1167, metadata !DIExpression()), !dbg !1171
  store ptr %f, ptr %f.dbg.spill, align 8
  call void @llvm.dbg.declare(metadata ptr %f.dbg.spill, metadata !1168, metadata !DIExpression()), !dbg !1172
  %_3 = load ptr, ptr %self, align 8, !dbg !1173, !nonnull !45, !align !1159, !noundef !45
; call <core::str::error::Utf8Error as core::fmt::Debug>::fmt
  %0 = call zeroext i1 @"_ZN64_$LT$core..str..error..Utf8Error$u20$as$u20$core..fmt..Debug$GT$3fmt17he8fc625818b35893E"(ptr align 8 %_3, ptr align 8 %f) #17, !dbg !1174
  ret i1 %0, !dbg !1175
}

; <&T as core::fmt::Debug>::fmt
; Function Attrs: noredzone nounwind
define zeroext i1 @"_ZN42_$LT$$RF$T$u20$as$u20$core..fmt..Debug$GT$3fmt17hca3fecd557984023E"(ptr align 8 %self, ptr align 8 %f) unnamed_addr #0 !dbg !1176 {
start:
  %f.dbg.spill = alloca ptr, align 8
  %self.dbg.spill = alloca ptr, align 8
  store ptr %self, ptr %self.dbg.spill, align 8
  call void @llvm.dbg.declare(metadata ptr %self.dbg.spill, metadata !1181, metadata !DIExpression()), !dbg !1185
  store ptr %f, ptr %f.dbg.spill, align 8
  call void @llvm.dbg.declare(metadata ptr %f.dbg.spill, metadata !1182, metadata !DIExpression()), !dbg !1186
  %_3 = load ptr, ptr %self, align 8, !dbg !1187, !nonnull !45, !align !1159, !noundef !45
; call <alloc::vec::Vec<T,A> as core::fmt::Debug>::fmt
  %0 = call zeroext i1 @"_ZN65_$LT$alloc..vec..Vec$LT$T$C$A$GT$$u20$as$u20$core..fmt..Debug$GT$3fmt17hd393aa0156f5d7a0E"(ptr align 8 %_3, ptr align 8 %f) #17, !dbg !1188
  ret i1 %0, !dbg !1189
}

; core::intrinsics::is_aligned_and_not_null
; Function Attrs: noredzone nounwind
define zeroext i1 @_ZN4core10intrinsics23is_aligned_and_not_null17h0189270e9eeaa4eaE(ptr %ptr) unnamed_addr #0 !dbg !1190 {
start:
  %ptr.dbg.spill = alloca ptr, align 8
  %0 = alloca i8, align 1
  store ptr %ptr, ptr %ptr.dbg.spill, align 8
  call void @llvm.dbg.declare(metadata ptr %ptr.dbg.spill, metadata !1197, metadata !DIExpression()), !dbg !1200
; call core::ptr::const_ptr::<impl *const T>::is_null
  %_3 = call zeroext i1 @"_ZN4core3ptr9const_ptr33_$LT$impl$u20$$BP$const$u20$T$GT$7is_null17he3b0d8532db41935E"(ptr %ptr) #17, !dbg !1201
  %_2 = xor i1 %_3, true, !dbg !1202
  br i1 %_2, label %bb2, label %bb1, !dbg !1202

bb1:                                              ; preds = %start
  store i8 0, ptr %0, align 1, !dbg !1202
  br label %bb3, !dbg !1202

bb2:                                              ; preds = %start
; call core::ptr::const_ptr::<impl *const T>::is_aligned
  %_4 = call zeroext i1 @"_ZN4core3ptr9const_ptr33_$LT$impl$u20$$BP$const$u20$T$GT$10is_aligned17haee83d31f1c0c2faE"(ptr %ptr) #17, !dbg !1203
  %1 = zext i1 %_4 to i8, !dbg !1202
  store i8 %1, ptr %0, align 1, !dbg !1202
  br label %bb3, !dbg !1202

bb3:                                              ; preds = %bb1, %bb2
  %2 = load i8, ptr %0, align 1, !dbg !1204, !range !673, !noundef !45
  %3 = trunc i8 %2 to i1, !dbg !1204
  ret i1 %3, !dbg !1204
}

; core::intrinsics::is_aligned_and_not_null
; Function Attrs: noredzone nounwind
define zeroext i1 @_ZN4core10intrinsics23is_aligned_and_not_null17h87cab91c3f15e57bE(ptr %ptr) unnamed_addr #0 !dbg !1205 {
start:
  %ptr.dbg.spill = alloca ptr, align 8
  %0 = alloca i8, align 1
  store ptr %ptr, ptr %ptr.dbg.spill, align 8
  call void @llvm.dbg.declare(metadata ptr %ptr.dbg.spill, metadata !1210, metadata !DIExpression()), !dbg !1213
; call core::ptr::const_ptr::<impl *const T>::is_null
  %_3 = call zeroext i1 @"_ZN4core3ptr9const_ptr33_$LT$impl$u20$$BP$const$u20$T$GT$7is_null17hdaa273b9fa89c3ccE"(ptr %ptr) #17, !dbg !1214
  %_2 = xor i1 %_3, true, !dbg !1215
  br i1 %_2, label %bb2, label %bb1, !dbg !1215

bb1:                                              ; preds = %start
  store i8 0, ptr %0, align 1, !dbg !1215
  br label %bb3, !dbg !1215

bb2:                                              ; preds = %start
; call core::ptr::const_ptr::<impl *const T>::is_aligned
  %_4 = call zeroext i1 @"_ZN4core3ptr9const_ptr33_$LT$impl$u20$$BP$const$u20$T$GT$10is_aligned17hf4183850a830a90aE"(ptr %ptr) #17, !dbg !1216
  %1 = zext i1 %_4 to i8, !dbg !1215
  store i8 %1, ptr %0, align 1, !dbg !1215
  br label %bb3, !dbg !1215

bb3:                                              ; preds = %bb1, %bb2
  %2 = load i8, ptr %0, align 1, !dbg !1217, !range !673, !noundef !45
  %3 = trunc i8 %2 to i1, !dbg !1217
  ret i1 %3, !dbg !1217
}

; core::intrinsics::is_aligned_and_not_null
; Function Attrs: noredzone nounwind
define zeroext i1 @_ZN4core10intrinsics23is_aligned_and_not_null17h93e02132c34304b2E(ptr %ptr) unnamed_addr #0 !dbg !1218 {
start:
  %ptr.dbg.spill = alloca ptr, align 8
  %0 = alloca i8, align 1
  store ptr %ptr, ptr %ptr.dbg.spill, align 8
  call void @llvm.dbg.declare(metadata ptr %ptr.dbg.spill, metadata !1223, metadata !DIExpression()), !dbg !1226
; call core::ptr::const_ptr::<impl *const T>::is_null
  %_3 = call zeroext i1 @"_ZN4core3ptr9const_ptr33_$LT$impl$u20$$BP$const$u20$T$GT$7is_null17hc241c24205100b20E"(ptr %ptr) #17, !dbg !1227
  %_2 = xor i1 %_3, true, !dbg !1228
  br i1 %_2, label %bb2, label %bb1, !dbg !1228

bb1:                                              ; preds = %start
  store i8 0, ptr %0, align 1, !dbg !1228
  br label %bb3, !dbg !1228

bb2:                                              ; preds = %start
; call core::ptr::const_ptr::<impl *const T>::is_aligned
  %_4 = call zeroext i1 @"_ZN4core3ptr9const_ptr33_$LT$impl$u20$$BP$const$u20$T$GT$10is_aligned17h851c7269c18c637eE"(ptr %ptr) #17, !dbg !1229
  %1 = zext i1 %_4 to i8, !dbg !1228
  store i8 %1, ptr %0, align 1, !dbg !1228
  br label %bb3, !dbg !1228

bb3:                                              ; preds = %bb1, %bb2
  %2 = load i8, ptr %0, align 1, !dbg !1230, !range !673, !noundef !45
  %3 = trunc i8 %2 to i1, !dbg !1230
  ret i1 %3, !dbg !1230
}

; core::intrinsics::is_aligned_and_not_null
; Function Attrs: noredzone nounwind
define zeroext i1 @_ZN4core10intrinsics23is_aligned_and_not_null17hb8a5e17d810b5ea4E(ptr %ptr) unnamed_addr #0 !dbg !1231 {
start:
  %ptr.dbg.spill = alloca ptr, align 8
  %0 = alloca i8, align 1
  store ptr %ptr, ptr %ptr.dbg.spill, align 8
  call void @llvm.dbg.declare(metadata ptr %ptr.dbg.spill, metadata !1236, metadata !DIExpression()), !dbg !1239
; call core::ptr::const_ptr::<impl *const T>::is_null
  %_3 = call zeroext i1 @"_ZN4core3ptr9const_ptr33_$LT$impl$u20$$BP$const$u20$T$GT$7is_null17hbce60e723f328289E"(ptr %ptr) #17, !dbg !1240
  %_2 = xor i1 %_3, true, !dbg !1241
  br i1 %_2, label %bb2, label %bb1, !dbg !1241

bb1:                                              ; preds = %start
  store i8 0, ptr %0, align 1, !dbg !1241
  br label %bb3, !dbg !1241

bb2:                                              ; preds = %start
; call core::ptr::const_ptr::<impl *const T>::is_aligned
  %_4 = call zeroext i1 @"_ZN4core3ptr9const_ptr33_$LT$impl$u20$$BP$const$u20$T$GT$10is_aligned17hf574e85fa51892e7E"(ptr %ptr) #17, !dbg !1242
  %1 = zext i1 %_4 to i8, !dbg !1241
  store i8 %1, ptr %0, align 1, !dbg !1241
  br label %bb3, !dbg !1241

bb3:                                              ; preds = %bb1, %bb2
  %2 = load i8, ptr %0, align 1, !dbg !1243, !range !673, !noundef !45
  %3 = trunc i8 %2 to i1, !dbg !1243
  ret i1 %3, !dbg !1243
}

; core::intrinsics::is_aligned_and_not_null
; Function Attrs: noredzone nounwind
define zeroext i1 @_ZN4core10intrinsics23is_aligned_and_not_null17hd6978d6dcad3c904E(ptr %ptr) unnamed_addr #0 !dbg !1244 {
start:
  %ptr.dbg.spill = alloca ptr, align 8
  %0 = alloca i8, align 1
  store ptr %ptr, ptr %ptr.dbg.spill, align 8
  call void @llvm.dbg.declare(metadata ptr %ptr.dbg.spill, metadata !1249, metadata !DIExpression()), !dbg !1252
; call core::ptr::const_ptr::<impl *const T>::is_null
  %_3 = call zeroext i1 @"_ZN4core3ptr9const_ptr33_$LT$impl$u20$$BP$const$u20$T$GT$7is_null17hcc8584ea6a3199b6E"(ptr %ptr) #17, !dbg !1253
  %_2 = xor i1 %_3, true, !dbg !1254
  br i1 %_2, label %bb2, label %bb1, !dbg !1254

bb1:                                              ; preds = %start
  store i8 0, ptr %0, align 1, !dbg !1254
  br label %bb3, !dbg !1254

bb2:                                              ; preds = %start
; call core::ptr::const_ptr::<impl *const T>::is_aligned
  %_4 = call zeroext i1 @"_ZN4core3ptr9const_ptr33_$LT$impl$u20$$BP$const$u20$T$GT$10is_aligned17h9423dce315c1306eE"(ptr %ptr) #17, !dbg !1255
  %1 = zext i1 %_4 to i8, !dbg !1254
  store i8 %1, ptr %0, align 1, !dbg !1254
  br label %bb3, !dbg !1254

bb3:                                              ; preds = %bb1, %bb2
  %2 = load i8, ptr %0, align 1, !dbg !1256, !range !673, !noundef !45
  %3 = trunc i8 %2 to i1, !dbg !1256
  ret i1 %3, !dbg !1256
}

; core::intrinsics::is_aligned_and_not_null
; Function Attrs: noredzone nounwind
define zeroext i1 @_ZN4core10intrinsics23is_aligned_and_not_null17hdcee5023180a3051E(ptr %ptr) unnamed_addr #0 !dbg !1257 {
start:
  %ptr.dbg.spill = alloca ptr, align 8
  %0 = alloca i8, align 1
  store ptr %ptr, ptr %ptr.dbg.spill, align 8
  call void @llvm.dbg.declare(metadata ptr %ptr.dbg.spill, metadata !1262, metadata !DIExpression()), !dbg !1265
; call core::ptr::const_ptr::<impl *const T>::is_null
  %_3 = call zeroext i1 @"_ZN4core3ptr9const_ptr33_$LT$impl$u20$$BP$const$u20$T$GT$7is_null17h2b08a9d8a36f86a9E"(ptr %ptr) #17, !dbg !1266
  %_2 = xor i1 %_3, true, !dbg !1267
  br i1 %_2, label %bb2, label %bb1, !dbg !1267

bb1:                                              ; preds = %start
  store i8 0, ptr %0, align 1, !dbg !1267
  br label %bb3, !dbg !1267

bb2:                                              ; preds = %start
; call core::ptr::const_ptr::<impl *const T>::is_aligned
  %_4 = call zeroext i1 @"_ZN4core3ptr9const_ptr33_$LT$impl$u20$$BP$const$u20$T$GT$10is_aligned17h48803f580c0446d4E"(ptr %ptr) #17, !dbg !1268
  %1 = zext i1 %_4 to i8, !dbg !1267
  store i8 %1, ptr %0, align 1, !dbg !1267
  br label %bb3, !dbg !1267

bb3:                                              ; preds = %bb1, %bb2
  %2 = load i8, ptr %0, align 1, !dbg !1269, !range !673, !noundef !45
  %3 = trunc i8 %2 to i1, !dbg !1269
  ret i1 %3, !dbg !1269
}

; core::intrinsics::is_aligned_and_not_null
; Function Attrs: noredzone nounwind
define zeroext i1 @_ZN4core10intrinsics23is_aligned_and_not_null17hedbc77d5634e60acE(ptr %ptr) unnamed_addr #0 !dbg !1270 {
start:
  %ptr.dbg.spill = alloca ptr, align 8
  %0 = alloca i8, align 1
  store ptr %ptr, ptr %ptr.dbg.spill, align 8
  call void @llvm.dbg.declare(metadata ptr %ptr.dbg.spill, metadata !1275, metadata !DIExpression()), !dbg !1278
; call core::ptr::const_ptr::<impl *const T>::is_null
  %_3 = call zeroext i1 @"_ZN4core3ptr9const_ptr33_$LT$impl$u20$$BP$const$u20$T$GT$7is_null17h1b460fa366e2e140E"(ptr %ptr) #17, !dbg !1279
  %_2 = xor i1 %_3, true, !dbg !1280
  br i1 %_2, label %bb2, label %bb1, !dbg !1280

bb1:                                              ; preds = %start
  store i8 0, ptr %0, align 1, !dbg !1280
  br label %bb3, !dbg !1280

bb2:                                              ; preds = %start
; call core::ptr::const_ptr::<impl *const T>::is_aligned
  %_4 = call zeroext i1 @"_ZN4core3ptr9const_ptr33_$LT$impl$u20$$BP$const$u20$T$GT$10is_aligned17hd8077218c9a74275E"(ptr %ptr) #17, !dbg !1281
  %1 = zext i1 %_4 to i8, !dbg !1280
  store i8 %1, ptr %0, align 1, !dbg !1280
  br label %bb3, !dbg !1280

bb3:                                              ; preds = %bb1, %bb2
  %2 = load i8, ptr %0, align 1, !dbg !1282, !range !673, !noundef !45
  %3 = trunc i8 %2 to i1, !dbg !1282
  ret i1 %3, !dbg !1282
}

; core::intrinsics::is_valid_allocation_size
; Function Attrs: noredzone nounwind
define zeroext i1 @_ZN4core10intrinsics24is_valid_allocation_size17h0e1d3c87edc4155dE(i64 %len) unnamed_addr #0 !dbg !1283 {
start:
  %max_len.dbg.spill = alloca i64, align 8
  %len.dbg.spill = alloca i64, align 8
  store i64 %len, ptr %len.dbg.spill, align 8
  call void @llvm.dbg.declare(metadata ptr %len.dbg.spill, metadata !1287, metadata !DIExpression()), !dbg !1290
  store i64 9223372036854775807, ptr %max_len.dbg.spill, align 8, !dbg !1291
  call void @llvm.dbg.declare(metadata ptr %max_len.dbg.spill, metadata !1288, metadata !DIExpression()), !dbg !1292
  %0 = icmp ule i64 %len, 9223372036854775807, !dbg !1293
  ret i1 %0, !dbg !1294
}

; core::intrinsics::is_valid_allocation_size
; Function Attrs: noredzone nounwind
define zeroext i1 @_ZN4core10intrinsics24is_valid_allocation_size17ha2af378f09d1ecedE(i64 %len) unnamed_addr #0 !dbg !1295 {
start:
  %max_len.dbg.spill = alloca i64, align 8
  %len.dbg.spill = alloca i64, align 8
  store i64 %len, ptr %len.dbg.spill, align 8
  call void @llvm.dbg.declare(metadata ptr %len.dbg.spill, metadata !1297, metadata !DIExpression()), !dbg !1300
  store i64 9223372036854775807, ptr %max_len.dbg.spill, align 8, !dbg !1301
  call void @llvm.dbg.declare(metadata ptr %max_len.dbg.spill, metadata !1298, metadata !DIExpression()), !dbg !1302
  %0 = icmp ule i64 %len, 9223372036854775807, !dbg !1303
  ret i1 %0, !dbg !1304
}

; core::intrinsics::copy
; Function Attrs: inlinehint noredzone nounwind
define void @_ZN4core10intrinsics4copy17h6fea0d8c69cb5207E(ptr %src, ptr %dst, i64 %count) unnamed_addr #1 !dbg !1305 {
start:
  %dst.dbg.spill.i = alloca ptr, align 8
  %src.dbg.spill.i = alloca ptr, align 8
  %_4.i = alloca i8, align 1
  %count.dbg.spill = alloca i64, align 8
  %dst.dbg.spill = alloca ptr, align 8
  %src.dbg.spill = alloca ptr, align 8
  %_5 = alloca { ptr, ptr }, align 8
  store ptr %src, ptr %src.dbg.spill, align 8
  call void @llvm.dbg.declare(metadata ptr %src.dbg.spill, metadata !1310, metadata !DIExpression()), !dbg !1313
  store ptr %dst, ptr %dst.dbg.spill, align 8
  call void @llvm.dbg.declare(metadata ptr %dst.dbg.spill, metadata !1311, metadata !DIExpression()), !dbg !1314
  store i64 %count, ptr %count.dbg.spill, align 8
  call void @llvm.dbg.declare(metadata ptr %count.dbg.spill, metadata !1312, metadata !DIExpression()), !dbg !1315
  store ptr %src, ptr %_5, align 8, !dbg !1316
  %0 = getelementptr inbounds { ptr, ptr }, ptr %_5, i32 0, i32 1, !dbg !1316
  store ptr %dst, ptr %0, align 8, !dbg !1316
  %1 = load ptr, ptr %_5, align 8, !dbg !1316, !noundef !45
  %2 = getelementptr inbounds { ptr, ptr }, ptr %_5, i32 0, i32 1, !dbg !1316
  %3 = load ptr, ptr %2, align 8, !dbg !1316, !noundef !45
  store ptr %1, ptr %src.dbg.spill.i, align 8
  call void @llvm.dbg.declare(metadata ptr %src.dbg.spill.i, metadata !1317, metadata !DIExpression()), !dbg !1324
  store ptr %3, ptr %dst.dbg.spill.i, align 8
  call void @llvm.dbg.declare(metadata ptr %dst.dbg.spill.i, metadata !1323, metadata !DIExpression()), !dbg !1324
; call core::intrinsics::is_aligned_and_not_null
  %_5.i = call zeroext i1 @_ZN4core10intrinsics23is_aligned_and_not_null17h8639f8001f0eeb5aE(ptr %1) #17, !dbg !1326
  br i1 %_5.i, label %bb2.i, label %bb1.i, !dbg !1326

bb1.i:                                            ; preds = %start
  store i8 0, ptr %_4.i, align 1, !dbg !1326
  br label %bb3.i, !dbg !1326

bb2.i:                                            ; preds = %start
; call core::intrinsics::is_aligned_and_not_null
  %_6.i = call zeroext i1 @_ZN4core10intrinsics23is_aligned_and_not_null17h8639f8001f0eeb5aE(ptr %3) #17, !dbg !1327
  %4 = zext i1 %_6.i to i8, !dbg !1326
  store i8 %4, ptr %_4.i, align 1, !dbg !1326
  br label %bb3.i, !dbg !1326

bb3.i:                                            ; preds = %bb2.i, %bb1.i
  %5 = load i8, ptr %_4.i, align 1, !dbg !1328, !range !673, !noundef !45
  %6 = trunc i8 %5 to i1, !dbg !1328
  %_3.i = xor i1 %6, true, !dbg !1328
  br i1 %_3.i, label %bb6.i, label %_ZN4core10intrinsics4copy7runtime17hddfc2b2891de0632E.exit, !dbg !1328

bb6.i:                                            ; preds = %bb3.i
; call core::panicking::panic_nounwind
  call void @_ZN4core9panicking14panic_nounwind17h5e7e5c0cee2d3924E(ptr align 1 @alloc_a1d063fc56d08794b1bf303ec0d8a16b, i64 112) #18, !dbg !1329
  unreachable, !dbg !1329

_ZN4core10intrinsics4copy7runtime17hddfc2b2891de0632E.exit: ; preds = %bb3.i
  %7 = mul i64 1, %count, !dbg !1330
  call void @llvm.memmove.p0.p0.i64(ptr align 1 %dst, ptr align 1 %src, i64 %7, i1 false), !dbg !1330
  ret void, !dbg !1331
}

; core::any::TypeId::of
; Function Attrs: noredzone nounwind
define i64 @_ZN4core3any6TypeId2of17haa644bb0c23b4121E() unnamed_addr #0 !dbg !1332 {
start:
  %0 = alloca i64, align 8
  %1 = alloca i64, align 8
  store i64 7787647907106037437, ptr %0, align 8, !dbg !1342
  %_1 = load i64, ptr %0, align 8, !dbg !1342, !noundef !45
  store i64 %_1, ptr %1, align 8, !dbg !1343
  %2 = load i64, ptr %1, align 8, !dbg !1344, !noundef !45
  ret i64 %2, !dbg !1344
}

; core::any::TypeId::of
; Function Attrs: noredzone nounwind
define i64 @_ZN4core3any6TypeId2of17hc5927e1264113188E() unnamed_addr #0 !dbg !1345 {
start:
  %0 = alloca i64, align 8
  %1 = alloca i64, align 8
  store i64 -7678071482048903663, ptr %0, align 8, !dbg !1346
  %_1 = load i64, ptr %0, align 8, !dbg !1346, !noundef !45
  store i64 %_1, ptr %1, align 8, !dbg !1347
  %2 = load i64, ptr %1, align 8, !dbg !1348, !noundef !45
  ret i64 %2, !dbg !1348
}

; core::cmp::Ord::max
; Function Attrs: inlinehint noredzone nounwind
define i64 @_ZN4core3cmp3Ord3max17h1cf295d047a72e91E(i64 %self, i64 %other) unnamed_addr #1 !dbg !1349 {
start:
  %other.dbg.spill = alloca i64, align 8
  %self.dbg.spill = alloca i64, align 8
  store i64 %self, ptr %self.dbg.spill, align 8
  call void @llvm.dbg.declare(metadata ptr %self.dbg.spill, metadata !1355, metadata !DIExpression()), !dbg !1359
  store i64 %other, ptr %other.dbg.spill, align 8
  call void @llvm.dbg.declare(metadata ptr %other.dbg.spill, metadata !1356, metadata !DIExpression()), !dbg !1360
; call core::cmp::max_by
  %0 = call i64 @_ZN4core3cmp6max_by17h301efbe0d394c258E(i64 %self, i64 %other) #17, !dbg !1361, !range !1362
  ret i64 %0, !dbg !1363
}

; core::cmp::max
; Function Attrs: inlinehint noredzone nounwind
define i64 @_ZN4core3cmp3max17ha1686a90d4959293E(i64 %v1, i64 %v2) unnamed_addr #1 !dbg !1364 {
start:
  %v2.dbg.spill = alloca i64, align 8
  %v1.dbg.spill = alloca i64, align 8
  store i64 %v1, ptr %v1.dbg.spill, align 8
  call void @llvm.dbg.declare(metadata ptr %v1.dbg.spill, metadata !1366, metadata !DIExpression()), !dbg !1370
  store i64 %v2, ptr %v2.dbg.spill, align 8
  call void @llvm.dbg.declare(metadata ptr %v2.dbg.spill, metadata !1367, metadata !DIExpression()), !dbg !1371
; call core::cmp::Ord::max
  %0 = call i64 @_ZN4core3cmp3Ord3max17h1cf295d047a72e91E(i64 %v1, i64 %v2) #17, !dbg !1372, !range !1362
  ret i64 %0, !dbg !1373
}

; core::cmp::impls::<impl core::cmp::Ord for usize>::cmp
; Function Attrs: inlinehint noredzone nounwind
define internal i8 @"_ZN4core3cmp5impls50_$LT$impl$u20$core..cmp..Ord$u20$for$u20$usize$GT$3cmp17h7b283cdbd8a6d95bE"(ptr align 8 %self, ptr align 8 %other) unnamed_addr #1 !dbg !1374 {
start:
  %other.dbg.spill = alloca ptr, align 8
  %self.dbg.spill = alloca ptr, align 8
  %0 = alloca i8, align 1
  store ptr %self, ptr %self.dbg.spill, align 8
  call void @llvm.dbg.declare(metadata ptr %self.dbg.spill, metadata !1380, metadata !DIExpression()), !dbg !1382
  store ptr %other, ptr %other.dbg.spill, align 8
  call void @llvm.dbg.declare(metadata ptr %other.dbg.spill, metadata !1381, metadata !DIExpression()), !dbg !1383
  %_4 = load i64, ptr %self, align 8, !dbg !1384, !noundef !45
  %_5 = load i64, ptr %other, align 8, !dbg !1385, !noundef !45
  %_3 = icmp ult i64 %_4, %_5, !dbg !1384
  br i1 %_3, label %bb1, label %bb2, !dbg !1384

bb2:                                              ; preds = %start
  %_7 = load i64, ptr %self, align 8, !dbg !1386, !noundef !45
  %_8 = load i64, ptr %other, align 8, !dbg !1387, !noundef !45
  %_6 = icmp eq i64 %_7, %_8, !dbg !1386
  br i1 %_6, label %bb3, label %bb4, !dbg !1386

bb1:                                              ; preds = %start
  store i8 -1, ptr %0, align 1, !dbg !1388
  br label %bb5, !dbg !1389

bb5:                                              ; preds = %bb4, %bb3, %bb1
  %1 = load i8, ptr %0, align 1, !dbg !1390, !range !1391, !noundef !45
  ret i8 %1, !dbg !1390

bb4:                                              ; preds = %bb2
  store i8 1, ptr %0, align 1, !dbg !1392
  br label %bb5, !dbg !1393

bb3:                                              ; preds = %bb2
  store i8 0, ptr %0, align 1, !dbg !1394
  br label %bb5, !dbg !1393
}

; core::cmp::impls::<impl core::cmp::PartialEq for u8>::eq
; Function Attrs: inlinehint noredzone nounwind
define internal zeroext i1 @"_ZN4core3cmp5impls53_$LT$impl$u20$core..cmp..PartialEq$u20$for$u20$u8$GT$2eq17h644fe0bfe8698e8bE"(ptr align 1 %self, ptr align 1 %other) unnamed_addr #1 !dbg !1395 {
start:
  %other.dbg.spill = alloca ptr, align 8
  %self.dbg.spill = alloca ptr, align 8
  store ptr %self, ptr %self.dbg.spill, align 8
  call void @llvm.dbg.declare(metadata ptr %self.dbg.spill, metadata !1400, metadata !DIExpression()), !dbg !1402
  store ptr %other, ptr %other.dbg.spill, align 8
  call void @llvm.dbg.declare(metadata ptr %other.dbg.spill, metadata !1401, metadata !DIExpression()), !dbg !1403
  %_3 = load i8, ptr %self, align 1, !dbg !1404, !noundef !45
  %_4 = load i8, ptr %other, align 1, !dbg !1405, !noundef !45
  %0 = icmp eq i8 %_3, %_4, !dbg !1404
  ret i1 %0, !dbg !1406
}

; core::cmp::max_by
; Function Attrs: inlinehint noredzone nounwind
define i64 @_ZN4core3cmp6max_by17h301efbe0d394c258E(i64 %0, i64 %1) unnamed_addr #1 !dbg !1407 {
start:
  %compare.dbg.spill = alloca {}, align 1
  %_10 = alloca i8, align 1
  %_9 = alloca i8, align 1
  %_5 = alloca { ptr, ptr }, align 8
  %_4 = alloca i8, align 1
  %2 = alloca i64, align 8
  %v2 = alloca i64, align 8
  %v1 = alloca i64, align 8
  store i64 %0, ptr %v1, align 8
  store i64 %1, ptr %v2, align 8
  call void @llvm.dbg.declare(metadata ptr %v1, metadata !1415, metadata !DIExpression()), !dbg !1420
  call void @llvm.dbg.declare(metadata ptr %v2, metadata !1416, metadata !DIExpression()), !dbg !1421
  call void @llvm.dbg.declare(metadata ptr %compare.dbg.spill, metadata !1417, metadata !DIExpression()), !dbg !1422
  store i8 0, ptr %_10, align 1, !dbg !1423
  store i8 0, ptr %_9, align 1, !dbg !1423
  store i8 1, ptr %_10, align 1, !dbg !1423
  store i8 1, ptr %_9, align 1, !dbg !1423
  store ptr %v1, ptr %_5, align 8, !dbg !1423
  %3 = getelementptr inbounds { ptr, ptr }, ptr %_5, i32 0, i32 1, !dbg !1423
  store ptr %v2, ptr %3, align 8, !dbg !1423
  %4 = getelementptr inbounds { ptr, ptr }, ptr %_5, i32 0, i32 0, !dbg !1423
  %5 = load ptr, ptr %4, align 8, !dbg !1423, !nonnull !45, !align !1159, !noundef !45
  %6 = getelementptr inbounds { ptr, ptr }, ptr %_5, i32 0, i32 1, !dbg !1423
  %7 = load ptr, ptr %6, align 8, !dbg !1423, !nonnull !45, !align !1159, !noundef !45
; call core::ops::function::FnOnce::call_once
  %8 = call i8 @_ZN4core3ops8function6FnOnce9call_once17h823c194015f78686E(ptr align 8 %5, ptr align 8 %7) #17, !dbg !1423, !range !1391
  store i8 %8, ptr %_4, align 1, !dbg !1423
  %_8 = load i8, ptr %_4, align 1, !dbg !1423, !range !1391, !noundef !45
  switch i8 %_8, label %bb3 [
    i8 -1, label %bb4
    i8 0, label %bb4
    i8 1, label %bb2
  ], !dbg !1424

bb3:                                              ; preds = %start
  unreachable, !dbg !1423

bb4:                                              ; preds = %start, %start
  store i8 0, ptr %_9, align 1, !dbg !1425
  %9 = load i64, ptr %v2, align 8, !dbg !1425, !range !1362, !noundef !45
  store i64 %9, ptr %2, align 8, !dbg !1425
  br label %bb5, !dbg !1425

bb2:                                              ; preds = %start
  store i8 0, ptr %_10, align 1, !dbg !1426
  %10 = load i64, ptr %v1, align 8, !dbg !1426, !range !1362, !noundef !45
  store i64 %10, ptr %2, align 8, !dbg !1426
  br label %bb5, !dbg !1426

bb5:                                              ; preds = %bb4, %bb2
  %11 = load i8, ptr %_9, align 1, !dbg !1427, !range !673, !noundef !45
  %12 = trunc i8 %11 to i1, !dbg !1427
  br i1 %12, label %bb8, label %bb6, !dbg !1427

bb6:                                              ; preds = %bb8, %bb5
  %13 = load i8, ptr %_10, align 1, !dbg !1427, !range !673, !noundef !45
  %14 = trunc i8 %13 to i1, !dbg !1427
  br i1 %14, label %bb9, label %bb7, !dbg !1427

bb8:                                              ; preds = %bb5
  br label %bb6, !dbg !1427

bb7:                                              ; preds = %bb9, %bb6
  %15 = load i64, ptr %2, align 8, !dbg !1428, !range !1362, !noundef !45
  ret i64 %15, !dbg !1428

bb9:                                              ; preds = %bb6
  br label %bb7, !dbg !1427
}

; core::ffi::c_str::CStr::to_bytes_with_nul
; Function Attrs: inlinehint noredzone nounwind
define internal { ptr, i64 } @_ZN4core3ffi5c_str4CStr17to_bytes_with_nul17h38e806c05411979fE(ptr align 1 %self.0, i64 %self.1) unnamed_addr #1 !dbg !1429 {
start:
  %self.dbg.spill = alloca { ptr, i64 }, align 8
  %0 = getelementptr inbounds { ptr, i64 }, ptr %self.dbg.spill, i32 0, i32 0
  store ptr %self.0, ptr %0, align 8
  %1 = getelementptr inbounds { ptr, i64 }, ptr %self.dbg.spill, i32 0, i32 1
  store i64 %self.1, ptr %1, align 8
  call void @llvm.dbg.declare(metadata ptr %self.dbg.spill, metadata !1442, metadata !DIExpression()), !dbg !1443
  %2 = insertvalue { ptr, i64 } undef, ptr %self.0, 0, !dbg !1444
  %3 = insertvalue { ptr, i64 } %2, i64 %self.1, 1, !dbg !1444
  ret { ptr, i64 } %3, !dbg !1444
}

; core::ffi::c_str::CStr::from_bytes_with_nul_unchecked
; Function Attrs: inlinehint noredzone nounwind
define internal { ptr, i64 } @_ZN4core3ffi5c_str4CStr29from_bytes_with_nul_unchecked17h2453c5391e5bedf4E(ptr align 1 %bytes.0, i64 %bytes.1) unnamed_addr #1 !dbg !1445 {
start:
  %bytes.dbg.spill = alloca { ptr, i64 }, align 8
  %_2 = alloca { ptr, i64 }, align 8
  %0 = getelementptr inbounds { ptr, i64 }, ptr %bytes.dbg.spill, i32 0, i32 0
  store ptr %bytes.0, ptr %0, align 8
  %1 = getelementptr inbounds { ptr, i64 }, ptr %bytes.dbg.spill, i32 0, i32 1
  store i64 %bytes.1, ptr %1, align 8
  call void @llvm.dbg.declare(metadata ptr %bytes.dbg.spill, metadata !1449, metadata !DIExpression()), !dbg !1450
  %2 = getelementptr inbounds { ptr, i64 }, ptr %_2, i32 0, i32 0, !dbg !1451
  store ptr %bytes.0, ptr %2, align 8, !dbg !1451
  %3 = getelementptr inbounds { ptr, i64 }, ptr %_2, i32 0, i32 1, !dbg !1451
  store i64 %bytes.1, ptr %3, align 8, !dbg !1451
  %4 = getelementptr inbounds { ptr, i64 }, ptr %_2, i32 0, i32 0, !dbg !1452
  %5 = load ptr, ptr %4, align 8, !dbg !1452, !nonnull !45, !align !643, !noundef !45
  %6 = getelementptr inbounds { ptr, i64 }, ptr %_2, i32 0, i32 1, !dbg !1452
  %7 = load i64, ptr %6, align 8, !dbg !1452, !noundef !45
; call core::ffi::c_str::CStr::from_bytes_with_nul_unchecked::rt_impl
  %8 = call { ptr, i64 } @_ZN4core3ffi5c_str4CStr29from_bytes_with_nul_unchecked7rt_impl17h975bbc3c6d75c8a6E(ptr align 1 %5, i64 %7) #17, !dbg !1452
  %9 = extractvalue { ptr, i64 } %8, 0, !dbg !1452
  %10 = extractvalue { ptr, i64 } %8, 1, !dbg !1452
  %11 = insertvalue { ptr, i64 } undef, ptr %9, 0, !dbg !1453
  %12 = insertvalue { ptr, i64 } %11, i64 %10, 1, !dbg !1453
  ret { ptr, i64 } %12, !dbg !1453
}

; core::ffi::c_str::CStr::from_bytes_with_nul_unchecked::rt_impl
; Function Attrs: inlinehint noredzone nounwind
define internal { ptr, i64 } @_ZN4core3ffi5c_str4CStr29from_bytes_with_nul_unchecked7rt_impl17h975bbc3c6d75c8a6E(ptr align 1 %bytes.0, i64 %bytes.1) unnamed_addr #1 !dbg !1454 {
start:
  %bytes.dbg.spill = alloca { ptr, i64 }, align 8
  %_3 = alloca i8, align 1
  %0 = getelementptr inbounds { ptr, i64 }, ptr %bytes.dbg.spill, i32 0, i32 0
  store ptr %bytes.0, ptr %0, align 8
  %1 = getelementptr inbounds { ptr, i64 }, ptr %bytes.dbg.spill, i32 0, i32 1
  store i64 %bytes.1, ptr %1, align 8
  call void @llvm.dbg.declare(metadata ptr %bytes.dbg.spill, metadata !1458, metadata !DIExpression()), !dbg !1459
; call core::slice::<impl [T]>::is_empty
  %_5 = call zeroext i1 @"_ZN4core5slice29_$LT$impl$u20$$u5b$T$u5d$$GT$8is_empty17h08db4e672d7e3a62E"(ptr align 1 %bytes.0, i64 %bytes.1) #17, !dbg !1460
  %_4 = xor i1 %_5, true, !dbg !1461
  br i1 %_4, label %bb2, label %bb1, !dbg !1461

bb1:                                              ; preds = %start
  store i8 0, ptr %_3, align 1, !dbg !1461
  br label %bb3, !dbg !1461

bb2:                                              ; preds = %start
  %_10.0 = sub i64 %bytes.1, 1, !dbg !1462
  %_10.1 = icmp ult i64 %bytes.1, 1, !dbg !1462
  %2 = call i1 @llvm.expect.i1(i1 %_10.1, i1 false), !dbg !1462
  br i1 %2, label %panic, label %bb5, !dbg !1462

bb5:                                              ; preds = %bb2
  %_12 = icmp ult i64 %_10.0, %bytes.1, !dbg !1463
  %3 = call i1 @llvm.expect.i1(i1 %_12, i1 true), !dbg !1463
  br i1 %3, label %bb6, label %panic1, !dbg !1463

panic:                                            ; preds = %bb2
; call core::panicking::panic
  call void @_ZN4core9panicking5panic17h89fb6d2dca04318dE(ptr align 1 @str.0, i64 33, ptr align 8 @alloc_7e9d09d970da31351a3a2baab06340b4) #18, !dbg !1462
  unreachable, !dbg !1462

bb6:                                              ; preds = %bb5
  %4 = getelementptr inbounds [0 x i8], ptr %bytes.0, i64 0, i64 %_10.0, !dbg !1463
  %_7 = load i8, ptr %4, align 1, !dbg !1463, !noundef !45
  %_6 = icmp eq i8 %_7, 0, !dbg !1463
  %5 = zext i1 %_6 to i8, !dbg !1461
  store i8 %5, ptr %_3, align 1, !dbg !1461
  br label %bb3, !dbg !1461

panic1:                                           ; preds = %bb5
; call core::panicking::panic_bounds_check
  call void @_ZN4core9panicking18panic_bounds_check17h8262b2c43d637f25E(i64 %_10.0, i64 %bytes.1, ptr align 8 @alloc_858bb74fd281da4f8d7ba1064cf372e9) #18, !dbg !1463
  unreachable, !dbg !1463

bb3:                                              ; preds = %bb1, %bb6
  %6 = load i8, ptr %_3, align 1, !dbg !1464, !range !673, !noundef !45
  %7 = trunc i8 %6 to i1, !dbg !1464
  %_2 = xor i1 %7, true, !dbg !1464
  br i1 %_2, label %bb7, label %bb8, !dbg !1464

bb8:                                              ; preds = %bb3
  %8 = insertvalue { ptr, i64 } undef, ptr %bytes.0, 0, !dbg !1465
  %9 = insertvalue { ptr, i64 } %8, i64 %bytes.1, 1, !dbg !1465
  ret { ptr, i64 } %9, !dbg !1465

bb7:                                              ; preds = %bb3
; call core::panicking::panic
  call void @_ZN4core9panicking5panic17h89fb6d2dca04318dE(ptr align 1 @alloc_2aadb9d815d34bd6a9eb97b94a849bcf, i64 66, ptr align 8 @alloc_9d23f9ee21ea68ee2190adef8e985ab6) #18, !dbg !1464
  unreachable, !dbg !1464
}

; core::ffi::c_str::CStr::to_bytes
; Function Attrs: inlinehint noredzone nounwind
define internal { ptr, i64 } @_ZN4core3ffi5c_str4CStr8to_bytes17h82852abaa6893a37E(ptr align 1 %self.0, i64 %self.1) unnamed_addr #1 !dbg !1466 {
start:
  %bytes.dbg.spill = alloca { ptr, i64 }, align 8
  %self.dbg.spill = alloca { ptr, i64 }, align 8
  %_4 = alloca i64, align 8
  %0 = getelementptr inbounds { ptr, i64 }, ptr %self.dbg.spill, i32 0, i32 0
  store ptr %self.0, ptr %0, align 8
  %1 = getelementptr inbounds { ptr, i64 }, ptr %self.dbg.spill, i32 0, i32 1
  store i64 %self.1, ptr %1, align 8
  call void @llvm.dbg.declare(metadata ptr %self.dbg.spill, metadata !1468, metadata !DIExpression()), !dbg !1471
; call core::ffi::c_str::CStr::to_bytes_with_nul
  %2 = call { ptr, i64 } @_ZN4core3ffi5c_str4CStr17to_bytes_with_nul17h38e806c05411979fE(ptr align 1 %self.0, i64 %self.1) #17, !dbg !1472
  %bytes.0 = extractvalue { ptr, i64 } %2, 0, !dbg !1472
  %bytes.1 = extractvalue { ptr, i64 } %2, 1, !dbg !1472
  %3 = getelementptr inbounds { ptr, i64 }, ptr %bytes.dbg.spill, i32 0, i32 0, !dbg !1472
  store ptr %bytes.0, ptr %3, align 8, !dbg !1472
  %4 = getelementptr inbounds { ptr, i64 }, ptr %bytes.dbg.spill, i32 0, i32 1, !dbg !1472
  store i64 %bytes.1, ptr %4, align 8, !dbg !1472
  call void @llvm.dbg.declare(metadata ptr %bytes.dbg.spill, metadata !1469, metadata !DIExpression()), !dbg !1473
  %_8.0 = sub i64 %bytes.1, 1, !dbg !1474
  %_8.1 = icmp ult i64 %bytes.1, 1, !dbg !1474
  %5 = call i1 @llvm.expect.i1(i1 %_8.1, i1 false), !dbg !1474
  br i1 %5, label %panic, label %bb2, !dbg !1474

bb2:                                              ; preds = %start
  store i64 %_8.0, ptr %_4, align 8, !dbg !1475
  %6 = load i64, ptr %_4, align 8, !dbg !1476, !noundef !45
; call core::slice::<impl [T]>::get_unchecked
  %7 = call { ptr, i64 } @"_ZN4core5slice29_$LT$impl$u20$$u5b$T$u5d$$GT$13get_unchecked17h4fc3709c857d7bd4E"(ptr align 1 %bytes.0, i64 %bytes.1, i64 %6) #17, !dbg !1476
  %8 = extractvalue { ptr, i64 } %7, 0, !dbg !1476
  %9 = extractvalue { ptr, i64 } %7, 1, !dbg !1476
  %10 = insertvalue { ptr, i64 } undef, ptr %8, 0, !dbg !1477
  %11 = insertvalue { ptr, i64 } %10, i64 %9, 1, !dbg !1477
  ret { ptr, i64 } %11, !dbg !1477

panic:                                            ; preds = %start
; call core::panicking::panic
  call void @_ZN4core9panicking5panic17h89fb6d2dca04318dE(ptr align 1 @str.0, i64 33, ptr align 8 @alloc_dcd8707297622958cf4db4070c7dc808) #18, !dbg !1474
  unreachable, !dbg !1474
}

; core::fmt::num::<impl core::fmt::Debug for usize>::fmt
; Function Attrs: inlinehint noredzone nounwind
define internal zeroext i1 @"_ZN4core3fmt3num52_$LT$impl$u20$core..fmt..Debug$u20$for$u20$usize$GT$3fmt17hc0df83b4a7aeedffE"(ptr align 8 %self, ptr align 8 %f) unnamed_addr #1 !dbg !1478 {
start:
  %f.dbg.spill = alloca ptr, align 8
  %self.dbg.spill = alloca ptr, align 8
  %0 = alloca i8, align 1
  store ptr %self, ptr %self.dbg.spill, align 8
  call void @llvm.dbg.declare(metadata ptr %self.dbg.spill, metadata !1485, metadata !DIExpression()), !dbg !1487
  store ptr %f, ptr %f.dbg.spill, align 8
  call void @llvm.dbg.declare(metadata ptr %f.dbg.spill, metadata !1486, metadata !DIExpression()), !dbg !1488
; call core::fmt::Formatter::debug_lower_hex
  %_3 = call zeroext i1 @_ZN4core3fmt9Formatter15debug_lower_hex17h8ae5bebd96008cd7E(ptr align 8 %f) #17, !dbg !1489
  br i1 %_3, label %bb2, label %bb3, !dbg !1489

bb3:                                              ; preds = %start
; call core::fmt::Formatter::debug_upper_hex
  %_5 = call zeroext i1 @_ZN4core3fmt9Formatter15debug_upper_hex17h15ce7912bcc9ca8eE(ptr align 8 %f) #17, !dbg !1490
  br i1 %_5, label %bb5, label %bb6, !dbg !1490

bb2:                                              ; preds = %start
; call core::fmt::num::<impl core::fmt::LowerHex for usize>::fmt
  %1 = call zeroext i1 @"_ZN4core3fmt3num55_$LT$impl$u20$core..fmt..LowerHex$u20$for$u20$usize$GT$3fmt17hf98e14581fe3e2e0E"(ptr align 8 %self, ptr align 8 %f) #17, !dbg !1491
  %2 = zext i1 %1 to i8, !dbg !1491
  store i8 %2, ptr %0, align 1, !dbg !1491
  br label %bb7, !dbg !1491

bb7:                                              ; preds = %bb6, %bb5, %bb2
  %3 = load i8, ptr %0, align 1, !dbg !1492, !range !673, !noundef !45
  %4 = trunc i8 %3 to i1, !dbg !1492
  ret i1 %4, !dbg !1492

bb6:                                              ; preds = %bb3
; call core::fmt::num::imp::<impl core::fmt::Display for usize>::fmt
  %5 = call zeroext i1 @"_ZN4core3fmt3num3imp54_$LT$impl$u20$core..fmt..Display$u20$for$u20$usize$GT$3fmt17hc65172f96ee21bbaE"(ptr align 8 %self, ptr align 8 %f) #17, !dbg !1493
  %6 = zext i1 %5 to i8, !dbg !1493
  store i8 %6, ptr %0, align 1, !dbg !1493
  br label %bb7, !dbg !1493

bb5:                                              ; preds = %bb3
; call core::fmt::num::<impl core::fmt::UpperHex for usize>::fmt
  %7 = call zeroext i1 @"_ZN4core3fmt3num55_$LT$impl$u20$core..fmt..UpperHex$u20$for$u20$usize$GT$3fmt17h229ff530b39bb162E"(ptr align 8 %self, ptr align 8 %f) #17, !dbg !1494
  %8 = zext i1 %7 to i8, !dbg !1494
  store i8 %8, ptr %0, align 1, !dbg !1494
  br label %bb7, !dbg !1494
}

; core::fmt::Write::write_fmt
; Function Attrs: noredzone nounwind
define zeroext i1 @_ZN4core3fmt5Write9write_fmt17h253ba6ca3452f57eE(ptr align 8 %0, ptr %args) unnamed_addr #0 !dbg !1495 {
start:
  %1 = alloca %"core::fmt::Arguments<'_>", align 8
  %self = alloca ptr, align 8
  store ptr %0, ptr %self, align 8
  call void @llvm.dbg.declare(metadata ptr %self, metadata !1569, metadata !DIExpression()), !dbg !1573
  call void @llvm.dbg.declare(metadata ptr %args, metadata !1570, metadata !DIExpression()), !dbg !1574
  call void @llvm.memcpy.p0.p0.i64(ptr align 8 %1, ptr align 8 %args, i64 48, i1 false), !dbg !1575
; call core::fmt::write
  %2 = call zeroext i1 @_ZN4core3fmt5write17h3bdd1810c8fc8ac3E(ptr align 1 %self, ptr align 8 @vtable.1, ptr %1) #17, !dbg !1575
  ret i1 %2, !dbg !1576
}

; core::fmt::Arguments::estimated_capacity
; Function Attrs: inlinehint noredzone nounwind
define internal i64 @_ZN4core3fmt9Arguments18estimated_capacity17h1abc4b7786dd4e08E(ptr align 8 %self) unnamed_addr #1 !dbg !1577 {
start:
  %pieces_length.dbg.spill = alloca i64, align 8
  %self.dbg.spill = alloca ptr, align 8
  %_8 = alloca i8, align 1
  %_7 = alloca i8, align 1
  %0 = alloca i64, align 8
  store ptr %self, ptr %self.dbg.spill, align 8
  call void @llvm.dbg.declare(metadata ptr %self.dbg.spill, metadata !1582, metadata !DIExpression()), !dbg !1585
  %1 = getelementptr inbounds %"core::fmt::Arguments<'_>", ptr %self, i32 0, i32 1, !dbg !1586
  %2 = getelementptr inbounds { ptr, i64 }, ptr %1, i32 0, i32 0, !dbg !1586
  %_19.0 = load ptr, ptr %2, align 8, !dbg !1586, !nonnull !45, !align !1159, !noundef !45
  %3 = getelementptr inbounds { ptr, i64 }, ptr %1, i32 0, i32 1, !dbg !1586
  %_19.1 = load i64, ptr %3, align 8, !dbg !1586, !noundef !45
; call core::slice::<impl [T]>::iter
  %4 = call { ptr, ptr } @"_ZN4core5slice29_$LT$impl$u20$$u5b$T$u5d$$GT$4iter17h665051f55ae64435E"(ptr align 8 %_19.0, i64 %_19.1) #17, !dbg !1586
  %_4.0 = extractvalue { ptr, ptr } %4, 0, !dbg !1586
  %_4.1 = extractvalue { ptr, ptr } %4, 1, !dbg !1586
; call core::iter::traits::iterator::Iterator::map
  %5 = call { ptr, ptr } @_ZN4core4iter6traits8iterator8Iterator3map17h15ad5af0869f4c3aE(ptr %_4.0, ptr %_4.1) #17, !dbg !1586
  %_3.0 = extractvalue { ptr, ptr } %5, 0, !dbg !1586
  %_3.1 = extractvalue { ptr, ptr } %5, 1, !dbg !1586
; call core::iter::traits::iterator::Iterator::sum
  %pieces_length = call i64 @_ZN4core4iter6traits8iterator8Iterator3sum17hc807e64a1360c675E(ptr %_3.0, ptr %_3.1) #17, !dbg !1586
  store i64 %pieces_length, ptr %pieces_length.dbg.spill, align 8, !dbg !1586
  call void @llvm.dbg.declare(metadata ptr %pieces_length.dbg.spill, metadata !1583, metadata !DIExpression()), !dbg !1587
  %6 = getelementptr inbounds %"core::fmt::Arguments<'_>", ptr %self, i32 0, i32 2, !dbg !1588
  %7 = getelementptr inbounds { ptr, i64 }, ptr %6, i32 0, i32 0, !dbg !1588
  %_20.0 = load ptr, ptr %7, align 8, !dbg !1588, !nonnull !45, !align !1159, !noundef !45
  %8 = getelementptr inbounds { ptr, i64 }, ptr %6, i32 0, i32 1, !dbg !1588
  %_20.1 = load i64, ptr %8, align 8, !dbg !1588, !noundef !45
; call core::slice::<impl [T]>::is_empty
  %_6 = call zeroext i1 @"_ZN4core5slice29_$LT$impl$u20$$u5b$T$u5d$$GT$8is_empty17h30532b1325b0eddbE"(ptr align 8 %_20.0, i64 %_20.1) #17, !dbg !1588
  br i1 %_6, label %bb5, label %bb6, !dbg !1588

bb6:                                              ; preds = %start
  %9 = getelementptr inbounds %"core::fmt::Arguments<'_>", ptr %self, i32 0, i32 1, !dbg !1589
  %10 = getelementptr inbounds { ptr, i64 }, ptr %9, i32 0, i32 0, !dbg !1589
  %_21.0 = load ptr, ptr %10, align 8, !dbg !1589, !nonnull !45, !align !1159, !noundef !45
  %11 = getelementptr inbounds { ptr, i64 }, ptr %9, i32 0, i32 1, !dbg !1589
  %_21.1 = load i64, ptr %11, align 8, !dbg !1589, !noundef !45
; call core::slice::<impl [T]>::is_empty
  %_10 = call zeroext i1 @"_ZN4core5slice29_$LT$impl$u20$$u5b$T$u5d$$GT$8is_empty17hf05a1983d0ea83a1E"(ptr align 8 %_21.0, i64 %_21.1) #17, !dbg !1589
  %_9 = xor i1 %_10, true, !dbg !1590
  br i1 %_9, label %bb11, label %bb10, !dbg !1590

bb5:                                              ; preds = %start
  store i64 %pieces_length, ptr %0, align 8, !dbg !1591
  br label %bb19, !dbg !1592

bb19:                                             ; preds = %bb17, %bb16, %bb5
  %12 = load i64, ptr %0, align 8, !dbg !1593, !noundef !45
  ret i64 %12, !dbg !1593

bb10:                                             ; preds = %bb6
  store i8 0, ptr %_8, align 1, !dbg !1590
  br label %bb12, !dbg !1590

bb11:                                             ; preds = %bb6
  %13 = getelementptr inbounds %"core::fmt::Arguments<'_>", ptr %self, i32 0, i32 1, !dbg !1594
  %14 = getelementptr inbounds { ptr, i64 }, ptr %13, i32 0, i32 0, !dbg !1594
  %_22.0 = load ptr, ptr %14, align 8, !dbg !1594, !nonnull !45, !align !1159, !noundef !45
  %15 = getelementptr inbounds { ptr, i64 }, ptr %13, i32 0, i32 1, !dbg !1594
  %_22.1 = load i64, ptr %15, align 8, !dbg !1594, !noundef !45
  %_14 = icmp ult i64 0, %_22.1, !dbg !1594
  %16 = call i1 @llvm.expect.i1(i1 %_14, i1 true), !dbg !1594
  br i1 %16, label %bb14, label %panic, !dbg !1594

bb14:                                             ; preds = %bb11
  %17 = getelementptr inbounds %"core::fmt::Arguments<'_>", ptr %self, i32 0, i32 1, !dbg !1594
  %18 = getelementptr inbounds { ptr, i64 }, ptr %17, i32 0, i32 0, !dbg !1594
  %_23.0 = load ptr, ptr %18, align 8, !dbg !1594, !nonnull !45, !align !1159, !noundef !45
  %19 = getelementptr inbounds { ptr, i64 }, ptr %17, i32 0, i32 1, !dbg !1594
  %_23.1 = load i64, ptr %19, align 8, !dbg !1594, !noundef !45
  %20 = getelementptr inbounds [0 x { ptr, i64 }], ptr %_23.0, i64 0, i64 0, !dbg !1594
  %21 = getelementptr inbounds { ptr, i64 }, ptr %20, i32 0, i32 0, !dbg !1594
  %_24.0 = load ptr, ptr %21, align 8, !dbg !1594, !nonnull !45, !align !643, !noundef !45
  %22 = getelementptr inbounds { ptr, i64 }, ptr %20, i32 0, i32 1, !dbg !1594
  %_24.1 = load i64, ptr %22, align 8, !dbg !1594, !noundef !45
; call core::str::<impl str>::is_empty
  %_11 = call zeroext i1 @"_ZN4core3str21_$LT$impl$u20$str$GT$8is_empty17h098534c0490344a9E"(ptr align 1 %_24.0, i64 %_24.1) #17, !dbg !1594
  %23 = zext i1 %_11 to i8, !dbg !1590
  store i8 %23, ptr %_8, align 1, !dbg !1590
  br label %bb12, !dbg !1590

panic:                                            ; preds = %bb11
; call core::panicking::panic_bounds_check
  call void @_ZN4core9panicking18panic_bounds_check17h8262b2c43d637f25E(i64 0, i64 %_22.1, ptr align 8 @alloc_0f3bb02bc65dc1e76fd29ee3d1aa7b76) #18, !dbg !1594
  unreachable, !dbg !1594

bb12:                                             ; preds = %bb10, %bb14
  %24 = load i8, ptr %_8, align 1, !dbg !1590, !range !673, !noundef !45
  %25 = trunc i8 %24 to i1, !dbg !1590
  br i1 %25, label %bb8, label %bb7, !dbg !1590

bb7:                                              ; preds = %bb12
  store i8 0, ptr %_7, align 1, !dbg !1590
  br label %bb9, !dbg !1590

bb8:                                              ; preds = %bb12
  %_15 = icmp ult i64 %pieces_length, 16, !dbg !1595
  %26 = zext i1 %_15 to i8, !dbg !1590
  store i8 %26, ptr %_7, align 1, !dbg !1590
  br label %bb9, !dbg !1590

bb9:                                              ; preds = %bb7, %bb8
  %27 = load i8, ptr %_7, align 1, !dbg !1590, !range !673, !noundef !45
  %28 = trunc i8 %27 to i1, !dbg !1590
  br i1 %28, label %bb16, label %bb17, !dbg !1590

bb17:                                             ; preds = %bb9
; call core::num::<impl usize>::checked_mul
  %29 = call { i64, i64 } @"_ZN4core3num23_$LT$impl$u20$usize$GT$11checked_mul17h9e4495e66fe1dbcbE"(i64 %pieces_length, i64 2) #17, !dbg !1596
  %_17.0 = extractvalue { i64, i64 } %29, 0, !dbg !1596
  %_17.1 = extractvalue { i64, i64 } %29, 1, !dbg !1596
; call core::option::Option<T>::unwrap_or
  %30 = call i64 @"_ZN4core6option15Option$LT$T$GT$9unwrap_or17h883e5fd5c1257adfE"(i64 %_17.0, i64 %_17.1, i64 0) #17, !dbg !1596
  store i64 %30, ptr %0, align 8, !dbg !1596
  br label %bb19, !dbg !1596

bb16:                                             ; preds = %bb9
  store i64 0, ptr %0, align 8, !dbg !1597
  br label %bb19, !dbg !1598
}

; core::fmt::Arguments::estimated_capacity::{{closure}}
; Function Attrs: inlinehint noredzone nounwind
define i64 @"_ZN4core3fmt9Arguments18estimated_capacity28_$u7b$$u7b$closure$u7d$$u7d$17hcb8c60edd77b32ceE"(ptr align 1 %_1, ptr align 8 %x) unnamed_addr #1 !dbg !1599 {
start:
  %x.dbg.spill = alloca ptr, align 8
  %_1.dbg.spill = alloca ptr, align 8
  store ptr %_1, ptr %_1.dbg.spill, align 8
  call void @llvm.dbg.declare(metadata ptr %_1.dbg.spill, metadata !1605, metadata !DIExpression()), !dbg !1606
  store ptr %x, ptr %x.dbg.spill, align 8
  call void @llvm.dbg.declare(metadata ptr %x.dbg.spill, metadata !1604, metadata !DIExpression()), !dbg !1607
  %0 = getelementptr inbounds { ptr, i64 }, ptr %x, i32 0, i32 0, !dbg !1608
  %_3.0 = load ptr, ptr %0, align 8, !dbg !1608, !nonnull !45, !align !643, !noundef !45
  %1 = getelementptr inbounds { ptr, i64 }, ptr %x, i32 0, i32 1, !dbg !1608
  %_3.1 = load i64, ptr %1, align 8, !dbg !1608, !noundef !45
; call core::str::<impl str>::len
  %2 = call i64 @"_ZN4core3str21_$LT$impl$u20$str$GT$3len17hd16e42a8ff3d48d3E"(ptr align 1 %_3.0, i64 %_3.1) #17, !dbg !1608
  ret i64 %2, !dbg !1609
}

; core::fmt::Arguments::new_v1
; Function Attrs: inlinehint noredzone nounwind
define internal void @_ZN4core3fmt9Arguments6new_v117hc8b4877fcd0e41ddE(ptr sret(%"core::fmt::Arguments<'_>") %0, ptr align 8 %pieces.0, i64 %pieces.1, ptr align 8 %args.0, i64 %args.1) unnamed_addr #1 !dbg !1610 {
start:
  %args.dbg.spill = alloca { ptr, i64 }, align 8
  %pieces.dbg.spill = alloca { ptr, i64 }, align 8
  %_16 = alloca { ptr, i64 }, align 8
  %_13 = alloca %"core::fmt::Arguments<'_>", align 8
  %_3 = alloca i8, align 1
  %1 = getelementptr inbounds { ptr, i64 }, ptr %pieces.dbg.spill, i32 0, i32 0
  store ptr %pieces.0, ptr %1, align 8
  %2 = getelementptr inbounds { ptr, i64 }, ptr %pieces.dbg.spill, i32 0, i32 1
  store i64 %pieces.1, ptr %2, align 8
  call void @llvm.dbg.declare(metadata ptr %pieces.dbg.spill, metadata !1614, metadata !DIExpression()), !dbg !1616
  %3 = getelementptr inbounds { ptr, i64 }, ptr %args.dbg.spill, i32 0, i32 0
  store ptr %args.0, ptr %3, align 8
  %4 = getelementptr inbounds { ptr, i64 }, ptr %args.dbg.spill, i32 0, i32 1
  store i64 %args.1, ptr %4, align 8
  call void @llvm.dbg.declare(metadata ptr %args.dbg.spill, metadata !1615, metadata !DIExpression()), !dbg !1617
  %_4 = icmp ult i64 %pieces.1, %args.1, !dbg !1618
  br i1 %_4, label %bb1, label %bb2, !dbg !1618

bb2:                                              ; preds = %start
  %5 = call { i64, i1 } @llvm.uadd.with.overflow.i64(i64 %args.1, i64 1), !dbg !1619
  %_11.0 = extractvalue { i64, i1 } %5, 0, !dbg !1619
  %_11.1 = extractvalue { i64, i1 } %5, 1, !dbg !1619
  %6 = call i1 @llvm.expect.i1(i1 %_11.1, i1 false), !dbg !1619
  br i1 %6, label %panic, label %bb4, !dbg !1619

bb1:                                              ; preds = %start
  store i8 1, ptr %_3, align 1, !dbg !1618
  br label %bb3, !dbg !1618

bb3:                                              ; preds = %bb4, %bb1
  %7 = load i8, ptr %_3, align 1, !dbg !1618, !range !673, !noundef !45
  %8 = trunc i8 %7 to i1, !dbg !1618
  br i1 %8, label %bb5, label %bb7, !dbg !1618

bb4:                                              ; preds = %bb2
  %_7 = icmp ugt i64 %pieces.1, %_11.0, !dbg !1620
  %9 = zext i1 %_7 to i8, !dbg !1618
  store i8 %9, ptr %_3, align 1, !dbg !1618
  br label %bb3, !dbg !1618

panic:                                            ; preds = %bb2
; call core::panicking::panic
  call void @_ZN4core9panicking5panic17h89fb6d2dca04318dE(ptr align 1 @str.2, i64 28, ptr align 8 @alloc_47ee623a9f06017983b1b14793104f21) #18, !dbg !1619
  unreachable, !dbg !1619

bb7:                                              ; preds = %bb3
  store ptr null, ptr %_16, align 8, !dbg !1621
  %10 = getelementptr inbounds %"core::fmt::Arguments<'_>", ptr %0, i32 0, i32 1, !dbg !1622
  %11 = getelementptr inbounds { ptr, i64 }, ptr %10, i32 0, i32 0, !dbg !1622
  store ptr %pieces.0, ptr %11, align 8, !dbg !1622
  %12 = getelementptr inbounds { ptr, i64 }, ptr %10, i32 0, i32 1, !dbg !1622
  store i64 %pieces.1, ptr %12, align 8, !dbg !1622
  %13 = getelementptr inbounds { ptr, i64 }, ptr %_16, i32 0, i32 0, !dbg !1622
  %14 = load ptr, ptr %13, align 8, !dbg !1622, !align !1159, !noundef !45
  %15 = getelementptr inbounds { ptr, i64 }, ptr %_16, i32 0, i32 1, !dbg !1622
  %16 = load i64, ptr %15, align 8, !dbg !1622
  %17 = getelementptr inbounds { ptr, i64 }, ptr %0, i32 0, i32 0, !dbg !1622
  store ptr %14, ptr %17, align 8, !dbg !1622
  %18 = getelementptr inbounds { ptr, i64 }, ptr %0, i32 0, i32 1, !dbg !1622
  store i64 %16, ptr %18, align 8, !dbg !1622
  %19 = getelementptr inbounds %"core::fmt::Arguments<'_>", ptr %0, i32 0, i32 2, !dbg !1622
  %20 = getelementptr inbounds { ptr, i64 }, ptr %19, i32 0, i32 0, !dbg !1622
  store ptr %args.0, ptr %20, align 8, !dbg !1622
  %21 = getelementptr inbounds { ptr, i64 }, ptr %19, i32 0, i32 1, !dbg !1622
  store i64 %args.1, ptr %21, align 8, !dbg !1622
  ret void, !dbg !1623

bb5:                                              ; preds = %bb3
; call core::fmt::Arguments::new_v1
  call void @_ZN4core3fmt9Arguments6new_v117hc8b4877fcd0e41ddE(ptr sret(%"core::fmt::Arguments<'_>") %_13, ptr align 8 @alloc_71b99a1804d93c013f301ec59bc480be, i64 1, ptr align 8 @alloc_2bfeba76c1438a46208a034153050220, i64 0) #17, !dbg !1624
; call core::panicking::panic_fmt
  call void @_ZN4core9panicking9panic_fmt17h110b4081507dd9c0E(ptr %_13, ptr align 8 @alloc_06016551127ebd46210a364dc7059aaa) #18, !dbg !1624
  unreachable, !dbg !1624
}

; core::mem::take
; Function Attrs: inlinehint noredzone nounwind
define void @_ZN4core3mem4take17hd1fe3ff22092d316E(ptr sret(%"string::String") %0, ptr align 8 %dest) unnamed_addr #1 !dbg !1625 {
start:
  %dest.dbg.spill = alloca ptr, align 8
  %_2 = alloca %"string::String", align 8
  store ptr %dest, ptr %dest.dbg.spill, align 8
  call void @llvm.dbg.declare(metadata ptr %dest.dbg.spill, metadata !1630, metadata !DIExpression()), !dbg !1631
; call <alloc::string::String as core::default::Default>::default
  call void @"_ZN64_$LT$alloc..string..String$u20$as$u20$core..default..Default$GT$7default17h8023cf4ed4b338d5E"(ptr sret(%"string::String") %_2) #17, !dbg !1632
; call core::mem::replace
  call void @_ZN4core3mem7replace17hbc5f369c92de16b9E(ptr sret(%"string::String") %0, ptr align 8 %dest, ptr %_2) #17, !dbg !1633
  ret void, !dbg !1634
}

; core::mem::take
; Function Attrs: inlinehint noredzone nounwind
define { ptr, i64 } @_ZN4core3mem4take17hf906dd6faa23c314E(ptr align 8 %dest) unnamed_addr #1 !dbg !1635 {
start:
  %dest.dbg.spill = alloca ptr, align 8
  store ptr %dest, ptr %dest.dbg.spill, align 8
  call void @llvm.dbg.declare(metadata ptr %dest.dbg.spill, metadata !1640, metadata !DIExpression()), !dbg !1641
; call <alloc::boxed::Box<[T]> as core::default::Default>::default
  %0 = call { ptr, i64 } @"_ZN79_$LT$alloc..boxed..Box$LT$$u5b$T$u5d$$GT$$u20$as$u20$core..default..Default$GT$7default17haf43f83bad54c92aE"() #17, !dbg !1642
  %_2.0 = extractvalue { ptr, i64 } %0, 0, !dbg !1642
  %_2.1 = extractvalue { ptr, i64 } %0, 1, !dbg !1642
; call core::mem::replace
  %1 = call { ptr, i64 } @_ZN4core3mem7replace17h8a979afdeed3700aE(ptr align 8 %dest, ptr align 1 %_2.0, i64 %_2.1) #17, !dbg !1643
  %2 = extractvalue { ptr, i64 } %1, 0, !dbg !1643
  %3 = extractvalue { ptr, i64 } %1, 1, !dbg !1643
  %4 = insertvalue { ptr, i64 } undef, ptr %2, 0, !dbg !1644
  %5 = insertvalue { ptr, i64 } %4, i64 %3, 1, !dbg !1644
  ret { ptr, i64 } %5, !dbg !1644
}

; core::mem::replace
; Function Attrs: inlinehint noredzone nounwind
define { i16, i16 } @_ZN4core3mem7replace17h8a74628870d2faacE(ptr align 2 %dest, i16 %src.0, i16 %src.1) unnamed_addr #1 !dbg !1645 {
start:
  %result.dbg.spill = alloca { i16, i16 }, align 2
  %src.dbg.spill = alloca { i16, i16 }, align 2
  %dest.dbg.spill = alloca ptr, align 8
  store ptr %dest, ptr %dest.dbg.spill, align 8
  call void @llvm.dbg.declare(metadata ptr %dest.dbg.spill, metadata !1650, metadata !DIExpression()), !dbg !1654
  %0 = getelementptr inbounds { i16, i16 }, ptr %src.dbg.spill, i32 0, i32 0
  store i16 %src.0, ptr %0, align 2
  %1 = getelementptr inbounds { i16, i16 }, ptr %src.dbg.spill, i32 0, i32 1
  store i16 %src.1, ptr %1, align 2
  call void @llvm.dbg.declare(metadata ptr %src.dbg.spill, metadata !1651, metadata !DIExpression()), !dbg !1655
; call core::ptr::read
  %2 = call { i16, i16 } @_ZN4core3ptr4read17h50291c10125f9973E(ptr %dest) #17, !dbg !1656
  %result.0 = extractvalue { i16, i16 } %2, 0, !dbg !1656
  %result.1 = extractvalue { i16, i16 } %2, 1, !dbg !1656
  %3 = getelementptr inbounds { i16, i16 }, ptr %result.dbg.spill, i32 0, i32 0, !dbg !1656
  store i16 %result.0, ptr %3, align 2, !dbg !1656
  %4 = getelementptr inbounds { i16, i16 }, ptr %result.dbg.spill, i32 0, i32 1, !dbg !1656
  store i16 %result.1, ptr %4, align 2, !dbg !1656
  call void @llvm.dbg.declare(metadata ptr %result.dbg.spill, metadata !1652, metadata !DIExpression()), !dbg !1657
; call core::ptr::write
  call void @_ZN4core3ptr5write17h03104ae4e030edd1E(ptr %dest, i16 %src.0, i16 %src.1) #17, !dbg !1658
  %5 = insertvalue { i16, i16 } undef, i16 %result.0, 0, !dbg !1659
  %6 = insertvalue { i16, i16 } %5, i16 %result.1, 1, !dbg !1659
  ret { i16, i16 } %6, !dbg !1659
}

; core::mem::replace
; Function Attrs: inlinehint noredzone nounwind
define { ptr, i64 } @_ZN4core3mem7replace17h8a979afdeed3700aE(ptr align 8 %dest, ptr align 1 %src.0, i64 %src.1) unnamed_addr #1 !dbg !1660 {
start:
  %result.dbg.spill = alloca { ptr, i64 }, align 8
  %src.dbg.spill = alloca { ptr, i64 }, align 8
  %dest.dbg.spill = alloca ptr, align 8
  store ptr %dest, ptr %dest.dbg.spill, align 8
  call void @llvm.dbg.declare(metadata ptr %dest.dbg.spill, metadata !1664, metadata !DIExpression()), !dbg !1668
  %0 = getelementptr inbounds { ptr, i64 }, ptr %src.dbg.spill, i32 0, i32 0
  store ptr %src.0, ptr %0, align 8
  %1 = getelementptr inbounds { ptr, i64 }, ptr %src.dbg.spill, i32 0, i32 1
  store i64 %src.1, ptr %1, align 8
  call void @llvm.dbg.declare(metadata ptr %src.dbg.spill, metadata !1665, metadata !DIExpression()), !dbg !1669
; call core::ptr::read
  %2 = call { ptr, i64 } @_ZN4core3ptr4read17h26b3e0b6a817afa0E(ptr %dest) #17, !dbg !1670
  %result.0 = extractvalue { ptr, i64 } %2, 0, !dbg !1670
  %result.1 = extractvalue { ptr, i64 } %2, 1, !dbg !1670
  %3 = getelementptr inbounds { ptr, i64 }, ptr %result.dbg.spill, i32 0, i32 0, !dbg !1670
  store ptr %result.0, ptr %3, align 8, !dbg !1670
  %4 = getelementptr inbounds { ptr, i64 }, ptr %result.dbg.spill, i32 0, i32 1, !dbg !1670
  store i64 %result.1, ptr %4, align 8, !dbg !1670
  call void @llvm.dbg.declare(metadata ptr %result.dbg.spill, metadata !1666, metadata !DIExpression()), !dbg !1671
; call core::ptr::write
  call void @_ZN4core3ptr5write17h5f7fbf5ab9b1995eE(ptr %dest, ptr align 1 %src.0, i64 %src.1) #17, !dbg !1672
  %5 = insertvalue { ptr, i64 } undef, ptr %result.0, 0, !dbg !1673
  %6 = insertvalue { ptr, i64 } %5, i64 %result.1, 1, !dbg !1673
  ret { ptr, i64 } %6, !dbg !1673
}

; core::mem::replace
; Function Attrs: inlinehint noredzone nounwind
define void @_ZN4core3mem7replace17hbc5f369c92de16b9E(ptr sret(%"string::String") %result, ptr align 8 %dest, ptr %src) unnamed_addr #1 !dbg !1674 {
start:
  %dest.dbg.spill = alloca ptr, align 8, !dbg !1682
  call void @llvm.dbg.declare(metadata ptr %result, metadata !1680, metadata !DIExpression()), !dbg !1682
  store ptr %dest, ptr %dest.dbg.spill, align 8
  call void @llvm.dbg.declare(metadata ptr %dest.dbg.spill, metadata !1678, metadata !DIExpression()), !dbg !1683
  call void @llvm.dbg.declare(metadata ptr %src, metadata !1679, metadata !DIExpression()), !dbg !1684
; call core::ptr::read
  call void @_ZN4core3ptr4read17hb747880b223093e6E(ptr sret(%"string::String") %result, ptr %dest) #17, !dbg !1685
; call core::ptr::write
  call void @_ZN4core3ptr5write17h82a430e08389d3f6E(ptr %dest, ptr %src) #17, !dbg !1686
  ret void, !dbg !1687
}

; core::mem::replace
; Function Attrs: inlinehint noredzone nounwind
define { ptr, ptr } @_ZN4core3mem7replace17hd4a8249c6fbb98e9E(ptr align 8 %dest, ptr %src.0, ptr %src.1) unnamed_addr #1 !dbg !1688 {
start:
  %result.dbg.spill = alloca { ptr, ptr }, align 8
  %src.dbg.spill = alloca { ptr, ptr }, align 8
  %dest.dbg.spill = alloca ptr, align 8
  store ptr %dest, ptr %dest.dbg.spill, align 8
  call void @llvm.dbg.declare(metadata ptr %dest.dbg.spill, metadata !1693, metadata !DIExpression()), !dbg !1697
  %0 = getelementptr inbounds { ptr, ptr }, ptr %src.dbg.spill, i32 0, i32 0
  store ptr %src.0, ptr %0, align 8
  %1 = getelementptr inbounds { ptr, ptr }, ptr %src.dbg.spill, i32 0, i32 1
  store ptr %src.1, ptr %1, align 8
  call void @llvm.dbg.declare(metadata ptr %src.dbg.spill, metadata !1694, metadata !DIExpression()), !dbg !1698
; call core::ptr::read
  %2 = call { ptr, ptr } @_ZN4core3ptr4read17hcf41a14d447407e1E(ptr %dest) #17, !dbg !1699
  %result.0 = extractvalue { ptr, ptr } %2, 0, !dbg !1699
  %result.1 = extractvalue { ptr, ptr } %2, 1, !dbg !1699
  %3 = getelementptr inbounds { ptr, ptr }, ptr %result.dbg.spill, i32 0, i32 0, !dbg !1699
  store ptr %result.0, ptr %3, align 8, !dbg !1699
  %4 = getelementptr inbounds { ptr, ptr }, ptr %result.dbg.spill, i32 0, i32 1, !dbg !1699
  store ptr %result.1, ptr %4, align 8, !dbg !1699
  call void @llvm.dbg.declare(metadata ptr %result.dbg.spill, metadata !1695, metadata !DIExpression()), !dbg !1700
; call core::ptr::write
  call void @_ZN4core3ptr5write17he2c5432ed5b5c6f6E(ptr %dest, ptr %src.0, ptr %src.1) #17, !dbg !1701
  %5 = insertvalue { ptr, ptr } undef, ptr %result.0, 0, !dbg !1702
  %6 = insertvalue { ptr, ptr } %5, ptr %result.1, 1, !dbg !1702
  ret { ptr, ptr } %6, !dbg !1702
}

; core::num::<impl u8>::is_ascii_lowercase
; Function Attrs: inlinehint noredzone nounwind
define internal zeroext i1 @"_ZN4core3num20_$LT$impl$u20$u8$GT$18is_ascii_lowercase17h401d527f685eee41E"(ptr align 1 %self) unnamed_addr #1 !dbg !1703 {
start:
  %self.dbg.spill = alloca ptr, align 8
  %0 = alloca i8, align 1
  store ptr %self, ptr %self.dbg.spill, align 8
  call void @llvm.dbg.declare(metadata ptr %self.dbg.spill, metadata !1710, metadata !DIExpression()), !dbg !1711
  %1 = load i8, ptr %self, align 1, !dbg !1712, !noundef !45
  %_2 = icmp ule i8 97, %1, !dbg !1712
  br i1 %_2, label %bb1, label %bb2, !dbg !1712

bb2:                                              ; preds = %bb1, %start
  store i8 0, ptr %0, align 1, !dbg !1713
  br label %bb4, !dbg !1713

bb1:                                              ; preds = %start
  %2 = load i8, ptr %self, align 1, !dbg !1712, !noundef !45
  %_3 = icmp ule i8 %2, 122, !dbg !1712
  br i1 %_3, label %bb3, label %bb2, !dbg !1712

bb3:                                              ; preds = %bb1
  store i8 1, ptr %0, align 1, !dbg !1713
  br label %bb4, !dbg !1713

bb4:                                              ; preds = %bb2, %bb3
  %3 = load i8, ptr %0, align 1, !dbg !1714, !range !673, !noundef !45
  %4 = trunc i8 %3 to i1, !dbg !1714
  ret i1 %4, !dbg !1714
}

; core::num::<impl u8>::is_ascii_uppercase
; Function Attrs: inlinehint noredzone nounwind
define internal zeroext i1 @"_ZN4core3num20_$LT$impl$u20$u8$GT$18is_ascii_uppercase17h46b96f0e09f123e5E"(ptr align 1 %self) unnamed_addr #1 !dbg !1715 {
start:
  %self.dbg.spill = alloca ptr, align 8
  %0 = alloca i8, align 1
  store ptr %self, ptr %self.dbg.spill, align 8
  call void @llvm.dbg.declare(metadata ptr %self.dbg.spill, metadata !1717, metadata !DIExpression()), !dbg !1718
  %1 = load i8, ptr %self, align 1, !dbg !1719, !noundef !45
  %_2 = icmp ule i8 65, %1, !dbg !1719
  br i1 %_2, label %bb1, label %bb2, !dbg !1719

bb2:                                              ; preds = %bb1, %start
  store i8 0, ptr %0, align 1, !dbg !1720
  br label %bb4, !dbg !1720

bb1:                                              ; preds = %start
  %2 = load i8, ptr %self, align 1, !dbg !1719, !noundef !45
  %_3 = icmp ule i8 %2, 90, !dbg !1719
  br i1 %_3, label %bb3, label %bb2, !dbg !1719

bb3:                                              ; preds = %bb1
  store i8 1, ptr %0, align 1, !dbg !1720
  br label %bb4, !dbg !1720

bb4:                                              ; preds = %bb2, %bb3
  %3 = load i8, ptr %0, align 1, !dbg !1721, !range !673, !noundef !45
  %4 = trunc i8 %3 to i1, !dbg !1721
  ret i1 %4, !dbg !1721
}

; core::num::<impl u8>::to_ascii_lowercase
; Function Attrs: inlinehint noredzone nounwind
define internal i8 @"_ZN4core3num20_$LT$impl$u20$u8$GT$18to_ascii_lowercase17h47f12909484410b6E"(ptr align 1 %self) unnamed_addr #1 !dbg !1722 {
start:
  %self.dbg.spill = alloca ptr, align 8
  store ptr %self, ptr %self.dbg.spill, align 8
  call void @llvm.dbg.declare(metadata ptr %self.dbg.spill, metadata !1726, metadata !DIExpression()), !dbg !1727
  %_2 = load i8, ptr %self, align 1, !dbg !1728, !noundef !45
; call core::num::<impl u8>::is_ascii_uppercase
  %_5 = call zeroext i1 @"_ZN4core3num20_$LT$impl$u20$u8$GT$18is_ascii_uppercase17h46b96f0e09f123e5E"(ptr align 1 %self) #17, !dbg !1729
  %_4 = zext i1 %_5 to i8, !dbg !1729
  %0 = call { i8, i1 } @llvm.umul.with.overflow.i8(i8 %_4, i8 32), !dbg !1730
  %_6.0 = extractvalue { i8, i1 } %0, 0, !dbg !1730
  %_6.1 = extractvalue { i8, i1 } %0, 1, !dbg !1730
  %1 = call i1 @llvm.expect.i1(i1 %_6.1, i1 false), !dbg !1730
  br i1 %1, label %panic, label %bb2, !dbg !1730

bb2:                                              ; preds = %start
  %2 = or i8 %_2, %_6.0, !dbg !1728
  ret i8 %2, !dbg !1731

panic:                                            ; preds = %start
; call core::panicking::panic
  call void @_ZN4core9panicking5panic17h89fb6d2dca04318dE(ptr align 1 @str.3, i64 33, ptr align 8 @alloc_ae4b10a272bd9909bc9c09fa3f48c1a6) #18, !dbg !1730
  unreachable, !dbg !1730
}

; core::num::<impl u8>::to_ascii_uppercase
; Function Attrs: inlinehint noredzone nounwind
define internal i8 @"_ZN4core3num20_$LT$impl$u20$u8$GT$18to_ascii_uppercase17hde8896b3594cca7dE"(ptr align 1 %self) unnamed_addr #1 !dbg !1732 {
start:
  %self.dbg.spill = alloca ptr, align 8
  store ptr %self, ptr %self.dbg.spill, align 8
  call void @llvm.dbg.declare(metadata ptr %self.dbg.spill, metadata !1734, metadata !DIExpression()), !dbg !1735
  %_2 = load i8, ptr %self, align 1, !dbg !1736, !noundef !45
; call core::num::<impl u8>::is_ascii_lowercase
  %_5 = call zeroext i1 @"_ZN4core3num20_$LT$impl$u20$u8$GT$18is_ascii_lowercase17h401d527f685eee41E"(ptr align 1 %self) #17, !dbg !1737
  %_4 = zext i1 %_5 to i8, !dbg !1738
  %0 = call { i8, i1 } @llvm.umul.with.overflow.i8(i8 %_4, i8 32), !dbg !1739
  %_6.0 = extractvalue { i8, i1 } %0, 0, !dbg !1739
  %_6.1 = extractvalue { i8, i1 } %0, 1, !dbg !1739
  %1 = call i1 @llvm.expect.i1(i1 %_6.1, i1 false), !dbg !1739
  br i1 %1, label %panic, label %bb2, !dbg !1739

bb2:                                              ; preds = %start
  %2 = xor i8 %_2, %_6.0, !dbg !1736
  ret i8 %2, !dbg !1740

panic:                                            ; preds = %start
; call core::panicking::panic
  call void @_ZN4core9panicking5panic17h89fb6d2dca04318dE(ptr align 1 @str.3, i64 33, ptr align 8 @alloc_197ff2b1f35e9df4c9071866b5a5c88f) #18, !dbg !1739
  unreachable, !dbg !1739
}

; core::num::<impl u16>::is_utf16_surrogate
; Function Attrs: inlinehint noredzone nounwind
define internal zeroext i1 @"_ZN4core3num21_$LT$impl$u20$u16$GT$18is_utf16_surrogate17h65f3625dd0bb98dfE"(i16 %self) unnamed_addr #1 !dbg !1741 {
start:
  %self.dbg.spill = alloca i16, align 2
  %0 = alloca i8, align 1
  store i16 %self, ptr %self.dbg.spill, align 2
  call void @llvm.dbg.declare(metadata ptr %self.dbg.spill, metadata !1746, metadata !DIExpression()), !dbg !1747
  %_2 = icmp ule i16 -10240, %self, !dbg !1748
  br i1 %_2, label %bb1, label %bb2, !dbg !1748

bb2:                                              ; preds = %bb1, %start
  store i8 0, ptr %0, align 1, !dbg !1749
  br label %bb4, !dbg !1749

bb1:                                              ; preds = %start
  %_3 = icmp ule i16 %self, -8193, !dbg !1748
  br i1 %_3, label %bb3, label %bb2, !dbg !1748

bb3:                                              ; preds = %bb1
  store i8 1, ptr %0, align 1, !dbg !1749
  br label %bb4, !dbg !1749

bb4:                                              ; preds = %bb2, %bb3
  %1 = load i8, ptr %0, align 1, !dbg !1750, !range !673, !noundef !45
  %2 = trunc i8 %1 to i1, !dbg !1750
  ret i1 %2, !dbg !1750
}

; core::num::<impl usize>::checked_add
; Function Attrs: inlinehint noredzone nounwind
define internal { i64, i64 } @"_ZN4core3num23_$LT$impl$u20$usize$GT$11checked_add17h986b195e5d067e13E"(i64 %self, i64 %rhs) unnamed_addr #1 !dbg !1751 {
start:
  %b.dbg.spill.i = alloca i8, align 1
  %a.dbg.spill.i = alloca i64, align 8
  %rhs.dbg.spill.i = alloca i64, align 8
  %self.dbg.spill.i = alloca i64, align 8
  %0 = alloca { i64, i8 }, align 8
  %1 = alloca i8, align 1
  %b.dbg.spill = alloca i8, align 1
  %a.dbg.spill = alloca i64, align 8
  %rhs.dbg.spill = alloca i64, align 8
  %self.dbg.spill = alloca i64, align 8
  %2 = alloca { i64, i64 }, align 8
  store i64 %self, ptr %self.dbg.spill, align 8
  call void @llvm.dbg.declare(metadata ptr %self.dbg.spill, metadata !1757, metadata !DIExpression()), !dbg !1762
  store i64 %rhs, ptr %rhs.dbg.spill, align 8
  call void @llvm.dbg.declare(metadata ptr %rhs.dbg.spill, metadata !1758, metadata !DIExpression()), !dbg !1763
  store i64 %self, ptr %self.dbg.spill.i, align 8
  call void @llvm.dbg.declare(metadata ptr %self.dbg.spill.i, metadata !1764, metadata !DIExpression()), !dbg !1777
  store i64 %rhs, ptr %rhs.dbg.spill.i, align 8
  call void @llvm.dbg.declare(metadata ptr %rhs.dbg.spill.i, metadata !1773, metadata !DIExpression()), !dbg !1779
  %3 = call { i64, i1 } @llvm.uadd.with.overflow.i64(i64 %self, i64 %rhs), !dbg !1780
  %_5.0.i = extractvalue { i64, i1 } %3, 0, !dbg !1780
  %_5.1.i = extractvalue { i64, i1 } %3, 1, !dbg !1780
  store i64 %_5.0.i, ptr %a.dbg.spill.i, align 8, !dbg !1781
  call void @llvm.dbg.declare(metadata ptr %a.dbg.spill.i, metadata !1774, metadata !DIExpression()), !dbg !1782
  %4 = zext i1 %_5.1.i to i8, !dbg !1783
  store i8 %4, ptr %b.dbg.spill.i, align 1, !dbg !1783
  call void @llvm.dbg.declare(metadata ptr %b.dbg.spill.i, metadata !1776, metadata !DIExpression()), !dbg !1784
  store i64 %_5.0.i, ptr %0, align 8, !dbg !1785
  %5 = getelementptr inbounds { i64, i8 }, ptr %0, i32 0, i32 1, !dbg !1785
  %6 = zext i1 %_5.1.i to i8, !dbg !1785
  store i8 %6, ptr %5, align 8, !dbg !1785
  %7 = load i64, ptr %0, align 8, !dbg !1786, !noundef !45
  %8 = getelementptr inbounds { i64, i8 }, ptr %0, i32 0, i32 1, !dbg !1786
  %9 = load i8, ptr %8, align 8, !dbg !1786, !range !673, !noundef !45
  %10 = trunc i8 %9 to i1, !dbg !1786
  %11 = zext i1 %10 to i8, !dbg !1786
  %12 = insertvalue { i64, i8 } undef, i64 %7, 0, !dbg !1786
  %13 = insertvalue { i64, i8 } %12, i8 %11, 1, !dbg !1786
  %_5.0 = extractvalue { i64, i8 } %13, 0, !dbg !1787
  %14 = extractvalue { i64, i8 } %13, 1, !dbg !1787
  %_5.1 = trunc i8 %14 to i1, !dbg !1787
  store i64 %_5.0, ptr %a.dbg.spill, align 8, !dbg !1788
  call void @llvm.dbg.declare(metadata ptr %a.dbg.spill, metadata !1759, metadata !DIExpression()), !dbg !1789
  %15 = zext i1 %_5.1 to i8, !dbg !1790
  store i8 %15, ptr %b.dbg.spill, align 1, !dbg !1790
  call void @llvm.dbg.declare(metadata ptr %b.dbg.spill, metadata !1761, metadata !DIExpression()), !dbg !1791
  %16 = call i1 @llvm.expect.i1(i1 %_5.1, i1 false), !dbg !1792
  %17 = zext i1 %16 to i8, !dbg !1792
  store i8 %17, ptr %1, align 1, !dbg !1792
  %18 = load i8, ptr %1, align 1, !dbg !1792, !range !673, !noundef !45
  %_6 = trunc i8 %18 to i1, !dbg !1792
  br i1 %_6, label %bb3, label %bb4, !dbg !1792

bb4:                                              ; preds = %start
  %19 = getelementptr inbounds { i64, i64 }, ptr %2, i32 0, i32 1, !dbg !1793
  store i64 %_5.0, ptr %19, align 8, !dbg !1793
  store i64 1, ptr %2, align 8, !dbg !1793
  br label %bb5, !dbg !1794

bb3:                                              ; preds = %start
  store i64 0, ptr %2, align 8, !dbg !1795
  br label %bb5, !dbg !1794

bb5:                                              ; preds = %bb4, %bb3
  %20 = getelementptr inbounds { i64, i64 }, ptr %2, i32 0, i32 0, !dbg !1796
  %21 = load i64, ptr %20, align 8, !dbg !1796, !range !1797, !noundef !45
  %22 = getelementptr inbounds { i64, i64 }, ptr %2, i32 0, i32 1, !dbg !1796
  %23 = load i64, ptr %22, align 8, !dbg !1796
  %24 = insertvalue { i64, i64 } undef, i64 %21, 0, !dbg !1796
  %25 = insertvalue { i64, i64 } %24, i64 %23, 1, !dbg !1796
  ret { i64, i64 } %25, !dbg !1796
}

; core::num::<impl usize>::checked_mul
; Function Attrs: inlinehint noredzone nounwind
define internal { i64, i64 } @"_ZN4core3num23_$LT$impl$u20$usize$GT$11checked_mul17h9e4495e66fe1dbcbE"(i64 %self, i64 %rhs) unnamed_addr #1 !dbg !1798 {
start:
  %b.dbg.spill.i = alloca i8, align 1
  %a.dbg.spill.i = alloca i64, align 8
  %rhs.dbg.spill.i = alloca i64, align 8
  %self.dbg.spill.i = alloca i64, align 8
  %0 = alloca { i64, i8 }, align 8
  %1 = alloca i8, align 1
  %b.dbg.spill = alloca i8, align 1
  %a.dbg.spill = alloca i64, align 8
  %rhs.dbg.spill = alloca i64, align 8
  %self.dbg.spill = alloca i64, align 8
  %2 = alloca { i64, i64 }, align 8
  store i64 %self, ptr %self.dbg.spill, align 8
  call void @llvm.dbg.declare(metadata ptr %self.dbg.spill, metadata !1800, metadata !DIExpression()), !dbg !1805
  store i64 %rhs, ptr %rhs.dbg.spill, align 8
  call void @llvm.dbg.declare(metadata ptr %rhs.dbg.spill, metadata !1801, metadata !DIExpression()), !dbg !1806
  store i64 %self, ptr %self.dbg.spill.i, align 8
  call void @llvm.dbg.declare(metadata ptr %self.dbg.spill.i, metadata !1807, metadata !DIExpression()), !dbg !1814
  store i64 %rhs, ptr %rhs.dbg.spill.i, align 8
  call void @llvm.dbg.declare(metadata ptr %rhs.dbg.spill.i, metadata !1810, metadata !DIExpression()), !dbg !1816
  %3 = call { i64, i1 } @llvm.umul.with.overflow.i64(i64 %self, i64 %rhs), !dbg !1817
  %_5.0.i = extractvalue { i64, i1 } %3, 0, !dbg !1817
  %_5.1.i = extractvalue { i64, i1 } %3, 1, !dbg !1817
  store i64 %_5.0.i, ptr %a.dbg.spill.i, align 8, !dbg !1818
  call void @llvm.dbg.declare(metadata ptr %a.dbg.spill.i, metadata !1811, metadata !DIExpression()), !dbg !1819
  %4 = zext i1 %_5.1.i to i8, !dbg !1820
  store i8 %4, ptr %b.dbg.spill.i, align 1, !dbg !1820
  call void @llvm.dbg.declare(metadata ptr %b.dbg.spill.i, metadata !1813, metadata !DIExpression()), !dbg !1821
  store i64 %_5.0.i, ptr %0, align 8, !dbg !1822
  %5 = getelementptr inbounds { i64, i8 }, ptr %0, i32 0, i32 1, !dbg !1822
  %6 = zext i1 %_5.1.i to i8, !dbg !1822
  store i8 %6, ptr %5, align 8, !dbg !1822
  %7 = load i64, ptr %0, align 8, !dbg !1823, !noundef !45
  %8 = getelementptr inbounds { i64, i8 }, ptr %0, i32 0, i32 1, !dbg !1823
  %9 = load i8, ptr %8, align 8, !dbg !1823, !range !673, !noundef !45
  %10 = trunc i8 %9 to i1, !dbg !1823
  %11 = zext i1 %10 to i8, !dbg !1823
  %12 = insertvalue { i64, i8 } undef, i64 %7, 0, !dbg !1823
  %13 = insertvalue { i64, i8 } %12, i8 %11, 1, !dbg !1823
  %_5.0 = extractvalue { i64, i8 } %13, 0, !dbg !1824
  %14 = extractvalue { i64, i8 } %13, 1, !dbg !1824
  %_5.1 = trunc i8 %14 to i1, !dbg !1824
  store i64 %_5.0, ptr %a.dbg.spill, align 8, !dbg !1825
  call void @llvm.dbg.declare(metadata ptr %a.dbg.spill, metadata !1802, metadata !DIExpression()), !dbg !1826
  %15 = zext i1 %_5.1 to i8, !dbg !1827
  store i8 %15, ptr %b.dbg.spill, align 1, !dbg !1827
  call void @llvm.dbg.declare(metadata ptr %b.dbg.spill, metadata !1804, metadata !DIExpression()), !dbg !1828
  %16 = call i1 @llvm.expect.i1(i1 %_5.1, i1 false), !dbg !1829
  %17 = zext i1 %16 to i8, !dbg !1829
  store i8 %17, ptr %1, align 1, !dbg !1829
  %18 = load i8, ptr %1, align 1, !dbg !1829, !range !673, !noundef !45
  %_6 = trunc i8 %18 to i1, !dbg !1829
  br i1 %_6, label %bb3, label %bb4, !dbg !1829

bb4:                                              ; preds = %start
  %19 = getelementptr inbounds { i64, i64 }, ptr %2, i32 0, i32 1, !dbg !1830
  store i64 %_5.0, ptr %19, align 8, !dbg !1830
  store i64 1, ptr %2, align 8, !dbg !1830
  br label %bb5, !dbg !1831

bb3:                                              ; preds = %start
  store i64 0, ptr %2, align 8, !dbg !1832
  br label %bb5, !dbg !1831

bb5:                                              ; preds = %bb4, %bb3
  %20 = getelementptr inbounds { i64, i64 }, ptr %2, i32 0, i32 0, !dbg !1833
  %21 = load i64, ptr %20, align 8, !dbg !1833, !range !1797, !noundef !45
  %22 = getelementptr inbounds { i64, i64 }, ptr %2, i32 0, i32 1, !dbg !1833
  %23 = load i64, ptr %22, align 8, !dbg !1833
  %24 = insertvalue { i64, i64 } undef, i64 %21, 0, !dbg !1833
  %25 = insertvalue { i64, i64 } %24, i64 %23, 1, !dbg !1833
  ret { i64, i64 } %25, !dbg !1833
}

; core::num::nonzero::NonZeroUsize::new_unchecked
; Function Attrs: inlinehint noredzone nounwind
define internal i64 @_ZN4core3num7nonzero12NonZeroUsize13new_unchecked17he00ee406346915ccE(i64 %n) unnamed_addr #1 !dbg !1834 {
start:
  %n.dbg.spill.i = alloca i64, align 8
  %n.dbg.spill = alloca i64, align 8
  %_3 = alloca i64, align 8
  %0 = alloca i64, align 8
  store i64 %n, ptr %n.dbg.spill, align 8
  call void @llvm.dbg.declare(metadata ptr %n.dbg.spill, metadata !1843, metadata !DIExpression()), !dbg !1844
  store i64 %n, ptr %_3, align 8, !dbg !1845
  %1 = load i64, ptr %_3, align 8, !dbg !1845, !noundef !45
  store i64 %1, ptr %n.dbg.spill.i, align 8
  call void @llvm.dbg.declare(metadata ptr %n.dbg.spill.i, metadata !1846, metadata !DIExpression()), !dbg !1853
  %_3.i = icmp ne i64 %1, 0, !dbg !1855
  %_2.i = xor i1 %_3.i, true, !dbg !1857
  br i1 %_2.i, label %bb1.i, label %_ZN4core3num7nonzero12NonZeroUsize13new_unchecked7runtime17hed38a25bfe80d5dcE.exit, !dbg !1857

bb1.i:                                            ; preds = %start
; call core::panicking::panic_nounwind
  call void @_ZN4core9panicking14panic_nounwind17h5e7e5c0cee2d3924E(ptr align 1 @alloc_b2e55a4cbcb6887201afb45ca4813535, i64 89) #18, !dbg !1858
  unreachable, !dbg !1858

_ZN4core3num7nonzero12NonZeroUsize13new_unchecked7runtime17hed38a25bfe80d5dcE.exit: ; preds = %start
  store i64 %n, ptr %0, align 8, !dbg !1859
  %2 = load i64, ptr %0, align 8, !dbg !1860, !range !1861, !noundef !45
  ret i64 %2, !dbg !1860
}

; core::num::nonzero::NonZeroUsize::get
; Function Attrs: inlinehint noredzone nounwind
define internal i64 @_ZN4core3num7nonzero12NonZeroUsize3get17hf16ab339941c792cE(i64 %self) unnamed_addr #1 !dbg !1862 {
start:
  %self.dbg.spill = alloca i64, align 8
  store i64 %self, ptr %self.dbg.spill, align 8
  call void @llvm.dbg.declare(metadata ptr %self.dbg.spill, metadata !1866, metadata !DIExpression()), !dbg !1867
  ret i64 %self, !dbg !1868
}

; core::ops::control_flow::ControlFlow<B,C>::break_value
; Function Attrs: inlinehint noredzone nounwind
define i32 @"_ZN4core3ops12control_flow24ControlFlow$LT$B$C$C$GT$11break_value17h45732fb25270a50aE"(i32 %0) unnamed_addr #1 !dbg !1869 {
start:
  %x.dbg.spill = alloca i32, align 4
  %1 = alloca i32, align 4
  %self = alloca i32, align 4
  store i32 %0, ptr %self, align 4
  call void @llvm.dbg.declare(metadata ptr %self, metadata !1873, metadata !DIExpression()), !dbg !1876
  %2 = load i32, ptr %self, align 4, !dbg !1877, !range !527, !noundef !45
  %3 = icmp eq i32 %2, 1114112, !dbg !1877
  %_2 = select i1 %3, i64 0, i64 1, !dbg !1877
  %4 = icmp eq i64 %_2, 0, !dbg !1878
  br i1 %4, label %bb3, label %bb1, !dbg !1878

bb3:                                              ; preds = %start
  store i32 1114112, ptr %1, align 4, !dbg !1879
  br label %bb6, !dbg !1879

bb1:                                              ; preds = %start
  %x = load i32, ptr %self, align 4, !dbg !1880, !range !523, !noundef !45
  store i32 %x, ptr %x.dbg.spill, align 4, !dbg !1880
  call void @llvm.dbg.declare(metadata ptr %x.dbg.spill, metadata !1874, metadata !DIExpression()), !dbg !1881
  store i32 %x, ptr %1, align 4, !dbg !1882
  br label %bb6, !dbg !1883

bb2:                                              ; No predecessors!
  unreachable, !dbg !1877

bb6:                                              ; preds = %bb3, %bb1
  %5 = load i32, ptr %self, align 4, !dbg !1884, !range !527, !noundef !45
  %6 = icmp eq i32 %5, 1114112, !dbg !1884
  %_4 = select i1 %6, i64 0, i64 1, !dbg !1884
  %7 = icmp eq i64 %_4, 1, !dbg !1884
  br i1 %7, label %bb4, label %bb5, !dbg !1884

bb4:                                              ; preds = %bb5, %bb6
  %8 = load i32, ptr %1, align 4, !dbg !1885, !range !527, !noundef !45
  ret i32 %8, !dbg !1885

bb5:                                              ; preds = %bb6
  br label %bb4, !dbg !1884
}

; core::ops::function::FnOnce::call_once
; Function Attrs: inlinehint noredzone nounwind
define internal i8 @_ZN4core3ops8function6FnOnce9call_once17h823c194015f78686E(ptr align 8 %0, ptr align 8 %1) unnamed_addr #1 !dbg !1886 {
start:
  %_1.dbg.spill = alloca {}, align 1
  %_2 = alloca { ptr, ptr }, align 8
  store ptr %0, ptr %_2, align 8
  %2 = getelementptr inbounds { ptr, ptr }, ptr %_2, i32 0, i32 1
  store ptr %1, ptr %2, align 8
  call void @llvm.dbg.declare(metadata ptr %_1.dbg.spill, metadata !1893, metadata !DIExpression()), !dbg !1902
  call void @llvm.dbg.declare(metadata ptr %_2, metadata !1894, metadata !DIExpression()), !dbg !1902
  %3 = load ptr, ptr %_2, align 8, !dbg !1902, !nonnull !45, !align !1159, !noundef !45
  %4 = getelementptr inbounds { ptr, ptr }, ptr %_2, i32 0, i32 1, !dbg !1902
  %5 = load ptr, ptr %4, align 8, !dbg !1902, !nonnull !45, !align !1159, !noundef !45
; call <core::ptr::alignment::Alignment as core::cmp::Ord>::cmp
  %6 = call i8 @"_ZN66_$LT$core..ptr..alignment..Alignment$u20$as$u20$core..cmp..Ord$GT$3cmp17hb62d92d1e772ae58E"(ptr align 8 %3, ptr align 8 %5) #17, !dbg !1902, !range !1391
  ret i8 %6, !dbg !1902
}

; core::ptr::drop_in_place<<alloc::vec::drain::Drain<T,A> as core::ops::drop::Drop>::drop::DropGuard<u8,alloc::alloc::Global>>
; Function Attrs: noredzone nounwind
define void @"_ZN4core3ptr149drop_in_place$LT$$LT$alloc..vec..drain..Drain$LT$T$C$A$GT$$u20$as$u20$core..ops..drop..Drop$GT$..drop..DropGuard$LT$u8$C$alloc..alloc..Global$GT$$GT$17h17806681c05e0e09E"(ptr %_1) unnamed_addr #0 !dbg !1903 {
start:
  %_1.dbg.spill = alloca ptr, align 8
  store ptr %_1, ptr %_1.dbg.spill, align 8
  call void @llvm.dbg.declare(metadata ptr %_1.dbg.spill, metadata !1926, metadata !DIExpression()), !dbg !1929
; call <<alloc::vec::drain::Drain<T,A> as core::ops::drop::Drop>::drop::DropGuard<T,A> as core::ops::drop::Drop>::drop
  call void @"_ZN150_$LT$$LT$alloc..vec..drain..Drain$LT$T$C$A$GT$$u20$as$u20$core..ops..drop..Drop$GT$..drop..DropGuard$LT$T$C$A$GT$$u20$as$u20$core..ops..drop..Drop$GT$4drop17h442aea4435ab282fE"(ptr align 8 %_1) #17, !dbg !1929
  ret void, !dbg !1929
}

; core::ptr::read_unaligned
; Function Attrs: inlinehint noredzone nounwind
define i64 @_ZN4core3ptr14read_unaligned17hc3acd15732acb7b0E(ptr %src) unnamed_addr #1 !dbg !1930 {
start:
  %slot.dbg.spill.i = alloca i64, align 8
  %0 = alloca i64, align 8
  %self.dbg.spill.i1 = alloca i64, align 8
  %self.dbg.spill.i = alloca ptr, align 8
  %src.dbg.spill = alloca ptr, align 8
  %tmp = alloca i64, align 8
  store ptr %src, ptr %src.dbg.spill, align 8
  call void @llvm.dbg.declare(metadata ptr %src.dbg.spill, metadata !1935, metadata !DIExpression()), !dbg !1945
  call void @llvm.dbg.declare(metadata ptr %tmp, metadata !1936, metadata !DIExpression()), !dbg !1946
  %1 = load i64, ptr %0, align 8, !dbg !1947
  store i64 %1, ptr %tmp, align 8, !dbg !1953
  store ptr %tmp, ptr %self.dbg.spill.i, align 8
  call void @llvm.dbg.declare(metadata ptr %self.dbg.spill.i, metadata !1954, metadata !DIExpression()), !dbg !1961
; call core::intrinsics::copy_nonoverlapping
  call void @_ZN4core10intrinsics19copy_nonoverlapping17hff6acf8c787947dfE(ptr %src, ptr %tmp, i64 8) #17, !dbg !1963
  %_9 = load i64, ptr %tmp, align 8, !dbg !1964
  store i64 %_9, ptr %self.dbg.spill.i1, align 8
  call void @llvm.dbg.declare(metadata ptr %self.dbg.spill.i1, metadata !1965, metadata !DIExpression()), !dbg !1970
  store i64 %_9, ptr %slot.dbg.spill.i, align 8
  call void @llvm.dbg.declare(metadata ptr %slot.dbg.spill.i, metadata !1972, metadata !DIExpression()), !dbg !1978
  ret i64 %_9, !dbg !1980
}

; core::ptr::drop_in_place<<alloc::boxed::Box<dyn core::error::Error+core::marker::Send+core::marker::Sync> as core::convert::From<alloc::string::String>>::from::StringError>
; Function Attrs: noredzone nounwind
define void @"_ZN4core3ptr205drop_in_place$LT$$LT$alloc..boxed..Box$LT$dyn$u20$core..error..Error$u2b$core..marker..Send$u2b$core..marker..Sync$GT$$u20$as$u20$core..convert..From$LT$alloc..string..String$GT$$GT$..from..StringError$GT$17h996a1f7630265b0eE"(ptr %_1) unnamed_addr #0 !dbg !1981 {
start:
  %_1.dbg.spill = alloca ptr, align 8
  store ptr %_1, ptr %_1.dbg.spill, align 8
  call void @llvm.dbg.declare(metadata ptr %_1.dbg.spill, metadata !1986, metadata !DIExpression()), !dbg !1987
; call core::ptr::drop_in_place<alloc::string::String>
  call void @"_ZN4core3ptr42drop_in_place$LT$alloc..string..String$GT$17h2254349ab55352cdE"(ptr %_1) #17, !dbg !1987
  ret void, !dbg !1987
}

; core::ptr::slice_from_raw_parts_mut
; Function Attrs: inlinehint noredzone nounwind
define { ptr, i64 } @_ZN4core3ptr24slice_from_raw_parts_mut17h853ec850d3fc3d0cE(ptr %data, i64 %len) unnamed_addr #1 !dbg !1988 {
start:
  %self.dbg.spill.i = alloca ptr, align 8
  %len.dbg.spill = alloca i64, align 8
  %data.dbg.spill = alloca ptr, align 8
  store ptr %data, ptr %data.dbg.spill, align 8
  call void @llvm.dbg.declare(metadata ptr %data.dbg.spill, metadata !1998, metadata !DIExpression()), !dbg !2000
  store i64 %len, ptr %len.dbg.spill, align 8
  call void @llvm.dbg.declare(metadata ptr %len.dbg.spill, metadata !1999, metadata !DIExpression()), !dbg !2001
  store ptr %data, ptr %self.dbg.spill.i, align 8
  call void @llvm.dbg.declare(metadata ptr %self.dbg.spill.i, metadata !2002, metadata !DIExpression()), !dbg !2013
; call core::ptr::metadata::from_raw_parts_mut
  %0 = call { ptr, i64 } @_ZN4core3ptr8metadata18from_raw_parts_mut17hd94a776a912c3c9cE(ptr %data, i64 %len) #17, !dbg !2015
  %1 = extractvalue { ptr, i64 } %0, 0, !dbg !2015
  %2 = extractvalue { ptr, i64 } %0, 1, !dbg !2015
  %3 = insertvalue { ptr, i64 } undef, ptr %1, 0, !dbg !2016
  %4 = insertvalue { ptr, i64 } %3, i64 %2, 1, !dbg !2016
  ret { ptr, i64 } %4, !dbg !2016
}

; core::ptr::drop_in_place<usize>
; Function Attrs: inlinehint noredzone nounwind
define internal void @"_ZN4core3ptr26drop_in_place$LT$usize$GT$17h9af800b9ffc2209bE"(ptr %_1) unnamed_addr #1 !dbg !2017 {
start:
  %_1.dbg.spill = alloca ptr, align 8
  store ptr %_1, ptr %_1.dbg.spill, align 8
  call void @llvm.dbg.declare(metadata ptr %_1.dbg.spill, metadata !2021, metadata !DIExpression()), !dbg !2022
  ret void, !dbg !2022
}

; core::ptr::drop_in_place<&str>
; Function Attrs: inlinehint noredzone nounwind
define internal void @"_ZN4core3ptr28drop_in_place$LT$$RF$str$GT$17h425384f8669752d8E"(ptr %_1) unnamed_addr #1 !dbg !2023 {
start:
  %_1.dbg.spill = alloca ptr, align 8
  store ptr %_1, ptr %_1.dbg.spill, align 8
  call void @llvm.dbg.declare(metadata ptr %_1.dbg.spill, metadata !2028, metadata !DIExpression()), !dbg !2029
  ret void, !dbg !2029
}

; core::ptr::drop_in_place<&usize>
; Function Attrs: inlinehint noredzone nounwind
define internal void @"_ZN4core3ptr30drop_in_place$LT$$RF$usize$GT$17h9df263826f7fdbadE"(ptr %_1) unnamed_addr #1 !dbg !2030 {
start:
  %_1.dbg.spill = alloca ptr, align 8
  store ptr %_1, ptr %_1.dbg.spill, align 8
  call void @llvm.dbg.declare(metadata ptr %_1.dbg.spill, metadata !2035, metadata !DIExpression()), !dbg !2038
  ret void, !dbg !2038
}

; core::ptr::drop_in_place<&()>
; Function Attrs: inlinehint noredzone nounwind
define internal void @"_ZN4core3ptr33drop_in_place$LT$$RF$$LP$$RP$$GT$17h42411c55286b31a8E"(ptr %_1) unnamed_addr #1 !dbg !2039 {
start:
  %_1.dbg.spill = alloca ptr, align 8
  store ptr %_1, ptr %_1.dbg.spill, align 8
  call void @llvm.dbg.declare(metadata ptr %_1.dbg.spill, metadata !2044, metadata !DIExpression()), !dbg !2047
  ret void, !dbg !2047
}

; core::ptr::drop_in_place<core::fmt::Error>
; Function Attrs: inlinehint noredzone nounwind
define internal void @"_ZN4core3ptr37drop_in_place$LT$core..fmt..Error$GT$17hc108cbe123dc37adE"(ptr %_1) unnamed_addr #1 !dbg !2048 {
start:
  %_1.dbg.spill = alloca ptr, align 8
  store ptr %_1, ptr %_1.dbg.spill, align 8
  call void @llvm.dbg.declare(metadata ptr %_1.dbg.spill, metadata !2053, metadata !DIExpression()), !dbg !2056
  ret void, !dbg !2056
}

; core::ptr::drop_in_place<alloc::string::String>
; Function Attrs: noredzone nounwind
define void @"_ZN4core3ptr42drop_in_place$LT$alloc..string..String$GT$17h2254349ab55352cdE"(ptr %_1) unnamed_addr #0 !dbg !2057 {
start:
  %_1.dbg.spill = alloca ptr, align 8
  store ptr %_1, ptr %_1.dbg.spill, align 8
  call void @llvm.dbg.declare(metadata ptr %_1.dbg.spill, metadata !2062, metadata !DIExpression()), !dbg !2063
; call core::ptr::drop_in_place<alloc::vec::Vec<u8>>
  call void @"_ZN4core3ptr46drop_in_place$LT$alloc..vec..Vec$LT$u8$GT$$GT$17h8b2112aa825e6ef9E"(ptr %_1) #17, !dbg !2063
  ret void, !dbg !2063
}

; core::ptr::drop_in_place<alloc::vec::Vec<u8>>
; Function Attrs: noredzone nounwind
define void @"_ZN4core3ptr46drop_in_place$LT$alloc..vec..Vec$LT$u8$GT$$GT$17h8b2112aa825e6ef9E"(ptr %_1) unnamed_addr #0 !dbg !2064 {
start:
  %_1.dbg.spill = alloca ptr, align 8
  store ptr %_1, ptr %_1.dbg.spill, align 8
  call void @llvm.dbg.declare(metadata ptr %_1.dbg.spill, metadata !2069, metadata !DIExpression()), !dbg !2070
; call <alloc::vec::Vec<T,A> as core::ops::drop::Drop>::drop
  call void @"_ZN70_$LT$alloc..vec..Vec$LT$T$C$A$GT$$u20$as$u20$core..ops..drop..Drop$GT$4drop17h9452a7d31f766b00E"(ptr align 8 %_1) #17, !dbg !2070
; call core::ptr::drop_in_place<alloc::raw_vec::RawVec<u8>>
  call void @"_ZN4core3ptr53drop_in_place$LT$alloc..raw_vec..RawVec$LT$u8$GT$$GT$17h3e57bfa2296415acE"(ptr %_1) #17, !dbg !2070
  ret void, !dbg !2070
}

; core::ptr::drop_in_place<alloc::ffi::c_str::CString>
; Function Attrs: noredzone nounwind
define void @"_ZN4core3ptr47drop_in_place$LT$alloc..ffi..c_str..CString$GT$17h1855343d3c26b10dE"(ptr %_1) unnamed_addr #0 !dbg !2071 {
start:
  %_1.dbg.spill = alloca ptr, align 8
  store ptr %_1, ptr %_1.dbg.spill, align 8
  call void @llvm.dbg.declare(metadata ptr %_1.dbg.spill, metadata !2076, metadata !DIExpression()), !dbg !2079
; call <alloc::ffi::c_str::CString as core::ops::drop::Drop>::drop
  call void @"_ZN68_$LT$alloc..ffi..c_str..CString$u20$as$u20$core..ops..drop..Drop$GT$4drop17h75b61064575e8165E"(ptr align 8 %_1) #17, !dbg !2079
; call core::ptr::drop_in_place<alloc::boxed::Box<[u8]>>
  call void @"_ZN4core3ptr58drop_in_place$LT$alloc..boxed..Box$LT$$u5b$u8$u5d$$GT$$GT$17h394222bf9f2778faE"(ptr %_1) #17, !dbg !2079
  ret void, !dbg !2079
}

; core::ptr::drop_in_place<core::alloc::layout::Layout>
; Function Attrs: inlinehint noredzone nounwind
define internal void @"_ZN4core3ptr48drop_in_place$LT$core..alloc..layout..Layout$GT$17h40366a13cd7dfce8E"(ptr %_1) unnamed_addr #1 !dbg !2080 {
start:
  %_1.dbg.spill = alloca ptr, align 8
  store ptr %_1, ptr %_1.dbg.spill, align 8
  call void @llvm.dbg.declare(metadata ptr %_1.dbg.spill, metadata !2085, metadata !DIExpression()), !dbg !2088
  ret void, !dbg !2088
}

; core::ptr::drop_in_place<core::str::error::Utf8Error>
; Function Attrs: inlinehint noredzone nounwind
define internal void @"_ZN4core3ptr48drop_in_place$LT$core..str..error..Utf8Error$GT$17h8722002bc00b874fE"(ptr %_1) unnamed_addr #1 !dbg !2089 {
start:
  %_1.dbg.spill = alloca ptr, align 8
  store ptr %_1, ptr %_1.dbg.spill, align 8
  call void @llvm.dbg.declare(metadata ptr %_1.dbg.spill, metadata !2094, metadata !DIExpression()), !dbg !2095
  ret void, !dbg !2095
}

; core::ptr::read
; Function Attrs: inlinehint noredzone nounwind
define { ptr, i64 } @_ZN4core3ptr4read17h26b3e0b6a817afa0E(ptr %src) unnamed_addr #1 !dbg !2096 {
start:
  %src.dbg.spill.i = alloca ptr, align 8
  %slot.dbg.spill.i = alloca { ptr, i64 }, align 8
  %0 = alloca { ptr, i64 }, align 8
  %self.dbg.spill.i1 = alloca { ptr, i64 }, align 8
  %self.dbg.spill.i = alloca ptr, align 8
  %src.dbg.spill = alloca ptr, align 8
  %_4 = alloca ptr, align 8
  %tmp = alloca { ptr, i64 }, align 8
  store ptr %src, ptr %src.dbg.spill, align 8
  call void @llvm.dbg.declare(metadata ptr %src.dbg.spill, metadata !2100, metadata !DIExpression()), !dbg !2110
  call void @llvm.dbg.declare(metadata ptr %tmp, metadata !2101, metadata !DIExpression()), !dbg !2111
  %1 = load ptr, ptr %0, align 8, !dbg !2112
  %2 = getelementptr inbounds { ptr, i64 }, ptr %0, i32 0, i32 1, !dbg !2112
  %3 = load i64, ptr %2, align 8, !dbg !2112
  %4 = insertvalue { ptr, i64 } undef, ptr %1, 0, !dbg !2112
  %5 = insertvalue { ptr, i64 } %4, i64 %3, 1, !dbg !2112
  store { ptr, i64 } %5, ptr %tmp, align 8, !dbg !2117
  store ptr %src, ptr %_4, align 8, !dbg !2118
  %6 = load ptr, ptr %_4, align 8, !dbg !2118, !noundef !45
  store ptr %6, ptr %src.dbg.spill.i, align 8
  call void @llvm.dbg.declare(metadata ptr %src.dbg.spill.i, metadata !2119, metadata !DIExpression()), !dbg !2125
; call core::intrinsics::is_aligned_and_not_null
  %_3.i = call zeroext i1 @_ZN4core10intrinsics23is_aligned_and_not_null17hb8a5e17d810b5ea4E(ptr %6) #17, !dbg !2127
  %_2.i = xor i1 %_3.i, true, !dbg !2129
  br i1 %_2.i, label %bb2.i, label %_ZN4core3ptr4read7runtime17hf86868484263aa9eE.exit, !dbg !2129

bb2.i:                                            ; preds = %start
; call core::panicking::panic_nounwind
  call void @_ZN4core9panicking14panic_nounwind17h5e7e5c0cee2d3924E(ptr align 1 @alloc_efce4ff77543cc2403477cd546743a0c, i64 101) #18, !dbg !2130
  unreachable, !dbg !2130

_ZN4core3ptr4read7runtime17hf86868484263aa9eE.exit: ; preds = %start
  store ptr %tmp, ptr %self.dbg.spill.i, align 8
  call void @llvm.dbg.declare(metadata ptr %self.dbg.spill.i, metadata !2131, metadata !DIExpression()), !dbg !2138
  call void @llvm.memcpy.p0.p0.i64(ptr align 8 %tmp, ptr align 8 %src, i64 16, i1 false), !dbg !2140
  %7 = getelementptr inbounds { ptr, i64 }, ptr %tmp, i32 0, i32 0, !dbg !2141
  %_7.0 = load ptr, ptr %7, align 8, !dbg !2141
  %8 = getelementptr inbounds { ptr, i64 }, ptr %tmp, i32 0, i32 1, !dbg !2141
  %_7.1 = load i64, ptr %8, align 8, !dbg !2141
  store ptr %_7.0, ptr %self.dbg.spill.i1, align 8
  %9 = getelementptr inbounds { ptr, i64 }, ptr %self.dbg.spill.i1, i32 0, i32 1
  store i64 %_7.1, ptr %9, align 8
  call void @llvm.dbg.declare(metadata ptr %self.dbg.spill.i1, metadata !2142, metadata !DIExpression()), !dbg !2147
  store ptr %_7.0, ptr %slot.dbg.spill.i, align 8
  %10 = getelementptr inbounds { ptr, i64 }, ptr %slot.dbg.spill.i, i32 0, i32 1
  store i64 %_7.1, ptr %10, align 8
  call void @llvm.dbg.declare(metadata ptr %slot.dbg.spill.i, metadata !2149, metadata !DIExpression()), !dbg !2154
  %11 = insertvalue { ptr, i64 } undef, ptr %_7.0, 0, !dbg !2156
  %12 = insertvalue { ptr, i64 } %11, i64 %_7.1, 1, !dbg !2156
  %13 = extractvalue { ptr, i64 } %12, 0, !dbg !2157
  %14 = extractvalue { ptr, i64 } %12, 1, !dbg !2157
  %15 = extractvalue { ptr, i64 } %12, 0, !dbg !2141
  %16 = extractvalue { ptr, i64 } %12, 1, !dbg !2141
  %17 = insertvalue { ptr, i64 } undef, ptr %15, 0, !dbg !2158
  %18 = insertvalue { ptr, i64 } %17, i64 %16, 1, !dbg !2158
  ret { ptr, i64 } %18, !dbg !2158
}

; core::ptr::read
; Function Attrs: inlinehint noredzone nounwind
define { i16, i16 } @_ZN4core3ptr4read17h50291c10125f9973E(ptr %src) unnamed_addr #1 !dbg !2159 {
start:
  %src.dbg.spill.i = alloca ptr, align 8
  %slot.dbg.spill.i = alloca { i16, i16 }, align 2
  %0 = alloca { i16, i16 }, align 2
  %self.dbg.spill.i1 = alloca { i16, i16 }, align 2
  %self.dbg.spill.i = alloca ptr, align 8
  %src.dbg.spill = alloca ptr, align 8
  %_4 = alloca ptr, align 8
  %tmp = alloca { i16, i16 }, align 2
  store ptr %src, ptr %src.dbg.spill, align 8
  call void @llvm.dbg.declare(metadata ptr %src.dbg.spill, metadata !2163, metadata !DIExpression()), !dbg !2173
  call void @llvm.dbg.declare(metadata ptr %tmp, metadata !2164, metadata !DIExpression()), !dbg !2174
  %1 = load i16, ptr %0, align 2, !dbg !2175
  %2 = getelementptr inbounds { i16, i16 }, ptr %0, i32 0, i32 1, !dbg !2175
  %3 = load i16, ptr %2, align 2, !dbg !2175
  %4 = insertvalue { i16, i16 } undef, i16 %1, 0, !dbg !2175
  %5 = insertvalue { i16, i16 } %4, i16 %3, 1, !dbg !2175
  store { i16, i16 } %5, ptr %tmp, align 2, !dbg !2180
  store ptr %src, ptr %_4, align 8, !dbg !2181
  %6 = load ptr, ptr %_4, align 8, !dbg !2181, !noundef !45
  store ptr %6, ptr %src.dbg.spill.i, align 8
  call void @llvm.dbg.declare(metadata ptr %src.dbg.spill.i, metadata !2182, metadata !DIExpression()), !dbg !2187
; call core::intrinsics::is_aligned_and_not_null
  %_3.i = call zeroext i1 @_ZN4core10intrinsics23is_aligned_and_not_null17hedbc77d5634e60acE(ptr %6) #17, !dbg !2189
  %_2.i = xor i1 %_3.i, true, !dbg !2191
  br i1 %_2.i, label %bb2.i, label %_ZN4core3ptr4read7runtime17hedd9bd01a8c27126E.exit, !dbg !2191

bb2.i:                                            ; preds = %start
; call core::panicking::panic_nounwind
  call void @_ZN4core9panicking14panic_nounwind17h5e7e5c0cee2d3924E(ptr align 1 @alloc_efce4ff77543cc2403477cd546743a0c, i64 101) #18, !dbg !2192
  unreachable, !dbg !2192

_ZN4core3ptr4read7runtime17hedd9bd01a8c27126E.exit: ; preds = %start
  store ptr %tmp, ptr %self.dbg.spill.i, align 8
  call void @llvm.dbg.declare(metadata ptr %self.dbg.spill.i, metadata !2193, metadata !DIExpression()), !dbg !2200
  call void @llvm.memcpy.p0.p0.i64(ptr align 2 %tmp, ptr align 2 %src, i64 4, i1 false), !dbg !2202
  %7 = getelementptr inbounds { i16, i16 }, ptr %tmp, i32 0, i32 0, !dbg !2203
  %_7.0 = load i16, ptr %7, align 2, !dbg !2203
  %8 = getelementptr inbounds { i16, i16 }, ptr %tmp, i32 0, i32 1, !dbg !2203
  %_7.1 = load i16, ptr %8, align 2, !dbg !2203
  store i16 %_7.0, ptr %self.dbg.spill.i1, align 2
  %9 = getelementptr inbounds { i16, i16 }, ptr %self.dbg.spill.i1, i32 0, i32 1
  store i16 %_7.1, ptr %9, align 2
  call void @llvm.dbg.declare(metadata ptr %self.dbg.spill.i1, metadata !2204, metadata !DIExpression()), !dbg !2209
  store i16 %_7.0, ptr %slot.dbg.spill.i, align 2
  %10 = getelementptr inbounds { i16, i16 }, ptr %slot.dbg.spill.i, i32 0, i32 1
  store i16 %_7.1, ptr %10, align 2
  call void @llvm.dbg.declare(metadata ptr %slot.dbg.spill.i, metadata !2211, metadata !DIExpression()), !dbg !2216
  %11 = insertvalue { i16, i16 } undef, i16 %_7.0, 0, !dbg !2218
  %12 = insertvalue { i16, i16 } %11, i16 %_7.1, 1, !dbg !2218
  %13 = extractvalue { i16, i16 } %12, 0, !dbg !2219
  %14 = extractvalue { i16, i16 } %12, 1, !dbg !2219
  %15 = extractvalue { i16, i16 } %12, 0, !dbg !2203
  %16 = extractvalue { i16, i16 } %12, 1, !dbg !2203
  %17 = insertvalue { i16, i16 } undef, i16 %15, 0, !dbg !2220
  %18 = insertvalue { i16, i16 } %17, i16 %16, 1, !dbg !2220
  ret { i16, i16 } %18, !dbg !2220
}

; core::ptr::read
; Function Attrs: inlinehint noredzone nounwind
define void @_ZN4core3ptr4read17h80f019b407802b95E(ptr %src) unnamed_addr #1 !dbg !2221 {
start:
  %src.dbg.spill.i = alloca ptr, align 8
  %self.dbg.spill.i = alloca ptr, align 8
  %src.dbg.spill = alloca ptr, align 8
  %_4 = alloca ptr, align 8
  %tmp = alloca %"core::mem::maybe_uninit::MaybeUninit<alloc::Global>", align 1
  store ptr %src, ptr %src.dbg.spill, align 8
  call void @llvm.dbg.declare(metadata ptr %src.dbg.spill, metadata !2225, metadata !DIExpression()), !dbg !2235
  call void @llvm.dbg.declare(metadata ptr %tmp, metadata !2226, metadata !DIExpression()), !dbg !2236
  store ptr %src, ptr %_4, align 8, !dbg !2237
  %0 = load ptr, ptr %_4, align 8, !dbg !2237, !noundef !45
  store ptr %0, ptr %src.dbg.spill.i, align 8
  call void @llvm.dbg.declare(metadata ptr %src.dbg.spill.i, metadata !2238, metadata !DIExpression()), !dbg !2241
; call core::intrinsics::is_aligned_and_not_null
  %_3.i = call zeroext i1 @_ZN4core10intrinsics23is_aligned_and_not_null17h93e02132c34304b2E(ptr %0) #17, !dbg !2243
  %_2.i = xor i1 %_3.i, true, !dbg !2245
  br i1 %_2.i, label %bb2.i, label %_ZN4core3ptr4read7runtime17h9f74fc90c840890bE.exit, !dbg !2245

bb2.i:                                            ; preds = %start
; call core::panicking::panic_nounwind
  call void @_ZN4core9panicking14panic_nounwind17h5e7e5c0cee2d3924E(ptr align 1 @alloc_efce4ff77543cc2403477cd546743a0c, i64 101) #18, !dbg !2246
  unreachable, !dbg !2246

_ZN4core3ptr4read7runtime17h9f74fc90c840890bE.exit: ; preds = %start
  store ptr %tmp, ptr %self.dbg.spill.i, align 8
  call void @llvm.dbg.declare(metadata ptr %self.dbg.spill.i, metadata !2247, metadata !DIExpression()), !dbg !2254
  call void @llvm.memcpy.p0.p0.i64(ptr align 1 %tmp, ptr align 1 %src, i64 0, i1 false), !dbg !2256
  call void @llvm.dbg.declare(metadata ptr undef, metadata !2257, metadata !DIExpression()), !dbg !2262
  call void @llvm.dbg.declare(metadata ptr undef, metadata !2264, metadata !DIExpression()), !dbg !2269
  ret void, !dbg !2271
}

; core::ptr::read
; Function Attrs: inlinehint noredzone nounwind
define { i64, ptr } @_ZN4core3ptr4read17h8b0a770eafd370a2E(ptr %src) unnamed_addr #1 !dbg !2272 {
start:
  %src.dbg.spill.i = alloca ptr, align 8
  %slot.dbg.spill.i = alloca { i64, ptr }, align 8
  %0 = alloca { i64, ptr }, align 8
  %self.dbg.spill.i1 = alloca { i64, ptr }, align 8
  %self.dbg.spill.i = alloca ptr, align 8
  %src.dbg.spill = alloca ptr, align 8
  %_4 = alloca ptr, align 8
  %tmp = alloca { i64, ptr }, align 8
  store ptr %src, ptr %src.dbg.spill, align 8
  call void @llvm.dbg.declare(metadata ptr %src.dbg.spill, metadata !2276, metadata !DIExpression()), !dbg !2286
  call void @llvm.dbg.declare(metadata ptr %tmp, metadata !2277, metadata !DIExpression()), !dbg !2287
  %1 = load i64, ptr %0, align 8, !dbg !2288
  %2 = getelementptr inbounds { i64, ptr }, ptr %0, i32 0, i32 1, !dbg !2288
  %3 = load ptr, ptr %2, align 8, !dbg !2288
  %4 = insertvalue { i64, ptr } undef, i64 %1, 0, !dbg !2288
  %5 = insertvalue { i64, ptr } %4, ptr %3, 1, !dbg !2288
  store { i64, ptr } %5, ptr %tmp, align 8, !dbg !2293
  store ptr %src, ptr %_4, align 8, !dbg !2294
  %6 = load ptr, ptr %_4, align 8, !dbg !2294, !noundef !45
  store ptr %6, ptr %src.dbg.spill.i, align 8
  call void @llvm.dbg.declare(metadata ptr %src.dbg.spill.i, metadata !2295, metadata !DIExpression()), !dbg !2300
; call core::intrinsics::is_aligned_and_not_null
  %_3.i = call zeroext i1 @_ZN4core10intrinsics23is_aligned_and_not_null17h87cab91c3f15e57bE(ptr %6) #17, !dbg !2302
  %_2.i = xor i1 %_3.i, true, !dbg !2304
  br i1 %_2.i, label %bb2.i, label %_ZN4core3ptr4read7runtime17h0c951c680e762f86E.exit, !dbg !2304

bb2.i:                                            ; preds = %start
; call core::panicking::panic_nounwind
  call void @_ZN4core9panicking14panic_nounwind17h5e7e5c0cee2d3924E(ptr align 1 @alloc_efce4ff77543cc2403477cd546743a0c, i64 101) #18, !dbg !2305
  unreachable, !dbg !2305

_ZN4core3ptr4read7runtime17h0c951c680e762f86E.exit: ; preds = %start
  store ptr %tmp, ptr %self.dbg.spill.i, align 8
  call void @llvm.dbg.declare(metadata ptr %self.dbg.spill.i, metadata !2306, metadata !DIExpression()), !dbg !2313
  call void @llvm.memcpy.p0.p0.i64(ptr align 8 %tmp, ptr align 8 %src, i64 16, i1 false), !dbg !2315
  %7 = getelementptr inbounds { i64, ptr }, ptr %tmp, i32 0, i32 0, !dbg !2316
  %_7.0 = load i64, ptr %7, align 8, !dbg !2316
  %8 = getelementptr inbounds { i64, ptr }, ptr %tmp, i32 0, i32 1, !dbg !2316
  %_7.1 = load ptr, ptr %8, align 8, !dbg !2316
  store i64 %_7.0, ptr %self.dbg.spill.i1, align 8
  %9 = getelementptr inbounds { i64, ptr }, ptr %self.dbg.spill.i1, i32 0, i32 1
  store ptr %_7.1, ptr %9, align 8
  call void @llvm.dbg.declare(metadata ptr %self.dbg.spill.i1, metadata !2317, metadata !DIExpression()), !dbg !2322
  store i64 %_7.0, ptr %slot.dbg.spill.i, align 8
  %10 = getelementptr inbounds { i64, ptr }, ptr %slot.dbg.spill.i, i32 0, i32 1
  store ptr %_7.1, ptr %10, align 8
  call void @llvm.dbg.declare(metadata ptr %slot.dbg.spill.i, metadata !2324, metadata !DIExpression()), !dbg !2329
  %11 = insertvalue { i64, ptr } undef, i64 %_7.0, 0, !dbg !2331
  %12 = insertvalue { i64, ptr } %11, ptr %_7.1, 1, !dbg !2331
  %13 = extractvalue { i64, ptr } %12, 0, !dbg !2332
  %14 = extractvalue { i64, ptr } %12, 1, !dbg !2332
  %15 = extractvalue { i64, ptr } %12, 0, !dbg !2316
  %16 = extractvalue { i64, ptr } %12, 1, !dbg !2316
  %17 = insertvalue { i64, ptr } undef, i64 %15, 0, !dbg !2333
  %18 = insertvalue { i64, ptr } %17, ptr %16, 1, !dbg !2333
  ret { i64, ptr } %18, !dbg !2333
}

; core::ptr::read
; Function Attrs: inlinehint noredzone nounwind
define void @_ZN4core3ptr4read17hb747880b223093e6E(ptr sret(%"string::String") %0, ptr %src) unnamed_addr #1 !dbg !2334 {
start:
  %src.dbg.spill.i = alloca ptr, align 8
  %_3.i = alloca %"core::mem::manually_drop::ManuallyDrop<string::String>", align 8
  %self.dbg.spill.i = alloca ptr, align 8
  %src.dbg.spill = alloca ptr, align 8
  %_7 = alloca %"core::mem::maybe_uninit::MaybeUninit<string::String>", align 8
  %_4 = alloca ptr, align 8
  %tmp = alloca %"core::mem::maybe_uninit::MaybeUninit<string::String>", align 8
  store ptr %src, ptr %src.dbg.spill, align 8
  call void @llvm.dbg.declare(metadata ptr %src.dbg.spill, metadata !2338, metadata !DIExpression()), !dbg !2348
  call void @llvm.dbg.declare(metadata ptr %tmp, metadata !2339, metadata !DIExpression()), !dbg !2349
  store ptr %src, ptr %_4, align 8, !dbg !2350
  %1 = load ptr, ptr %_4, align 8, !dbg !2350, !noundef !45
  store ptr %1, ptr %src.dbg.spill.i, align 8
  call void @llvm.dbg.declare(metadata ptr %src.dbg.spill.i, metadata !2351, metadata !DIExpression()), !dbg !2356
; call core::intrinsics::is_aligned_and_not_null
  %_3.i1 = call zeroext i1 @_ZN4core10intrinsics23is_aligned_and_not_null17hd6978d6dcad3c904E(ptr %1) #17, !dbg !2358
  %_2.i = xor i1 %_3.i1, true, !dbg !2360
  br i1 %_2.i, label %bb2.i, label %_ZN4core3ptr4read7runtime17h67f2ee334fab8745E.exit, !dbg !2360

bb2.i:                                            ; preds = %start
; call core::panicking::panic_nounwind
  call void @_ZN4core9panicking14panic_nounwind17h5e7e5c0cee2d3924E(ptr align 1 @alloc_efce4ff77543cc2403477cd546743a0c, i64 101) #18, !dbg !2361
  unreachable, !dbg !2361

_ZN4core3ptr4read7runtime17h67f2ee334fab8745E.exit: ; preds = %start
  store ptr %tmp, ptr %self.dbg.spill.i, align 8
  call void @llvm.dbg.declare(metadata ptr %self.dbg.spill.i, metadata !2362, metadata !DIExpression()), !dbg !2368
  call void @llvm.memcpy.p0.p0.i64(ptr align 8 %tmp, ptr align 8 %src, i64 24, i1 false), !dbg !2370
  call void @llvm.memcpy.p0.p0.i64(ptr align 8 %_7, ptr align 8 %tmp, i64 24, i1 false), !dbg !2371
  call void @llvm.dbg.declare(metadata ptr %_7, metadata !2372, metadata !DIExpression()), !dbg !2377
  call void @llvm.memcpy.p0.p0.i64(ptr align 8 %_3.i, ptr align 8 %_7, i64 24, i1 false), !dbg !2379
  call void @llvm.dbg.declare(metadata ptr %_3.i, metadata !2380, metadata !DIExpression()), !dbg !2385
  call void @llvm.memcpy.p0.p0.i64(ptr align 8 %0, ptr align 8 %_3.i, i64 24, i1 false), !dbg !2387
  ret void, !dbg !2388
}

; core::ptr::read
; Function Attrs: inlinehint noredzone nounwind
define { ptr, ptr } @_ZN4core3ptr4read17hcf41a14d447407e1E(ptr %src) unnamed_addr #1 !dbg !2389 {
start:
  %src.dbg.spill.i = alloca ptr, align 8
  %slot.dbg.spill.i = alloca { ptr, ptr }, align 8
  %0 = alloca { ptr, ptr }, align 8
  %self.dbg.spill.i1 = alloca { ptr, ptr }, align 8
  %self.dbg.spill.i = alloca ptr, align 8
  %src.dbg.spill = alloca ptr, align 8
  %_4 = alloca ptr, align 8
  %tmp = alloca { ptr, ptr }, align 8
  store ptr %src, ptr %src.dbg.spill, align 8
  call void @llvm.dbg.declare(metadata ptr %src.dbg.spill, metadata !2393, metadata !DIExpression()), !dbg !2403
  call void @llvm.dbg.declare(metadata ptr %tmp, metadata !2394, metadata !DIExpression()), !dbg !2404
  %1 = load ptr, ptr %0, align 8, !dbg !2405
  %2 = getelementptr inbounds { ptr, ptr }, ptr %0, i32 0, i32 1, !dbg !2405
  %3 = load ptr, ptr %2, align 8, !dbg !2405
  %4 = insertvalue { ptr, ptr } undef, ptr %1, 0, !dbg !2405
  %5 = insertvalue { ptr, ptr } %4, ptr %3, 1, !dbg !2405
  store { ptr, ptr } %5, ptr %tmp, align 8, !dbg !2410
  store ptr %src, ptr %_4, align 8, !dbg !2411
  %6 = load ptr, ptr %_4, align 8, !dbg !2411, !noundef !45
  store ptr %6, ptr %src.dbg.spill.i, align 8
  call void @llvm.dbg.declare(metadata ptr %src.dbg.spill.i, metadata !2412, metadata !DIExpression()), !dbg !2417
; call core::intrinsics::is_aligned_and_not_null
  %_3.i = call zeroext i1 @_ZN4core10intrinsics23is_aligned_and_not_null17hdcee5023180a3051E(ptr %6) #17, !dbg !2419
  %_2.i = xor i1 %_3.i, true, !dbg !2421
  br i1 %_2.i, label %bb2.i, label %_ZN4core3ptr4read7runtime17h3dd36258d8310fb8E.exit, !dbg !2421

bb2.i:                                            ; preds = %start
; call core::panicking::panic_nounwind
  call void @_ZN4core9panicking14panic_nounwind17h5e7e5c0cee2d3924E(ptr align 1 @alloc_efce4ff77543cc2403477cd546743a0c, i64 101) #18, !dbg !2422
  unreachable, !dbg !2422

_ZN4core3ptr4read7runtime17h3dd36258d8310fb8E.exit: ; preds = %start
  store ptr %tmp, ptr %self.dbg.spill.i, align 8
  call void @llvm.dbg.declare(metadata ptr %self.dbg.spill.i, metadata !2423, metadata !DIExpression()), !dbg !2430
  call void @llvm.memcpy.p0.p0.i64(ptr align 8 %tmp, ptr align 8 %src, i64 16, i1 false), !dbg !2432
  %7 = getelementptr inbounds { ptr, ptr }, ptr %tmp, i32 0, i32 0, !dbg !2433
  %_7.0 = load ptr, ptr %7, align 8, !dbg !2433
  %8 = getelementptr inbounds { ptr, ptr }, ptr %tmp, i32 0, i32 1, !dbg !2433
  %_7.1 = load ptr, ptr %8, align 8, !dbg !2433
  store ptr %_7.0, ptr %self.dbg.spill.i1, align 8
  %9 = getelementptr inbounds { ptr, ptr }, ptr %self.dbg.spill.i1, i32 0, i32 1
  store ptr %_7.1, ptr %9, align 8
  call void @llvm.dbg.declare(metadata ptr %self.dbg.spill.i1, metadata !2434, metadata !DIExpression()), !dbg !2439
  store ptr %_7.0, ptr %slot.dbg.spill.i, align 8
  %10 = getelementptr inbounds { ptr, ptr }, ptr %slot.dbg.spill.i, i32 0, i32 1
  store ptr %_7.1, ptr %10, align 8
  call void @llvm.dbg.declare(metadata ptr %slot.dbg.spill.i, metadata !2441, metadata !DIExpression()), !dbg !2446
  %11 = insertvalue { ptr, ptr } undef, ptr %_7.0, 0, !dbg !2448
  %12 = insertvalue { ptr, ptr } %11, ptr %_7.1, 1, !dbg !2448
  %13 = extractvalue { ptr, ptr } %12, 0, !dbg !2449
  %14 = extractvalue { ptr, ptr } %12, 1, !dbg !2449
  %15 = extractvalue { ptr, ptr } %12, 0, !dbg !2433
  %16 = extractvalue { ptr, ptr } %12, 1, !dbg !2433
  %17 = insertvalue { ptr, ptr } undef, ptr %15, 0, !dbg !2450
  %18 = insertvalue { ptr, ptr } %17, ptr %16, 1, !dbg !2450
  ret { ptr, ptr } %18, !dbg !2450
}

; core::ptr::drop_in_place<&alloc::vec::Vec<u8>>
; Function Attrs: inlinehint noredzone nounwind
define internal void @"_ZN4core3ptr50drop_in_place$LT$$RF$alloc..vec..Vec$LT$u8$GT$$GT$17h8a1c1afc14e91cc3E"(ptr %_1) unnamed_addr #1 !dbg !2451 {
start:
  %_1.dbg.spill = alloca ptr, align 8
  store ptr %_1, ptr %_1.dbg.spill, align 8
  call void @llvm.dbg.declare(metadata ptr %_1.dbg.spill, metadata !2456, metadata !DIExpression()), !dbg !2459
  ret void, !dbg !2459
}

; core::ptr::drop_in_place<alloc::borrow::Cow<str>>
; Function Attrs: noredzone nounwind
define void @"_ZN4core3ptr50drop_in_place$LT$alloc..borrow..Cow$LT$str$GT$$GT$17h8dbac5b1553a9343E"(ptr %_1) unnamed_addr #0 !dbg !2460 {
start:
  %_1.dbg.spill = alloca ptr, align 8
  store ptr %_1, ptr %_1.dbg.spill, align 8
  call void @llvm.dbg.declare(metadata ptr %_1.dbg.spill, metadata !2481, metadata !DIExpression()), !dbg !2484
  %_2 = load i64, ptr %_1, align 8, !dbg !2484, !range !1797, !noundef !45
  %0 = icmp eq i64 %_2, 0, !dbg !2484
  br i1 %0, label %bb1, label %bb2, !dbg !2484

bb1:                                              ; preds = %bb2, %start
  ret void, !dbg !2484

bb2:                                              ; preds = %start
  %1 = getelementptr inbounds %"borrow::Cow<'_, str>::Owned", ptr %_1, i32 0, i32 1, !dbg !2484
; call core::ptr::drop_in_place<alloc::string::String>
  call void @"_ZN4core3ptr42drop_in_place$LT$alloc..string..String$GT$17h2254349ab55352cdE"(ptr %1) #17, !dbg !2484
  br label %bb1, !dbg !2484
}

; core::ptr::drop_in_place<&core::str::error::Utf8Error>
; Function Attrs: inlinehint noredzone nounwind
define internal void @"_ZN4core3ptr52drop_in_place$LT$$RF$core..str..error..Utf8Error$GT$17ha91a37f5545185bfE"(ptr %_1) unnamed_addr #1 !dbg !2485 {
start:
  %_1.dbg.spill = alloca ptr, align 8
  store ptr %_1, ptr %_1.dbg.spill, align 8
  call void @llvm.dbg.declare(metadata ptr %_1.dbg.spill, metadata !2490, metadata !DIExpression()), !dbg !2493
  ret void, !dbg !2493
}

; core::ptr::drop_in_place<alloc::raw_vec::RawVec<u8>>
; Function Attrs: noredzone nounwind
define void @"_ZN4core3ptr53drop_in_place$LT$alloc..raw_vec..RawVec$LT$u8$GT$$GT$17h3e57bfa2296415acE"(ptr %_1) unnamed_addr #0 !dbg !2494 {
start:
  %_1.dbg.spill = alloca ptr, align 8
  store ptr %_1, ptr %_1.dbg.spill, align 8
  call void @llvm.dbg.declare(metadata ptr %_1.dbg.spill, metadata !2498, metadata !DIExpression()), !dbg !2499
; call <alloc::raw_vec::RawVec<T,A> as core::ops::drop::Drop>::drop
  call void @"_ZN77_$LT$alloc..raw_vec..RawVec$LT$T$C$A$GT$$u20$as$u20$core..ops..drop..Drop$GT$4drop17h013463ec9eaded60E"(ptr align 8 %_1) #17, !dbg !2499
  ret void, !dbg !2499
}

; core::ptr::drop_in_place<core::alloc::layout::LayoutError>
; Function Attrs: inlinehint noredzone nounwind
define internal void @"_ZN4core3ptr53drop_in_place$LT$core..alloc..layout..LayoutError$GT$17he05a8a1bf4c8fc09E"(ptr %_1) unnamed_addr #1 !dbg !2500 {
start:
  %_1.dbg.spill = alloca ptr, align 8
  store ptr %_1, ptr %_1.dbg.spill, align 8
  call void @llvm.dbg.declare(metadata ptr %_1.dbg.spill, metadata !2505, metadata !DIExpression()), !dbg !2506
  ret void, !dbg !2506
}

; core::ptr::drop_in_place<&mut alloc::string::String>
; Function Attrs: inlinehint noredzone nounwind
define internal void @"_ZN4core3ptr54drop_in_place$LT$$RF$mut$u20$alloc..string..String$GT$17h0b890ab8f8f6221fE"(ptr %_1) unnamed_addr #1 !dbg !2507 {
start:
  %_1.dbg.spill = alloca ptr, align 8
  store ptr %_1, ptr %_1.dbg.spill, align 8
  call void @llvm.dbg.declare(metadata ptr %_1.dbg.spill, metadata !2512, metadata !DIExpression()), !dbg !2515
  ret void, !dbg !2515
}

; core::ptr::drop_in_place<&core::option::Option<u8>>
; Function Attrs: inlinehint noredzone nounwind
define internal void @"_ZN4core3ptr55drop_in_place$LT$$RF$core..option..Option$LT$u8$GT$$GT$17h848328e1cf5ca3d2E"(ptr %_1) unnamed_addr #1 !dbg !2516 {
start:
  %_1.dbg.spill = alloca ptr, align 8
  store ptr %_1, ptr %_1.dbg.spill, align 8
  call void @llvm.dbg.declare(metadata ptr %_1.dbg.spill, metadata !2521, metadata !DIExpression()), !dbg !2524
  ret void, !dbg !2524
}

; core::ptr::drop_in_place<alloc::vec::drain::Drain<u8>>
; Function Attrs: noredzone nounwind
define void @"_ZN4core3ptr55drop_in_place$LT$alloc..vec..drain..Drain$LT$u8$GT$$GT$17h978bbc390bc3cbeeE"(ptr %_1) unnamed_addr #0 !dbg !2525 {
start:
  %_1.dbg.spill = alloca ptr, align 8
  store ptr %_1, ptr %_1.dbg.spill, align 8
  call void @llvm.dbg.declare(metadata ptr %_1.dbg.spill, metadata !2530, metadata !DIExpression()), !dbg !2533
; call <alloc::vec::drain::Drain<T,A> as core::ops::drop::Drop>::drop
  call void @"_ZN79_$LT$alloc..vec..drain..Drain$LT$T$C$A$GT$$u20$as$u20$core..ops..drop..Drop$GT$4drop17he5d017d9b75beb25E"(ptr align 8 %_1) #17, !dbg !2533
  ret void, !dbg !2533
}

; core::ptr::drop_in_place<alloc::boxed::Box<[u8]>>
; Function Attrs: noredzone nounwind
define void @"_ZN4core3ptr58drop_in_place$LT$alloc..boxed..Box$LT$$u5b$u8$u5d$$GT$$GT$17h394222bf9f2778faE"(ptr %_1) unnamed_addr #0 !dbg !2534 {
start:
  %_1.dbg.spill = alloca ptr, align 8
  store ptr %_1, ptr %_1.dbg.spill, align 8
  call void @llvm.dbg.declare(metadata ptr %_1.dbg.spill, metadata !2538, metadata !DIExpression()), !dbg !2539
  %0 = getelementptr inbounds { ptr, i64 }, ptr %_1, i32 0, i32 0, !dbg !2539
  %_4.0 = load ptr, ptr %0, align 8, !dbg !2539, !noundef !45
  %1 = getelementptr inbounds { ptr, i64 }, ptr %_1, i32 0, i32 1, !dbg !2539
  %_4.1 = load i64, ptr %1, align 8, !dbg !2539, !noundef !45
  %2 = getelementptr inbounds { ptr, i64 }, ptr %_1, i32 0, i32 0, !dbg !2539
  %3 = load ptr, ptr %2, align 8, !dbg !2539, !nonnull !45, !noundef !45
  %4 = getelementptr inbounds { ptr, i64 }, ptr %_1, i32 0, i32 1, !dbg !2539
  %5 = load i64, ptr %4, align 8, !dbg !2539, !noundef !45
; call alloc::alloc::box_free
  call void @_ZN5alloc5alloc8box_free17h0357003df53c0fe9E(ptr %3, i64 %5) #17, !dbg !2539
  ret void, !dbg !2539
}

; core::ptr::write
; Function Attrs: inlinehint noredzone nounwind
define void @_ZN4core3ptr5write17h03104ae4e030edd1E(ptr %dst, i16 %0, i16 %1) unnamed_addr #1 !dbg !2540 {
start:
  %dst.dbg.spill.i = alloca ptr, align 8
  %dst.dbg.spill = alloca ptr, align 8
  %_4 = alloca ptr, align 8
  %src = alloca { i16, i16 }, align 2
  %2 = getelementptr inbounds { i16, i16 }, ptr %src, i32 0, i32 0
  store i16 %0, ptr %2, align 2
  %3 = getelementptr inbounds { i16, i16 }, ptr %src, i32 0, i32 1
  store i16 %1, ptr %3, align 2
  store ptr %dst, ptr %dst.dbg.spill, align 8
  call void @llvm.dbg.declare(metadata ptr %dst.dbg.spill, metadata !2544, metadata !DIExpression()), !dbg !2546
  call void @llvm.dbg.declare(metadata ptr %src, metadata !2545, metadata !DIExpression()), !dbg !2547
  store ptr %dst, ptr %_4, align 8, !dbg !2548
  %4 = load ptr, ptr %_4, align 8, !dbg !2548, !noundef !45
  store ptr %4, ptr %dst.dbg.spill.i, align 8
  call void @llvm.dbg.declare(metadata ptr %dst.dbg.spill.i, metadata !2549, metadata !DIExpression()), !dbg !2555
; call core::intrinsics::is_aligned_and_not_null
  %_3.i = call zeroext i1 @_ZN4core10intrinsics23is_aligned_and_not_null17hedbc77d5634e60acE(ptr %4) #17, !dbg !2557
  %_2.i = xor i1 %_3.i, true, !dbg !2559
  br i1 %_2.i, label %bb2.i, label %_ZN4core3ptr5write7runtime17haaefcc50cb4329b0E.exit, !dbg !2559

bb2.i:                                            ; preds = %start
; call core::panicking::panic_nounwind
  call void @_ZN4core9panicking14panic_nounwind17h5e7e5c0cee2d3924E(ptr align 1 @alloc_98d916830fc7cab3c43d0ae7d762d17f, i64 102) #18, !dbg !2560
  unreachable, !dbg !2560

_ZN4core3ptr5write7runtime17haaefcc50cb4329b0E.exit: ; preds = %start
  call void @llvm.memcpy.p0.p0.i64(ptr align 2 %dst, ptr align 2 %src, i64 4, i1 false), !dbg !2561
  ret void, !dbg !2562
}

; core::ptr::write
; Function Attrs: inlinehint noredzone nounwind
define void @_ZN4core3ptr5write17h5f7fbf5ab9b1995eE(ptr %dst, ptr align 1 %0, i64 %1) unnamed_addr #1 !dbg !2563 {
start:
  %dst.dbg.spill.i = alloca ptr, align 8
  %dst.dbg.spill = alloca ptr, align 8
  %_4 = alloca ptr, align 8
  %src = alloca { ptr, i64 }, align 8
  %2 = getelementptr inbounds { ptr, i64 }, ptr %src, i32 0, i32 0
  store ptr %0, ptr %2, align 8
  %3 = getelementptr inbounds { ptr, i64 }, ptr %src, i32 0, i32 1
  store i64 %1, ptr %3, align 8
  store ptr %dst, ptr %dst.dbg.spill, align 8
  call void @llvm.dbg.declare(metadata ptr %dst.dbg.spill, metadata !2567, metadata !DIExpression()), !dbg !2569
  call void @llvm.dbg.declare(metadata ptr %src, metadata !2568, metadata !DIExpression()), !dbg !2570
  store ptr %dst, ptr %_4, align 8, !dbg !2571
  %4 = load ptr, ptr %_4, align 8, !dbg !2571, !noundef !45
  store ptr %4, ptr %dst.dbg.spill.i, align 8
  call void @llvm.dbg.declare(metadata ptr %dst.dbg.spill.i, metadata !2572, metadata !DIExpression()), !dbg !2575
; call core::intrinsics::is_aligned_and_not_null
  %_3.i = call zeroext i1 @_ZN4core10intrinsics23is_aligned_and_not_null17hb8a5e17d810b5ea4E(ptr %4) #17, !dbg !2577
  %_2.i = xor i1 %_3.i, true, !dbg !2579
  br i1 %_2.i, label %bb2.i, label %_ZN4core3ptr5write7runtime17h2d80debc63ad1f70E.exit, !dbg !2579

bb2.i:                                            ; preds = %start
; call core::panicking::panic_nounwind
  call void @_ZN4core9panicking14panic_nounwind17h5e7e5c0cee2d3924E(ptr align 1 @alloc_98d916830fc7cab3c43d0ae7d762d17f, i64 102) #18, !dbg !2580
  unreachable, !dbg !2580

_ZN4core3ptr5write7runtime17h2d80debc63ad1f70E.exit: ; preds = %start
  call void @llvm.memcpy.p0.p0.i64(ptr align 8 %dst, ptr align 8 %src, i64 16, i1 false), !dbg !2581
  ret void, !dbg !2582
}

; core::ptr::write
; Function Attrs: inlinehint noredzone nounwind
define void @_ZN4core3ptr5write17h82a430e08389d3f6E(ptr %dst, ptr %src) unnamed_addr #1 !dbg !2583 {
start:
  %dst.dbg.spill.i = alloca ptr, align 8
  %dst.dbg.spill = alloca ptr, align 8
  %_4 = alloca ptr, align 8
  store ptr %dst, ptr %dst.dbg.spill, align 8
  call void @llvm.dbg.declare(metadata ptr %dst.dbg.spill, metadata !2587, metadata !DIExpression()), !dbg !2589
  call void @llvm.dbg.declare(metadata ptr %src, metadata !2588, metadata !DIExpression()), !dbg !2590
  store ptr %dst, ptr %_4, align 8, !dbg !2591
  %0 = load ptr, ptr %_4, align 8, !dbg !2591, !noundef !45
  store ptr %0, ptr %dst.dbg.spill.i, align 8
  call void @llvm.dbg.declare(metadata ptr %dst.dbg.spill.i, metadata !2592, metadata !DIExpression()), !dbg !2595
; call core::intrinsics::is_aligned_and_not_null
  %_3.i = call zeroext i1 @_ZN4core10intrinsics23is_aligned_and_not_null17hd6978d6dcad3c904E(ptr %0) #17, !dbg !2597
  %_2.i = xor i1 %_3.i, true, !dbg !2599
  br i1 %_2.i, label %bb2.i, label %_ZN4core3ptr5write7runtime17h5541617de79e91fdE.exit, !dbg !2599

bb2.i:                                            ; preds = %start
; call core::panicking::panic_nounwind
  call void @_ZN4core9panicking14panic_nounwind17h5e7e5c0cee2d3924E(ptr align 1 @alloc_98d916830fc7cab3c43d0ae7d762d17f, i64 102) #18, !dbg !2600
  unreachable, !dbg !2600

_ZN4core3ptr5write7runtime17h5541617de79e91fdE.exit: ; preds = %start
  call void @llvm.memcpy.p0.p0.i64(ptr align 8 %dst, ptr align 8 %src, i64 24, i1 false), !dbg !2601
  ret void, !dbg !2602
}

; core::ptr::write
; Function Attrs: inlinehint noredzone nounwind
define void @_ZN4core3ptr5write17he2c5432ed5b5c6f6E(ptr %dst, ptr %0, ptr %1) unnamed_addr #1 !dbg !2603 {
start:
  %dst.dbg.spill.i = alloca ptr, align 8
  %dst.dbg.spill = alloca ptr, align 8
  %_4 = alloca ptr, align 8
  %src = alloca { ptr, ptr }, align 8
  %2 = getelementptr inbounds { ptr, ptr }, ptr %src, i32 0, i32 0
  store ptr %0, ptr %2, align 8
  %3 = getelementptr inbounds { ptr, ptr }, ptr %src, i32 0, i32 1
  store ptr %1, ptr %3, align 8
  store ptr %dst, ptr %dst.dbg.spill, align 8
  call void @llvm.dbg.declare(metadata ptr %dst.dbg.spill, metadata !2607, metadata !DIExpression()), !dbg !2609
  call void @llvm.dbg.declare(metadata ptr %src, metadata !2608, metadata !DIExpression()), !dbg !2610
  store ptr %dst, ptr %_4, align 8, !dbg !2611
  %4 = load ptr, ptr %_4, align 8, !dbg !2611, !noundef !45
  store ptr %4, ptr %dst.dbg.spill.i, align 8
  call void @llvm.dbg.declare(metadata ptr %dst.dbg.spill.i, metadata !2612, metadata !DIExpression()), !dbg !2617
; call core::intrinsics::is_aligned_and_not_null
  %_3.i = call zeroext i1 @_ZN4core10intrinsics23is_aligned_and_not_null17hdcee5023180a3051E(ptr %4) #17, !dbg !2619
  %_2.i = xor i1 %_3.i, true, !dbg !2621
  br i1 %_2.i, label %bb2.i, label %_ZN4core3ptr5write7runtime17hdf512cffeb660bf3E.exit, !dbg !2621

bb2.i:                                            ; preds = %start
; call core::panicking::panic_nounwind
  call void @_ZN4core9panicking14panic_nounwind17h5e7e5c0cee2d3924E(ptr align 1 @alloc_98d916830fc7cab3c43d0ae7d762d17f, i64 102) #18, !dbg !2622
  unreachable, !dbg !2622

_ZN4core3ptr5write7runtime17hdf512cffeb660bf3E.exit: ; preds = %start
  call void @llvm.memcpy.p0.p0.i64(ptr align 8 %dst, ptr align 8 %src, i64 16, i1 false), !dbg !2623
  ret void, !dbg !2624
}

; core::ptr::drop_in_place<&alloc::collections::TryReserveErrorKind>
; Function Attrs: inlinehint noredzone nounwind
define internal void @"_ZN4core3ptr64drop_in_place$LT$$RF$alloc..collections..TryReserveErrorKind$GT$17hb943e1041e1118a1E"(ptr %_1) unnamed_addr #1 !dbg !2625 {
start:
  %_1.dbg.spill = alloca ptr, align 8
  store ptr %_1, ptr %_1.dbg.spill, align 8
  call void @llvm.dbg.declare(metadata ptr %_1.dbg.spill, metadata !2630, metadata !DIExpression()), !dbg !2633
  ret void, !dbg !2633
}

; core::ptr::drop_in_place<alloc::ffi::c_str::FromBytesWithNulErrorKind>
; Function Attrs: inlinehint noredzone nounwind
define internal void @"_ZN4core3ptr65drop_in_place$LT$alloc..ffi..c_str..FromBytesWithNulErrorKind$GT$17he5de423ab36c6fddE"(ptr %_1) unnamed_addr #1 !dbg !2634 {
start:
  %_1.dbg.spill = alloca ptr, align 8
  store ptr %_1, ptr %_1.dbg.spill, align 8
  call void @llvm.dbg.declare(metadata ptr %_1.dbg.spill, metadata !2639, metadata !DIExpression()), !dbg !2642
  ret void, !dbg !2642
}

; core::ptr::unique::Unique<T>::new_unchecked
; Function Attrs: inlinehint noredzone nounwind
define { ptr, i64 } @"_ZN4core3ptr6unique15Unique$LT$T$GT$13new_unchecked17h0aafb19549a69619E"(ptr %ptr.0, i64 %ptr.1) unnamed_addr #1 !dbg !2643 {
start:
  %ptr.dbg.spill = alloca { ptr, i64 }, align 8
  %0 = alloca { ptr, i64 }, align 8
  %1 = getelementptr inbounds { ptr, i64 }, ptr %ptr.dbg.spill, i32 0, i32 0
  store ptr %ptr.0, ptr %1, align 8
  %2 = getelementptr inbounds { ptr, i64 }, ptr %ptr.dbg.spill, i32 0, i32 1
  store i64 %ptr.1, ptr %2, align 8
  call void @llvm.dbg.declare(metadata ptr %ptr.dbg.spill, metadata !2651, metadata !DIExpression()), !dbg !2652
; call core::ptr::non_null::NonNull<T>::new_unchecked
  %3 = call { ptr, i64 } @"_ZN4core3ptr8non_null16NonNull$LT$T$GT$13new_unchecked17hc2cb04b8c23666f6E"(ptr %ptr.0, i64 %ptr.1) #17, !dbg !2653
  %_2.0 = extractvalue { ptr, i64 } %3, 0, !dbg !2653
  %_2.1 = extractvalue { ptr, i64 } %3, 1, !dbg !2653
  %4 = getelementptr inbounds { ptr, i64 }, ptr %0, i32 0, i32 0, !dbg !2654
  store ptr %_2.0, ptr %4, align 8, !dbg !2654
  %5 = getelementptr inbounds { ptr, i64 }, ptr %0, i32 0, i32 1, !dbg !2654
  store i64 %_2.1, ptr %5, align 8, !dbg !2654
  %6 = getelementptr inbounds { ptr, i64 }, ptr %0, i32 0, i32 0, !dbg !2655
  %7 = load ptr, ptr %6, align 8, !dbg !2655, !nonnull !45, !noundef !45
  %8 = getelementptr inbounds { ptr, i64 }, ptr %0, i32 0, i32 1, !dbg !2655
  %9 = load i64, ptr %8, align 8, !dbg !2655, !noundef !45
  %10 = insertvalue { ptr, i64 } undef, ptr %7, 0, !dbg !2655
  %11 = insertvalue { ptr, i64 } %10, i64 %9, 1, !dbg !2655
  ret { ptr, i64 } %11, !dbg !2655
}

; core::ptr::unique::Unique<T>::new_unchecked
; Function Attrs: inlinehint noredzone nounwind
define { ptr, i64 } @"_ZN4core3ptr6unique15Unique$LT$T$GT$13new_unchecked17h927607014d416d51E"(ptr %ptr.0, i64 %ptr.1) unnamed_addr #1 !dbg !2656 {
start:
  %ptr.dbg.spill = alloca { ptr, i64 }, align 8
  %0 = alloca { ptr, i64 }, align 8
  %1 = getelementptr inbounds { ptr, i64 }, ptr %ptr.dbg.spill, i32 0, i32 0
  store ptr %ptr.0, ptr %1, align 8
  %2 = getelementptr inbounds { ptr, i64 }, ptr %ptr.dbg.spill, i32 0, i32 1
  store i64 %ptr.1, ptr %2, align 8
  call void @llvm.dbg.declare(metadata ptr %ptr.dbg.spill, metadata !2664, metadata !DIExpression()), !dbg !2665
; call core::ptr::non_null::NonNull<T>::new_unchecked
  %3 = call { ptr, i64 } @"_ZN4core3ptr8non_null16NonNull$LT$T$GT$13new_unchecked17h62e9a6650a9b11e5E"(ptr %ptr.0, i64 %ptr.1) #17, !dbg !2666
  %_2.0 = extractvalue { ptr, i64 } %3, 0, !dbg !2666
  %_2.1 = extractvalue { ptr, i64 } %3, 1, !dbg !2666
  %4 = getelementptr inbounds { ptr, i64 }, ptr %0, i32 0, i32 0, !dbg !2667
  store ptr %_2.0, ptr %4, align 8, !dbg !2667
  %5 = getelementptr inbounds { ptr, i64 }, ptr %0, i32 0, i32 1, !dbg !2667
  store i64 %_2.1, ptr %5, align 8, !dbg !2667
  %6 = getelementptr inbounds { ptr, i64 }, ptr %0, i32 0, i32 0, !dbg !2668
  %7 = load ptr, ptr %6, align 8, !dbg !2668, !nonnull !45, !noundef !45
  %8 = getelementptr inbounds { ptr, i64 }, ptr %0, i32 0, i32 1, !dbg !2668
  %9 = load i64, ptr %8, align 8, !dbg !2668, !noundef !45
  %10 = insertvalue { ptr, i64 } undef, ptr %7, 0, !dbg !2668
  %11 = insertvalue { ptr, i64 } %10, i64 %9, 1, !dbg !2668
  ret { ptr, i64 } %11, !dbg !2668
}

; core::ptr::unique::Unique<T>::new_unchecked
; Function Attrs: inlinehint noredzone nounwind
define ptr @"_ZN4core3ptr6unique15Unique$LT$T$GT$13new_unchecked17h97ce221bd4ae9d0dE"(ptr %ptr) unnamed_addr #1 !dbg !2669 {
start:
  %ptr.dbg.spill = alloca ptr, align 8
  %0 = alloca ptr, align 8
  store ptr %ptr, ptr %ptr.dbg.spill, align 8
  call void @llvm.dbg.declare(metadata ptr %ptr.dbg.spill, metadata !2673, metadata !DIExpression()), !dbg !2674
; call core::ptr::non_null::NonNull<T>::new_unchecked
  %_2 = call ptr @"_ZN4core3ptr8non_null16NonNull$LT$T$GT$13new_unchecked17h9eb1d87c9d7b337eE"(ptr %ptr) #17, !dbg !2675
  store ptr %_2, ptr %0, align 8, !dbg !2676
  %1 = load ptr, ptr %0, align 8, !dbg !2677, !nonnull !45, !noundef !45
  ret ptr %1, !dbg !2677
}

; core::ptr::unique::Unique<T>::new_unchecked
; Function Attrs: inlinehint noredzone nounwind
define { ptr, i64 } @"_ZN4core3ptr6unique15Unique$LT$T$GT$13new_unchecked17haed075faf7848f85E"(ptr %ptr.0, i64 %ptr.1) unnamed_addr #1 !dbg !2678 {
start:
  %ptr.dbg.spill = alloca { ptr, i64 }, align 8
  %0 = alloca { ptr, i64 }, align 8
  %1 = getelementptr inbounds { ptr, i64 }, ptr %ptr.dbg.spill, i32 0, i32 0
  store ptr %ptr.0, ptr %1, align 8
  %2 = getelementptr inbounds { ptr, i64 }, ptr %ptr.dbg.spill, i32 0, i32 1
  store i64 %ptr.1, ptr %2, align 8
  call void @llvm.dbg.declare(metadata ptr %ptr.dbg.spill, metadata !2686, metadata !DIExpression()), !dbg !2687
; call core::ptr::non_null::NonNull<T>::new_unchecked
  %3 = call { ptr, i64 } @"_ZN4core3ptr8non_null16NonNull$LT$T$GT$13new_unchecked17h51d3e552a3d14ea4E"(ptr %ptr.0, i64 %ptr.1) #17, !dbg !2688
  %_2.0 = extractvalue { ptr, i64 } %3, 0, !dbg !2688
  %_2.1 = extractvalue { ptr, i64 } %3, 1, !dbg !2688
  %4 = getelementptr inbounds { ptr, i64 }, ptr %0, i32 0, i32 0, !dbg !2689
  store ptr %_2.0, ptr %4, align 8, !dbg !2689
  %5 = getelementptr inbounds { ptr, i64 }, ptr %0, i32 0, i32 1, !dbg !2689
  store i64 %_2.1, ptr %5, align 8, !dbg !2689
  %6 = getelementptr inbounds { ptr, i64 }, ptr %0, i32 0, i32 0, !dbg !2690
  %7 = load ptr, ptr %6, align 8, !dbg !2690, !nonnull !45, !noundef !45
  %8 = getelementptr inbounds { ptr, i64 }, ptr %0, i32 0, i32 1, !dbg !2690
  %9 = load i64, ptr %8, align 8, !dbg !2690, !noundef !45
  %10 = insertvalue { ptr, i64 } undef, ptr %7, 0, !dbg !2690
  %11 = insertvalue { ptr, i64 } %10, i64 %9, 1, !dbg !2690
  ret { ptr, i64 } %11, !dbg !2690
}

; core::ptr::unique::Unique<T>::new_unchecked
; Function Attrs: inlinehint noredzone nounwind
define { ptr, i64 } @"_ZN4core3ptr6unique15Unique$LT$T$GT$13new_unchecked17hce7e6adb62fafdfeE"(ptr %ptr.0, i64 %ptr.1) unnamed_addr #1 !dbg !2691 {
start:
  %ptr.dbg.spill = alloca { ptr, i64 }, align 8
  %0 = alloca { ptr, i64 }, align 8
  %1 = getelementptr inbounds { ptr, i64 }, ptr %ptr.dbg.spill, i32 0, i32 0
  store ptr %ptr.0, ptr %1, align 8
  %2 = getelementptr inbounds { ptr, i64 }, ptr %ptr.dbg.spill, i32 0, i32 1
  store i64 %ptr.1, ptr %2, align 8
  call void @llvm.dbg.declare(metadata ptr %ptr.dbg.spill, metadata !2699, metadata !DIExpression()), !dbg !2700
; call core::ptr::non_null::NonNull<T>::new_unchecked
  %3 = call { ptr, i64 } @"_ZN4core3ptr8non_null16NonNull$LT$T$GT$13new_unchecked17h8270113c0a2fdf4cE"(ptr %ptr.0, i64 %ptr.1) #17, !dbg !2701
  %_2.0 = extractvalue { ptr, i64 } %3, 0, !dbg !2701
  %_2.1 = extractvalue { ptr, i64 } %3, 1, !dbg !2701
  %4 = getelementptr inbounds { ptr, i64 }, ptr %0, i32 0, i32 0, !dbg !2702
  store ptr %_2.0, ptr %4, align 8, !dbg !2702
  %5 = getelementptr inbounds { ptr, i64 }, ptr %0, i32 0, i32 1, !dbg !2702
  store i64 %_2.1, ptr %5, align 8, !dbg !2702
  %6 = getelementptr inbounds { ptr, i64 }, ptr %0, i32 0, i32 0, !dbg !2703
  %7 = load ptr, ptr %6, align 8, !dbg !2703, !nonnull !45, !noundef !45
  %8 = getelementptr inbounds { ptr, i64 }, ptr %0, i32 0, i32 1, !dbg !2703
  %9 = load i64, ptr %8, align 8, !dbg !2703, !noundef !45
  %10 = insertvalue { ptr, i64 } undef, ptr %7, 0, !dbg !2703
  %11 = insertvalue { ptr, i64 } %10, i64 %9, 1, !dbg !2703
  ret { ptr, i64 } %11, !dbg !2703
}

; core::ptr::unique::Unique<T>::cast
; Function Attrs: inlinehint noredzone nounwind
define ptr @"_ZN4core3ptr6unique15Unique$LT$T$GT$4cast17hac21323e41eff0e2E"(ptr %self.0, i64 %self.1) unnamed_addr #1 !dbg !2704 {
start:
  %self.dbg.spill = alloca { ptr, i64 }, align 8
  %0 = getelementptr inbounds { ptr, i64 }, ptr %self.dbg.spill, i32 0, i32 0
  store ptr %self.0, ptr %0, align 8
  %1 = getelementptr inbounds { ptr, i64 }, ptr %self.dbg.spill, i32 0, i32 1
  store i64 %self.1, ptr %1, align 8
  call void @llvm.dbg.declare(metadata ptr %self.dbg.spill, metadata !2708, metadata !DIExpression()), !dbg !2711
; call core::ptr::non_null::NonNull<T>::cast
  %_2 = call ptr @"_ZN4core3ptr8non_null16NonNull$LT$T$GT$4cast17h3ed6410c6c7dbb96E"(ptr %self.0, i64 %self.1) #17, !dbg !2712
; call <core::ptr::unique::Unique<T> as core::convert::From<core::ptr::non_null::NonNull<T>>>::from
  %2 = call ptr @"_ZN119_$LT$core..ptr..unique..Unique$LT$T$GT$$u20$as$u20$core..convert..From$LT$core..ptr..non_null..NonNull$LT$T$GT$$GT$$GT$4from17h6536788035efc0bdE"(ptr %_2) #17, !dbg !2713
  ret ptr %2, !dbg !2714
}

; core::ptr::unique::Unique<T>::cast
; Function Attrs: inlinehint noredzone nounwind
define ptr @"_ZN4core3ptr6unique15Unique$LT$T$GT$4cast17hcb3f6fdd6f42c681E"(ptr %self) unnamed_addr #1 !dbg !2715 {
start:
  %self.dbg.spill = alloca ptr, align 8
  store ptr %self, ptr %self.dbg.spill, align 8
  call void @llvm.dbg.declare(metadata ptr %self.dbg.spill, metadata !2719, metadata !DIExpression()), !dbg !2720
; call core::ptr::non_null::NonNull<T>::cast
  %_2 = call ptr @"_ZN4core3ptr8non_null16NonNull$LT$T$GT$4cast17hbde107f8170d262aE"(ptr %self) #17, !dbg !2721
; call <core::ptr::unique::Unique<T> as core::convert::From<core::ptr::non_null::NonNull<T>>>::from
  %0 = call ptr @"_ZN119_$LT$core..ptr..unique..Unique$LT$T$GT$$u20$as$u20$core..convert..From$LT$core..ptr..non_null..NonNull$LT$T$GT$$GT$$GT$4from17h6536788035efc0bdE"(ptr %_2) #17, !dbg !2722
  ret ptr %0, !dbg !2723
}

; core::ptr::unique::Unique<T>::as_ptr
; Function Attrs: inlinehint noredzone nounwind
define ptr @"_ZN4core3ptr6unique15Unique$LT$T$GT$6as_ptr17h6c7e501aa8d05bbeE"(ptr %self) unnamed_addr #1 !dbg !2724 {
start:
  %self.dbg.spill.i = alloca ptr, align 8
  %self.dbg.spill = alloca ptr, align 8
  store ptr %self, ptr %self.dbg.spill, align 8
  call void @llvm.dbg.declare(metadata ptr %self.dbg.spill, metadata !2728, metadata !DIExpression()), !dbg !2729
  store ptr %self, ptr %self.dbg.spill.i, align 8
  call void @llvm.dbg.declare(metadata ptr %self.dbg.spill.i, metadata !2730, metadata !DIExpression()), !dbg !2735
  ret ptr %self, !dbg !2737
}

; core::ptr::unique::Unique<T>::as_ptr
; Function Attrs: inlinehint noredzone nounwind
define { ptr, i64 } @"_ZN4core3ptr6unique15Unique$LT$T$GT$6as_ptr17h8f39c16857b61dc9E"(ptr %self.0, i64 %self.1) unnamed_addr #1 !dbg !2738 {
start:
  %self.dbg.spill.i = alloca { ptr, i64 }, align 8
  %self.dbg.spill = alloca { ptr, i64 }, align 8
  %0 = getelementptr inbounds { ptr, i64 }, ptr %self.dbg.spill, i32 0, i32 0
  store ptr %self.0, ptr %0, align 8
  %1 = getelementptr inbounds { ptr, i64 }, ptr %self.dbg.spill, i32 0, i32 1
  store i64 %self.1, ptr %1, align 8
  call void @llvm.dbg.declare(metadata ptr %self.dbg.spill, metadata !2742, metadata !DIExpression()), !dbg !2743
  store ptr %self.0, ptr %self.dbg.spill.i, align 8
  %2 = getelementptr inbounds { ptr, i64 }, ptr %self.dbg.spill.i, i32 0, i32 1
  store i64 %self.1, ptr %2, align 8
  call void @llvm.dbg.declare(metadata ptr %self.dbg.spill.i, metadata !2744, metadata !DIExpression()), !dbg !2749
  %3 = insertvalue { ptr, i64 } undef, ptr %self.0, 0, !dbg !2751
  %4 = insertvalue { ptr, i64 } %3, i64 %self.1, 1, !dbg !2751
  %5 = extractvalue { ptr, i64 } %4, 0, !dbg !2752
  %6 = extractvalue { ptr, i64 } %4, 1, !dbg !2752
  %7 = insertvalue { ptr, i64 } undef, ptr %5, 0, !dbg !2753
  %8 = insertvalue { ptr, i64 } %7, i64 %6, 1, !dbg !2753
  ret { ptr, i64 } %8, !dbg !2753
}

; core::ptr::unique::Unique<T>::as_ptr
; Function Attrs: inlinehint noredzone nounwind
define { ptr, i64 } @"_ZN4core3ptr6unique15Unique$LT$T$GT$6as_ptr17h97ba1af7a992b060E"(ptr %self.0, i64 %self.1) unnamed_addr #1 !dbg !2754 {
start:
  %self.dbg.spill.i = alloca { ptr, i64 }, align 8
  %self.dbg.spill = alloca { ptr, i64 }, align 8
  %0 = getelementptr inbounds { ptr, i64 }, ptr %self.dbg.spill, i32 0, i32 0
  store ptr %self.0, ptr %0, align 8
  %1 = getelementptr inbounds { ptr, i64 }, ptr %self.dbg.spill, i32 0, i32 1
  store i64 %self.1, ptr %1, align 8
  call void @llvm.dbg.declare(metadata ptr %self.dbg.spill, metadata !2758, metadata !DIExpression()), !dbg !2759
  store ptr %self.0, ptr %self.dbg.spill.i, align 8
  %2 = getelementptr inbounds { ptr, i64 }, ptr %self.dbg.spill.i, i32 0, i32 1
  store i64 %self.1, ptr %2, align 8
  call void @llvm.dbg.declare(metadata ptr %self.dbg.spill.i, metadata !2760, metadata !DIExpression()), !dbg !2765
  %3 = insertvalue { ptr, i64 } undef, ptr %self.0, 0, !dbg !2767
  %4 = insertvalue { ptr, i64 } %3, i64 %self.1, 1, !dbg !2767
  %5 = extractvalue { ptr, i64 } %4, 0, !dbg !2768
  %6 = extractvalue { ptr, i64 } %4, 1, !dbg !2768
  %7 = insertvalue { ptr, i64 } undef, ptr %5, 0, !dbg !2769
  %8 = insertvalue { ptr, i64 } %7, i64 %6, 1, !dbg !2769
  ret { ptr, i64 } %8, !dbg !2769
}

; core::ptr::unique::Unique<T>::as_ptr
; Function Attrs: inlinehint noredzone nounwind
define { ptr, i64 } @"_ZN4core3ptr6unique15Unique$LT$T$GT$6as_ptr17hcf6edf88a3181498E"(ptr %self.0, i64 %self.1) unnamed_addr #1 !dbg !2770 {
start:
  %self.dbg.spill.i = alloca { ptr, i64 }, align 8
  %self.dbg.spill = alloca { ptr, i64 }, align 8
  %0 = getelementptr inbounds { ptr, i64 }, ptr %self.dbg.spill, i32 0, i32 0
  store ptr %self.0, ptr %0, align 8
  %1 = getelementptr inbounds { ptr, i64 }, ptr %self.dbg.spill, i32 0, i32 1
  store i64 %self.1, ptr %1, align 8
  call void @llvm.dbg.declare(metadata ptr %self.dbg.spill, metadata !2774, metadata !DIExpression()), !dbg !2775
  store ptr %self.0, ptr %self.dbg.spill.i, align 8
  %2 = getelementptr inbounds { ptr, i64 }, ptr %self.dbg.spill.i, i32 0, i32 1
  store i64 %self.1, ptr %2, align 8
  call void @llvm.dbg.declare(metadata ptr %self.dbg.spill.i, metadata !2776, metadata !DIExpression()), !dbg !2781
  %3 = insertvalue { ptr, i64 } undef, ptr %self.0, 0, !dbg !2783
  %4 = insertvalue { ptr, i64 } %3, i64 %self.1, 1, !dbg !2783
  %5 = extractvalue { ptr, i64 } %4, 0, !dbg !2784
  %6 = extractvalue { ptr, i64 } %4, 1, !dbg !2784
  %7 = insertvalue { ptr, i64 } undef, ptr %5, 0, !dbg !2785
  %8 = insertvalue { ptr, i64 } %7, i64 %6, 1, !dbg !2785
  ret { ptr, i64 } %8, !dbg !2785
}

; core::ptr::unique::Unique<T>::as_ptr
; Function Attrs: inlinehint noredzone nounwind
define { ptr, i64 } @"_ZN4core3ptr6unique15Unique$LT$T$GT$6as_ptr17hf04fcd59fc5933c1E"(ptr %self.0, i64 %self.1) unnamed_addr #1 !dbg !2786 {
start:
  %self.dbg.spill.i = alloca { ptr, i64 }, align 8
  %self.dbg.spill = alloca { ptr, i64 }, align 8
  %0 = getelementptr inbounds { ptr, i64 }, ptr %self.dbg.spill, i32 0, i32 0
  store ptr %self.0, ptr %0, align 8
  %1 = getelementptr inbounds { ptr, i64 }, ptr %self.dbg.spill, i32 0, i32 1
  store i64 %self.1, ptr %1, align 8
  call void @llvm.dbg.declare(metadata ptr %self.dbg.spill, metadata !2790, metadata !DIExpression()), !dbg !2791
  store ptr %self.0, ptr %self.dbg.spill.i, align 8
  %2 = getelementptr inbounds { ptr, i64 }, ptr %self.dbg.spill.i, i32 0, i32 1
  store i64 %self.1, ptr %2, align 8
  call void @llvm.dbg.declare(metadata ptr %self.dbg.spill.i, metadata !2792, metadata !DIExpression()), !dbg !2797
  %3 = insertvalue { ptr, i64 } undef, ptr %self.0, 0, !dbg !2799
  %4 = insertvalue { ptr, i64 } %3, i64 %self.1, 1, !dbg !2799
  %5 = extractvalue { ptr, i64 } %4, 0, !dbg !2800
  %6 = extractvalue { ptr, i64 } %4, 1, !dbg !2800
  %7 = insertvalue { ptr, i64 } undef, ptr %5, 0, !dbg !2801
  %8 = insertvalue { ptr, i64 } %7, i64 %6, 1, !dbg !2801
  ret { ptr, i64 } %8, !dbg !2801
}

; core::ptr::unique::Unique<T>::as_ref
; Function Attrs: inlinehint noredzone nounwind
define { ptr, i64 } @"_ZN4core3ptr6unique15Unique$LT$T$GT$6as_ref17hbdd312af9f64d83cE"(ptr align 8 %self) unnamed_addr #1 !dbg !2802 {
start:
  %self.dbg.spill.i.i = alloca { ptr, i64 }, align 8
  %self.dbg.spill.i = alloca ptr, align 8
  %self.dbg.spill = alloca ptr, align 8
  store ptr %self, ptr %self.dbg.spill, align 8
  call void @llvm.dbg.declare(metadata ptr %self.dbg.spill, metadata !2807, metadata !DIExpression()), !dbg !2808
  store ptr %self, ptr %self.dbg.spill.i, align 8
  call void @llvm.dbg.declare(metadata ptr %self.dbg.spill.i, metadata !2809, metadata !DIExpression()), !dbg !2815
  %_3.0.i = load ptr, ptr %self, align 8, !dbg !2817, !nonnull !45, !noundef !45
  %0 = getelementptr inbounds { ptr, i64 }, ptr %self, i32 0, i32 1, !dbg !2817
  %_3.1.i = load i64, ptr %0, align 8, !dbg !2817, !noundef !45
  store ptr %_3.0.i, ptr %self.dbg.spill.i.i, align 8
  %1 = getelementptr inbounds { ptr, i64 }, ptr %self.dbg.spill.i.i, i32 0, i32 1
  store i64 %_3.1.i, ptr %1, align 8
  call void @llvm.dbg.declare(metadata ptr %self.dbg.spill.i.i, metadata !2760, metadata !DIExpression()), !dbg !2818
  %2 = insertvalue { ptr, i64 } undef, ptr %_3.0.i, 0, !dbg !2820
  %3 = insertvalue { ptr, i64 } %2, i64 %_3.1.i, 1, !dbg !2820
  %4 = insertvalue { ptr, i64 } undef, ptr %_3.0.i, 0, !dbg !2821
  %5 = insertvalue { ptr, i64 } %4, i64 %_3.1.i, 1, !dbg !2821
  %6 = extractvalue { ptr, i64 } %5, 0, !dbg !2822
  %7 = extractvalue { ptr, i64 } %5, 1, !dbg !2822
  %8 = insertvalue { ptr, i64 } undef, ptr %6, 0, !dbg !2823
  %9 = insertvalue { ptr, i64 } %8, i64 %7, 1, !dbg !2823
  ret { ptr, i64 } %9, !dbg !2823
}

; core::ptr::unique::Unique<T>::dangling
; Function Attrs: inlinehint noredzone nounwind
define ptr @"_ZN4core3ptr6unique15Unique$LT$T$GT$8dangling17h43909fabac992d1aE"() unnamed_addr #1 !dbg !2824 {
start:
; call core::ptr::non_null::NonNull<T>::dangling
  %_1 = call ptr @"_ZN4core3ptr8non_null16NonNull$LT$T$GT$8dangling17h6a19becc08bf6f15E"() #17, !dbg !2827
; call <core::ptr::unique::Unique<T> as core::convert::From<core::ptr::non_null::NonNull<T>>>::from
  %0 = call ptr @"_ZN119_$LT$core..ptr..unique..Unique$LT$T$GT$$u20$as$u20$core..convert..From$LT$core..ptr..non_null..NonNull$LT$T$GT$$GT$$GT$4from17h48b8596408a422faE"(ptr %_1) #17, !dbg !2828
  ret ptr %0, !dbg !2829
}

; core::ptr::unique::Unique<T>::dangling
; Function Attrs: inlinehint noredzone nounwind
define ptr @"_ZN4core3ptr6unique15Unique$LT$T$GT$8dangling17ha0c383fd86308f07E"() unnamed_addr #1 !dbg !2830 {
start:
; call core::ptr::non_null::NonNull<T>::dangling
  %_1 = call ptr @"_ZN4core3ptr8non_null16NonNull$LT$T$GT$8dangling17hdfc682e11611b3e2E"() #17, !dbg !2833
; call <core::ptr::unique::Unique<T> as core::convert::From<core::ptr::non_null::NonNull<T>>>::from
  %0 = call ptr @"_ZN119_$LT$core..ptr..unique..Unique$LT$T$GT$$u20$as$u20$core..convert..From$LT$core..ptr..non_null..NonNull$LT$T$GT$$GT$$GT$4from17h6536788035efc0bdE"(ptr %_1) #17, !dbg !2834
  ret ptr %0, !dbg !2835
}

; core::ptr::mut_ptr::<impl *mut T>::is_null::runtime_impl
; Function Attrs: inlinehint noredzone nounwind
define internal zeroext i1 @"_ZN4core3ptr7mut_ptr31_$LT$impl$u20$$BP$mut$u20$T$GT$7is_null12runtime_impl17h0c173e9648b2f39eE"(ptr %ptr) unnamed_addr #1 !dbg !2836 {
start:
  %self.dbg.spill.i1 = alloca ptr, align 8
  %0 = alloca i64, align 8
  %self.dbg.spill.i = alloca ptr, align 8
  %ptr.dbg.spill = alloca ptr, align 8
  store ptr %ptr, ptr %ptr.dbg.spill, align 8
  call void @llvm.dbg.declare(metadata ptr %ptr.dbg.spill, metadata !2841, metadata !DIExpression()), !dbg !2842
  store ptr %ptr, ptr %self.dbg.spill.i, align 8
  call void @llvm.dbg.declare(metadata ptr %self.dbg.spill.i, metadata !2843, metadata !DIExpression()), !dbg !2848
  store ptr %ptr, ptr %self.dbg.spill.i1, align 8
  call void @llvm.dbg.declare(metadata ptr %self.dbg.spill.i1, metadata !2850, metadata !DIExpression()), !dbg !2856
  store ptr %ptr, ptr %0, align 8, !dbg !2858
  %1 = load i64, ptr %0, align 8, !dbg !2858, !noundef !45
  %2 = icmp eq i64 %1, 0, !dbg !2859
  ret i1 %2, !dbg !2860
}

; core::ptr::mut_ptr::<impl *mut T>::is_null
; Function Attrs: inlinehint noredzone nounwind
define zeroext i1 @"_ZN4core3ptr7mut_ptr31_$LT$impl$u20$$BP$mut$u20$T$GT$7is_null17h010291aa30e487a0E"(ptr %self.0, i64 %self.1) unnamed_addr #1 !dbg !2861 {
start:
  %self.dbg.spill = alloca { ptr, i64 }, align 8
  %_2 = alloca ptr, align 8
  %0 = getelementptr inbounds { ptr, i64 }, ptr %self.dbg.spill, i32 0, i32 0
  store ptr %self.0, ptr %0, align 8
  %1 = getelementptr inbounds { ptr, i64 }, ptr %self.dbg.spill, i32 0, i32 1
  store i64 %self.1, ptr %1, align 8
  call void @llvm.dbg.declare(metadata ptr %self.dbg.spill, metadata !2865, metadata !DIExpression()), !dbg !2866
  store ptr %self.0, ptr %_2, align 8, !dbg !2867
  %2 = load ptr, ptr %_2, align 8, !dbg !2868, !noundef !45
; call core::ptr::mut_ptr::<impl *mut T>::is_null::runtime_impl
  %3 = call zeroext i1 @"_ZN4core3ptr7mut_ptr31_$LT$impl$u20$$BP$mut$u20$T$GT$7is_null12runtime_impl17h0c173e9648b2f39eE"(ptr %2) #17, !dbg !2868
  ret i1 %3, !dbg !2869
}

; core::ptr::mut_ptr::<impl *mut T>::is_null
; Function Attrs: inlinehint noredzone nounwind
define zeroext i1 @"_ZN4core3ptr7mut_ptr31_$LT$impl$u20$$BP$mut$u20$T$GT$7is_null17h554c3e267abbbcbeE"(ptr %self) unnamed_addr #1 !dbg !2870 {
start:
  %self.dbg.spill = alloca ptr, align 8
  %_2 = alloca ptr, align 8
  store ptr %self, ptr %self.dbg.spill, align 8
  call void @llvm.dbg.declare(metadata ptr %self.dbg.spill, metadata !2875, metadata !DIExpression()), !dbg !2876
  store ptr %self, ptr %_2, align 8, !dbg !2877
