; ModuleID = 'compiler_builtins.913835f9-cgu.0'
source_filename = "compiler_builtins.913835f9-cgu.0"
target datalayout = "e-m:e-i64:64-f80:128-n8:16:32:64-S128"
target triple = "x86_64-obuasi-unknown-none"

module asm ""
module asm "            .pushsection .text.__rust_probestack"
module asm "            .globl __rust_probestack"
module asm "            .type  __rust_probestack, @function"
module asm "            .hidden __rust_probestack"
module asm "        __rust_probestack:"
module asm "            "
module asm "    .cfi_startproc"
module asm "    pushq  %rbp"
module asm "    .cfi_adjust_cfa_offset 8"
module asm "    .cfi_offset %rbp, -16"
module asm "    movq   %rsp, %rbp"
module asm "    .cfi_def_cfa_register %rbp"
module asm ""
module asm "    mov    %rax,%r11        // duplicate %rax as we're clobbering %r11"
module asm ""
module asm "    // Main loop, taken in one page increments. We're decrementing rsp by"
module asm "    // a page each time until there's less than a page remaining. We're"
module asm "    // guaranteed that this function isn't called unless there's more than a"
module asm "    // page needed."
module asm "    //"
module asm "    // Note that we're also testing against `8(%rsp)` to account for the 8"
module asm "    // bytes pushed on the stack orginally with our return address. Using"
module asm "    // `8(%rsp)` simulates us testing the stack pointer in the caller's"
module asm "    // context."
module asm ""
module asm "    // It's usually called when %rax >= 0x1000, but that's not always true."
module asm "    // Dynamic stack allocation, which is needed to implement unsized"
module asm "    // rvalues, triggers stackprobe even if %rax < 0x1000."
module asm "    // Thus we have to check %r11 first to avoid segfault."
module asm "    cmp    $0x1000,%r11"
module asm "    jna    3f"
module asm "2:"
module asm "    sub    $0x1000,%rsp"
module asm "    test   %rsp,8(%rsp)"
module asm "    sub    $0x1000,%r11"
module asm "    cmp    $0x1000,%r11"
module asm "    ja     2b"
module asm ""
module asm "3:"
module asm "    // Finish up the last remaining stack space requested, getting the last"
module asm "    // bits out of r11"
module asm "    sub    %r11,%rsp"
module asm "    test   %rsp,8(%rsp)"
module asm ""
module asm "    // Restore the stack pointer to what it previously was when entering"
module asm "    // this function. The caller will readjust the stack pointer after we"
module asm "    // return."
module asm "    add    %rax,%rsp"
module asm ""
module asm "    leave"
module asm "    .cfi_def_cfa_register %rsp"
module asm "    .cfi_adjust_cfa_offset -8"
module asm "    ret"
module asm "    .cfi_endproc"
module asm "    "
module asm "            .size __rust_probestack, . - __rust_probestack"
module asm "            .popsection"
module asm "            "

%"[closure@/Users/yaw/.cargo/registry/src/github.com-1ecc6299db9ec823/compiler_builtins-0.1.87/src/mem/x86_64.rs:159:14: 159:53]" = type {}
%"core::num::error::TryFromIntError" = type { {} }
%"core::convert::Infallible" = type { [0 x i8] }

@alloc2943 = private unnamed_addr constant <{ [107 x i8] }> <{ [107 x i8] c"/Users/yaw/.rustup/toolchains/nightly-aarch64-apple-darwin/lib/rustlib/src/rust/library/core/src/ops/bit.rs" }>, align 1
@alloc2938 = private unnamed_addr constant <{ ptr, [16 x i8] }> <{ ptr @alloc2943, [16 x i8] c"k\00\00\00\00\00\00\00\FB\01\00\00\01\00\00\00" }>, align 8
@str.0 = internal constant [35 x i8] c"attempt to shift left with overflow"
@alloc2940 = private unnamed_addr constant <{ ptr, [16 x i8] }> <{ ptr @alloc2943, [16 x i8] c"k\00\00\00\00\00\00\00s\02\00\00\01\00\00\00" }>, align 8
@str.1 = internal constant [36 x i8] c"attempt to shift right with overflow"
@alloc2983 = private unnamed_addr constant <{ [109 x i8] }> <{ [109 x i8] c"/Users/yaw/.rustup/toolchains/nightly-aarch64-apple-darwin/lib/rustlib/src/rust/library/core/src/ops/arith.rs" }>, align 1
@alloc2942 = private unnamed_addr constant <{ ptr, [16 x i8] }> <{ ptr @alloc2983, [16 x i8] c"m\00\00\00\00\00\00\00\DD\00\00\00\01\00\00\00" }>, align 8
@str.2 = internal constant [33 x i8] c"attempt to subtract with overflow"
@alloc2944 = private unnamed_addr constant <{ ptr, [16 x i8] }> <{ ptr @alloc2943, [16 x i8] c"k\00\00\00\00\00\00\00\1F\04\00\00\01\00\00\00" }>, align 8
@alloc2967 = private unnamed_addr constant <{ [107 x i8] }> <{ [107 x i8] c"/Users/yaw/.rustup/toolchains/nightly-aarch64-apple-darwin/lib/rustlib/src/rust/library/core/src/num/mod.rs" }>, align 1
@alloc2946 = private unnamed_addr constant <{ ptr, [16 x i8] }> <{ ptr @alloc2967, [16 x i8] c"k\00\00\00\00\00\00\00\E5\00\00\00\05\00\00\00" }>, align 8
@alloc2948 = private unnamed_addr constant <{ ptr, [16 x i8] }> <{ ptr @alloc2967, [16 x i8] c"k\00\00\00\00\00\00\00\A5\01\00\00\05\00\00\00" }>, align 8
@alloc2950 = private unnamed_addr constant <{ ptr, [16 x i8] }> <{ ptr @alloc2967, [16 x i8] c"k\00\00\00\00\00\00\00\FC\00\00\00\05\00\00\00" }>, align 8
@alloc2952 = private unnamed_addr constant <{ ptr, [16 x i8] }> <{ ptr @alloc2967, [16 x i8] c"k\00\00\00\00\00\00\00\13\01\00\00\05\00\00\00" }>, align 8
@alloc2954 = private unnamed_addr constant <{ ptr, [16 x i8] }> <{ ptr @alloc2967, [16 x i8] c"k\00\00\00\00\00\00\00*\01\00\00\05\00\00\00" }>, align 8
@alloc2956 = private unnamed_addr constant <{ ptr, [16 x i8] }> <{ ptr @alloc2967, [16 x i8] c"k\00\00\00\00\00\00\00\FF\03\00\00\05\00\00\00" }>, align 8
@alloc2958 = private unnamed_addr constant <{ ptr, [16 x i8] }> <{ ptr @alloc2967, [16 x i8] c"k\00\00\00\00\00\00\00/\04\00\00\05\00\00\00" }>, align 8
@alloc2960 = private unnamed_addr constant <{ ptr, [16 x i8] }> <{ ptr @alloc2967, [16 x i8] c"k\00\00\00\00\00\00\00F\04\00\00\05\00\00\00" }>, align 8
@alloc2962 = private unnamed_addr constant <{ ptr, [16 x i8] }> <{ ptr @alloc2967, [16 x i8] c"k\00\00\00\00\00\00\00A\01\00\00\05\00\00\00" }>, align 8
@alloc2964 = private unnamed_addr constant <{ ptr, [16 x i8] }> <{ ptr @alloc2967, [16 x i8] c"k\00\00\00\00\00\00\00]\04\00\00\05\00\00\00" }>, align 8
@alloc2966 = private unnamed_addr constant <{ ptr, [16 x i8] }> <{ ptr @alloc2967, [16 x i8] c"k\00\00\00\00\00\00\00\8B\01\00\00\05\00\00\00" }>, align 8
@alloc2968 = private unnamed_addr constant <{ ptr, [16 x i8] }> <{ ptr @alloc2967, [16 x i8] c"k\00\00\00\00\00\00\00\A6\04\00\00\05\00\00\00" }>, align 8
@alloc2969 = private unnamed_addr constant <{ [107 x i8] }> <{ [107 x i8] c"/Users/yaw/.rustup/toolchains/nightly-aarch64-apple-darwin/lib/rustlib/src/rust/library/core/src/ptr/mod.rs" }>, align 1
@alloc2970 = private unnamed_addr constant <{ ptr, [16 x i8] }> <{ ptr @alloc2969, [16 x i8] c"k\00\00\00\00\00\00\00\E3\04\00\00\0D\00\00\00" }>, align 8
@alloc2971 = private unnamed_addr constant <{ [82 x i8] }> <{ [82 x i8] c"unsafe precondition(s) violated: hint::unreachable_unchecked must never be reached" }>, align 1
@alloc2982 = private unnamed_addr constant <{ [32 x i8] }> <{ [32 x i8] c"assertion failed: self.is_some()" }>, align 1
@alloc2984 = private unnamed_addr constant <{ ptr, [16 x i8] }> <{ ptr @alloc2983, [16 x i8] c"m\00\00\00\00\00\00\00\08\03\00\00\01\00\00\00" }>, align 8
@str.3 = internal constant [28 x i8] c"attempt to add with overflow"
@alloc2986 = private unnamed_addr constant <{ ptr, [16 x i8] }> <{ ptr @alloc2943, [16 x i8] c"k\00\00\00\00\00\00\00\CB\03\00\00\01\00\00\00" }>, align 8
@alloc2993 = private unnamed_addr constant <{ [100 x i8] }> <{ [100 x i8] c"/Users/yaw/.cargo/registry/src/github.com-1ecc6299db9ec823/compiler_builtins-0.1.87/src/float/add.rs" }>, align 1
@alloc2988 = private unnamed_addr constant <{ ptr, [16 x i8] }> <{ ptr @alloc2993, [16 x i8] c"d\00\00\00\00\00\00\00\88\00\00\00\11\00\00\00" }>, align 8
@alloc2990 = private unnamed_addr constant <{ ptr, [16 x i8] }> <{ ptr @alloc2993, [16 x i8] c"d\00\00\00\00\00\00\00\8A\00\00\00\0D\00\00\00" }>, align 8
@alloc2992 = private unnamed_addr constant <{ ptr, [16 x i8] }> <{ ptr @alloc2993, [16 x i8] c"d\00\00\00\00\00\00\00\95\00\00\00\0D\00\00\00" }>, align 8
@alloc2994 = private unnamed_addr constant <{ ptr, [16 x i8] }> <{ ptr @alloc2993, [16 x i8] c"d\00\00\00\00\00\00\00\A1\00\00\00\15\00\00\00" }>, align 8
@alloc3235 = private unnamed_addr constant <{ [101 x i8] }> <{ [101 x i8] c"/Users/yaw/.cargo/registry/src/github.com-1ecc6299db9ec823/compiler_builtins-0.1.87/src/float/conv.rs" }>, align 1
@alloc2996 = private unnamed_addr constant <{ ptr, [16 x i8] }> <{ ptr @alloc3235, [16 x i8] c"e\00\00\00\00\00\00\00\0D\00\00\00\11\00\00\00" }>, align 8
@alloc2998 = private unnamed_addr constant <{ ptr, [16 x i8] }> <{ ptr @alloc3235, [16 x i8] c"e\00\00\00\00\00\00\00\0E\00\00\00\11\00\00\00" }>, align 8
@alloc3000 = private unnamed_addr constant <{ ptr, [16 x i8] }> <{ ptr @alloc3235, [16 x i8] c"e\00\00\00\00\00\00\00\0F\00\00\00\16\00\00\00" }>, align 8
@alloc3002 = private unnamed_addr constant <{ ptr, [16 x i8] }> <{ ptr @alloc3235, [16 x i8] c"e\00\00\00\00\00\00\00\0F\00\00\00\11\00\00\00" }>, align 8
@alloc3004 = private unnamed_addr constant <{ ptr, [16 x i8] }> <{ ptr @alloc3235, [16 x i8] c"e\00\00\00\00\00\00\00\10\00\00\00\11\00\00\00" }>, align 8
@alloc3006 = private unnamed_addr constant <{ ptr, [16 x i8] }> <{ ptr @alloc3235, [16 x i8] c"e\00\00\00\00\00\00\00\11\00\00\00\09\00\00\00" }>, align 8
@alloc3008 = private unnamed_addr constant <{ ptr, [16 x i8] }> <{ ptr @alloc3235, [16 x i8] c"e\00\00\00\00\00\00\00\19\00\00\00\1F\00\00\00" }>, align 8
@alloc3010 = private unnamed_addr constant <{ ptr, [16 x i8] }> <{ ptr @alloc3235, [16 x i8] c"e\00\00\00\00\00\00\00\19\00\00\00\11\00\00\00" }>, align 8
@alloc3012 = private unnamed_addr constant <{ ptr, [16 x i8] }> <{ ptr @alloc3235, [16 x i8] c"e\00\00\00\00\00\00\00\1A\00\00\00\11\00\00\00" }>, align 8
@alloc3014 = private unnamed_addr constant <{ ptr, [16 x i8] }> <{ ptr @alloc3235, [16 x i8] c"e\00\00\00\00\00\00\00\1B\00\00\00\09\00\00\00" }>, align 8
@alloc3016 = private unnamed_addr constant <{ ptr, [16 x i8] }> <{ ptr @alloc3235, [16 x i8] c"e\00\00\00\00\00\00\00#\00\00\00\16\00\00\00" }>, align 8
@alloc3018 = private unnamed_addr constant <{ ptr, [16 x i8] }> <{ ptr @alloc3235, [16 x i8] c"e\00\00\00\00\00\00\00#\00\00\00\11\00\00\00" }>, align 8
@alloc3020 = private unnamed_addr constant <{ ptr, [16 x i8] }> <{ ptr @alloc3235, [16 x i8] c"e\00\00\00\00\00\00\00$\00\00\00(\00\00\00" }>, align 8
@alloc3022 = private unnamed_addr constant <{ ptr, [16 x i8] }> <{ ptr @alloc3235, [16 x i8] c"e\00\00\00\00\00\00\00%\00\00\00\09\00\00\00" }>, align 8
@alloc3024 = private unnamed_addr constant <{ ptr, [16 x i8] }> <{ ptr @alloc3235, [16 x i8] c"e\00\00\00\00\00\00\00-\00\00\00\11\00\00\00" }>, align 8
@alloc3026 = private unnamed_addr constant <{ ptr, [16 x i8] }> <{ ptr @alloc3235, [16 x i8] c"e\00\00\00\00\00\00\00.\00\00\00\11\00\00\00" }>, align 8
@alloc3028 = private unnamed_addr constant <{ ptr, [16 x i8] }> <{ ptr @alloc3235, [16 x i8] c"e\00\00\00\00\00\00\00/\00\00\00\16\00\00\00" }>, align 8
@alloc3030 = private unnamed_addr constant <{ ptr, [16 x i8] }> <{ ptr @alloc3235, [16 x i8] c"e\00\00\00\00\00\00\00/\00\00\00\11\00\00\00" }>, align 8
@alloc3032 = private unnamed_addr constant <{ ptr, [16 x i8] }> <{ ptr @alloc3235, [16 x i8] c"e\00\00\00\00\00\00\000\00\00\00\11\00\00\00" }>, align 8
@alloc3034 = private unnamed_addr constant <{ ptr, [16 x i8] }> <{ ptr @alloc3235, [16 x i8] c"e\00\00\00\00\00\00\001\00\00\00\09\00\00\00" }>, align 8
@alloc3036 = private unnamed_addr constant <{ ptr, [16 x i8] }> <{ ptr @alloc3235, [16 x i8] c"e\00\00\00\00\00\00\009\00\00\00\16\00\00\00" }>, align 8
@alloc3038 = private unnamed_addr constant <{ ptr, [16 x i8] }> <{ ptr @alloc3235, [16 x i8] c"e\00\00\00\00\00\00\009\00\00\00\11\00\00\00" }>, align 8
@alloc3040 = private unnamed_addr constant <{ ptr, [16 x i8] }> <{ ptr @alloc3235, [16 x i8] c"e\00\00\00\00\00\00\00:\00\00\00(\00\00\00" }>, align 8
@alloc3042 = private unnamed_addr constant <{ ptr, [16 x i8] }> <{ ptr @alloc3235, [16 x i8] c"e\00\00\00\00\00\00\00;\00\00\00\09\00\00\00" }>, align 8
@alloc3044 = private unnamed_addr constant <{ ptr, [16 x i8] }> <{ ptr @alloc3235, [16 x i8] c"e\00\00\00\00\00\00\00C\00\00\00\16\00\00\00" }>, align 8
@alloc3046 = private unnamed_addr constant <{ ptr, [16 x i8] }> <{ ptr @alloc3235, [16 x i8] c"e\00\00\00\00\00\00\00C\00\00\00\11\00\00\00" }>, align 8
@alloc3048 = private unnamed_addr constant <{ ptr, [16 x i8] }> <{ ptr @alloc3235, [16 x i8] c"e\00\00\00\00\00\00\00D\00\00\00(\00\00\00" }>, align 8
@alloc3050 = private unnamed_addr constant <{ ptr, [16 x i8] }> <{ ptr @alloc3235, [16 x i8] c"e\00\00\00\00\00\00\00E\00\00\00\09\00\00\00" }>, align 8
@alloc3061 = private unnamed_addr constant <{ [100 x i8] }> <{ [100 x i8] c"/Users/yaw/.cargo/registry/src/github.com-1ecc6299db9ec823/compiler_builtins-0.1.87/src/float/div.rs" }>, align 1
@alloc3052 = private unnamed_addr constant <{ ptr, [16 x i8] }> <{ ptr @alloc3061, [16 x i8] c"d\00\00\00\00\00\00\00e\00\00\00\0D\00\00\00" }>, align 8
@alloc3054 = private unnamed_addr constant <{ ptr, [16 x i8] }> <{ ptr @alloc3061, [16 x i8] c"d\00\00\00\00\00\00\00k\00\00\00\0D\00\00\00" }>, align 8
@alloc3056 = private unnamed_addr constant <{ ptr, [16 x i8] }> <{ ptr @alloc3061, [16 x i8] c"d\00\00\00\00\00\00\00\B5\00\00\00\1B\00\00\00" }>, align 8
@alloc3058 = private unnamed_addr constant <{ ptr, [16 x i8] }> <{ ptr @alloc3061, [16 x i8] c"d\00\00\00\00\00\00\008\01\00\00\0D\00\00\00" }>, align 8
@alloc3060 = private unnamed_addr constant <{ ptr, [16 x i8] }> <{ ptr @alloc3061, [16 x i8] c"d\00\00\00\00\00\00\00>\01\00\00\0D\00\00\00" }>, align 8
@alloc3062 = private unnamed_addr constant <{ ptr, [16 x i8] }> <{ ptr @alloc3061, [16 x i8] c"d\00\00\00\00\00\00\00\A3\01\00\00\1B\00\00\00" }>, align 8
@alloc3069 = private unnamed_addr constant <{ [103 x i8] }> <{ [103 x i8] c"/Users/yaw/.cargo/registry/src/github.com-1ecc6299db9ec823/compiler_builtins-0.1.87/src/float/extend.rs" }>, align 1
@alloc3064 = private unnamed_addr constant <{ ptr, [16 x i8] }> <{ ptr @alloc3069, [16 x i8] c"g\00\00\00\00\00\00\00=\00\00\00\15\00\00\00" }>, align 8
@alloc3066 = private unnamed_addr constant <{ ptr, [16 x i8] }> <{ ptr @alloc3069, [16 x i8] c"g\00\00\00\00\00\00\00?\00\00\00!\00\00\00" }>, align 8
@alloc3068 = private unnamed_addr constant <{ ptr, [16 x i8] }> <{ ptr @alloc3069, [16 x i8] c"g\00\00\00\00\00\00\00?\00\00\00 \00\00\00" }>, align 8
@alloc3070 = private unnamed_addr constant <{ ptr, [16 x i8] }> <{ ptr @alloc3069, [16 x i8] c"g\00\00\00\00\00\00\00@\00\00\00+\00\00\00" }>, align 8
@alloc3085 = private unnamed_addr constant <{ [100 x i8] }> <{ [100 x i8] c"/Users/yaw/.cargo/registry/src/github.com-1ecc6299db9ec823/compiler_builtins-0.1.87/src/float/mul.rs" }>, align 1
@alloc3072 = private unnamed_addr constant <{ ptr, [16 x i8] }> <{ ptr @alloc3085, [16 x i8] c"d\00\00\00\00\00\00\00]\00\00\00\0D\00\00\00" }>, align 8
@alloc3074 = private unnamed_addr constant <{ ptr, [16 x i8] }> <{ ptr @alloc3085, [16 x i8] c"d\00\00\00\00\00\00\00c\00\00\00\0D\00\00\00" }>, align 8
@alloc3076 = private unnamed_addr constant <{ ptr, [16 x i8] }> <{ ptr @alloc3085, [16 x i8] c"d\00\00\00\00\00\00\00\9A\00\00\00)\00\00\00" }>, align 8
@alloc3078 = private unnamed_addr constant <{ ptr, [16 x i8] }> <{ ptr @alloc3085, [16 x i8] c"d\00\00\00\00\00\00\00\9B\00\00\00+\00\00\00" }>, align 8
@alloc3080 = private unnamed_addr constant <{ ptr, [16 x i8] }> <{ ptr @alloc3085, [16 x i8] c"d\00\00\00\00\00\00\00\9D\00\00\00\1B\00\00\00" }>, align 8
@str.4 = internal constant [33 x i8] c"attempt to multiply with overflow"
@alloc3082 = private unnamed_addr constant <{ ptr, [16 x i8] }> <{ ptr @alloc3085, [16 x i8] c"d\00\00\00\00\00\00\00\9E\00\00\00+\00\00\00" }>, align 8
@alloc3084 = private unnamed_addr constant <{ ptr, [16 x i8] }> <{ ptr @alloc3085, [16 x i8] c"d\00\00\00\00\00\00\00\9E\00\00\00*\00\00\00" }>, align 8
@alloc3086 = private unnamed_addr constant <{ ptr, [16 x i8] }> <{ ptr @alloc3085, [16 x i8] c"d\00\00\00\00\00\00\00\9F\00\00\00+\00\00\00" }>, align 8
@alloc3097 = private unnamed_addr constant <{ [102 x i8] }> <{ [102 x i8] c"/Users/yaw/.cargo/registry/src/github.com-1ecc6299db9ec823/compiler_builtins-0.1.87/src/float/trunc.rs" }>, align 1
@alloc3088 = private unnamed_addr constant <{ ptr, [16 x i8] }> <{ ptr @alloc3097, [16 x i8] c"f\00\00\00\00\00\00\00$\00\00\00'\00\00\00" }>, align 8
@alloc3090 = private unnamed_addr constant <{ ptr, [16 x i8] }> <{ ptr @alloc3097, [16 x i8] c"f\00\00\00\00\00\00\00$\00\00\00&\00\00\00" }>, align 8
@alloc3092 = private unnamed_addr constant <{ ptr, [16 x i8] }> <{ ptr @alloc3097, [16 x i8] c"f\00\00\00\00\00\00\00%\00\00\00&\00\00\00" }>, align 8
@alloc3094 = private unnamed_addr constant <{ ptr, [16 x i8] }> <{ ptr @alloc3097, [16 x i8] c"f\00\00\00\00\00\00\00%\00\00\00%\00\00\00" }>, align 8
@alloc3096 = private unnamed_addr constant <{ ptr, [16 x i8] }> <{ ptr @alloc3097, [16 x i8] c"f\00\00\00\00\00\00\00R\00\00\00\15\00\00\00" }>, align 8
@alloc3098 = private unnamed_addr constant <{ ptr, [16 x i8] }> <{ ptr @alloc3097, [16 x i8] c"f\00\00\00\00\00\00\00Z\00\00\00-\00\00\00" }>, align 8
@alloc3109 = private unnamed_addr constant <{ [100 x i8] }> <{ [100 x i8] c"/Users/yaw/.cargo/registry/src/github.com-1ecc6299db9ec823/compiler_builtins-0.1.87/src/int/shift.rs" }>, align 1
@alloc3100 = private unnamed_addr constant <{ ptr, [16 x i8] }> <{ ptr @alloc3109, [16 x i8] c"d\00\00\00\00\00\00\00\09\00\00\00$\00\00\00" }>, align 8
@alloc3102 = private unnamed_addr constant <{ ptr, [16 x i8] }> <{ ptr @alloc3109, [16 x i8] c"d\00\00\00\00\00\00\00\0F\00\00\00'\00\00\00" }>, align 8
@alloc3104 = private unnamed_addr constant <{ ptr, [16 x i8] }> <{ ptr @alloc3109, [16 x i8] c"d\00\00\00\00\00\00\00\1F\00\00\00(\00\00\00" }>, align 8
@alloc3106 = private unnamed_addr constant <{ ptr, [16 x i8] }> <{ ptr @alloc3109, [16 x i8] c"d\00\00\00\00\00\00\00'\00\00\00E\00\00\00" }>, align 8
@alloc3108 = private unnamed_addr constant <{ ptr, [16 x i8] }> <{ ptr @alloc3109, [16 x i8] c"d\00\00\00\00\00\00\007\00\00\00#\00\00\00" }>, align 8
@alloc3110 = private unnamed_addr constant <{ ptr, [16 x i8] }> <{ ptr @alloc3109, [16 x i8] c"d\00\00\00\00\00\00\00<\00\00\00E\00\00\00" }>, align 8
@_ZN17compiler_builtins4math4libm4exp23TBL17h482e2575dba52c06E = internal constant <{ [4096 x i8] }> <{ [4096 x i8] c"]=\7Ff\9E\A0\E6?\00\00\00\00\00\889=D\17u\FAR\B0\E6?\00\00\00\00\00\00\D8<\FE\D9\0Bu\12\C0\E6?\00\00\00\00\00x(\BD\BFv\D4\DD\DC\CF\E6?\00\00\00\00\00\C0\1E=)\1Ae<\B2\DF\E6?\00\00\00\00\00\00\D8\BC\E3:Y\98\92\EF\E6?\00\00\00\00\00\00\BC\BC\86\93Q\F9}\FF\E6?\00\00\00\00\00\D8/\BD\A3-\F4ft\0F\E7?\00\00\00\00\00\88,\BD\C3_\EC\E8u\1F\E7?\00\00\00\00\00\C0\13=\05\CF\EA\86\82/\E7?\00\00\00\00\0008\BDR\81\A5H\9A?\E7?\00\00\00\00\00\C0\00\BD\FC\CC\D75\BDO\E7?\00\00\00\00\00\88/=\F1gBV\EB_\E7?\00\00\00\00\00\E0\03=Hm\AB\B1$p\E7?\00\00\00\00\00\D0'\BD8]\DEOi\80\E7?\00\00\00\00\00\00\DD\BC\00\1D\AC8\B9\90\E7?\00\00\00\00\00\00\E3<x\01\EBs\14\A1\E7?\00\00\00\00\00\00\ED\BC`\D0v\09{\B1\E7?\00\00\00\00\00@ =3\C10\01\ED\C1\E7?\00\00\00\00\00\00\A0<6\86\FFbj\D2\E7?\00\00\00\00\00\90&\BD;N\CF6\F3\E2\E7?\00\00\00\00\00\E0\02\BD\E8\C3\91\84\87\F3\E7?\00\00\00\00\00X$\BDN\1B>T'\04\E8?\00\00\00\00\00\003=\1A\07\D1\AD\D2\14\E8?\00\00\00\00\00\00\0F=~\CDL\99\89%\E8?\00\00\00\00\00\C0!\BD\D0B\B9\1EL6\E8?\00\00\00\00\00\D0)=\B5\CA#F\1AG\E8?\00\00\00\00\00\10G=\BC[\9F\17\F4W\E8?\00\00\00\00\00`\22=\AF\91D\9B\D9h\E8?\00\00\00\00\00\C42\BD\95\A31\D9\CAy\E8?\00\00\00\00\00\00#\BD\B8e\8A\D9\C7\8A\E8?\00\00\00\00\00\80*\BD\00Xx\A4\D0\9B\E8?\00\00\00\00\00\00\ED\BC#\A2*B\E5\AC\E8?\00\00\00\00\00(3=\FA\19\D6\BA\05\BE\E8?\00\00\00\00\00\B4B=\83C\B5\162\CF\E8?\00\00\00\00\00\D0.\BDLf\08^j\E0\E8?\00\00\00\00\00P \BD\07x\15\99\AE\F1\E8?\00\00\00\00\00((=\0E,(\D0\FE\02\E9?\00\00\00\00\00\B0\1C\BD\96\FF\91\0B[\14\E9?\00\00\00\00\00\E0\05\BD\F9/\AAS\C3%\E9?\00\00\00\00\00@\F5<J\C6\CD\B077\E9?\00\00\00\00\00 \17=\AE\98_+\B8H\E9?\00\00\00\00\00\00\09\BD\CBR\C8\CBDZ\E9?\00\00\00\00\00h%=!ov\9A\DDk\E9?\00\00\00\00\00\D06\BD*N\DE\9F\82}\E9?\00\00\00\00\00\00\01\BD\A3#z\E43\8F\E9?\00\00\00\00\00\00-=\04\06\CAp\F1\A0\E9?\00\00\00\00\00\A48\BD\89\FFSM\BB\B2\E9?\00\00\00\00\00\\5=[\F1\A3\82\91\C4\E9?\00\00\00\00\00\B8&=\C5\B8K\19t\D6\E9?\00\00\00\00\00\00\EC\BC\8E#\E3\19c\E8\E9?\00\00\00\00\00\D0\17=\02\F3\07\8D^\FA\E9?\00\00\00\00\00@\16=M\E5]{f\0C\EA?\00\00\00\00\00\00\F5\BC\F6\B8\8E\EDz\1E\EA?\00\00\00\00\00\E0\09='.J\EC\9B0\EA?\00\00\00\00\00\D8*=]\0AF\80\C9B\EA?\00\00\00\00\00\F0\1A\BD\9B%>\B2\03U\EA?\00\00\00\00\00`\0B=\13b\F4\8AJg\EA?\00\00\00\00\00\888=\A7\B30\13\9Ey\EA?\00\00\00\00\00 \11=\8D.\C1S\FE\8B\EA?\00\00\00\00\00\C0\06=\D2\FCyUk\9E\EA?\00\00\00\00\00\B8)\BD\B8o5!\E5\B0\EA?\00\00\00\00\00p+=\81\F3\D3\BFk\C3\EA?\00\00\00\00\00\00\D9<\80'<:\FF\D5\EA?\00\00\00\00\00\00\E4<\A3\D2Z\99\9F\E8\EA?\00\00\00\00\00\90,\BDg\F3\22\E6L\FB\EA?\00\00\00\00\00P\16=\90\B7\8D)\07\0E\EB?\00\00\00\00\00\D4/=\A9\89\9Al\CE \EB?\00\00\00\00\00p\12=K\1AO\B8\A23\EB?\00\00\00\00\00GM=\E7G\B7\15\84F\EB?\00\00\00\00\0088\BD:Y\E5\8DrY\EB?\00\00\00\00\00\00\98<j\C5\F1)nl\EB?\00\00\00\00\00\D0\0A=P^\FB\F2v\7F\EB?\00\00\00\00\00\80\DE<\B2I'\F2\8C\92\EB?\00\00\00\00\00\C0\04\BD\03\06\A10\B0\A5\EB?\00\00\00\00\00p\0D\BDfo\9A\B7\E0\B8\EB?\00\00\00\00\00\90\0D=\FF\C1K\90\1E\CC\EB?\00\00\00\00\00\A0\02=o\A1\F3\C3i\DF\EB?\00\00\00\00\00x\1F\BD\B8\1D\D7[\C2\F2\EB?\00\00\00\00\00\A0\10\BD\E9\B2Aa(\06\EC?\00\00\00\00\00@\11\BD\E0R\85\DD\9B\19\EC?\00\00\00\00\00\E0\0B=\EEd\FA\D9\1C-\EC?\00\00\00\00\00@\09\BD/\D0\FF_\AB@\EC?\00\00\00\00\00\D0\0E\BD\15\FD\FAxGT\EC?\00\00\00\00\00f9=\CB\D0W.\F1g\EC?\00\00\00\00\00\10\1A\BD\B6\C1\88\89\A8{\EC?\00\00\00\00\80EX\BD3\E7\06\94m\8F\EC?\00\00\00\00\00H\1A\BD\DF\C4QW@\A3\EC?\00\00\00\00\00\00\CB<\94\90\EF\DC \B7\EC?\00\00\00\00\00@\01=\89\16m.\0F\CB\EC?\00\00\00\00\00 \F0<\12\C4]U\0B\DF\EC?\00\00\00\00\00`\F3<;\AB[[\15\F3\EC?\00\00\00\00\00\90\06\BD\BC\89\07J-\07\ED?\00\00\00\00\00\A0\09=\FA\C8\08+S\1B\ED?\00\00\00\00\00\E0\15\BD\85\8A\0D\08\87/\ED?\00\00\00\00\00(\1D=\03\A2\CA\EA\C8C\ED?\00\00\00\00\00\A0\01=\91\A4\FB\DC\18X\ED?\00\00\00\00\00\00\DF<\A1\E6b\E8vl\ED?\00\00\00\00\00\A0\03\BDN\83\C9\16\E3\80\ED?\00\00\00\00\00\D8\0C\BD\90`\FFq]\95\ED?\00\00\00\00\00\C0\F4<\AE2\DB\03\E6\A9\ED?\00\00\00\00\00\90\FF<%\83:\D6|\BE\ED?\00\00\00\00\00\80\E9<E\B4\01\F3!\D3\ED?\00\00\00\00\00 \F5\BC\BF\05\1Cd\D5\E7\ED?\00\00\00\00\00p\1D\BD\EC\9A{3\97\FC\ED?\00\00\00\00\00\14\16\BD^}\19kg\11\EE?\00\00\00\00\00H\0B=\E7\A3\F5\14F&\EE?\00\00\00\00\00\CE@=\\\EE\16;3;\EE?\00\00\00\00\00h\0C=\B4?\8B\E7.P\EE?\00\00\00\00\000\09\BDhmg$9e\EE?\00\00\00\00\00\00\E5\BCDL\C7\FBQz\EE?\00\00\00\00\00\F8\07\BD&\B7\CDwy\8F\EE?\00\00\00\00\00p\F3\BC\E8\90\A4\A2\AF\A4\EE?\00\00\00\00\00\D0\E5<\E4\CA|\86\F4\B9\EE?\00\00\00\00\00\1A\16=\0Dh\8E-H\CF\EE?\00\00\00\00\00P\F5<\14\85\18\A2\AA\E4\EE?\00\00\00\00\00@\C6<\13Za\EE\1B\FA\EE?\00\00\00\00\00\80\EE\BC\06A\B6\1C\9C\0F\EF?\00\00\00\00\00\88\FA\BCc\B9k7+%\EF?\00\00\00\00\00\90,\BDur\DDH\C9:\EF?\00\00\00\00\00\00\AA<$En[vP\EF?\00\00\00\00\00\F0\F4\BC\FDD\88y2f\EF?\00\00\00\00\00\80\CA<8\BE\9C\AD\FD{\EF?\00\00\00\00\00\BC\FA<\82<$\02\D8\91\EF?\00\00\00\00\00`\D4\BC\8E\90\9E\81\C1\A7\EF?\00\00\00\00\00\0C\0B\BD\11\D5\926\BA\BD\EF?\00\00\00\00\00\E0\C0\BC\94q\8F+\C2\D3\EF?\00\00\00\00\80\DE\10\BD\EE#*k\D9\E9\EF?\00\00\00\00\00C\EE<\00\00\00\00\00\00\F0?\00\00\00\00\00\00\00\00\BE\BCZ\FA\1A\0B\F0?\00\00\00\00\00@\B3\BC\033\FB\A9=\16\F0?\00\00\00\00\00\17\12\BD\82\02;\14h!\F0?\00\00\00\00\00@\BA<l\80w>\9A,\F0?\00\00\00\00\00\98\EF<\CA\BB\11.\D47\F0?\00\00\00\00\00@\C7\BC\89\7Fn\E8\15C\F0?\00\00\00\00\000\D8<gT\F6r_N\F0?\00\00\00\00\00?\1A\BDZ\85\15\D3\B0Y\F0?\00\00\00\00\00\84\02\BD\95\1F<\0E\0Ae\F0?\00\00\00\00\00`\F1<\1A\F7\DD)kp\F0?\00\00\00\00\00$\15=-\A8r+\D4{\F0?\00\00\00\00\00\A0\E9\BC\D0\9Bu\18E\87\F0?\00\00\00\00\00@\E6<\C8\07f\F6\BD\92\F0?\00\00\00\00\00x\00\BD\83\F3\C6\CA>\9E\F0?\00\00\00\00\00\00\98\BC09\1F\9B\C7\A9\F0?\00\00\00\00\00\A0\FF<\FC\88\F9lX\B5\F0?\00\00\00\00\00\C8\FA\BC\8Al\E4E\F1\C0\F0?\00\00\00\00\00\C0\D9<\16Hr+\92\CC\F0?\00\00\00\00\00 \05=\D8]9#;\D8\F0?\00\00\00\00\00\D0\FA\BC\F3\D1\D32\EC\E3\F0?\00\00\00\00\00\AC\1B=\A6\A9\DF_\A5\EF\F0?\00\00\00\00\00\E8\04\BD\F0\D2\FE\AFf\FB\F0?\00\00\00\00\000\0D\BDK#\D7(0\07\F1?\00\00\00\00\00P\F1<[[\12\D0\01\13\F1?\00\00\00\00\00\00\EC<\F9*^\AB\DB\1E\F1?\00\00\00\00\00\BC\16=\D51l\C0\BD*\F1?\00\00\00\00\00@\E8<}\04\F2\14\A86\F1?\00\00\00\00\00\D0\0E\BD\E9-\A9\AE\9AB\F1?\00\00\00\00\00\E0\E8<81O\93\95N\F1?\00\00\00\00\00@\EB<q\8E\A5\C8\98Z\F1?\00\00\00\00\000\05=\DF\C3qT\A4f\F1?\00\00\00\00\008\03=\11R}<\B8r\F1?\00\00\00\00\00\D4(=\9F\BB\95\86\D4~\F1?\00\00\00\00\00\D0\05\BD\93\8D\8C8\F9\8A\F1?\00\00\00\00\00\88\1C\BDf]7X&\97\F1?\00\00\00\00\00\F0\11=\A7\CBo\EB[\A3\F1?\00\00\00\00\00H\10=\E3\87\13\F8\99\AF\F1?\00\00\00\00\009G\BDT]\04\84\E0\BB\F1?\00\00\00\00\00\E4$=C\1C(\95/\C8\F1?\00\00\00\00\00 \0A\BD\B2\B9h1\87\D4\F1?\00\00\00\00\00\80\E3<1@\B4^\E7\E0\F1?\00\00\00\00\00\C0\EA<8\D9\FC\22P\ED\F1?\00\00\00\00\00\90\01=\F7\CD8\84\C1\F9\F1?\00\00\00\00\00x\1B\BD\8F\8Db\88;\06\F2?\00\00\00\00\00\94-=\1E\A8x5\BE\12\F2?\00\00\00\00\00\00\D8<A\DD}\91I\1F\F2?\00\00\00\00\004+=#\13y\A2\DD+\F2?\00\00\00\00\00\F8\19=\E7aunz8\F2?\00\00\00\00\00\C8\19\BD'\14\82\FB\1FE\F2?\00\00\00\00\000\02=\02\A6\B2O\CEQ\F2?\00\00\00\00\00H\13\BD\B0\CE\1Eq\85^\F2?\00\00\00\00\00p\12=\16}\E2eEk\F2?\00\00\00\00\00\D0\11=\0F\E0\1D4\0Ex\F2?\00\00\00\00\00\EE1=>c\F5\E1\DF\84\F2?\00\00\00\00\00\C0\14\BD0\BB\91u\BA\91\F2?\00\00\00\00\00\D8\13\BD\09\DF\1F\F5\9D\9E\F2?\00\00\00\00\00\B0\08=\9B\0E\D1f\8A\AB\F2?\00\00\00\00\00|\22\BD:\DA\DA\D0\7F\B8\F2?\00\00\00\00\004*=\F9\1Aw9~\C5\F2?\00\00\00\00\00\80\10\BD\D9\02\E4\A6\85\D2\F2?\00\00\00\00\00\D0\0E\BDy\15d\1F\96\DF\F2?\00\00\00\00\00 \F4\BC\CF.>\A9\AF\EC\F2?\00\00\00\00\00\98$\BD\22\88\BDJ\D2\F9\F2?\00\00\00\00\000\16\BD%\B61\0A\FE\06\F3?\00\00\00\00\0062\BD\0B\A5\EE\ED2\14\F3?\00\00\00\00\80\DFp\BD\B8\D7L\FCp!\F3?\00\00\00\00\00H\22\BD\A2\E9\A8;\B8.\F3?\00\00\00\00\00\98%\BDf\17d\B2\08<\F3?\00\00\00\00\00\D0\1E='\FA\E3fbI\F3?\00\00\00\00\00\00\DC\BC\0F\9F\92_\C5V\F3?\00\00\00\00\00\D80\BD\B9\88\DE\A21d\F3?\00\00\00\00\00\C8\22=9\AA:7\A7q\F3?\00\00\00\00\00` =\FEt\1E#&\7F\F3?\00\00\00\00\00`\16\BD8\D8\05m\AE\8C\F3?\00\00\00\00\00\E0\0A\BD\C3>q\1B@\9A\F3?\00\00\00\00\00rD\BD \A0\E54\DB\A7\F3?\00\00\00\00\00 \08=\95n\EC\BF\7F\B5\F3?\00\00\00\00\00\80>=\F2\A8\13\C3-\C3\F3?\00\00\00\00\00\80\EF<\22\E1\EDD\E5\D0\F3?\00\00\00\00\00\A0\17\BD\BB4\12L\A6\DE\F3?\00\00\00\00\000&=\CCN\1C\DFp\EC\F3?\00\00\00\00\00\A6H\BD\8C~\AC\04E\FA\F3?\00\00\00\00\00\DC<\BD\BB\A0g\C3\22\08\F4?\00\00\00\00\00\B8%=\95.\F7!\0A\16\F4?\00\00\00\00\00\C0\1E=FF\09'\FB#\F4?\00\00\00\00\00`\13\BD \A9P\D9\F51\F4?\00\00\00\00\00\98#=\EB\B9\84?\FA?\F4?\00\00\00\00\00\00\FA<\19\89a`\08N\F4?\00\00\00\00\00\C0\F6\BC\01\D2\A7B \\\F4?\00\00\00\00\00\C0\0B\BD\16\00\1D\EDAj\F4?\00\00\00\00\00\80\12\BD&3\8Bfmx\F4?\00\00\00\00\00\E00=\00<\C1\B5\A2\86\F4?\00\00\00\00\00@-\BD\04\AF\92\E1\E1\94\F4?\00\00\00\00\00 \0C=r\D3\D7\F0*\A3\F4?\00\00\00\00\00P\1E\BD\01\B8m\EA}\B1\F4?\00\00\00\00\00\80\07=\E1)6\D5\DA\BF\F4?\00\00\00\00\00\80\13\BD2\C1\17\B8A\CE\F4?\00\00\00\00\00\80\00=\DB\DD\FD\99\B2\DC\F4?\00\00\00\00\00p,=\96\AB\D8\81-\EB\F4?\00\00\00\00\00\E0\1C\BD\02-\9Dv\B2\F9\F4?\00\00\00\00\00 \19=\C11E\7FA\08\F5?\00\00\00\00\00\C0\08\BD*f\CF\A2\DA\16\F5?\00\00\00\00\00\00\FA\BC\EAQ?\E8}%\F5?\00\00\00\00\00\08J=\DAN\9DV+4\F5?\00\00\00\00\00\D8&\BD\1A\AC\F6\F4\E2B\F5?\00\00\00\00\00D2\BD\DB\94]\CA\A4Q\F5?\00\00\00\00\00<H=k\11\E9\DDp`\F5?\00\00\00\00\00\B0$=\DE)\B56Go\F5?\00\00\00\00\00ZA=\0E\C4\E2\DB'~\F5?\00\00\00\00\00\E0)\BDo\C7\97\D4\12\8D\F5?\00\00\00\00\00\08#\BDL\0B\FF'\08\9C\F5?\00\00\00\00\00\ECM='TH\DD\07\AB\F5?\00\00\00\00\00\00\C4\BC\F4z\A8\FB\11\BA\F5?\00\00\00\00\00\080=\0BFY\8A&\C9\F5?\00\00\00\00\00\C8&\BD?\8E\99\90E\D8\F5?\00\00\00\00\00\9AF=\E1 \AD\15o\E7\F5?\00\00\00\00\00@\1B\BD\CA\EB\DC \A3\F6\F5?\00\00\00\00\00p\17=\B8\DCv\B9\E1\05\F6?\00\00\00\00\00\F8&=\15\F7\CD\E6*\15\F6?\00\00\00\00\00\00\01=1U:\B0~$\F6?\00\00\00\00\00\D0\15\BD\B5)\19\1D\DD3\F6?\00\00\00\00\00\D0\12\BD\13\C3\CC4FC\F6?\00\00\00\00\00\80\EA\BC\FA\8E\BC\FE\B9R\F6?\00\00\00\00\00`(\BD\973U\828b\F6?\00\00\00\00\00\FEq=\8E2\08\C7\C1q\F6?\00\00\00\00\00 7\BD~\A9L\D4U\81\F6?\00\00\00\00\00\80\E6<q\94\9E\B1\F4\90\F6?\00\00\00\00\00x)\BD" }>, align 8, !dbg !0
@_ZN17compiler_builtins4math4libm5exp2f6EXP2FT17he983099329ca261bE = internal constant <{ [128 x i8] }> <{ [128 x i8] c"\CD;\7Ff\9E\A0\E6?\87\01\EBs\14\A1\E7?\DB\A0*B\E5\AC\E8?\90\F0\A3\82\91\C4\E9?\AD\D3Z\99\9F\E8\EA?\9CR\85\DD\9B\19\EC?\87\A4\FB\DC\18X\ED?\DA\90\A4\A2\AF\A4\EE?\00\00\00\00\00\00\F0?\0F\89\F9lX\B5\F0?{Q}<\B8r\F1?8bunz8\F2?\15\B71\0A\FE\06\F3?\224\12L\A6\DE\F3?'*6\D5\DA\BF\F4?)TH\DD\07\AB\F5?" }>, align 8, !dbg !11
@alloc3131 = private unnamed_addr constant <{ [112 x i8] }> <{ [112 x i8] c"/Users/yaw/.cargo/registry/src/github.com-1ecc6299db9ec823/compiler_builtins-0.1.87/src/../libm/src/math/fmod.rs" }>, align 1
@alloc3112 = private unnamed_addr constant <{ ptr, [16 x i8] }> <{ ptr @alloc3131, [16 x i8] c"p\00\00\00\00\00\00\00\1D\00\00\00\11\00\00\00" }>, align 8
@str.5 = internal constant [31 x i8] c"attempt to negate with overflow"
@alloc3114 = private unnamed_addr constant <{ ptr, [16 x i8] }> <{ ptr @alloc3131, [16 x i8] c"p\00\00\00\00\00\00\00\1D\00\00\00\09\00\00\00" }>, align 8
@alloc3116 = private unnamed_addr constant <{ ptr, [16 x i8] }> <{ ptr @alloc3131, [16 x i8] c"p\00\00\00\00\00\00\00(\00\00\00\11\00\00\00" }>, align 8
@alloc3118 = private unnamed_addr constant <{ ptr, [16 x i8] }> <{ ptr @alloc3131, [16 x i8] c"p\00\00\00\00\00\00\00(\00\00\00\09\00\00\00" }>, align 8
@alloc3120 = private unnamed_addr constant <{ ptr, [16 x i8] }> <{ ptr @alloc3131, [16 x i8] c"p\00\00\00\00\00\00\008\00\00\00\09\00\00\00" }>, align 8
@alloc3122 = private unnamed_addr constant <{ ptr, [16 x i8] }> <{ ptr @alloc3131, [16 x i8] c"p\00\00\00\00\00\00\00H\00\00\00\09\00\00\00" }>, align 8
@alloc3124 = private unnamed_addr constant <{ ptr, [16 x i8] }> <{ ptr @alloc3131, [16 x i8] c"p\00\00\00\00\00\00\00K\00\00\00\11\00\00\00" }>, align 8
@alloc3126 = private unnamed_addr constant <{ ptr, [16 x i8] }> <{ ptr @alloc3131, [16 x i8] c"p\00\00\00\00\00\00\00K\00\00\00\09\00\00\00" }>, align 8
@alloc3128 = private unnamed_addr constant <{ ptr, [16 x i8] }> <{ ptr @alloc3131, [16 x i8] c"p\00\00\00\00\00\00\00C\00\00\00\09\00\00\00" }>, align 8
@alloc3130 = private unnamed_addr constant <{ ptr, [16 x i8] }> <{ ptr @alloc3131, [16 x i8] c"p\00\00\00\00\00\00\00%\00\00\00\0D\00\00\00" }>, align 8
@alloc3132 = private unnamed_addr constant <{ ptr, [16 x i8] }> <{ ptr @alloc3131, [16 x i8] c"p\00\00\00\00\00\00\00\1A\00\00\00\0D\00\00\00" }>, align 8
@alloc3153 = private unnamed_addr constant <{ [113 x i8] }> <{ [113 x i8] c"/Users/yaw/.cargo/registry/src/github.com-1ecc6299db9ec823/compiler_builtins-0.1.87/src/../libm/src/math/fmodf.rs" }>, align 1
@alloc3134 = private unnamed_addr constant <{ ptr, [16 x i8] }> <{ ptr @alloc3153, [16 x i8] c"q\00\00\00\00\00\00\00!\00\00\00\11\00\00\00" }>, align 8
@alloc3136 = private unnamed_addr constant <{ ptr, [16 x i8] }> <{ ptr @alloc3153, [16 x i8] c"q\00\00\00\00\00\00\00!\00\00\00\09\00\00\00" }>, align 8
@alloc3138 = private unnamed_addr constant <{ ptr, [16 x i8] }> <{ ptr @alloc3153, [16 x i8] c"q\00\00\00\00\00\00\00.\00\00\00\11\00\00\00" }>, align 8
@alloc3140 = private unnamed_addr constant <{ ptr, [16 x i8] }> <{ ptr @alloc3153, [16 x i8] c"q\00\00\00\00\00\00\00.\00\00\00\09\00\00\00" }>, align 8
@alloc3142 = private unnamed_addr constant <{ ptr, [16 x i8] }> <{ ptr @alloc3153, [16 x i8] c"q\00\00\00\00\00\00\00?\00\00\00\09\00\00\00" }>, align 8
@alloc3144 = private unnamed_addr constant <{ ptr, [16 x i8] }> <{ ptr @alloc3153, [16 x i8] c"q\00\00\00\00\00\00\00Q\00\00\00\09\00\00\00" }>, align 8
@alloc3146 = private unnamed_addr constant <{ ptr, [16 x i8] }> <{ ptr @alloc3153, [16 x i8] c"q\00\00\00\00\00\00\00T\00\00\00\11\00\00\00" }>, align 8
@alloc3148 = private unnamed_addr constant <{ ptr, [16 x i8] }> <{ ptr @alloc3153, [16 x i8] c"q\00\00\00\00\00\00\00T\00\00\00\09\00\00\00" }>, align 8
@alloc3150 = private unnamed_addr constant <{ ptr, [16 x i8] }> <{ ptr @alloc3153, [16 x i8] c"q\00\00\00\00\00\00\00L\00\00\00\09\00\00\00" }>, align 8
@alloc3152 = private unnamed_addr constant <{ ptr, [16 x i8] }> <{ ptr @alloc3153, [16 x i8] c"q\00\00\00\00\00\00\00*\00\00\00\0D\00\00\00" }>, align 8
@alloc3154 = private unnamed_addr constant <{ ptr, [16 x i8] }> <{ ptr @alloc3153, [16 x i8] c"q\00\00\00\00\00\00\00\1D\00\00\00\0D\00\00\00" }>, align 8
@_ZN17compiler_builtins4math4libm5k_tan1T17h59beb590ab28e952E = internal constant <{ [104 x i8] }> <{ [104 x i8] c"cUUUUU\D5?z\FE\10\11\11\11\C1?\FEA\B3\1B\BA\A1\AB?7\D6\06\84\F4d\96?\93\84n\E9\E3&\82?(\03V\C9\22mm?\15\83\E0\FE\C8\DBW?\01e\F2\F2\D8DC?h\10\8D\1A\F7&0?\A6\927\A0\88~\14?\E9\A7\F02\0F\B8\12?sS`\DB\CBu\F3\BE\D4z\BFtp*\FB>" }>, align 8, !dbg !18
@alloc3165 = private unnamed_addr constant <{ [101 x i8] }> <{ [101 x i8] c"/Users/yaw/.cargo/registry/src/github.com-1ecc6299db9ec823/compiler_builtins-0.1.87/src/mem/x86_64.rs" }>, align 1
@alloc3156 = private unnamed_addr constant <{ ptr, [16 x i8] }> <{ ptr @alloc3165, [16 x i8] c"e\00\00\00\00\00\00\00T\00\00\00\1F\00\00\00" }>, align 8
@alloc3158 = private unnamed_addr constant <{ ptr, [16 x i8] }> <{ ptr @alloc3165, [16 x i8] c"e\00\00\00\00\00\00\00U\00\00\00\1E\00\00\00" }>, align 8
@alloc3160 = private unnamed_addr constant <{ ptr, [16 x i8] }> <{ ptr @alloc3165, [16 x i8] c"e\00\00\00\00\00\00\00k\00\00\00\0D\00\00\00" }>, align 8
@alloc3162 = private unnamed_addr constant <{ ptr, [16 x i8] }> <{ ptr @alloc3165, [16 x i8] c"e\00\00\00\00\00\00\00\A2\00\00\00\18\00\00\00" }>, align 8
@alloc3164 = private unnamed_addr constant <{ ptr, [16 x i8] }> <{ ptr @alloc3165, [16 x i8] c"e\00\00\00\00\00\00\00\B3\00\00\00\1B\00\00\00" }>, align 8
@alloc3166 = private unnamed_addr constant <{ ptr, [16 x i8] }> <{ ptr @alloc3165, [16 x i8] c"e\00\00\00\00\00\00\00\B4\00\00\00\05\00\00\00" }>, align 8
@alloc3265 = private unnamed_addr constant <{ [98 x i8] }> <{ [98 x i8] c"/Users/yaw/.cargo/registry/src/github.com-1ecc6299db9ec823/compiler_builtins-0.1.87/src/mem/mod.rs" }>, align 1
@alloc3168 = private unnamed_addr constant <{ ptr, [16 x i8] }> <{ ptr @alloc3265, [16 x i8] c"b\00\00\00\00\00\00\00T\00\00\00\0D\00\00\00" }>, align 8
@alloc3170 = private unnamed_addr constant <{ ptr, [16 x i8] }> <{ ptr @alloc3265, [16 x i8] c"b\00\00\00\00\00\00\00b\00\00\00\11\00\00\00" }>, align 8
@alloc3172 = private unnamed_addr constant <{ ptr, [16 x i8] }> <{ ptr @alloc3265, [16 x i8] c"b\00\00\00\00\00\00\00j\00\00\00\11\00\00\00" }>, align 8
@alloc3174 = private unnamed_addr constant <{ ptr, [16 x i8] }> <{ ptr @alloc3265, [16 x i8] c"b\00\00\00\00\00\00\00\7F\00\00\00\0D\00\00\00" }>, align 8
@alloc3176 = private unnamed_addr constant <{ ptr, [16 x i8] }> <{ ptr @alloc3265, [16 x i8] c"b\00\00\00\00\00\00\00\86\00\00\00\0D\00\00\00" }>, align 8
@alloc3178 = private unnamed_addr constant <{ ptr, [16 x i8] }> <{ ptr @alloc3235, [16 x i8] c"e\00\00\00\00\00\00\00\9A\00\00\00\15\00\00\00" }>, align 8
@alloc3180 = private unnamed_addr constant <{ ptr, [16 x i8] }> <{ ptr @alloc3235, [16 x i8] c"e\00\00\00\00\00\00\00\9B\00\00\00\0D\00\00\00" }>, align 8
@alloc3182 = private unnamed_addr constant <{ ptr, [16 x i8] }> <{ ptr @alloc3235, [16 x i8] c"e\00\00\00\00\00\00\00\AA\00\00\00\15\00\00\00" }>, align 8
@alloc3184 = private unnamed_addr constant <{ ptr, [16 x i8] }> <{ ptr @alloc3235, [16 x i8] c"e\00\00\00\00\00\00\00\AB\00\00\00\0D\00\00\00" }>, align 8
@alloc3186 = private unnamed_addr constant <{ ptr, [16 x i8] }> <{ ptr @alloc3235, [16 x i8] c"e\00\00\00\00\00\00\00\BA\00\00\00\15\00\00\00" }>, align 8
@alloc3188 = private unnamed_addr constant <{ ptr, [16 x i8] }> <{ ptr @alloc3235, [16 x i8] c"e\00\00\00\00\00\00\00\BB\00\00\00\0D\00\00\00" }>, align 8
@alloc3190 = private unnamed_addr constant <{ ptr, [16 x i8] }> <{ ptr @alloc3235, [16 x i8] c"e\00\00\00\00\00\00\00\CA\00\00\00\15\00\00\00" }>, align 8
@alloc3192 = private unnamed_addr constant <{ ptr, [16 x i8] }> <{ ptr @alloc3235, [16 x i8] c"e\00\00\00\00\00\00\00\CB\00\00\00\0D\00\00\00" }>, align 8
@alloc3194 = private unnamed_addr constant <{ ptr, [16 x i8] }> <{ ptr @alloc3235, [16 x i8] c"e\00\00\00\00\00\00\00\DA\00\00\00\15\00\00\00" }>, align 8
@alloc3196 = private unnamed_addr constant <{ ptr, [16 x i8] }> <{ ptr @alloc3235, [16 x i8] c"e\00\00\00\00\00\00\00\DB\00\00\00\0D\00\00\00" }>, align 8
@alloc3198 = private unnamed_addr constant <{ ptr, [16 x i8] }> <{ ptr @alloc3235, [16 x i8] c"e\00\00\00\00\00\00\00\EA\00\00\00\15\00\00\00" }>, align 8
@alloc3200 = private unnamed_addr constant <{ ptr, [16 x i8] }> <{ ptr @alloc3235, [16 x i8] c"e\00\00\00\00\00\00\00\EB\00\00\00\0D\00\00\00" }>, align 8
@alloc3202 = private unnamed_addr constant <{ ptr, [16 x i8] }> <{ ptr @alloc3235, [16 x i8] c"e\00\00\00\00\00\00\00\FD\00\00\00\15\00\00\00" }>, align 8
@alloc3204 = private unnamed_addr constant <{ ptr, [16 x i8] }> <{ ptr @alloc3235, [16 x i8] c"e\00\00\00\00\00\00\00\FE\00\00\00\15\00\00\00" }>, align 8
@alloc3206 = private unnamed_addr constant <{ ptr, [16 x i8] }> <{ ptr @alloc3235, [16 x i8] c"e\00\00\00\00\00\00\00\FF\00\00\00'\00\00\00" }>, align 8
@alloc3208 = private unnamed_addr constant <{ ptr, [16 x i8] }> <{ ptr @alloc3235, [16 x i8] c"e\00\00\00\00\00\00\00\0E\01\00\00\15\00\00\00" }>, align 8
@alloc3210 = private unnamed_addr constant <{ ptr, [16 x i8] }> <{ ptr @alloc3235, [16 x i8] c"e\00\00\00\00\00\00\00\0F\01\00\00\15\00\00\00" }>, align 8
@alloc3212 = private unnamed_addr constant <{ ptr, [16 x i8] }> <{ ptr @alloc3235, [16 x i8] c"e\00\00\00\00\00\00\00\10\01\00\00'\00\00\00" }>, align 8
@alloc3214 = private unnamed_addr constant <{ ptr, [16 x i8] }> <{ ptr @alloc3235, [16 x i8] c"e\00\00\00\00\00\00\00\1F\01\00\00\15\00\00\00" }>, align 8
@alloc3216 = private unnamed_addr constant <{ ptr, [16 x i8] }> <{ ptr @alloc3235, [16 x i8] c"e\00\00\00\00\00\00\00 \01\00\00\15\00\00\00" }>, align 8
@alloc3218 = private unnamed_addr constant <{ ptr, [16 x i8] }> <{ ptr @alloc3235, [16 x i8] c"e\00\00\00\00\00\00\00!\01\00\00'\00\00\00" }>, align 8
@alloc3220 = private unnamed_addr constant <{ ptr, [16 x i8] }> <{ ptr @alloc3235, [16 x i8] c"e\00\00\00\00\00\00\000\01\00\00\15\00\00\00" }>, align 8
@alloc3222 = private unnamed_addr constant <{ ptr, [16 x i8] }> <{ ptr @alloc3235, [16 x i8] c"e\00\00\00\00\00\00\001\01\00\00\15\00\00\00" }>, align 8
@alloc3224 = private unnamed_addr constant <{ ptr, [16 x i8] }> <{ ptr @alloc3235, [16 x i8] c"e\00\00\00\00\00\00\002\01\00\00'\00\00\00" }>, align 8
@alloc3226 = private unnamed_addr constant <{ ptr, [16 x i8] }> <{ ptr @alloc3235, [16 x i8] c"e\00\00\00\00\00\00\00A\01\00\00\15\00\00\00" }>, align 8
@alloc3228 = private unnamed_addr constant <{ ptr, [16 x i8] }> <{ ptr @alloc3235, [16 x i8] c"e\00\00\00\00\00\00\00B\01\00\00\15\00\00\00" }>, align 8
@alloc3230 = private unnamed_addr constant <{ ptr, [16 x i8] }> <{ ptr @alloc3235, [16 x i8] c"e\00\00\00\00\00\00\00C\01\00\00'\00\00\00" }>, align 8
@alloc3232 = private unnamed_addr constant <{ ptr, [16 x i8] }> <{ ptr @alloc3235, [16 x i8] c"e\00\00\00\00\00\00\00R\01\00\00\15\00\00\00" }>, align 8
@alloc3234 = private unnamed_addr constant <{ ptr, [16 x i8] }> <{ ptr @alloc3235, [16 x i8] c"e\00\00\00\00\00\00\00S\01\00\00\15\00\00\00" }>, align 8
@alloc3236 = private unnamed_addr constant <{ ptr, [16 x i8] }> <{ ptr @alloc3235, [16 x i8] c"e\00\00\00\00\00\00\00T\01\00\00'\00\00\00" }>, align 8
@alloc3239 = private unnamed_addr constant <{ [100 x i8] }> <{ [100 x i8] c"/Users/yaw/.cargo/registry/src/github.com-1ecc6299db9ec823/compiler_builtins-0.1.87/src/float/mod.rs" }>, align 1
@alloc3238 = private unnamed_addr constant <{ ptr, [16 x i8] }> <{ ptr @alloc3239, [16 x i8] c"d\00\00\00\00\00\00\00\AE\00\00\00\01\00\00\00" }>, align 8
@alloc3240 = private unnamed_addr constant <{ ptr, [16 x i8] }> <{ ptr @alloc3239, [16 x i8] c"d\00\00\00\00\00\00\00\AF\00\00\00\01\00\00\00" }>, align 8
@alloc3249 = private unnamed_addr constant <{ [118 x i8] }> <{ [118 x i8] c"/Users/yaw/.cargo/registry/src/github.com-1ecc6299db9ec823/compiler_builtins-0.1.87/src/int/specialized_div_rem/mod.rs" }>, align 1
@alloc3242 = private unnamed_addr constant <{ ptr, [16 x i8] }> <{ ptr @alloc3249, [16 x i8] c"v\00\00\00\00\00\00\00j\00\00\00\01\00\00\00" }>, align 8
@alloc3244 = private unnamed_addr constant <{ ptr, [16 x i8] }> <{ ptr @alloc3249, [16 x i8] c"v\00\00\00\00\00\00\00r\00\00\00\01\00\00\00" }>, align 8
@alloc3246 = private unnamed_addr constant <{ ptr, [16 x i8] }> <{ ptr @alloc3249, [16 x i8] c"v\00\00\00\00\00\00\00\CB\00\00\00\01\00\00\00" }>, align 8
@alloc3248 = private unnamed_addr constant <{ ptr, [16 x i8] }> <{ ptr @alloc3249, [16 x i8] c"v\00\00\00\00\00\00\00\FB\00\00\00\01\00\00\00" }>, align 8
@alloc3250 = private unnamed_addr constant <{ ptr, [16 x i8] }> <{ ptr @alloc3249, [16 x i8] c"v\00\00\00\00\00\00\00.\01\00\00\01\00\00\00" }>, align 8
@alloc3263 = private unnamed_addr constant <{ [108 x i8] }> <{ [108 x i8] c"/Users/yaw/.cargo/registry/src/github.com-1ecc6299db9ec823/compiler_builtins-0.1.87/src/int/leading_zeros.rs" }>, align 1
@alloc3252 = private unnamed_addr constant <{ ptr, [16 x i8] }> <{ ptr @alloc3263, [16 x i8] c"l\00\00\00\00\00\00\00\1A\00\00\00\0D\00\00\00" }>, align 8
@alloc3254 = private unnamed_addr constant <{ ptr, [16 x i8] }> <{ ptr @alloc3263, [16 x i8] c"l\00\00\00\00\00\00\00\22\00\00\00\0D\00\00\00" }>, align 8
@alloc3256 = private unnamed_addr constant <{ ptr, [16 x i8] }> <{ ptr @alloc3263, [16 x i8] c"l\00\00\00\00\00\00\00(\00\00\00\09\00\00\00" }>, align 8
@alloc3258 = private unnamed_addr constant <{ ptr, [16 x i8] }> <{ ptr @alloc3263, [16 x i8] c"l\00\00\00\00\00\00\00-\00\00\00\09\00\00\00" }>, align 8
@alloc3260 = private unnamed_addr constant <{ ptr, [16 x i8] }> <{ ptr @alloc3263, [16 x i8] c"l\00\00\00\00\00\00\002\00\00\00\09\00\00\00" }>, align 8
@alloc3262 = private unnamed_addr constant <{ ptr, [16 x i8] }> <{ ptr @alloc3263, [16 x i8] c"l\00\00\00\00\00\00\008\00\00\00\09\00\00\00" }>, align 8
@alloc3264 = private unnamed_addr constant <{ ptr, [16 x i8] }> <{ ptr @alloc3263, [16 x i8] c"l\00\00\00\00\00\00\00:\00\00\00\09\00\00\00" }>, align 8
@0 = private unnamed_addr constant <{ [5 x i8], [3 x i8] }> <{ [5 x i8] zeroinitializer, [3 x i8] undef }>, align 4
@1 = private unnamed_addr constant <{ [9 x i8], [7 x i8] }> <{ [9 x i8] zeroinitializer, [7 x i8] undef }>, align 8
@2 = private unnamed_addr constant <{ [17 x i8], [7 x i8] }> <{ [17 x i8] zeroinitializer, [7 x i8] undef }>, align 8
@alloc3266 = private unnamed_addr constant <{ ptr, [16 x i8] }> <{ ptr @alloc3265, [16 x i8] c"b\00\00\00\00\00\00\00E\00\00\00\0D\00\00\00" }>, align 8

; <u32 as core::ops::bit::Shl>::shl
; Function Attrs: inlinehint noredzone nounwind
define internal i32 @"_ZN43_$LT$u32$u20$as$u20$core..ops..bit..Shl$GT$3shl17h33bc9b292e462a6cE"(i32 %self, i32 %other) unnamed_addr #0 !dbg !43 {
start:
  %other.dbg.spill = alloca i32, align 4
  %self.dbg.spill = alloca i32, align 4
  store i32 %self, ptr %self.dbg.spill, align 4
  call void @llvm.dbg.declare(metadata ptr %self.dbg.spill, metadata !53, metadata !DIExpression()), !dbg !56
  store i32 %other, ptr %other.dbg.spill, align 4
  call void @llvm.dbg.declare(metadata ptr %other.dbg.spill, metadata !54, metadata !DIExpression()), !dbg !57
  %0 = and i32 %other, -32, !dbg !58
  %_3.1 = icmp ne i32 %0, 0, !dbg !58
  %1 = and i32 %other, 31, !dbg !58
  %_3.0 = shl i32 %self, %1, !dbg !58
  %2 = call i1 @llvm.expect.i1(i1 %_3.1, i1 false), !dbg !58
  br i1 %2, label %panic, label %bb1, !dbg !58

bb1:                                              ; preds = %start
  ret i32 %_3.0, !dbg !59

panic:                                            ; preds = %start
; call core::panicking::panic
  call void @_ZN4core9panicking5panic17h758e89f926a8adfcE(ptr align 1 @str.0, i64 35, ptr align 8 @alloc2938) #7, !dbg !58
  unreachable, !dbg !58
}

; <u32 as core::ops::bit::Shr>::shr
; Function Attrs: inlinehint noredzone nounwind
define internal i32 @"_ZN43_$LT$u32$u20$as$u20$core..ops..bit..Shr$GT$3shr17h2b1be544d23cb8f9E"(i32 %self, i32 %other) unnamed_addr #0 !dbg !60 {
start:
  %other.dbg.spill = alloca i32, align 4
  %self.dbg.spill = alloca i32, align 4
  store i32 %self, ptr %self.dbg.spill, align 4
  call void @llvm.dbg.declare(metadata ptr %self.dbg.spill, metadata !63, metadata !DIExpression()), !dbg !65
  store i32 %other, ptr %other.dbg.spill, align 4
  call void @llvm.dbg.declare(metadata ptr %other.dbg.spill, metadata !64, metadata !DIExpression()), !dbg !66
  %0 = and i32 %other, -32, !dbg !67
  %_3.1 = icmp ne i32 %0, 0, !dbg !67
  %1 = and i32 %other, 31, !dbg !67
  %_3.0 = lshr i32 %self, %1, !dbg !67
  %2 = call i1 @llvm.expect.i1(i1 %_3.1, i1 false), !dbg !67
  br i1 %2, label %panic, label %bb1, !dbg !67

bb1:                                              ; preds = %start
  ret i32 %_3.0, !dbg !68

panic:                                            ; preds = %start
; call core::panicking::panic
  call void @_ZN4core9panicking5panic17h758e89f926a8adfcE(ptr align 1 @str.1, i64 36, ptr align 8 @alloc2940) #7, !dbg !67
  unreachable, !dbg !67
}

; <u128 as core::ops::bit::Not>::not
; Function Attrs: inlinehint noredzone nounwind
define internal i128 @"_ZN44_$LT$u128$u20$as$u20$core..ops..bit..Not$GT$3not17h3d741363534a390fE"(i128 %self) unnamed_addr #0 !dbg !69 {
start:
  %self.dbg.spill = alloca i128, align 8
  store i128 %self, ptr %self.dbg.spill, align 8
  call void @llvm.dbg.declare(metadata ptr %self.dbg.spill, metadata !75, metadata !DIExpression()), !dbg !76
  %0 = xor i128 %self, -1, !dbg !77
  ret i128 %0, !dbg !78
}

; <u8 as core::ops::bit::BitOr>::bitor
; Function Attrs: inlinehint noredzone nounwind
define internal i8 @"_ZN44_$LT$u8$u20$as$u20$core..ops..bit..BitOr$GT$5bitor17h09eb11f3964154d2E"(i8 %self, i8 %rhs) unnamed_addr #0 !dbg !79 {
start:
  %rhs.dbg.spill = alloca i8, align 1
  %self.dbg.spill = alloca i8, align 1
  store i8 %self, ptr %self.dbg.spill, align 1
  call void @llvm.dbg.declare(metadata ptr %self.dbg.spill, metadata !84, metadata !DIExpression()), !dbg !86
  store i8 %rhs, ptr %rhs.dbg.spill, align 1
  call void @llvm.dbg.declare(metadata ptr %rhs.dbg.spill, metadata !85, metadata !DIExpression()), !dbg !87
  %0 = or i8 %self, %rhs, !dbg !88
  ret i8 %0, !dbg !89
}

; <f32 as core::ops::arith::Div>::div
; Function Attrs: inlinehint noredzone nounwind
define internal float @"_ZN45_$LT$f32$u20$as$u20$core..ops..arith..Div$GT$3div17h3199c87bfa4771b9E"(float %self, float %other) unnamed_addr #0 !dbg !90 {
start:
  %other.dbg.spill = alloca float, align 4
  %self.dbg.spill = alloca float, align 4
  store float %self, ptr %self.dbg.spill, align 4
  call void @llvm.dbg.declare(metadata ptr %self.dbg.spill, metadata !98, metadata !DIExpression()), !dbg !100
  store float %other, ptr %other.dbg.spill, align 4
  call void @llvm.dbg.declare(metadata ptr %other.dbg.spill, metadata !99, metadata !DIExpression()), !dbg !101
  %0 = fdiv float %self, %other, !dbg !102
  ret float %0, !dbg !103
}

; <f64 as core::ops::arith::Div>::div
; Function Attrs: inlinehint noredzone nounwind
define internal double @"_ZN45_$LT$f64$u20$as$u20$core..ops..arith..Div$GT$3div17hcfb00b8e2ea3fa22E"(double %self, double %other) unnamed_addr #0 !dbg !104 {
start:
  %other.dbg.spill = alloca double, align 8
  %self.dbg.spill = alloca double, align 8
  store double %self, ptr %self.dbg.spill, align 8
  call void @llvm.dbg.declare(metadata ptr %self.dbg.spill, metadata !109, metadata !DIExpression()), !dbg !111
  store double %other, ptr %other.dbg.spill, align 8
  call void @llvm.dbg.declare(metadata ptr %other.dbg.spill, metadata !110, metadata !DIExpression()), !dbg !112
  %0 = fdiv double %self, %other, !dbg !113
  ret double %0, !dbg !114
}

; <i16 as core::ops::bit::BitOr>::bitor
; Function Attrs: inlinehint noredzone nounwind
define internal i16 @"_ZN45_$LT$i16$u20$as$u20$core..ops..bit..BitOr$GT$5bitor17h4d13842e342eed2bE"(i16 %self, i16 %rhs) unnamed_addr #0 !dbg !115 {
start:
  %rhs.dbg.spill = alloca i16, align 2
  %self.dbg.spill = alloca i16, align 2
  store i16 %self, ptr %self.dbg.spill, align 2
  call void @llvm.dbg.declare(metadata ptr %self.dbg.spill, metadata !121, metadata !DIExpression()), !dbg !123
  store i16 %rhs, ptr %rhs.dbg.spill, align 2
  call void @llvm.dbg.declare(metadata ptr %rhs.dbg.spill, metadata !122, metadata !DIExpression()), !dbg !124
  %0 = or i16 %self, %rhs, !dbg !125
  ret i16 %0, !dbg !126
}

; <i32 as core::ops::bit::BitOr>::bitor
; Function Attrs: inlinehint noredzone nounwind
define internal i32 @"_ZN45_$LT$i32$u20$as$u20$core..ops..bit..BitOr$GT$5bitor17hc1f25e603cd78424E"(i32 %self, i32 %rhs) unnamed_addr #0 !dbg !127 {
start:
  %rhs.dbg.spill = alloca i32, align 4
  %self.dbg.spill = alloca i32, align 4
  store i32 %self, ptr %self.dbg.spill, align 4
  call void @llvm.dbg.declare(metadata ptr %self.dbg.spill, metadata !133, metadata !DIExpression()), !dbg !135
  store i32 %rhs, ptr %rhs.dbg.spill, align 4
  call void @llvm.dbg.declare(metadata ptr %rhs.dbg.spill, metadata !134, metadata !DIExpression()), !dbg !136
  %0 = or i32 %self, %rhs, !dbg !137
  ret i32 %0, !dbg !138
}

; <i64 as core::ops::bit::BitOr>::bitor
; Function Attrs: inlinehint noredzone nounwind
define internal i64 @"_ZN45_$LT$i64$u20$as$u20$core..ops..bit..BitOr$GT$5bitor17h7f832869abff95b0E"(i64 %self, i64 %rhs) unnamed_addr #0 !dbg !139 {
start:
  %rhs.dbg.spill = alloca i64, align 8
  %self.dbg.spill = alloca i64, align 8
  store i64 %self, ptr %self.dbg.spill, align 8
  call void @llvm.dbg.declare(metadata ptr %self.dbg.spill, metadata !145, metadata !DIExpression()), !dbg !147
  store i64 %rhs, ptr %rhs.dbg.spill, align 8
  call void @llvm.dbg.declare(metadata ptr %rhs.dbg.spill, metadata !146, metadata !DIExpression()), !dbg !148
  %0 = or i64 %self, %rhs, !dbg !149
  ret i64 %0, !dbg !150
}

; <u16 as core::ops::bit::BitOr>::bitor
; Function Attrs: inlinehint noredzone nounwind
define internal i16 @"_ZN45_$LT$u16$u20$as$u20$core..ops..bit..BitOr$GT$5bitor17h045d6764abfae367E"(i16 %self, i16 %rhs) unnamed_addr #0 !dbg !151 {
start:
  %rhs.dbg.spill = alloca i16, align 2
  %self.dbg.spill = alloca i16, align 2
  store i16 %self, ptr %self.dbg.spill, align 2
  call void @llvm.dbg.declare(metadata ptr %self.dbg.spill, metadata !157, metadata !DIExpression()), !dbg !159
  store i16 %rhs, ptr %rhs.dbg.spill, align 2
  call void @llvm.dbg.declare(metadata ptr %rhs.dbg.spill, metadata !158, metadata !DIExpression()), !dbg !160
  %0 = or i16 %self, %rhs, !dbg !161
  ret i16 %0, !dbg !162
}

; <u32 as core::ops::arith::Sub>::sub
; Function Attrs: inlinehint noredzone nounwind
define internal i32 @"_ZN45_$LT$u32$u20$as$u20$core..ops..arith..Sub$GT$3sub17h70e79c8428c0bd0fE"(i32 %self, i32 %other) unnamed_addr #0 !dbg !163 {
start:
  %other.dbg.spill = alloca i32, align 4
  %self.dbg.spill = alloca i32, align 4
  store i32 %self, ptr %self.dbg.spill, align 4
  call void @llvm.dbg.declare(metadata ptr %self.dbg.spill, metadata !166, metadata !DIExpression()), !dbg !168
  store i32 %other, ptr %other.dbg.spill, align 4
  call void @llvm.dbg.declare(metadata ptr %other.dbg.spill, metadata !167, metadata !DIExpression()), !dbg !169
  %_3.0 = sub i32 %self, %other, !dbg !170
  %_3.1 = icmp ult i32 %self, %other, !dbg !170
  %0 = call i1 @llvm.expect.i1(i1 %_3.1, i1 false), !dbg !170
  br i1 %0, label %panic, label %bb1, !dbg !170

bb1:                                              ; preds = %start
  ret i32 %_3.0, !dbg !171

panic:                                            ; preds = %start
; call core::panicking::panic
  call void @_ZN4core9panicking5panic17h758e89f926a8adfcE(ptr align 1 @str.2, i64 33, ptr align 8 @alloc2942) #7, !dbg !170
  unreachable, !dbg !170
}

; <u32 as core::ops::bit::BitOr>::bitor
; Function Attrs: inlinehint noredzone nounwind
define internal i32 @"_ZN45_$LT$u32$u20$as$u20$core..ops..bit..BitOr$GT$5bitor17h7427274a7f250f67E"(i32 %self, i32 %rhs) unnamed_addr #0 !dbg !172 {
start:
  %rhs.dbg.spill = alloca i32, align 4
  %self.dbg.spill = alloca i32, align 4
  store i32 %self, ptr %self.dbg.spill, align 4
  call void @llvm.dbg.declare(metadata ptr %self.dbg.spill, metadata !175, metadata !DIExpression()), !dbg !177
  store i32 %rhs, ptr %rhs.dbg.spill, align 4
  call void @llvm.dbg.declare(metadata ptr %rhs.dbg.spill, metadata !176, metadata !DIExpression()), !dbg !178
  %0 = or i32 %self, %rhs, !dbg !179
  ret i32 %0, !dbg !180
}

; <u64 as core::ops::arith::Sub>::sub
; Function Attrs: inlinehint noredzone nounwind
define internal i64 @"_ZN45_$LT$u64$u20$as$u20$core..ops..arith..Sub$GT$3sub17hae8cc2ea7fd62d19E"(i64 %self, i64 %other) unnamed_addr #0 !dbg !181 {
start:
  %other.dbg.spill = alloca i64, align 8
  %self.dbg.spill = alloca i64, align 8
  store i64 %self, ptr %self.dbg.spill, align 8
  call void @llvm.dbg.declare(metadata ptr %self.dbg.spill, metadata !186, metadata !DIExpression()), !dbg !188
  store i64 %other, ptr %other.dbg.spill, align 8
  call void @llvm.dbg.declare(metadata ptr %other.dbg.spill, metadata !187, metadata !DIExpression()), !dbg !189
  %_3.0 = sub i64 %self, %other, !dbg !190
  %_3.1 = icmp ult i64 %self, %other, !dbg !190
  %0 = call i1 @llvm.expect.i1(i1 %_3.1, i1 false), !dbg !190
  br i1 %0, label %panic, label %bb1, !dbg !190

bb1:                                              ; preds = %start
  ret i64 %_3.0, !dbg !191

panic:                                            ; preds = %start
; call core::panicking::panic
  call void @_ZN4core9panicking5panic17h758e89f926a8adfcE(ptr align 1 @str.2, i64 33, ptr align 8 @alloc2942) #7, !dbg !190
  unreachable, !dbg !190
}

; <u64 as core::ops::bit::BitOr>::bitor
; Function Attrs: inlinehint noredzone nounwind
define internal i64 @"_ZN45_$LT$u64$u20$as$u20$core..ops..bit..BitOr$GT$5bitor17h03d1583847a10fefE"(i64 %self, i64 %rhs) unnamed_addr #0 !dbg !192 {
start:
  %rhs.dbg.spill = alloca i64, align 8
  %self.dbg.spill = alloca i64, align 8
  store i64 %self, ptr %self.dbg.spill, align 8
  call void @llvm.dbg.declare(metadata ptr %self.dbg.spill, metadata !195, metadata !DIExpression()), !dbg !197
  store i64 %rhs, ptr %rhs.dbg.spill, align 8
  call void @llvm.dbg.declare(metadata ptr %rhs.dbg.spill, metadata !196, metadata !DIExpression()), !dbg !198
  %0 = or i64 %self, %rhs, !dbg !199
  ret i64 %0, !dbg !200
}

; <i32 as core::ops::bit::BitAnd>::bitand
; Function Attrs: inlinehint noredzone nounwind
define internal i32 @"_ZN46_$LT$i32$u20$as$u20$core..ops..bit..BitAnd$GT$6bitand17h9cb0ce3c53171666E"(i32 %self, i32 %rhs) unnamed_addr #0 !dbg !201 {
start:
  %rhs.dbg.spill = alloca i32, align 4
  %self.dbg.spill = alloca i32, align 4
  store i32 %self, ptr %self.dbg.spill, align 4
  call void @llvm.dbg.declare(metadata ptr %self.dbg.spill, metadata !204, metadata !DIExpression()), !dbg !206
  store i32 %rhs, ptr %rhs.dbg.spill, align 4
  call void @llvm.dbg.declare(metadata ptr %rhs.dbg.spill, metadata !205, metadata !DIExpression()), !dbg !207
  %0 = and i32 %self, %rhs, !dbg !208
  ret i32 %0, !dbg !209
}

; <i64 as core::ops::bit::BitAnd>::bitand
; Function Attrs: inlinehint noredzone nounwind
define internal i64 @"_ZN46_$LT$i64$u20$as$u20$core..ops..bit..BitAnd$GT$6bitand17h1b44b4fa896f6f8fE"(i64 %self, i64 %rhs) unnamed_addr #0 !dbg !210 {
start:
  %rhs.dbg.spill = alloca i64, align 8
  %self.dbg.spill = alloca i64, align 8
  store i64 %self, ptr %self.dbg.spill, align 8
  call void @llvm.dbg.declare(metadata ptr %self.dbg.spill, metadata !213, metadata !DIExpression()), !dbg !215
  store i64 %rhs, ptr %rhs.dbg.spill, align 8
  call void @llvm.dbg.declare(metadata ptr %rhs.dbg.spill, metadata !214, metadata !DIExpression()), !dbg !216
  %0 = and i64 %self, %rhs, !dbg !217
  ret i64 %0, !dbg !218
}

; <u32 as core::ops::bit::BitAnd>::bitand
; Function Attrs: inlinehint noredzone nounwind
define internal i32 @"_ZN46_$LT$u32$u20$as$u20$core..ops..bit..BitAnd$GT$6bitand17hb2c81fd9c7b2b6daE"(i32 %self, i32 %rhs) unnamed_addr #0 !dbg !219 {
start:
  %rhs.dbg.spill = alloca i32, align 4
  %self.dbg.spill = alloca i32, align 4
  store i32 %self, ptr %self.dbg.spill, align 4
  call void @llvm.dbg.declare(metadata ptr %self.dbg.spill, metadata !222, metadata !DIExpression()), !dbg !224
  store i32 %rhs, ptr %rhs.dbg.spill, align 4
  call void @llvm.dbg.declare(metadata ptr %rhs.dbg.spill, metadata !223, metadata !DIExpression()), !dbg !225
  %0 = and i32 %self, %rhs, !dbg !226
  ret i32 %0, !dbg !227
}

; <u32 as core::ops::bit::BitXor>::bitxor
; Function Attrs: inlinehint noredzone nounwind
define internal i32 @"_ZN46_$LT$u32$u20$as$u20$core..ops..bit..BitXor$GT$6bitxor17h90d835b132bd34ecE"(i32 %self, i32 %other) unnamed_addr #0 !dbg !228 {
start:
  %other.dbg.spill = alloca i32, align 4
  %self.dbg.spill = alloca i32, align 4
  store i32 %self, ptr %self.dbg.spill, align 4
  call void @llvm.dbg.declare(metadata ptr %self.dbg.spill, metadata !231, metadata !DIExpression()), !dbg !233
  store i32 %other, ptr %other.dbg.spill, align 4
  call void @llvm.dbg.declare(metadata ptr %other.dbg.spill, metadata !232, metadata !DIExpression()), !dbg !234
  %0 = xor i32 %self, %other, !dbg !235
  ret i32 %0, !dbg !236
}

; <u64 as core::ops::bit::BitAnd>::bitand
; Function Attrs: inlinehint noredzone nounwind
define internal i64 @"_ZN46_$LT$u64$u20$as$u20$core..ops..bit..BitAnd$GT$6bitand17hfd3b3eb6bd6ed995E"(i64 %self, i64 %rhs) unnamed_addr #0 !dbg !237 {
start:
  %rhs.dbg.spill = alloca i64, align 8
  %self.dbg.spill = alloca i64, align 8
  store i64 %self, ptr %self.dbg.spill, align 8
  call void @llvm.dbg.declare(metadata ptr %self.dbg.spill, metadata !240, metadata !DIExpression()), !dbg !242
  store i64 %rhs, ptr %rhs.dbg.spill, align 8
  call void @llvm.dbg.declare(metadata ptr %rhs.dbg.spill, metadata !241, metadata !DIExpression()), !dbg !243
  %0 = and i64 %self, %rhs, !dbg !244
  ret i64 %0, !dbg !245
}

; <u64 as core::ops::bit::BitXor>::bitxor
; Function Attrs: inlinehint noredzone nounwind
define internal i64 @"_ZN46_$LT$u64$u20$as$u20$core..ops..bit..BitXor$GT$6bitxor17h006355eda0f67104E"(i64 %self, i64 %other) unnamed_addr #0 !dbg !246 {
start:
  %other.dbg.spill = alloca i64, align 8
  %self.dbg.spill = alloca i64, align 8
  store i64 %self, ptr %self.dbg.spill, align 8
  call void @llvm.dbg.declare(metadata ptr %self.dbg.spill, metadata !249, metadata !DIExpression()), !dbg !251
  store i64 %other, ptr %other.dbg.spill, align 8
  call void @llvm.dbg.declare(metadata ptr %other.dbg.spill, metadata !250, metadata !DIExpression()), !dbg !252
  %0 = xor i64 %self, %other, !dbg !253
  ret i64 %0, !dbg !254
}

; <u32 as core::ops::bit::ShrAssign>::shr_assign
; Function Attrs: inlinehint noredzone nounwind
define internal void @"_ZN49_$LT$u32$u20$as$u20$core..ops..bit..ShrAssign$GT$10shr_assign17h9bcc2547dee4e3c1E"(ptr align 4 %self, i32 %other) unnamed_addr #0 !dbg !255 {
start:
  %other.dbg.spill = alloca i32, align 4
  %self.dbg.spill = alloca ptr, align 8
  store ptr %self, ptr %self.dbg.spill, align 8
  call void @llvm.dbg.declare(metadata ptr %self.dbg.spill, metadata !261, metadata !DIExpression()), !dbg !263
  store i32 %other, ptr %other.dbg.spill, align 4
  call void @llvm.dbg.declare(metadata ptr %other.dbg.spill, metadata !262, metadata !DIExpression()), !dbg !264
  %0 = load i32, ptr %self, align 4, !dbg !265, !noundef !55
  %1 = and i32 %other, -32, !dbg !265
  %_3.1 = icmp ne i32 %1, 0, !dbg !265
  %2 = and i32 %other, 31, !dbg !265
  %_3.0 = lshr i32 %0, %2, !dbg !265
  %3 = call i1 @llvm.expect.i1(i1 %_3.1, i1 false), !dbg !265
  br i1 %3, label %panic, label %bb1, !dbg !265

bb1:                                              ; preds = %start
  store i32 %_3.0, ptr %self, align 4, !dbg !265
  ret void, !dbg !266

panic:                                            ; preds = %start
; call core::panicking::panic
  call void @_ZN4core9panicking5panic17h758e89f926a8adfcE(ptr align 1 @str.1, i64 36, ptr align 8 @alloc2944) #7, !dbg !265
  unreachable, !dbg !265
}

; core::cmp::impls::<impl core::cmp::PartialEq for i32>::eq
; Function Attrs: inlinehint noredzone nounwind
define internal zeroext i1 @"_ZN4core3cmp5impls54_$LT$impl$u20$core..cmp..PartialEq$u20$for$u20$i32$GT$2eq17hb9708d3c77885d52E"(ptr align 4 %self, ptr align 4 %other) unnamed_addr #0 !dbg !267 {
start:
  %other.dbg.spill = alloca ptr, align 8
  %self.dbg.spill = alloca ptr, align 8
  store ptr %self, ptr %self.dbg.spill, align 8
  call void @llvm.dbg.declare(metadata ptr %self.dbg.spill, metadata !277, metadata !DIExpression()), !dbg !279
  store ptr %other, ptr %other.dbg.spill, align 8
  call void @llvm.dbg.declare(metadata ptr %other.dbg.spill, metadata !278, metadata !DIExpression()), !dbg !280
  %_3 = load i32, ptr %self, align 4, !dbg !281, !noundef !55
  %_4 = load i32, ptr %other, align 4, !dbg !282, !noundef !55
  %0 = icmp eq i32 %_3, %_4, !dbg !281
  ret i1 %0, !dbg !283
}

; core::cmp::impls::<impl core::cmp::PartialEq for i64>::eq
; Function Attrs: inlinehint noredzone nounwind
define internal zeroext i1 @"_ZN4core3cmp5impls54_$LT$impl$u20$core..cmp..PartialEq$u20$for$u20$i64$GT$2eq17hefd3a7de730519eeE"(ptr align 8 %self, ptr align 8 %other) unnamed_addr #0 !dbg !284 {
start:
  %other.dbg.spill = alloca ptr, align 8
  %self.dbg.spill = alloca ptr, align 8
  store ptr %self, ptr %self.dbg.spill, align 8
  call void @llvm.dbg.declare(metadata ptr %self.dbg.spill, metadata !290, metadata !DIExpression()), !dbg !292
  store ptr %other, ptr %other.dbg.spill, align 8
  call void @llvm.dbg.declare(metadata ptr %other.dbg.spill, metadata !291, metadata !DIExpression()), !dbg !293
  %_3 = load i64, ptr %self, align 8, !dbg !294, !noundef !55
  %_4 = load i64, ptr %other, align 8, !dbg !295, !noundef !55
  %0 = icmp eq i64 %_3, %_4, !dbg !294
  ret i1 %0, !dbg !296
}

; core::cmp::impls::<impl core::cmp::PartialEq for u16>::ne
; Function Attrs: inlinehint noredzone nounwind
define internal zeroext i1 @"_ZN4core3cmp5impls54_$LT$impl$u20$core..cmp..PartialEq$u20$for$u20$u16$GT$2ne17hee3b5ea9876d9073E"(ptr align 2 %self, ptr align 2 %other) unnamed_addr #0 !dbg !297 {
start:
  %other.dbg.spill = alloca ptr, align 8
  %self.dbg.spill = alloca ptr, align 8
  store ptr %self, ptr %self.dbg.spill, align 8
  call void @llvm.dbg.declare(metadata ptr %self.dbg.spill, metadata !303, metadata !DIExpression()), !dbg !305
  store ptr %other, ptr %other.dbg.spill, align 8
  call void @llvm.dbg.declare(metadata ptr %other.dbg.spill, metadata !304, metadata !DIExpression()), !dbg !306
  %_3 = load i16, ptr %self, align 2, !dbg !307, !noundef !55
  %_4 = load i16, ptr %other, align 2, !dbg !308, !noundef !55
  %0 = icmp ne i16 %_3, %_4, !dbg !307
  ret i1 %0, !dbg !309
}

; core::cmp::impls::<impl core::cmp::PartialEq for u32>::eq
; Function Attrs: inlinehint noredzone nounwind
define internal zeroext i1 @"_ZN4core3cmp5impls54_$LT$impl$u20$core..cmp..PartialEq$u20$for$u20$u32$GT$2eq17he06defb6346671b5E"(ptr align 4 %self, ptr align 4 %other) unnamed_addr #0 !dbg !310 {
start:
  %other.dbg.spill = alloca ptr, align 8
  %self.dbg.spill = alloca ptr, align 8
  store ptr %self, ptr %self.dbg.spill, align 8
  call void @llvm.dbg.declare(metadata ptr %self.dbg.spill, metadata !316, metadata !DIExpression()), !dbg !318
  store ptr %other, ptr %other.dbg.spill, align 8
  call void @llvm.dbg.declare(metadata ptr %other.dbg.spill, metadata !317, metadata !DIExpression()), !dbg !319
  %_3 = load i32, ptr %self, align 4, !dbg !320, !noundef !55
  %_4 = load i32, ptr %other, align 4, !dbg !321, !noundef !55
  %0 = icmp eq i32 %_3, %_4, !dbg !320
  ret i1 %0, !dbg !322
}

; core::cmp::impls::<impl core::cmp::PartialEq for u32>::ne
; Function Attrs: inlinehint noredzone nounwind
define internal zeroext i1 @"_ZN4core3cmp5impls54_$LT$impl$u20$core..cmp..PartialEq$u20$for$u20$u32$GT$2ne17hf8dd31269e162e3bE"(ptr align 4 %self, ptr align 4 %other) unnamed_addr #0 !dbg !323 {
start:
  %other.dbg.spill = alloca ptr, align 8
  %self.dbg.spill = alloca ptr, align 8
  store ptr %self, ptr %self.dbg.spill, align 8
  call void @llvm.dbg.declare(metadata ptr %self.dbg.spill, metadata !325, metadata !DIExpression()), !dbg !327
  store ptr %other, ptr %other.dbg.spill, align 8
  call void @llvm.dbg.declare(metadata ptr %other.dbg.spill, metadata !326, metadata !DIExpression()), !dbg !328
  %_3 = load i32, ptr %self, align 4, !dbg !329, !noundef !55
  %_4 = load i32, ptr %other, align 4, !dbg !330, !noundef !55
  %0 = icmp ne i32 %_3, %_4, !dbg !329
  ret i1 %0, !dbg !331
}

; core::cmp::impls::<impl core::cmp::PartialEq for u64>::eq
; Function Attrs: inlinehint noredzone nounwind
define internal zeroext i1 @"_ZN4core3cmp5impls54_$LT$impl$u20$core..cmp..PartialEq$u20$for$u20$u64$GT$2eq17h7900aa5be021fc96E"(ptr align 8 %self, ptr align 8 %other) unnamed_addr #0 !dbg !332 {
start:
  %other.dbg.spill = alloca ptr, align 8
  %self.dbg.spill = alloca ptr, align 8
  store ptr %self, ptr %self.dbg.spill, align 8
  call void @llvm.dbg.declare(metadata ptr %self.dbg.spill, metadata !338, metadata !DIExpression()), !dbg !340
  store ptr %other, ptr %other.dbg.spill, align 8
  call void @llvm.dbg.declare(metadata ptr %other.dbg.spill, metadata !339, metadata !DIExpression()), !dbg !341
  %_3 = load i64, ptr %self, align 8, !dbg !342, !noundef !55
  %_4 = load i64, ptr %other, align 8, !dbg !343, !noundef !55
  %0 = icmp eq i64 %_3, %_4, !dbg !342
  ret i1 %0, !dbg !344
}

; core::cmp::impls::<impl core::cmp::PartialEq for u64>::ne
; Function Attrs: inlinehint noredzone nounwind
define internal zeroext i1 @"_ZN4core3cmp5impls54_$LT$impl$u20$core..cmp..PartialEq$u20$for$u20$u64$GT$2ne17h51c77d97f3cfe5c7E"(ptr align 8 %self, ptr align 8 %other) unnamed_addr #0 !dbg !345 {
start:
  %other.dbg.spill = alloca ptr, align 8
  %self.dbg.spill = alloca ptr, align 8
  store ptr %self, ptr %self.dbg.spill, align 8
  call void @llvm.dbg.declare(metadata ptr %self.dbg.spill, metadata !347, metadata !DIExpression()), !dbg !349
  store ptr %other, ptr %other.dbg.spill, align 8
  call void @llvm.dbg.declare(metadata ptr %other.dbg.spill, metadata !348, metadata !DIExpression()), !dbg !350
  %_3 = load i64, ptr %self, align 8, !dbg !351, !noundef !55
  %_4 = load i64, ptr %other, align 8, !dbg !352, !noundef !55
  %0 = icmp ne i64 %_3, %_4, !dbg !351
  ret i1 %0, !dbg !353
}

; core::cmp::impls::<impl core::cmp::PartialEq for u128>::ne
; Function Attrs: inlinehint noredzone nounwind
define internal zeroext i1 @"_ZN4core3cmp5impls55_$LT$impl$u20$core..cmp..PartialEq$u20$for$u20$u128$GT$2ne17h09c122affb3bbce3E"(ptr align 8 %self, ptr align 8 %other) unnamed_addr #0 !dbg !354 {
start:
  %other.dbg.spill = alloca ptr, align 8
  %self.dbg.spill = alloca ptr, align 8
  store ptr %self, ptr %self.dbg.spill, align 8
  call void @llvm.dbg.declare(metadata ptr %self.dbg.spill, metadata !360, metadata !DIExpression()), !dbg !362
  store ptr %other, ptr %other.dbg.spill, align 8
  call void @llvm.dbg.declare(metadata ptr %other.dbg.spill, metadata !361, metadata !DIExpression()), !dbg !363
  %_3 = load i128, ptr %self, align 8, !dbg !364, !noundef !55
  %_4 = load i128, ptr %other, align 8, !dbg !365, !noundef !55
  %0 = icmp ne i128 %_3, %_4, !dbg !364
  ret i1 %0, !dbg !366
}

; core::cmp::impls::<impl core::cmp::PartialOrd for i32>::ge
; Function Attrs: inlinehint noredzone nounwind
define internal zeroext i1 @"_ZN4core3cmp5impls55_$LT$impl$u20$core..cmp..PartialOrd$u20$for$u20$i32$GT$2ge17h69e6382d00b26c61E"(ptr align 4 %self, ptr align 4 %other) unnamed_addr #0 !dbg !367 {
start:
  %other.dbg.spill = alloca ptr, align 8
  %self.dbg.spill = alloca ptr, align 8
  store ptr %self, ptr %self.dbg.spill, align 8
  call void @llvm.dbg.declare(metadata ptr %self.dbg.spill, metadata !370, metadata !DIExpression()), !dbg !372
  store ptr %other, ptr %other.dbg.spill, align 8
  call void @llvm.dbg.declare(metadata ptr %other.dbg.spill, metadata !371, metadata !DIExpression()), !dbg !373
  %_3 = load i32, ptr %self, align 4, !dbg !374, !noundef !55
  %_4 = load i32, ptr %other, align 4, !dbg !375, !noundef !55
  %0 = icmp sge i32 %_3, %_4, !dbg !374
  ret i1 %0, !dbg !376
}

; core::cmp::impls::<impl core::cmp::PartialOrd for i32>::gt
; Function Attrs: inlinehint noredzone nounwind
define internal zeroext i1 @"_ZN4core3cmp5impls55_$LT$impl$u20$core..cmp..PartialOrd$u20$for$u20$i32$GT$2gt17h39755558b91ea920E"(ptr align 4 %self, ptr align 4 %other) unnamed_addr #0 !dbg !377 {
start:
  %other.dbg.spill = alloca ptr, align 8
  %self.dbg.spill = alloca ptr, align 8
  store ptr %self, ptr %self.dbg.spill, align 8
  call void @llvm.dbg.declare(metadata ptr %self.dbg.spill, metadata !379, metadata !DIExpression()), !dbg !381
  store ptr %other, ptr %other.dbg.spill, align 8
  call void @llvm.dbg.declare(metadata ptr %other.dbg.spill, metadata !380, metadata !DIExpression()), !dbg !382
  %_3 = load i32, ptr %self, align 4, !dbg !383, !noundef !55
  %_4 = load i32, ptr %other, align 4, !dbg !384, !noundef !55
  %0 = icmp sgt i32 %_3, %_4, !dbg !383
  ret i1 %0, !dbg !385
}

; core::cmp::impls::<impl core::cmp::PartialOrd for i32>::lt
; Function Attrs: inlinehint noredzone nounwind
define internal zeroext i1 @"_ZN4core3cmp5impls55_$LT$impl$u20$core..cmp..PartialOrd$u20$for$u20$i32$GT$2lt17h031bc8026b8938aeE"(ptr align 4 %self, ptr align 4 %other) unnamed_addr #0 !dbg !386 {
start:
  %other.dbg.spill = alloca ptr, align 8
  %self.dbg.spill = alloca ptr, align 8
  store ptr %self, ptr %self.dbg.spill, align 8
  call void @llvm.dbg.declare(metadata ptr %self.dbg.spill, metadata !388, metadata !DIExpression()), !dbg !390
  store ptr %other, ptr %other.dbg.spill, align 8
  call void @llvm.dbg.declare(metadata ptr %other.dbg.spill, metadata !389, metadata !DIExpression()), !dbg !391
  %_3 = load i32, ptr %self, align 4, !dbg !392, !noundef !55
  %_4 = load i32, ptr %other, align 4, !dbg !393, !noundef !55
  %0 = icmp slt i32 %_3, %_4, !dbg !392
  ret i1 %0, !dbg !394
}

; core::cmp::impls::<impl core::cmp::PartialOrd for i64>::ge
; Function Attrs: inlinehint noredzone nounwind
define internal zeroext i1 @"_ZN4core3cmp5impls55_$LT$impl$u20$core..cmp..PartialOrd$u20$for$u20$i64$GT$2ge17h06f0b214e909871dE"(ptr align 8 %self, ptr align 8 %other) unnamed_addr #0 !dbg !395 {
start:
  %other.dbg.spill = alloca ptr, align 8
  %self.dbg.spill = alloca ptr, align 8
  store ptr %self, ptr %self.dbg.spill, align 8
  call void @llvm.dbg.declare(metadata ptr %self.dbg.spill, metadata !398, metadata !DIExpression()), !dbg !400
  store ptr %other, ptr %other.dbg.spill, align 8
  call void @llvm.dbg.declare(metadata ptr %other.dbg.spill, metadata !399, metadata !DIExpression()), !dbg !401
  %_3 = load i64, ptr %self, align 8, !dbg !402, !noundef !55
  %_4 = load i64, ptr %other, align 8, !dbg !403, !noundef !55
  %0 = icmp sge i64 %_3, %_4, !dbg !402
  ret i1 %0, !dbg !404
}

; core::cmp::impls::<impl core::cmp::PartialOrd for i64>::gt
; Function Attrs: inlinehint noredzone nounwind
define internal zeroext i1 @"_ZN4core3cmp5impls55_$LT$impl$u20$core..cmp..PartialOrd$u20$for$u20$i64$GT$2gt17h950abb18865f22aaE"(ptr align 8 %self, ptr align 8 %other) unnamed_addr #0 !dbg !405 {
start:
  %other.dbg.spill = alloca ptr, align 8
  %self.dbg.spill = alloca ptr, align 8
  store ptr %self, ptr %self.dbg.spill, align 8
  call void @llvm.dbg.declare(metadata ptr %self.dbg.spill, metadata !407, metadata !DIExpression()), !dbg !409
  store ptr %other, ptr %other.dbg.spill, align 8
  call void @llvm.dbg.declare(metadata ptr %other.dbg.spill, metadata !408, metadata !DIExpression()), !dbg !410
  %_3 = load i64, ptr %self, align 8, !dbg !411, !noundef !55
  %_4 = load i64, ptr %other, align 8, !dbg !412, !noundef !55
  %0 = icmp sgt i64 %_3, %_4, !dbg !411
  ret i1 %0, !dbg !413
}

; core::cmp::impls::<impl core::cmp::PartialOrd for i64>::lt
; Function Attrs: inlinehint noredzone nounwind
define internal zeroext i1 @"_ZN4core3cmp5impls55_$LT$impl$u20$core..cmp..PartialOrd$u20$for$u20$i64$GT$2lt17h6675aaa537c4e92dE"(ptr align 8 %self, ptr align 8 %other) unnamed_addr #0 !dbg !414 {
start:
  %other.dbg.spill = alloca ptr, align 8
  %self.dbg.spill = alloca ptr, align 8
  store ptr %self, ptr %self.dbg.spill, align 8
  call void @llvm.dbg.declare(metadata ptr %self.dbg.spill, metadata !416, metadata !DIExpression()), !dbg !418
  store ptr %other, ptr %other.dbg.spill, align 8
  call void @llvm.dbg.declare(metadata ptr %other.dbg.spill, metadata !417, metadata !DIExpression()), !dbg !419
  %_3 = load i64, ptr %self, align 8, !dbg !420, !noundef !55
  %_4 = load i64, ptr %other, align 8, !dbg !421, !noundef !55
  %0 = icmp slt i64 %_3, %_4, !dbg !420
  ret i1 %0, !dbg !422
}

; core::cmp::impls::<impl core::cmp::PartialOrd for u32>::ge
; Function Attrs: inlinehint noredzone nounwind
define internal zeroext i1 @"_ZN4core3cmp5impls55_$LT$impl$u20$core..cmp..PartialOrd$u20$for$u20$u32$GT$2ge17h3180f286cfa4431fE"(ptr align 4 %self, ptr align 4 %other) unnamed_addr #0 !dbg !423 {
start:
  %other.dbg.spill = alloca ptr, align 8
  %self.dbg.spill = alloca ptr, align 8
  store ptr %self, ptr %self.dbg.spill, align 8
  call void @llvm.dbg.declare(metadata ptr %self.dbg.spill, metadata !426, metadata !DIExpression()), !dbg !428
  store ptr %other, ptr %other.dbg.spill, align 8
  call void @llvm.dbg.declare(metadata ptr %other.dbg.spill, metadata !427, metadata !DIExpression()), !dbg !429
  %_3 = load i32, ptr %self, align 4, !dbg !430, !noundef !55
  %_4 = load i32, ptr %other, align 4, !dbg !431, !noundef !55
  %0 = icmp uge i32 %_3, %_4, !dbg !430
  ret i1 %0, !dbg !432
}

; core::cmp::impls::<impl core::cmp::PartialOrd for u32>::gt
; Function Attrs: inlinehint noredzone nounwind
define internal zeroext i1 @"_ZN4core3cmp5impls55_$LT$impl$u20$core..cmp..PartialOrd$u20$for$u20$u32$GT$2gt17h4c2e7bdd81a84743E"(ptr align 4 %self, ptr align 4 %other) unnamed_addr #0 !dbg !433 {
start:
  %other.dbg.spill = alloca ptr, align 8
  %self.dbg.spill = alloca ptr, align 8
  store ptr %self, ptr %self.dbg.spill, align 8
  call void @llvm.dbg.declare(metadata ptr %self.dbg.spill, metadata !435, metadata !DIExpression()), !dbg !437
  store ptr %other, ptr %other.dbg.spill, align 8
  call void @llvm.dbg.declare(metadata ptr %other.dbg.spill, metadata !436, metadata !DIExpression()), !dbg !438
  %_3 = load i32, ptr %self, align 4, !dbg !439, !noundef !55
  %_4 = load i32, ptr %other, align 4, !dbg !440, !noundef !55
  %0 = icmp ugt i32 %_3, %_4, !dbg !439
  ret i1 %0, !dbg !441
}

; core::cmp::impls::<impl core::cmp::PartialOrd for u32>::lt
; Function Attrs: inlinehint noredzone nounwind
define internal zeroext i1 @"_ZN4core3cmp5impls55_$LT$impl$u20$core..cmp..PartialOrd$u20$for$u20$u32$GT$2lt17h19afeb80061b1cd0E"(ptr align 4 %self, ptr align 4 %other) unnamed_addr #0 !dbg !442 {
start:
  %other.dbg.spill = alloca ptr, align 8
  %self.dbg.spill = alloca ptr, align 8
  store ptr %self, ptr %self.dbg.spill, align 8
  call void @llvm.dbg.declare(metadata ptr %self.dbg.spill, metadata !444, metadata !DIExpression()), !dbg !446
  store ptr %other, ptr %other.dbg.spill, align 8
  call void @llvm.dbg.declare(metadata ptr %other.dbg.spill, metadata !445, metadata !DIExpression()), !dbg !447
  %_3 = load i32, ptr %self, align 4, !dbg !448, !noundef !55
  %_4 = load i32, ptr %other, align 4, !dbg !449, !noundef !55
  %0 = icmp ult i32 %_3, %_4, !dbg !448
  ret i1 %0, !dbg !450
}

; core::cmp::impls::<impl core::cmp::PartialOrd for u64>::ge
; Function Attrs: inlinehint noredzone nounwind
define internal zeroext i1 @"_ZN4core3cmp5impls55_$LT$impl$u20$core..cmp..PartialOrd$u20$for$u20$u64$GT$2ge17h49374595b3300a64E"(ptr align 8 %self, ptr align 8 %other) unnamed_addr #0 !dbg !451 {
start:
  %other.dbg.spill = alloca ptr, align 8
  %self.dbg.spill = alloca ptr, align 8
  store ptr %self, ptr %self.dbg.spill, align 8
  call void @llvm.dbg.declare(metadata ptr %self.dbg.spill, metadata !454, metadata !DIExpression()), !dbg !456
  store ptr %other, ptr %other.dbg.spill, align 8
  call void @llvm.dbg.declare(metadata ptr %other.dbg.spill, metadata !455, metadata !DIExpression()), !dbg !457
  %_3 = load i64, ptr %self, align 8, !dbg !458, !noundef !55
  %_4 = load i64, ptr %other, align 8, !dbg !459, !noundef !55
  %0 = icmp uge i64 %_3, %_4, !dbg !458
  ret i1 %0, !dbg !460
}

; core::cmp::impls::<impl core::cmp::PartialOrd for u64>::gt
; Function Attrs: inlinehint noredzone nounwind
define internal zeroext i1 @"_ZN4core3cmp5impls55_$LT$impl$u20$core..cmp..PartialOrd$u20$for$u20$u64$GT$2gt17h8a2edbbc2f0a798eE"(ptr align 8 %self, ptr align 8 %other) unnamed_addr #0 !dbg !461 {
start:
  %other.dbg.spill = alloca ptr, align 8
  %self.dbg.spill = alloca ptr, align 8
  store ptr %self, ptr %self.dbg.spill, align 8
  call void @llvm.dbg.declare(metadata ptr %self.dbg.spill, metadata !463, metadata !DIExpression()), !dbg !465
  store ptr %other, ptr %other.dbg.spill, align 8
  call void @llvm.dbg.declare(metadata ptr %other.dbg.spill, metadata !464, metadata !DIExpression()), !dbg !466
  %_3 = load i64, ptr %self, align 8, !dbg !467, !noundef !55
  %_4 = load i64, ptr %other, align 8, !dbg !468, !noundef !55
  %0 = icmp ugt i64 %_3, %_4, !dbg !467
  ret i1 %0, !dbg !469
}

; core::cmp::impls::<impl core::cmp::PartialOrd for u64>::lt
; Function Attrs: inlinehint noredzone nounwind
define internal zeroext i1 @"_ZN4core3cmp5impls55_$LT$impl$u20$core..cmp..PartialOrd$u20$for$u20$u64$GT$2lt17hc83878c7f77fcbc4E"(ptr align 8 %self, ptr align 8 %other) unnamed_addr #0 !dbg !470 {
start:
  %other.dbg.spill = alloca ptr, align 8
  %self.dbg.spill = alloca ptr, align 8
  store ptr %self, ptr %self.dbg.spill, align 8
  call void @llvm.dbg.declare(metadata ptr %self.dbg.spill, metadata !472, metadata !DIExpression()), !dbg !474
  store ptr %other, ptr %other.dbg.spill, align 8
  call void @llvm.dbg.declare(metadata ptr %other.dbg.spill, metadata !473, metadata !DIExpression()), !dbg !475
  %_3 = load i64, ptr %self, align 8, !dbg !476, !noundef !55
  %_4 = load i64, ptr %other, align 8, !dbg !477, !noundef !55
  %0 = icmp ult i64 %_3, %_4, !dbg !476
  ret i1 %0, !dbg !478
}

; core::cmp::impls::<impl core::cmp::PartialOrd for i128>::lt
; Function Attrs: inlinehint noredzone nounwind
define internal zeroext i1 @"_ZN4core3cmp5impls56_$LT$impl$u20$core..cmp..PartialOrd$u20$for$u20$i128$GT$2lt17h53d7695f6c84914aE"(ptr align 8 %self, ptr align 8 %other) unnamed_addr #0 !dbg !479 {
start:
  %other.dbg.spill = alloca ptr, align 8
  %self.dbg.spill = alloca ptr, align 8
  store ptr %self, ptr %self.dbg.spill, align 8
  call void @llvm.dbg.declare(metadata ptr %self.dbg.spill, metadata !486, metadata !DIExpression()), !dbg !488
  store ptr %other, ptr %other.dbg.spill, align 8
  call void @llvm.dbg.declare(metadata ptr %other.dbg.spill, metadata !487, metadata !DIExpression()), !dbg !489
  %_3 = load i128, ptr %self, align 8, !dbg !490, !noundef !55
  %_4 = load i128, ptr %other, align 8, !dbg !491, !noundef !55
  %0 = icmp slt i128 %_3, %_4, !dbg !490
  ret i1 %0, !dbg !492
}

; core::cmp::impls::<impl core::cmp::PartialOrd for u128>::lt
; Function Attrs: inlinehint noredzone nounwind
define internal zeroext i1 @"_ZN4core3cmp5impls56_$LT$impl$u20$core..cmp..PartialOrd$u20$for$u20$u128$GT$2lt17hf75b2a1aa61765a7E"(ptr align 8 %self, ptr align 8 %other) unnamed_addr #0 !dbg !493 {
start:
  %other.dbg.spill = alloca ptr, align 8
  %self.dbg.spill = alloca ptr, align 8
  store ptr %self, ptr %self.dbg.spill, align 8
  call void @llvm.dbg.declare(metadata ptr %self.dbg.spill, metadata !496, metadata !DIExpression()), !dbg !498
  store ptr %other, ptr %other.dbg.spill, align 8
  call void @llvm.dbg.declare(metadata ptr %other.dbg.spill, metadata !497, metadata !DIExpression()), !dbg !499
  %_3 = load i128, ptr %self, align 8, !dbg !500, !noundef !55
  %_4 = load i128, ptr %other, align 8, !dbg !501, !noundef !55
  %0 = icmp ult i128 %_3, %_4, !dbg !500
  ret i1 %0, !dbg !502
}

; core::f32::<impl f32>::is_sign_negative
; Function Attrs: inlinehint noredzone nounwind
define internal zeroext i1 @"_ZN4core3f3221_$LT$impl$u20$f32$GT$16is_sign_negative17hda41bda2664b45faE"(float %self) unnamed_addr #0 !dbg !503 {
start:
  %0 = alloca i32, align 4
  %self.dbg.spill = alloca float, align 4
  store float %self, ptr %self.dbg.spill, align 4
  call void @llvm.dbg.declare(metadata ptr %self.dbg.spill, metadata !510, metadata !DIExpression()), !dbg !511
  %1 = bitcast float %self to i32, !dbg !512
  store i32 %1, ptr %0, align 4, !dbg !512
  %_3 = load i32, ptr %0, align 4, !dbg !512, !noundef !55
  %_2 = and i32 %_3, -2147483648, !dbg !512
  %2 = icmp ne i32 %_2, 0, !dbg !512
  ret i1 %2, !dbg !513
}

; core::f32::<impl f32>::is_nan
; Function Attrs: inlinehint noredzone nounwind
define internal zeroext i1 @"_ZN4core3f3221_$LT$impl$u20$f32$GT$6is_nan17ha4da25a4bf3132d9E"(float %self) unnamed_addr #0 !dbg !514 {
start:
  %self.dbg.spill = alloca float, align 4
  store float %self, ptr %self.dbg.spill, align 4
  call void @llvm.dbg.declare(metadata ptr %self.dbg.spill, metadata !516, metadata !DIExpression()), !dbg !517
  %0 = fcmp une float %self, %self, !dbg !518
  ret i1 %0, !dbg !519
}

; core::f32::<impl f32>::to_bits
; Function Attrs: inlinehint noredzone nounwind
define internal i32 @"_ZN4core3f3221_$LT$impl$u20$f32$GT$7to_bits17hcd24881ecd07dbf8E"(float %self) unnamed_addr #0 !dbg !520 {
start:
  %0 = alloca i32, align 4
  %x.dbg.spill.i = alloca float, align 4
  %self.dbg.spill = alloca float, align 4
  %_2 = alloca float, align 4
  store float %self, ptr %self.dbg.spill, align 4
  call void @llvm.dbg.declare(metadata ptr %self.dbg.spill, metadata !524, metadata !DIExpression()), !dbg !525
  store float %self, ptr %_2, align 4, !dbg !526
  %1 = load float, ptr %_2, align 4, !dbg !527, !noundef !55
  store float %1, ptr %x.dbg.spill.i, align 4
  call void @llvm.dbg.declare(metadata ptr %x.dbg.spill.i, metadata !528, metadata !DIExpression()), !dbg !532
  %2 = bitcast float %1 to i32, !dbg !534
  store i32 %2, ptr %0, align 4, !dbg !534
  %3 = load i32, ptr %0, align 4, !dbg !534, !noundef !55
  ret i32 %3, !dbg !535
}

; core::f32::<impl f32>::from_bits
; Function Attrs: inlinehint noredzone nounwind
define internal float @"_ZN4core3f3221_$LT$impl$u20$f32$GT$9from_bits17ha76e139322be48ecE"(i32 %v) unnamed_addr #0 !dbg !536 {
start:
  %0 = alloca float, align 4
  %x.dbg.spill.i = alloca i32, align 4
  %v.dbg.spill = alloca i32, align 4
  %_2 = alloca i32, align 4
  store i32 %v, ptr %v.dbg.spill, align 4
  call void @llvm.dbg.declare(metadata ptr %v.dbg.spill, metadata !540, metadata !DIExpression()), !dbg !541
  store i32 %v, ptr %_2, align 4, !dbg !542
  %1 = load i32, ptr %_2, align 4, !dbg !543, !noundef !55
  store i32 %1, ptr %x.dbg.spill.i, align 4
  call void @llvm.dbg.declare(metadata ptr %x.dbg.spill.i, metadata !544, metadata !DIExpression()), !dbg !548
  %2 = bitcast i32 %1 to float, !dbg !550
  store float %2, ptr %0, align 4, !dbg !550
  %3 = load float, ptr %0, align 4, !dbg !550, !noundef !55
  ret float %3, !dbg !551
}

; core::f64::<impl f64>::is_sign_negative
; Function Attrs: inlinehint noredzone nounwind
define internal zeroext i1 @"_ZN4core3f6421_$LT$impl$u20$f64$GT$16is_sign_negative17h0850349285989744E"(double %self) unnamed_addr #0 !dbg !552 {
start:
  %0 = alloca i64, align 8
  %self.dbg.spill = alloca double, align 8
  store double %self, ptr %self.dbg.spill, align 8
  call void @llvm.dbg.declare(metadata ptr %self.dbg.spill, metadata !559, metadata !DIExpression()), !dbg !560
  %1 = bitcast double %self to i64, !dbg !561
  store i64 %1, ptr %0, align 8, !dbg !561
  %_3 = load i64, ptr %0, align 8, !dbg !561, !noundef !55
  %_2 = and i64 %_3, -9223372036854775808, !dbg !561
  %2 = icmp ne i64 %_2, 0, !dbg !561
  ret i1 %2, !dbg !562
}

; core::f64::<impl f64>::is_nan
; Function Attrs: inlinehint noredzone nounwind
define internal zeroext i1 @"_ZN4core3f6421_$LT$impl$u20$f64$GT$6is_nan17hb157351cb426e9e2E"(double %self) unnamed_addr #0 !dbg !563 {
start:
  %self.dbg.spill = alloca double, align 8
  store double %self, ptr %self.dbg.spill, align 8
  call void @llvm.dbg.declare(metadata ptr %self.dbg.spill, metadata !565, metadata !DIExpression()), !dbg !566
  %0 = fcmp une double %self, %self, !dbg !567
  ret i1 %0, !dbg !568
}

; core::f64::<impl f64>::to_bits
; Function Attrs: inlinehint noredzone nounwind
define internal i64 @"_ZN4core3f6421_$LT$impl$u20$f64$GT$7to_bits17h9f9b15bdfd687cfcE"(double %self) unnamed_addr #0 !dbg !569 {
start:
  %0 = alloca i64, align 8
  %rt.dbg.spill.i = alloca double, align 8
  %self.dbg.spill = alloca double, align 8
  %_2 = alloca double, align 8
  store double %self, ptr %self.dbg.spill, align 8
  call void @llvm.dbg.declare(metadata ptr %self.dbg.spill, metadata !573, metadata !DIExpression()), !dbg !574
  store double %self, ptr %_2, align 8, !dbg !575
  %1 = load double, ptr %_2, align 8, !dbg !576, !noundef !55
  store double %1, ptr %rt.dbg.spill.i, align 8
  call void @llvm.dbg.declare(metadata ptr %rt.dbg.spill.i, metadata !577, metadata !DIExpression()), !dbg !581
  %2 = bitcast double %1 to i64, !dbg !583
  store i64 %2, ptr %0, align 8, !dbg !583
  %3 = load i64, ptr %0, align 8, !dbg !583, !noundef !55
  ret i64 %3, !dbg !584
}

; core::f64::<impl f64>::from_bits
; Function Attrs: inlinehint noredzone nounwind
define internal double @"_ZN4core3f6421_$LT$impl$u20$f64$GT$9from_bits17hd9e00a947531a62cE"(i64 %v) unnamed_addr #0 !dbg !585 {
start:
  %0 = alloca double, align 8
  %rt.dbg.spill.i = alloca i64, align 8
  %v.dbg.spill = alloca i64, align 8
  %_2 = alloca i64, align 8
  store i64 %v, ptr %v.dbg.spill, align 8
  call void @llvm.dbg.declare(metadata ptr %v.dbg.spill, metadata !589, metadata !DIExpression()), !dbg !590
  store i64 %v, ptr %_2, align 8, !dbg !591
  %1 = load i64, ptr %_2, align 8, !dbg !592, !noundef !55
  store i64 %1, ptr %rt.dbg.spill.i, align 8
  call void @llvm.dbg.declare(metadata ptr %rt.dbg.spill.i, metadata !593, metadata !DIExpression()), !dbg !597
  %2 = bitcast i64 %1 to double, !dbg !599
  store double %2, ptr %0, align 8, !dbg !599
  %3 = load double, ptr %0, align 8, !dbg !599, !noundef !55
  ret double %3, !dbg !600
}

; core::num::<impl i8>::wrapping_abs
; Function Attrs: inlinehint noredzone nounwind
define internal i8 @"_ZN4core3num20_$LT$impl$u20$i8$GT$12wrapping_abs17hbfd6fc1cbd0278edE"(i8 %self) unnamed_addr #0 !dbg !601 {
start:
  %rhs.dbg.spill.i = alloca i8, align 1
  %self.dbg.spill.i2 = alloca i8, align 1
  %self.dbg.spill.i1 = alloca i8, align 1
  %self.dbg.spill.i = alloca i8, align 1
  %self.dbg.spill = alloca i8, align 1
  %0 = alloca i8, align 1
  store i8 %self, ptr %self.dbg.spill, align 1
  call void @llvm.dbg.declare(metadata ptr %self.dbg.spill, metadata !609, metadata !DIExpression()), !dbg !610
  store i8 %self, ptr %self.dbg.spill.i, align 1
  call void @llvm.dbg.declare(metadata ptr %self.dbg.spill.i, metadata !611, metadata !DIExpression()), !dbg !616
  %1 = icmp slt i8 %self, 0, !dbg !618
  br i1 %1, label %bb2, label %bb3, !dbg !619

bb3:                                              ; preds = %start
  store i8 %self, ptr %0, align 1, !dbg !620
  br label %bb4, !dbg !621

bb2:                                              ; preds = %start
  store i8 %self, ptr %self.dbg.spill.i1, align 1
  call void @llvm.dbg.declare(metadata ptr %self.dbg.spill.i1, metadata !622, metadata !DIExpression()), !dbg !625
  store i8 0, ptr %self.dbg.spill.i2, align 1
  call void @llvm.dbg.declare(metadata ptr %self.dbg.spill.i2, metadata !627, metadata !DIExpression()), !dbg !633
  store i8 %self, ptr %rhs.dbg.spill.i, align 1
  call void @llvm.dbg.declare(metadata ptr %rhs.dbg.spill.i, metadata !632, metadata !DIExpression()), !dbg !635
  %2 = sub i8 0, %self, !dbg !636
  store i8 %2, ptr %0, align 1, !dbg !637
  br label %bb4, !dbg !637

bb4:                                              ; preds = %bb3, %bb2
  %3 = load i8, ptr %0, align 1, !dbg !638, !noundef !55
  ret i8 %3, !dbg !638
}

; core::num::<impl i16>::wrapping_abs
; Function Attrs: inlinehint noredzone nounwind
define internal i16 @"_ZN4core3num21_$LT$impl$u20$i16$GT$12wrapping_abs17h45d6417e3de7fcccE"(i16 %self) unnamed_addr #0 !dbg !639 {
start:
  %rhs.dbg.spill.i = alloca i16, align 2
  %self.dbg.spill.i2 = alloca i16, align 2
  %self.dbg.spill.i1 = alloca i16, align 2
  %self.dbg.spill.i = alloca i16, align 2
  %self.dbg.spill = alloca i16, align 2
  %0 = alloca i16, align 2
  store i16 %self, ptr %self.dbg.spill, align 2
  call void @llvm.dbg.declare(metadata ptr %self.dbg.spill, metadata !644, metadata !DIExpression()), !dbg !645
  store i16 %self, ptr %self.dbg.spill.i, align 2
  call void @llvm.dbg.declare(metadata ptr %self.dbg.spill.i, metadata !646, metadata !DIExpression()), !dbg !651
  %1 = icmp slt i16 %self, 0, !dbg !653
  br i1 %1, label %bb2, label %bb3, !dbg !654

bb3:                                              ; preds = %start
  store i16 %self, ptr %0, align 2, !dbg !655
  br label %bb4, !dbg !656

bb2:                                              ; preds = %start
  store i16 %self, ptr %self.dbg.spill.i1, align 2
  call void @llvm.dbg.declare(metadata ptr %self.dbg.spill.i1, metadata !657, metadata !DIExpression()), !dbg !660
  store i16 0, ptr %self.dbg.spill.i2, align 2
  call void @llvm.dbg.declare(metadata ptr %self.dbg.spill.i2, metadata !662, metadata !DIExpression()), !dbg !666
  store i16 %self, ptr %rhs.dbg.spill.i, align 2
  call void @llvm.dbg.declare(metadata ptr %rhs.dbg.spill.i, metadata !665, metadata !DIExpression()), !dbg !668
  %2 = sub i16 0, %self, !dbg !669
  store i16 %2, ptr %0, align 2, !dbg !670
  br label %bb4, !dbg !670

bb4:                                              ; preds = %bb3, %bb2
  %3 = load i16, ptr %0, align 2, !dbg !671, !noundef !55
  ret i16 %3, !dbg !671
}

; core::num::<impl i32>::unsigned_abs
; Function Attrs: inlinehint noredzone nounwind
define internal i32 @"_ZN4core3num21_$LT$impl$u20$i32$GT$12unsigned_abs17h054580face9e8442E"(i32 %self) unnamed_addr #0 !dbg !672 {
start:
  %self.dbg.spill = alloca i32, align 4
  store i32 %self, ptr %self.dbg.spill, align 4
  call void @llvm.dbg.declare(metadata ptr %self.dbg.spill, metadata !677, metadata !DIExpression()), !dbg !678
; call core::num::<impl i32>::wrapping_abs
  %_2 = call i32 @"_ZN4core3num21_$LT$impl$u20$i32$GT$12wrapping_abs17h93964984960be31cE"(i32 %self) #8, !dbg !679
  ret i32 %_2, !dbg !680
}

; core::num::<impl i32>::wrapping_abs
; Function Attrs: inlinehint noredzone nounwind
define internal i32 @"_ZN4core3num21_$LT$impl$u20$i32$GT$12wrapping_abs17h93964984960be31cE"(i32 %self) unnamed_addr #0 !dbg !681 {
start:
  %rhs.dbg.spill.i = alloca i32, align 4
  %self.dbg.spill.i2 = alloca i32, align 4
  %self.dbg.spill.i1 = alloca i32, align 4
  %self.dbg.spill.i = alloca i32, align 4
  %self.dbg.spill = alloca i32, align 4
  %0 = alloca i32, align 4
  store i32 %self, ptr %self.dbg.spill, align 4
  call void @llvm.dbg.declare(metadata ptr %self.dbg.spill, metadata !685, metadata !DIExpression()), !dbg !686
  store i32 %self, ptr %self.dbg.spill.i, align 4
  call void @llvm.dbg.declare(metadata ptr %self.dbg.spill.i, metadata !687, metadata !DIExpression()), !dbg !692
  %1 = icmp slt i32 %self, 0, !dbg !694
  br i1 %1, label %bb2, label %bb3, !dbg !695

bb3:                                              ; preds = %start
  store i32 %self, ptr %0, align 4, !dbg !696
  br label %bb4, !dbg !697

bb2:                                              ; preds = %start
  store i32 %self, ptr %self.dbg.spill.i1, align 4
  call void @llvm.dbg.declare(metadata ptr %self.dbg.spill.i1, metadata !698, metadata !DIExpression()), !dbg !701
  store i32 0, ptr %self.dbg.spill.i2, align 4
  call void @llvm.dbg.declare(metadata ptr %self.dbg.spill.i2, metadata !703, metadata !DIExpression()), !dbg !707
  store i32 %self, ptr %rhs.dbg.spill.i, align 4
  call void @llvm.dbg.declare(metadata ptr %rhs.dbg.spill.i, metadata !706, metadata !DIExpression()), !dbg !709
  %2 = sub i32 0, %self, !dbg !710
  store i32 %2, ptr %0, align 4, !dbg !711
  br label %bb4, !dbg !711

bb4:                                              ; preds = %bb3, %bb2
  %3 = load i32, ptr %0, align 4, !dbg !712, !noundef !55
  ret i32 %3, !dbg !712
}

; core::num::<impl i64>::unsigned_abs
; Function Attrs: inlinehint noredzone nounwind
define internal i64 @"_ZN4core3num21_$LT$impl$u20$i64$GT$12unsigned_abs17hffbbb6623f48edceE"(i64 %self) unnamed_addr #0 !dbg !713 {
start:
  %self.dbg.spill = alloca i64, align 8
  store i64 %self, ptr %self.dbg.spill, align 8
  call void @llvm.dbg.declare(metadata ptr %self.dbg.spill, metadata !718, metadata !DIExpression()), !dbg !719
; call core::num::<impl i64>::wrapping_abs
  %_2 = call i64 @"_ZN4core3num21_$LT$impl$u20$i64$GT$12wrapping_abs17h335543972dad19c7E"(i64 %self) #8, !dbg !720
  ret i64 %_2, !dbg !721
}

; core::num::<impl i64>::wrapping_abs
; Function Attrs: inlinehint noredzone nounwind
define internal i64 @"_ZN4core3num21_$LT$impl$u20$i64$GT$12wrapping_abs17h335543972dad19c7E"(i64 %self) unnamed_addr #0 !dbg !722 {
start:
  %rhs.dbg.spill.i = alloca i64, align 8
  %self.dbg.spill.i2 = alloca i64, align 8
  %self.dbg.spill.i1 = alloca i64, align 8
  %self.dbg.spill.i = alloca i64, align 8
  %self.dbg.spill = alloca i64, align 8
  %0 = alloca i64, align 8
  store i64 %self, ptr %self.dbg.spill, align 8
  call void @llvm.dbg.declare(metadata ptr %self.dbg.spill, metadata !726, metadata !DIExpression()), !dbg !727
  store i64 %self, ptr %self.dbg.spill.i, align 8
  call void @llvm.dbg.declare(metadata ptr %self.dbg.spill.i, metadata !728, metadata !DIExpression()), !dbg !733
  %1 = icmp slt i64 %self, 0, !dbg !735
  br i1 %1, label %bb2, label %bb3, !dbg !736

bb3:                                              ; preds = %start
  store i64 %self, ptr %0, align 8, !dbg !737
  br label %bb4, !dbg !738

bb2:                                              ; preds = %start
  store i64 %self, ptr %self.dbg.spill.i1, align 8
  call void @llvm.dbg.declare(metadata ptr %self.dbg.spill.i1, metadata !739, metadata !DIExpression()), !dbg !742
  store i64 0, ptr %self.dbg.spill.i2, align 8
  call void @llvm.dbg.declare(metadata ptr %self.dbg.spill.i2, metadata !744, metadata !DIExpression()), !dbg !748
  store i64 %self, ptr %rhs.dbg.spill.i, align 8
  call void @llvm.dbg.declare(metadata ptr %rhs.dbg.spill.i, metadata !747, metadata !DIExpression()), !dbg !750
  %2 = sub i64 0, %self, !dbg !751
  store i64 %2, ptr %0, align 8, !dbg !752
  br label %bb4, !dbg !752

bb4:                                              ; preds = %bb3, %bb2
  %3 = load i64, ptr %0, align 8, !dbg !753, !noundef !55
  ret i64 %3, !dbg !753
}

; core::num::<impl u64>::checked_div
; Function Attrs: inlinehint noredzone nounwind
define internal { i64, i64 } @"_ZN4core3num21_$LT$impl$u20$u64$GT$11checked_div17hfffa535830bb3be0E"(i64 %self, i64 %rhs) unnamed_addr #0 !dbg !754 {
start:
  %0 = alloca i64, align 8
  %1 = alloca i8, align 1
  %rhs.dbg.spill = alloca i64, align 8
  %self.dbg.spill = alloca i64, align 8
  %2 = alloca { i64, i64 }, align 8
  store i64 %self, ptr %self.dbg.spill, align 8
  call void @llvm.dbg.declare(metadata ptr %self.dbg.spill, metadata !774, metadata !DIExpression()), !dbg !776
  store i64 %rhs, ptr %rhs.dbg.spill, align 8
  call void @llvm.dbg.declare(metadata ptr %rhs.dbg.spill, metadata !775, metadata !DIExpression()), !dbg !777
  %_4 = icmp eq i64 %rhs, 0, !dbg !778
  %3 = call i1 @llvm.expect.i1(i1 %_4, i1 false), !dbg !779
  %4 = zext i1 %3 to i8, !dbg !779
  store i8 %4, ptr %1, align 1, !dbg !779
  %5 = load i8, ptr %1, align 1, !dbg !779, !range !780, !noundef !55
  %_3 = trunc i8 %5 to i1, !dbg !779
  br i1 %_3, label %bb2, label %bb3, !dbg !779

bb3:                                              ; preds = %start
  %6 = udiv i64 %self, %rhs, !dbg !781
  store i64 %6, ptr %0, align 8, !dbg !781
  %_5 = load i64, ptr %0, align 8, !dbg !781, !noundef !55
  %7 = getelementptr inbounds { i64, i64 }, ptr %2, i32 0, i32 1, !dbg !782
  store i64 %_5, ptr %7, align 8, !dbg !782
  store i64 1, ptr %2, align 8, !dbg !782
  br label %bb5, !dbg !783

bb2:                                              ; preds = %start
  store i64 0, ptr %2, align 8, !dbg !784
  br label %bb5, !dbg !783

bb5:                                              ; preds = %bb3, %bb2
  %8 = getelementptr inbounds { i64, i64 }, ptr %2, i32 0, i32 0, !dbg !785
  %9 = load i64, ptr %8, align 8, !dbg !785, !range !786, !noundef !55
  %10 = getelementptr inbounds { i64, i64 }, ptr %2, i32 0, i32 1, !dbg !785
  %11 = load i64, ptr %10, align 8, !dbg !785
  %12 = insertvalue { i64, i64 } undef, i64 %9, 0, !dbg !785
  %13 = insertvalue { i64, i64 } %12, i64 %11, 1, !dbg !785
  ret { i64, i64 } %13, !dbg !785
}

; core::num::<impl u64>::checked_rem
; Function Attrs: inlinehint noredzone nounwind
define internal { i64, i64 } @"_ZN4core3num21_$LT$impl$u20$u64$GT$11checked_rem17h321300d75dd332cbE"(i64 %self, i64 %rhs) unnamed_addr #0 !dbg !787 {
start:
  %0 = alloca i64, align 8
  %1 = alloca i8, align 1
  %rhs.dbg.spill = alloca i64, align 8
  %self.dbg.spill = alloca i64, align 8
  %2 = alloca { i64, i64 }, align 8
  store i64 %self, ptr %self.dbg.spill, align 8
  call void @llvm.dbg.declare(metadata ptr %self.dbg.spill, metadata !789, metadata !DIExpression()), !dbg !791
  store i64 %rhs, ptr %rhs.dbg.spill, align 8
  call void @llvm.dbg.declare(metadata ptr %rhs.dbg.spill, metadata !790, metadata !DIExpression()), !dbg !792
  %_4 = icmp eq i64 %rhs, 0, !dbg !793
  %3 = call i1 @llvm.expect.i1(i1 %_4, i1 false), !dbg !794
  %4 = zext i1 %3 to i8, !dbg !794
  store i8 %4, ptr %1, align 1, !dbg !794
  %5 = load i8, ptr %1, align 1, !dbg !794, !range !780, !noundef !55
  %_3 = trunc i8 %5 to i1, !dbg !794
  br i1 %_3, label %bb2, label %bb3, !dbg !794

bb3:                                              ; preds = %start
  %6 = urem i64 %self, %rhs, !dbg !795
  store i64 %6, ptr %0, align 8, !dbg !795
  %_5 = load i64, ptr %0, align 8, !dbg !795, !noundef !55
  %7 = getelementptr inbounds { i64, i64 }, ptr %2, i32 0, i32 1, !dbg !796
  store i64 %_5, ptr %7, align 8, !dbg !796
  store i64 1, ptr %2, align 8, !dbg !796
  br label %bb5, !dbg !797

bb2:                                              ; preds = %start
  store i64 0, ptr %2, align 8, !dbg !798
  br label %bb5, !dbg !797

bb5:                                              ; preds = %bb3, %bb2
  %8 = getelementptr inbounds { i64, i64 }, ptr %2, i32 0, i32 0, !dbg !799
  %9 = load i64, ptr %8, align 8, !dbg !799, !range !786, !noundef !55
  %10 = getelementptr inbounds { i64, i64 }, ptr %2, i32 0, i32 1, !dbg !799
  %11 = load i64, ptr %10, align 8, !dbg !799
  %12 = insertvalue { i64, i64 } undef, i64 %9, 0, !dbg !799
  %13 = insertvalue { i64, i64 } %12, i64 %11, 1, !dbg !799
  ret { i64, i64 } %13, !dbg !799
}

; core::num::<impl i128>::unsigned_abs
; Function Attrs: inlinehint noredzone nounwind
define internal i128 @"_ZN4core3num22_$LT$impl$u20$i128$GT$12unsigned_abs17he8ab4a9ac0230a00E"(i128 %self) unnamed_addr #0 !dbg !800 {
start:
  %self.dbg.spill = alloca i128, align 8
  store i128 %self, ptr %self.dbg.spill, align 8
  call void @llvm.dbg.declare(metadata ptr %self.dbg.spill, metadata !805, metadata !DIExpression()), !dbg !806
; call core::num::<impl i128>::wrapping_abs
  %_2 = call i128 @"_ZN4core3num22_$LT$impl$u20$i128$GT$12wrapping_abs17h898c09b1a0e760deE"(i128 %self) #8, !dbg !807
  ret i128 %_2, !dbg !808
}

; core::num::<impl i128>::wrapping_abs
; Function Attrs: inlinehint noredzone nounwind
define internal i128 @"_ZN4core3num22_$LT$impl$u20$i128$GT$12wrapping_abs17h898c09b1a0e760deE"(i128 %self) unnamed_addr #0 !dbg !809 {
start:
  %rhs.dbg.spill.i = alloca i128, align 8
  %self.dbg.spill.i2 = alloca i128, align 8
  %self.dbg.spill.i1 = alloca i128, align 8
  %self.dbg.spill.i = alloca i128, align 8
  %self.dbg.spill = alloca i128, align 8
  %0 = alloca i128, align 8
  store i128 %self, ptr %self.dbg.spill, align 8
  call void @llvm.dbg.declare(metadata ptr %self.dbg.spill, metadata !813, metadata !DIExpression()), !dbg !814
  store i128 %self, ptr %self.dbg.spill.i, align 8
  call void @llvm.dbg.declare(metadata ptr %self.dbg.spill.i, metadata !815, metadata !DIExpression()), !dbg !820
  %1 = icmp slt i128 %self, 0, !dbg !822
  br i1 %1, label %bb2, label %bb3, !dbg !823

bb3:                                              ; preds = %start
  store i128 %self, ptr %0, align 8, !dbg !824
  br label %bb4, !dbg !825

bb2:                                              ; preds = %start
  store i128 %self, ptr %self.dbg.spill.i1, align 8
  call void @llvm.dbg.declare(metadata ptr %self.dbg.spill.i1, metadata !826, metadata !DIExpression()), !dbg !829
  store i128 0, ptr %self.dbg.spill.i2, align 8
  call void @llvm.dbg.declare(metadata ptr %self.dbg.spill.i2, metadata !831, metadata !DIExpression()), !dbg !837
  store i128 %self, ptr %rhs.dbg.spill.i, align 8
  call void @llvm.dbg.declare(metadata ptr %rhs.dbg.spill.i, metadata !836, metadata !DIExpression()), !dbg !839
  %2 = sub i128 0, %self, !dbg !840
  store i128 %2, ptr %0, align 8, !dbg !841
  br label %bb4, !dbg !841

bb4:                                              ; preds = %bb3, %bb2
  %3 = load i128, ptr %0, align 8, !dbg !842, !noundef !55
  ret i128 %3, !dbg !842
}

; core::num::<impl isize>::wrapping_abs
; Function Attrs: inlinehint noredzone nounwind
define internal i64 @"_ZN4core3num23_$LT$impl$u20$isize$GT$12wrapping_abs17h0e20daa4719ffdccE"(i64 %self) unnamed_addr #0 !dbg !843 {
start:
  %rhs.dbg.spill.i = alloca i64, align 8
  %self.dbg.spill.i2 = alloca i64, align 8
  %self.dbg.spill.i1 = alloca i64, align 8
  %self.dbg.spill.i = alloca i64, align 8
  %self.dbg.spill = alloca i64, align 8
  %0 = alloca i64, align 8
  store i64 %self, ptr %self.dbg.spill, align 8
  call void @llvm.dbg.declare(metadata ptr %self.dbg.spill, metadata !849, metadata !DIExpression()), !dbg !850
  store i64 %self, ptr %self.dbg.spill.i, align 8
  call void @llvm.dbg.declare(metadata ptr %self.dbg.spill.i, metadata !851, metadata !DIExpression()), !dbg !856
  %1 = icmp slt i64 %self, 0, !dbg !858
  br i1 %1, label %bb2, label %bb3, !dbg !859

bb3:                                              ; preds = %start
  store i64 %self, ptr %0, align 8, !dbg !860
  br label %bb4, !dbg !861

bb2:                                              ; preds = %start
  store i64 %self, ptr %self.dbg.spill.i1, align 8
  call void @llvm.dbg.declare(metadata ptr %self.dbg.spill.i1, metadata !862, metadata !DIExpression()), !dbg !865
  store i64 0, ptr %self.dbg.spill.i2, align 8
  call void @llvm.dbg.declare(metadata ptr %self.dbg.spill.i2, metadata !867, metadata !DIExpression()), !dbg !873
  store i64 %self, ptr %rhs.dbg.spill.i, align 8
  call void @llvm.dbg.declare(metadata ptr %rhs.dbg.spill.i, metadata !872, metadata !DIExpression()), !dbg !875
  %2 = sub i64 0, %self, !dbg !876
  store i64 %2, ptr %0, align 8, !dbg !877
  br label %bb4, !dbg !877

bb4:                                              ; preds = %bb3, %bb2
  %3 = load i64, ptr %0, align 8, !dbg !878, !noundef !55
  ret i64 %3, !dbg !878
}

; core::ops::function::FnOnce::call_once
; Function Attrs: inlinehint noredzone nounwind
define internal i32 @_ZN4core3ops8function6FnOnce9call_once17h441daf0147c154e8E(ptr align 8 %0, ptr %1, ptr %2, i64 %3) unnamed_addr #0 !dbg !879 {
start:
  %_2 = alloca { ptr, ptr, i64 }, align 8
  %_1 = alloca ptr, align 8
  store ptr %0, ptr %_1, align 8
  store ptr %1, ptr %_2, align 8
  %4 = getelementptr inbounds { ptr, ptr, i64 }, ptr %_2, i32 0, i32 1
  store ptr %2, ptr %4, align 8
  %5 = getelementptr inbounds { ptr, ptr, i64 }, ptr %_2, i32 0, i32 2
  store i64 %3, ptr %5, align 8
  call void @llvm.dbg.declare(metadata ptr %_1, metadata !900, metadata !DIExpression()), !dbg !910
  call void @llvm.dbg.declare(metadata ptr %_2, metadata !901, metadata !DIExpression()), !dbg !910
  %6 = load ptr, ptr %_2, align 8, !dbg !910, !noundef !55
  %7 = getelementptr inbounds { ptr, ptr, i64 }, ptr %_2, i32 0, i32 1, !dbg !910
  %8 = load ptr, ptr %7, align 8, !dbg !910, !noundef !55
  %9 = getelementptr inbounds { ptr, ptr, i64 }, ptr %_2, i32 0, i32 2, !dbg !910
  %10 = load i64, ptr %9, align 8, !dbg !910, !noundef !55
; call compiler_builtins::mem::impls::compare_bytes::{{closure}}
  %11 = call i32 @"_ZN17compiler_builtins3mem5impls13compare_bytes28_$u7b$$u7b$closure$u7d$$u7d$17hafcccaae37d7757cE"(ptr align 8 %_1, ptr %6, ptr %8, i64 %10) #8, !dbg !910
  ret i32 %11, !dbg !910
}

; core::ops::function::FnOnce::call_once
; Function Attrs: inlinehint noredzone nounwind
define internal i32 @_ZN4core3ops8function6FnOnce9call_once17h84c97f1f6d628a24E(ptr align 1 %0, ptr %1, ptr %2, i64 %3) unnamed_addr #0 !dbg !911 {
start:
  %_2 = alloca { ptr, ptr, i64 }, align 8
  %_1 = alloca ptr, align 8
  store ptr %0, ptr %_1, align 8
  store ptr %1, ptr %_2, align 8
  %4 = getelementptr inbounds { ptr, ptr, i64 }, ptr %_2, i32 0, i32 1
  store ptr %2, ptr %4, align 8
  %5 = getelementptr inbounds { ptr, ptr, i64 }, ptr %_2, i32 0, i32 2
  store i64 %3, ptr %5, align 8
  call void @llvm.dbg.declare(metadata ptr %_1, metadata !916, metadata !DIExpression()), !dbg !926
  call void @llvm.dbg.declare(metadata ptr %_2, metadata !917, metadata !DIExpression()), !dbg !926
  %6 = load ptr, ptr %_2, align 8, !dbg !926, !noundef !55
  %7 = getelementptr inbounds { ptr, ptr, i64 }, ptr %_2, i32 0, i32 1, !dbg !926
  %8 = load ptr, ptr %7, align 8, !dbg !926, !noundef !55
  %9 = getelementptr inbounds { ptr, ptr, i64 }, ptr %_2, i32 0, i32 2, !dbg !926
  %10 = load i64, ptr %9, align 8, !dbg !926, !noundef !55
; call compiler_builtins::mem::impls::compare_bytes::{{closure}}
  %11 = call i32 @"_ZN17compiler_builtins3mem5impls13compare_bytes28_$u7b$$u7b$closure$u7d$$u7d$17h31ff90cda7056457E"(ptr align 8 %_1, ptr %6, ptr %8, i64 %10) #8, !dbg !926
  ret i32 %11, !dbg !926
}

; core::ops::function::FnOnce::call_once
; Function Attrs: inlinehint noredzone nounwind
define internal i32 @_ZN4core3ops8function6FnOnce9call_once17hd8811538590f4b93E(ptr %0, ptr %1, i64 %2) unnamed_addr #0 !dbg !927 {
start:
  %_2 = alloca { ptr, ptr, i64 }, align 8
  %_1 = alloca %"[closure@/Users/yaw/.cargo/registry/src/github.com-1ecc6299db9ec823/compiler_builtins-0.1.87/src/mem/x86_64.rs:159:14: 159:53]", align 1
  store ptr %0, ptr %_2, align 8
  %3 = getelementptr inbounds { ptr, ptr, i64 }, ptr %_2, i32 0, i32 1
  store ptr %1, ptr %3, align 8
  %4 = getelementptr inbounds { ptr, ptr, i64 }, ptr %_2, i32 0, i32 2
  store i64 %2, ptr %4, align 8
  call void @llvm.dbg.declare(metadata ptr %_1, metadata !932, metadata !DIExpression()), !dbg !942
  call void @llvm.dbg.declare(metadata ptr %_2, metadata !933, metadata !DIExpression()), !dbg !942
  %5 = load ptr, ptr %_2, align 8, !dbg !942, !noundef !55
  %6 = getelementptr inbounds { ptr, ptr, i64 }, ptr %_2, i32 0, i32 1, !dbg !942
  %7 = load ptr, ptr %6, align 8, !dbg !942, !noundef !55
  %8 = getelementptr inbounds { ptr, ptr, i64 }, ptr %_2, i32 0, i32 2, !dbg !942
  %9 = load i64, ptr %8, align 8, !dbg !942, !noundef !55
; call compiler_builtins::mem::impls::compare_bytes::{{closure}}
  %10 = call i32 @"_ZN17compiler_builtins3mem5impls13compare_bytes28_$u7b$$u7b$closure$u7d$$u7d$17h0761a0e71e951e83E"(ptr align 1 %_1, ptr %5, ptr %7, i64 %9) #8, !dbg !942
  ret i32 %10, !dbg !942
}

; core::ops::function::FnOnce::call_once
; Function Attrs: inlinehint noredzone nounwind
define internal i32 @_ZN4core3ops8function6FnOnce9call_once17hf96d0c7434f9fbf1E(ptr align 8 %0, ptr %1, ptr %2, i64 %3) unnamed_addr #0 !dbg !943 {
start:
  %_2 = alloca { ptr, ptr, i64 }, align 8
  %_1 = alloca ptr, align 8
  store ptr %0, ptr %_1, align 8
  store ptr %1, ptr %_2, align 8
  %4 = getelementptr inbounds { ptr, ptr, i64 }, ptr %_2, i32 0, i32 1
  store ptr %2, ptr %4, align 8
  %5 = getelementptr inbounds { ptr, ptr, i64 }, ptr %_2, i32 0, i32 2
  store i64 %3, ptr %5, align 8
  call void @llvm.dbg.declare(metadata ptr %_1, metadata !952, metadata !DIExpression()), !dbg !962
  call void @llvm.dbg.declare(metadata ptr %_2, metadata !953, metadata !DIExpression()), !dbg !962
  %6 = load ptr, ptr %_2, align 8, !dbg !962, !noundef !55
  %7 = getelementptr inbounds { ptr, ptr, i64 }, ptr %_2, i32 0, i32 1, !dbg !962
  %8 = load ptr, ptr %7, align 8, !dbg !962, !noundef !55
  %9 = getelementptr inbounds { ptr, ptr, i64 }, ptr %_2, i32 0, i32 2, !dbg !962
  %10 = load i64, ptr %9, align 8, !dbg !962, !noundef !55
; call compiler_builtins::mem::impls::compare_bytes::{{closure}}
  %11 = call i32 @"_ZN17compiler_builtins3mem5impls13compare_bytes28_$u7b$$u7b$closure$u7d$$u7d$17he44cac806de20618E"(ptr align 8 %_1, ptr %6, ptr %8, i64 %10) #8, !dbg !962
  ret i32 %11, !dbg !962
}

; core::ptr::read_unaligned
; Function Attrs: inlinehint noredzone nounwind
define hidden i16 @_ZN4core3ptr14read_unaligned17h57dd0495b8494f21E(ptr %src) unnamed_addr #0 !dbg !963 {
start:
  %slot.dbg.spill.i = alloca i16, align 2
  %0 = alloca i16, align 2
  %self.dbg.spill.i1 = alloca i16, align 2
  %self.dbg.spill.i = alloca ptr, align 8
  %src.dbg.spill = alloca ptr, align 8
  %tmp = alloca i16, align 2
  store ptr %src, ptr %src.dbg.spill, align 8
  call void @llvm.dbg.declare(metadata ptr %src.dbg.spill, metadata !969, metadata !DIExpression()), !dbg !985
  call void @llvm.dbg.declare(metadata ptr %tmp, metadata !970, metadata !DIExpression()), !dbg !986
  %1 = load i16, ptr %0, align 2, !dbg !987
  store i16 %1, ptr %tmp, align 2, !dbg !993
  store ptr %tmp, ptr %self.dbg.spill.i, align 8
  call void @llvm.dbg.declare(metadata ptr %self.dbg.spill.i, metadata !994, metadata !DIExpression()), !dbg !1001
; call core::intrinsics::copy_nonoverlapping
  call void @_ZN4core10intrinsics19copy_nonoverlapping17h98897c4e3155460eE(ptr %src, ptr %tmp, i64 2) #8, !dbg !1003
  %_9 = load i16, ptr %tmp, align 2, !dbg !1004
  store i16 %_9, ptr %self.dbg.spill.i1, align 2
  call void @llvm.dbg.declare(metadata ptr %self.dbg.spill.i1, metadata !1005, metadata !DIExpression()), !dbg !1023
  store i16 %_9, ptr %slot.dbg.spill.i, align 2
  call void @llvm.dbg.declare(metadata ptr %slot.dbg.spill.i, metadata !1025, metadata !DIExpression()), !dbg !1031
  ret i16 %_9, !dbg !1033
}

; core::ptr::read_unaligned
; Function Attrs: inlinehint noredzone nounwind
define hidden i128 @_ZN4core3ptr14read_unaligned17h6483c45afc21e2f1E(ptr %src) unnamed_addr #0 !dbg !1034 {
start:
  %slot.dbg.spill.i = alloca i128, align 8
  %0 = alloca i128, align 8
  %self.dbg.spill.i1 = alloca i128, align 8
  %self.dbg.spill.i = alloca ptr, align 8
  %src.dbg.spill = alloca ptr, align 8
  %tmp = alloca i128, align 8
  store ptr %src, ptr %src.dbg.spill, align 8
  call void @llvm.dbg.declare(metadata ptr %src.dbg.spill, metadata !1039, metadata !DIExpression()), !dbg !1051
  call void @llvm.dbg.declare(metadata ptr %tmp, metadata !1040, metadata !DIExpression()), !dbg !1052
  %1 = load i128, ptr %0, align 8, !dbg !1053
  store i128 %1, ptr %tmp, align 8, !dbg !1058
  store ptr %tmp, ptr %self.dbg.spill.i, align 8
  call void @llvm.dbg.declare(metadata ptr %self.dbg.spill.i, metadata !1059, metadata !DIExpression()), !dbg !1066
; call core::intrinsics::copy_nonoverlapping
  call void @_ZN4core10intrinsics19copy_nonoverlapping17h98897c4e3155460eE(ptr %src, ptr %tmp, i64 16) #8, !dbg !1068
  %_9 = load i128, ptr %tmp, align 8, !dbg !1069
  store i128 %_9, ptr %self.dbg.spill.i1, align 8
  call void @llvm.dbg.declare(metadata ptr %self.dbg.spill.i1, metadata !1070, metadata !DIExpression()), !dbg !1075
  store i128 %_9, ptr %slot.dbg.spill.i, align 8
  call void @llvm.dbg.declare(metadata ptr %slot.dbg.spill.i, metadata !1077, metadata !DIExpression()), !dbg !1082
  ret i128 %_9, !dbg !1084
}

; core::ptr::read_unaligned
; Function Attrs: inlinehint noredzone nounwind
define hidden i32 @_ZN4core3ptr14read_unaligned17haff8596ebf36c4b7E(ptr %src) unnamed_addr #0 !dbg !1085 {
start:
  %slot.dbg.spill.i = alloca i32, align 4
  %0 = alloca i32, align 4
  %self.dbg.spill.i1 = alloca i32, align 4
  %self.dbg.spill.i = alloca ptr, align 8
  %src.dbg.spill = alloca ptr, align 8
  %tmp = alloca i32, align 4
  store ptr %src, ptr %src.dbg.spill, align 8
  call void @llvm.dbg.declare(metadata ptr %src.dbg.spill, metadata !1089, metadata !DIExpression()), !dbg !1101
  call void @llvm.dbg.declare(metadata ptr %tmp, metadata !1090, metadata !DIExpression()), !dbg !1102
  %1 = load i32, ptr %0, align 4, !dbg !1103
  store i32 %1, ptr %tmp, align 4, !dbg !1108
  store ptr %tmp, ptr %self.dbg.spill.i, align 8
  call void @llvm.dbg.declare(metadata ptr %self.dbg.spill.i, metadata !1109, metadata !DIExpression()), !dbg !1116
; call core::intrinsics::copy_nonoverlapping
  call void @_ZN4core10intrinsics19copy_nonoverlapping17h98897c4e3155460eE(ptr %src, ptr %tmp, i64 4) #8, !dbg !1118
  %_9 = load i32, ptr %tmp, align 4, !dbg !1119
  store i32 %_9, ptr %self.dbg.spill.i1, align 4
  call void @llvm.dbg.declare(metadata ptr %self.dbg.spill.i1, metadata !1120, metadata !DIExpression()), !dbg !1125
  store i32 %_9, ptr %slot.dbg.spill.i, align 4
  call void @llvm.dbg.declare(metadata ptr %slot.dbg.spill.i, metadata !1127, metadata !DIExpression()), !dbg !1132
  ret i32 %_9, !dbg !1134
}

; core::ptr::const_ptr::<impl *const T>::read_unaligned
; Function Attrs: inlinehint noredzone nounwind
define hidden i32 @"_ZN4core3ptr9const_ptr33_$LT$impl$u20$$BP$const$u20$T$GT$14read_unaligned17h107a48910ecd03ebE"(ptr %self) unnamed_addr #0 !dbg !1135 {
start:
  %self.dbg.spill = alloca ptr, align 8
  store ptr %self, ptr %self.dbg.spill, align 8
  call void @llvm.dbg.declare(metadata ptr %self.dbg.spill, metadata !1140, metadata !DIExpression()), !dbg !1141
; call core::ptr::read_unaligned
  %0 = call i32 @_ZN4core3ptr14read_unaligned17haff8596ebf36c4b7E(ptr %self) #8, !dbg !1142
  ret i32 %0, !dbg !1143
}

; core::ptr::const_ptr::<impl *const T>::read_unaligned
; Function Attrs: inlinehint noredzone nounwind
define hidden i64 @"_ZN4core3ptr9const_ptr33_$LT$impl$u20$$BP$const$u20$T$GT$14read_unaligned17h24cb2e586c4a4e50E"(ptr %self) unnamed_addr #0 !dbg !1144 {
start:
  %self.dbg.spill = alloca ptr, align 8
  store ptr %self, ptr %self.dbg.spill, align 8
  call void @llvm.dbg.declare(metadata ptr %self.dbg.spill, metadata !1148, metadata !DIExpression()), !dbg !1149
; call core::ptr::read_unaligned
  %0 = call i64 @_ZN4core3ptr14read_unaligned17h50fad27e39fbf51eE(ptr %self) #8, !dbg !1150
  ret i64 %0, !dbg !1151
}

; core::ptr::const_ptr::<impl *const T>::read_unaligned
; Function Attrs: inlinehint noredzone nounwind
define hidden i16 @"_ZN4core3ptr9const_ptr33_$LT$impl$u20$$BP$const$u20$T$GT$14read_unaligned17h4754873b4a347e95E"(ptr %self) unnamed_addr #0 !dbg !1152 {
start:
  %self.dbg.spill = alloca ptr, align 8
  store ptr %self, ptr %self.dbg.spill, align 8
  call void @llvm.dbg.declare(metadata ptr %self.dbg.spill, metadata !1154, metadata !DIExpression()), !dbg !1155
; call core::ptr::read_unaligned
  %0 = call i16 @_ZN4core3ptr14read_unaligned17h57dd0495b8494f21E(ptr %self) #8, !dbg !1156
  ret i16 %0, !dbg !1157
}

; core::ptr::const_ptr::<impl *const T>::read_unaligned
; Function Attrs: inlinehint noredzone nounwind
define hidden i128 @"_ZN4core3ptr9const_ptr33_$LT$impl$u20$$BP$const$u20$T$GT$14read_unaligned17h82d453eca416b79bE"(ptr %self) unnamed_addr #0 !dbg !1158 {
start:
  %self.dbg.spill = alloca ptr, align 8
  store ptr %self, ptr %self.dbg.spill, align 8
  call void @llvm.dbg.declare(metadata ptr %self.dbg.spill, metadata !1160, metadata !DIExpression()), !dbg !1161
; call core::ptr::read_unaligned
  %0 = call i128 @_ZN4core3ptr14read_unaligned17h6483c45afc21e2f1E(ptr %self) #8, !dbg !1162
  ret i128 %0, !dbg !1163
}

; core::ptr::const_ptr::<impl *const T>::read
; Function Attrs: inlinehint noredzone nounwind
define hidden i8 @"_ZN4core3ptr9const_ptr33_$LT$impl$u20$$BP$const$u20$T$GT$4read17h55c36d90bb9fa148E"(ptr %self) unnamed_addr #0 !dbg !1164 {
start:
  %self.dbg.spill = alloca ptr, align 8
  store ptr %self, ptr %self.dbg.spill, align 8
  call void @llvm.dbg.declare(metadata ptr %self.dbg.spill, metadata !1168, metadata !DIExpression()), !dbg !1171
; call core::ptr::read
  %0 = call i8 @_ZN4core3ptr4read17hf730080a903fcb88E(ptr %self) #8, !dbg !1172
  ret i8 %0, !dbg !1173
}

; core::hint::unreachable_unchecked
; Function Attrs: inlinehint noredzone noreturn nounwind
define internal void @_ZN4core4hint21unreachable_unchecked17hced7f1c0533b4c08E() unnamed_addr #1 !dbg !1174 {
start:
; call core::panicking::panic_nounwind
  call void @_ZN4core9panicking14panic_nounwind17h81923f513de58d5eE(ptr align 1 @alloc2971, i64 82) #7, !dbg !1179
  unreachable, !dbg !1179

_ZN4core4hint21unreachable_unchecked7runtime17h23c2b209fb38fbb2E.exit: ; No predecessors!
  unreachable, !dbg !1184
}

; core::option::Option<T>::unwrap_unchecked
; Function Attrs: inlinehint noredzone nounwind
define hidden i8 @"_ZN4core6option15Option$LT$T$GT$16unwrap_unchecked17h05ca58cf87853199E"(i1 zeroext %0, i8 %1, ptr align 8 %2) unnamed_addr #0 !dbg !1185 {
start:
  %val.dbg.spill = alloca i8, align 1
  %self = alloca { i8, i8 }, align 1
  %3 = getelementptr inbounds { i8, i8 }, ptr %self, i32 0, i32 0
  %4 = zext i1 %0 to i8
  store i8 %4, ptr %3, align 1
  %5 = getelementptr inbounds { i8, i8 }, ptr %self, i32 0, i32 1
  store i8 %1, ptr %5, align 1
  call void @llvm.dbg.declare(metadata ptr %self, metadata !1203, metadata !DIExpression()), !dbg !1206
; call core::option::Option<T>::is_some
  %_3 = call zeroext i1 @"_ZN4core6option15Option$LT$T$GT$7is_some17h80eb3725d3a34511E"(ptr align 1 %self) #8, !dbg !1207
  %_2 = xor i1 %_3, true, !dbg !1208
  br i1 %_2, label %bb2, label %bb3, !dbg !1208

bb3:                                              ; preds = %start
  %6 = load i8, ptr %self, align 1, !dbg !1209, !range !780, !noundef !55
  %7 = trunc i8 %6 to i1, !dbg !1209
  %_6 = zext i1 %7 to i64, !dbg !1209
  %8 = icmp eq i64 %_6, 0, !dbg !1210
  br i1 %8, label %bb4, label %bb6, !dbg !1210

bb2:                                              ; preds = %start
; call core::panicking::panic
  call void @_ZN4core9panicking5panic17h758e89f926a8adfcE(ptr align 1 @alloc2982, i64 32, ptr align 8 %2) #7, !dbg !1208
  unreachable, !dbg !1208

bb4:                                              ; preds = %bb3
; call core::hint::unreachable_unchecked
  call void @_ZN4core4hint21unreachable_unchecked17hced7f1c0533b4c08E() #7, !dbg !1211
  unreachable, !dbg !1211

bb6:                                              ; preds = %bb3
  %9 = getelementptr inbounds { i8, i8 }, ptr %self, i32 0, i32 1, !dbg !1212
  %val = load i8, ptr %9, align 1, !dbg !1212, !noundef !55
  store i8 %val, ptr %val.dbg.spill, align 1, !dbg !1212
  call void @llvm.dbg.declare(metadata ptr %val.dbg.spill, metadata !1204, metadata !DIExpression()), !dbg !1213
  ret i8 %val, !dbg !1214

bb5:                                              ; No predecessors!
  unreachable, !dbg !1209
}

; core::option::Option<T>::unwrap_unchecked
; Function Attrs: inlinehint noredzone nounwind
define hidden i64 @"_ZN4core6option15Option$LT$T$GT$16unwrap_unchecked17h07e24a67814ee6e6E"(i64 %0, i64 %1, ptr align 8 %2) unnamed_addr #0 !dbg !1215 {
start:
  %val.dbg.spill = alloca i64, align 8
  %self = alloca { i64, i64 }, align 8
  %3 = getelementptr inbounds { i64, i64 }, ptr %self, i32 0, i32 0
  store i64 %0, ptr %3, align 8
  %4 = getelementptr inbounds { i64, i64 }, ptr %self, i32 0, i32 1
  store i64 %1, ptr %4, align 8
  call void @llvm.dbg.declare(metadata ptr %self, metadata !1219, metadata !DIExpression()), !dbg !1222
; call core::option::Option<T>::is_some
  %_3 = call zeroext i1 @"_ZN4core6option15Option$LT$T$GT$7is_some17h74b89cb736158f80E"(ptr align 8 %self) #8, !dbg !1223
  %_2 = xor i1 %_3, true, !dbg !1224
  br i1 %_2, label %bb2, label %bb3, !dbg !1224

bb3:                                              ; preds = %start
  %_6 = load i64, ptr %self, align 8, !dbg !1225, !range !786, !noundef !55
  %5 = icmp eq i64 %_6, 0, !dbg !1226
  br i1 %5, label %bb4, label %bb6, !dbg !1226

bb2:                                              ; preds = %start
; call core::panicking::panic
  call void @_ZN4core9panicking5panic17h758e89f926a8adfcE(ptr align 1 @alloc2982, i64 32, ptr align 8 %2) #7, !dbg !1224
  unreachable, !dbg !1224

bb4:                                              ; preds = %bb3
; call core::hint::unreachable_unchecked
  call void @_ZN4core4hint21unreachable_unchecked17hced7f1c0533b4c08E() #7, !dbg !1227
  unreachable, !dbg !1227

bb6:                                              ; preds = %bb3
  %6 = getelementptr inbounds { i64, i64 }, ptr %self, i32 0, i32 1, !dbg !1228
  %val = load i64, ptr %6, align 8, !dbg !1228, !noundef !55
  store i64 %val, ptr %val.dbg.spill, align 8, !dbg !1228
  call void @llvm.dbg.declare(metadata ptr %val.dbg.spill, metadata !1220, metadata !DIExpression()), !dbg !1229
  ret i64 %val, !dbg !1230

bb5:                                              ; No predecessors!
  unreachable, !dbg !1225
}

; core::option::Option<T>::unwrap_unchecked
; Function Attrs: inlinehint noredzone nounwind
define hidden i64 @"_ZN4core6option15Option$LT$T$GT$16unwrap_unchecked17h2c86a1e0ac27a612E"(i64 %0, i64 %1, ptr align 8 %2) unnamed_addr #0 !dbg !1231 {
start:
  %val.dbg.spill = alloca i64, align 8
  %self = alloca { i64, i64 }, align 8
  %3 = getelementptr inbounds { i64, i64 }, ptr %self, i32 0, i32 0
  store i64 %0, ptr %3, align 8
  %4 = getelementptr inbounds { i64, i64 }, ptr %self, i32 0, i32 1
  store i64 %1, ptr %4, align 8
  call void @llvm.dbg.declare(metadata ptr %self, metadata !1248, metadata !DIExpression()), !dbg !1251
; call core::option::Option<T>::is_some
  %_3 = call zeroext i1 @"_ZN4core6option15Option$LT$T$GT$7is_some17h1bb325ead92308c8E"(ptr align 8 %self) #8, !dbg !1252
  %_2 = xor i1 %_3, true, !dbg !1253
  br i1 %_2, label %bb2, label %bb3, !dbg !1253

bb3:                                              ; preds = %start
  %_6 = load i64, ptr %self, align 8, !dbg !1254, !range !786, !noundef !55
  %5 = icmp eq i64 %_6, 0, !dbg !1255
  br i1 %5, label %bb4, label %bb6, !dbg !1255

bb2:                                              ; preds = %start
; call core::panicking::panic
  call void @_ZN4core9panicking5panic17h758e89f926a8adfcE(ptr align 1 @alloc2982, i64 32, ptr align 8 %2) #7, !dbg !1253
  unreachable, !dbg !1253

bb4:                                              ; preds = %bb3
; call core::hint::unreachable_unchecked
  call void @_ZN4core4hint21unreachable_unchecked17hced7f1c0533b4c08E() #7, !dbg !1256
  unreachable, !dbg !1256

bb6:                                              ; preds = %bb3
  %6 = getelementptr inbounds { i64, i64 }, ptr %self, i32 0, i32 1, !dbg !1257
  %val = load i64, ptr %6, align 8, !dbg !1257, !noundef !55
  store i64 %val, ptr %val.dbg.spill, align 8, !dbg !1257
  call void @llvm.dbg.declare(metadata ptr %val.dbg.spill, metadata !1249, metadata !DIExpression()), !dbg !1258
  ret i64 %val, !dbg !1259

bb5:                                              ; No predecessors!
  unreachable, !dbg !1254
}

; core::option::Option<T>::unwrap_unchecked
; Function Attrs: inlinehint noredzone nounwind
define hidden i16 @"_ZN4core6option15Option$LT$T$GT$16unwrap_unchecked17h5ab8c32f8b80f48cE"(i16 %0, i16 %1, ptr align 8 %2) unnamed_addr #0 !dbg !1260 {
start:
  %val.dbg.spill = alloca i16, align 2
  %self = alloca { i16, i16 }, align 2
  %3 = getelementptr inbounds { i16, i16 }, ptr %self, i32 0, i32 0
  store i16 %0, ptr %3, align 2
  %4 = getelementptr inbounds { i16, i16 }, ptr %self, i32 0, i32 1
  store i16 %1, ptr %4, align 2
  call void @llvm.dbg.declare(metadata ptr %self, metadata !1275, metadata !DIExpression()), !dbg !1278
; call core::option::Option<T>::is_some
  %_3 = call zeroext i1 @"_ZN4core6option15Option$LT$T$GT$7is_some17h71eb90a7cd2a9168E"(ptr align 2 %self) #8, !dbg !1279
  %_2 = xor i1 %_3, true, !dbg !1280
  br i1 %_2, label %bb2, label %bb3, !dbg !1280

bb3:                                              ; preds = %start
  %5 = load i16, ptr %self, align 2, !dbg !1281, !range !1282, !noundef !55
  %_6 = zext i16 %5 to i64, !dbg !1281
  %6 = icmp eq i64 %_6, 0, !dbg !1283
  br i1 %6, label %bb4, label %bb6, !dbg !1283

bb2:                                              ; preds = %start
; call core::panicking::panic
  call void @_ZN4core9panicking5panic17h758e89f926a8adfcE(ptr align 1 @alloc2982, i64 32, ptr align 8 %2) #7, !dbg !1280
  unreachable, !dbg !1280

bb4:                                              ; preds = %bb3
; call core::hint::unreachable_unchecked
  call void @_ZN4core4hint21unreachable_unchecked17hced7f1c0533b4c08E() #7, !dbg !1284
  unreachable, !dbg !1284

bb6:                                              ; preds = %bb3
  %7 = getelementptr inbounds { i16, i16 }, ptr %self, i32 0, i32 1, !dbg !1285
  %val = load i16, ptr %7, align 2, !dbg !1285, !noundef !55
  store i16 %val, ptr %val.dbg.spill, align 2, !dbg !1285
  call void @llvm.dbg.declare(metadata ptr %val.dbg.spill, metadata !1276, metadata !DIExpression()), !dbg !1286
  ret i16 %val, !dbg !1287

bb5:                                              ; No predecessors!
  unreachable, !dbg !1281
}

; core::option::Option<T>::unwrap_unchecked
; Function Attrs: inlinehint noredzone nounwind
define hidden i32 @"_ZN4core6option15Option$LT$T$GT$16unwrap_unchecked17h7061b62832cbcb70E"(i32 %0, i32 %1, ptr align 8 %2) unnamed_addr #0 !dbg !1288 {
start:
  %val.dbg.spill = alloca i32, align 4
  %self = alloca { i32, i32 }, align 4
  %3 = getelementptr inbounds { i32, i32 }, ptr %self, i32 0, i32 0
  store i32 %0, ptr %3, align 4
  %4 = getelementptr inbounds { i32, i32 }, ptr %self, i32 0, i32 1
  store i32 %1, ptr %4, align 4
  call void @llvm.dbg.declare(metadata ptr %self, metadata !1303, metadata !DIExpression()), !dbg !1306
; call core::option::Option<T>::is_some
  %_3 = call zeroext i1 @"_ZN4core6option15Option$LT$T$GT$7is_some17h7257df25df2bd571E"(ptr align 4 %self) #8, !dbg !1307
  %_2 = xor i1 %_3, true, !dbg !1308
  br i1 %_2, label %bb2, label %bb3, !dbg !1308

bb3:                                              ; preds = %start
  %5 = load i32, ptr %self, align 4, !dbg !1309, !range !1310, !noundef !55
  %_6 = zext i32 %5 to i64, !dbg !1309
  %6 = icmp eq i64 %_6, 0, !dbg !1311
  br i1 %6, label %bb4, label %bb6, !dbg !1311

bb2:                                              ; preds = %start
; call core::panicking::panic
  call void @_ZN4core9panicking5panic17h758e89f926a8adfcE(ptr align 1 @alloc2982, i64 32, ptr align 8 %2) #7, !dbg !1308
  unreachable, !dbg !1308

bb4:                                              ; preds = %bb3
; call core::hint::unreachable_unchecked
  call void @_ZN4core4hint21unreachable_unchecked17hced7f1c0533b4c08E() #7, !dbg !1312
  unreachable, !dbg !1312

bb6:                                              ; preds = %bb3
  %7 = getelementptr inbounds { i32, i32 }, ptr %self, i32 0, i32 1, !dbg !1313
  %val = load i32, ptr %7, align 4, !dbg !1313, !noundef !55
  store i32 %val, ptr %val.dbg.spill, align 4, !dbg !1313
  call void @llvm.dbg.declare(metadata ptr %val.dbg.spill, metadata !1304, metadata !DIExpression()), !dbg !1314
  ret i32 %val, !dbg !1315

bb5:                                              ; No predecessors!
  unreachable, !dbg !1309
}

; core::option::Option<T>::unwrap_unchecked
; Function Attrs: inlinehint noredzone nounwind
define hidden i128 @"_ZN4core6option15Option$LT$T$GT$16unwrap_unchecked17h75cb3edcb59caecaE"(i64 %0, i128 %1, ptr align 8 %2) unnamed_addr #0 !dbg !1316 {
start:
  %val.dbg.spill = alloca i128, align 8
  %self = alloca { i64, i128 }, align 8
  %3 = getelementptr inbounds { i64, i128 }, ptr %self, i32 0, i32 0
  store i64 %0, ptr %3, align 8
  %4 = getelementptr inbounds { i64, i128 }, ptr %self, i32 0, i32 1
  store i128 %1, ptr %4, align 8
  call void @llvm.dbg.declare(metadata ptr %self, metadata !1331, metadata !DIExpression()), !dbg !1334
; call core::option::Option<T>::is_some
  %_3 = call zeroext i1 @"_ZN4core6option15Option$LT$T$GT$7is_some17hc994db26a0bfd513E"(ptr align 8 %self) #8, !dbg !1335
  %_2 = xor i1 %_3, true, !dbg !1336
  br i1 %_2, label %bb2, label %bb3, !dbg !1336

bb3:                                              ; preds = %start
  %_6 = load i64, ptr %self, align 8, !dbg !1337, !range !786, !noundef !55
  %5 = icmp eq i64 %_6, 0, !dbg !1338
  br i1 %5, label %bb4, label %bb6, !dbg !1338

bb2:                                              ; preds = %start
; call core::panicking::panic
  call void @_ZN4core9panicking5panic17h758e89f926a8adfcE(ptr align 1 @alloc2982, i64 32, ptr align 8 %2) #7, !dbg !1336
  unreachable, !dbg !1336

bb4:                                              ; preds = %bb3
; call core::hint::unreachable_unchecked
  call void @_ZN4core4hint21unreachable_unchecked17hced7f1c0533b4c08E() #7, !dbg !1339
  unreachable, !dbg !1339

bb6:                                              ; preds = %bb3
  %6 = getelementptr inbounds { i64, i128 }, ptr %self, i32 0, i32 1, !dbg !1340
  %val = load i128, ptr %6, align 8, !dbg !1340, !noundef !55
  store i128 %val, ptr %val.dbg.spill, align 8, !dbg !1340
  call void @llvm.dbg.declare(metadata ptr %val.dbg.spill, metadata !1332, metadata !DIExpression()), !dbg !1341
  ret i128 %val, !dbg !1342

bb5:                                              ; No predecessors!
  unreachable, !dbg !1337
}

; core::option::Option<T>::unwrap_unchecked
; Function Attrs: inlinehint noredzone nounwind
define hidden i16 @"_ZN4core6option15Option$LT$T$GT$16unwrap_unchecked17h9641ebd4b80e60e4E"(i16 %0, i16 %1, ptr align 8 %2) unnamed_addr #0 !dbg !1343 {
start:
  %val.dbg.spill = alloca i16, align 2
  %self = alloca { i16, i16 }, align 2
  %3 = getelementptr inbounds { i16, i16 }, ptr %self, i32 0, i32 0
  store i16 %0, ptr %3, align 2
  %4 = getelementptr inbounds { i16, i16 }, ptr %self, i32 0, i32 1
  store i16 %1, ptr %4, align 2
  call void @llvm.dbg.declare(metadata ptr %self, metadata !1360, metadata !DIExpression()), !dbg !1363
; call core::option::Option<T>::is_some
  %_3 = call zeroext i1 @"_ZN4core6option15Option$LT$T$GT$7is_some17h78a3e71809b03f09E"(ptr align 2 %self) #8, !dbg !1364
  %_2 = xor i1 %_3, true, !dbg !1365
  br i1 %_2, label %bb2, label %bb3, !dbg !1365

bb3:                                              ; preds = %start
  %5 = load i16, ptr %self, align 2, !dbg !1366, !range !1282, !noundef !55
  %_6 = zext i16 %5 to i64, !dbg !1366
  %6 = icmp eq i64 %_6, 0, !dbg !1367
  br i1 %6, label %bb4, label %bb6, !dbg !1367

bb2:                                              ; preds = %start
; call core::panicking::panic
  call void @_ZN4core9panicking5panic17h758e89f926a8adfcE(ptr align 1 @alloc2982, i64 32, ptr align 8 %2) #7, !dbg !1365
  unreachable, !dbg !1365

bb4:                                              ; preds = %bb3
; call core::hint::unreachable_unchecked
  call void @_ZN4core4hint21unreachable_unchecked17hced7f1c0533b4c08E() #7, !dbg !1368
  unreachable, !dbg !1368

bb6:                                              ; preds = %bb3
  %7 = getelementptr inbounds { i16, i16 }, ptr %self, i32 0, i32 1, !dbg !1369
  %val = load i16, ptr %7, align 2, !dbg !1369, !noundef !55
  store i16 %val, ptr %val.dbg.spill, align 2, !dbg !1369
  call void @llvm.dbg.declare(metadata ptr %val.dbg.spill, metadata !1361, metadata !DIExpression()), !dbg !1370
  ret i16 %val, !dbg !1371

bb5:                                              ; No predecessors!
  unreachable, !dbg !1366
}

; core::option::Option<T>::unwrap_unchecked
; Function Attrs: inlinehint noredzone nounwind
define hidden i128 @"_ZN4core6option15Option$LT$T$GT$16unwrap_unchecked17hbc1a4d5d65b937dbE"(i64 %0, i128 %1, ptr align 8 %2) unnamed_addr #0 !dbg !1372 {
start:
  %val.dbg.spill = alloca i128, align 8
  %self = alloca { i64, i128 }, align 8
  %3 = getelementptr inbounds { i64, i128 }, ptr %self, i32 0, i32 0
  store i64 %0, ptr %3, align 8
  %4 = getelementptr inbounds { i64, i128 }, ptr %self, i32 0, i32 1
  store i128 %1, ptr %4, align 8
  call void @llvm.dbg.declare(metadata ptr %self, metadata !1389, metadata !DIExpression()), !dbg !1392
; call core::option::Option<T>::is_some
  %_3 = call zeroext i1 @"_ZN4core6option15Option$LT$T$GT$7is_some17he78b43f49b51031aE"(ptr align 8 %self) #8, !dbg !1393
  %_2 = xor i1 %_3, true, !dbg !1394
  br i1 %_2, label %bb2, label %bb3, !dbg !1394

bb3:                                              ; preds = %start
  %_6 = load i64, ptr %self, align 8, !dbg !1395, !range !786, !noundef !55
  %5 = icmp eq i64 %_6, 0, !dbg !1396
  br i1 %5, label %bb4, label %bb6, !dbg !1396

bb2:                                              ; preds = %start
; call core::panicking::panic
  call void @_ZN4core9panicking5panic17h758e89f926a8adfcE(ptr align 1 @alloc2982, i64 32, ptr align 8 %2) #7, !dbg !1394
  unreachable, !dbg !1394

bb4:                                              ; preds = %bb3
; call core::hint::unreachable_unchecked
  call void @_ZN4core4hint21unreachable_unchecked17hced7f1c0533b4c08E() #7, !dbg !1397
  unreachable, !dbg !1397

bb6:                                              ; preds = %bb3
  %6 = getelementptr inbounds { i64, i128 }, ptr %self, i32 0, i32 1, !dbg !1398
  %val = load i128, ptr %6, align 8, !dbg !1398, !noundef !55
  store i128 %val, ptr %val.dbg.spill, align 8, !dbg !1398
  call void @llvm.dbg.declare(metadata ptr %val.dbg.spill, metadata !1390, metadata !DIExpression()), !dbg !1399
  ret i128 %val, !dbg !1400

bb5:                                              ; No predecessors!
  unreachable, !dbg !1395
}

; core::option::Option<T>::unwrap_unchecked
; Function Attrs: inlinehint noredzone nounwind
define hidden i64 @"_ZN4core6option15Option$LT$T$GT$16unwrap_unchecked17hd4fc02699a0d8fe4E"(i64 %0, i64 %1, ptr align 8 %2) unnamed_addr #0 !dbg !1401 {
start:
  %val.dbg.spill = alloca i64, align 8
  %self = alloca { i64, i64 }, align 8
  %3 = getelementptr inbounds { i64, i64 }, ptr %self, i32 0, i32 0
  store i64 %0, ptr %3, align 8
  %4 = getelementptr inbounds { i64, i64 }, ptr %self, i32 0, i32 1
  store i64 %1, ptr %4, align 8
  call void @llvm.dbg.declare(metadata ptr %self, metadata !1418, metadata !DIExpression()), !dbg !1421
; call core::option::Option<T>::is_some
  %_3 = call zeroext i1 @"_ZN4core6option15Option$LT$T$GT$7is_some17h5e18aab2bd0de09eE"(ptr align 8 %self) #8, !dbg !1422
  %_2 = xor i1 %_3, true, !dbg !1423
  br i1 %_2, label %bb2, label %bb3, !dbg !1423

bb3:                                              ; preds = %start
  %_6 = load i64, ptr %self, align 8, !dbg !1424, !range !786, !noundef !55
  %5 = icmp eq i64 %_6, 0, !dbg !1425
  br i1 %5, label %bb4, label %bb6, !dbg !1425

bb2:                                              ; preds = %start
; call core::panicking::panic
  call void @_ZN4core9panicking5panic17h758e89f926a8adfcE(ptr align 1 @alloc2982, i64 32, ptr align 8 %2) #7, !dbg !1423
  unreachable, !dbg !1423

bb4:                                              ; preds = %bb3
; call core::hint::unreachable_unchecked
  call void @_ZN4core4hint21unreachable_unchecked17hced7f1c0533b4c08E() #7, !dbg !1426
  unreachable, !dbg !1426

bb6:                                              ; preds = %bb3
  %6 = getelementptr inbounds { i64, i64 }, ptr %self, i32 0, i32 1, !dbg !1427
  %val = load i64, ptr %6, align 8, !dbg !1427, !noundef !55
  store i64 %val, ptr %val.dbg.spill, align 8, !dbg !1427
  call void @llvm.dbg.declare(metadata ptr %val.dbg.spill, metadata !1419, metadata !DIExpression()), !dbg !1428
  ret i64 %val, !dbg !1429

bb5:                                              ; No predecessors!
  unreachable, !dbg !1424
}

; core::option::Option<T>::unwrap_unchecked
; Function Attrs: inlinehint noredzone nounwind
define hidden i32 @"_ZN4core6option15Option$LT$T$GT$16unwrap_unchecked17hdac53ebd5465e4c7E"(i32 %0, i32 %1, ptr align 8 %2) unnamed_addr #0 !dbg !1430 {
start:
  %val.dbg.spill = alloca i32, align 4
  %self = alloca { i32, i32 }, align 4
  %3 = getelementptr inbounds { i32, i32 }, ptr %self, i32 0, i32 0
  store i32 %0, ptr %3, align 4
  %4 = getelementptr inbounds { i32, i32 }, ptr %self, i32 0, i32 1
  store i32 %1, ptr %4, align 4
  call void @llvm.dbg.declare(metadata ptr %self, metadata !1447, metadata !DIExpression()), !dbg !1450
; call core::option::Option<T>::is_some
  %_3 = call zeroext i1 @"_ZN4core6option15Option$LT$T$GT$7is_some17hb2adf49dd0f0a23aE"(ptr align 4 %self) #8, !dbg !1451
  %_2 = xor i1 %_3, true, !dbg !1452
  br i1 %_2, label %bb2, label %bb3, !dbg !1452

bb3:                                              ; preds = %start
  %5 = load i32, ptr %self, align 4, !dbg !1453, !range !1310, !noundef !55
  %_6 = zext i32 %5 to i64, !dbg !1453
  %6 = icmp eq i64 %_6, 0, !dbg !1454
  br i1 %6, label %bb4, label %bb6, !dbg !1454

bb2:                                              ; preds = %start
; call core::panicking::panic
  call void @_ZN4core9panicking5panic17h758e89f926a8adfcE(ptr align 1 @alloc2982, i64 32, ptr align 8 %2) #7, !dbg !1452
  unreachable, !dbg !1452

bb4:                                              ; preds = %bb3
; call core::hint::unreachable_unchecked
  call void @_ZN4core4hint21unreachable_unchecked17hced7f1c0533b4c08E() #7, !dbg !1455
  unreachable, !dbg !1455

bb6:                                              ; preds = %bb3
  %7 = getelementptr inbounds { i32, i32 }, ptr %self, i32 0, i32 1, !dbg !1456
  %val = load i32, ptr %7, align 4, !dbg !1456, !noundef !55
  store i32 %val, ptr %val.dbg.spill, align 4, !dbg !1456
  call void @llvm.dbg.declare(metadata ptr %val.dbg.spill, metadata !1448, metadata !DIExpression()), !dbg !1457
  ret i32 %val, !dbg !1458

bb5:                                              ; No predecessors!
  unreachable, !dbg !1453
}

; core::option::Option<T>::unwrap_unchecked
; Function Attrs: inlinehint noredzone nounwind
define hidden i8 @"_ZN4core6option15Option$LT$T$GT$16unwrap_unchecked17heb5fce4d634ce1a9E"(i1 zeroext %0, i8 %1, ptr align 8 %2) unnamed_addr #0 !dbg !1459 {
start:
  %val.dbg.spill = alloca i8, align 1
  %self = alloca { i8, i8 }, align 1
  %3 = getelementptr inbounds { i8, i8 }, ptr %self, i32 0, i32 0
  %4 = zext i1 %0 to i8
  store i8 %4, ptr %3, align 1
  %5 = getelementptr inbounds { i8, i8 }, ptr %self, i32 0, i32 1
  store i8 %1, ptr %5, align 1
  call void @llvm.dbg.declare(metadata ptr %self, metadata !1474, metadata !DIExpression()), !dbg !1477
; call core::option::Option<T>::is_some
  %_3 = call zeroext i1 @"_ZN4core6option15Option$LT$T$GT$7is_some17heae55fc8b047c256E"(ptr align 1 %self) #8, !dbg !1478
  %_2 = xor i1 %_3, true, !dbg !1479
  br i1 %_2, label %bb2, label %bb3, !dbg !1479

bb3:                                              ; preds = %start
  %6 = load i8, ptr %self, align 1, !dbg !1480, !range !780, !noundef !55
  %7 = trunc i8 %6 to i1, !dbg !1480
  %_6 = zext i1 %7 to i64, !dbg !1480
  %8 = icmp eq i64 %_6, 0, !dbg !1481
  br i1 %8, label %bb4, label %bb6, !dbg !1481

bb2:                                              ; preds = %start
; call core::panicking::panic
  call void @_ZN4core9panicking5panic17h758e89f926a8adfcE(ptr align 1 @alloc2982, i64 32, ptr align 8 %2) #7, !dbg !1479
  unreachable, !dbg !1479

bb4:                                              ; preds = %bb3
; call core::hint::unreachable_unchecked
  call void @_ZN4core4hint21unreachable_unchecked17hced7f1c0533b4c08E() #7, !dbg !1482
  unreachable, !dbg !1482

bb6:                                              ; preds = %bb3
  %9 = getelementptr inbounds { i8, i8 }, ptr %self, i32 0, i32 1, !dbg !1483
  %val = load i8, ptr %9, align 1, !dbg !1483, !noundef !55
  store i8 %val, ptr %val.dbg.spill, align 1, !dbg !1483
  call void @llvm.dbg.declare(metadata ptr %val.dbg.spill, metadata !1475, metadata !DIExpression()), !dbg !1484
  ret i8 %val, !dbg !1485

bb5:                                              ; No predecessors!
  unreachable, !dbg !1480
}

; core::option::Option<T>::is_some
; Function Attrs: inlinehint noredzone nounwind
define hidden zeroext i1 @"_ZN4core6option15Option$LT$T$GT$7is_some17h1bb325ead92308c8E"(ptr align 8 %self) unnamed_addr #0 !dbg !1486 {
start:
  %self.dbg.spill = alloca ptr, align 8
  %0 = alloca i8, align 1
  store ptr %self, ptr %self.dbg.spill, align 8
  call void @llvm.dbg.declare(metadata ptr %self.dbg.spill, metadata !1491, metadata !DIExpression()), !dbg !1492
  %_2 = load i64, ptr %self, align 8, !dbg !1493, !range !786, !noundef !55
  %1 = icmp eq i64 %_2, 1, !dbg !1494
  br i1 %1, label %bb2, label %bb1, !dbg !1494

bb2:                                              ; preds = %start
  store i8 1, ptr %0, align 1, !dbg !1494
  br label %bb3, !dbg !1494

bb1:                                              ; preds = %start
  store i8 0, ptr %0, align 1, !dbg !1494
  br label %bb3, !dbg !1494

bb3:                                              ; preds = %bb2, %bb1
  %2 = load i8, ptr %0, align 1, !dbg !1495, !range !780, !noundef !55
  %3 = trunc i8 %2 to i1, !dbg !1495
  ret i1 %3, !dbg !1495
}

; core::option::Option<T>::is_some
; Function Attrs: inlinehint noredzone nounwind
define hidden zeroext i1 @"_ZN4core6option15Option$LT$T$GT$7is_some17h5e18aab2bd0de09eE"(ptr align 8 %self) unnamed_addr #0 !dbg !1496 {
start:
  %self.dbg.spill = alloca ptr, align 8
  %0 = alloca i8, align 1
  store ptr %self, ptr %self.dbg.spill, align 8
  call void @llvm.dbg.declare(metadata ptr %self.dbg.spill, metadata !1501, metadata !DIExpression()), !dbg !1502
  %_2 = load i64, ptr %self, align 8, !dbg !1503, !range !786, !noundef !55
  %1 = icmp eq i64 %_2, 1, !dbg !1504
  br i1 %1, label %bb2, label %bb1, !dbg !1504

bb2:                                              ; preds = %start
  store i8 1, ptr %0, align 1, !dbg !1504
  br label %bb3, !dbg !1504

bb1:                                              ; preds = %start
  store i8 0, ptr %0, align 1, !dbg !1504
  br label %bb3, !dbg !1504

bb3:                                              ; preds = %bb2, %bb1
  %2 = load i8, ptr %0, align 1, !dbg !1505, !range !780, !noundef !55
  %3 = trunc i8 %2 to i1, !dbg !1505
  ret i1 %3, !dbg !1505
}

; core::option::Option<T>::is_some
; Function Attrs: inlinehint noredzone nounwind
define hidden zeroext i1 @"_ZN4core6option15Option$LT$T$GT$7is_some17h71eb90a7cd2a9168E"(ptr align 2 %self) unnamed_addr #0 !dbg !1506 {
start:
  %self.dbg.spill = alloca ptr, align 8
  %0 = alloca i8, align 1
  store ptr %self, ptr %self.dbg.spill, align 8
  call void @llvm.dbg.declare(metadata ptr %self.dbg.spill, metadata !1511, metadata !DIExpression()), !dbg !1512
  %1 = load i16, ptr %self, align 2, !dbg !1513, !range !1282, !noundef !55
  %_2 = zext i16 %1 to i64, !dbg !1513
  %2 = icmp eq i64 %_2, 1, !dbg !1514
  br i1 %2, label %bb2, label %bb1, !dbg !1514

bb2:                                              ; preds = %start
  store i8 1, ptr %0, align 1, !dbg !1514
  br label %bb3, !dbg !1514

bb1:                                              ; preds = %start
  store i8 0, ptr %0, align 1, !dbg !1514
  br label %bb3, !dbg !1514

bb3:                                              ; preds = %bb2, %bb1
  %3 = load i8, ptr %0, align 1, !dbg !1515, !range !780, !noundef !55
  %4 = trunc i8 %3 to i1, !dbg !1515
  ret i1 %4, !dbg !1515
}

; core::option::Option<T>::is_some
; Function Attrs: inlinehint noredzone nounwind
define hidden zeroext i1 @"_ZN4core6option15Option$LT$T$GT$7is_some17h7257df25df2bd571E"(ptr align 4 %self) unnamed_addr #0 !dbg !1516 {
start:
  %self.dbg.spill = alloca ptr, align 8
  %0 = alloca i8, align 1
  store ptr %self, ptr %self.dbg.spill, align 8
  call void @llvm.dbg.declare(metadata ptr %self.dbg.spill, metadata !1521, metadata !DIExpression()), !dbg !1522
  %1 = load i32, ptr %self, align 4, !dbg !1523, !range !1310, !noundef !55
  %_2 = zext i32 %1 to i64, !dbg !1523
  %2 = icmp eq i64 %_2, 1, !dbg !1524
  br i1 %2, label %bb2, label %bb1, !dbg !1524

bb2:                                              ; preds = %start
  store i8 1, ptr %0, align 1, !dbg !1524
  br label %bb3, !dbg !1524

bb1:                                              ; preds = %start
  store i8 0, ptr %0, align 1, !dbg !1524
  br label %bb3, !dbg !1524

bb3:                                              ; preds = %bb2, %bb1
  %3 = load i8, ptr %0, align 1, !dbg !1525, !range !780, !noundef !55
  %4 = trunc i8 %3 to i1, !dbg !1525
  ret i1 %4, !dbg !1525
}

; core::option::Option<T>::is_some
; Function Attrs: inlinehint noredzone nounwind
define hidden zeroext i1 @"_ZN4core6option15Option$LT$T$GT$7is_some17h78a3e71809b03f09E"(ptr align 2 %self) unnamed_addr #0 !dbg !1526 {
start:
  %self.dbg.spill = alloca ptr, align 8
  %0 = alloca i8, align 1
  store ptr %self, ptr %self.dbg.spill, align 8
  call void @llvm.dbg.declare(metadata ptr %self.dbg.spill, metadata !1531, metadata !DIExpression()), !dbg !1532
  %1 = load i16, ptr %self, align 2, !dbg !1533, !range !1282, !noundef !55
  %_2 = zext i16 %1 to i64, !dbg !1533
  %2 = icmp eq i64 %_2, 1, !dbg !1534
  br i1 %2, label %bb2, label %bb1, !dbg !1534

bb2:                                              ; preds = %start
  store i8 1, ptr %0, align 1, !dbg !1534
  br label %bb3, !dbg !1534

bb1:                                              ; preds = %start
  store i8 0, ptr %0, align 1, !dbg !1534
  br label %bb3, !dbg !1534

bb3:                                              ; preds = %bb2, %bb1
  %3 = load i8, ptr %0, align 1, !dbg !1535, !range !780, !noundef !55
  %4 = trunc i8 %3 to i1, !dbg !1535
  ret i1 %4, !dbg !1535
}

; core::option::Option<T>::is_some
; Function Attrs: inlinehint noredzone nounwind
define hidden zeroext i1 @"_ZN4core6option15Option$LT$T$GT$7is_some17h80eb3725d3a34511E"(ptr align 1 %self) unnamed_addr #0 !dbg !1536 {
start:
  %self.dbg.spill = alloca ptr, align 8
  %0 = alloca i8, align 1
  store ptr %self, ptr %self.dbg.spill, align 8
  call void @llvm.dbg.declare(metadata ptr %self.dbg.spill, metadata !1541, metadata !DIExpression()), !dbg !1542
  %1 = load i8, ptr %self, align 1, !dbg !1543, !range !780, !noundef !55
  %2 = trunc i8 %1 to i1, !dbg !1543
  %_2 = zext i1 %2 to i64, !dbg !1543
  %3 = icmp eq i64 %_2, 1, !dbg !1544
  br i1 %3, label %bb2, label %bb1, !dbg !1544

bb2:                                              ; preds = %start
  store i8 1, ptr %0, align 1, !dbg !1544
  br label %bb3, !dbg !1544

bb1:                                              ; preds = %start
  store i8 0, ptr %0, align 1, !dbg !1544
  br label %bb3, !dbg !1544

bb3:                                              ; preds = %bb2, %bb1
  %4 = load i8, ptr %0, align 1, !dbg !1545, !range !780, !noundef !55
  %5 = trunc i8 %4 to i1, !dbg !1545
  ret i1 %5, !dbg !1545
}

; core::option::Option<T>::is_some
; Function Attrs: inlinehint noredzone nounwind
define hidden zeroext i1 @"_ZN4core6option15Option$LT$T$GT$7is_some17hb2adf49dd0f0a23aE"(ptr align 4 %self) unnamed_addr #0 !dbg !1546 {
start:
  %self.dbg.spill = alloca ptr, align 8
  %0 = alloca i8, align 1
  store ptr %self, ptr %self.dbg.spill, align 8
  call void @llvm.dbg.declare(metadata ptr %self.dbg.spill, metadata !1551, metadata !DIExpression()), !dbg !1552
  %1 = load i32, ptr %self, align 4, !dbg !1553, !range !1310, !noundef !55
  %_2 = zext i32 %1 to i64, !dbg !1553
  %2 = icmp eq i64 %_2, 1, !dbg !1554
  br i1 %2, label %bb2, label %bb1, !dbg !1554

bb2:                                              ; preds = %start
  store i8 1, ptr %0, align 1, !dbg !1554
  br label %bb3, !dbg !1554

bb1:                                              ; preds = %start
  store i8 0, ptr %0, align 1, !dbg !1554
  br label %bb3, !dbg !1554

bb3:                                              ; preds = %bb2, %bb1
  %3 = load i8, ptr %0, align 1, !dbg !1555, !range !780, !noundef !55
  %4 = trunc i8 %3 to i1, !dbg !1555
  ret i1 %4, !dbg !1555
}

; core::option::Option<T>::is_some
; Function Attrs: inlinehint noredzone nounwind
define hidden zeroext i1 @"_ZN4core6option15Option$LT$T$GT$7is_some17hc994db26a0bfd513E"(ptr align 8 %self) unnamed_addr #0 !dbg !1556 {
start:
  %self.dbg.spill = alloca ptr, align 8
  %0 = alloca i8, align 1
  store ptr %self, ptr %self.dbg.spill, align 8
  call void @llvm.dbg.declare(metadata ptr %self.dbg.spill, metadata !1561, metadata !DIExpression()), !dbg !1562
  %_2 = load i64, ptr %self, align 8, !dbg !1563, !range !786, !noundef !55
  %1 = icmp eq i64 %_2, 1, !dbg !1564
  br i1 %1, label %bb2, label %bb1, !dbg !1564

bb2:                                              ; preds = %start
  store i8 1, ptr %0, align 1, !dbg !1564
  br label %bb3, !dbg !1564

bb1:                                              ; preds = %start
  store i8 0, ptr %0, align 1, !dbg !1564
  br label %bb3, !dbg !1564

bb3:                                              ; preds = %bb2, %bb1
  %2 = load i8, ptr %0, align 1, !dbg !1565, !range !780, !noundef !55
  %3 = trunc i8 %2 to i1, !dbg !1565
  ret i1 %3, !dbg !1565
}

; core::option::Option<T>::is_some
; Function Attrs: inlinehint noredzone nounwind
define hidden zeroext i1 @"_ZN4core6option15Option$LT$T$GT$7is_some17he78b43f49b51031aE"(ptr align 8 %self) unnamed_addr #0 !dbg !1566 {
start:
  %self.dbg.spill = alloca ptr, align 8
  %0 = alloca i8, align 1
  store ptr %self, ptr %self.dbg.spill, align 8
  call void @llvm.dbg.declare(metadata ptr %self.dbg.spill, metadata !1571, metadata !DIExpression()), !dbg !1572
  %_2 = load i64, ptr %self, align 8, !dbg !1573, !range !786, !noundef !55
  %1 = icmp eq i64 %_2, 1, !dbg !1574
  br i1 %1, label %bb2, label %bb1, !dbg !1574

bb2:                                              ; preds = %start
  store i8 1, ptr %0, align 1, !dbg !1574
  br label %bb3, !dbg !1574

bb1:                                              ; preds = %start
  store i8 0, ptr %0, align 1, !dbg !1574
  br label %bb3, !dbg !1574

bb3:                                              ; preds = %bb2, %bb1
  %2 = load i8, ptr %0, align 1, !dbg !1575, !range !780, !noundef !55
  %3 = trunc i8 %2 to i1, !dbg !1575
  ret i1 %3, !dbg !1575
}

; core::result::Result<T,E>::ok
; Function Attrs: inlinehint noredzone nounwind
define hidden { i16, i16 } @"_ZN4core6result19Result$LT$T$C$E$GT$2ok17h00f34aa74e6df9c1E"(i16 %0, i16 %1) unnamed_addr #0 !dbg !1576 {
start:
  %x.dbg.spill1 = alloca i16, align 2
  %x.dbg.spill = alloca %"core::num::error::TryFromIntError", align 1
  %2 = alloca { i16, i16 }, align 2
  %self = alloca { i16, i16 }, align 2
  %3 = getelementptr inbounds { i16, i16 }, ptr %self, i32 0, i32 0
  store i16 %0, ptr %3, align 2
  %4 = getelementptr inbounds { i16, i16 }, ptr %self, i32 0, i32 1
  store i16 %1, ptr %4, align 2
  call void @llvm.dbg.declare(metadata ptr %self, metadata !1601, metadata !DIExpression()), !dbg !1606
  call void @llvm.dbg.declare(metadata ptr %x.dbg.spill, metadata !1604, metadata !DIExpression()), !dbg !1607
  %5 = load i16, ptr %self, align 2, !dbg !1608, !range !1282, !noundef !55
  %_2 = zext i16 %5 to i64, !dbg !1608
  %6 = icmp eq i64 %_2, 0, !dbg !1609
  br i1 %6, label %bb3, label %bb1, !dbg !1609

bb3:                                              ; preds = %start
  %7 = getelementptr inbounds { i16, i16 }, ptr %self, i32 0, i32 1, !dbg !1610
  %x = load i16, ptr %7, align 2, !dbg !1610, !noundef !55
  store i16 %x, ptr %x.dbg.spill1, align 2, !dbg !1610
  call void @llvm.dbg.declare(metadata ptr %x.dbg.spill1, metadata !1602, metadata !DIExpression()), !dbg !1611
  %8 = getelementptr inbounds { i16, i16 }, ptr %2, i32 0, i32 1, !dbg !1612
  store i16 %x, ptr %8, align 2, !dbg !1612
  store i16 1, ptr %2, align 2, !dbg !1612
  br label %bb4, !dbg !1613

bb1:                                              ; preds = %start
  store i16 0, ptr %2, align 2, !dbg !1614
  br label %bb4, !dbg !1615

bb2:                                              ; No predecessors!
  unreachable, !dbg !1608

bb4:                                              ; preds = %bb3, %bb1
  %9 = getelementptr inbounds { i16, i16 }, ptr %2, i32 0, i32 0, !dbg !1616
  %10 = load i16, ptr %9, align 2, !dbg !1616, !range !1282, !noundef !55
  %11 = getelementptr inbounds { i16, i16 }, ptr %2, i32 0, i32 1, !dbg !1616
  %12 = load i16, ptr %11, align 2, !dbg !1616
  %13 = insertvalue { i16, i16 } undef, i16 %10, 0, !dbg !1616
  %14 = insertvalue { i16, i16 } %13, i16 %12, 1, !dbg !1616
  ret { i16, i16 } %14, !dbg !1616
}

; core::result::Result<T,E>::ok
; Function Attrs: inlinehint noredzone nounwind
define hidden { i64, i64 } @"_ZN4core6result19Result$LT$T$C$E$GT$2ok17h26b49bf01cd265c1E"(i64 %0, i64 %1) unnamed_addr #0 !dbg !1617 {
start:
  %x.dbg.spill1 = alloca i64, align 8
  %x.dbg.spill = alloca %"core::num::error::TryFromIntError", align 1
  %2 = alloca { i64, i64 }, align 8
  %self = alloca { i64, i64 }, align 8
  %3 = getelementptr inbounds { i64, i64 }, ptr %self, i32 0, i32 0
  store i64 %0, ptr %3, align 8
  %4 = getelementptr inbounds { i64, i64 }, ptr %self, i32 0, i32 1
  store i64 %1, ptr %4, align 8
  call void @llvm.dbg.declare(metadata ptr %self, metadata !1648, metadata !DIExpression()), !dbg !1653
  call void @llvm.dbg.declare(metadata ptr %x.dbg.spill, metadata !1651, metadata !DIExpression()), !dbg !1654
  %_2 = load i64, ptr %self, align 8, !dbg !1655, !range !786, !noundef !55
  %5 = icmp eq i64 %_2, 0, !dbg !1656
  br i1 %5, label %bb3, label %bb1, !dbg !1656

bb3:                                              ; preds = %start
  %6 = getelementptr inbounds { i64, i64 }, ptr %self, i32 0, i32 1, !dbg !1657
  %x = load i64, ptr %6, align 8, !dbg !1657, !noundef !55
  store i64 %x, ptr %x.dbg.spill1, align 8, !dbg !1657
  call void @llvm.dbg.declare(metadata ptr %x.dbg.spill1, metadata !1649, metadata !DIExpression()), !dbg !1658
  %7 = getelementptr inbounds { i64, i64 }, ptr %2, i32 0, i32 1, !dbg !1659
  store i64 %x, ptr %7, align 8, !dbg !1659
  store i64 1, ptr %2, align 8, !dbg !1659
  br label %bb4, !dbg !1660

bb1:                                              ; preds = %start
  store i64 0, ptr %2, align 8, !dbg !1661
  br label %bb4, !dbg !1662

bb2:                                              ; No predecessors!
  unreachable, !dbg !1655

bb4:                                              ; preds = %bb3, %bb1
  %8 = getelementptr inbounds { i64, i64 }, ptr %2, i32 0, i32 0, !dbg !1663
  %9 = load i64, ptr %8, align 8, !dbg !1663, !range !786, !noundef !55
  %10 = getelementptr inbounds { i64, i64 }, ptr %2, i32 0, i32 1, !dbg !1663
  %11 = load i64, ptr %10, align 8, !dbg !1663
  %12 = insertvalue { i64, i64 } undef, i64 %9, 0, !dbg !1663
  %13 = insertvalue { i64, i64 } %12, i64 %11, 1, !dbg !1663
  ret { i64, i64 } %13, !dbg !1663
}

; core::result::Result<T,E>::ok
; Function Attrs: inlinehint noredzone nounwind
define hidden { i64, i64 } @"_ZN4core6result19Result$LT$T$C$E$GT$2ok17h2873c73eb77727ffE"(i64 %0) unnamed_addr #0 !dbg !1664 {
start:
  %x.dbg.spill1 = alloca i64, align 8
  %x.dbg.spill = alloca %"core::convert::Infallible", align 1
  %1 = alloca { i64, i64 }, align 8
  %self = alloca i64, align 8
  store i64 %0, ptr %self, align 8
  call void @llvm.dbg.declare(metadata ptr %self, metadata !1686, metadata !DIExpression()), !dbg !1691
  call void @llvm.dbg.declare(metadata ptr %x.dbg.spill, metadata !1689, metadata !DIExpression()), !dbg !1692
  br i1 true, label %bb3, label %bb1, !dbg !1693

bb3:                                              ; preds = %start
  %x = load i64, ptr %self, align 8, !dbg !1694, !noundef !55
  store i64 %x, ptr %x.dbg.spill1, align 8, !dbg !1694
  call void @llvm.dbg.declare(metadata ptr %x.dbg.spill1, metadata !1687, metadata !DIExpression()), !dbg !1695
  %2 = getelementptr inbounds { i64, i64 }, ptr %1, i32 0, i32 1, !dbg !1696
  store i64 %x, ptr %2, align 8, !dbg !1696
  store i64 1, ptr %1, align 8, !dbg !1696
  br label %bb4, !dbg !1697

bb1:                                              ; preds = %start
  store i64 0, ptr %1, align 8, !dbg !1698
  br label %bb4, !dbg !1699

bb2:                                              ; No predecessors!
  unreachable, !dbg !1700

bb4:                                              ; preds = %bb3, %bb1
  %3 = getelementptr inbounds { i64, i64 }, ptr %1, i32 0, i32 0, !dbg !1701
  %4 = load i64, ptr %3, align 8, !dbg !1701, !range !786, !noundef !55
  %5 = getelementptr inbounds { i64, i64 }, ptr %1, i32 0, i32 1, !dbg !1701
  %6 = load i64, ptr %5, align 8, !dbg !1701
  %7 = insertvalue { i64, i64 } undef, i64 %4, 0, !dbg !1701
  %8 = insertvalue { i64, i64 } %7, i64 %6, 1, !dbg !1701
  ret { i64, i64 } %8, !dbg !1701
}

; core::result::Result<T,E>::ok
; Function Attrs: inlinehint noredzone nounwind
define hidden { i64, i128 } @"_ZN4core6result19Result$LT$T$C$E$GT$2ok17h3b5e9b2d23354b18E"(i128 %0) unnamed_addr #0 !dbg !1702 {
start:
  %x.dbg.spill1 = alloca i128, align 8
  %x.dbg.spill = alloca %"core::convert::Infallible", align 1
  %1 = alloca { i64, i128 }, align 8
  %self = alloca i128, align 8
  store i128 %0, ptr %self, align 8
  call void @llvm.dbg.declare(metadata ptr %self, metadata !1719, metadata !DIExpression()), !dbg !1724
  call void @llvm.dbg.declare(metadata ptr %x.dbg.spill, metadata !1722, metadata !DIExpression()), !dbg !1725
  br i1 true, label %bb3, label %bb1, !dbg !1726

bb3:                                              ; preds = %start
  %x = load i128, ptr %self, align 8, !dbg !1727, !noundef !55
  store i128 %x, ptr %x.dbg.spill1, align 8, !dbg !1727
  call void @llvm.dbg.declare(metadata ptr %x.dbg.spill1, metadata !1720, metadata !DIExpression()), !dbg !1728
  %2 = getelementptr inbounds { i64, i128 }, ptr %1, i32 0, i32 1, !dbg !1729
  store i128 %x, ptr %2, align 8, !dbg !1729
  store i64 1, ptr %1, align 8, !dbg !1729
  br label %bb4, !dbg !1730

bb1:                                              ; preds = %start
  store i64 0, ptr %1, align 8, !dbg !1731
  br label %bb4, !dbg !1732

bb2:                                              ; No predecessors!
  unreachable, !dbg !1733

bb4:                                              ; preds = %bb3, %bb1
  %3 = getelementptr inbounds { i64, i128 }, ptr %1, i32 0, i32 0, !dbg !1734
  %4 = load i64, ptr %3, align 8, !dbg !1734, !range !786, !noundef !55
  %5 = getelementptr inbounds { i64, i128 }, ptr %1, i32 0, i32 1, !dbg !1734
  %6 = load i128, ptr %5, align 8, !dbg !1734
  %7 = insertvalue { i64, i128 } undef, i64 %4, 0, !dbg !1734
  %8 = insertvalue { i64, i128 } %7, i128 %6, 1, !dbg !1734
  ret { i64, i128 } %8, !dbg !1734
}

; core::result::Result<T,E>::ok
; Function Attrs: inlinehint noredzone nounwind
define hidden { i8, i8 } @"_ZN4core6result19Result$LT$T$C$E$GT$2ok17h400417c11ccf84b6E"(i1 zeroext %0, i8 %1) unnamed_addr #0 !dbg !1735 {
start:
  %x.dbg.spill1 = alloca i8, align 1
  %x.dbg.spill = alloca %"core::num::error::TryFromIntError", align 1
  %2 = alloca { i8, i8 }, align 1
  %self = alloca { i8, i8 }, align 1
  %3 = getelementptr inbounds { i8, i8 }, ptr %self, i32 0, i32 0
  %4 = zext i1 %0 to i8
  store i8 %4, ptr %3, align 1
  %5 = getelementptr inbounds { i8, i8 }, ptr %self, i32 0, i32 1
  store i8 %1, ptr %5, align 1
  call void @llvm.dbg.declare(metadata ptr %self, metadata !1753, metadata !DIExpression()), !dbg !1758
  call void @llvm.dbg.declare(metadata ptr %x.dbg.spill, metadata !1756, metadata !DIExpression()), !dbg !1759
  %6 = load i8, ptr %self, align 1, !dbg !1760, !range !780, !noundef !55
  %7 = trunc i8 %6 to i1, !dbg !1760
  %_2 = zext i1 %7 to i64, !dbg !1760
  %8 = icmp eq i64 %_2, 0, !dbg !1761
  br i1 %8, label %bb3, label %bb1, !dbg !1761

bb3:                                              ; preds = %start
  %9 = getelementptr inbounds { i8, i8 }, ptr %self, i32 0, i32 1, !dbg !1762
  %x = load i8, ptr %9, align 1, !dbg !1762, !noundef !55
  store i8 %x, ptr %x.dbg.spill1, align 1, !dbg !1762
  call void @llvm.dbg.declare(metadata ptr %x.dbg.spill1, metadata !1754, metadata !DIExpression()), !dbg !1763
  %10 = getelementptr inbounds { i8, i8 }, ptr %2, i32 0, i32 1, !dbg !1764
  store i8 %x, ptr %10, align 1, !dbg !1764
  store i8 1, ptr %2, align 1, !dbg !1764
  br label %bb4, !dbg !1765

bb1:                                              ; preds = %start
  store i8 0, ptr %2, align 1, !dbg !1766
  br label %bb4, !dbg !1767

bb2:                                              ; No predecessors!
  unreachable, !dbg !1760

bb4:                                              ; preds = %bb3, %bb1
  %11 = getelementptr inbounds { i8, i8 }, ptr %2, i32 0, i32 0, !dbg !1768
  %12 = load i8, ptr %11, align 1, !dbg !1768, !range !780, !noundef !55
  %13 = trunc i8 %12 to i1, !dbg !1768
  %14 = getelementptr inbounds { i8, i8 }, ptr %2, i32 0, i32 1, !dbg !1768
  %15 = load i8, ptr %14, align 1, !dbg !1768
  %16 = zext i1 %13 to i8, !dbg !1768
  %17 = insertvalue { i8, i8 } undef, i8 %16, 0, !dbg !1768
  %18 = insertvalue { i8, i8 } %17, i8 %15, 1, !dbg !1768
  ret { i8, i8 } %18, !dbg !1768
}

; core::result::Result<T,E>::ok
; Function Attrs: inlinehint noredzone nounwind
define hidden { i16, i16 } @"_ZN4core6result19Result$LT$T$C$E$GT$2ok17h4f8c00cdf92ef793E"(i16 %0, i16 %1) unnamed_addr #0 !dbg !1769 {
start:
  %x.dbg.spill1 = alloca i16, align 2
  %x.dbg.spill = alloca %"core::num::error::TryFromIntError", align 1
  %2 = alloca { i16, i16 }, align 2
  %self = alloca { i16, i16 }, align 2
  %3 = getelementptr inbounds { i16, i16 }, ptr %self, i32 0, i32 0
  store i16 %0, ptr %3, align 2
  %4 = getelementptr inbounds { i16, i16 }, ptr %self, i32 0, i32 1
  store i16 %1, ptr %4, align 2
  call void @llvm.dbg.declare(metadata ptr %self, metadata !1787, metadata !DIExpression()), !dbg !1792
  call void @llvm.dbg.declare(metadata ptr %x.dbg.spill, metadata !1790, metadata !DIExpression()), !dbg !1793
  %5 = load i16, ptr %self, align 2, !dbg !1794, !range !1282, !noundef !55
  %_2 = zext i16 %5 to i64, !dbg !1794
  %6 = icmp eq i64 %_2, 0, !dbg !1795
  br i1 %6, label %bb3, label %bb1, !dbg !1795

bb3:                                              ; preds = %start
  %7 = getelementptr inbounds { i16, i16 }, ptr %self, i32 0, i32 1, !dbg !1796
  %x = load i16, ptr %7, align 2, !dbg !1796, !noundef !55
  store i16 %x, ptr %x.dbg.spill1, align 2, !dbg !1796
  call void @llvm.dbg.declare(metadata ptr %x.dbg.spill1, metadata !1788, metadata !DIExpression()), !dbg !1797
  %8 = getelementptr inbounds { i16, i16 }, ptr %2, i32 0, i32 1, !dbg !1798
  store i16 %x, ptr %8, align 2, !dbg !1798
  store i16 1, ptr %2, align 2, !dbg !1798
  br label %bb4, !dbg !1799

bb1:                                              ; preds = %start
  store i16 0, ptr %2, align 2, !dbg !1800
  br label %bb4, !dbg !1801

bb2:                                              ; No predecessors!
  unreachable, !dbg !1794

bb4:                                              ; preds = %bb3, %bb1
  %9 = getelementptr inbounds { i16, i16 }, ptr %2, i32 0, i32 0, !dbg !1802
  %10 = load i16, ptr %9, align 2, !dbg !1802, !range !1282, !noundef !55
  %11 = getelementptr inbounds { i16, i16 }, ptr %2, i32 0, i32 1, !dbg !1802
  %12 = load i16, ptr %11, align 2, !dbg !1802
  %13 = insertvalue { i16, i16 } undef, i16 %10, 0, !dbg !1802
  %14 = insertvalue { i16, i16 } %13, i16 %12, 1, !dbg !1802
  ret { i16, i16 } %14, !dbg !1802
}

; core::result::Result<T,E>::ok
; Function Attrs: inlinehint noredzone nounwind
define hidden { i64, i64 } @"_ZN4core6result19Result$LT$T$C$E$GT$2ok17h65baa8efa210009fE"(i64 %0) unnamed_addr #0 !dbg !1803 {
start:
  %x.dbg.spill1 = alloca i64, align 8
  %x.dbg.spill = alloca %"core::convert::Infallible", align 1
  %1 = alloca { i64, i64 }, align 8
  %self = alloca i64, align 8
  store i64 %0, ptr %self, align 8
  call void @llvm.dbg.declare(metadata ptr %self, metadata !1820, metadata !DIExpression()), !dbg !1825
  call void @llvm.dbg.declare(metadata ptr %x.dbg.spill, metadata !1823, metadata !DIExpression()), !dbg !1826
  br i1 true, label %bb3, label %bb1, !dbg !1827

bb3:                                              ; preds = %start
  %x = load i64, ptr %self, align 8, !dbg !1828, !noundef !55
  store i64 %x, ptr %x.dbg.spill1, align 8, !dbg !1828
  call void @llvm.dbg.declare(metadata ptr %x.dbg.spill1, metadata !1821, metadata !DIExpression()), !dbg !1829
  %2 = getelementptr inbounds { i64, i64 }, ptr %1, i32 0, i32 1, !dbg !1830
  store i64 %x, ptr %2, align 8, !dbg !1830
  store i64 1, ptr %1, align 8, !dbg !1830
  br label %bb4, !dbg !1831

bb1:                                              ; preds = %start
  store i64 0, ptr %1, align 8, !dbg !1832
  br label %bb4, !dbg !1833

bb2:                                              ; No predecessors!
  unreachable, !dbg !1834

bb4:                                              ; preds = %bb3, %bb1
  %3 = getelementptr inbounds { i64, i64 }, ptr %1, i32 0, i32 0, !dbg !1835
  %4 = load i64, ptr %3, align 8, !dbg !1835, !range !786, !noundef !55
  %5 = getelementptr inbounds { i64, i64 }, ptr %1, i32 0, i32 1, !dbg !1835
  %6 = load i64, ptr %5, align 8, !dbg !1835
  %7 = insertvalue { i64, i64 } undef, i64 %4, 0, !dbg !1835
  %8 = insertvalue { i64, i64 } %7, i64 %6, 1, !dbg !1835
  ret { i64, i64 } %8, !dbg !1835
}

; core::result::Result<T,E>::ok
; Function Attrs: inlinehint noredzone nounwind
define hidden { i64, i128 } @"_ZN4core6result19Result$LT$T$C$E$GT$2ok17h7de59e20941b6805E"(i128 %0) unnamed_addr #0 !dbg !1836 {
start:
  %x.dbg.spill1 = alloca i128, align 8
  %x.dbg.spill = alloca %"core::convert::Infallible", align 1
  %1 = alloca { i64, i128 }, align 8
  %self = alloca i128, align 8
  store i128 %0, ptr %self, align 8
  call void @llvm.dbg.declare(metadata ptr %self, metadata !1853, metadata !DIExpression()), !dbg !1858
  call void @llvm.dbg.declare(metadata ptr %x.dbg.spill, metadata !1856, metadata !DIExpression()), !dbg !1859
  br i1 true, label %bb3, label %bb1, !dbg !1860

bb3:                                              ; preds = %start
  %x = load i128, ptr %self, align 8, !dbg !1861, !noundef !55
  store i128 %x, ptr %x.dbg.spill1, align 8, !dbg !1861
  call void @llvm.dbg.declare(metadata ptr %x.dbg.spill1, metadata !1854, metadata !DIExpression()), !dbg !1862
  %2 = getelementptr inbounds { i64, i128 }, ptr %1, i32 0, i32 1, !dbg !1863
  store i128 %x, ptr %2, align 8, !dbg !1863
  store i64 1, ptr %1, align 8, !dbg !1863
  br label %bb4, !dbg !1864

bb1:                                              ; preds = %start
  store i64 0, ptr %1, align 8, !dbg !1865
  br label %bb4, !dbg !1866

bb2:                                              ; No predecessors!
  unreachable, !dbg !1867

bb4:                                              ; preds = %bb3, %bb1
  %3 = getelementptr inbounds { i64, i128 }, ptr %1, i32 0, i32 0, !dbg !1868
  %4 = load i64, ptr %3, align 8, !dbg !1868, !range !786, !noundef !55
  %5 = getelementptr inbounds { i64, i128 }, ptr %1, i32 0, i32 1, !dbg !1868
  %6 = load i128, ptr %5, align 8, !dbg !1868
  %7 = insertvalue { i64, i128 } undef, i64 %4, 0, !dbg !1868
  %8 = insertvalue { i64, i128 } %7, i128 %6, 1, !dbg !1868
  ret { i64, i128 } %8, !dbg !1868
}

; core::result::Result<T,E>::ok
; Function Attrs: inlinehint noredzone nounwind
define hidden { i8, i8 } @"_ZN4core6result19Result$LT$T$C$E$GT$2ok17h9e7ef45dd7c8a7bbE"(i1 zeroext %0, i8 %1) unnamed_addr #0 !dbg !1869 {
start:
  %x.dbg.spill1 = alloca i8, align 1
  %x.dbg.spill = alloca %"core::num::error::TryFromIntError", align 1
  %2 = alloca { i8, i8 }, align 1
  %self = alloca { i8, i8 }, align 1
  %3 = getelementptr inbounds { i8, i8 }, ptr %self, i32 0, i32 0
  %4 = zext i1 %0 to i8
  store i8 %4, ptr %3, align 1
  %5 = getelementptr inbounds { i8, i8 }, ptr %self, i32 0, i32 1
  store i8 %1, ptr %5, align 1
  call void @llvm.dbg.declare(metadata ptr %self, metadata !1887, metadata !DIExpression()), !dbg !1892
  call void @llvm.dbg.declare(metadata ptr %x.dbg.spill, metadata !1890, metadata !DIExpression()), !dbg !1893
  %6 = load i8, ptr %self, align 1, !dbg !1894, !range !780, !noundef !55
  %7 = trunc i8 %6 to i1, !dbg !1894
  %_2 = zext i1 %7 to i64, !dbg !1894
  %8 = icmp eq i64 %_2, 0, !dbg !1895
  br i1 %8, label %bb3, label %bb1, !dbg !1895

bb3:                                              ; preds = %start
  %9 = getelementptr inbounds { i8, i8 }, ptr %self, i32 0, i32 1, !dbg !1896
  %x = load i8, ptr %9, align 1, !dbg !1896, !noundef !55
  store i8 %x, ptr %x.dbg.spill1, align 1, !dbg !1896
  call void @llvm.dbg.declare(metadata ptr %x.dbg.spill1, metadata !1888, metadata !DIExpression()), !dbg !1897
  %10 = getelementptr inbounds { i8, i8 }, ptr %2, i32 0, i32 1, !dbg !1898
  store i8 %x, ptr %10, align 1, !dbg !1898
  store i8 1, ptr %2, align 1, !dbg !1898
  br label %bb4, !dbg !1899

bb1:                                              ; preds = %start
  store i8 0, ptr %2, align 1, !dbg !1900
  br label %bb4, !dbg !1901

bb2:                                              ; No predecessors!
  unreachable, !dbg !1894

bb4:                                              ; preds = %bb3, %bb1
  %11 = getelementptr inbounds { i8, i8 }, ptr %2, i32 0, i32 0, !dbg !1902
  %12 = load i8, ptr %11, align 1, !dbg !1902, !range !780, !noundef !55
  %13 = trunc i8 %12 to i1, !dbg !1902
  %14 = getelementptr inbounds { i8, i8 }, ptr %2, i32 0, i32 1, !dbg !1902
  %15 = load i8, ptr %14, align 1, !dbg !1902
  %16 = zext i1 %13 to i8, !dbg !1902
  %17 = insertvalue { i8, i8 } undef, i8 %16, 0, !dbg !1902
  %18 = insertvalue { i8, i8 } %17, i8 %15, 1, !dbg !1902
  ret { i8, i8 } %18, !dbg !1902
}

; core::result::Result<T,E>::ok
; Function Attrs: inlinehint noredzone nounwind
define hidden { i32, i32 } @"_ZN4core6result19Result$LT$T$C$E$GT$2ok17h9fa1e76365df9811E"(i32 %0) unnamed_addr #0 !dbg !1903 {
start:
  %x.dbg.spill1 = alloca i32, align 4
  %x.dbg.spill = alloca %"core::convert::Infallible", align 1
  %1 = alloca { i32, i32 }, align 4
  %self = alloca i32, align 4
  store i32 %0, ptr %self, align 4
  call void @llvm.dbg.declare(metadata ptr %self, metadata !1920, metadata !DIExpression()), !dbg !1925
  call void @llvm.dbg.declare(metadata ptr %x.dbg.spill, metadata !1923, metadata !DIExpression()), !dbg !1926
  br i1 true, label %bb3, label %bb1, !dbg !1927

bb3:                                              ; preds = %start
  %x = load i32, ptr %self, align 4, !dbg !1928, !noundef !55
  store i32 %x, ptr %x.dbg.spill1, align 4, !dbg !1928
  call void @llvm.dbg.declare(metadata ptr %x.dbg.spill1, metadata !1921, metadata !DIExpression()), !dbg !1929
  %2 = getelementptr inbounds { i32, i32 }, ptr %1, i32 0, i32 1, !dbg !1930
  store i32 %x, ptr %2, align 4, !dbg !1930
  store i32 1, ptr %1, align 4, !dbg !1930
  br label %bb4, !dbg !1931

bb1:                                              ; preds = %start
  store i32 0, ptr %1, align 4, !dbg !1932
  br label %bb4, !dbg !1933

bb2:                                              ; No predecessors!
  unreachable, !dbg !1934

bb4:                                              ; preds = %bb3, %bb1
  %3 = getelementptr inbounds { i32, i32 }, ptr %1, i32 0, i32 0, !dbg !1935
  %4 = load i32, ptr %3, align 4, !dbg !1935, !range !1310, !noundef !55
  %5 = getelementptr inbounds { i32, i32 }, ptr %1, i32 0, i32 1, !dbg !1935
  %6 = load i32, ptr %5, align 4, !dbg !1935
  %7 = insertvalue { i32, i32 } undef, i32 %4, 0, !dbg !1935
  %8 = insertvalue { i32, i32 } %7, i32 %6, 1, !dbg !1935
  ret { i32, i32 } %8, !dbg !1935
}

; core::result::Result<T,E>::ok
; Function Attrs: inlinehint noredzone nounwind
define hidden { i64, i64 } @"_ZN4core6result19Result$LT$T$C$E$GT$2ok17haec0f42a8aa977fcE"(i64 %0, i64 %1) unnamed_addr #0 !dbg !1936 {
start:
  %x.dbg.spill1 = alloca i64, align 8
  %x.dbg.spill = alloca %"core::num::error::TryFromIntError", align 1
  %2 = alloca { i64, i64 }, align 8
  %self = alloca { i64, i64 }, align 8
  %3 = getelementptr inbounds { i64, i64 }, ptr %self, i32 0, i32 0
  store i64 %0, ptr %3, align 8
  %4 = getelementptr inbounds { i64, i64 }, ptr %self, i32 0, i32 1
  store i64 %1, ptr %4, align 8
  call void @llvm.dbg.declare(metadata ptr %self, metadata !1954, metadata !DIExpression()), !dbg !1959
  call void @llvm.dbg.declare(metadata ptr %x.dbg.spill, metadata !1957, metadata !DIExpression()), !dbg !1960
  %_2 = load i64, ptr %self, align 8, !dbg !1961, !range !786, !noundef !55
  %5 = icmp eq i64 %_2, 0, !dbg !1962
  br i1 %5, label %bb3, label %bb1, !dbg !1962

bb3:                                              ; preds = %start
  %6 = getelementptr inbounds { i64, i64 }, ptr %self, i32 0, i32 1, !dbg !1963
  %x = load i64, ptr %6, align 8, !dbg !1963, !noundef !55
  store i64 %x, ptr %x.dbg.spill1, align 8, !dbg !1963
  call void @llvm.dbg.declare(metadata ptr %x.dbg.spill1, metadata !1955, metadata !DIExpression()), !dbg !1964
  %7 = getelementptr inbounds { i64, i64 }, ptr %2, i32 0, i32 1, !dbg !1965
  store i64 %x, ptr %7, align 8, !dbg !1965
  store i64 1, ptr %2, align 8, !dbg !1965
  br label %bb4, !dbg !1966

bb1:                                              ; preds = %start
  store i64 0, ptr %2, align 8, !dbg !1967
  br label %bb4, !dbg !1968

bb2:                                              ; No predecessors!
  unreachable, !dbg !1961

bb4:                                              ; preds = %bb3, %bb1
  %8 = getelementptr inbounds { i64, i64 }, ptr %2, i32 0, i32 0, !dbg !1969
  %9 = load i64, ptr %8, align 8, !dbg !1969, !range !786, !noundef !55
  %10 = getelementptr inbounds { i64, i64 }, ptr %2, i32 0, i32 1, !dbg !1969
  %11 = load i64, ptr %10, align 8, !dbg !1969
  %12 = insertvalue { i64, i64 } undef, i64 %9, 0, !dbg !1969
  %13 = insertvalue { i64, i64 } %12, i64 %11, 1, !dbg !1969
  ret { i64, i64 } %13, !dbg !1969
}

; core::result::Result<T,E>::ok
; Function Attrs: inlinehint noredzone nounwind
define hidden { i32, i32 } @"_ZN4core6result19Result$LT$T$C$E$GT$2ok17hb3daf9fcbc8276f2E"(i32 %0, i32 %1) unnamed_addr #0 !dbg !1970 {
start:
  %x.dbg.spill1 = alloca i32, align 4
  %x.dbg.spill = alloca %"core::num::error::TryFromIntError", align 1
  %2 = alloca { i32, i32 }, align 4
  %self = alloca { i32, i32 }, align 4
  %3 = getelementptr inbounds { i32, i32 }, ptr %self, i32 0, i32 0
  store i32 %0, ptr %3, align 4
  %4 = getelementptr inbounds { i32, i32 }, ptr %self, i32 0, i32 1
  store i32 %1, ptr %4, align 4
  call void @llvm.dbg.declare(metadata ptr %self, metadata !1988, metadata !DIExpression()), !dbg !1993
  call void @llvm.dbg.declare(metadata ptr %x.dbg.spill, metadata !1991, metadata !DIExpression()), !dbg !1994
  %5 = load i32, ptr %self, align 4, !dbg !1995, !range !1310, !noundef !55
  %_2 = zext i32 %5 to i64, !dbg !1995
  %6 = icmp eq i64 %_2, 0, !dbg !1996
  br i1 %6, label %bb3, label %bb1, !dbg !1996

bb3:                                              ; preds = %start
  %7 = getelementptr inbounds { i32, i32 }, ptr %self, i32 0, i32 1, !dbg !1997
  %x = load i32, ptr %7, align 4, !dbg !1997, !noundef !55
  store i32 %x, ptr %x.dbg.spill1, align 4, !dbg !1997
  call void @llvm.dbg.declare(metadata ptr %x.dbg.spill1, metadata !1989, metadata !DIExpression()), !dbg !1998
  %8 = getelementptr inbounds { i32, i32 }, ptr %2, i32 0, i32 1, !dbg !1999
  store i32 %x, ptr %8, align 4, !dbg !1999
  store i32 1, ptr %2, align 4, !dbg !1999
  br label %bb4, !dbg !2000

bb1:                                              ; preds = %start
  store i32 0, ptr %2, align 4, !dbg !2001
  br label %bb4, !dbg !2002

bb2:                                              ; No predecessors!
  unreachable, !dbg !1995

bb4:                                              ; preds = %bb3, %bb1
  %9 = getelementptr inbounds { i32, i32 }, ptr %2, i32 0, i32 0, !dbg !2003
  %10 = load i32, ptr %9, align 4, !dbg !2003, !range !1310, !noundef !55
  %11 = getelementptr inbounds { i32, i32 }, ptr %2, i32 0, i32 1, !dbg !2003
  %12 = load i32, ptr %11, align 4, !dbg !2003
  %13 = insertvalue { i32, i32 } undef, i32 %10, 0, !dbg !2003
  %14 = insertvalue { i32, i32 } %13, i32 %12, 1, !dbg !2003
  ret { i32, i32 } %14, !dbg !2003
}

; core::convert::num::ptr_try_from_impls::<impl core::convert::TryFrom<u32> for isize>::try_from
; Function Attrs: inlinehint noredzone nounwind
define internal { i64, i64 } @"_ZN4core7convert3num18ptr_try_from_impls69_$LT$impl$u20$core..convert..TryFrom$LT$u32$GT$$u20$for$u20$isize$GT$8try_from17h52254b8da1222254E"(i32 %value) unnamed_addr #0 !dbg !2004 {
start:
  %value.dbg.spill = alloca i32, align 4
  %0 = alloca { i64, i64 }, align 8
  store i32 %value, ptr %value.dbg.spill, align 4
  call void @llvm.dbg.declare(metadata ptr %value.dbg.spill, metadata !2012, metadata !DIExpression()), !dbg !2013
  %_2 = zext i32 %value to i64, !dbg !2014
  %1 = getelementptr inbounds { i64, i64 }, ptr %0, i32 0, i32 1, !dbg !2015
  store i64 %_2, ptr %1, align 8, !dbg !2015
  store i64 0, ptr %0, align 8, !dbg !2015
  %2 = getelementptr inbounds { i64, i64 }, ptr %0, i32 0, i32 0, !dbg !2016
  %3 = load i64, ptr %2, align 8, !dbg !2016, !range !786, !noundef !55
  %4 = getelementptr inbounds { i64, i64 }, ptr %0, i32 0, i32 1, !dbg !2016
  %5 = load i64, ptr %4, align 8, !dbg !2016
  %6 = insertvalue { i64, i64 } undef, i64 %3, 0, !dbg !2016
  %7 = insertvalue { i64, i64 } %6, i64 %5, 1, !dbg !2016
  ret { i64, i64 } %7, !dbg !2016
}

; core::convert::num::ptr_try_from_impls::<impl core::convert::TryFrom<u32> for usize>::try_from
; Function Attrs: inlinehint noredzone nounwind
define internal { i64, i64 } @"_ZN4core7convert3num18ptr_try_from_impls69_$LT$impl$u20$core..convert..TryFrom$LT$u32$GT$$u20$for$u20$usize$GT$8try_from17h3737b0ebcd62a757E"(i32 %value) unnamed_addr #0 !dbg !2017 {
start:
  %value.dbg.spill = alloca i32, align 4
  %0 = alloca { i64, i64 }, align 8
  store i32 %value, ptr %value.dbg.spill, align 4
  call void @llvm.dbg.declare(metadata ptr %value.dbg.spill, metadata !2022, metadata !DIExpression()), !dbg !2023
  %_2 = zext i32 %value to i64, !dbg !2024
  %1 = getelementptr inbounds { i64, i64 }, ptr %0, i32 0, i32 1, !dbg !2025
  store i64 %_2, ptr %1, align 8, !dbg !2025
  store i64 0, ptr %0, align 8, !dbg !2025
  %2 = getelementptr inbounds { i64, i64 }, ptr %0, i32 0, i32 0, !dbg !2026
  %3 = load i64, ptr %2, align 8, !dbg !2026, !range !786, !noundef !55
  %4 = getelementptr inbounds { i64, i64 }, ptr %0, i32 0, i32 1, !dbg !2026
  %5 = load i64, ptr %4, align 8, !dbg !2026
  %6 = insertvalue { i64, i64 } undef, i64 %3, 0, !dbg !2026
  %7 = insertvalue { i64, i64 } %6, i64 %5, 1, !dbg !2026
  ret { i64, i64 } %7, !dbg !2026
}

; core::convert::num::<impl core::convert::TryFrom<u32> for i8>::try_from
; Function Attrs: inlinehint noredzone nounwind
define internal { i8, i8 } @"_ZN4core7convert3num66_$LT$impl$u20$core..convert..TryFrom$LT$u32$GT$$u20$for$u20$i8$GT$8try_from17hd4f1ec84066d54e1E"(i32 %u) unnamed_addr #0 !dbg !2027 {
start:
  %u.dbg.spill = alloca i32, align 4
  %0 = alloca { i8, i8 }, align 1
  store i32 %u, ptr %u.dbg.spill, align 4
  call void @llvm.dbg.declare(metadata ptr %u.dbg.spill, metadata !2032, metadata !DIExpression()), !dbg !2033
  %_2 = icmp ugt i32 %u, 127, !dbg !2034
  br i1 %_2, label %bb1, label %bb2, !dbg !2034

bb2:                                              ; preds = %start
  %_5 = trunc i32 %u to i8, !dbg !2035
  %1 = getelementptr inbounds { i8, i8 }, ptr %0, i32 0, i32 1, !dbg !2036
  store i8 %_5, ptr %1, align 1, !dbg !2036
  store i8 0, ptr %0, align 1, !dbg !2036
  br label %bb3, !dbg !2037

bb1:                                              ; preds = %start
  store i8 1, ptr %0, align 1, !dbg !2038
  br label %bb3, !dbg !2037

bb3:                                              ; preds = %bb2, %bb1
  %2 = getelementptr inbounds { i8, i8 }, ptr %0, i32 0, i32 0, !dbg !2039
  %3 = load i8, ptr %2, align 1, !dbg !2039, !range !780, !noundef !55
  %4 = trunc i8 %3 to i1, !dbg !2039
  %5 = getelementptr inbounds { i8, i8 }, ptr %0, i32 0, i32 1, !dbg !2039
  %6 = load i8, ptr %5, align 1, !dbg !2039
  %7 = zext i1 %4 to i8, !dbg !2039
  %8 = insertvalue { i8, i8 } undef, i8 %7, 0, !dbg !2039
  %9 = insertvalue { i8, i8 } %8, i8 %6, 1, !dbg !2039
  ret { i8, i8 } %9, !dbg !2039
}

; core::convert::num::<impl core::convert::TryFrom<u32> for u8>::try_from
; Function Attrs: inlinehint noredzone nounwind
define internal { i8, i8 } @"_ZN4core7convert3num66_$LT$impl$u20$core..convert..TryFrom$LT$u32$GT$$u20$for$u20$u8$GT$8try_from17h174fc853301a3976E"(i32 %u) unnamed_addr #0 !dbg !2040 {
start:
  %u.dbg.spill = alloca i32, align 4
  %0 = alloca { i8, i8 }, align 1
  store i32 %u, ptr %u.dbg.spill, align 4
  call void @llvm.dbg.declare(metadata ptr %u.dbg.spill, metadata !2045, metadata !DIExpression()), !dbg !2046
  %_2 = icmp ugt i32 %u, 255, !dbg !2047
  br i1 %_2, label %bb1, label %bb2, !dbg !2047

bb2:                                              ; preds = %start
  %_5 = trunc i32 %u to i8, !dbg !2048
  %1 = getelementptr inbounds { i8, i8 }, ptr %0, i32 0, i32 1, !dbg !2049
  store i8 %_5, ptr %1, align 1, !dbg !2049
  store i8 0, ptr %0, align 1, !dbg !2049
  br label %bb3, !dbg !2050

bb1:                                              ; preds = %start
  store i8 1, ptr %0, align 1, !dbg !2051
  br label %bb3, !dbg !2050

bb3:                                              ; preds = %bb2, %bb1
  %2 = getelementptr inbounds { i8, i8 }, ptr %0, i32 0, i32 0, !dbg !2052
  %3 = load i8, ptr %2, align 1, !dbg !2052, !range !780, !noundef !55
  %4 = trunc i8 %3 to i1, !dbg !2052
  %5 = getelementptr inbounds { i8, i8 }, ptr %0, i32 0, i32 1, !dbg !2052
  %6 = load i8, ptr %5, align 1, !dbg !2052
  %7 = zext i1 %4 to i8, !dbg !2052
  %8 = insertvalue { i8, i8 } undef, i8 %7, 0, !dbg !2052
  %9 = insertvalue { i8, i8 } %8, i8 %6, 1, !dbg !2052
  ret { i8, i8 } %9, !dbg !2052
}

; core::convert::num::<impl core::convert::TryFrom<u32> for i16>::try_from
; Function Attrs: inlinehint noredzone nounwind
define internal { i16, i16 } @"_ZN4core7convert3num67_$LT$impl$u20$core..convert..TryFrom$LT$u32$GT$$u20$for$u20$i16$GT$8try_from17h9f6ed281ec68108cE"(i32 %u) unnamed_addr #0 !dbg !2053 {
start:
  %u.dbg.spill = alloca i32, align 4
  %0 = alloca { i16, i16 }, align 2
  store i32 %u, ptr %u.dbg.spill, align 4
  call void @llvm.dbg.declare(metadata ptr %u.dbg.spill, metadata !2058, metadata !DIExpression()), !dbg !2059
  %_2 = icmp ugt i32 %u, 32767, !dbg !2060
  br i1 %_2, label %bb1, label %bb2, !dbg !2060

bb2:                                              ; preds = %start
  %_5 = trunc i32 %u to i16, !dbg !2061
  %1 = getelementptr inbounds { i16, i16 }, ptr %0, i32 0, i32 1, !dbg !2062
  store i16 %_5, ptr %1, align 2, !dbg !2062
  store i16 0, ptr %0, align 2, !dbg !2062
  br label %bb3, !dbg !2063

bb1:                                              ; preds = %start
  store i16 1, ptr %0, align 2, !dbg !2064
  br label %bb3, !dbg !2063

bb3:                                              ; preds = %bb2, %bb1
  %2 = getelementptr inbounds { i16, i16 }, ptr %0, i32 0, i32 0, !dbg !2065
  %3 = load i16, ptr %2, align 2, !dbg !2065, !range !1282, !noundef !55
  %4 = getelementptr inbounds { i16, i16 }, ptr %0, i32 0, i32 1, !dbg !2065
  %5 = load i16, ptr %4, align 2, !dbg !2065
  %6 = insertvalue { i16, i16 } undef, i16 %3, 0, !dbg !2065
  %7 = insertvalue { i16, i16 } %6, i16 %5, 1, !dbg !2065
  ret { i16, i16 } %7, !dbg !2065
}

; core::convert::num::<impl core::convert::TryFrom<u32> for i32>::try_from
; Function Attrs: inlinehint noredzone nounwind
define internal { i32, i32 } @"_ZN4core7convert3num67_$LT$impl$u20$core..convert..TryFrom$LT$u32$GT$$u20$for$u20$i32$GT$8try_from17hce5fb3358ed08592E"(i32 %u) unnamed_addr #0 !dbg !2066 {
start:
  %u.dbg.spill = alloca i32, align 4
  %0 = alloca { i32, i32 }, align 4
  store i32 %u, ptr %u.dbg.spill, align 4
  call void @llvm.dbg.declare(metadata ptr %u.dbg.spill, metadata !2071, metadata !DIExpression()), !dbg !2072
  %_2 = icmp ugt i32 %u, 2147483647, !dbg !2073
  br i1 %_2, label %bb1, label %bb2, !dbg !2073

bb2:                                              ; preds = %start
  %1 = getelementptr inbounds { i32, i32 }, ptr %0, i32 0, i32 1, !dbg !2074
  store i32 %u, ptr %1, align 4, !dbg !2074
  store i32 0, ptr %0, align 4, !dbg !2074
  br label %bb3, !dbg !2075

bb1:                                              ; preds = %start
  store i32 1, ptr %0, align 4, !dbg !2076
  br label %bb3, !dbg !2075

bb3:                                              ; preds = %bb2, %bb1
  %2 = getelementptr inbounds { i32, i32 }, ptr %0, i32 0, i32 0, !dbg !2077
  %3 = load i32, ptr %2, align 4, !dbg !2077, !range !1310, !noundef !55
  %4 = getelementptr inbounds { i32, i32 }, ptr %0, i32 0, i32 1, !dbg !2077
  %5 = load i32, ptr %4, align 4, !dbg !2077
  %6 = insertvalue { i32, i32 } undef, i32 %3, 0, !dbg !2077
  %7 = insertvalue { i32, i32 } %6, i32 %5, 1, !dbg !2077
  ret { i32, i32 } %7, !dbg !2077
}

; core::convert::num::<impl core::convert::TryFrom<u32> for u16>::try_from
; Function Attrs: inlinehint noredzone nounwind
define internal { i16, i16 } @"_ZN4core7convert3num67_$LT$impl$u20$core..convert..TryFrom$LT$u32$GT$$u20$for$u20$u16$GT$8try_from17h15ccb945d40d457bE"(i32 %u) unnamed_addr #0 !dbg !2078 {
start:
  %u.dbg.spill = alloca i32, align 4
  %0 = alloca { i16, i16 }, align 2
  store i32 %u, ptr %u.dbg.spill, align 4
  call void @llvm.dbg.declare(metadata ptr %u.dbg.spill, metadata !2083, metadata !DIExpression()), !dbg !2084
  %_2 = icmp ugt i32 %u, 65535, !dbg !2085
  br i1 %_2, label %bb1, label %bb2, !dbg !2085

bb2:                                              ; preds = %start
  %_5 = trunc i32 %u to i16, !dbg !2086
  %1 = getelementptr inbounds { i16, i16 }, ptr %0, i32 0, i32 1, !dbg !2087
  store i16 %_5, ptr %1, align 2, !dbg !2087
  store i16 0, ptr %0, align 2, !dbg !2087
  br label %bb3, !dbg !2088

bb1:                                              ; preds = %start
  store i16 1, ptr %0, align 2, !dbg !2089
  br label %bb3, !dbg !2088

bb3:                                              ; preds = %bb2, %bb1
  %2 = getelementptr inbounds { i16, i16 }, ptr %0, i32 0, i32 0, !dbg !2090
  %3 = load i16, ptr %2, align 2, !dbg !2090, !range !1282, !noundef !55
  %4 = getelementptr inbounds { i16, i16 }, ptr %0, i32 0, i32 1, !dbg !2090
  %5 = load i16, ptr %4, align 2, !dbg !2090
  %6 = insertvalue { i16, i16 } undef, i16 %3, 0, !dbg !2090
  %7 = insertvalue { i16, i16 } %6, i16 %5, 1, !dbg !2090
  ret { i16, i16 } %7, !dbg !2090
}

; <T as core::convert::Into<U>>::into
; Function Attrs: noredzone nounwind
define hidden i64 @"_ZN50_$LT$T$u20$as$u20$core..convert..Into$LT$U$GT$$GT$4into17h14ee613e5498decaE"(i32 %self) unnamed_addr #2 !dbg !2091 {
start:
  %small.dbg.spill.i = alloca i32, align 4
  %self.dbg.spill = alloca i32, align 4
  store i32 %self, ptr %self.dbg.spill, align 4
  call void @llvm.dbg.declare(metadata ptr %self.dbg.spill, metadata !2097, metadata !DIExpression()), !dbg !2100
  store i32 %self, ptr %small.dbg.spill.i, align 4
  call void @llvm.dbg.declare(metadata ptr %small.dbg.spill.i, metadata !2101, metadata !DIExpression()), !dbg !2105
  %0 = zext i32 %self to i64, !dbg !2107
  ret i64 %0, !dbg !2108
}

; <T as core::convert::Into<U>>::into
; Function Attrs: noredzone nounwind
define hidden i128 @"_ZN50_$LT$T$u20$as$u20$core..convert..Into$LT$U$GT$$GT$4into17h1a47f88c95753281E"(i32 %self) unnamed_addr #2 !dbg !2109 {
start:
  %small.dbg.spill.i = alloca i32, align 4
  %self.dbg.spill = alloca i32, align 4
  store i32 %self, ptr %self.dbg.spill, align 4
  call void @llvm.dbg.declare(metadata ptr %self.dbg.spill, metadata !2113, metadata !DIExpression()), !dbg !2116
  store i32 %self, ptr %small.dbg.spill.i, align 4
  call void @llvm.dbg.declare(metadata ptr %small.dbg.spill.i, metadata !2117, metadata !DIExpression()), !dbg !2121
  %0 = zext i32 %self to i128, !dbg !2123
  ret i128 %0, !dbg !2124
}

; <T as core::convert::Into<U>>::into
; Function Attrs: noredzone nounwind
define hidden i64 @"_ZN50_$LT$T$u20$as$u20$core..convert..Into$LT$U$GT$$GT$4into17h1f52fe8c60e37f85E"(i32 %self) unnamed_addr #2 !dbg !2125 {
start:
  %small.dbg.spill.i = alloca i32, align 4
  %self.dbg.spill = alloca i32, align 4
  store i32 %self, ptr %self.dbg.spill, align 4
  call void @llvm.dbg.declare(metadata ptr %self.dbg.spill, metadata !2129, metadata !DIExpression()), !dbg !2132
  store i32 %self, ptr %small.dbg.spill.i, align 4
  call void @llvm.dbg.declare(metadata ptr %small.dbg.spill.i, metadata !2133, metadata !DIExpression()), !dbg !2137
  %0 = zext i32 %self to i64, !dbg !2139
  ret i64 %0, !dbg !2140
}

; <T as core::convert::Into<U>>::into
; Function Attrs: noredzone nounwind
define hidden i32 @"_ZN50_$LT$T$u20$as$u20$core..convert..Into$LT$U$GT$$GT$4into17hac2a16848fffbc64E"(i32 %self) unnamed_addr #2 !dbg !2141 {
start:
  %t.dbg.spill.i = alloca i32, align 4
  %self.dbg.spill = alloca i32, align 4
  store i32 %self, ptr %self.dbg.spill, align 4
  call void @llvm.dbg.declare(metadata ptr %self.dbg.spill, metadata !2145, metadata !DIExpression()), !dbg !2148
  store i32 %self, ptr %t.dbg.spill.i, align 4
  call void @llvm.dbg.declare(metadata ptr %t.dbg.spill.i, metadata !2149, metadata !DIExpression()), !dbg !2153
  ret i32 %self, !dbg !2155
}

; <T as core::convert::Into<U>>::into
; Function Attrs: noredzone nounwind
define hidden i128 @"_ZN50_$LT$T$u20$as$u20$core..convert..Into$LT$U$GT$$GT$4into17hf56ec6a816b4db16E"(i32 %self) unnamed_addr #2 !dbg !2156 {
start:
  %small.dbg.spill.i = alloca i32, align 4
  %self.dbg.spill = alloca i32, align 4
  store i32 %self, ptr %self.dbg.spill, align 4
  call void @llvm.dbg.declare(metadata ptr %self.dbg.spill, metadata !2160, metadata !DIExpression()), !dbg !2163
  store i32 %self, ptr %small.dbg.spill.i, align 4
  call void @llvm.dbg.declare(metadata ptr %small.dbg.spill.i, metadata !2164, metadata !DIExpression()), !dbg !2168
  %0 = zext i32 %self to i128, !dbg !2170
  ret i128 %0, !dbg !2171
}

; <f32 as core::ops::arith::MulAssign>::mul_assign
; Function Attrs: inlinehint noredzone nounwind
define internal void @"_ZN51_$LT$f32$u20$as$u20$core..ops..arith..MulAssign$GT$10mul_assign17hd407f01ce946a892E"(ptr align 4 %self, float %other) unnamed_addr #0 !dbg !2172 {
start:
  %other.dbg.spill = alloca float, align 4
  %self.dbg.spill = alloca ptr, align 8
  store ptr %self, ptr %self.dbg.spill, align 8
  call void @llvm.dbg.declare(metadata ptr %self.dbg.spill, metadata !2178, metadata !DIExpression()), !dbg !2180
  store float %other, ptr %other.dbg.spill, align 4
  call void @llvm.dbg.declare(metadata ptr %other.dbg.spill, metadata !2179, metadata !DIExpression()), !dbg !2181
  %0 = load float, ptr %self, align 4, !dbg !2182, !noundef !55
  %1 = fmul float %0, %other, !dbg !2182
  store float %1, ptr %self, align 4, !dbg !2182
  ret void, !dbg !2183
}

; <f64 as core::ops::arith::MulAssign>::mul_assign
; Function Attrs: inlinehint noredzone nounwind
define internal void @"_ZN51_$LT$f64$u20$as$u20$core..ops..arith..MulAssign$GT$10mul_assign17h3ef1b6f067cb1972E"(ptr align 8 %self, double %other) unnamed_addr #0 !dbg !2184 {
start:
  %other.dbg.spill = alloca double, align 8
  %self.dbg.spill = alloca ptr, align 8
  store ptr %self, ptr %self.dbg.spill, align 8
  call void @llvm.dbg.declare(metadata ptr %self.dbg.spill, metadata !2190, metadata !DIExpression()), !dbg !2192
  store double %other, ptr %other.dbg.spill, align 8
  call void @llvm.dbg.declare(metadata ptr %other.dbg.spill, metadata !2191, metadata !DIExpression()), !dbg !2193
  %0 = load double, ptr %self, align 8, !dbg !2194, !noundef !55
  %1 = fmul double %0, %other, !dbg !2194
  store double %1, ptr %self, align 8, !dbg !2194
  ret void, !dbg !2195
}

; <u32 as core::ops::arith::AddAssign>::add_assign
; Function Attrs: inlinehint noredzone nounwind
define internal void @"_ZN51_$LT$u32$u20$as$u20$core..ops..arith..AddAssign$GT$10add_assign17h4532a8441515deb2E"(ptr align 4 %self, i32 %other) unnamed_addr #0 !dbg !2196 {
start:
  %other.dbg.spill = alloca i32, align 4
  %self.dbg.spill = alloca ptr, align 8
  store ptr %self, ptr %self.dbg.spill, align 8
  call void @llvm.dbg.declare(metadata ptr %self.dbg.spill, metadata !2199, metadata !DIExpression()), !dbg !2201
  store i32 %other, ptr %other.dbg.spill, align 4
  call void @llvm.dbg.declare(metadata ptr %other.dbg.spill, metadata !2200, metadata !DIExpression()), !dbg !2202
  %0 = load i32, ptr %self, align 4, !dbg !2203, !noundef !55
  %1 = call { i32, i1 } @llvm.uadd.with.overflow.i32(i32 %0, i32 %other), !dbg !2203
  %_3.0 = extractvalue { i32, i1 } %1, 0, !dbg !2203
  %_3.1 = extractvalue { i32, i1 } %1, 1, !dbg !2203
  %2 = call i1 @llvm.expect.i1(i1 %_3.1, i1 false), !dbg !2203
  br i1 %2, label %panic, label %bb1, !dbg !2203

bb1:                                              ; preds = %start
  store i32 %_3.0, ptr %self, align 4, !dbg !2203
  ret void, !dbg !2204

panic:                                            ; preds = %start
; call core::panicking::panic
  call void @_ZN4core9panicking5panic17h758e89f926a8adfcE(ptr align 1 @str.3, i64 28, ptr align 8 @alloc2984) #7, !dbg !2203
  unreachable, !dbg !2203
}

; <u32 as core::ops::bit::BitOrAssign>::bitor_assign
; Function Attrs: inlinehint noredzone nounwind
define internal void @"_ZN51_$LT$u32$u20$as$u20$core..ops..bit..BitOrAssign$GT$12bitor_assign17h2525c30f8de8e26aE"(ptr align 4 %self, i32 %other) unnamed_addr #0 !dbg !2205 {
start:
  %other.dbg.spill = alloca i32, align 4
  %self.dbg.spill = alloca ptr, align 8
  store ptr %self, ptr %self.dbg.spill, align 8
  call void @llvm.dbg.declare(metadata ptr %self.dbg.spill, metadata !2208, metadata !DIExpression()), !dbg !2210
  store i32 %other, ptr %other.dbg.spill, align 4
  call void @llvm.dbg.declare(metadata ptr %other.dbg.spill, metadata !2209, metadata !DIExpression()), !dbg !2211
  %0 = load i32, ptr %self, align 4, !dbg !2212, !noundef !55
  %1 = or i32 %0, %other, !dbg !2212
  store i32 %1, ptr %self, align 4, !dbg !2212
  ret void, !dbg !2213
}

; <u64 as core::ops::arith::AddAssign>::add_assign
; Function Attrs: inlinehint noredzone nounwind
define internal void @"_ZN51_$LT$u64$u20$as$u20$core..ops..arith..AddAssign$GT$10add_assign17h5f015e2d65c7c2bbE"(ptr align 8 %self, i64 %other) unnamed_addr #0 !dbg !2214 {
start:
  %other.dbg.spill = alloca i64, align 8
  %self.dbg.spill = alloca ptr, align 8
  store ptr %self, ptr %self.dbg.spill, align 8
  call void @llvm.dbg.declare(metadata ptr %self.dbg.spill, metadata !2220, metadata !DIExpression()), !dbg !2222
  store i64 %other, ptr %other.dbg.spill, align 8
  call void @llvm.dbg.declare(metadata ptr %other.dbg.spill, metadata !2221, metadata !DIExpression()), !dbg !2223
  %0 = load i64, ptr %self, align 8, !dbg !2224, !noundef !55
  %1 = call { i64, i1 } @llvm.uadd.with.overflow.i64(i64 %0, i64 %other), !dbg !2224
  %_3.0 = extractvalue { i64, i1 } %1, 0, !dbg !2224
  %_3.1 = extractvalue { i64, i1 } %1, 1, !dbg !2224
  %2 = call i1 @llvm.expect.i1(i1 %_3.1, i1 false), !dbg !2224
  br i1 %2, label %panic, label %bb1, !dbg !2224

bb1:                                              ; preds = %start
  store i64 %_3.0, ptr %self, align 8, !dbg !2224
  ret void, !dbg !2225

panic:                                            ; preds = %start
; call core::panicking::panic
  call void @_ZN4core9panicking5panic17h758e89f926a8adfcE(ptr align 1 @str.3, i64 28, ptr align 8 @alloc2984) #7, !dbg !2224
  unreachable, !dbg !2224
}

; <u64 as core::ops::bit::BitOrAssign>::bitor_assign
; Function Attrs: inlinehint noredzone nounwind
define internal void @"_ZN51_$LT$u64$u20$as$u20$core..ops..bit..BitOrAssign$GT$12bitor_assign17he16abd10dc72a205E"(ptr align 8 %self, i64 %other) unnamed_addr #0 !dbg !2226 {
start:
  %other.dbg.spill = alloca i64, align 8
  %self.dbg.spill = alloca ptr, align 8
  store ptr %self, ptr %self.dbg.spill, align 8
  call void @llvm.dbg.declare(metadata ptr %self.dbg.spill, metadata !2229, metadata !DIExpression()), !dbg !2231
  store i64 %other, ptr %other.dbg.spill, align 8
  call void @llvm.dbg.declare(metadata ptr %other.dbg.spill, metadata !2230, metadata !DIExpression()), !dbg !2232
  %0 = load i64, ptr %self, align 8, !dbg !2233, !noundef !55
  %1 = or i64 %0, %other, !dbg !2233
  store i64 %1, ptr %self, align 8, !dbg !2233
  ret void, !dbg !2234
}

; <u32 as core::ops::bit::BitAndAssign>::bitand_assign
; Function Attrs: inlinehint noredzone nounwind
define internal void @"_ZN52_$LT$u32$u20$as$u20$core..ops..bit..BitAndAssign$GT$13bitand_assign17hf17545a87a581ec0E"(ptr align 4 %self, i32 %other) unnamed_addr #0 !dbg !2235 {
start:
  %other.dbg.spill = alloca i32, align 4
  %self.dbg.spill = alloca ptr, align 8
  store ptr %self, ptr %self.dbg.spill, align 8
  call void @llvm.dbg.declare(metadata ptr %self.dbg.spill, metadata !2238, metadata !DIExpression()), !dbg !2240
  store i32 %other, ptr %other.dbg.spill, align 4
  call void @llvm.dbg.declare(metadata ptr %other.dbg.spill, metadata !2239, metadata !DIExpression()), !dbg !2241
  %0 = load i32, ptr %self, align 4, !dbg !2242, !noundef !55
  %1 = and i32 %0, %other, !dbg !2242
  store i32 %1, ptr %self, align 4, !dbg !2242
  ret void, !dbg !2243
}

; <u64 as core::ops::bit::BitAndAssign>::bitand_assign
; Function Attrs: inlinehint noredzone nounwind
define internal void @"_ZN52_$LT$u64$u20$as$u20$core..ops..bit..BitAndAssign$GT$13bitand_assign17hbbf75f54ca22ec5aE"(ptr align 8 %self, i64 %other) unnamed_addr #0 !dbg !2244 {
start:
  %other.dbg.spill = alloca i64, align 8
  %self.dbg.spill = alloca ptr, align 8
  store ptr %self, ptr %self.dbg.spill, align 8
  call void @llvm.dbg.declare(metadata ptr %self.dbg.spill, metadata !2247, metadata !DIExpression()), !dbg !2249
  store i64 %other, ptr %other.dbg.spill, align 8
  call void @llvm.dbg.declare(metadata ptr %other.dbg.spill, metadata !2248, metadata !DIExpression()), !dbg !2250
  %0 = load i64, ptr %self, align 8, !dbg !2251, !noundef !55
  %1 = and i64 %0, %other, !dbg !2251
  store i64 %1, ptr %self, align 8, !dbg !2251
  ret void, !dbg !2252
}

; <T as core::convert::TryFrom<U>>::try_from
; Function Attrs: noredzone nounwind
define hidden i32 @"_ZN53_$LT$T$u20$as$u20$core..convert..TryFrom$LT$U$GT$$GT$8try_from17h0a2f5590c50d4e5aE"(i32 %value) unnamed_addr #2 !dbg !2253 {
start:
  %value.dbg.spill = alloca i32, align 4
  %0 = alloca i32, align 4
  store i32 %value, ptr %value.dbg.spill, align 4
  call void @llvm.dbg.declare(metadata ptr %value.dbg.spill, metadata !2258, metadata !DIExpression()), !dbg !2259
; call <T as core::convert::Into<U>>::into
  %_2 = call i32 @"_ZN50_$LT$T$u20$as$u20$core..convert..Into$LT$U$GT$$GT$4into17hac2a16848fffbc64E"(i32 %value) #8, !dbg !2260
  store i32 %_2, ptr %0, align 4, !dbg !2261
  %1 = load i32, ptr %0, align 4, !dbg !2262, !noundef !55
  ret i32 %1, !dbg !2262
}

; <T as core::convert::TryFrom<U>>::try_from
; Function Attrs: noredzone nounwind
define hidden i64 @"_ZN53_$LT$T$u20$as$u20$core..convert..TryFrom$LT$U$GT$$GT$8try_from17h6383b25dc18d30e0E"(i32 %value) unnamed_addr #2 !dbg !2263 {
start:
  %value.dbg.spill = alloca i32, align 4
  %0 = alloca i64, align 8
  store i32 %value, ptr %value.dbg.spill, align 4
  call void @llvm.dbg.declare(metadata ptr %value.dbg.spill, metadata !2267, metadata !DIExpression()), !dbg !2269
; call <T as core::convert::Into<U>>::into
  %_2 = call i64 @"_ZN50_$LT$T$u20$as$u20$core..convert..Into$LT$U$GT$$GT$4into17h1f52fe8c60e37f85E"(i32 %value) #8, !dbg !2270
  store i64 %_2, ptr %0, align 8, !dbg !2271
  %1 = load i64, ptr %0, align 8, !dbg !2272, !noundef !55
  ret i64 %1, !dbg !2272
}

; <T as core::convert::TryFrom<U>>::try_from
; Function Attrs: noredzone nounwind
define hidden i128 @"_ZN53_$LT$T$u20$as$u20$core..convert..TryFrom$LT$U$GT$$GT$8try_from17h690c0749e06d96d0E"(i32 %value) unnamed_addr #2 !dbg !2273 {
start:
  %value.dbg.spill = alloca i32, align 4
  %0 = alloca i128, align 8
  store i32 %value, ptr %value.dbg.spill, align 4
  call void @llvm.dbg.declare(metadata ptr %value.dbg.spill, metadata !2277, metadata !DIExpression()), !dbg !2279
; call <T as core::convert::Into<U>>::into
  %_2 = call i128 @"_ZN50_$LT$T$u20$as$u20$core..convert..Into$LT$U$GT$$GT$4into17hf56ec6a816b4db16E"(i32 %value) #8, !dbg !2280
  store i128 %_2, ptr %0, align 8, !dbg !2281
  %1 = load i128, ptr %0, align 8, !dbg !2282, !noundef !55
  ret i128 %1, !dbg !2282
}

; <T as core::convert::TryFrom<U>>::try_from
; Function Attrs: noredzone nounwind
define hidden i128 @"_ZN53_$LT$T$u20$as$u20$core..convert..TryFrom$LT$U$GT$$GT$8try_from17ha5807520236bcc32E"(i32 %value) unnamed_addr #2 !dbg !2283 {
start:
  %value.dbg.spill = alloca i32, align 4
  %0 = alloca i128, align 8
  store i32 %value, ptr %value.dbg.spill, align 4
  call void @llvm.dbg.declare(metadata ptr %value.dbg.spill, metadata !2287, metadata !DIExpression()), !dbg !2289
; call <T as core::convert::Into<U>>::into
  %_2 = call i128 @"_ZN50_$LT$T$u20$as$u20$core..convert..Into$LT$U$GT$$GT$4into17h1a47f88c95753281E"(i32 %value) #8, !dbg !2290
  store i128 %_2, ptr %0, align 8, !dbg !2291
  %1 = load i128, ptr %0, align 8, !dbg !2292, !noundef !55
  ret i128 %1, !dbg !2292
}

; <T as core::convert::TryFrom<U>>::try_from
; Function Attrs: noredzone nounwind
define hidden i64 @"_ZN53_$LT$T$u20$as$u20$core..convert..TryFrom$LT$U$GT$$GT$8try_from17hb1c7b7a9a731120bE"(i32 %value) unnamed_addr #2 !dbg !2293 {
start:
  %value.dbg.spill = alloca i32, align 4
  %0 = alloca i64, align 8
  store i32 %value, ptr %value.dbg.spill, align 4
  call void @llvm.dbg.declare(metadata ptr %value.dbg.spill, metadata !2297, metadata !DIExpression()), !dbg !2299
; call <T as core::convert::Into<U>>::into
  %_2 = call i64 @"_ZN50_$LT$T$u20$as$u20$core..convert..Into$LT$U$GT$$GT$4into17h14ee613e5498decaE"(i32 %value) #8, !dbg !2300
  store i64 %_2, ptr %0, align 8, !dbg !2301
  %1 = load i64, ptr %0, align 8, !dbg !2302, !noundef !55
  ret i64 %1, !dbg !2302
}

; <T as core::convert::TryInto<U>>::try_into
; Function Attrs: noredzone nounwind
define hidden { i16, i16 } @"_ZN53_$LT$T$u20$as$u20$core..convert..TryInto$LT$U$GT$$GT$8try_into17h032e5920bed993e3E"(i32 %self) unnamed_addr #2 !dbg !2303 {
start:
  %self.dbg.spill = alloca i32, align 4
  store i32 %self, ptr %self.dbg.spill, align 4
  call void @llvm.dbg.declare(metadata ptr %self.dbg.spill, metadata !2306, metadata !DIExpression()), !dbg !2309
; call core::convert::num::<impl core::convert::TryFrom<u32> for i16>::try_from
  %0 = call { i16, i16 } @"_ZN4core7convert3num67_$LT$impl$u20$core..convert..TryFrom$LT$u32$GT$$u20$for$u20$i16$GT$8try_from17h9f6ed281ec68108cE"(i32 %self) #8, !dbg !2310
  %1 = extractvalue { i16, i16 } %0, 0, !dbg !2310
  %2 = extractvalue { i16, i16 } %0, 1, !dbg !2310
  %3 = insertvalue { i16, i16 } undef, i16 %1, 0, !dbg !2311
  %4 = insertvalue { i16, i16 } %3, i16 %2, 1, !dbg !2311
  ret { i16, i16 } %4, !dbg !2311
}

; <T as core::convert::TryInto<U>>::try_into
; Function Attrs: noredzone nounwind
define hidden i64 @"_ZN53_$LT$T$u20$as$u20$core..convert..TryInto$LT$U$GT$$GT$8try_into17h324cedbde637274cE"(i32 %self) unnamed_addr #2 !dbg !2312 {
start:
  %self.dbg.spill = alloca i32, align 4
  store i32 %self, ptr %self.dbg.spill, align 4
  call void @llvm.dbg.declare(metadata ptr %self.dbg.spill, metadata !2314, metadata !DIExpression()), !dbg !2315
; call <T as core::convert::TryFrom<U>>::try_from
  %0 = call i64 @"_ZN53_$LT$T$u20$as$u20$core..convert..TryFrom$LT$U$GT$$GT$8try_from17h6383b25dc18d30e0E"(i32 %self) #8, !dbg !2316
  ret i64 %0, !dbg !2317
}

; <T as core::convert::TryInto<U>>::try_into
; Function Attrs: noredzone nounwind
define hidden { i16, i16 } @"_ZN53_$LT$T$u20$as$u20$core..convert..TryInto$LT$U$GT$$GT$8try_into17h4bb9afecc2be629bE"(i32 %self) unnamed_addr #2 !dbg !2318 {
start:
  %self.dbg.spill = alloca i32, align 4
  store i32 %self, ptr %self.dbg.spill, align 4
  call void @llvm.dbg.declare(metadata ptr %self.dbg.spill, metadata !2320, metadata !DIExpression()), !dbg !2323
; call core::convert::num::<impl core::convert::TryFrom<u32> for u16>::try_from
  %0 = call { i16, i16 } @"_ZN4core7convert3num67_$LT$impl$u20$core..convert..TryFrom$LT$u32$GT$$u20$for$u20$u16$GT$8try_from17h15ccb945d40d457bE"(i32 %self) #8, !dbg !2324
  %1 = extractvalue { i16, i16 } %0, 0, !dbg !2324
  %2 = extractvalue { i16, i16 } %0, 1, !dbg !2324
  %3 = insertvalue { i16, i16 } undef, i16 %1, 0, !dbg !2325
  %4 = insertvalue { i16, i16 } %3, i16 %2, 1, !dbg !2325
  ret { i16, i16 } %4, !dbg !2325
}

; <T as core::convert::TryInto<U>>::try_into
; Function Attrs: noredzone nounwind
define hidden i128 @"_ZN53_$LT$T$u20$as$u20$core..convert..TryInto$LT$U$GT$$GT$8try_into17h58c3cd5ad15d7d77E"(i32 %self) unnamed_addr #2 !dbg !2326 {
start:
  %self.dbg.spill = alloca i32, align 4
  store i32 %self, ptr %self.dbg.spill, align 4
  call void @llvm.dbg.declare(metadata ptr %self.dbg.spill, metadata !2328, metadata !DIExpression()), !dbg !2329
; call <T as core::convert::TryFrom<U>>::try_from
  %0 = call i128 @"_ZN53_$LT$T$u20$as$u20$core..convert..TryFrom$LT$U$GT$$GT$8try_from17ha5807520236bcc32E"(i32 %self) #8, !dbg !2330
  ret i128 %0, !dbg !2331
}

; <T as core::convert::TryInto<U>>::try_into
; Function Attrs: noredzone nounwind
define hidden { i8, i8 } @"_ZN53_$LT$T$u20$as$u20$core..convert..TryInto$LT$U$GT$$GT$8try_into17h60118e543d39412bE"(i32 %self) unnamed_addr #2 !dbg !2332 {
start:
  %self.dbg.spill = alloca i32, align 4
  store i32 %self, ptr %self.dbg.spill, align 4
  call void @llvm.dbg.declare(metadata ptr %self.dbg.spill, metadata !2334, metadata !DIExpression()), !dbg !2337
; call core::convert::num::<impl core::convert::TryFrom<u32> for i8>::try_from
  %0 = call { i8, i8 } @"_ZN4core7convert3num66_$LT$impl$u20$core..convert..TryFrom$LT$u32$GT$$u20$for$u20$i8$GT$8try_from17hd4f1ec84066d54e1E"(i32 %self) #8, !dbg !2338
  %1 = extractvalue { i8, i8 } %0, 0, !dbg !2338
  %2 = trunc i8 %1 to i1, !dbg !2338
  %3 = extractvalue { i8, i8 } %0, 1, !dbg !2338
  %4 = zext i1 %2 to i8, !dbg !2339
  %5 = insertvalue { i8, i8 } undef, i8 %4, 0, !dbg !2339
  %6 = insertvalue { i8, i8 } %5, i8 %3, 1, !dbg !2339
  ret { i8, i8 } %6, !dbg !2339
}

; <T as core::convert::TryInto<U>>::try_into
; Function Attrs: noredzone nounwind
define hidden { i64, i64 } @"_ZN53_$LT$T$u20$as$u20$core..convert..TryInto$LT$U$GT$$GT$8try_into17h7d7baf17e285cdfaE"(i32 %self) unnamed_addr #2 !dbg !2340 {
start:
  %self.dbg.spill = alloca i32, align 4
  store i32 %self, ptr %self.dbg.spill, align 4
  call void @llvm.dbg.declare(metadata ptr %self.dbg.spill, metadata !2342, metadata !DIExpression()), !dbg !2345
; call core::convert::num::ptr_try_from_impls::<impl core::convert::TryFrom<u32> for usize>::try_from
  %0 = call { i64, i64 } @"_ZN4core7convert3num18ptr_try_from_impls69_$LT$impl$u20$core..convert..TryFrom$LT$u32$GT$$u20$for$u20$usize$GT$8try_from17h3737b0ebcd62a757E"(i32 %self) #8, !dbg !2346
  %1 = extractvalue { i64, i64 } %0, 0, !dbg !2346
  %2 = extractvalue { i64, i64 } %0, 1, !dbg !2346
  %3 = insertvalue { i64, i64 } undef, i64 %1, 0, !dbg !2347
  %4 = insertvalue { i64, i64 } %3, i64 %2, 1, !dbg !2347
  ret { i64, i64 } %4, !dbg !2347
}

; <T as core::convert::TryInto<U>>::try_into
; Function Attrs: noredzone nounwind
define hidden { i32, i32 } @"_ZN53_$LT$T$u20$as$u20$core..convert..TryInto$LT$U$GT$$GT$8try_into17h96078ad74649c308E"(i32 %self) unnamed_addr #2 !dbg !2348 {
start:
  %self.dbg.spill = alloca i32, align 4
  store i32 %self, ptr %self.dbg.spill, align 4
  call void @llvm.dbg.declare(metadata ptr %self.dbg.spill, metadata !2350, metadata !DIExpression()), !dbg !2353
; call core::convert::num::<impl core::convert::TryFrom<u32> for i32>::try_from
  %0 = call { i32, i32 } @"_ZN4core7convert3num67_$LT$impl$u20$core..convert..TryFrom$LT$u32$GT$$u20$for$u20$i32$GT$8try_from17hce5fb3358ed08592E"(i32 %self) #8, !dbg !2354
  %1 = extractvalue { i32, i32 } %0, 0, !dbg !2354
  %2 = extractvalue { i32, i32 } %0, 1, !dbg !2354
  %3 = insertvalue { i32, i32 } undef, i32 %1, 0, !dbg !2355
  %4 = insertvalue { i32, i32 } %3, i32 %2, 1, !dbg !2355
  ret { i32, i32 } %4, !dbg !2355
}

; <T as core::convert::TryInto<U>>::try_into
; Function Attrs: noredzone nounwind
define hidden i64 @"_ZN53_$LT$T$u20$as$u20$core..convert..TryInto$LT$U$GT$$GT$8try_into17ha8f8c741ac3eb148E"(i32 %self) unnamed_addr #2 !dbg !2356 {
start:
  %self.dbg.spill = alloca i32, align 4
  store i32 %self, ptr %self.dbg.spill, align 4
  call void @llvm.dbg.declare(metadata ptr %self.dbg.spill, metadata !2358, metadata !DIExpression()), !dbg !2359
; call <T as core::convert::TryFrom<U>>::try_from
  %0 = call i64 @"_ZN53_$LT$T$u20$as$u20$core..convert..TryFrom$LT$U$GT$$GT$8try_from17hb1c7b7a9a731120bE"(i32 %self) #8, !dbg !2360
  ret i64 %0, !dbg !2361
}

; <T as core::convert::TryInto<U>>::try_into
; Function Attrs: noredzone nounwind
define hidden i128 @"_ZN53_$LT$T$u20$as$u20$core..convert..TryInto$LT$U$GT$$GT$8try_into17hbb6c542b4f0ee1cdE"(i32 %self) unnamed_addr #2 !dbg !2362 {
start:
  %self.dbg.spill = alloca i32, align 4
  store i32 %self, ptr %self.dbg.spill, align 4
  call void @llvm.dbg.declare(metadata ptr %self.dbg.spill, metadata !2364, metadata !DIExpression()), !dbg !2365
; call <T as core::convert::TryFrom<U>>::try_from
  %0 = call i128 @"_ZN53_$LT$T$u20$as$u20$core..convert..TryFrom$LT$U$GT$$GT$8try_from17h690c0749e06d96d0E"(i32 %self) #8, !dbg !2366
  ret i128 %0, !dbg !2367
}

; <T as core::convert::TryInto<U>>::try_into
; Function Attrs: noredzone nounwind
define hidden { i8, i8 } @"_ZN53_$LT$T$u20$as$u20$core..convert..TryInto$LT$U$GT$$GT$8try_into17hbf65a535aa301d3dE"(i32 %self) unnamed_addr #2 !dbg !2368 {
start:
  %self.dbg.spill = alloca i32, align 4
  store i32 %self, ptr %self.dbg.spill, align 4
  call void @llvm.dbg.declare(metadata ptr %self.dbg.spill, metadata !2370, metadata !DIExpression()), !dbg !2373
; call core::convert::num::<impl core::convert::TryFrom<u32> for u8>::try_from
  %0 = call { i8, i8 } @"_ZN4core7convert3num66_$LT$impl$u20$core..convert..TryFrom$LT$u32$GT$$u20$for$u20$u8$GT$8try_from17h174fc853301a3976E"(i32 %self) #8, !dbg !2374
  %1 = extractvalue { i8, i8 } %0, 0, !dbg !2374
  %2 = trunc i8 %1 to i1, !dbg !2374
  %3 = extractvalue { i8, i8 } %0, 1, !dbg !2374
  %4 = zext i1 %2 to i8, !dbg !2375
  %5 = insertvalue { i8, i8 } undef, i8 %4, 0, !dbg !2375
  %6 = insertvalue { i8, i8 } %5, i8 %3, 1, !dbg !2375
  ret { i8, i8 } %6, !dbg !2375
}

; <T as core::convert::TryInto<U>>::try_into
; Function Attrs: noredzone nounwind
define hidden { i64, i64 } @"_ZN53_$LT$T$u20$as$u20$core..convert..TryInto$LT$U$GT$$GT$8try_into17hde4865e73e803aadE"(i32 %self) unnamed_addr #2 !dbg !2376 {
start:
  %self.dbg.spill = alloca i32, align 4
  store i32 %self, ptr %self.dbg.spill, align 4
  call void @llvm.dbg.declare(metadata ptr %self.dbg.spill, metadata !2378, metadata !DIExpression()), !dbg !2381
; call core::convert::num::ptr_try_from_impls::<impl core::convert::TryFrom<u32> for isize>::try_from
  %0 = call { i64, i64 } @"_ZN4core7convert3num18ptr_try_from_impls69_$LT$impl$u20$core..convert..TryFrom$LT$u32$GT$$u20$for$u20$isize$GT$8try_from17h52254b8da1222254E"(i32 %self) #8, !dbg !2382
  %1 = extractvalue { i64, i64 } %0, 0, !dbg !2382
  %2 = extractvalue { i64, i64 } %0, 1, !dbg !2382
  %3 = insertvalue { i64, i64 } undef, i64 %1, 0, !dbg !2383
  %4 = insertvalue { i64, i64 } %3, i64 %2, 1, !dbg !2383
  ret { i64, i64 } %4, !dbg !2383
}

; <T as core::convert::TryInto<U>>::try_into
; Function Attrs: noredzone nounwind
define hidden i32 @"_ZN53_$LT$T$u20$as$u20$core..convert..TryInto$LT$U$GT$$GT$8try_into17hea6ccac3b4677776E"(i32 %self) unnamed_addr #2 !dbg !2384 {
start:
  %self.dbg.spill = alloca i32, align 4
  store i32 %self, ptr %self.dbg.spill, align 4
  call void @llvm.dbg.declare(metadata ptr %self.dbg.spill, metadata !2386, metadata !DIExpression()), !dbg !2387
; call <T as core::convert::TryFrom<U>>::try_from
  %0 = call i32 @"_ZN53_$LT$T$u20$as$u20$core..convert..TryFrom$LT$U$GT$$GT$8try_from17h0a2f5590c50d4e5aE"(i32 %self) #8, !dbg !2388
  ret i32 %0, !dbg !2389
}

; <u8 as core::ops::bit::Shl<u32>>::shl
; Function Attrs: inlinehint noredzone nounwind
define internal i8 @"_ZN53_$LT$u8$u20$as$u20$core..ops..bit..Shl$LT$u32$GT$$GT$3shl17hd1cd9341d747a10fE"(i8 %self, i32 %other) unnamed_addr #0 !dbg !2390 {
start:
  %other.dbg.spill = alloca i32, align 4
  %self.dbg.spill = alloca i8, align 1
  store i8 %self, ptr %self.dbg.spill, align 1
  call void @llvm.dbg.declare(metadata ptr %self.dbg.spill, metadata !2395, metadata !DIExpression()), !dbg !2397
  store i32 %other, ptr %other.dbg.spill, align 4
  call void @llvm.dbg.declare(metadata ptr %other.dbg.spill, metadata !2396, metadata !DIExpression()), !dbg !2398
  %0 = and i32 %other, -8, !dbg !2399
  %_3.1 = icmp ne i32 %0, 0, !dbg !2399
  %1 = trunc i32 %other to i8, !dbg !2399
  %2 = and i8 %1, 7, !dbg !2399
  %_3.0 = shl i8 %self, %2, !dbg !2399
  %3 = call i1 @llvm.expect.i1(i1 %_3.1, i1 false), !dbg !2399
  br i1 %3, label %panic, label %bb1, !dbg !2399

bb1:                                              ; preds = %start
  ret i8 %_3.0, !dbg !2400

panic:                                            ; preds = %start
; call core::panicking::panic
  call void @_ZN4core9panicking5panic17h758e89f926a8adfcE(ptr align 1 @str.0, i64 35, ptr align 8 @alloc2938) #7, !dbg !2399
  unreachable, !dbg !2399
}

; <u16 as core::ops::bit::Shl<u32>>::shl
; Function Attrs: inlinehint noredzone nounwind
define internal i16 @"_ZN54_$LT$u16$u20$as$u20$core..ops..bit..Shl$LT$u32$GT$$GT$3shl17hc7dd86342acfbf3fE"(i16 %self, i32 %other) unnamed_addr #0 !dbg !2401 {
start:
  %other.dbg.spill = alloca i32, align 4
  %self.dbg.spill = alloca i16, align 2
  store i16 %self, ptr %self.dbg.spill, align 2
  call void @llvm.dbg.declare(metadata ptr %self.dbg.spill, metadata !2406, metadata !DIExpression()), !dbg !2408
  store i32 %other, ptr %other.dbg.spill, align 4
  call void @llvm.dbg.declare(metadata ptr %other.dbg.spill, metadata !2407, metadata !DIExpression()), !dbg !2409
  %0 = and i32 %other, -16, !dbg !2410
  %_3.1 = icmp ne i32 %0, 0, !dbg !2410
  %1 = trunc i32 %other to i16, !dbg !2410
  %2 = and i16 %1, 15, !dbg !2410
  %_3.0 = shl i16 %self, %2, !dbg !2410
  %3 = call i1 @llvm.expect.i1(i1 %_3.1, i1 false), !dbg !2410
  br i1 %3, label %panic, label %bb1, !dbg !2410

bb1:                                              ; preds = %start
  ret i16 %_3.0, !dbg !2411

panic:                                            ; preds = %start
; call core::panicking::panic
  call void @_ZN4core9panicking5panic17h758e89f926a8adfcE(ptr align 1 @str.0, i64 35, ptr align 8 @alloc2938) #7, !dbg !2410
  unreachable, !dbg !2410
}

; <u64 as core::ops::bit::Shl<u32>>::shl
; Function Attrs: inlinehint noredzone nounwind
define internal i64 @"_ZN54_$LT$u64$u20$as$u20$core..ops..bit..Shl$LT$u32$GT$$GT$3shl17hc57a275ad2428f8aE"(i64 %self, i32 %other) unnamed_addr #0 !dbg !2412 {
start:
  %other.dbg.spill = alloca i32, align 4
  %self.dbg.spill = alloca i64, align 8
  store i64 %self, ptr %self.dbg.spill, align 8
  call void @llvm.dbg.declare(metadata ptr %self.dbg.spill, metadata !2417, metadata !DIExpression()), !dbg !2419
  store i32 %other, ptr %other.dbg.spill, align 4
  call void @llvm.dbg.declare(metadata ptr %other.dbg.spill, metadata !2418, metadata !DIExpression()), !dbg !2420
  %0 = and i32 %other, -64, !dbg !2421
  %_3.1 = icmp ne i32 %0, 0, !dbg !2421
  %1 = zext i32 %other to i64, !dbg !2421
  %2 = and i64 %1, 63, !dbg !2421
  %_3.0 = shl i64 %self, %2, !dbg !2421
  %3 = call i1 @llvm.expect.i1(i1 %_3.1, i1 false), !dbg !2421
  br i1 %3, label %panic, label %bb1, !dbg !2421

bb1:                                              ; preds = %start
  ret i64 %_3.0, !dbg !2422

panic:                                            ; preds = %start
; call core::panicking::panic
  call void @_ZN4core9panicking5panic17h758e89f926a8adfcE(ptr align 1 @str.0, i64 35, ptr align 8 @alloc2938) #7, !dbg !2421
  unreachable, !dbg !2421
}

; <u64 as core::ops::bit::Shr<u32>>::shr
; Function Attrs: inlinehint noredzone nounwind
define internal i64 @"_ZN54_$LT$u64$u20$as$u20$core..ops..bit..Shr$LT$u32$GT$$GT$3shr17h509dfa5e95e06062E"(i64 %self, i32 %other) unnamed_addr #0 !dbg !2423 {
start:
  %other.dbg.spill = alloca i32, align 4
  %self.dbg.spill = alloca i64, align 8
  store i64 %self, ptr %self.dbg.spill, align 8
  call void @llvm.dbg.declare(metadata ptr %self.dbg.spill, metadata !2426, metadata !DIExpression()), !dbg !2428
  store i32 %other, ptr %other.dbg.spill, align 4
  call void @llvm.dbg.declare(metadata ptr %other.dbg.spill, metadata !2427, metadata !DIExpression()), !dbg !2429
  %0 = and i32 %other, -64, !dbg !2430
  %_3.1 = icmp ne i32 %0, 0, !dbg !2430
  %1 = zext i32 %other to i64, !dbg !2430
  %2 = and i64 %1, 63, !dbg !2430
  %_3.0 = lshr i64 %self, %2, !dbg !2430
  %3 = call i1 @llvm.expect.i1(i1 %_3.1, i1 false), !dbg !2430
  br i1 %3, label %panic, label %bb1, !dbg !2430

bb1:                                              ; preds = %start
  ret i64 %_3.0, !dbg !2431

panic:                                            ; preds = %start
; call core::panicking::panic
  call void @_ZN4core9panicking5panic17h758e89f926a8adfcE(ptr align 1 @str.1, i64 36, ptr align 8 @alloc2940) #7, !dbg !2430
  unreachable, !dbg !2430
}

; <i128 as core::ops::bit::Shl<u32>>::shl
; Function Attrs: inlinehint noredzone nounwind
define internal i128 @"_ZN55_$LT$i128$u20$as$u20$core..ops..bit..Shl$LT$u32$GT$$GT$3shl17h74b5783f753ac711E"(i128 %self, i32 %other) unnamed_addr #0 !dbg !2432 {
start:
  %other.dbg.spill = alloca i32, align 4
  %self.dbg.spill = alloca i128, align 8
  store i128 %self, ptr %self.dbg.spill, align 8
  call void @llvm.dbg.declare(metadata ptr %self.dbg.spill, metadata !2437, metadata !DIExpression()), !dbg !2439
  store i32 %other, ptr %other.dbg.spill, align 4
  call void @llvm.dbg.declare(metadata ptr %other.dbg.spill, metadata !2438, metadata !DIExpression()), !dbg !2440
  %0 = and i32 %other, -128, !dbg !2441
  %_3.1 = icmp ne i32 %0, 0, !dbg !2441
  %1 = zext i32 %other to i128, !dbg !2441
  %2 = and i128 %1, 127, !dbg !2441
  %_3.0 = shl i128 %self, %2, !dbg !2441
  %3 = call i1 @llvm.expect.i1(i1 %_3.1, i1 false), !dbg !2441
  br i1 %3, label %panic, label %bb1, !dbg !2441

bb1:                                              ; preds = %start
  ret i128 %_3.0, !dbg !2442

panic:                                            ; preds = %start
; call core::panicking::panic
  call void @_ZN4core9panicking5panic17h758e89f926a8adfcE(ptr align 1 @str.0, i64 35, ptr align 8 @alloc2938) #7, !dbg !2441
  unreachable, !dbg !2441
}

; <u32 as core::ops::bit::ShlAssign<i32>>::shl_assign
; Function Attrs: inlinehint noredzone nounwind
define internal void @"_ZN60_$LT$u32$u20$as$u20$core..ops..bit..ShlAssign$LT$i32$GT$$GT$10shl_assign17h43a2b4708988db97E"(ptr align 4 %self, i32 %other) unnamed_addr #0 !dbg !2443 {
start:
  %other.dbg.spill = alloca i32, align 4
  %self.dbg.spill = alloca ptr, align 8
  store ptr %self, ptr %self.dbg.spill, align 8
  call void @llvm.dbg.declare(metadata ptr %self.dbg.spill, metadata !2448, metadata !DIExpression()), !dbg !2450
  store i32 %other, ptr %other.dbg.spill, align 4
  call void @llvm.dbg.declare(metadata ptr %other.dbg.spill, metadata !2449, metadata !DIExpression()), !dbg !2451
  %0 = load i32, ptr %self, align 4, !dbg !2452, !noundef !55
  %1 = and i32 %other, -32, !dbg !2452
  %_3.1 = icmp ne i32 %1, 0, !dbg !2452
  %2 = and i32 %other, 31, !dbg !2452
  %_3.0 = shl i32 %0, %2, !dbg !2452
  %3 = call i1 @llvm.expect.i1(i1 %_3.1, i1 false), !dbg !2452
  br i1 %3, label %panic, label %bb1, !dbg !2452

bb1:                                              ; preds = %start
  store i32 %_3.0, ptr %self, align 4, !dbg !2452
  ret void, !dbg !2453

panic:                                            ; preds = %start
; call core::panicking::panic
  call void @_ZN4core9panicking5panic17h758e89f926a8adfcE(ptr align 1 @str.0, i64 35, ptr align 8 @alloc2986) #7, !dbg !2452
  unreachable, !dbg !2452
}

; <u64 as core::ops::bit::ShlAssign<i32>>::shl_assign
; Function Attrs: inlinehint noredzone nounwind
define internal void @"_ZN60_$LT$u64$u20$as$u20$core..ops..bit..ShlAssign$LT$i32$GT$$GT$10shl_assign17h02fe349ba58562d1E"(ptr align 8 %self, i32 %other) unnamed_addr #0 !dbg !2454 {
start:
  %other.dbg.spill = alloca i32, align 4
  %self.dbg.spill = alloca ptr, align 8
  store ptr %self, ptr %self.dbg.spill, align 8
  call void @llvm.dbg.declare(metadata ptr %self.dbg.spill, metadata !2459, metadata !DIExpression()), !dbg !2461
  store i32 %other, ptr %other.dbg.spill, align 4
  call void @llvm.dbg.declare(metadata ptr %other.dbg.spill, metadata !2460, metadata !DIExpression()), !dbg !2462
  %0 = load i64, ptr %self, align 8, !dbg !2463, !noundef !55
  %1 = and i32 %other, -64, !dbg !2463
  %_3.1 = icmp ne i32 %1, 0, !dbg !2463
  %2 = zext i32 %other to i64, !dbg !2463
  %3 = and i64 %2, 63, !dbg !2463
  %_3.0 = shl i64 %0, %3, !dbg !2463
  %4 = call i1 @llvm.expect.i1(i1 %_3.1, i1 false), !dbg !2463
  br i1 %4, label %panic, label %bb1, !dbg !2463

bb1:                                              ; preds = %start
  store i64 %_3.0, ptr %self, align 8, !dbg !2463
  ret void, !dbg !2464

panic:                                            ; preds = %start
; call core::panicking::panic
  call void @_ZN4core9panicking5panic17h758e89f926a8adfcE(ptr align 1 @str.0, i64 35, ptr align 8 @alloc2986) #7, !dbg !2463
  unreachable, !dbg !2463
}

; <u64 as core::ops::bit::ShrAssign<u32>>::shr_assign
; Function Attrs: inlinehint noredzone nounwind
define internal void @"_ZN60_$LT$u64$u20$as$u20$core..ops..bit..ShrAssign$LT$u32$GT$$GT$10shr_assign17h3faf87d4be03508cE"(ptr align 8 %self, i32 %other) unnamed_addr #0 !dbg !2465 {
start:
  %other.dbg.spill = alloca i32, align 4
  %self.dbg.spill = alloca ptr, align 8
  store ptr %self, ptr %self.dbg.spill, align 8
  call void @llvm.dbg.declare(metadata ptr %self.dbg.spill, metadata !2470, metadata !DIExpression()), !dbg !2472
  store i32 %other, ptr %other.dbg.spill, align 4
  call void @llvm.dbg.declare(metadata ptr %other.dbg.spill, metadata !2471, metadata !DIExpression()), !dbg !2473
  %0 = load i64, ptr %self, align 8, !dbg !2474, !noundef !55
  %1 = and i32 %other, -64, !dbg !2474
  %_3.1 = icmp ne i32 %1, 0, !dbg !2474
  %2 = zext i32 %other to i64, !dbg !2474
  %3 = and i64 %2, 63, !dbg !2474
  %_3.0 = lshr i64 %0, %3, !dbg !2474
  %4 = call i1 @llvm.expect.i1(i1 %_3.1, i1 false), !dbg !2474
  br i1 %4, label %panic, label %bb1, !dbg !2474

bb1:                                              ; preds = %start
  store i64 %_3.0, ptr %self, align 8, !dbg !2474
  ret void, !dbg !2475

panic:                                            ; preds = %start
; call core::panicking::panic
  call void @_ZN4core9panicking5panic17h758e89f926a8adfcE(ptr align 1 @str.1, i64 36, ptr align 8 @alloc2944) #7, !dbg !2474
  unreachable, !dbg !2474
}

; compiler_builtins::float::add::add
; Function Attrs: noredzone nounwind
define internal float @_ZN17compiler_builtins5float3add3add17h01b7ac090da4ab5aE(float %a, float %b) unnamed_addr #2 !dbg !2476 {
start:
  %rhs.dbg.spill.i = alloca i32, align 4
  %self.dbg.spill.i = alloca i32, align 4
  %round_guard_sticky.dbg.spill = alloca i32, align 4
  %a_significand_i32.dbg.spill = alloca i32, align 4
  %sticky.dbg.spill10 = alloca i32, align 4
  %shift.dbg.spill8 = alloca i32, align 4
  %sticky.dbg.spill5 = alloca i32, align 4
  %shift.dbg.spill = alloca i32, align 4
  %sticky.dbg.spill = alloca i32, align 4
  %subtraction.dbg.spill = alloca i8, align 1
  %result_sign.dbg.spill = alloca i32, align 4
  %significand.dbg.spill2 = alloca i32, align 4
  %exponent.dbg.spill1 = alloca i32, align 4
  %significand.dbg.spill = alloca i32, align 4
  %exponent.dbg.spill = alloca i32, align 4
  %tmp.dbg.spill = alloca i32, align 4
  %qnan_rep.dbg.spill = alloca i32, align 4
  %quiet_bit.dbg.spill = alloca i32, align 4
  %exponent_mask.dbg.spill = alloca i32, align 4
  %abs_mask.dbg.spill = alloca i32, align 4
  %significand_mask.dbg.spill = alloca i32, align 4
  %implicit_bit.dbg.spill = alloca i32, align 4
  %max_exponent.dbg.spill = alloca i32, align 4
  %significand_bits.dbg.spill = alloca i32, align 4
  %one.dbg.spill = alloca i32, align 4
  %b.dbg.spill = alloca float, align 4
  %a.dbg.spill = alloca float, align 4
  %result = alloca i32, align 4
  %_221 = alloca i32, align 4
  %_214 = alloca i32, align 4
  %_193 = alloca i32, align 4
  %_190 = alloca i32, align 4
  %_186 = alloca i32, align 4
  %_182 = alloca i32, align 4
  %_165 = alloca i32, align 4
  %_161 = alloca i32, align 4
  %_147 = alloca i32, align 4
  %_140 = alloca i32, align 4
  %_133 = alloca i32, align 4
  %align = alloca i32, align 4
  %_114 = alloca i32, align 4
  %b_significand = alloca i32, align 4
  %a_significand = alloca i32, align 4
  %b_exponent = alloca i32, align 4
  %a_exponent = alloca i32, align 4
  %_81 = alloca i32, align 4
  %_74 = alloca i32, align 4
  %_70 = alloca i32, align 4
  %_59 = alloca i32, align 4
  %_40 = alloca i32, align 4
  %_37 = alloca i32, align 4
  %_33 = alloca i32, align 4
  %_30 = alloca i32, align 4
  %_27 = alloca i8, align 1
  %b_abs = alloca i32, align 4
  %a_abs = alloca i32, align 4
  %b_rep = alloca i32, align 4
  %a_rep = alloca i32, align 4
  %inf_rep = alloca i32, align 4
  %sign_bit = alloca i32, align 4
  %bits = alloca i32, align 4
  %zero = alloca i32, align 4
  %0 = alloca float, align 4
  store float %a, ptr %a.dbg.spill, align 4
  call void @llvm.dbg.declare(metadata ptr %a.dbg.spill, metadata !2480, metadata !DIExpression()), !dbg !2556
  store float %b, ptr %b.dbg.spill, align 4
  call void @llvm.dbg.declare(metadata ptr %b.dbg.spill, metadata !2481, metadata !DIExpression()), !dbg !2557
  call void @llvm.dbg.declare(metadata ptr %zero, metadata !2484, metadata !DIExpression()), !dbg !2558
  call void @llvm.dbg.declare(metadata ptr %bits, metadata !2486, metadata !DIExpression()), !dbg !2559
  call void @llvm.dbg.declare(metadata ptr %sign_bit, metadata !2496, metadata !DIExpression()), !dbg !2560
  call void @llvm.dbg.declare(metadata ptr %inf_rep, metadata !2502, metadata !DIExpression()), !dbg !2561
  call void @llvm.dbg.declare(metadata ptr %a_rep, metadata !2508, metadata !DIExpression()), !dbg !2562
  call void @llvm.dbg.declare(metadata ptr %b_rep, metadata !2510, metadata !DIExpression()), !dbg !2563
  call void @llvm.dbg.declare(metadata ptr %a_abs, metadata !2512, metadata !DIExpression()), !dbg !2564
  call void @llvm.dbg.declare(metadata ptr %b_abs, metadata !2514, metadata !DIExpression()), !dbg !2565
  call void @llvm.dbg.declare(metadata ptr %a_exponent, metadata !2518, metadata !DIExpression()), !dbg !2566
  call void @llvm.dbg.declare(metadata ptr %b_exponent, metadata !2520, metadata !DIExpression()), !dbg !2567
  call void @llvm.dbg.declare(metadata ptr %a_significand, metadata !2522, metadata !DIExpression()), !dbg !2568
  call void @llvm.dbg.declare(metadata ptr %b_significand, metadata !2524, metadata !DIExpression()), !dbg !2569
  call void @llvm.dbg.declare(metadata ptr %align, metadata !2536, metadata !DIExpression()), !dbg !2570
  call void @llvm.dbg.declare(metadata ptr %result, metadata !2552, metadata !DIExpression()), !dbg !2571
  store i32 1, ptr %one.dbg.spill, align 4, !dbg !2572
  call void @llvm.dbg.declare(metadata ptr %one.dbg.spill, metadata !2482, metadata !DIExpression()), !dbg !2573
  store i32 0, ptr %zero, align 4, !dbg !2574
; call <u32 as compiler_builtins::int::CastInto<u32>>::cast
  %1 = call i32 @"_ZN67_$LT$u32$u20$as$u20$compiler_builtins..int..CastInto$LT$u32$GT$$GT$4cast17h1062d3852e95b13fE"(i32 32) #8, !dbg !2575
  store i32 %1, ptr %bits, align 4, !dbg !2575
  store i32 23, ptr %significand_bits.dbg.spill, align 4, !dbg !2576
  call void @llvm.dbg.declare(metadata ptr %significand_bits.dbg.spill, metadata !2488, metadata !DIExpression()), !dbg !2577
  store i32 255, ptr %max_exponent.dbg.spill, align 4, !dbg !2578
  call void @llvm.dbg.declare(metadata ptr %max_exponent.dbg.spill, metadata !2490, metadata !DIExpression()), !dbg !2579
  store i32 8388608, ptr %implicit_bit.dbg.spill, align 4, !dbg !2580
  call void @llvm.dbg.declare(metadata ptr %implicit_bit.dbg.spill, metadata !2492, metadata !DIExpression()), !dbg !2581
  store i32 8388607, ptr %significand_mask.dbg.spill, align 4, !dbg !2582
  call void @llvm.dbg.declare(metadata ptr %significand_mask.dbg.spill, metadata !2494, metadata !DIExpression()), !dbg !2583
  store i32 -2147483648, ptr %sign_bit, align 4, !dbg !2584
  %_13 = load i32, ptr %sign_bit, align 4, !dbg !2585, !noundef !55
; call <u32 as core::ops::arith::Sub>::sub
  %abs_mask = call i32 @"_ZN45_$LT$u32$u20$as$u20$core..ops..arith..Sub$GT$3sub17h70e79c8428c0bd0fE"(i32 %_13, i32 1) #8, !dbg !2585
  store i32 %abs_mask, ptr %abs_mask.dbg.spill, align 4, !dbg !2585
  call void @llvm.dbg.declare(metadata ptr %abs_mask.dbg.spill, metadata !2498, metadata !DIExpression()), !dbg !2586
  store i32 2139095040, ptr %exponent_mask.dbg.spill, align 4, !dbg !2587
  call void @llvm.dbg.declare(metadata ptr %exponent_mask.dbg.spill, metadata !2500, metadata !DIExpression()), !dbg !2588
  store i32 2139095040, ptr %inf_rep, align 4, !dbg !2589
; call <u32 as core::ops::bit::Shr>::shr
  %quiet_bit = call i32 @"_ZN43_$LT$u32$u20$as$u20$core..ops..bit..Shr$GT$3shr17h2b1be544d23cb8f9E"(i32 8388608, i32 1) #8, !dbg !2590
  store i32 %quiet_bit, ptr %quiet_bit.dbg.spill, align 4, !dbg !2590
  call void @llvm.dbg.declare(metadata ptr %quiet_bit.dbg.spill, metadata !2504, metadata !DIExpression()), !dbg !2591
; call <u32 as core::ops::bit::BitOr>::bitor
  %qnan_rep = call i32 @"_ZN45_$LT$u32$u20$as$u20$core..ops..bit..BitOr$GT$5bitor17h7427274a7f250f67E"(i32 2139095040, i32 %quiet_bit) #8, !dbg !2592
  store i32 %qnan_rep, ptr %qnan_rep.dbg.spill, align 4, !dbg !2592
  call void @llvm.dbg.declare(metadata ptr %qnan_rep.dbg.spill, metadata !2506, metadata !DIExpression()), !dbg !2593
; call <f32 as compiler_builtins::float::Float>::repr
  %2 = call i32 @"_ZN55_$LT$f32$u20$as$u20$compiler_builtins..float..Float$GT$4repr17h6e41bcce62e9f6bcE"(float %a) #8, !dbg !2594
  store i32 %2, ptr %a_rep, align 4, !dbg !2594
; call <f32 as compiler_builtins::float::Float>::repr
  %3 = call i32 @"_ZN55_$LT$f32$u20$as$u20$compiler_builtins..float..Float$GT$4repr17h6e41bcce62e9f6bcE"(float %b) #8, !dbg !2595
  store i32 %3, ptr %b_rep, align 4, !dbg !2595
  %_22 = load i32, ptr %a_rep, align 4, !dbg !2596, !noundef !55
; call <u32 as core::ops::bit::BitAnd>::bitand
  %4 = call i32 @"_ZN46_$LT$u32$u20$as$u20$core..ops..bit..BitAnd$GT$6bitand17hb2c81fd9c7b2b6daE"(i32 %_22, i32 %abs_mask) #8, !dbg !2596
  store i32 %4, ptr %a_abs, align 4, !dbg !2596
  %_25 = load i32, ptr %b_rep, align 4, !dbg !2597, !noundef !55
; call <u32 as core::ops::bit::BitAnd>::bitand
  %5 = call i32 @"_ZN46_$LT$u32$u20$as$u20$core..ops..bit..BitAnd$GT$6bitand17hb2c81fd9c7b2b6daE"(i32 %_25, i32 %abs_mask) #8, !dbg !2597
  store i32 %5, ptr %b_abs, align 4, !dbg !2597
  %_31 = load i32, ptr %a_abs, align 4, !dbg !2598, !noundef !55
; call <u32 as compiler_builtins::int::Int>::wrapping_sub
  %6 = call i32 @"_ZN51_$LT$u32$u20$as$u20$compiler_builtins..int..Int$GT$12wrapping_sub17h3a695dee0dba8ed6E"(i32 %_31, i32 1) #8, !dbg !2598
  store i32 %6, ptr %_30, align 4, !dbg !2598
  %_34 = load i32, ptr %inf_rep, align 4, !dbg !2599, !noundef !55
; call <u32 as core::ops::arith::Sub>::sub
  %7 = call i32 @"_ZN45_$LT$u32$u20$as$u20$core..ops..arith..Sub$GT$3sub17h70e79c8428c0bd0fE"(i32 %_34, i32 1) #8, !dbg !2599
  store i32 %7, ptr %_33, align 4, !dbg !2599
; call core::cmp::impls::<impl core::cmp::PartialOrd for u32>::ge
  %_28 = call zeroext i1 @"_ZN4core3cmp5impls55_$LT$impl$u20$core..cmp..PartialOrd$u20$for$u20$u32$GT$2ge17h3180f286cfa4431fE"(ptr align 4 %_30, ptr align 4 %_33) #8, !dbg !2598
  br i1 %_28, label %bb9, label %bb10, !dbg !2598

bb10:                                             ; preds = %start
  %_38 = load i32, ptr %b_abs, align 4, !dbg !2600, !noundef !55
; call <u32 as compiler_builtins::int::Int>::wrapping_sub
  %8 = call i32 @"_ZN51_$LT$u32$u20$as$u20$compiler_builtins..int..Int$GT$12wrapping_sub17h3a695dee0dba8ed6E"(i32 %_38, i32 1) #8, !dbg !2600
  store i32 %8, ptr %_37, align 4, !dbg !2600
  %_41 = load i32, ptr %inf_rep, align 4, !dbg !2601, !noundef !55
; call <u32 as core::ops::arith::Sub>::sub
  %9 = call i32 @"_ZN45_$LT$u32$u20$as$u20$core..ops..arith..Sub$GT$3sub17h70e79c8428c0bd0fE"(i32 %_41, i32 1) #8, !dbg !2601
  store i32 %9, ptr %_40, align 4, !dbg !2601
; call core::cmp::impls::<impl core::cmp::PartialOrd for u32>::ge
  %_35 = call zeroext i1 @"_ZN4core3cmp5impls55_$LT$impl$u20$core..cmp..PartialOrd$u20$for$u20$u32$GT$2ge17h3180f286cfa4431fE"(ptr align 4 %_37, ptr align 4 %_40) #8, !dbg !2600
  %10 = zext i1 %_35 to i8, !dbg !2598
  store i8 %10, ptr %_27, align 1, !dbg !2598
  br label %bb11, !dbg !2598

bb9:                                              ; preds = %start
  store i8 1, ptr %_27, align 1, !dbg !2598
  br label %bb11, !dbg !2598

bb11:                                             ; preds = %bb10, %bb9
  %11 = load i8, ptr %_27, align 1, !dbg !2598, !range !780, !noundef !55
  %12 = trunc i8 %11 to i1, !dbg !2598
  br i1 %12, label %bb18, label %bb50, !dbg !2598

bb50:                                             ; preds = %bb47, %bb11
; call core::cmp::impls::<impl core::cmp::PartialOrd for u32>::gt
  %_82 = call zeroext i1 @"_ZN4core3cmp5impls55_$LT$impl$u20$core..cmp..PartialOrd$u20$for$u20$u32$GT$2gt17h4c2e7bdd81a84743E"(ptr align 4 %b_abs, ptr align 4 %a_abs) #8, !dbg !2602
  br i1 %_82, label %bb52, label %bb53, !dbg !2602

bb18:                                             ; preds = %bb11
; call core::cmp::impls::<impl core::cmp::PartialOrd for u32>::gt
  %_42 = call zeroext i1 @"_ZN4core3cmp5impls55_$LT$impl$u20$core..cmp..PartialOrd$u20$for$u20$u32$GT$2gt17h4c2e7bdd81a84743E"(ptr align 4 %a_abs, ptr align 4 %inf_rep) #8, !dbg !2603
  br i1 %_42, label %bb20, label %bb22, !dbg !2603

bb22:                                             ; preds = %bb18
; call core::cmp::impls::<impl core::cmp::PartialOrd for u32>::gt
  %_48 = call zeroext i1 @"_ZN4core3cmp5impls55_$LT$impl$u20$core..cmp..PartialOrd$u20$for$u20$u32$GT$2gt17h4c2e7bdd81a84743E"(ptr align 4 %b_abs, ptr align 4 %inf_rep) #8, !dbg !2604
  br i1 %_48, label %bb24, label %bb26, !dbg !2604

bb20:                                             ; preds = %bb18
  %_46 = load i32, ptr %a_abs, align 4, !dbg !2605, !noundef !55
; call <u32 as core::ops::bit::BitOr>::bitor
  %_45 = call i32 @"_ZN45_$LT$u32$u20$as$u20$core..ops..bit..BitOr$GT$5bitor17h7427274a7f250f67E"(i32 %_46, i32 %quiet_bit) #8, !dbg !2605
; call <f32 as compiler_builtins::float::Float>::from_repr
  %13 = call float @"_ZN55_$LT$f32$u20$as$u20$compiler_builtins..float..Float$GT$9from_repr17h297594dffb0e8eb0E"(i32 %_45) #8, !dbg !2606
  store float %13, ptr %0, align 4, !dbg !2606
  br label %bb146, !dbg !2606

bb146:                                            ; preds = %bb145, %bb119, %bb95, %bb49, %bb46, %bb42, %bb37, %bb34, %bb33, %bb24, %bb20
  %14 = load float, ptr %0, align 4, !dbg !2607, !noundef !55
  ret float %14, !dbg !2607

bb26:                                             ; preds = %bb22
; call core::cmp::impls::<impl core::cmp::PartialEq for u32>::eq
  %_54 = call zeroext i1 @"_ZN4core3cmp5impls54_$LT$impl$u20$core..cmp..PartialEq$u20$for$u20$u32$GT$2eq17he06defb6346671b5E"(ptr align 4 %a_abs, ptr align 4 %inf_rep) #8, !dbg !2608
  br i1 %_54, label %bb28, label %bb35, !dbg !2608

bb24:                                             ; preds = %bb22
  %_52 = load i32, ptr %b_abs, align 4, !dbg !2609, !noundef !55
; call <u32 as core::ops::bit::BitOr>::bitor
  %_51 = call i32 @"_ZN45_$LT$u32$u20$as$u20$core..ops..bit..BitOr$GT$5bitor17h7427274a7f250f67E"(i32 %_52, i32 %quiet_bit) #8, !dbg !2609
; call <f32 as compiler_builtins::float::Float>::from_repr
  %15 = call float @"_ZN55_$LT$f32$u20$as$u20$compiler_builtins..float..Float$GT$9from_repr17h297594dffb0e8eb0E"(i32 %_51) #8, !dbg !2610
  store float %15, ptr %0, align 4, !dbg !2610
  br label %bb146, !dbg !2610

bb35:                                             ; preds = %bb26
; call core::cmp::impls::<impl core::cmp::PartialEq for u32>::eq
  %_64 = call zeroext i1 @"_ZN4core3cmp5impls54_$LT$impl$u20$core..cmp..PartialEq$u20$for$u20$u32$GT$2eq17he06defb6346671b5E"(ptr align 4 %b_abs, ptr align 4 %inf_rep) #8, !dbg !2611
  br i1 %_64, label %bb37, label %bb38, !dbg !2611

bb28:                                             ; preds = %bb26
; call <f32 as compiler_builtins::float::Float>::repr
  %_60 = call i32 @"_ZN55_$LT$f32$u20$as$u20$compiler_builtins..float..Float$GT$4repr17h6e41bcce62e9f6bcE"(float %a) #8, !dbg !2612
; call <f32 as compiler_builtins::float::Float>::repr
  %_61 = call i32 @"_ZN55_$LT$f32$u20$as$u20$compiler_builtins..float..Float$GT$4repr17h6e41bcce62e9f6bcE"(float %b) #8, !dbg !2613
; call <u32 as core::ops::bit::BitXor>::bitxor
  %16 = call i32 @"_ZN46_$LT$u32$u20$as$u20$core..ops..bit..BitXor$GT$6bitxor17h90d835b132bd34ecE"(i32 %_60, i32 %_61) #8, !dbg !2614
  store i32 %16, ptr %_59, align 4, !dbg !2614
; call core::cmp::impls::<impl core::cmp::PartialEq for u32>::eq
  %_57 = call zeroext i1 @"_ZN4core3cmp5impls54_$LT$impl$u20$core..cmp..PartialEq$u20$for$u20$u32$GT$2eq17he06defb6346671b5E"(ptr align 4 %_59, ptr align 4 %sign_bit) #8, !dbg !2614
  br i1 %_57, label %bb33, label %bb34, !dbg !2614

bb34:                                             ; preds = %bb28
  store float %a, ptr %0, align 4, !dbg !2615
  br label %bb146, !dbg !2616

bb33:                                             ; preds = %bb28
; call <f32 as compiler_builtins::float::Float>::from_repr
  %17 = call float @"_ZN55_$LT$f32$u20$as$u20$compiler_builtins..float..Float$GT$9from_repr17h297594dffb0e8eb0E"(i32 %qnan_rep) #8, !dbg !2617
  store float %17, ptr %0, align 4, !dbg !2617
  br label %bb146, !dbg !2617

bb38:                                             ; preds = %bb35
  store i32 0, ptr %_70, align 4, !dbg !2618
; call core::cmp::impls::<impl core::cmp::PartialEq for u32>::eq
  %_67 = call zeroext i1 @"_ZN4core3cmp5impls54_$LT$impl$u20$core..cmp..PartialEq$u20$for$u20$u32$GT$2eq17he06defb6346671b5E"(ptr align 4 %a_abs, ptr align 4 %_70) #8, !dbg !2619
  br i1 %_67, label %bb40, label %bb47, !dbg !2619

bb37:                                             ; preds = %bb35
  store float %b, ptr %0, align 4, !dbg !2620
  br label %bb146, !dbg !2621

bb47:                                             ; preds = %bb38
  store i32 0, ptr %_81, align 4, !dbg !2624
; call core::cmp::impls::<impl core::cmp::PartialEq for u32>::eq
  %_78 = call zeroext i1 @"_ZN4core3cmp5impls54_$LT$impl$u20$core..cmp..PartialEq$u20$for$u20$u32$GT$2eq17he06defb6346671b5E"(ptr align 4 %b_abs, ptr align 4 %_81) #8, !dbg !2625
  br i1 %_78, label %bb49, label %bb50, !dbg !2625

bb40:                                             ; preds = %bb38
  store i32 0, ptr %_74, align 4, !dbg !2626
; call core::cmp::impls::<impl core::cmp::PartialEq for u32>::eq
  %_71 = call zeroext i1 @"_ZN4core3cmp5impls54_$LT$impl$u20$core..cmp..PartialEq$u20$for$u20$u32$GT$2eq17he06defb6346671b5E"(ptr align 4 %b_abs, ptr align 4 %_74) #8, !dbg !2627
  br i1 %_71, label %bb42, label %bb46, !dbg !2627

bb46:                                             ; preds = %bb40
  store float %b, ptr %0, align 4, !dbg !2628
  br label %bb146, !dbg !2629

bb42:                                             ; preds = %bb40
; call <f32 as compiler_builtins::float::Float>::repr
  %_76 = call i32 @"_ZN55_$LT$f32$u20$as$u20$compiler_builtins..float..Float$GT$4repr17h6e41bcce62e9f6bcE"(float %a) #8, !dbg !2630
; call <f32 as compiler_builtins::float::Float>::repr
  %_77 = call i32 @"_ZN55_$LT$f32$u20$as$u20$compiler_builtins..float..Float$GT$4repr17h6e41bcce62e9f6bcE"(float %b) #8, !dbg !2631
; call <u32 as core::ops::bit::BitAnd>::bitand
  %_75 = call i32 @"_ZN46_$LT$u32$u20$as$u20$core..ops..bit..BitAnd$GT$6bitand17hb2c81fd9c7b2b6daE"(i32 %_76, i32 %_77) #8, !dbg !2630
; call <f32 as compiler_builtins::float::Float>::from_repr
  %18 = call float @"_ZN55_$LT$f32$u20$as$u20$compiler_builtins..float..Float$GT$9from_repr17h297594dffb0e8eb0E"(i32 %_75) #8, !dbg !2632
  store float %18, ptr %0, align 4, !dbg !2632
  br label %bb146, !dbg !2632

bb49:                                             ; preds = %bb47
  store float %a, ptr %0, align 4, !dbg !2633
  br label %bb146, !dbg !2621

bb53:                                             ; preds = %bb52, %bb50
  %_90 = load i32, ptr %a_rep, align 4, !dbg !2634, !noundef !55
; call <u32 as core::ops::bit::BitAnd>::bitand
  %_89 = call i32 @"_ZN46_$LT$u32$u20$as$u20$core..ops..bit..BitAnd$GT$6bitand17hb2c81fd9c7b2b6daE"(i32 %_90, i32 2139095040) #8, !dbg !2635
; call <u32 as core::ops::bit::Shr>::shr
  %_88 = call i32 @"_ZN43_$LT$u32$u20$as$u20$core..ops..bit..Shr$GT$3shr17h2b1be544d23cb8f9E"(i32 %_89, i32 23) #8, !dbg !2636
; call <u32 as compiler_builtins::int::CastInto<i32>>::cast
  %19 = call i32 @"_ZN67_$LT$u32$u20$as$u20$compiler_builtins..int..CastInto$LT$i32$GT$$GT$4cast17h5d6431fec97d9842E"(i32 %_88) #8, !dbg !2636
  store i32 %19, ptr %a_exponent, align 4, !dbg !2636
  %_94 = load i32, ptr %b_rep, align 4, !dbg !2637, !noundef !55
; call <u32 as core::ops::bit::BitAnd>::bitand
  %_93 = call i32 @"_ZN46_$LT$u32$u20$as$u20$core..ops..bit..BitAnd$GT$6bitand17hb2c81fd9c7b2b6daE"(i32 %_94, i32 2139095040) #8, !dbg !2638
; call <u32 as core::ops::bit::Shr>::shr
  %_92 = call i32 @"_ZN43_$LT$u32$u20$as$u20$core..ops..bit..Shr$GT$3shr17h2b1be544d23cb8f9E"(i32 %_93, i32 23) #8, !dbg !2639
; call <u32 as compiler_builtins::int::CastInto<i32>>::cast
  %20 = call i32 @"_ZN67_$LT$u32$u20$as$u20$compiler_builtins..int..CastInto$LT$i32$GT$$GT$4cast17h5d6431fec97d9842E"(i32 %_92) #8, !dbg !2639
  store i32 %20, ptr %b_exponent, align 4, !dbg !2639
  %_96 = load i32, ptr %a_rep, align 4, !dbg !2640, !noundef !55
; call <u32 as core::ops::bit::BitAnd>::bitand
  %21 = call i32 @"_ZN46_$LT$u32$u20$as$u20$core..ops..bit..BitAnd$GT$6bitand17hb2c81fd9c7b2b6daE"(i32 %_96, i32 8388607) #8, !dbg !2640
  store i32 %21, ptr %a_significand, align 4, !dbg !2640
  %_98 = load i32, ptr %b_rep, align 4, !dbg !2641, !noundef !55
; call <u32 as core::ops::bit::BitAnd>::bitand
  %22 = call i32 @"_ZN46_$LT$u32$u20$as$u20$core..ops..bit..BitAnd$GT$6bitand17hb2c81fd9c7b2b6daE"(i32 %_98, i32 8388607) #8, !dbg !2641
  store i32 %22, ptr %b_significand, align 4, !dbg !2641
  %_99 = load i32, ptr %a_exponent, align 4, !dbg !2642, !noundef !55
  %23 = icmp eq i32 %_99, 0, !dbg !2642
  br i1 %23, label %bb62, label %bb64, !dbg !2642

bb52:                                             ; preds = %bb50
  %tmp = load i32, ptr %a_rep, align 4, !dbg !2643, !noundef !55
  store i32 %tmp, ptr %tmp.dbg.spill, align 4, !dbg !2643
  call void @llvm.dbg.declare(metadata ptr %tmp.dbg.spill, metadata !2516, metadata !DIExpression()), !dbg !2644
  %_86 = load i32, ptr %b_rep, align 4, !dbg !2645, !noundef !55
  store i32 %_86, ptr %a_rep, align 4, !dbg !2646
  store i32 %tmp, ptr %b_rep, align 4, !dbg !2647
  br label %bb53, !dbg !2648

bb62:                                             ; preds = %bb53
  %_103 = load i32, ptr %a_significand, align 4, !dbg !2649, !noundef !55
; call <f32 as compiler_builtins::float::Float>::normalize
  %24 = call { i32, i32 } @"_ZN55_$LT$f32$u20$as$u20$compiler_builtins..float..Float$GT$9normalize17h3e8faef1272e0349E"(i32 %_103) #8, !dbg !2650
  %_102.0 = extractvalue { i32, i32 } %24, 0, !dbg !2650
  %_102.1 = extractvalue { i32, i32 } %24, 1, !dbg !2650
  store i32 %_102.0, ptr %exponent.dbg.spill, align 4, !dbg !2651
  call void @llvm.dbg.declare(metadata ptr %exponent.dbg.spill, metadata !2526, metadata !DIExpression()), !dbg !2652
  store i32 %_102.1, ptr %significand.dbg.spill, align 4, !dbg !2653
  call void @llvm.dbg.declare(metadata ptr %significand.dbg.spill, metadata !2528, metadata !DIExpression()), !dbg !2654
  store i32 %_102.0, ptr %a_exponent, align 4, !dbg !2655
  store i32 %_102.1, ptr %a_significand, align 4, !dbg !2656
  br label %bb64, !dbg !2657

bb64:                                             ; preds = %bb62, %bb53
  %_104 = load i32, ptr %b_exponent, align 4, !dbg !2658, !noundef !55
  %25 = icmp eq i32 %_104, 0, !dbg !2658
  br i1 %25, label %bb65, label %bb67, !dbg !2658

bb65:                                             ; preds = %bb64
  %_108 = load i32, ptr %b_significand, align 4, !dbg !2659, !noundef !55
; call <f32 as compiler_builtins::float::Float>::normalize
  %26 = call { i32, i32 } @"_ZN55_$LT$f32$u20$as$u20$compiler_builtins..float..Float$GT$9normalize17h3e8faef1272e0349E"(i32 %_108) #8, !dbg !2660
  %_107.0 = extractvalue { i32, i32 } %26, 0, !dbg !2660
  %_107.1 = extractvalue { i32, i32 } %26, 1, !dbg !2660
  store i32 %_107.0, ptr %exponent.dbg.spill1, align 4, !dbg !2661
  call void @llvm.dbg.declare(metadata ptr %exponent.dbg.spill1, metadata !2529, metadata !DIExpression()), !dbg !2662
  store i32 %_107.1, ptr %significand.dbg.spill2, align 4, !dbg !2663
  call void @llvm.dbg.declare(metadata ptr %significand.dbg.spill2, metadata !2531, metadata !DIExpression()), !dbg !2664
  store i32 %_107.0, ptr %b_exponent, align 4, !dbg !2665
  store i32 %_107.1, ptr %b_significand, align 4, !dbg !2666
  br label %bb67, !dbg !2667

bb67:                                             ; preds = %bb65, %bb64
  %_110 = load i32, ptr %a_rep, align 4, !dbg !2668, !noundef !55
  %_111 = load i32, ptr %sign_bit, align 4, !dbg !2669, !noundef !55
; call <u32 as core::ops::bit::BitAnd>::bitand
  %result_sign = call i32 @"_ZN46_$LT$u32$u20$as$u20$core..ops..bit..BitAnd$GT$6bitand17hb2c81fd9c7b2b6daE"(i32 %_110, i32 %_111) #8, !dbg !2668
  store i32 %result_sign, ptr %result_sign.dbg.spill, align 4, !dbg !2668
  call void @llvm.dbg.declare(metadata ptr %result_sign.dbg.spill, metadata !2532, metadata !DIExpression()), !dbg !2670
  %_116 = load i32, ptr %a_rep, align 4, !dbg !2671, !noundef !55
  %_117 = load i32, ptr %b_rep, align 4, !dbg !2672, !noundef !55
; call <u32 as core::ops::bit::BitXor>::bitxor
  %_115 = call i32 @"_ZN46_$LT$u32$u20$as$u20$core..ops..bit..BitXor$GT$6bitxor17h90d835b132bd34ecE"(i32 %_116, i32 %_117) #8, !dbg !2673
  %_118 = load i32, ptr %sign_bit, align 4, !dbg !2674, !noundef !55
; call <u32 as core::ops::bit::BitAnd>::bitand
  %27 = call i32 @"_ZN46_$LT$u32$u20$as$u20$core..ops..bit..BitAnd$GT$6bitand17hb2c81fd9c7b2b6daE"(i32 %_115, i32 %_118) #8, !dbg !2675
  store i32 %27, ptr %_114, align 4, !dbg !2675
; call core::cmp::impls::<impl core::cmp::PartialEq for u32>::ne
  %subtraction = call zeroext i1 @"_ZN4core3cmp5impls54_$LT$impl$u20$core..cmp..PartialEq$u20$for$u20$u32$GT$2ne17hf8dd31269e162e3bE"(ptr align 4 %_114, ptr align 4 %zero) #8, !dbg !2675
  %28 = zext i1 %subtraction to i8, !dbg !2675
  store i8 %28, ptr %subtraction.dbg.spill, align 1, !dbg !2675
  call void @llvm.dbg.declare(metadata ptr %subtraction.dbg.spill, metadata !2534, metadata !DIExpression()), !dbg !2676
  %_122 = load i32, ptr %a_significand, align 4, !dbg !2677, !noundef !55
; call <u32 as core::ops::bit::BitOr>::bitor
  %_121 = call i32 @"_ZN45_$LT$u32$u20$as$u20$core..ops..bit..BitOr$GT$5bitor17h7427274a7f250f67E"(i32 %_122, i32 8388608) #8, !dbg !2678
; call <u32 as core::ops::bit::Shl>::shl
  %_120 = call i32 @"_ZN43_$LT$u32$u20$as$u20$core..ops..bit..Shl$GT$3shl17h33bc9b292e462a6cE"(i32 %_121, i32 3) #8, !dbg !2678
  store i32 %_120, ptr %a_significand, align 4, !dbg !2679
  %_125 = load i32, ptr %b_significand, align 4, !dbg !2680, !noundef !55
; call <u32 as core::ops::bit::BitOr>::bitor
  %_124 = call i32 @"_ZN45_$LT$u32$u20$as$u20$core..ops..bit..BitOr$GT$5bitor17h7427274a7f250f67E"(i32 %_125, i32 8388608) #8, !dbg !2681
; call <u32 as core::ops::bit::Shl>::shl
  %_123 = call i32 @"_ZN43_$LT$u32$u20$as$u20$core..ops..bit..Shl$GT$3shl17h33bc9b292e462a6cE"(i32 %_124, i32 3) #8, !dbg !2681
  store i32 %_123, ptr %b_significand, align 4, !dbg !2682
  %_128 = load i32, ptr %a_exponent, align 4, !dbg !2683, !noundef !55
  %_129 = load i32, ptr %b_exponent, align 4, !dbg !2684, !noundef !55
  store i32 %_128, ptr %self.dbg.spill.i, align 4
  call void @llvm.dbg.declare(metadata ptr %self.dbg.spill.i, metadata !703, metadata !DIExpression()), !dbg !2685
  store i32 %_129, ptr %rhs.dbg.spill.i, align 4
  call void @llvm.dbg.declare(metadata ptr %rhs.dbg.spill.i, metadata !706, metadata !DIExpression()), !dbg !2687
  %29 = sub i32 %_128, %_129, !dbg !2688
; call <i32 as compiler_builtins::int::CastInto<u32>>::cast
  %30 = call i32 @"_ZN67_$LT$i32$u20$as$u20$compiler_builtins..int..CastInto$LT$u32$GT$$GT$4cast17hc3f5f370f8dab91cE"(i32 %29) #8, !dbg !2683
  store i32 %30, ptr %align, align 4, !dbg !2683
  store i32 0, ptr %_133, align 4, !dbg !2689
; call core::cmp::impls::<impl core::cmp::PartialEq for u32>::ne
