; ModuleID = 'bootloader.8d891909-cgu.0'
source_filename = "bootloader.8d891909-cgu.0"
target datalayout = "e-S128-m:e-i64:64-f128:128-n8:16:32:64"
target triple = "x86_64-jemima-unknown-none"

%"bootinfo::memory_map::MemoryRegion" = type { { i64, i64 }, i32, [1 x i32] }
%"core::fmt::Arguments<'_>" = type { { ptr, i64 }, { ptr, i64 }, { ptr, i64 } }
%"core::fmt::UnsafeArg" = type { {} }
%"core::mem::maybe_uninit::MaybeUninit<bootinfo::memory_map::MemoryRegion>" = type { [3 x i64] }
%"core::mem::manually_drop::ManuallyDrop<bootinfo::memory_map::MemoryRegion>" = type { %"bootinfo::memory_map::MemoryRegion" }
%"core::mem::manually_drop::ManuallyDrop<core::mem::maybe_uninit::MaybeUninit<bootinfo::memory_map::MemoryRegion>>" = type { %"core::mem::maybe_uninit::MaybeUninit<bootinfo::memory_map::MemoryRegion>" }
%"core::mem::maybe_uninit::MaybeUninit<core::mem::maybe_uninit::MaybeUninit<bootinfo::memory_map::MemoryRegion>>" = type { [3 x i64] }
%"core::ptr::metadata::PtrComponents<bootinfo::memory_map::MemoryRegion>" = type { ptr, {} }
%"core::ptr::metadata::PtrRepr<bootinfo::memory_map::MemoryRegion>" = type { [1 x i64] }
%"core::ptr::metadata::PtrRepr<[bootinfo::memory_map::MemoryRegion]>" = type { [2 x i64] }
%"[closure@/Users/yaw/.cargo/registry/src/github.com-1ecc6299db9ec823/bootloader-0.9.23/src/bootinfo/memory_map.rs:40:39: 40:47]" = type {}
%"[closure@core::slice::sort::choose_pivot<bootinfo::memory_map::MemoryRegion, [closure@core::slice::<impl [bootinfo::memory_map::MemoryRegion]>::sort_unstable_by<[closure@/Users/yaw/.cargo/registry/src/github.com-1ecc6299db9ec823/bootloader-0.9.23/src/bootinfo/memory_map.rs:40:39: 40:47]>::{closure#0}]>::{closure#0}]" = type { { ptr, i64 }, ptr, ptr }
%"core::option::Option<core::fmt::Arguments<'_>>" = type { [2 x i64], ptr, [3 x i64] }
%"bootinfo::TlsTemplate" = type { i64, i64, i64 }
%"core::option::Option<bootinfo::TlsTemplate>::Some" = type { [1 x i64], %"bootinfo::TlsTemplate" }
%"[closure@/Users/yaw/.cargo/registry/src/github.com-1ecc6299db9ec823/bootloader-0.9.23/src/bootinfo/memory_map.rs:58:70: 58:73]" = type {}
%"bootinfo::memory_map::MemoryMap" = type { [64 x %"bootinfo::memory_map::MemoryRegion"], i64 }
%"core::fmt::builders::DebugList<'_, '_>" = type { %"core::fmt::builders::DebugInner<'_, '_>" }
%"core::fmt::builders::DebugInner<'_, '_>" = type { ptr, i8, i8, [6 x i8] }
%"bootinfo::memory_map::E820MemoryRegion" = type { i64, i64, i32, i32 }
%"bootinfo::BootInfo" = type { %"bootinfo::memory_map::MemoryMap", %"bootinfo::TlsTemplate", i8, [7 x i8] }
%"core::option::Option<bootinfo::TlsTemplate>" = type { i64, [3 x i64] }

@alloc306 = private unnamed_addr constant <{ [111 x i8] }> <{ [111 x i8] c"/Users/yaw/.rustup/toolchains/nightly-aarch64-apple-darwin/lib/rustlib/src/rust/library/core/src/slice/index.rs" }>, align 1
@alloc304 = private unnamed_addr constant <{ ptr, [16 x i8] }> <{ ptr @alloc306, [16 x i8] c"o\00\00\00\00\00\00\00\82\01\00\00G\00\00\00" }>, align 8
@str.0 = internal constant [33 x i8] c"attempt to subtract with overflow"
@alloc305 = private unnamed_addr constant <{ [97 x i8] }> <{ [97 x i8] c"unsafe precondition(s) violated: slice::get_unchecked requires that the range is within the slice" }>, align 1
@alloc307 = private unnamed_addr constant <{ ptr, [16 x i8] }> <{ ptr @alloc306, [16 x i8] c"o\00\00\00\00\00\00\00\90\01\00\00O\00\00\00" }>, align 8
@alloc308 = private unnamed_addr constant <{ [101 x i8] }> <{ [101 x i8] c"unsafe precondition(s) violated: slice::get_unchecked_mut requires that the range is within the slice" }>, align 1
@alloc313 = private unnamed_addr constant <{ [110 x i8] }> <{ [110 x i8] c"/Users/yaw/.rustup/toolchains/nightly-aarch64-apple-darwin/lib/rustlib/src/rust/library/core/src/intrinsics.rs" }>, align 1
@alloc310 = private unnamed_addr constant <{ ptr, [16 x i8] }> <{ ptr @alloc313, [16 x i8] c"n\00\00\00\00\00\00\00\D2\08\00\007\00\00\00" }>, align 8
@alloc312 = private unnamed_addr constant <{ ptr, [16 x i8] }> <{ ptr @alloc313, [16 x i8] c"n\00\00\00\00\00\00\00\D3\08\00\00+\00\00\00" }>, align 8
@alloc314 = private unnamed_addr constant <{ ptr, [16 x i8] }> <{ ptr @alloc313, [16 x i8] c"n\00\00\00\00\00\00\00\D3\08\00\00J\00\00\00" }>, align 8
@alloc316 = private unnamed_addr constant <{ [166 x i8] }> <{ [166 x i8] c"unsafe precondition(s) violated: ptr::copy_nonoverlapping requires that both pointer arguments are aligned and non-null and the specified memory ranges do not overlap" }>, align 1
@alloc318 = private unnamed_addr constant <{ [112 x i8] }> <{ [112 x i8] c"unsafe precondition(s) violated: ptr::copy requires that both pointer arguments are aligned aligned and non-null" }>, align 1
@vtable.1 = private unnamed_addr constant <{ ptr, [16 x i8], ptr }> <{ ptr @"_ZN4core3ptr71drop_in_place$LT$$RF$bootloader..bootinfo..memory_map..MemoryRegion$GT$17hacb7dc5c538a1e3fE", [16 x i8] c"\08\00\00\00\00\00\00\00\08\00\00\00\00\00\00\00", ptr @"_ZN42_$LT$$RF$T$u20$as$u20$core..fmt..Debug$GT$3fmt17h3f9f3e7c123821d9E" }>, align 8, !dbg !0
@alloc324 = private unnamed_addr constant <{ [107 x i8] }> <{ [107 x i8] c"/Users/yaw/.rustup/toolchains/nightly-aarch64-apple-darwin/lib/rustlib/src/rust/library/core/src/fmt/mod.rs" }>, align 1
@alloc323 = private unnamed_addr constant <{ ptr, [16 x i8] }> <{ ptr @alloc324, [16 x i8] c"k\00\00\00\00\00\00\00\8B\01\00\008\00\00\00" }>, align 8
@str.2 = internal constant [28 x i8] c"attempt to add with overflow"
@alloc79 = private unnamed_addr constant <{ [12 x i8] }> <{ [12 x i8] c"invalid args" }>, align 1
@alloc80 = private unnamed_addr constant <{ ptr, [8 x i8] }> <{ ptr @alloc79, [8 x i8] c"\0C\00\00\00\00\00\00\00" }>, align 8
@alloc94 = private unnamed_addr constant <{}> zeroinitializer, align 8
@alloc325 = private unnamed_addr constant <{ ptr, [16 x i8] }> <{ ptr @alloc324, [16 x i8] c"k\00\00\00\00\00\00\00\8C\01\00\00\0D\00\00\00" }>, align 8
@alloc326 = private unnamed_addr constant <{ [107 x i8] }> <{ [107 x i8] c"/Users/yaw/.rustup/toolchains/nightly-aarch64-apple-darwin/lib/rustlib/src/rust/library/core/src/mem/mod.rs" }>, align 1
@alloc327 = private unnamed_addr constant <{ ptr, [16 x i8] }> <{ ptr @alloc326, [16 x i8] c"k\00\00\00\00\00\00\00\DF\02\00\00\0C\00\00\00" }>, align 8
@str.3 = internal constant [25 x i8] c"attempt to divide by zero"
@alloc328 = private unnamed_addr constant <{ [107 x i8] }> <{ [107 x i8] c"/Users/yaw/.rustup/toolchains/nightly-aarch64-apple-darwin/lib/rustlib/src/rust/library/core/src/num/mod.rs" }>, align 1
@alloc329 = private unnamed_addr constant <{ ptr, [16 x i8] }> <{ ptr @alloc328, [16 x i8] c"k\00\00\00\00\00\00\00\C5\03\00\00\05\00\00\00" }>, align 8
@str.4 = internal constant [36 x i8] c"attempt to shift right with overflow"
@alloc339 = private unnamed_addr constant <{ [107 x i8] }> <{ [107 x i8] c"/Users/yaw/.rustup/toolchains/nightly-aarch64-apple-darwin/lib/rustlib/src/rust/library/core/src/ptr/mod.rs" }>, align 1
@alloc331 = private unnamed_addr constant <{ ptr, [16 x i8] }> <{ ptr @alloc339, [16 x i8] c"k\00\00\00\00\00\00\00\AC\03\00\00&\00\00\00" }>, align 8
@str.5 = internal constant [33 x i8] c"attempt to multiply with overflow"
@alloc333 = private unnamed_addr constant <{ ptr, [16 x i8] }> <{ ptr @alloc339, [16 x i8] c"k\00\00\00\00\00\00\00\AE\03\00\00\09\00\00\00" }>, align 8
@str.6 = internal constant [57 x i8] c"attempt to calculate the remainder with a divisor of zero"
@alloc335 = private unnamed_addr constant <{ ptr, [16 x i8] }> <{ ptr @alloc339, [16 x i8] c"k\00\00\00\00\00\00\00\AF\03\00\00\09\00\00\00" }>, align 8
@alloc336 = private unnamed_addr constant <{ [166 x i8] }> <{ [166 x i8] c"unsafe precondition(s) violated: ptr::swap_nonoverlapping requires that both pointer arguments are aligned and non-null and the specified memory ranges do not overlap" }>, align 1
@alloc338 = private unnamed_addr constant <{ ptr, [16 x i8] }> <{ ptr @alloc339, [16 x i8] c"k\00\00\00\00\00\00\00\C8\03\00\00\09\00\00\00" }>, align 8
@alloc340 = private unnamed_addr constant <{ ptr, [16 x i8] }> <{ ptr @alloc339, [16 x i8] c"k\00\00\00\00\00\00\00\86\04\00\00\0D\00\00\00" }>, align 8
@alloc342 = private unnamed_addr constant <{ [101 x i8] }> <{ [101 x i8] c"unsafe precondition(s) violated: ptr::read requires that the pointer argument is aligned and non-null" }>, align 1
@alloc344 = private unnamed_addr constant <{ [102 x i8] }> <{ [102 x i8] c"unsafe precondition(s) violated: ptr::write requires that the pointer argument is aligned and non-null" }>, align 1
@alloc345 = private unnamed_addr constant <{ [93 x i8] }> <{ [93 x i8] c"unsafe precondition(s) violated: NonNull::new_unchecked requires that the pointer is non-null" }>, align 1
@alloc348 = private unnamed_addr constant <{ [113 x i8] }> <{ [113 x i8] c"/Users/yaw/.rustup/toolchains/nightly-aarch64-apple-darwin/lib/rustlib/src/rust/library/core/src/ptr/const_ptr.rs" }>, align 1
@alloc347 = private unnamed_addr constant <{ ptr, [16 x i8] }> <{ ptr @alloc348, [16 x i8] c"q\00\00\00\00\00\00\00C\06\00\00\1A\00\00\00" }>, align 8
@alloc91 = private unnamed_addr constant <{ [42 x i8] }> <{ [42 x i8] c"is_aligned_to: align is not a power-of-two" }>, align 1
@alloc92 = private unnamed_addr constant <{ ptr, [8 x i8] }> <{ ptr @alloc91, [8 x i8] c"*\00\00\00\00\00\00\00" }>, align 8
@alloc349 = private unnamed_addr constant <{ ptr, [16 x i8] }> <{ ptr @alloc348, [16 x i8] c"q\00\00\00\00\00\00\00>\06\00\00\0D\00\00\00" }>, align 8
@alloc350 = private unnamed_addr constant <{ [35 x i8] }> <{ [35 x i8] c"assertion failed: mid <= self.len()" }>, align 1
@alloc68 = private unnamed_addr constant <{ [1 x i8] }> <{ [1 x i8] c"\FF" }>, align 1
@alloc370 = private unnamed_addr constant <{ [109 x i8] }> <{ [109 x i8] c"/Users/yaw/.rustup/toolchains/nightly-aarch64-apple-darwin/lib/rustlib/src/rust/library/core/src/slice/mod.rs" }>, align 1
@alloc352 = private unnamed_addr constant <{ ptr, [16 x i8] }> <{ ptr @alloc370, [16 x i8] c"m\00\00\00\00\00\00\00\B1\06\00\00M\00\00\00" }>, align 8
@alloc353 = private unnamed_addr constant <{ [104 x i8] }> <{ [104 x i8] c"unsafe precondition(s) violated: slice::split_at_mut_unchecked requires the index to be within the slice" }>, align 1
@alloc354 = private unnamed_addr constant <{ [30 x i8] }> <{ [30 x i8] c"assertion failed: a.len() == n" }>, align 1
@alloc356 = private unnamed_addr constant <{ ptr, [16 x i8] }> <{ ptr @alloc370, [16 x i8] c"m\00\00\00\00\00\00\00\BD\02\00\00\0D\00\00\00" }>, align 8
@alloc357 = private unnamed_addr constant <{ [30 x i8] }> <{ [30 x i8] c"assertion failed: b.len() == n" }>, align 1
@alloc359 = private unnamed_addr constant <{ ptr, [16 x i8] }> <{ ptr @alloc370, [16 x i8] c"m\00\00\00\00\00\00\00\BE\02\00\00\0D\00\00\00" }>, align 8
@alloc361 = private unnamed_addr constant <{ ptr, [16 x i8] }> <{ ptr @alloc370, [16 x i8] c"m\00\00\00\00\00\00\00\C4\02\00\00 \00\00\00" }>, align 8
@alloc363 = private unnamed_addr constant <{ ptr, [16 x i8] }> <{ ptr @alloc370, [16 x i8] c"m\00\00\00\00\00\00\00\C4\02\00\00-\00\00\00" }>, align 8
@alloc365 = private unnamed_addr constant <{ ptr, [16 x i8] }> <{ ptr @alloc370, [16 x i8] c"m\00\00\00\00\00\00\00\C8\02\00\00 \00\00\00" }>, align 8
@alloc367 = private unnamed_addr constant <{ ptr, [16 x i8] }> <{ ptr @alloc370, [16 x i8] c"m\00\00\00\00\00\00\00\C8\02\00\00-\00\00\00" }>, align 8
@alloc369 = private unnamed_addr constant <{ ptr, [16 x i8] }> <{ ptr @alloc370, [16 x i8] c"m\00\00\00\00\00\00\00\C8\02\00\00+\00\00\00" }>, align 8
@alloc371 = private unnamed_addr constant <{ ptr, [16 x i8] }> <{ ptr @alloc370, [16 x i8] c"m\00\00\00\00\00\00\00\C9\02\00\00\11\00\00\00" }>, align 8
@alloc372 = private unnamed_addr constant <{ [166 x i8] }> <{ [166 x i8] c"unsafe precondition(s) violated: slice::from_raw_parts_mut requires the pointer to be aligned and non-null, and the total size of the slice not to exceed `isize::MAX`" }>, align 1
@alloc535 = private unnamed_addr constant <{ [110 x i8] }> <{ [110 x i8] c"/Users/yaw/.rustup/toolchains/nightly-aarch64-apple-darwin/lib/rustlib/src/rust/library/core/src/slice/sort.rs" }>, align 1
@alloc374 = private unnamed_addr constant <{ ptr, [16 x i8] }> <{ ptr @alloc535, [16 x i8] c"n\00\00\00\00\00\00\00D\00\00\00:\00\00\00" }>, align 8
@alloc376 = private unnamed_addr constant <{ ptr, [16 x i8] }> <{ ptr @alloc535, [16 x i8] c"n\00\00\00\00\00\00\00c\00\00\000\00\00\00" }>, align 8
@alloc378 = private unnamed_addr constant <{ ptr, [16 x i8] }> <{ ptr @alloc535, [16 x i8] c"n\00\00\00\00\00\00\00c\00\00\00J\00\00\00" }>, align 8
@alloc380 = private unnamed_addr constant <{ ptr, [16 x i8] }> <{ ptr @alloc535, [16 x i8] c"n\00\00\00\00\00\00\00g\00\00\00H\00\00\00" }>, align 8
@alloc382 = private unnamed_addr constant <{ ptr, [16 x i8] }> <{ ptr @alloc535, [16 x i8] c"n\00\00\00\00\00\00\00i\00\00\00A\00\00\00" }>, align 8
@alloc384 = private unnamed_addr constant <{ ptr, [16 x i8] }> <{ ptr @alloc535, [16 x i8] c"n\00\00\00\00\00\00\00j\00\00\00,\00\00\00" }>, align 8
@alloc386 = private unnamed_addr constant <{ ptr, [16 x i8] }> <{ ptr @alloc535, [16 x i8] c"n\00\00\00\00\00\00\00j\00\00\00<\00\00\00" }>, align 8
@alloc388 = private unnamed_addr constant <{ ptr, [16 x i8] }> <{ ptr @alloc535, [16 x i8] c"n\00\00\00\00\00\00\00l\00\00\00\1A\00\00\00" }>, align 8
@alloc390 = private unnamed_addr constant <{ ptr, [16 x i8] }> <{ ptr @alloc535, [16 x i8] c"n\00\00\00\00\00\00\00r\00\00\00:\00\00\00" }>, align 8
@alloc392 = private unnamed_addr constant <{ ptr, [16 x i8] }> <{ ptr @alloc535, [16 x i8] c"n\00\00\00\00\00\00\00\97\02\00\00\11\00\00\00" }>, align 8
@alloc394 = private unnamed_addr constant <{ ptr, [16 x i8] }> <{ ptr @alloc535, [16 x i8] c"n\00\00\00\00\00\00\00\98\02\00\00\11\00\00\00" }>, align 8
@alloc396 = private unnamed_addr constant <{ ptr, [16 x i8] }> <{ ptr @alloc535, [16 x i8] c"n\00\00\00\00\00\00\00\99\02\00\00\11\00\00\00" }>, align 8
@alloc398 = private unnamed_addr constant <{ ptr, [16 x i8] }> <{ ptr @alloc535, [16 x i8] c"n\00\00\00\00\00\00\00\CB\02\00\00\0A\00\00\00" }>, align 8
@alloc400 = private unnamed_addr constant <{ ptr, [16 x i8] }> <{ ptr @alloc535, [16 x i8] c"n\00\00\00\00\00\00\00\A9\02\00\00\11\00\00\00" }>, align 8
@alloc402 = private unnamed_addr constant <{ ptr, [16 x i8] }> <{ ptr @alloc535, [16 x i8] c"n\00\00\00\00\00\00\00\B8\02\00\00\1C\00\00\00" }>, align 8
@alloc404 = private unnamed_addr constant <{ ptr, [16 x i8] }> <{ ptr @alloc535, [16 x i8] c"n\00\00\00\00\00\00\00\B8\02\00\00/\00\00\00" }>, align 8
@alloc406 = private unnamed_addr constant <{ ptr, [16 x i8] }> <{ ptr @alloc535, [16 x i8] c"n\00\00\00\00\00\00\00u\02\00\00\13\00\00\00" }>, align 8
@alloc408 = private unnamed_addr constant <{ ptr, [16 x i8] }> <{ ptr @alloc535, [16 x i8] c"n\00\00\00\00\00\00\00{\02\00\00+\00\00\00" }>, align 8
@alloc410 = private unnamed_addr constant <{ ptr, [16 x i8] }> <{ ptr @alloc535, [16 x i8] c"n\00\00\00\00\00\00\00\7F\02\00\00\11\00\00\00" }>, align 8
@alloc412 = private unnamed_addr constant <{ ptr, [16 x i8] }> <{ ptr @alloc535, [16 x i8] c"n\00\00\00\00\00\00\00\82\02\00\00\14\00\00\00" }>, align 8
@alloc414 = private unnamed_addr constant <{ ptr, [16 x i8] }> <{ ptr @alloc535, [16 x i8] c"n\00\00\00\00\00\00\00\82\02\00\00\0F\00\00\00" }>, align 8
@alloc416 = private unnamed_addr constant <{ ptr, [16 x i8] }> <{ ptr @alloc535, [16 x i8] c"n\00\00\00\00\00\00\00\B1\00\00\00\1D\00\00\00" }>, align 8
@alloc418 = private unnamed_addr constant <{ ptr, [16 x i8] }> <{ ptr @alloc535, [16 x i8] c"n\00\00\00\00\00\00\00\B1\00\00\00\19\00\00\00" }>, align 8
@alloc420 = private unnamed_addr constant <{ ptr, [16 x i8] }> <{ ptr @alloc535, [16 x i8] c"n\00\00\00\00\00\00\00(\02\00\00\07\00\00\00" }>, align 8
@alloc422 = private unnamed_addr constant <{ ptr, [16 x i8] }> <{ ptr @alloc535, [16 x i8] c"n\00\00\00\00\00\00\00)\02\00\00\18\00\00\00" }>, align 8
@alloc424 = private unnamed_addr constant <{ ptr, [16 x i8] }> <{ ptr @alloc535, [16 x i8] c"n\00\00\00\00\00\00\00*\02\00\00\16\00\00\00" }>, align 8
@alloc426 = private unnamed_addr constant <{ ptr, [16 x i8] }> <{ ptr @alloc535, [16 x i8] c"n\00\00\00\00\00\00\00>\02\00\00\11\00\00\00" }>, align 8
@alloc428 = private unnamed_addr constant <{ ptr, [16 x i8] }> <{ ptr @alloc535, [16 x i8] c"n\00\00\00\00\00\00\00B\02\00\00;\00\00\00" }>, align 8
@alloc430 = private unnamed_addr constant <{ ptr, [16 x i8] }> <{ ptr @alloc535, [16 x i8] c"n\00\00\00\00\00\00\00C\02\00\00\11\00\00\00" }>, align 8
@alloc432 = private unnamed_addr constant <{ ptr, [16 x i8] }> <{ ptr @alloc535, [16 x i8] c"n\00\00\00\00\00\00\00T\02\00\00\05\00\00\00" }>, align 8
@alloc434 = private unnamed_addr constant <{ ptr, [16 x i8] }> <{ ptr @alloc535, [16 x i8] c"n\00\00\00\00\00\00\00L\02\00\00\0D\00\00\00" }>, align 8
@alloc436 = private unnamed_addr constant <{ ptr, [16 x i8] }> <{ ptr @alloc535, [16 x i8] c"n\00\00\00\00\00\00\00O\02\00\00\0D\00\00\00" }>, align 8
@alloc438 = private unnamed_addr constant <{ ptr, [16 x i8] }> <{ ptr @alloc535, [16 x i8] c"n\00\00\00\00\00\00\00!\01\00\00\11\00\00\00" }>, align 8
@alloc440 = private unnamed_addr constant <{ ptr, [16 x i8] }> <{ ptr @alloc535, [16 x i8] c"n\00\00\00\00\00\00\00/\01\00\00\1B\00\00\00" }>, align 8
@alloc441 = private unnamed_addr constant <{ [54 x i8] }> <{ [54 x i8] c"assertion failed: block_l <= BLOCK && block_r <= BLOCK" }>, align 1
@alloc443 = private unnamed_addr constant <{ ptr, [16 x i8] }> <{ ptr @alloc535, [16 x i8] c"n\00\00\00\00\00\00\001\01\00\00\0D\00\00\00" }>, align 8
@alloc445 = private unnamed_addr constant <{ ptr, [16 x i8] }> <{ ptr @alloc535, [16 x i8] c"n\00\00\00\00\00\00\002\01\00\00*\00\00\00" }>, align 8
@alloc446 = private unnamed_addr constant <{ [50 x i8] }> <{ [50 x i8] c"assertion failed: width(l, r) == block_l + block_r" }>, align 1
@alloc448 = private unnamed_addr constant <{ ptr, [16 x i8] }> <{ ptr @alloc535, [16 x i8] c"n\00\00\00\00\00\00\002\01\00\00\0D\00\00\00" }>, align 8
@alloc450 = private unnamed_addr constant <{ ptr, [16 x i8] }> <{ ptr @alloc535, [16 x i8] c"n\00\00\00\00\00\00\00\8E\01\00\00*\00\00\00" }>, align 8
@alloc452 = private unnamed_addr constant <{ ptr, [16 x i8] }> <{ ptr @alloc535, [16 x i8] c"n\00\00\00\00\00\00\00\92\01\00\007\00\00\00" }>, align 8
@alloc454 = private unnamed_addr constant <{ ptr, [16 x i8] }> <{ ptr @alloc535, [16 x i8] c"n\00\00\00\00\00\00\00\94\01\00\00.\00\00\00" }>, align 8
@alloc456 = private unnamed_addr constant <{ ptr, [16 x i8] }> <{ ptr @alloc535, [16 x i8] c"n\00\00\00\00\00\00\00\97\01\00\000\00\00\00" }>, align 8
@alloc458 = private unnamed_addr constant <{ ptr, [16 x i8] }> <{ ptr @alloc535, [16 x i8] c"n\00\00\00\00\00\00\00\BE\01\00\00\09\00\00\00" }>, align 8
@alloc460 = private unnamed_addr constant <{ ptr, [16 x i8] }> <{ ptr @alloc535, [16 x i8] c"n\00\00\00\00\00\00\00\D5\01\00\00\09\00\00\00" }>, align 8
@alloc462 = private unnamed_addr constant <{ ptr, [16 x i8] }> <{ ptr @alloc535, [16 x i8] c"n\00\00\00\00\00\00\00\DA\01\00\00$\00\00\00" }>, align 8
@alloc468 = private unnamed_addr constant <{ [41 x i8] }> <{ [41 x i8] c"assertion failed: mem::size_of::<T>() > 0" }>, align 1
@alloc465 = private unnamed_addr constant <{ ptr, [16 x i8] }> <{ ptr @alloc535, [16 x i8] c"n\00\00\00\00\00\00\00\12\01\00\00\09\00\00\00" }>, align 8
@alloc467 = private unnamed_addr constant <{ ptr, [16 x i8] }> <{ ptr @alloc535, [16 x i8] c"n\00\00\00\00\00\00\00\15\01\00\00\09\00\00\00" }>, align 8
@alloc470 = private unnamed_addr constant <{ ptr, [16 x i8] }> <{ ptr @alloc535, [16 x i8] c"n\00\00\00\00\00\00\00\8F\00\00\00K\00\00\00" }>, align 8
@alloc472 = private unnamed_addr constant <{ ptr, [16 x i8] }> <{ ptr @alloc535, [16 x i8] c"n\00\00\00\00\00\00\00\90\00\00\00\11\00\00\00" }>, align 8
@alloc474 = private unnamed_addr constant <{ ptr, [16 x i8] }> <{ ptr @alloc535, [16 x i8] c"n\00\00\00\00\00\00\00\9F\00\00\00\10\00\00\00" }>, align 8
@alloc476 = private unnamed_addr constant <{ ptr, [16 x i8] }> <{ ptr @alloc535, [16 x i8] c"n\00\00\00\00\00\00\00\9F\00\00\00\0B\00\00\00" }>, align 8
@alloc478 = private unnamed_addr constant <{ ptr, [16 x i8] }> <{ ptr @alloc535, [16 x i8] c"n\00\00\00\00\00\00\00\A2\00\00\00\19\00\00\00" }>, align 8
@alloc480 = private unnamed_addr constant <{ ptr, [16 x i8] }> <{ ptr @alloc535, [16 x i8] c"n\00\00\00\00\00\00\00\A4\00\00\00\19\00\00\00" }>, align 8
@alloc482 = private unnamed_addr constant <{ ptr, [16 x i8] }> <{ ptr @alloc535, [16 x i8] c"n\00\00\00\00\00\00\00\F5\02\00\00\0D\00\00\00" }>, align 8
@alloc484 = private unnamed_addr constant <{ ptr, [16 x i8] }> <{ ptr @alloc535, [16 x i8] c"n\00\00\00\00\00\00\00\09\03\00\00\1D\00\00\00" }>, align 8
@alloc486 = private unnamed_addr constant <{ ptr, [16 x i8] }> <{ ptr @alloc535, [16 x i8] c"n\00\00\00\00\00\00\00\0D\03\00\00\1A\00\00\00" }>, align 8
@alloc488 = private unnamed_addr constant <{ ptr, [16 x i8] }> <{ ptr @alloc535, [16 x i8] c"n\00\00\00\00\00\00\00\14\03\00\00&\00\00\00" }>, align 8
@alloc490 = private unnamed_addr constant <{ ptr, [16 x i8] }> <{ ptr @alloc535, [16 x i8] c"n\00\00\00\00\00\00\00\18\03\00\00\1F\00\00\00" }>, align 8
@alloc492 = private unnamed_addr constant <{ ptr, [16 x i8] }> <{ ptr @alloc535, [16 x i8] c"n\00\00\00\00\00\00\00\19\03\00\00$\00\00\00" }>, align 8
@alloc494 = private unnamed_addr constant <{ ptr, [16 x i8] }> <{ ptr @alloc535, [16 x i8] c"n\00\00\00\00\00\00\00\1A\03\00\00\16\00\00\00" }>, align 8
@alloc496 = private unnamed_addr constant <{ ptr, [16 x i8] }> <{ ptr @alloc535, [16 x i8] c"n\00\00\00\00\00\00\00\DC\00\00\00\0B\00\00\00" }>, align 8
@alloc498 = private unnamed_addr constant <{ ptr, [16 x i8] }> <{ ptr @alloc535, [16 x i8] c"n\00\00\00\00\00\00\00\DD\00\00\00\18\00\00\00" }>, align 8
@alloc500 = private unnamed_addr constant <{ ptr, [16 x i8] }> <{ ptr @alloc535, [16 x i8] c"n\00\00\00\00\00\00\00\C0\00\00\00\1D\00\00\00" }>, align 8
@alloc502 = private unnamed_addr constant <{ ptr, [16 x i8] }> <{ ptr @alloc535, [16 x i8] c"n\00\00\00\00\00\00\00\C6\00\00\00\10\00\00\00" }>, align 8
@alloc504 = private unnamed_addr constant <{ ptr, [16 x i8] }> <{ ptr @alloc535, [16 x i8] c"n\00\00\00\00\00\00\00\C6\00\00\000\00\00\00" }>, align 8
@alloc506 = private unnamed_addr constant <{ ptr, [16 x i8] }> <{ ptr @alloc535, [16 x i8] c"n\00\00\00\00\00\00\00\C6\00\00\00=\00\00\00" }>, align 8
@alloc508 = private unnamed_addr constant <{ ptr, [16 x i8] }> <{ ptr @alloc535, [16 x i8] c"n\00\00\00\00\00\00\00\C6\00\00\00;\00\00\00" }>, align 8
@alloc510 = private unnamed_addr constant <{ ptr, [16 x i8] }> <{ ptr @alloc535, [16 x i8] c"n\00\00\00\00\00\00\00\C7\00\00\00\11\00\00\00" }>, align 8
@alloc512 = private unnamed_addr constant <{ ptr, [16 x i8] }> <{ ptr @alloc535, [16 x i8] c"n\00\00\00\00\00\00\00\CB\00\00\00\1A\00\00\00" }>, align 8
@alloc514 = private unnamed_addr constant <{ ptr, [16 x i8] }> <{ ptr @alloc535, [16 x i8] c"n\00\00\00\00\00\00\00\CB\00\00\00$\00\00\00" }>, align 8
@alloc516 = private unnamed_addr constant <{ ptr, [16 x i8] }> <{ ptr @alloc535, [16 x i8] c"n\00\00\00\00\00\00\00\D0\00\00\00\0F\00\00\00" }>, align 8
@alloc518 = private unnamed_addr constant <{ ptr, [16 x i8] }> <{ ptr @alloc535, [16 x i8] c"n\00\00\00\00\00\00\00\F2\01\00\00\0B\00\00\00" }>, align 8
@alloc520 = private unnamed_addr constant <{ ptr, [16 x i8] }> <{ ptr @alloc535, [16 x i8] c"n\00\00\00\00\00\00\00\F3\01\00\00\1C\00\00\00" }>, align 8
@alloc522 = private unnamed_addr constant <{ ptr, [16 x i8] }> <{ ptr @alloc535, [16 x i8] c"n\00\00\00\00\00\00\00\F4\01\00\00\1A\00\00\00" }>, align 8
@alloc524 = private unnamed_addr constant <{ ptr, [16 x i8] }> <{ ptr @alloc535, [16 x i8] c"n\00\00\00\00\00\00\00\09\02\00\00\11\00\00\00" }>, align 8
@alloc526 = private unnamed_addr constant <{ ptr, [16 x i8] }> <{ ptr @alloc535, [16 x i8] c"n\00\00\00\00\00\00\00\0D\02\00\005\00\00\00" }>, align 8
@alloc528 = private unnamed_addr constant <{ ptr, [16 x i8] }> <{ ptr @alloc535, [16 x i8] c"n\00\00\00\00\00\00\00\0E\02\00\00\11\00\00\00" }>, align 8
@alloc530 = private unnamed_addr constant <{ ptr, [16 x i8] }> <{ ptr @alloc535, [16 x i8] c"n\00\00\00\00\00\00\00\12\02\00\00'\00\00\00" }>, align 8
@alloc532 = private unnamed_addr constant <{ ptr, [16 x i8] }> <{ ptr @alloc535, [16 x i8] c"n\00\00\00\00\00\00\00\12\02\00\00\0A\00\00\00" }>, align 8
@alloc534 = private unnamed_addr constant <{ ptr, [16 x i8] }> <{ ptr @alloc535, [16 x i8] c"n\00\00\00\00\00\00\00\1A\02\00\00\07\00\00\00" }>, align 8
@alloc536 = private unnamed_addr constant <{ ptr, [16 x i8] }> <{ ptr @alloc535, [16 x i8] c"n\00\00\00\00\00\00\005\03\00\00\11\00\00\00" }>, align 8
@alloc537 = private unnamed_addr constant <{ [97 x i8] }> <{ [97 x i8] c"unsafe precondition(s) violated: slice::get_unchecked requires that the index is within the slice" }>, align 1
@alloc538 = private unnamed_addr constant <{ [110 x i8] }> <{ [110 x i8] c"/Users/yaw/.rustup/toolchains/nightly-aarch64-apple-darwin/lib/rustlib/src/rust/library/core/src/slice/iter.rs" }>, align 1
@alloc539 = private unnamed_addr constant <{ ptr, [16 x i8] }> <{ ptr @alloc538, [16 x i8] c"n\00\00\00\00\00\00\00\85\00\00\00\01\00\00\00" }>, align 8
@alloc540 = private unnamed_addr constant <{ [37 x i8] }> <{ [37 x i8] c"too many memory regions in memory map" }>, align 1
@alloc561 = private unnamed_addr constant <{ [103 x i8] }> <{ [103 x i8] c"/Users/yaw/.cargo/registry/src/github.com-1ecc6299db9ec823/bootloader-0.9.23/src/bootinfo/memory_map.rs" }>, align 1
@alloc542 = private unnamed_addr constant <{ ptr, [16 x i8] }> <{ ptr @alloc561, [16 x i8] c"g\00\00\00\00\00\00\00\1C\00\00\00\09\00\00\00" }>, align 8
@alloc544 = private unnamed_addr constant <{ ptr, [16 x i8] }> <{ ptr @alloc561, [16 x i8] c"g\00\00\00\00\00\00\00 \00\00\00\09\00\00\00" }>, align 8
@alloc546 = private unnamed_addr constant <{ ptr, [16 x i8] }> <{ ptr @alloc561, [16 x i8] c"g\00\00\00\00\00\00\00!\00\00\00\09\00\00\00" }>, align 8
@alloc70 = private unnamed_addr constant <{ [1 x i8] }> zeroinitializer, align 1
@alloc548 = private unnamed_addr constant <{ ptr, [16 x i8] }> <{ ptr @alloc561, [16 x i8] c"g\00\00\00\00\00\00\00H\00\00\00\0A\00\00\00" }>, align 8
@alloc550 = private unnamed_addr constant <{ ptr, [16 x i8] }> <{ ptr @alloc561, [16 x i8] c"g\00\00\00\00\00\00\00O\00\00\00\0E\00\00\00" }>, align 8
@alloc552 = private unnamed_addr constant <{ ptr, [16 x i8] }> <{ ptr @alloc561, [16 x i8] c"g\00\00\00\00\00\00\00\85\00\00\00\19\00\00\00" }>, align 8
@alloc554 = private unnamed_addr constant <{ ptr, [16 x i8] }> <{ ptr @alloc561, [16 x i8] c"g\00\00\00\00\00\00\00\88\00\00\00\1F\00\00\00" }>, align 8
@alloc556 = private unnamed_addr constant <{ ptr, [16 x i8] }> <{ ptr @alloc561, [16 x i8] c"g\00\00\00\00\00\00\00\93\00\00\00\09\00\00\00" }>, align 8
@alloc558 = private unnamed_addr constant <{ ptr, [16 x i8] }> <{ ptr @alloc561, [16 x i8] c"g\00\00\00\00\00\00\00\98\00\00\00\09\00\00\00" }>, align 8
@alloc126 = private unnamed_addr constant <{ [11 x i8] }> <{ [11 x i8] c"FrameRange(" }>, align 1
@alloc128 = private unnamed_addr constant <{ [2 x i8] }> <{ [2 x i8] c".." }>, align 1
@alloc129 = private unnamed_addr constant <{ [1 x i8] }> <{ [1 x i8] c")" }>, align 1
@alloc127 = private unnamed_addr constant <{ ptr, [8 x i8], ptr, [8 x i8], ptr, [8 x i8] }> <{ ptr @alloc126, [8 x i8] c"\0B\00\00\00\00\00\00\00", ptr @alloc128, [8 x i8] c"\02\00\00\00\00\00\00\00", ptr @alloc129, [8 x i8] c"\01\00\00\00\00\00\00\00" }>, align 8
@alloc141 = private unnamed_addr constant <{ [8 x i8], [8 x i8], [8 x i8], [8 x i8], [9 x i8], [7 x i8], [16 x i8], [8 x i8], [8 x i8], [8 x i8], [9 x i8], [7 x i8], [8 x i8] }> <{ [8 x i8] c"\02\00\00\00\00\00\00\00", [8 x i8] undef, [8 x i8] c"\02\00\00\00\00\00\00\00", [8 x i8] undef, [9 x i8] c"\04\00\00\00 \00\00\00\03", [7 x i8] undef, [16 x i8] c"\00\00\00\00\00\00\00\00\02\00\00\00\00\00\00\00", [8 x i8] undef, [8 x i8] c"\02\00\00\00\00\00\00\00", [8 x i8] undef, [9 x i8] c"\04\00\00\00 \00\00\00\03", [7 x i8] undef, [8 x i8] c"\01\00\00\00\00\00\00\00" }>, align 8
@alloc239 = private unnamed_addr constant <{ [20 x i8] }> <{ [20 x i8] c"invalid region type " }>, align 1
@alloc240 = private unnamed_addr constant <{ ptr, [8 x i8] }> <{ ptr @alloc239, [8 x i8] c"\14\00\00\00\00\00\00\00" }>, align 8
@alloc560 = private unnamed_addr constant <{ ptr, [16 x i8] }> <{ ptr @alloc561, [16 x i8] c"g\00\00\00\00\00\00\00\E1\00\00\00\12\00\00\00" }>, align 8
@alloc562 = private unnamed_addr constant <{ ptr, [16 x i8] }> <{ ptr @alloc561, [16 x i8] c"g\00\00\00\00\00\00\00\E4\00\00\007\00\00\00" }>, align 8
@alloc563 = private unnamed_addr constant <{ [12 x i8] }> <{ [12 x i8] c"MemoryRegion" }>, align 1
@alloc564 = private unnamed_addr constant <{ [5 x i8] }> <{ [5 x i8] c"range" }>, align 1
@vtable.7 = private unnamed_addr constant <{ ptr, [16 x i8], ptr }> <{ ptr @"_ZN4core3ptr69drop_in_place$LT$$RF$bootloader..bootinfo..memory_map..FrameRange$GT$17h3a6f7e4a71429a14E", [16 x i8] c"\08\00\00\00\00\00\00\00\08\00\00\00\00\00\00\00", ptr @"_ZN42_$LT$$RF$T$u20$as$u20$core..fmt..Debug$GT$3fmt17h191c94026f662477E" }>, align 8, !dbg !44
@alloc593 = private unnamed_addr constant <{ [11 x i8] }> <{ [11 x i8] c"region_type" }>, align 1
@vtable.8 = private unnamed_addr constant <{ ptr, [16 x i8], ptr }> <{ ptr @"_ZN4core3ptr75drop_in_place$LT$$RF$bootloader..bootinfo..memory_map..MemoryRegionType$GT$17h8394beee1d64ef07E", [16 x i8] c"\08\00\00\00\00\00\00\00\08\00\00\00\00\00\00\00", ptr @"_ZN42_$LT$$RF$T$u20$as$u20$core..fmt..Debug$GT$3fmt17h9308fe0ec8ba9eb4E" }>, align 8, !dbg !53
@alloc572 = private unnamed_addr constant <{ [13 x i8] }> <{ [13 x i8] c"NonExhaustive" }>, align 1
@alloc573 = private unnamed_addr constant <{ [7 x i8] }> <{ [7 x i8] c"Package" }>, align 1
@alloc598 = private unnamed_addr constant <{ [8 x i8] }> <{ [8 x i8] c"BootInfo" }>, align 1
@alloc575 = private unnamed_addr constant <{ [5 x i8] }> <{ [5 x i8] c"Empty" }>, align 1
@alloc576 = private unnamed_addr constant <{ [9 x i8] }> <{ [9 x i8] c"FrameZero" }>, align 1
@alloc577 = private unnamed_addr constant <{ [10 x i8] }> <{ [10 x i8] c"Bootloader" }>, align 1
@alloc578 = private unnamed_addr constant <{ [9 x i8] }> <{ [9 x i8] c"PageTable" }>, align 1
@alloc579 = private unnamed_addr constant <{ [11 x i8] }> <{ [11 x i8] c"KernelStack" }>, align 1
@alloc580 = private unnamed_addr constant <{ [6 x i8] }> <{ [6 x i8] c"Kernel" }>, align 1
@alloc581 = private unnamed_addr constant <{ [9 x i8] }> <{ [9 x i8] c"BadMemory" }>, align 1
@alloc582 = private unnamed_addr constant <{ [7 x i8] }> <{ [7 x i8] c"AcpiNvs" }>, align 1
@alloc583 = private unnamed_addr constant <{ [15 x i8] }> <{ [15 x i8] c"AcpiReclaimable" }>, align 1
@alloc584 = private unnamed_addr constant <{ [8 x i8] }> <{ [8 x i8] c"Reserved" }>, align 1
@alloc585 = private unnamed_addr constant <{ [5 x i8] }> <{ [5 x i8] c"InUse" }>, align 1
@alloc586 = private unnamed_addr constant <{ [6 x i8] }> <{ [6 x i8] c"Usable" }>, align 1
@alloc587 = private unnamed_addr constant <{ [16 x i8] }> <{ [16 x i8] c"E820MemoryRegion" }>, align 1
@alloc612 = private unnamed_addr constant <{ [10 x i8] }> <{ [10 x i8] c"start_addr" }>, align 1
@vtable.9 = private unnamed_addr constant <{ ptr, [16 x i8], ptr }> <{ ptr @"_ZN4core3ptr28drop_in_place$LT$$RF$u64$GT$17h30040fe9f766753dE", [16 x i8] c"\08\00\00\00\00\00\00\00\08\00\00\00\00\00\00\00", ptr @"_ZN42_$LT$$RF$T$u20$as$u20$core..fmt..Debug$GT$3fmt17hd1e7dfcb643b692bE" }>, align 8, !dbg !62
@alloc592 = private unnamed_addr constant <{ [3 x i8] }> <{ [3 x i8] c"len" }>, align 1
@vtable.a = private unnamed_addr constant <{ ptr, [16 x i8], ptr }> <{ ptr @"_ZN4core3ptr28drop_in_place$LT$$RF$u32$GT$17hf42615f1433062f0E", [16 x i8] c"\08\00\00\00\00\00\00\00\08\00\00\00\00\00\00\00", ptr @"_ZN42_$LT$$RF$T$u20$as$u20$core..fmt..Debug$GT$3fmt17hb1e50250e9691201E" }>, align 8, !dbg !71
@alloc597 = private unnamed_addr constant <{ [24 x i8] }> <{ [24 x i8] c"acpi_extended_attributes" }>, align 1
@alloc599 = private unnamed_addr constant <{ [10 x i8] }> <{ [10 x i8] c"memory_map" }>, align 1
@vtable.b = private unnamed_addr constant <{ ptr, [16 x i8], ptr }> <{ ptr @"_ZN4core3ptr68drop_in_place$LT$$RF$bootloader..bootinfo..memory_map..MemoryMap$GT$17hd1a70ca77dc2b21fE", [16 x i8] c"\08\00\00\00\00\00\00\00\08\00\00\00\00\00\00\00", ptr @"_ZN42_$LT$$RF$T$u20$as$u20$core..fmt..Debug$GT$3fmt17h6d0a934c028c7de0E" }>, align 8, !dbg !80
@alloc603 = private unnamed_addr constant <{ [12 x i8] }> <{ [12 x i8] c"tls_template" }>, align 1
@vtable.c = private unnamed_addr constant <{ ptr, [16 x i8], ptr }> <{ ptr @"_ZN4core3ptr58drop_in_place$LT$$RF$bootloader..bootinfo..TlsTemplate$GT$17h19140ab0c201addaE", [16 x i8] c"\08\00\00\00\00\00\00\00\08\00\00\00\00\00\00\00", ptr @"_ZN42_$LT$$RF$T$u20$as$u20$core..fmt..Debug$GT$3fmt17h3302d08790677e6eE" }>, align 8, !dbg !96
@alloc607 = private unnamed_addr constant <{ [15 x i8] }> <{ [15 x i8] c"_non_exhaustive" }>, align 1
@vtable.d = private unnamed_addr constant <{ ptr, [16 x i8], ptr }> <{ ptr @"_ZN4core3ptr27drop_in_place$LT$$RF$u8$GT$17h74c48886f9ebbf75E", [16 x i8] c"\08\00\00\00\00\00\00\00\08\00\00\00\00\00\00\00", ptr @"_ZN42_$LT$$RF$T$u20$as$u20$core..fmt..Debug$GT$3fmt17hc55907ba3a1fc4d4E" }>, align 8, !dbg !110
@alloc611 = private unnamed_addr constant <{ [11 x i8] }> <{ [11 x i8] c"TlsTemplate" }>, align 1
@alloc613 = private unnamed_addr constant <{ [9 x i8] }> <{ [9 x i8] c"file_size" }>, align 1
@alloc614 = private unnamed_addr constant <{ [8 x i8] }> <{ [8 x i8] c"mem_size" }>, align 1

; <core::ops::range::Range<usize> as core::slice::index::SliceIndex<[T]>>::get_unchecked
; Function Attrs: inlinehint nounwind
define { ptr, i64 } @"_ZN106_$LT$core..ops..range..Range$LT$usize$GT$$u20$as$u20$core..slice..index..SliceIndex$LT$$u5b$T$u5d$$GT$$GT$13get_unchecked17he3cd4da4e0f3e971E"(i64 %self.0, i64 %self.1, ptr %slice.0, i64 %slice.1) unnamed_addr #0 !dbg !150 {
start:
  %0 = alloca ptr, align 8
  %count.dbg.spill.i1 = alloca i64, align 8
  %self.dbg.spill.i2 = alloca ptr, align 8
  %count.dbg.spill.i = alloca i64, align 8
  %self.dbg.spill.i = alloca ptr, align 8
  %slice.dbg.spill.i = alloca { ptr, i64 }, align 8
  %this.dbg.spill.i = alloca { i64, i64 }, align 8
  %_4.i = alloca i8, align 1
  %slice.dbg.spill = alloca { ptr, i64 }, align 8
  %self.dbg.spill = alloca { i64, i64 }, align 8
  %_7 = alloca { { i64, i64 }, { ptr, i64 } }, align 8
  %this = alloca { i64, i64 }, align 8
  %1 = getelementptr inbounds { i64, i64 }, ptr %self.dbg.spill, i32 0, i32 0
  store i64 %self.0, ptr %1, align 8
  %2 = getelementptr inbounds { i64, i64 }, ptr %self.dbg.spill, i32 0, i32 1
  store i64 %self.1, ptr %2, align 8
  call void @llvm.dbg.declare(metadata ptr %self.dbg.spill, metadata !171, metadata !DIExpression()), !dbg !177
  %3 = getelementptr inbounds { ptr, i64 }, ptr %slice.dbg.spill, i32 0, i32 0
  store ptr %slice.0, ptr %3, align 8
  %4 = getelementptr inbounds { ptr, i64 }, ptr %slice.dbg.spill, i32 0, i32 1
  store i64 %slice.1, ptr %4, align 8
  call void @llvm.dbg.declare(metadata ptr %slice.dbg.spill, metadata !172, metadata !DIExpression()), !dbg !178
  call void @llvm.dbg.declare(metadata ptr %this, metadata !173, metadata !DIExpression()), !dbg !179
  store i64 %self.0, ptr %this, align 8, !dbg !180
  %5 = getelementptr inbounds { i64, i64 }, ptr %this, i32 0, i32 1, !dbg !180
  store i64 %self.1, ptr %5, align 8, !dbg !180
  %6 = getelementptr inbounds { i64, i64 }, ptr %this, i32 0, i32 0, !dbg !181
  %_8.0 = load i64, ptr %6, align 8, !dbg !181
  %7 = getelementptr inbounds { i64, i64 }, ptr %this, i32 0, i32 1, !dbg !181
  %_8.1 = load i64, ptr %7, align 8, !dbg !181
  %8 = getelementptr inbounds { i64, i64 }, ptr %_7, i32 0, i32 0, !dbg !181
  store i64 %_8.0, ptr %8, align 8, !dbg !181
  %9 = getelementptr inbounds { i64, i64 }, ptr %_7, i32 0, i32 1, !dbg !181
  store i64 %_8.1, ptr %9, align 8, !dbg !181
  %10 = getelementptr inbounds { { i64, i64 }, { ptr, i64 } }, ptr %_7, i32 0, i32 1, !dbg !181
  %11 = getelementptr inbounds { ptr, i64 }, ptr %10, i32 0, i32 0, !dbg !181
  store ptr %slice.0, ptr %11, align 8, !dbg !181
  %12 = getelementptr inbounds { ptr, i64 }, ptr %10, i32 0, i32 1, !dbg !181
  store i64 %slice.1, ptr %12, align 8, !dbg !181
  %13 = getelementptr inbounds { i64, i64 }, ptr %_7, i32 0, i32 0, !dbg !181
  %14 = load i64, ptr %13, align 8, !dbg !181
  %15 = getelementptr inbounds { i64, i64 }, ptr %_7, i32 0, i32 1, !dbg !181
  %16 = load i64, ptr %15, align 8, !dbg !181
  %17 = getelementptr inbounds { { i64, i64 }, { ptr, i64 } }, ptr %_7, i32 0, i32 1, !dbg !181
  %18 = getelementptr inbounds { ptr, i64 }, ptr %17, i32 0, i32 0, !dbg !181
  %19 = load ptr, ptr %18, align 8, !dbg !181
  %20 = getelementptr inbounds { ptr, i64 }, ptr %17, i32 0, i32 1, !dbg !181
  %21 = load i64, ptr %20, align 8, !dbg !181
  store i64 %14, ptr %this.dbg.spill.i, align 8
  %22 = getelementptr inbounds { i64, i64 }, ptr %this.dbg.spill.i, i32 0, i32 1
  store i64 %16, ptr %22, align 8
  call void @llvm.dbg.declare(metadata ptr %this.dbg.spill.i, metadata !182, metadata !DIExpression()), !dbg !190
  store ptr %19, ptr %slice.dbg.spill.i, align 8
  %23 = getelementptr inbounds { ptr, i64 }, ptr %slice.dbg.spill.i, i32 0, i32 1
  store i64 %21, ptr %23, align 8
  call void @llvm.dbg.declare(metadata ptr %slice.dbg.spill.i, metadata !189, metadata !DIExpression()), !dbg !190
  %_5.i = icmp uge i64 %16, %14, !dbg !192
  br i1 %_5.i, label %bb2.i, label %bb1.i, !dbg !192

bb1.i:                                            ; preds = %start
  store i8 0, ptr %_4.i, align 1, !dbg !192
  br label %bb3.i, !dbg !192

bb2.i:                                            ; preds = %start
; call core::ptr::const_ptr::<impl *const [T]>::len
  %_10.i = call i64 @"_ZN4core3ptr9const_ptr43_$LT$impl$u20$$BP$const$u20$$u5b$T$u5d$$GT$3len17h03cda586708b467eE"(ptr %19, i64 %21) #9, !dbg !194
  %_8.i = icmp ule i64 %16, %_10.i, !dbg !195
  %24 = zext i1 %_8.i to i8, !dbg !192
  store i8 %24, ptr %_4.i, align 1, !dbg !192
  br label %bb3.i, !dbg !192

bb3.i:                                            ; preds = %bb2.i, %bb1.i
  %25 = load i8, ptr %_4.i, align 1, !dbg !196, !range !197, !noundef !24
  %26 = trunc i8 %25 to i1, !dbg !196
  %_3.i = xor i1 %26, true, !dbg !196
  br i1 %_3.i, label %bb5.i, label %"_ZN106_$LT$core..ops..range..Range$LT$usize$GT$$u20$as$u20$core..slice..index..SliceIndex$LT$$u5b$T$u5d$$GT$$GT$13get_unchecked7runtime17heb39397e088dad10E.exit", !dbg !196

bb5.i:                                            ; preds = %bb3.i
; call core::panicking::panic_nounwind
  call void @_ZN4core9panicking14panic_nounwind17h3015023400b7dcd0E(ptr align 1 @alloc305, i64 97) #10, !dbg !198
  unreachable, !dbg !198

"_ZN106_$LT$core..ops..range..Range$LT$usize$GT$$u20$as$u20$core..slice..index..SliceIndex$LT$$u5b$T$u5d$$GT$$GT$13get_unchecked7runtime17heb39397e088dad10E.exit": ; preds = %bb3.i
; call core::ptr::const_ptr::<impl *const [T]>::as_ptr
  %_11 = call ptr @"_ZN4core3ptr9const_ptr43_$LT$impl$u20$$BP$const$u20$$u5b$T$u5d$$GT$6as_ptr17h9882ca83784fb867E"(ptr %slice.0, i64 %slice.1) #9, !dbg !199
  store ptr %_11, ptr %self.dbg.spill.i, align 8
  call void @llvm.dbg.declare(metadata ptr %self.dbg.spill.i, metadata !200, metadata !DIExpression()), !dbg !211
  store i64 %self.0, ptr %count.dbg.spill.i, align 8
  call void @llvm.dbg.declare(metadata ptr %count.dbg.spill.i, metadata !210, metadata !DIExpression()), !dbg !213
  store ptr %_11, ptr %self.dbg.spill.i2, align 8
  call void @llvm.dbg.declare(metadata ptr %self.dbg.spill.i2, metadata !214, metadata !DIExpression()), !dbg !221
  store i64 %self.0, ptr %count.dbg.spill.i1, align 8
  call void @llvm.dbg.declare(metadata ptr %count.dbg.spill.i1, metadata !220, metadata !DIExpression()), !dbg !223
  %27 = getelementptr inbounds %"bootinfo::memory_map::MemoryRegion", ptr %_11, i64 %self.0, !dbg !224
  store ptr %27, ptr %0, align 8, !dbg !224
  %28 = load ptr, ptr %0, align 8, !dbg !224
  %_17.0 = sub i64 %self.1, %self.0, !dbg !225
  %_17.1 = icmp ult i64 %self.1, %self.0, !dbg !225
  %29 = call i1 @llvm.expect.i1(i1 %_17.1, i1 false), !dbg !225
  br i1 %29, label %panic, label %bb4, !dbg !225

bb4:                                              ; preds = %"_ZN106_$LT$core..ops..range..Range$LT$usize$GT$$u20$as$u20$core..slice..index..SliceIndex$LT$$u5b$T$u5d$$GT$$GT$13get_unchecked7runtime17heb39397e088dad10E.exit"
; call core::ptr::slice_from_raw_parts
  %30 = call { ptr, i64 } @_ZN4core3ptr20slice_from_raw_parts17h7c226f047a56f6e1E(ptr %28, i64 %_17.0) #9, !dbg !226
  %31 = extractvalue { ptr, i64 } %30, 0, !dbg !226
  %32 = extractvalue { ptr, i64 } %30, 1, !dbg !226
  %33 = insertvalue { ptr, i64 } undef, ptr %31, 0, !dbg !227
  %34 = insertvalue { ptr, i64 } %33, i64 %32, 1, !dbg !227
  ret { ptr, i64 } %34, !dbg !227

panic:                                            ; preds = %"_ZN106_$LT$core..ops..range..Range$LT$usize$GT$$u20$as$u20$core..slice..index..SliceIndex$LT$$u5b$T$u5d$$GT$$GT$13get_unchecked7runtime17heb39397e088dad10E.exit"
; call core::panicking::panic
  call void @_ZN4core9panicking5panic17hbe538fb8c244b3dfE(ptr align 1 @str.0, i64 33, ptr align 8 @alloc304) #10, !dbg !225
  unreachable, !dbg !225
}

; <core::ops::range::Range<usize> as core::slice::index::SliceIndex<[T]>>::get_unchecked_mut
; Function Attrs: inlinehint nounwind
define { ptr, i64 } @"_ZN106_$LT$core..ops..range..Range$LT$usize$GT$$u20$as$u20$core..slice..index..SliceIndex$LT$$u5b$T$u5d$$GT$$GT$17get_unchecked_mut17h3bf15b66805e5830E"(i64 %self.0, i64 %self.1, ptr %slice.0, i64 %slice.1) unnamed_addr #0 !dbg !228 {
start:
  %self.dbg.spill.i5 = alloca { ptr, i64 }, align 8
  %self.dbg.spill.i4 = alloca { ptr, i64 }, align 8
  %0 = alloca ptr, align 8
  %count.dbg.spill.i1 = alloca i64, align 8
  %self.dbg.spill.i2 = alloca ptr, align 8
  %count.dbg.spill.i = alloca i64, align 8
  %self.dbg.spill.i = alloca ptr, align 8
  %slice.dbg.spill.i = alloca { ptr, i64 }, align 8
  %this.dbg.spill.i = alloca { i64, i64 }, align 8
  %_4.i = alloca i8, align 1
  %slice.dbg.spill = alloca { ptr, i64 }, align 8
  %self.dbg.spill = alloca { i64, i64 }, align 8
  %_7 = alloca { { i64, i64 }, { ptr, i64 } }, align 8
  %this = alloca { i64, i64 }, align 8
  %1 = getelementptr inbounds { i64, i64 }, ptr %self.dbg.spill, i32 0, i32 0
  store i64 %self.0, ptr %1, align 8
  %2 = getelementptr inbounds { i64, i64 }, ptr %self.dbg.spill, i32 0, i32 1
  store i64 %self.1, ptr %2, align 8
  call void @llvm.dbg.declare(metadata ptr %self.dbg.spill, metadata !236, metadata !DIExpression()), !dbg !240
  %3 = getelementptr inbounds { ptr, i64 }, ptr %slice.dbg.spill, i32 0, i32 0
  store ptr %slice.0, ptr %3, align 8
  %4 = getelementptr inbounds { ptr, i64 }, ptr %slice.dbg.spill, i32 0, i32 1
  store i64 %slice.1, ptr %4, align 8
  call void @llvm.dbg.declare(metadata ptr %slice.dbg.spill, metadata !237, metadata !DIExpression()), !dbg !241
  call void @llvm.dbg.declare(metadata ptr %this, metadata !238, metadata !DIExpression()), !dbg !242
  store i64 %self.0, ptr %this, align 8, !dbg !243
  %5 = getelementptr inbounds { i64, i64 }, ptr %this, i32 0, i32 1, !dbg !243
  store i64 %self.1, ptr %5, align 8, !dbg !243
  %6 = getelementptr inbounds { i64, i64 }, ptr %this, i32 0, i32 0, !dbg !244
  %_8.0 = load i64, ptr %6, align 8, !dbg !244
  %7 = getelementptr inbounds { i64, i64 }, ptr %this, i32 0, i32 1, !dbg !244
  %_8.1 = load i64, ptr %7, align 8, !dbg !244
  %8 = getelementptr inbounds { i64, i64 }, ptr %_7, i32 0, i32 0, !dbg !244
  store i64 %_8.0, ptr %8, align 8, !dbg !244
  %9 = getelementptr inbounds { i64, i64 }, ptr %_7, i32 0, i32 1, !dbg !244
  store i64 %_8.1, ptr %9, align 8, !dbg !244
  %10 = getelementptr inbounds { { i64, i64 }, { ptr, i64 } }, ptr %_7, i32 0, i32 1, !dbg !244
  %11 = getelementptr inbounds { ptr, i64 }, ptr %10, i32 0, i32 0, !dbg !244
  store ptr %slice.0, ptr %11, align 8, !dbg !244
  %12 = getelementptr inbounds { ptr, i64 }, ptr %10, i32 0, i32 1, !dbg !244
  store i64 %slice.1, ptr %12, align 8, !dbg !244
  %13 = getelementptr inbounds { i64, i64 }, ptr %_7, i32 0, i32 0, !dbg !244
  %14 = load i64, ptr %13, align 8, !dbg !244
  %15 = getelementptr inbounds { i64, i64 }, ptr %_7, i32 0, i32 1, !dbg !244
  %16 = load i64, ptr %15, align 8, !dbg !244
  %17 = getelementptr inbounds { { i64, i64 }, { ptr, i64 } }, ptr %_7, i32 0, i32 1, !dbg !244
  %18 = getelementptr inbounds { ptr, i64 }, ptr %17, i32 0, i32 0, !dbg !244
  %19 = load ptr, ptr %18, align 8, !dbg !244
  %20 = getelementptr inbounds { ptr, i64 }, ptr %17, i32 0, i32 1, !dbg !244
  %21 = load i64, ptr %20, align 8, !dbg !244
  store i64 %14, ptr %this.dbg.spill.i, align 8
  %22 = getelementptr inbounds { i64, i64 }, ptr %this.dbg.spill.i, i32 0, i32 1
  store i64 %16, ptr %22, align 8
  call void @llvm.dbg.declare(metadata ptr %this.dbg.spill.i, metadata !245, metadata !DIExpression()), !dbg !252
  store ptr %19, ptr %slice.dbg.spill.i, align 8
  %23 = getelementptr inbounds { ptr, i64 }, ptr %slice.dbg.spill.i, i32 0, i32 1
  store i64 %21, ptr %23, align 8
  call void @llvm.dbg.declare(metadata ptr %slice.dbg.spill.i, metadata !251, metadata !DIExpression()), !dbg !252
  %_5.i = icmp uge i64 %16, %14, !dbg !254
  br i1 %_5.i, label %bb2.i, label %bb1.i, !dbg !254

bb1.i:                                            ; preds = %start
  store i8 0, ptr %_4.i, align 1, !dbg !254
  br label %bb3.i, !dbg !254

bb2.i:                                            ; preds = %start
  store ptr %19, ptr %self.dbg.spill.i5, align 8
  %24 = getelementptr inbounds { ptr, i64 }, ptr %self.dbg.spill.i5, i32 0, i32 1
  store i64 %21, ptr %24, align 8
  call void @llvm.dbg.declare(metadata ptr %self.dbg.spill.i5, metadata !256, metadata !DIExpression()), !dbg !264
; call core::ptr::metadata::metadata
  %25 = call i64 @_ZN4core3ptr8metadata8metadata17h5474da0b230ff847E(ptr %19, i64 %21) #9, !dbg !266
  %_8.i = icmp ule i64 %16, %25, !dbg !267
  %26 = zext i1 %_8.i to i8, !dbg !254
  store i8 %26, ptr %_4.i, align 1, !dbg !254
  br label %bb3.i, !dbg !254

bb3.i:                                            ; preds = %bb2.i, %bb1.i
  %27 = load i8, ptr %_4.i, align 1, !dbg !268, !range !197, !noundef !24
  %28 = trunc i8 %27 to i1, !dbg !268
  %_3.i = xor i1 %28, true, !dbg !268
  br i1 %_3.i, label %bb5.i, label %"_ZN106_$LT$core..ops..range..Range$LT$usize$GT$$u20$as$u20$core..slice..index..SliceIndex$LT$$u5b$T$u5d$$GT$$GT$17get_unchecked_mut7runtime17h08521c0a71c03fb3E.exit", !dbg !268

bb5.i:                                            ; preds = %bb3.i
; call core::panicking::panic_nounwind
  call void @_ZN4core9panicking14panic_nounwind17h3015023400b7dcd0E(ptr align 1 @alloc308, i64 101) #10, !dbg !269
  unreachable, !dbg !269

"_ZN106_$LT$core..ops..range..Range$LT$usize$GT$$u20$as$u20$core..slice..index..SliceIndex$LT$$u5b$T$u5d$$GT$$GT$17get_unchecked_mut7runtime17h08521c0a71c03fb3E.exit": ; preds = %bb3.i
  store ptr %slice.0, ptr %self.dbg.spill.i4, align 8
  %29 = getelementptr inbounds { ptr, i64 }, ptr %self.dbg.spill.i4, i32 0, i32 1
  store i64 %slice.1, ptr %29, align 8
  call void @llvm.dbg.declare(metadata ptr %self.dbg.spill.i4, metadata !270, metadata !DIExpression()), !dbg !276
  store ptr %slice.0, ptr %self.dbg.spill.i, align 8
  call void @llvm.dbg.declare(metadata ptr %self.dbg.spill.i, metadata !278, metadata !DIExpression()), !dbg !285
  store i64 %self.0, ptr %count.dbg.spill.i, align 8
  call void @llvm.dbg.declare(metadata ptr %count.dbg.spill.i, metadata !284, metadata !DIExpression()), !dbg !287
  store ptr %slice.0, ptr %self.dbg.spill.i2, align 8
  call void @llvm.dbg.declare(metadata ptr %self.dbg.spill.i2, metadata !288, metadata !DIExpression()), !dbg !294
  store i64 %self.0, ptr %count.dbg.spill.i1, align 8
  call void @llvm.dbg.declare(metadata ptr %count.dbg.spill.i1, metadata !293, metadata !DIExpression()), !dbg !296
  %30 = getelementptr inbounds %"bootinfo::memory_map::MemoryRegion", ptr %slice.0, i64 %self.0, !dbg !297
  store ptr %30, ptr %0, align 8, !dbg !297
  %_3.i3 = load ptr, ptr %0, align 8, !dbg !297
  %_17.0 = sub i64 %self.1, %self.0, !dbg !298
  %_17.1 = icmp ult i64 %self.1, %self.0, !dbg !298
  %31 = call i1 @llvm.expect.i1(i1 %_17.1, i1 false), !dbg !298
  br i1 %31, label %panic, label %bb4, !dbg !298

bb4:                                              ; preds = %"_ZN106_$LT$core..ops..range..Range$LT$usize$GT$$u20$as$u20$core..slice..index..SliceIndex$LT$$u5b$T$u5d$$GT$$GT$17get_unchecked_mut7runtime17h08521c0a71c03fb3E.exit"
; call core::ptr::slice_from_raw_parts_mut
  %32 = call { ptr, i64 } @_ZN4core3ptr24slice_from_raw_parts_mut17h1dda79c878ed0e4cE(ptr %_3.i3, i64 %_17.0) #9, !dbg !299
  %33 = extractvalue { ptr, i64 } %32, 0, !dbg !299
  %34 = extractvalue { ptr, i64 } %32, 1, !dbg !299
  %35 = insertvalue { ptr, i64 } undef, ptr %33, 0, !dbg !300
  %36 = insertvalue { ptr, i64 } %35, i64 %34, 1, !dbg !300
  ret { ptr, i64 } %36, !dbg !300

panic:                                            ; preds = %"_ZN106_$LT$core..ops..range..Range$LT$usize$GT$$u20$as$u20$core..slice..index..SliceIndex$LT$$u5b$T$u5d$$GT$$GT$17get_unchecked_mut7runtime17h08521c0a71c03fb3E.exit"
; call core::panicking::panic
  call void @_ZN4core9panicking5panic17hbe538fb8c244b3dfE(ptr align 1 @str.0, i64 33, ptr align 8 @alloc307) #10, !dbg !298
  unreachable, !dbg !298
}

; <core::ops::range::Range<usize> as core::slice::index::SliceIndex<[T]>>::index
; Function Attrs: inlinehint nounwind
define { ptr, i64 } @"_ZN106_$LT$core..ops..range..Range$LT$usize$GT$$u20$as$u20$core..slice..index..SliceIndex$LT$$u5b$T$u5d$$GT$$GT$5index17h50c7ccbb4e5cc2b5E"(i64 %self.0, i64 %self.1, ptr align 8 %slice.0, i64 %slice.1, ptr align 8 %0) unnamed_addr #0 !dbg !301 {
start:
  %slice.dbg.spill = alloca { ptr, i64 }, align 8
  %self.dbg.spill = alloca { i64, i64 }, align 8
  %1 = getelementptr inbounds { i64, i64 }, ptr %self.dbg.spill, i32 0, i32 0
  store i64 %self.0, ptr %1, align 8
  %2 = getelementptr inbounds { i64, i64 }, ptr %self.dbg.spill, i32 0, i32 1
  store i64 %self.1, ptr %2, align 8
  call void @llvm.dbg.declare(metadata ptr %self.dbg.spill, metadata !322, metadata !DIExpression()), !dbg !324
  %3 = getelementptr inbounds { ptr, i64 }, ptr %slice.dbg.spill, i32 0, i32 0
  store ptr %slice.0, ptr %3, align 8
  %4 = getelementptr inbounds { ptr, i64 }, ptr %slice.dbg.spill, i32 0, i32 1
  store i64 %slice.1, ptr %4, align 8
  call void @llvm.dbg.declare(metadata ptr %slice.dbg.spill, metadata !323, metadata !DIExpression()), !dbg !325
  %_3 = icmp ugt i64 %self.0, %self.1, !dbg !326
  br i1 %_3, label %bb1, label %bb2, !dbg !326

bb2:                                              ; preds = %start
  %_9 = icmp ugt i64 %self.1, %slice.1, !dbg !327
  br i1 %_9, label %bb3, label %bb4, !dbg !327

bb1:                                              ; preds = %start
; call core::slice::index::slice_index_order_fail
  call void @_ZN4core5slice5index22slice_index_order_fail17h22efc5f2c9677f25E(i64 %self.0, i64 %self.1, ptr align 8 %0) #10, !dbg !328
  unreachable, !dbg !328

bb4:                                              ; preds = %bb2
; call <core::ops::range::Range<usize> as core::slice::index::SliceIndex<[T]>>::get_unchecked
  %5 = call { ptr, i64 } @"_ZN106_$LT$core..ops..range..Range$LT$usize$GT$$u20$as$u20$core..slice..index..SliceIndex$LT$$u5b$T$u5d$$GT$$GT$13get_unchecked17he3cd4da4e0f3e971E"(i64 %self.0, i64 %self.1, ptr %slice.0, i64 %slice.1) #9, !dbg !329
  %_17.0 = extractvalue { ptr, i64 } %5, 0, !dbg !329
  %_17.1 = extractvalue { ptr, i64 } %5, 1, !dbg !329
  %6 = insertvalue { ptr, i64 } undef, ptr %_17.0, 0, !dbg !330
  %7 = insertvalue { ptr, i64 } %6, i64 %_17.1, 1, !dbg !330
  ret { ptr, i64 } %7, !dbg !330

bb3:                                              ; preds = %bb2
; call core::slice::index::slice_end_index_len_fail
  call void @_ZN4core5slice5index24slice_end_index_len_fail17h84f68b807b163a98E(i64 %self.1, i64 %slice.1, ptr align 8 %0) #10, !dbg !331
  unreachable, !dbg !331
}

; <core::ops::range::Range<usize> as core::slice::index::SliceIndex<[T]>>::index_mut
; Function Attrs: inlinehint nounwind
define { ptr, i64 } @"_ZN106_$LT$core..ops..range..Range$LT$usize$GT$$u20$as$u20$core..slice..index..SliceIndex$LT$$u5b$T$u5d$$GT$$GT$9index_mut17h1e037c7a26aa55bfE"(i64 %self.0, i64 %self.1, ptr align 8 %slice.0, i64 %slice.1, ptr align 8 %0) unnamed_addr #0 !dbg !332 {
start:
  %slice.dbg.spill = alloca { ptr, i64 }, align 8
  %self.dbg.spill = alloca { i64, i64 }, align 8
  %1 = getelementptr inbounds { i64, i64 }, ptr %self.dbg.spill, i32 0, i32 0
  store i64 %self.0, ptr %1, align 8
  %2 = getelementptr inbounds { i64, i64 }, ptr %self.dbg.spill, i32 0, i32 1
  store i64 %self.1, ptr %2, align 8
  call void @llvm.dbg.declare(metadata ptr %self.dbg.spill, metadata !340, metadata !DIExpression()), !dbg !342
  %3 = getelementptr inbounds { ptr, i64 }, ptr %slice.dbg.spill, i32 0, i32 0
  store ptr %slice.0, ptr %3, align 8
  %4 = getelementptr inbounds { ptr, i64 }, ptr %slice.dbg.spill, i32 0, i32 1
  store i64 %slice.1, ptr %4, align 8
  call void @llvm.dbg.declare(metadata ptr %slice.dbg.spill, metadata !341, metadata !DIExpression()), !dbg !343
  %_4 = icmp ugt i64 %self.0, %self.1, !dbg !344
  br i1 %_4, label %bb1, label %bb2, !dbg !344

bb2:                                              ; preds = %start
  %_10 = icmp ugt i64 %self.1, %slice.1, !dbg !345
  br i1 %_10, label %bb3, label %bb4, !dbg !345

bb1:                                              ; preds = %start
; call core::slice::index::slice_index_order_fail
  call void @_ZN4core5slice5index22slice_index_order_fail17h22efc5f2c9677f25E(i64 %self.0, i64 %self.1, ptr align 8 %0) #10, !dbg !346
  unreachable, !dbg !346

bb4:                                              ; preds = %bb2
; call <core::ops::range::Range<usize> as core::slice::index::SliceIndex<[T]>>::get_unchecked_mut
  %5 = call { ptr, i64 } @"_ZN106_$LT$core..ops..range..Range$LT$usize$GT$$u20$as$u20$core..slice..index..SliceIndex$LT$$u5b$T$u5d$$GT$$GT$17get_unchecked_mut17h3bf15b66805e5830E"(i64 %self.0, i64 %self.1, ptr %slice.0, i64 %slice.1) #9, !dbg !347
  %_20.0 = extractvalue { ptr, i64 } %5, 0, !dbg !347
  %_20.1 = extractvalue { ptr, i64 } %5, 1, !dbg !347
  %6 = insertvalue { ptr, i64 } undef, ptr %_20.0, 0, !dbg !348
  %7 = insertvalue { ptr, i64 } %6, i64 %_20.1, 1, !dbg !348
  ret { ptr, i64 } %7, !dbg !348

bb3:                                              ; preds = %bb2
; call core::slice::index::slice_end_index_len_fail
  call void @_ZN4core5slice5index24slice_end_index_len_fail17h84f68b807b163a98E(i64 %self.1, i64 %slice.1, ptr align 8 %0) #10, !dbg !349
  unreachable, !dbg !349
}

; <core::ops::range::RangeTo<usize> as core::slice::index::SliceIndex<[T]>>::index_mut
; Function Attrs: inlinehint nounwind
define { ptr, i64 } @"_ZN108_$LT$core..ops..range..RangeTo$LT$usize$GT$$u20$as$u20$core..slice..index..SliceIndex$LT$$u5b$T$u5d$$GT$$GT$9index_mut17ha382f3f9149a23daE"(i64 %self, ptr align 8 %slice.0, i64 %slice.1, ptr align 8 %0) unnamed_addr #0 !dbg !350 {
start:
  %slice.dbg.spill = alloca { ptr, i64 }, align 8
  %self.dbg.spill = alloca i64, align 8
  %_5 = alloca { i64, i64 }, align 8
  store i64 %self, ptr %self.dbg.spill, align 8
  call void @llvm.dbg.declare(metadata ptr %self.dbg.spill, metadata !358, metadata !DIExpression()), !dbg !360
  %1 = getelementptr inbounds { ptr, i64 }, ptr %slice.dbg.spill, i32 0, i32 0
  store ptr %slice.0, ptr %1, align 8
  %2 = getelementptr inbounds { ptr, i64 }, ptr %slice.dbg.spill, i32 0, i32 1
  store i64 %slice.1, ptr %2, align 8
  call void @llvm.dbg.declare(metadata ptr %slice.dbg.spill, metadata !359, metadata !DIExpression()), !dbg !361
  store i64 0, ptr %_5, align 8, !dbg !362
  %3 = getelementptr inbounds { i64, i64 }, ptr %_5, i32 0, i32 1, !dbg !362
  store i64 %self, ptr %3, align 8, !dbg !362
  %4 = getelementptr inbounds { i64, i64 }, ptr %_5, i32 0, i32 0, !dbg !362
  %5 = load i64, ptr %4, align 8, !dbg !362
  %6 = getelementptr inbounds { i64, i64 }, ptr %_5, i32 0, i32 1, !dbg !362
  %7 = load i64, ptr %6, align 8, !dbg !362
; call <core::ops::range::Range<usize> as core::slice::index::SliceIndex<[T]>>::index_mut
  %8 = call { ptr, i64 } @"_ZN106_$LT$core..ops..range..Range$LT$usize$GT$$u20$as$u20$core..slice..index..SliceIndex$LT$$u5b$T$u5d$$GT$$GT$9index_mut17h1e037c7a26aa55bfE"(i64 %5, i64 %7, ptr align 8 %slice.0, i64 %slice.1, ptr align 8 %0) #9, !dbg !362
  %_4.0 = extractvalue { ptr, i64 } %8, 0, !dbg !362
  %_4.1 = extractvalue { ptr, i64 } %8, 1, !dbg !362
  %9 = insertvalue { ptr, i64 } undef, ptr %_4.0, 0, !dbg !363
  %10 = insertvalue { ptr, i64 } %9, i64 %_4.1, 1, !dbg !363
  ret { ptr, i64 } %10, !dbg !363
}

; <core::ops::range::RangeFrom<usize> as core::slice::index::SliceIndex<[T]>>::get_unchecked_mut
; Function Attrs: inlinehint nounwind
define { ptr, i64 } @"_ZN110_$LT$core..ops..range..RangeFrom$LT$usize$GT$$u20$as$u20$core..slice..index..SliceIndex$LT$$u5b$T$u5d$$GT$$GT$17get_unchecked_mut17h71d4f949c7adf5fdE"(i64 %self, ptr %slice.0, i64 %slice.1) unnamed_addr #0 !dbg !364 {
start:
  %self.dbg.spill.i = alloca { ptr, i64 }, align 8
  %slice.dbg.spill = alloca { ptr, i64 }, align 8
  %self.dbg.spill = alloca i64, align 8
  %_3 = alloca { i64, i64 }, align 8
  store i64 %self, ptr %self.dbg.spill, align 8
  call void @llvm.dbg.declare(metadata ptr %self.dbg.spill, metadata !372, metadata !DIExpression()), !dbg !374
  %0 = getelementptr inbounds { ptr, i64 }, ptr %slice.dbg.spill, i32 0, i32 0
  store ptr %slice.0, ptr %0, align 8
  %1 = getelementptr inbounds { ptr, i64 }, ptr %slice.dbg.spill, i32 0, i32 1
  store i64 %slice.1, ptr %1, align 8
  call void @llvm.dbg.declare(metadata ptr %slice.dbg.spill, metadata !373, metadata !DIExpression()), !dbg !375
  store ptr %slice.0, ptr %self.dbg.spill.i, align 8
  %2 = getelementptr inbounds { ptr, i64 }, ptr %self.dbg.spill.i, i32 0, i32 1
  store i64 %slice.1, ptr %2, align 8
  call void @llvm.dbg.declare(metadata ptr %self.dbg.spill.i, metadata !256, metadata !DIExpression()), !dbg !376
; call core::ptr::metadata::metadata
  %3 = call i64 @_ZN4core3ptr8metadata8metadata17h5474da0b230ff847E(ptr %slice.0, i64 %slice.1) #9, !dbg !378
  store i64 %self, ptr %_3, align 8, !dbg !379
  %4 = getelementptr inbounds { i64, i64 }, ptr %_3, i32 0, i32 1, !dbg !379
  store i64 %3, ptr %4, align 8, !dbg !379
  %5 = getelementptr inbounds { i64, i64 }, ptr %_3, i32 0, i32 0, !dbg !379
  %6 = load i64, ptr %5, align 8, !dbg !379
  %7 = getelementptr inbounds { i64, i64 }, ptr %_3, i32 0, i32 1, !dbg !379
  %8 = load i64, ptr %7, align 8, !dbg !379
; call <core::ops::range::Range<usize> as core::slice::index::SliceIndex<[T]>>::get_unchecked_mut
  %9 = call { ptr, i64 } @"_ZN106_$LT$core..ops..range..Range$LT$usize$GT$$u20$as$u20$core..slice..index..SliceIndex$LT$$u5b$T$u5d$$GT$$GT$17get_unchecked_mut17h3bf15b66805e5830E"(i64 %6, i64 %8, ptr %slice.0, i64 %slice.1) #9, !dbg !379
  %10 = extractvalue { ptr, i64 } %9, 0, !dbg !379
  %11 = extractvalue { ptr, i64 } %9, 1, !dbg !379
  %12 = insertvalue { ptr, i64 } undef, ptr %10, 0, !dbg !380
  %13 = insertvalue { ptr, i64 } %12, i64 %11, 1, !dbg !380
  ret { ptr, i64 } %13, !dbg !380
}

; <core::ops::range::RangeFrom<usize> as core::slice::index::SliceIndex<[T]>>::index_mut
; Function Attrs: inlinehint nounwind
define { ptr, i64 } @"_ZN110_$LT$core..ops..range..RangeFrom$LT$usize$GT$$u20$as$u20$core..slice..index..SliceIndex$LT$$u5b$T$u5d$$GT$$GT$9index_mut17h0daf0291228c8cd2E"(i64 %self, ptr align 8 %slice.0, i64 %slice.1, ptr align 8 %0) unnamed_addr #0 !dbg !381 {
start:
  %slice.dbg.spill = alloca { ptr, i64 }, align 8
  %self.dbg.spill = alloca i64, align 8
  store i64 %self, ptr %self.dbg.spill, align 8
  call void @llvm.dbg.declare(metadata ptr %self.dbg.spill, metadata !385, metadata !DIExpression()), !dbg !387
  %1 = getelementptr inbounds { ptr, i64 }, ptr %slice.dbg.spill, i32 0, i32 0
  store ptr %slice.0, ptr %1, align 8
  %2 = getelementptr inbounds { ptr, i64 }, ptr %slice.dbg.spill, i32 0, i32 1
  store i64 %slice.1, ptr %2, align 8
  call void @llvm.dbg.declare(metadata ptr %slice.dbg.spill, metadata !386, metadata !DIExpression()), !dbg !388
  %_4 = icmp ugt i64 %self, %slice.1, !dbg !389
  br i1 %_4, label %bb1, label %bb2, !dbg !389

bb2:                                              ; preds = %start
; call <core::ops::range::RangeFrom<usize> as core::slice::index::SliceIndex<[T]>>::get_unchecked_mut
  %3 = call { ptr, i64 } @"_ZN110_$LT$core..ops..range..RangeFrom$LT$usize$GT$$u20$as$u20$core..slice..index..SliceIndex$LT$$u5b$T$u5d$$GT$$GT$17get_unchecked_mut17h71d4f949c7adf5fdE"(i64 %self, ptr %slice.0, i64 %slice.1) #9, !dbg !390
  %_14.0 = extractvalue { ptr, i64 } %3, 0, !dbg !390
  %_14.1 = extractvalue { ptr, i64 } %3, 1, !dbg !390
  %4 = insertvalue { ptr, i64 } undef, ptr %_14.0, 0, !dbg !391
  %5 = insertvalue { ptr, i64 } %4, i64 %_14.1, 1, !dbg !391
  ret { ptr, i64 } %5, !dbg !391

bb1:                                              ; preds = %start
; call core::slice::index::slice_start_index_len_fail
  call void @_ZN4core5slice5index26slice_start_index_len_fail17h26f392740804031cE(i64 %self, i64 %slice.1, ptr align 8 %0) #10, !dbg !392
  unreachable, !dbg !392
}

; <&T as core::fmt::Debug>::fmt
; Function Attrs: nounwind
define zeroext i1 @"_ZN42_$LT$$RF$T$u20$as$u20$core..fmt..Debug$GT$3fmt17h191c94026f662477E"(ptr align 8 %self, ptr align 8 %f) unnamed_addr #1 !dbg !393 {
start:
  %f.dbg.spill = alloca ptr, align 8
  %self.dbg.spill = alloca ptr, align 8
  store ptr %self, ptr %self.dbg.spill, align 8
  call void @llvm.dbg.declare(metadata ptr %self.dbg.spill, metadata !452, metadata !DIExpression()), !dbg !456
  store ptr %f, ptr %f.dbg.spill, align 8
  call void @llvm.dbg.declare(metadata ptr %f.dbg.spill, metadata !453, metadata !DIExpression()), !dbg !457
  %_6 = load ptr, ptr %self, align 8, !dbg !458, !nonnull !24, !align !459, !noundef !24
; call <bootloader::bootinfo::memory_map::FrameRange as core::fmt::Debug>::fmt
  %0 = call zeroext i1 @"_ZN81_$LT$bootloader..bootinfo..memory_map..FrameRange$u20$as$u20$core..fmt..Debug$GT$3fmt17h43e591cd4e17bc82E"(ptr align 8 %_6, ptr align 8 %f) #9, !dbg !460
  ret i1 %0, !dbg !461
}

; <&T as core::fmt::Debug>::fmt
; Function Attrs: nounwind
define zeroext i1 @"_ZN42_$LT$$RF$T$u20$as$u20$core..fmt..Debug$GT$3fmt17h3302d08790677e6eE"(ptr align 8 %self, ptr align 8 %f) unnamed_addr #1 !dbg !462 {
start:
  %f.dbg.spill = alloca ptr, align 8
  %self.dbg.spill = alloca ptr, align 8
  store ptr %self, ptr %self.dbg.spill, align 8
  call void @llvm.dbg.declare(metadata ptr %self.dbg.spill, metadata !467, metadata !DIExpression()), !dbg !471
  store ptr %f, ptr %f.dbg.spill, align 8
  call void @llvm.dbg.declare(metadata ptr %f.dbg.spill, metadata !468, metadata !DIExpression()), !dbg !472
  %_6 = load ptr, ptr %self, align 8, !dbg !473, !nonnull !24, !align !459, !noundef !24
; call <bootloader::bootinfo::TlsTemplate as core::fmt::Debug>::fmt
  %0 = call zeroext i1 @"_ZN70_$LT$bootloader..bootinfo..TlsTemplate$u20$as$u20$core..fmt..Debug$GT$3fmt17h8939835e61d54ac0E"(ptr align 8 %_6, ptr align 8 %f) #9, !dbg !474
  ret i1 %0, !dbg !475
}

; <&T as core::fmt::Debug>::fmt
; Function Attrs: nounwind
define zeroext i1 @"_ZN42_$LT$$RF$T$u20$as$u20$core..fmt..Debug$GT$3fmt17h3f9f3e7c123821d9E"(ptr align 8 %self, ptr align 8 %f) unnamed_addr #1 !dbg !476 {
start:
  %f.dbg.spill = alloca ptr, align 8
  %self.dbg.spill = alloca ptr, align 8
  store ptr %self, ptr %self.dbg.spill, align 8
  call void @llvm.dbg.declare(metadata ptr %self.dbg.spill, metadata !481, metadata !DIExpression()), !dbg !483
  store ptr %f, ptr %f.dbg.spill, align 8
  call void @llvm.dbg.declare(metadata ptr %f.dbg.spill, metadata !482, metadata !DIExpression()), !dbg !484
  %_6 = load ptr, ptr %self, align 8, !dbg !485, !nonnull !24, !align !459, !noundef !24
; call <bootloader::bootinfo::memory_map::MemoryRegion as core::fmt::Debug>::fmt
  %0 = call zeroext i1 @"_ZN83_$LT$bootloader..bootinfo..memory_map..MemoryRegion$u20$as$u20$core..fmt..Debug$GT$3fmt17hf170d98495c30325E"(ptr align 8 %_6, ptr align 8 %f) #9, !dbg !486
  ret i1 %0, !dbg !487
}

; <&T as core::fmt::Debug>::fmt
; Function Attrs: nounwind
define zeroext i1 @"_ZN42_$LT$$RF$T$u20$as$u20$core..fmt..Debug$GT$3fmt17h6d0a934c028c7de0E"(ptr align 8 %self, ptr align 8 %f) unnamed_addr #1 !dbg !488 {
start:
  %f.dbg.spill = alloca ptr, align 8
  %self.dbg.spill = alloca ptr, align 8
  store ptr %self, ptr %self.dbg.spill, align 8
  call void @llvm.dbg.declare(metadata ptr %self.dbg.spill, metadata !493, metadata !DIExpression()), !dbg !497
  store ptr %f, ptr %f.dbg.spill, align 8
  call void @llvm.dbg.declare(metadata ptr %f.dbg.spill, metadata !494, metadata !DIExpression()), !dbg !498
  %_6 = load ptr, ptr %self, align 8, !dbg !499, !nonnull !24, !align !459, !noundef !24
; call <bootloader::bootinfo::memory_map::MemoryMap as core::fmt::Debug>::fmt
  %0 = call zeroext i1 @"_ZN80_$LT$bootloader..bootinfo..memory_map..MemoryMap$u20$as$u20$core..fmt..Debug$GT$3fmt17hd727bcee995b3397E"(ptr align 8 %_6, ptr align 8 %f) #9, !dbg !500
  ret i1 %0, !dbg !501
}

; <&T as core::fmt::Debug>::fmt
; Function Attrs: nounwind
define zeroext i1 @"_ZN42_$LT$$RF$T$u20$as$u20$core..fmt..Debug$GT$3fmt17h9308fe0ec8ba9eb4E"(ptr align 8 %self, ptr align 8 %f) unnamed_addr #1 !dbg !502 {
start:
  %f.dbg.spill = alloca ptr, align 8
  %self.dbg.spill = alloca ptr, align 8
  store ptr %self, ptr %self.dbg.spill, align 8
  call void @llvm.dbg.declare(metadata ptr %self.dbg.spill, metadata !507, metadata !DIExpression()), !dbg !511
  store ptr %f, ptr %f.dbg.spill, align 8
  call void @llvm.dbg.declare(metadata ptr %f.dbg.spill, metadata !508, metadata !DIExpression()), !dbg !512
  %_6 = load ptr, ptr %self, align 8, !dbg !513, !nonnull !24, !align !514, !noundef !24
; call <bootloader::bootinfo::memory_map::MemoryRegionType as core::fmt::Debug>::fmt
  %0 = call zeroext i1 @"_ZN87_$LT$bootloader..bootinfo..memory_map..MemoryRegionType$u20$as$u20$core..fmt..Debug$GT$3fmt17h65733aa8d6e9d970E"(ptr align 4 %_6, ptr align 8 %f) #9, !dbg !515
  ret i1 %0, !dbg !516
}

; core::intrinsics::is_nonoverlapping
; Function Attrs: nounwind
define zeroext i1 @_ZN4core10intrinsics17is_nonoverlapping17h2bf53ab67e1db900E(ptr %src, ptr %dst, i64 %count) unnamed_addr #1 !dbg !517 {
start:
  %0 = alloca i64, align 8
  %self.dbg.spill.i2 = alloca ptr, align 8
  %1 = alloca i64, align 8
  %self.dbg.spill.i = alloca ptr, align 8
  %size.dbg.spill = alloca i64, align 8
  %dst_usize.dbg.spill = alloca i64, align 8
  %src_usize.dbg.spill = alloca i64, align 8
  %count.dbg.spill = alloca i64, align 8
  %dst.dbg.spill = alloca ptr, align 8
  %src.dbg.spill = alloca ptr, align 8
  %diff = alloca i64, align 8
  store ptr %src, ptr %src.dbg.spill, align 8
  call void @llvm.dbg.declare(metadata ptr %src.dbg.spill, metadata !523, metadata !DIExpression()), !dbg !534
  store ptr %dst, ptr %dst.dbg.spill, align 8
  call void @llvm.dbg.declare(metadata ptr %dst.dbg.spill, metadata !524, metadata !DIExpression()), !dbg !535
  store i64 %count, ptr %count.dbg.spill, align 8
  call void @llvm.dbg.declare(metadata ptr %count.dbg.spill, metadata !525, metadata !DIExpression()), !dbg !536
  call void @llvm.dbg.declare(metadata ptr %diff, metadata !532, metadata !DIExpression()), !dbg !537
  store ptr %src, ptr %self.dbg.spill.i2, align 8
  call void @llvm.dbg.declare(metadata ptr %self.dbg.spill.i2, metadata !538, metadata !DIExpression()), !dbg !543
  store ptr %src, ptr %0, align 8, !dbg !545
  %2 = load i64, ptr %0, align 8, !dbg !545
  store i64 %2, ptr %src_usize.dbg.spill, align 8, !dbg !546
  call void @llvm.dbg.declare(metadata ptr %src_usize.dbg.spill, metadata !526, metadata !DIExpression()), !dbg !547
  store ptr %dst, ptr %self.dbg.spill.i, align 8
  call void @llvm.dbg.declare(metadata ptr %self.dbg.spill.i, metadata !538, metadata !DIExpression()), !dbg !548
  store ptr %dst, ptr %1, align 8, !dbg !550
  %3 = load i64, ptr %1, align 8, !dbg !550
  store i64 %3, ptr %dst_usize.dbg.spill, align 8, !dbg !551
  call void @llvm.dbg.declare(metadata ptr %dst_usize.dbg.spill, metadata !528, metadata !DIExpression()), !dbg !552
; call core::num::<impl usize>::checked_mul
  %4 = call { i64, i64 } @"_ZN4core3num23_$LT$impl$u20$usize$GT$11checked_mul17haed30c9c91ec44cfE"(i64 24, i64 %count) #9, !dbg !553
  %_9.0 = extractvalue { i64, i64 } %4, 0, !dbg !553
  %_9.1 = extractvalue { i64, i64 } %4, 1, !dbg !553
; call core::option::Option<T>::unwrap
  %size = call i64 @"_ZN4core6option15Option$LT$T$GT$6unwrap17hd88b1ea1f259e7cdE"(i64 %_9.0, i64 %_9.1, ptr align 8 @alloc310) #9, !dbg !553
  store i64 %size, ptr %size.dbg.spill, align 8, !dbg !553
  call void @llvm.dbg.declare(metadata ptr %size.dbg.spill, metadata !530, metadata !DIExpression()), !dbg !554
  %_13 = icmp ugt i64 %2, %3, !dbg !555
  br i1 %_13, label %bb6, label %bb8, !dbg !555

bb8:                                              ; preds = %start
  %_21.0 = sub i64 %3, %2, !dbg !556
  %_21.1 = icmp ult i64 %3, %2, !dbg !556
  %5 = call i1 @llvm.expect.i1(i1 %_21.1, i1 false), !dbg !556
  br i1 %5, label %panic1, label %bb9, !dbg !556

bb6:                                              ; preds = %start
  %_18.0 = sub i64 %2, %3, !dbg !557
  %_18.1 = icmp ult i64 %2, %3, !dbg !557
  %6 = call i1 @llvm.expect.i1(i1 %_18.1, i1 false), !dbg !557
  br i1 %6, label %panic, label %bb7, !dbg !557

bb7:                                              ; preds = %bb6
  store i64 %_18.0, ptr %diff, align 8, !dbg !557
  br label %bb10, !dbg !558

panic:                                            ; preds = %bb6
; call core::panicking::panic
  call void @_ZN4core9panicking5panic17hbe538fb8c244b3dfE(ptr align 1 @str.0, i64 33, ptr align 8 @alloc312) #10, !dbg !557
  unreachable, !dbg !557

bb10:                                             ; preds = %bb9, %bb7
  %_22 = load i64, ptr %diff, align 8, !dbg !559
  %7 = icmp uge i64 %_22, %size, !dbg !559
  ret i1 %7, !dbg !560

bb9:                                              ; preds = %bb8
  store i64 %_21.0, ptr %diff, align 8, !dbg !556
  br label %bb10, !dbg !558

panic1:                                           ; preds = %bb8
; call core::panicking::panic
  call void @_ZN4core9panicking5panic17hbe538fb8c244b3dfE(ptr align 1 @str.0, i64 33, ptr align 8 @alloc314) #10, !dbg !556
  unreachable, !dbg !556
}

; core::intrinsics::copy_nonoverlapping
; Function Attrs: inlinehint nounwind
define void @_ZN4core10intrinsics19copy_nonoverlapping17h5b68f14a857bbe6aE(ptr %src, ptr %dst, i64 %count) unnamed_addr #0 !dbg !561 {
start:
  %count.dbg.spill.i = alloca i64, align 8
  %dst.dbg.spill.i = alloca ptr, align 8
  %src.dbg.spill.i = alloca ptr, align 8
  %_6.i = alloca i8, align 1
  %_5.i = alloca i8, align 1
  %count.dbg.spill = alloca i64, align 8
  %dst.dbg.spill = alloca ptr, align 8
  %src.dbg.spill = alloca ptr, align 8
  %_5 = alloca { ptr, ptr, i64 }, align 8
  store ptr %src, ptr %src.dbg.spill, align 8
  call void @llvm.dbg.declare(metadata ptr %src.dbg.spill, metadata !565, metadata !DIExpression()), !dbg !568
  store ptr %dst, ptr %dst.dbg.spill, align 8
  call void @llvm.dbg.declare(metadata ptr %dst.dbg.spill, metadata !566, metadata !DIExpression()), !dbg !569
  store i64 %count, ptr %count.dbg.spill, align 8
  call void @llvm.dbg.declare(metadata ptr %count.dbg.spill, metadata !567, metadata !DIExpression()), !dbg !570
  store ptr %src, ptr %_5, align 8, !dbg !571
  %0 = getelementptr inbounds { ptr, ptr, i64 }, ptr %_5, i32 0, i32 1, !dbg !571
  store ptr %dst, ptr %0, align 8, !dbg !571
  %1 = getelementptr inbounds { ptr, ptr, i64 }, ptr %_5, i32 0, i32 2, !dbg !571
  store i64 %count, ptr %1, align 8, !dbg !571
  %2 = load ptr, ptr %_5, align 8, !dbg !571
  %3 = getelementptr inbounds { ptr, ptr, i64 }, ptr %_5, i32 0, i32 1, !dbg !571
  %4 = load ptr, ptr %3, align 8, !dbg !571
  %5 = getelementptr inbounds { ptr, ptr, i64 }, ptr %_5, i32 0, i32 2, !dbg !571
  %6 = load i64, ptr %5, align 8, !dbg !571
  store ptr %2, ptr %src.dbg.spill.i, align 8
  call void @llvm.dbg.declare(metadata ptr %src.dbg.spill.i, metadata !572, metadata !DIExpression()), !dbg !578
  store ptr %4, ptr %dst.dbg.spill.i, align 8
  call void @llvm.dbg.declare(metadata ptr %dst.dbg.spill.i, metadata !576, metadata !DIExpression()), !dbg !578
  store i64 %6, ptr %count.dbg.spill.i, align 8
  call void @llvm.dbg.declare(metadata ptr %count.dbg.spill.i, metadata !577, metadata !DIExpression()), !dbg !578
; call core::intrinsics::is_aligned_and_not_null
  %_7.i = call zeroext i1 @_ZN4core10intrinsics23is_aligned_and_not_null17h191fc7491f4eaf64E(ptr %2) #9, !dbg !580
  br i1 %_7.i, label %bb5.i, label %bb4.i, !dbg !580

bb4.i:                                            ; preds = %start
  store i8 0, ptr %_6.i, align 1, !dbg !580
  br label %bb6.i, !dbg !580

bb5.i:                                            ; preds = %start
; call core::intrinsics::is_aligned_and_not_null
  %_9.i = call zeroext i1 @_ZN4core10intrinsics23is_aligned_and_not_null17h191fc7491f4eaf64E(ptr %4) #9, !dbg !581
  %7 = zext i1 %_9.i to i8, !dbg !580
  store i8 %7, ptr %_6.i, align 1, !dbg !580
  br label %bb6.i, !dbg !580

bb6.i:                                            ; preds = %bb5.i, %bb4.i
  %8 = load i8, ptr %_6.i, align 1, !dbg !580, !range !197, !noundef !24
  %9 = trunc i8 %8 to i1, !dbg !580
  br i1 %9, label %bb2.i, label %bb1.i, !dbg !580

bb1.i:                                            ; preds = %bb6.i
  store i8 0, ptr %_5.i, align 1, !dbg !580
  br label %bb3.i, !dbg !580

bb2.i:                                            ; preds = %bb6.i
; call core::intrinsics::is_nonoverlapping
  %_12.i = call zeroext i1 @_ZN4core10intrinsics17is_nonoverlapping17h2bf53ab67e1db900E(ptr %2, ptr %4, i64 %6) #9, !dbg !582
  %10 = zext i1 %_12.i to i8, !dbg !580
  store i8 %10, ptr %_5.i, align 1, !dbg !580
  br label %bb3.i, !dbg !580

bb3.i:                                            ; preds = %bb2.i, %bb1.i
  %11 = load i8, ptr %_5.i, align 1, !dbg !583, !range !197, !noundef !24
  %12 = trunc i8 %11 to i1, !dbg !583
  %_4.i = xor i1 %12, true, !dbg !583
  br i1 %_4.i, label %bb10.i, label %_ZN4core10intrinsics19copy_nonoverlapping7runtime17h6c9c5a17abb99a21E.exit, !dbg !583

bb10.i:                                           ; preds = %bb3.i
; call core::panicking::panic_nounwind
  call void @_ZN4core9panicking14panic_nounwind17h3015023400b7dcd0E(ptr align 1 @alloc316, i64 166) #10, !dbg !584
  unreachable, !dbg !584

_ZN4core10intrinsics19copy_nonoverlapping7runtime17h6c9c5a17abb99a21E.exit: ; preds = %bb3.i
  %13 = mul i64 %count, 24, !dbg !585
  call void @llvm.memcpy.p0.p0.i64(ptr align 8 %dst, ptr align 8 %src, i64 %13, i1 false), !dbg !585
  ret void, !dbg !586
}

; core::intrinsics::copy_nonoverlapping
; Function Attrs: inlinehint nounwind
define void @_ZN4core10intrinsics19copy_nonoverlapping17hbf460b23e3b7f8e7E(ptr %src, ptr %dst, i64 %count) unnamed_addr #0 !dbg !587 {
start:
  %count.dbg.spill.i = alloca i64, align 8
  %dst.dbg.spill.i = alloca ptr, align 8
  %src.dbg.spill.i = alloca ptr, align 8
  %_6.i = alloca i8, align 1
  %_5.i = alloca i8, align 1
  %count.dbg.spill = alloca i64, align 8
  %dst.dbg.spill = alloca ptr, align 8
  %src.dbg.spill = alloca ptr, align 8
  %_5 = alloca { ptr, ptr, i64 }, align 8
  store ptr %src, ptr %src.dbg.spill, align 8
  call void @llvm.dbg.declare(metadata ptr %src.dbg.spill, metadata !593, metadata !DIExpression()), !dbg !596
  store ptr %dst, ptr %dst.dbg.spill, align 8
  call void @llvm.dbg.declare(metadata ptr %dst.dbg.spill, metadata !594, metadata !DIExpression()), !dbg !597
  store i64 %count, ptr %count.dbg.spill, align 8
  call void @llvm.dbg.declare(metadata ptr %count.dbg.spill, metadata !595, metadata !DIExpression()), !dbg !598
  store ptr %src, ptr %_5, align 8, !dbg !599
  %0 = getelementptr inbounds { ptr, ptr, i64 }, ptr %_5, i32 0, i32 1, !dbg !599
  store ptr %dst, ptr %0, align 8, !dbg !599
  %1 = getelementptr inbounds { ptr, ptr, i64 }, ptr %_5, i32 0, i32 2, !dbg !599
  store i64 %count, ptr %1, align 8, !dbg !599
  %2 = load ptr, ptr %_5, align 8, !dbg !599
  %3 = getelementptr inbounds { ptr, ptr, i64 }, ptr %_5, i32 0, i32 1, !dbg !599
  %4 = load ptr, ptr %3, align 8, !dbg !599
  %5 = getelementptr inbounds { ptr, ptr, i64 }, ptr %_5, i32 0, i32 2, !dbg !599
  %6 = load i64, ptr %5, align 8, !dbg !599
  store ptr %2, ptr %src.dbg.spill.i, align 8
  call void @llvm.dbg.declare(metadata ptr %src.dbg.spill.i, metadata !600, metadata !DIExpression()), !dbg !605
  store ptr %4, ptr %dst.dbg.spill.i, align 8
  call void @llvm.dbg.declare(metadata ptr %dst.dbg.spill.i, metadata !603, metadata !DIExpression()), !dbg !605
  store i64 %6, ptr %count.dbg.spill.i, align 8
  call void @llvm.dbg.declare(metadata ptr %count.dbg.spill.i, metadata !604, metadata !DIExpression()), !dbg !605
; call core::intrinsics::is_aligned_and_not_null
  %_7.i = call zeroext i1 @_ZN4core10intrinsics23is_aligned_and_not_null17he209df78fa483515E(ptr %2) #9, !dbg !607
  br i1 %_7.i, label %bb5.i, label %bb4.i, !dbg !607

bb4.i:                                            ; preds = %start
  store i8 0, ptr %_6.i, align 1, !dbg !607
  br label %bb6.i, !dbg !607

bb5.i:                                            ; preds = %start
; call core::intrinsics::is_aligned_and_not_null
  %_9.i = call zeroext i1 @_ZN4core10intrinsics23is_aligned_and_not_null17he209df78fa483515E(ptr %4) #9, !dbg !608
  %7 = zext i1 %_9.i to i8, !dbg !607
  store i8 %7, ptr %_6.i, align 1, !dbg !607
  br label %bb6.i, !dbg !607

bb6.i:                                            ; preds = %bb5.i, %bb4.i
  %8 = load i8, ptr %_6.i, align 1, !dbg !607, !range !197, !noundef !24
  %9 = trunc i8 %8 to i1, !dbg !607
  br i1 %9, label %bb2.i, label %bb1.i, !dbg !607

bb1.i:                                            ; preds = %bb6.i
  store i8 0, ptr %_5.i, align 1, !dbg !607
  br label %bb3.i, !dbg !607

bb2.i:                                            ; preds = %bb6.i
; call core::intrinsics::is_nonoverlapping
  %_12.i = call zeroext i1 @_ZN4core10intrinsics17is_nonoverlapping17h600404ee9679e0e3E(ptr %2, ptr %4, i64 %6) #9, !dbg !609
  %10 = zext i1 %_12.i to i8, !dbg !607
  store i8 %10, ptr %_5.i, align 1, !dbg !607
  br label %bb3.i, !dbg !607

bb3.i:                                            ; preds = %bb2.i, %bb1.i
  %11 = load i8, ptr %_5.i, align 1, !dbg !610, !range !197, !noundef !24
  %12 = trunc i8 %11 to i1, !dbg !610
  %_4.i = xor i1 %12, true, !dbg !610
  br i1 %_4.i, label %bb10.i, label %_ZN4core10intrinsics19copy_nonoverlapping7runtime17hca755d401947a51aE.exit, !dbg !610

bb10.i:                                           ; preds = %bb3.i
; call core::panicking::panic_nounwind
  call void @_ZN4core9panicking14panic_nounwind17h3015023400b7dcd0E(ptr align 1 @alloc316, i64 166) #10, !dbg !611
  unreachable, !dbg !611

_ZN4core10intrinsics19copy_nonoverlapping7runtime17hca755d401947a51aE.exit: ; preds = %bb3.i
  %13 = mul i64 %count, 8, !dbg !612
  call void @llvm.memcpy.p0.p0.i64(ptr align 8 %dst, ptr align 8 %src, i64 %13, i1 false), !dbg !612
  ret void, !dbg !613
}

; core::intrinsics::is_aligned_and_not_null
; Function Attrs: nounwind
define zeroext i1 @_ZN4core10intrinsics23is_aligned_and_not_null17h191fc7491f4eaf64E(ptr %ptr) unnamed_addr #1 !dbg !614 {
start:
  %ptr.dbg.spill = alloca ptr, align 8
  %0 = alloca i8, align 1
  store ptr %ptr, ptr %ptr.dbg.spill, align 8
  call void @llvm.dbg.declare(metadata ptr %ptr.dbg.spill, metadata !618, metadata !DIExpression()), !dbg !619
; call core::ptr::const_ptr::<impl *const T>::is_null
  %_3 = call zeroext i1 @"_ZN4core3ptr9const_ptr33_$LT$impl$u20$$BP$const$u20$T$GT$7is_null17h961ad4093d64d15cE"(ptr %ptr) #9, !dbg !620
  %_2 = xor i1 %_3, true, !dbg !621
  br i1 %_2, label %bb2, label %bb1, !dbg !621

bb1:                                              ; preds = %start
  store i8 0, ptr %0, align 1, !dbg !621
  br label %bb3, !dbg !621

bb2:                                              ; preds = %start
; call core::ptr::const_ptr::<impl *const T>::is_aligned
  %_5 = call zeroext i1 @"_ZN4core3ptr9const_ptr33_$LT$impl$u20$$BP$const$u20$T$GT$10is_aligned17h964aaba6ed48161dE"(ptr %ptr) #9, !dbg !622
  %1 = zext i1 %_5 to i8, !dbg !621
  store i8 %1, ptr %0, align 1, !dbg !621
  br label %bb3, !dbg !621

bb3:                                              ; preds = %bb1, %bb2
  %2 = load i8, ptr %0, align 1, !dbg !623, !range !197, !noundef !24
  %3 = trunc i8 %2 to i1, !dbg !623
  ret i1 %3, !dbg !623
}

; core::intrinsics::is_aligned_and_not_null
; Function Attrs: nounwind
define zeroext i1 @_ZN4core10intrinsics23is_aligned_and_not_null17h3ae8b15e74e9fc8bE(ptr %ptr) unnamed_addr #1 !dbg !624 {
start:
  %ptr.dbg.spill = alloca ptr, align 8
  %0 = alloca i8, align 1
  store ptr %ptr, ptr %ptr.dbg.spill, align 8
  call void @llvm.dbg.declare(metadata ptr %ptr.dbg.spill, metadata !639, metadata !DIExpression()), !dbg !642
; call core::ptr::const_ptr::<impl *const T>::is_null
  %_3 = call zeroext i1 @"_ZN4core3ptr9const_ptr33_$LT$impl$u20$$BP$const$u20$T$GT$7is_null17h2043cc258b4e9802E"(ptr %ptr) #9, !dbg !643
  %_2 = xor i1 %_3, true, !dbg !644
  br i1 %_2, label %bb2, label %bb1, !dbg !644

bb1:                                              ; preds = %start
  store i8 0, ptr %0, align 1, !dbg !644
  br label %bb3, !dbg !644

bb2:                                              ; preds = %start
; call core::ptr::const_ptr::<impl *const T>::is_aligned
  %_5 = call zeroext i1 @"_ZN4core3ptr9const_ptr33_$LT$impl$u20$$BP$const$u20$T$GT$10is_aligned17hce49a87df7da1578E"(ptr %ptr) #9, !dbg !645
  %1 = zext i1 %_5 to i8, !dbg !644
  store i8 %1, ptr %0, align 1, !dbg !644
  br label %bb3, !dbg !644

bb3:                                              ; preds = %bb1, %bb2
  %2 = load i8, ptr %0, align 1, !dbg !646, !range !197, !noundef !24
  %3 = trunc i8 %2 to i1, !dbg !646
  ret i1 %3, !dbg !646
}

; core::intrinsics::is_valid_allocation_size
; Function Attrs: nounwind
define zeroext i1 @_ZN4core10intrinsics24is_valid_allocation_size17he3e7a21271b492f4E(i64 %len) unnamed_addr #1 !dbg !647 {
start:
  %max_len.dbg.spill = alloca i64, align 8
  %len.dbg.spill = alloca i64, align 8
  store i64 %len, ptr %len.dbg.spill, align 8
  call void @llvm.dbg.declare(metadata ptr %len.dbg.spill, metadata !651, metadata !DIExpression()), !dbg !654
  store i64 384307168202282325, ptr %max_len.dbg.spill, align 8, !dbg !655
  call void @llvm.dbg.declare(metadata ptr %max_len.dbg.spill, metadata !652, metadata !DIExpression()), !dbg !656
  %0 = icmp ule i64 %len, 384307168202282325, !dbg !657
  ret i1 %0, !dbg !658
}

; core::intrinsics::copy
; Function Attrs: inlinehint nounwind
define void @_ZN4core10intrinsics4copy17h2367f2f1a6a57e90E(ptr %src, ptr %dst, i64 %count) unnamed_addr #0 !dbg !659 {
start:
  %dst.dbg.spill.i = alloca ptr, align 8
  %src.dbg.spill.i = alloca ptr, align 8
  %_4.i = alloca i8, align 1
  %count.dbg.spill = alloca i64, align 8
  %dst.dbg.spill = alloca ptr, align 8
  %src.dbg.spill = alloca ptr, align 8
  %_5 = alloca { ptr, ptr }, align 8
  store ptr %src, ptr %src.dbg.spill, align 8
  call void @llvm.dbg.declare(metadata ptr %src.dbg.spill, metadata !661, metadata !DIExpression()), !dbg !664
  store ptr %dst, ptr %dst.dbg.spill, align 8
  call void @llvm.dbg.declare(metadata ptr %dst.dbg.spill, metadata !662, metadata !DIExpression()), !dbg !665
  store i64 %count, ptr %count.dbg.spill, align 8
  call void @llvm.dbg.declare(metadata ptr %count.dbg.spill, metadata !663, metadata !DIExpression()), !dbg !666
  store ptr %src, ptr %_5, align 8, !dbg !667
  %0 = getelementptr inbounds { ptr, ptr }, ptr %_5, i32 0, i32 1, !dbg !667
  store ptr %dst, ptr %0, align 8, !dbg !667
  %1 = load ptr, ptr %_5, align 8, !dbg !667
  %2 = getelementptr inbounds { ptr, ptr }, ptr %_5, i32 0, i32 1, !dbg !667
  %3 = load ptr, ptr %2, align 8, !dbg !667
  store ptr %1, ptr %src.dbg.spill.i, align 8
  call void @llvm.dbg.declare(metadata ptr %src.dbg.spill.i, metadata !668, metadata !DIExpression()), !dbg !675
  store ptr %3, ptr %dst.dbg.spill.i, align 8
  call void @llvm.dbg.declare(metadata ptr %dst.dbg.spill.i, metadata !674, metadata !DIExpression()), !dbg !675
; call core::intrinsics::is_aligned_and_not_null
  %_5.i = call zeroext i1 @_ZN4core10intrinsics23is_aligned_and_not_null17h191fc7491f4eaf64E(ptr %1) #9, !dbg !677
  br i1 %_5.i, label %bb2.i, label %bb1.i, !dbg !677

bb1.i:                                            ; preds = %start
  store i8 0, ptr %_4.i, align 1, !dbg !677
  br label %bb3.i, !dbg !677

bb2.i:                                            ; preds = %start
; call core::intrinsics::is_aligned_and_not_null
  %_7.i = call zeroext i1 @_ZN4core10intrinsics23is_aligned_and_not_null17h191fc7491f4eaf64E(ptr %3) #9, !dbg !678
  %4 = zext i1 %_7.i to i8, !dbg !677
  store i8 %4, ptr %_4.i, align 1, !dbg !677
  br label %bb3.i, !dbg !677

bb3.i:                                            ; preds = %bb2.i, %bb1.i
  %5 = load i8, ptr %_4.i, align 1, !dbg !679, !range !197, !noundef !24
  %6 = trunc i8 %5 to i1, !dbg !679
  %_3.i = xor i1 %6, true, !dbg !679
  br i1 %_3.i, label %bb6.i, label %_ZN4core10intrinsics4copy7runtime17h67399965b8406bbeE.exit, !dbg !679

bb6.i:                                            ; preds = %bb3.i
; call core::panicking::panic_nounwind
  call void @_ZN4core9panicking14panic_nounwind17h3015023400b7dcd0E(ptr align 1 @alloc318, i64 112) #10, !dbg !680
  unreachable, !dbg !680

_ZN4core10intrinsics4copy7runtime17h67399965b8406bbeE.exit: ; preds = %bb3.i
  %7 = mul i64 24, %count, !dbg !681
  call void @llvm.memmove.p0.p0.i64(ptr align 8 %dst, ptr align 8 %src, i64 %7, i1 false), !dbg !681
  ret void, !dbg !682
}

; core::intrinsics::copy
; Function Attrs: inlinehint nounwind
define void @_ZN4core10intrinsics4copy17ha94ac2453a8a0b73E(ptr %src, ptr %dst, i64 %count) unnamed_addr #0 !dbg !683 {
start:
  %dst.dbg.spill.i = alloca ptr, align 8
  %src.dbg.spill.i = alloca ptr, align 8
  %_4.i = alloca i8, align 1
  %count.dbg.spill = alloca i64, align 8
  %dst.dbg.spill = alloca ptr, align 8
  %src.dbg.spill = alloca ptr, align 8
  %_5 = alloca { ptr, ptr }, align 8
  store ptr %src, ptr %src.dbg.spill, align 8
  call void @llvm.dbg.declare(metadata ptr %src.dbg.spill, metadata !685, metadata !DIExpression()), !dbg !688
  store ptr %dst, ptr %dst.dbg.spill, align 8
  call void @llvm.dbg.declare(metadata ptr %dst.dbg.spill, metadata !686, metadata !DIExpression()), !dbg !689
  store i64 %count, ptr %count.dbg.spill, align 8
  call void @llvm.dbg.declare(metadata ptr %count.dbg.spill, metadata !687, metadata !DIExpression()), !dbg !690
  store ptr %src, ptr %_5, align 8, !dbg !691
  %0 = getelementptr inbounds { ptr, ptr }, ptr %_5, i32 0, i32 1, !dbg !691
  store ptr %dst, ptr %0, align 8, !dbg !691
  %1 = load ptr, ptr %_5, align 8, !dbg !691
  %2 = getelementptr inbounds { ptr, ptr }, ptr %_5, i32 0, i32 1, !dbg !691
  %3 = load ptr, ptr %2, align 8, !dbg !691
  store ptr %1, ptr %src.dbg.spill.i, align 8
  call void @llvm.dbg.declare(metadata ptr %src.dbg.spill.i, metadata !692, metadata !DIExpression()), !dbg !698
  store ptr %3, ptr %dst.dbg.spill.i, align 8
  call void @llvm.dbg.declare(metadata ptr %dst.dbg.spill.i, metadata !697, metadata !DIExpression()), !dbg !698
; call core::intrinsics::is_aligned_and_not_null
  %_5.i = call zeroext i1 @_ZN4core10intrinsics23is_aligned_and_not_null17he209df78fa483515E(ptr %1) #9, !dbg !700
  br i1 %_5.i, label %bb2.i, label %bb1.i, !dbg !700

bb1.i:                                            ; preds = %start
  store i8 0, ptr %_4.i, align 1, !dbg !700
  br label %bb3.i, !dbg !700

bb2.i:                                            ; preds = %start
; call core::intrinsics::is_aligned_and_not_null
  %_7.i = call zeroext i1 @_ZN4core10intrinsics23is_aligned_and_not_null17he209df78fa483515E(ptr %3) #9, !dbg !701
  %4 = zext i1 %_7.i to i8, !dbg !700
  store i8 %4, ptr %_4.i, align 1, !dbg !700
  br label %bb3.i, !dbg !700

bb3.i:                                            ; preds = %bb2.i, %bb1.i
  %5 = load i8, ptr %_4.i, align 1, !dbg !702, !range !197, !noundef !24
  %6 = trunc i8 %5 to i1, !dbg !702
  %_3.i = xor i1 %6, true, !dbg !702
  br i1 %_3.i, label %bb6.i, label %_ZN4core10intrinsics4copy7runtime17h40621b13e6da214eE.exit, !dbg !702

bb6.i:                                            ; preds = %bb3.i
; call core::panicking::panic_nounwind
  call void @_ZN4core9panicking14panic_nounwind17h3015023400b7dcd0E(ptr align 1 @alloc318, i64 112) #10, !dbg !703
  unreachable, !dbg !703

_ZN4core10intrinsics4copy7runtime17h40621b13e6da214eE.exit: ; preds = %bb3.i
  %7 = mul i64 8, %count, !dbg !704
  call void @llvm.memmove.p0.p0.i64(ptr align 8 %dst, ptr align 8 %src, i64 %7, i1 false), !dbg !704
  ret void, !dbg !705
}

; core::cmp::impls::<impl core::cmp::Ord for u64>::cmp
; Function Attrs: inlinehint nounwind
define internal i8 @"_ZN4core3cmp5impls48_$LT$impl$u20$core..cmp..Ord$u20$for$u20$u64$GT$3cmp17hb3e5181ebc2e2481E"(ptr align 8 %self, ptr align 8 %other) unnamed_addr #0 !dbg !706 {
start:
  %other.dbg.spill = alloca ptr, align 8
  %self.dbg.spill = alloca ptr, align 8
  %0 = alloca i8, align 1
  store ptr %self, ptr %self.dbg.spill, align 8
  call void @llvm.dbg.declare(metadata ptr %self.dbg.spill, metadata !713, metadata !DIExpression()), !dbg !715
  store ptr %other, ptr %other.dbg.spill, align 8
  call void @llvm.dbg.declare(metadata ptr %other.dbg.spill, metadata !714, metadata !DIExpression()), !dbg !716
  %_4 = load i64, ptr %self, align 8, !dbg !717
  %_5 = load i64, ptr %other, align 8, !dbg !718
  %_3 = icmp ult i64 %_4, %_5, !dbg !717
  br i1 %_3, label %bb1, label %bb2, !dbg !717

bb2:                                              ; preds = %start
  %_7 = load i64, ptr %self, align 8, !dbg !719
  %_8 = load i64, ptr %other, align 8, !dbg !720
  %_6 = icmp eq i64 %_7, %_8, !dbg !719
  br i1 %_6, label %bb3, label %bb4, !dbg !719

bb1:                                              ; preds = %start
  store i8 -1, ptr %0, align 1, !dbg !721
  br label %bb5, !dbg !722

bb5:                                              ; preds = %bb4, %bb3, %bb1
  %1 = load i8, ptr %0, align 1, !dbg !723, !range !724, !noundef !24
  ret i8 %1, !dbg !723

bb4:                                              ; preds = %bb2
  store i8 1, ptr %0, align 1, !dbg !725
  br label %bb5, !dbg !726

bb3:                                              ; preds = %bb2
  store i8 0, ptr %0, align 1, !dbg !727
  br label %bb5, !dbg !726
}

; core::fmt::ArgumentV1::new_lower_hex
; Function Attrs: inlinehint nounwind
define { ptr, ptr } @_ZN4core3fmt10ArgumentV113new_lower_hex17h3d7db7619fde135dE(ptr align 8 %x) unnamed_addr #0 !dbg !728 {
start:
  %x.dbg.spill = alloca ptr, align 8
  store ptr %x, ptr %x.dbg.spill, align 8
  call void @llvm.dbg.declare(metadata ptr %x.dbg.spill, metadata !742, metadata !DIExpression()), !dbg !745
; call core::fmt::ArgumentV1::new
  %0 = call { ptr, ptr } @_ZN4core3fmt10ArgumentV13new17h9b087049de7d8ab4E(ptr align 8 %x, ptr @"_ZN4core3fmt3num53_$LT$impl$u20$core..fmt..LowerHex$u20$for$u20$u64$GT$3fmt17h6686ff7d2e98ba20E") #9, !dbg !746
  %1 = extractvalue { ptr, ptr } %0, 0, !dbg !746
  %2 = extractvalue { ptr, ptr } %0, 1, !dbg !746
  %3 = insertvalue { ptr, ptr } undef, ptr %1, 0, !dbg !747
  %4 = insertvalue { ptr, ptr } %3, ptr %2, 1, !dbg !747
  ret { ptr, ptr } %4, !dbg !747
}

; core::fmt::builders::DebugList::entries
; Function Attrs: nounwind
define align 8 ptr @_ZN4core3fmt8builders9DebugList7entries17hfb75d8868b1a8362E(ptr align 8 %self, ptr %entries.0, ptr %entries.1) unnamed_addr #1 !dbg !748 {
start:
  %entries.dbg.spill = alloca { ptr, ptr }, align 8
  %self.dbg.spill = alloca ptr, align 8
  %entry = alloca ptr, align 8
  %_7 = alloca ptr, align 8
  %iter = alloca { ptr, ptr }, align 8
  store ptr %self, ptr %self.dbg.spill, align 8
  call void @llvm.dbg.declare(metadata ptr %self.dbg.spill, metadata !777, metadata !DIExpression()), !dbg !786
  %0 = getelementptr inbounds { ptr, ptr }, ptr %entries.dbg.spill, i32 0, i32 0
  store ptr %entries.0, ptr %0, align 8
  %1 = getelementptr inbounds { ptr, ptr }, ptr %entries.dbg.spill, i32 0, i32 1
  store ptr %entries.1, ptr %1, align 8
  call void @llvm.dbg.declare(metadata ptr %entries.dbg.spill, metadata !778, metadata !DIExpression()), !dbg !787
  call void @llvm.dbg.declare(metadata ptr %iter, metadata !779, metadata !DIExpression()), !dbg !788
  call void @llvm.dbg.declare(metadata ptr %entry, metadata !781, metadata !DIExpression()), !dbg !789
; call <I as core::iter::traits::collect::IntoIterator>::into_iter
  %2 = call { ptr, ptr } @"_ZN63_$LT$I$u20$as$u20$core..iter..traits..collect..IntoIterator$GT$9into_iter17h0a7cb750bcabe10bE"(ptr %entries.0, ptr %entries.1) #9, !dbg !790
  %_4.0 = extractvalue { ptr, ptr } %2, 0, !dbg !790
  %_4.1 = extractvalue { ptr, ptr } %2, 1, !dbg !790
  %3 = getelementptr inbounds { ptr, ptr }, ptr %iter, i32 0, i32 0, !dbg !790
  store ptr %_4.0, ptr %3, align 8, !dbg !790
  %4 = getelementptr inbounds { ptr, ptr }, ptr %iter, i32 0, i32 1, !dbg !790
  store ptr %_4.1, ptr %4, align 8, !dbg !790
  br label %bb2, !dbg !791

bb2:                                              ; preds = %bb4, %start
; call <core::slice::iter::Iter<T> as core::iter::traits::iterator::Iterator>::next
  %5 = call align 8 ptr @"_ZN91_$LT$core..slice..iter..Iter$LT$T$GT$$u20$as$u20$core..iter..traits..iterator..Iterator$GT$4next17h41fb3bd20659fdbaE"(ptr align 8 %iter) #9, !dbg !788
  store ptr %5, ptr %_7, align 8, !dbg !788
  %6 = load ptr, ptr %_7, align 8, !dbg !788
  %7 = ptrtoint ptr %6 to i64, !dbg !788
  %8 = icmp eq i64 %7, 0, !dbg !788
  %_10 = select i1 %8, i64 0, i64 1, !dbg !788
  %9 = icmp eq i64 %_10, 0, !dbg !788
  br i1 %9, label %bb6, label %bb4, !dbg !788

bb6:                                              ; preds = %bb2
  ret ptr %self, !dbg !792

bb4:                                              ; preds = %bb2
  %10 = load ptr, ptr %_7, align 8, !dbg !793, !nonnull !24, !align !459, !noundef !24
  store ptr %10, ptr %entry, align 8, !dbg !793
; call core::fmt::builders::DebugList::entry
  %_12 = call align 8 ptr @_ZN4core3fmt8builders9DebugList5entry17h4c83e953854f81eaE(ptr align 8 %self, ptr align 1 %entry, ptr align 8 @vtable.1) #9, !dbg !794
  br label %bb2, !dbg !795

bb5:                                              ; No predecessors!
  unreachable, !dbg !788
}

; core::fmt::Arguments::new_v1_formatted
; Function Attrs: inlinehint nounwind
define internal void @_ZN4core3fmt9Arguments16new_v1_formatted17h79e185dadb0b1171E(ptr sret(%"core::fmt::Arguments<'_>") %0, ptr align 8 %pieces.0, i64 %pieces.1, ptr align 8 %args.0, i64 %args.1, ptr align 8 %fmt.0, i64 %fmt.1) unnamed_addr #0 !dbg !796 {
start:
  %_unsafe_arg.dbg.spill = alloca %"core::fmt::UnsafeArg", align 1
  %fmt.dbg.spill = alloca { ptr, i64 }, align 8
  %args.dbg.spill = alloca { ptr, i64 }, align 8
  %pieces.dbg.spill = alloca { ptr, i64 }, align 8
  %_6 = alloca { ptr, i64 }, align 8
  %1 = getelementptr inbounds { ptr, i64 }, ptr %pieces.dbg.spill, i32 0, i32 0
  store ptr %pieces.0, ptr %1, align 8
  %2 = getelementptr inbounds { ptr, i64 }, ptr %pieces.dbg.spill, i32 0, i32 1
  store i64 %pieces.1, ptr %2, align 8
  call void @llvm.dbg.declare(metadata ptr %pieces.dbg.spill, metadata !862, metadata !DIExpression()), !dbg !866
  %3 = getelementptr inbounds { ptr, i64 }, ptr %args.dbg.spill, i32 0, i32 0
  store ptr %args.0, ptr %3, align 8
  %4 = getelementptr inbounds { ptr, i64 }, ptr %args.dbg.spill, i32 0, i32 1
  store i64 %args.1, ptr %4, align 8
  call void @llvm.dbg.declare(metadata ptr %args.dbg.spill, metadata !863, metadata !DIExpression()), !dbg !867
  %5 = getelementptr inbounds { ptr, i64 }, ptr %fmt.dbg.spill, i32 0, i32 0
  store ptr %fmt.0, ptr %5, align 8
  %6 = getelementptr inbounds { ptr, i64 }, ptr %fmt.dbg.spill, i32 0, i32 1
  store i64 %fmt.1, ptr %6, align 8
  call void @llvm.dbg.declare(metadata ptr %fmt.dbg.spill, metadata !864, metadata !DIExpression()), !dbg !868
  call void @llvm.dbg.declare(metadata ptr %_unsafe_arg.dbg.spill, metadata !865, metadata !DIExpression()), !dbg !869
  %7 = getelementptr inbounds { ptr, i64 }, ptr %_6, i32 0, i32 0, !dbg !870
  store ptr %fmt.0, ptr %7, align 8, !dbg !870
  %8 = getelementptr inbounds { ptr, i64 }, ptr %_6, i32 0, i32 1, !dbg !870
  store i64 %fmt.1, ptr %8, align 8, !dbg !870
  %9 = getelementptr inbounds %"core::fmt::Arguments<'_>", ptr %0, i32 0, i32 1, !dbg !871
  %10 = getelementptr inbounds { ptr, i64 }, ptr %9, i32 0, i32 0, !dbg !871
  store ptr %pieces.0, ptr %10, align 8, !dbg !871
  %11 = getelementptr inbounds { ptr, i64 }, ptr %9, i32 0, i32 1, !dbg !871
  store i64 %pieces.1, ptr %11, align 8, !dbg !871
  %12 = getelementptr inbounds { ptr, i64 }, ptr %_6, i32 0, i32 0, !dbg !871
  %13 = load ptr, ptr %12, align 8, !dbg !871, !align !459
  %14 = getelementptr inbounds { ptr, i64 }, ptr %_6, i32 0, i32 1, !dbg !871
  %15 = load i64, ptr %14, align 8, !dbg !871
  %16 = getelementptr inbounds { ptr, i64 }, ptr %0, i32 0, i32 0, !dbg !871
  store ptr %13, ptr %16, align 8, !dbg !871
  %17 = getelementptr inbounds { ptr, i64 }, ptr %0, i32 0, i32 1, !dbg !871
  store i64 %15, ptr %17, align 8, !dbg !871
  %18 = getelementptr inbounds %"core::fmt::Arguments<'_>", ptr %0, i32 0, i32 2, !dbg !871
  %19 = getelementptr inbounds { ptr, i64 }, ptr %18, i32 0, i32 0, !dbg !871
  store ptr %args.0, ptr %19, align 8, !dbg !871
  %20 = getelementptr inbounds { ptr, i64 }, ptr %18, i32 0, i32 1, !dbg !871
  store i64 %args.1, ptr %20, align 8, !dbg !871
  ret void, !dbg !872
}

; core::fmt::Arguments::new_v1
; Function Attrs: inlinehint nounwind
define internal void @_ZN4core3fmt9Arguments6new_v117he0ff5f68815cdf51E(ptr sret(%"core::fmt::Arguments<'_>") %0, ptr align 8 %pieces.0, i64 %pieces.1, ptr align 8 %args.0, i64 %args.1) unnamed_addr #0 !dbg !873 {
start:
  %args.dbg.spill = alloca { ptr, i64 }, align 8
  %pieces.dbg.spill = alloca { ptr, i64 }, align 8
  %_25 = alloca { ptr, i64 }, align 8
  %_17 = alloca %"core::fmt::Arguments<'_>", align 8
  %_3 = alloca i8, align 1
  %1 = getelementptr inbounds { ptr, i64 }, ptr %pieces.dbg.spill, i32 0, i32 0
  store ptr %pieces.0, ptr %1, align 8
  %2 = getelementptr inbounds { ptr, i64 }, ptr %pieces.dbg.spill, i32 0, i32 1
  store i64 %pieces.1, ptr %2, align 8
  call void @llvm.dbg.declare(metadata ptr %pieces.dbg.spill, metadata !877, metadata !DIExpression()), !dbg !879
  %3 = getelementptr inbounds { ptr, i64 }, ptr %args.dbg.spill, i32 0, i32 0
  store ptr %args.0, ptr %3, align 8
  %4 = getelementptr inbounds { ptr, i64 }, ptr %args.dbg.spill, i32 0, i32 1
  store i64 %args.1, ptr %4, align 8
  call void @llvm.dbg.declare(metadata ptr %args.dbg.spill, metadata !878, metadata !DIExpression()), !dbg !880
  %_4 = icmp ult i64 %pieces.1, %args.1, !dbg !881
  br i1 %_4, label %bb1, label %bb2, !dbg !881

bb2:                                              ; preds = %start
  %5 = call { i64, i1 } @llvm.uadd.with.overflow.i64(i64 %args.1, i64 1), !dbg !882
  %_15.0 = extractvalue { i64, i1 } %5, 0, !dbg !882
  %_15.1 = extractvalue { i64, i1 } %5, 1, !dbg !882
  %6 = call i1 @llvm.expect.i1(i1 %_15.1, i1 false), !dbg !882
  br i1 %6, label %panic, label %bb4, !dbg !882

bb1:                                              ; preds = %start
  store i8 1, ptr %_3, align 1, !dbg !881
  br label %bb3, !dbg !881

bb3:                                              ; preds = %bb4, %bb1
  %7 = load i8, ptr %_3, align 1, !dbg !881, !range !197, !noundef !24
  %8 = trunc i8 %7 to i1, !dbg !881
  br i1 %8, label %bb5, label %bb7, !dbg !881

bb4:                                              ; preds = %bb2
  %_9 = icmp ugt i64 %pieces.1, %_15.0, !dbg !883
  %9 = zext i1 %_9 to i8, !dbg !881
  store i8 %9, ptr %_3, align 1, !dbg !881
  br label %bb3, !dbg !881

panic:                                            ; preds = %bb2
; call core::panicking::panic
  call void @_ZN4core9panicking5panic17hbe538fb8c244b3dfE(ptr align 1 @str.2, i64 28, ptr align 8 @alloc323) #10, !dbg !882
  unreachable, !dbg !882

bb7:                                              ; preds = %bb3
  store ptr null, ptr %_25, align 8, !dbg !884
  %10 = getelementptr inbounds %"core::fmt::Arguments<'_>", ptr %0, i32 0, i32 1, !dbg !885
  %11 = getelementptr inbounds { ptr, i64 }, ptr %10, i32 0, i32 0, !dbg !885
  store ptr %pieces.0, ptr %11, align 8, !dbg !885
  %12 = getelementptr inbounds { ptr, i64 }, ptr %10, i32 0, i32 1, !dbg !885
  store i64 %pieces.1, ptr %12, align 8, !dbg !885
  %13 = getelementptr inbounds { ptr, i64 }, ptr %_25, i32 0, i32 0, !dbg !885
  %14 = load ptr, ptr %13, align 8, !dbg !885, !align !459
  %15 = getelementptr inbounds { ptr, i64 }, ptr %_25, i32 0, i32 1, !dbg !885
  %16 = load i64, ptr %15, align 8, !dbg !885
  %17 = getelementptr inbounds { ptr, i64 }, ptr %0, i32 0, i32 0, !dbg !885
  store ptr %14, ptr %17, align 8, !dbg !885
  %18 = getelementptr inbounds { ptr, i64 }, ptr %0, i32 0, i32 1, !dbg !885
  store i64 %16, ptr %18, align 8, !dbg !885
  %19 = getelementptr inbounds %"core::fmt::Arguments<'_>", ptr %0, i32 0, i32 2, !dbg !885
  %20 = getelementptr inbounds { ptr, i64 }, ptr %19, i32 0, i32 0, !dbg !885
  store ptr %args.0, ptr %20, align 8, !dbg !885
  %21 = getelementptr inbounds { ptr, i64 }, ptr %19, i32 0, i32 1, !dbg !885
  store i64 %args.1, ptr %21, align 8, !dbg !885
  ret void, !dbg !886

bb5:                                              ; preds = %bb3
; call core::fmt::Arguments::new_v1
  call void @_ZN4core3fmt9Arguments6new_v117he0ff5f68815cdf51E(ptr sret(%"core::fmt::Arguments<'_>") %_17, ptr align 8 @alloc80, i64 1, ptr align 8 @alloc94, i64 0) #9, !dbg !887
; call core::panicking::panic_fmt
  call void @_ZN4core9panicking9panic_fmt17hfe64dbbc238629aeE(ptr %_17, ptr align 8 @alloc325) #10, !dbg !887
  unreachable, !dbg !887
}

; core::mem::swap_simple
; Function Attrs: inlinehint nounwind
define void @_ZN4core3mem11swap_simple17h3ba34396ece90482E(ptr align 8 %x, ptr align 8 %y) unnamed_addr #0 !dbg !888 {
start:
  %y.dbg.spill = alloca ptr, align 8
  %x.dbg.spill = alloca ptr, align 8
  %_12 = alloca %"core::mem::maybe_uninit::MaybeUninit<bootinfo::memory_map::MemoryRegion>", align 8
  %_9 = alloca %"core::mem::maybe_uninit::MaybeUninit<bootinfo::memory_map::MemoryRegion>", align 8
  %b = alloca %"core::mem::maybe_uninit::MaybeUninit<bootinfo::memory_map::MemoryRegion>", align 8
  %a = alloca %"core::mem::maybe_uninit::MaybeUninit<bootinfo::memory_map::MemoryRegion>", align 8
  store ptr %x, ptr %x.dbg.spill, align 8
  call void @llvm.dbg.declare(metadata ptr %x.dbg.spill, metadata !894, metadata !DIExpression()), !dbg !900
  store ptr %y, ptr %y.dbg.spill, align 8
  call void @llvm.dbg.declare(metadata ptr %y.dbg.spill, metadata !895, metadata !DIExpression()), !dbg !901
  call void @llvm.dbg.declare(metadata ptr %a, metadata !896, metadata !DIExpression()), !dbg !902
  call void @llvm.dbg.declare(metadata ptr %b, metadata !898, metadata !DIExpression()), !dbg !903
; call core::ptr::read
  call void @_ZN4core3ptr4read17hcdb9e853ce1a09c9E(ptr sret(%"core::mem::maybe_uninit::MaybeUninit<bootinfo::memory_map::MemoryRegion>") %a, ptr %x) #9, !dbg !904
; call core::ptr::read
  call void @_ZN4core3ptr4read17hcdb9e853ce1a09c9E(ptr sret(%"core::mem::maybe_uninit::MaybeUninit<bootinfo::memory_map::MemoryRegion>") %b, ptr %y) #9, !dbg !905
  call void @llvm.memcpy.p0.p0.i64(ptr align 8 %_9, ptr align 8 %b, i64 24, i1 false), !dbg !906
; call core::ptr::write
  call void @_ZN4core3ptr5write17h12e73ac29a98b4a1E(ptr %x, ptr %_9) #9, !dbg !907
  call void @llvm.memcpy.p0.p0.i64(ptr align 8 %_12, ptr align 8 %a, i64 24, i1 false), !dbg !908
; call core::ptr::write
  call void @_ZN4core3ptr5write17h12e73ac29a98b4a1E(ptr %y, ptr %_12) #9, !dbg !909
  ret void, !dbg !910
}

; core::mem::swap_simple
; Function Attrs: inlinehint nounwind
define void @_ZN4core3mem11swap_simple17h94de7e7e42965459E(ptr align 8 %x, ptr align 8 %y) unnamed_addr #0 !dbg !911 {
start:
  %y.dbg.spill = alloca ptr, align 8
  %x.dbg.spill = alloca ptr, align 8
  %_12 = alloca %"bootinfo::memory_map::MemoryRegion", align 8
  %_9 = alloca %"bootinfo::memory_map::MemoryRegion", align 8
  %b = alloca %"bootinfo::memory_map::MemoryRegion", align 8
  %a = alloca %"bootinfo::memory_map::MemoryRegion", align 8
  store ptr %x, ptr %x.dbg.spill, align 8
  call void @llvm.dbg.declare(metadata ptr %x.dbg.spill, metadata !916, metadata !DIExpression()), !dbg !922
  store ptr %y, ptr %y.dbg.spill, align 8
  call void @llvm.dbg.declare(metadata ptr %y.dbg.spill, metadata !917, metadata !DIExpression()), !dbg !923
  call void @llvm.dbg.declare(metadata ptr %a, metadata !918, metadata !DIExpression()), !dbg !924
  call void @llvm.dbg.declare(metadata ptr %b, metadata !920, metadata !DIExpression()), !dbg !925
; call core::ptr::read
  call void @_ZN4core3ptr4read17ha95782224e06da53E(ptr sret(%"bootinfo::memory_map::MemoryRegion") %a, ptr %x) #9, !dbg !926
; call core::ptr::read
  call void @_ZN4core3ptr4read17ha95782224e06da53E(ptr sret(%"bootinfo::memory_map::MemoryRegion") %b, ptr %y) #9, !dbg !927
  call void @llvm.memcpy.p0.p0.i64(ptr align 8 %_9, ptr align 8 %b, i64 24, i1 false), !dbg !928
; call core::ptr::write
  call void @_ZN4core3ptr5write17h0be64d935f02ff10E(ptr %x, ptr %_9) #9, !dbg !929
  call void @llvm.memcpy.p0.p0.i64(ptr align 8 %_12, ptr align 8 %a, i64 24, i1 false), !dbg !930
; call core::ptr::write
  call void @_ZN4core3ptr5write17h0be64d935f02ff10E(ptr %y, ptr %_12) #9, !dbg !931
  ret void, !dbg !932
}

; core::mem::swap
; Function Attrs: inlinehint nounwind
define void @_ZN4core3mem4swap17h28f0b8b076779fceE(ptr align 8 %x, ptr align 8 %y) unnamed_addr #0 !dbg !933 {
start:
  %y.dbg.spill = alloca ptr, align 8
  %x.dbg.spill = alloca ptr, align 8
  store ptr %x, ptr %x.dbg.spill, align 8
  call void @llvm.dbg.declare(metadata ptr %x.dbg.spill, metadata !935, metadata !DIExpression()), !dbg !937
  store ptr %y, ptr %y.dbg.spill, align 8
  call void @llvm.dbg.declare(metadata ptr %y.dbg.spill, metadata !936, metadata !DIExpression()), !dbg !938
  %_7 = icmp eq i64 8, 0, !dbg !939
  %0 = call i1 @llvm.expect.i1(i1 %_7, i1 false), !dbg !939
  br i1 %0, label %panic, label %bb3, !dbg !939

bb3:                                              ; preds = %start
  %_4 = udiv i64 24, 8, !dbg !939
  %_3 = icmp ugt i64 %_4, 4, !dbg !939
  br i1 %_3, label %bb4, label %bb5, !dbg !939

panic:                                            ; preds = %start
; call core::panicking::panic
  call void @_ZN4core9panicking5panic17hbe538fb8c244b3dfE(ptr align 1 @str.3, i64 25, ptr align 8 @alloc327) #10, !dbg !939
  unreachable, !dbg !939

bb5:                                              ; preds = %bb3
; call core::mem::swap_simple
  call void @_ZN4core3mem11swap_simple17h94de7e7e42965459E(ptr align 8 %x, ptr align 8 %y) #9, !dbg !940
  br label %bb6, !dbg !940

bb4:                                              ; preds = %bb3
; call core::ptr::swap_nonoverlapping
  call void @_ZN4core3ptr19swap_nonoverlapping17h9ba78dec997edd1aE(ptr %x, ptr %y, i64 1) #9, !dbg !941
  br label %bb6, !dbg !941

bb6:                                              ; preds = %bb5, %bb4
  ret void, !dbg !942
}

; core::mem::forget
; Function Attrs: inlinehint nounwind
define void @_ZN4core3mem6forget17h9cbfbef7b5a8326fE(ptr %t) unnamed_addr #0 !dbg !943 {
start:
  %_2.i = alloca %"bootinfo::memory_map::MemoryRegion", align 8
  %_3 = alloca %"bootinfo::memory_map::MemoryRegion", align 8
  %_2 = alloca %"core::mem::manually_drop::ManuallyDrop<bootinfo::memory_map::MemoryRegion>", align 8
  call void @llvm.dbg.declare(metadata ptr %t, metadata !947, metadata !DIExpression()), !dbg !948
  call void @llvm.memcpy.p0.p0.i64(ptr align 8 %_3, ptr align 8 %t, i64 24, i1 false), !dbg !949
  call void @llvm.dbg.declare(metadata ptr %_3, metadata !950, metadata !DIExpression()), !dbg !956
  call void @llvm.memcpy.p0.p0.i64(ptr align 8 %_2.i, ptr align 8 %_3, i64 24, i1 false), !dbg !958
  call void @llvm.memcpy.p0.p0.i64(ptr align 8 %_2, ptr align 8 %_2.i, i64 24, i1 false), !dbg !959
  ret void, !dbg !960
}

; core::num::<impl usize>::checked_mul
; Function Attrs: inlinehint nounwind
define internal { i64, i64 } @"_ZN4core3num23_$LT$impl$u20$usize$GT$11checked_mul17haed30c9c91ec44cfE"(i64 %self, i64 %rhs) unnamed_addr #0 !dbg !961 {
start:
  %b.dbg.spill.i = alloca i8, align 1
  %a.dbg.spill.i = alloca i64, align 8
  %0 = alloca { i64, i8 }, align 8
  %rhs.dbg.spill.i = alloca i64, align 8
  %self.dbg.spill.i = alloca i64, align 8
  %1 = alloca { i64, i8 }, align 8
  %2 = alloca i8, align 1
  %b.dbg.spill = alloca i8, align 1
  %a.dbg.spill = alloca i64, align 8
  %rhs.dbg.spill = alloca i64, align 8
  %self.dbg.spill = alloca i64, align 8
  %3 = alloca { i64, i64 }, align 8
  store i64 %self, ptr %self.dbg.spill, align 8
  call void @llvm.dbg.declare(metadata ptr %self.dbg.spill, metadata !968, metadata !DIExpression()), !dbg !973
  store i64 %rhs, ptr %rhs.dbg.spill, align 8
  call void @llvm.dbg.declare(metadata ptr %rhs.dbg.spill, metadata !969, metadata !DIExpression()), !dbg !974
  store i64 %self, ptr %self.dbg.spill.i, align 8
  call void @llvm.dbg.declare(metadata ptr %self.dbg.spill.i, metadata !975, metadata !DIExpression()), !dbg !988
  store i64 %rhs, ptr %rhs.dbg.spill.i, align 8
  call void @llvm.dbg.declare(metadata ptr %rhs.dbg.spill.i, metadata !984, metadata !DIExpression()), !dbg !990
  %4 = call { i64, i1 } @llvm.umul.with.overflow.i64(i64 %self, i64 %rhs), !dbg !991
  %5 = extractvalue { i64, i1 } %4, 0, !dbg !991
  %6 = extractvalue { i64, i1 } %4, 1, !dbg !991
  %7 = zext i1 %6 to i8, !dbg !991
  store i64 %5, ptr %0, align 8, !dbg !991
  %8 = getelementptr inbounds { i64, i8 }, ptr %0, i32 0, i32 1, !dbg !991
  store i8 %7, ptr %8, align 8, !dbg !991
  %_5.0.i = load i64, ptr %0, align 8, !dbg !991
  %9 = getelementptr inbounds { i64, i8 }, ptr %0, i32 0, i32 1, !dbg !991
  %10 = load i8, ptr %9, align 8, !dbg !991, !range !197, !noundef !24
  %_5.1.i = trunc i8 %10 to i1, !dbg !991
  store i64 %_5.0.i, ptr %a.dbg.spill.i, align 8, !dbg !992
  call void @llvm.dbg.declare(metadata ptr %a.dbg.spill.i, metadata !985, metadata !DIExpression()), !dbg !993
  %11 = zext i1 %_5.1.i to i8, !dbg !994
  store i8 %11, ptr %b.dbg.spill.i, align 1, !dbg !994
  call void @llvm.dbg.declare(metadata ptr %b.dbg.spill.i, metadata !987, metadata !DIExpression()), !dbg !995
  store i64 %_5.0.i, ptr %1, align 8, !dbg !996
  %12 = getelementptr inbounds { i64, i8 }, ptr %1, i32 0, i32 1, !dbg !996
  %13 = zext i1 %_5.1.i to i8, !dbg !996
  store i8 %13, ptr %12, align 8, !dbg !996
  %14 = load i64, ptr %1, align 8, !dbg !997
  %15 = getelementptr inbounds { i64, i8 }, ptr %1, i32 0, i32 1, !dbg !997
  %16 = load i8, ptr %15, align 8, !dbg !997, !range !197, !noundef !24
  %17 = trunc i8 %16 to i1, !dbg !997
  %18 = zext i1 %17 to i8, !dbg !997
  %19 = insertvalue { i64, i8 } undef, i64 %14, 0, !dbg !997
  %20 = insertvalue { i64, i8 } %19, i8 %18, 1, !dbg !997
  %_5.0 = extractvalue { i64, i8 } %20, 0, !dbg !998
  %21 = extractvalue { i64, i8 } %20, 1, !dbg !998
  %_5.1 = trunc i8 %21 to i1, !dbg !998
  store i64 %_5.0, ptr %a.dbg.spill, align 8, !dbg !999
  call void @llvm.dbg.declare(metadata ptr %a.dbg.spill, metadata !970, metadata !DIExpression()), !dbg !1000
  %22 = zext i1 %_5.1 to i8, !dbg !1001
  store i8 %22, ptr %b.dbg.spill, align 1, !dbg !1001
  call void @llvm.dbg.declare(metadata ptr %b.dbg.spill, metadata !972, metadata !DIExpression()), !dbg !1002
  %23 = call i1 @llvm.expect.i1(i1 %_5.1, i1 false), !dbg !1003
  %24 = zext i1 %23 to i8, !dbg !1003
  store i8 %24, ptr %2, align 1, !dbg !1003
  %25 = load i8, ptr %2, align 1, !dbg !1003, !range !197, !noundef !24
  %_8 = trunc i8 %25 to i1, !dbg !1003
  br i1 %_8, label %bb3, label %bb4, !dbg !1003

bb4:                                              ; preds = %start
  %26 = getelementptr inbounds { i64, i64 }, ptr %3, i32 0, i32 1, !dbg !1004
  store i64 %_5.0, ptr %26, align 8, !dbg !1004
  store i64 1, ptr %3, align 8, !dbg !1004
  br label %bb5, !dbg !1005

bb3:                                              ; preds = %start
  store i64 0, ptr %3, align 8, !dbg !1006
  br label %bb5, !dbg !1005

bb5:                                              ; preds = %bb4, %bb3
  %27 = getelementptr inbounds { i64, i64 }, ptr %3, i32 0, i32 0, !dbg !1007
  %28 = load i64, ptr %27, align 8, !dbg !1007, !range !1008, !noundef !24
  %29 = getelementptr inbounds { i64, i64 }, ptr %3, i32 0, i32 1, !dbg !1007
  %30 = load i64, ptr %29, align 8, !dbg !1007
  %31 = insertvalue { i64, i64 } undef, i64 %28, 0, !dbg !1007
  %32 = insertvalue { i64, i64 } %31, i64 %30, 1, !dbg !1007
  ret { i64, i64 } %32, !dbg !1007
}

; core::num::<impl usize>::next_power_of_two
; Function Attrs: inlinehint nounwind
define internal i64 @"_ZN4core3num23_$LT$impl$u20$usize$GT$17next_power_of_two17hf3ad0a10eaa256e8E"(i64 %self) unnamed_addr #0 !dbg !1009 {
start:
  %self.dbg.spill = alloca i64, align 8
  store i64 %self, ptr %self.dbg.spill, align 8
  call void @llvm.dbg.declare(metadata ptr %self.dbg.spill, metadata !1013, metadata !DIExpression()), !dbg !1014
; call core::num::<impl usize>::one_less_than_next_power_of_two
  %_2 = call i64 @"_ZN4core3num23_$LT$impl$u20$usize$GT$31one_less_than_next_power_of_two17hb9699c0152bfb33aE"(i64 %self) #9, !dbg !1015
  %0 = call { i64, i1 } @llvm.uadd.with.overflow.i64(i64 %_2, i64 1), !dbg !1015
  %_4.0 = extractvalue { i64, i1 } %0, 0, !dbg !1015
  %_4.1 = extractvalue { i64, i1 } %0, 1, !dbg !1015
  %1 = call i1 @llvm.expect.i1(i1 %_4.1, i1 false), !dbg !1015
  br i1 %1, label %panic, label %bb2, !dbg !1015

bb2:                                              ; preds = %start
  ret i64 %_4.0, !dbg !1016

panic:                                            ; preds = %start
; call core::panicking::panic
  call void @_ZN4core9panicking5panic17hbe538fb8c244b3dfE(ptr align 1 @str.2, i64 28, ptr align 8 @alloc329) #10, !dbg !1015
  unreachable, !dbg !1015
}

; core::num::<impl usize>::one_less_than_next_power_of_two
; Function Attrs: inlinehint nounwind
define internal i64 @"_ZN4core3num23_$LT$impl$u20$usize$GT$31one_less_than_next_power_of_two17hb9699c0152bfb33aE"(i64 %self) unnamed_addr #0 !dbg !1017 {
start:
  %z.dbg.spill = alloca i64, align 8
  %0 = alloca i64, align 8
  %p.dbg.spill = alloca i64, align 8
  %self.dbg.spill = alloca i64, align 8
  %1 = alloca i64, align 8
  store i64 %self, ptr %self.dbg.spill, align 8
  call void @llvm.dbg.declare(metadata ptr %self.dbg.spill, metadata !1019, metadata !DIExpression()), !dbg !1024
  %_2 = icmp ule i64 %self, 1, !dbg !1025
  br i1 %_2, label %bb1, label %bb2, !dbg !1025

bb2:                                              ; preds = %start
  %_6.0 = sub i64 %self, 1, !dbg !1026
  %_6.1 = icmp ult i64 %self, 1, !dbg !1026
  %2 = call i1 @llvm.expect.i1(i1 %_6.1, i1 false), !dbg !1026
  br i1 %2, label %panic, label %bb3, !dbg !1026

bb1:                                              ; preds = %start
  store i64 0, ptr %1, align 8, !dbg !1027
  br label %bb6, !dbg !1028

bb6:                                              ; preds = %bb5, %bb1
  %3 = load i64, ptr %1, align 8, !dbg !1028
  ret i64 %3, !dbg !1028

bb3:                                              ; preds = %bb2
  store i64 %_6.0, ptr %p.dbg.spill, align 8, !dbg !1026
  call void @llvm.dbg.declare(metadata ptr %p.dbg.spill, metadata !1020, metadata !DIExpression()), !dbg !1029
  %4 = call i64 @llvm.ctlz.i64(i64 %_6.0, i1 true), !dbg !1030
  store i64 %4, ptr %0, align 8, !dbg !1030
  %z = load i64, ptr %0, align 8, !dbg !1030
  store i64 %z, ptr %z.dbg.spill, align 8, !dbg !1030
  call void @llvm.dbg.declare(metadata ptr %z.dbg.spill, metadata !1022, metadata !DIExpression()), !dbg !1031
  %5 = and i64 %z, -64, !dbg !1032
  %_10.1 = icmp ne i64 %5, 0, !dbg !1032
  %6 = and i64 %z, 63, !dbg !1032
  %_10.0 = lshr i64 -1, %6, !dbg !1032
  %7 = call i1 @llvm.expect.i1(i1 %_10.1, i1 false), !dbg !1032
  br i1 %7, label %panic1, label %bb5, !dbg !1032

panic:                                            ; preds = %bb2
; call core::panicking::panic
  call void @_ZN4core9panicking5panic17hbe538fb8c244b3dfE(ptr align 1 @str.0, i64 33, ptr align 8 @alloc329) #10, !dbg !1026
  unreachable, !dbg !1026

bb5:                                              ; preds = %bb3
  store i64 %_10.0, ptr %1, align 8, !dbg !1032
  br label %bb6, !dbg !1028

panic1:                                           ; preds = %bb3
; call core::panicking::panic
  call void @_ZN4core9panicking5panic17hbe538fb8c244b3dfE(ptr align 1 @str.4, i64 36, ptr align 8 @alloc329) #10, !dbg !1032
  unreachable, !dbg !1032
}

; core::ops::function::impls::<impl core::ops::function::FnMut<A> for &mut F>::call_mut
; Function Attrs: nounwind
define zeroext i1 @"_ZN4core3ops8function5impls79_$LT$impl$u20$core..ops..function..FnMut$LT$A$GT$$u20$for$u20$$RF$mut$u20$F$GT$8call_mut17hde824f27709ad546E"(ptr align 8 %self, ptr align 8 %0, ptr align 8 %1) unnamed_addr #1 !dbg !1033 {
start:
  %self.dbg.spill = alloca ptr, align 8
  %args = alloca { ptr, ptr }, align 8
  store ptr %0, ptr %args, align 8
  %2 = getelementptr inbounds { ptr, ptr }, ptr %args, i32 0, i32 1
  store ptr %1, ptr %2, align 8
  store ptr %self, ptr %self.dbg.spill, align 8
  call void @llvm.dbg.declare(metadata ptr %self.dbg.spill, metadata !1052, metadata !DIExpression()), !dbg !1061
  call void @llvm.dbg.declare(metadata ptr %args, metadata !1053, metadata !DIExpression()), !dbg !1062
  %_5 = load ptr, ptr %self, align 8, !dbg !1063, !nonnull !24, !align !459, !noundef !24
  %3 = getelementptr inbounds { ptr, ptr }, ptr %args, i32 0, i32 0, !dbg !1064
  %_4.0 = load ptr, ptr %3, align 8, !dbg !1064, !nonnull !24, !align !459, !noundef !24
  %4 = getelementptr inbounds { ptr, ptr }, ptr %args, i32 0, i32 1, !dbg !1064
  %_4.1 = load ptr, ptr %4, align 8, !dbg !1064, !nonnull !24, !align !459, !noundef !24
; call core::slice::<impl [T]>::sort_unstable_by::{{closure}}
  %5 = call zeroext i1 @"_ZN4core5slice29_$LT$impl$u20$$u5b$T$u5d$$GT$16sort_unstable_by28_$u7b$$u7b$closure$u7d$$u7d$17hcc6221f5a07d47f0E"(ptr align 8 %_5, ptr align 8 %_4.0, ptr align 8 %_4.1) #9, !dbg !1063
  ret i1 %5, !dbg !1065
}

; core::ptr::drop_in_place<core::slice::sort::CopyOnDrop<bootloader::bootinfo::memory_map::MemoryRegion>>
; Function Attrs: nounwind
define void @"_ZN4core3ptr104drop_in_place$LT$core..slice..sort..CopyOnDrop$LT$bootloader..bootinfo..memory_map..MemoryRegion$GT$$GT$17h2f05392d7a370feaE"(ptr %_1) unnamed_addr #1 !dbg !1066 {
start:
  %_1.dbg.spill = alloca ptr, align 8
  store ptr %_1, ptr %_1.dbg.spill, align 8
  call void @llvm.dbg.declare(metadata ptr %_1.dbg.spill, metadata !1077, metadata !DIExpression()), !dbg !1080
; call <core::slice::sort::CopyOnDrop<T> as core::ops::drop::Drop>::drop
  call void @"_ZN80_$LT$core..slice..sort..CopyOnDrop$LT$T$GT$$u20$as$u20$core..ops..drop..Drop$GT$4drop17h5bd7f7cd5f3e9deeE"(ptr align 8 %_1) #9, !dbg !1080
  ret void, !dbg !1080
}

; core::ptr::swap_nonoverlapping
; Function Attrs: inlinehint nounwind
define void @_ZN4core3ptr19swap_nonoverlapping17h9ba78dec997edd1aE(ptr %x, ptr %y, i64 %count) unnamed_addr #0 !dbg !1081 {
start:
  %self.dbg.spill.i20 = alloca ptr, align 8
  %self.dbg.spill.i19 = alloca ptr, align 8
  %self.dbg.spill.i18 = alloca ptr, align 8
  %self.dbg.spill.i17 = alloca ptr, align 8
  %count.dbg.spill.i = alloca i64, align 8
  %y.dbg.spill.i = alloca ptr, align 8
  %x.dbg.spill.i = alloca ptr, align 8
  %_6.i = alloca i8, align 1
  %_5.i = alloca i8, align 1
  %0 = alloca i64, align 8
  %self.dbg.spill.i.i = alloca i64, align 8
  %self.dbg.spill.i = alloca i64, align 8
  %count.dbg.spill16 = alloca i64, align 8
  %y.dbg.spill13 = alloca ptr, align 8
  %x.dbg.spill11 = alloca ptr, align 8
  %count.dbg.spill8 = alloca i64, align 8
  %y.dbg.spill5 = alloca ptr, align 8
  %x.dbg.spill3 = alloca ptr, align 8
  %count.dbg.spill = alloca i64, align 8
  %y.dbg.spill = alloca ptr, align 8
  %x.dbg.spill = alloca ptr, align 8
  %_45 = alloca i8, align 1
  %_22 = alloca i8, align 1
  %_13 = alloca i8, align 1
  %_9 = alloca i8, align 1
  %_5 = alloca { ptr, ptr, i64 }, align 8
  store ptr %x, ptr %x.dbg.spill, align 8
  call void @llvm.dbg.declare(metadata ptr %x.dbg.spill, metadata !1085, metadata !DIExpression()), !dbg !1101
  store ptr %y, ptr %y.dbg.spill, align 8
  call void @llvm.dbg.declare(metadata ptr %y.dbg.spill, metadata !1086, metadata !DIExpression()), !dbg !1102
  store i64 %count, ptr %count.dbg.spill, align 8
  call void @llvm.dbg.declare(metadata ptr %count.dbg.spill, metadata !1087, metadata !DIExpression()), !dbg !1103
  store ptr %x, ptr %_5, align 8, !dbg !1104
  %1 = getelementptr inbounds { ptr, ptr, i64 }, ptr %_5, i32 0, i32 1, !dbg !1104
  store ptr %y, ptr %1, align 8, !dbg !1104
  %2 = getelementptr inbounds { ptr, ptr, i64 }, ptr %_5, i32 0, i32 2, !dbg !1104
  store i64 %count, ptr %2, align 8, !dbg !1104
  %3 = load ptr, ptr %_5, align 8, !dbg !1104
  %4 = getelementptr inbounds { ptr, ptr, i64 }, ptr %_5, i32 0, i32 1, !dbg !1104
  %5 = load ptr, ptr %4, align 8, !dbg !1104
  %6 = getelementptr inbounds { ptr, ptr, i64 }, ptr %_5, i32 0, i32 2, !dbg !1104
  %7 = load i64, ptr %6, align 8, !dbg !1104
  store ptr %3, ptr %x.dbg.spill.i, align 8
  call void @llvm.dbg.declare(metadata ptr %x.dbg.spill.i, metadata !1105, metadata !DIExpression()), !dbg !1111
  store ptr %5, ptr %y.dbg.spill.i, align 8
  call void @llvm.dbg.declare(metadata ptr %y.dbg.spill.i, metadata !1109, metadata !DIExpression()), !dbg !1111
  store i64 %7, ptr %count.dbg.spill.i, align 8
  call void @llvm.dbg.declare(metadata ptr %count.dbg.spill.i, metadata !1110, metadata !DIExpression()), !dbg !1111
; call core::intrinsics::is_aligned_and_not_null
  %_7.i = call zeroext i1 @_ZN4core10intrinsics23is_aligned_and_not_null17h191fc7491f4eaf64E(ptr %3) #9, !dbg !1113
  br i1 %_7.i, label %bb5.i, label %bb4.i, !dbg !1113

bb4.i:                                            ; preds = %start
  store i8 0, ptr %_6.i, align 1, !dbg !1113
  br label %bb6.i, !dbg !1113

bb5.i:                                            ; preds = %start
; call core::intrinsics::is_aligned_and_not_null
  %_10.i = call zeroext i1 @_ZN4core10intrinsics23is_aligned_and_not_null17h191fc7491f4eaf64E(ptr %5) #9, !dbg !1115
  %8 = zext i1 %_10.i to i8, !dbg !1113
  store i8 %8, ptr %_6.i, align 1, !dbg !1113
  br label %bb6.i, !dbg !1113

bb6.i:                                            ; preds = %bb5.i, %bb4.i
  %9 = load i8, ptr %_6.i, align 1, !dbg !1113, !range !197, !noundef !24
  %10 = trunc i8 %9 to i1, !dbg !1113
  br i1 %10, label %bb2.i, label %bb1.i, !dbg !1113

bb1.i:                                            ; preds = %bb6.i
  store i8 0, ptr %_5.i, align 1, !dbg !1113
  br label %bb3.i, !dbg !1113

bb2.i:                                            ; preds = %bb6.i
; call core::intrinsics::is_nonoverlapping
  %_13.i = call zeroext i1 @_ZN4core10intrinsics17is_nonoverlapping17h2bf53ab67e1db900E(ptr %3, ptr %5, i64 %7) #9, !dbg !1116
  %11 = zext i1 %_13.i to i8, !dbg !1113
  store i8 %11, ptr %_5.i, align 1, !dbg !1113
  br label %bb3.i, !dbg !1113

bb3.i:                                            ; preds = %bb2.i, %bb1.i
  %12 = load i8, ptr %_5.i, align 1, !dbg !1117, !range !197, !noundef !24
  %13 = trunc i8 %12 to i1, !dbg !1117
  %_4.i = xor i1 %13, true, !dbg !1117
  br i1 %_4.i, label %bb10.i, label %_ZN4core3ptr19swap_nonoverlapping7runtime17h449cc62cd8f5b6c1E.exit, !dbg !1117

bb10.i:                                           ; preds = %bb3.i
; call core::panicking::panic_nounwind
  call void @_ZN4core9panicking14panic_nounwind17h3015023400b7dcd0E(ptr align 1 @alloc336, i64 166) #10, !dbg !1118
  unreachable, !dbg !1118

_ZN4core3ptr19swap_nonoverlapping7runtime17h449cc62cd8f5b6c1E.exit: ; preds = %bb3.i
  %_10 = icmp ule i64 8, 8, !dbg !1119
  br i1 %_10, label %bb3, label %bb2, !dbg !1119

bb2:                                              ; preds = %_ZN4core3ptr19swap_nonoverlapping7runtime17h449cc62cd8f5b6c1E.exit
  store i8 0, ptr %_9, align 1, !dbg !1119
  br label %bb4, !dbg !1119

bb3:                                              ; preds = %_ZN4core3ptr19swap_nonoverlapping7runtime17h449cc62cd8f5b6c1E.exit
  store i64 24, ptr %self.dbg.spill.i, align 8
  call void @llvm.dbg.declare(metadata ptr %self.dbg.spill.i, metadata !1120, metadata !DIExpression()), !dbg !1123
  store i64 24, ptr %self.dbg.spill.i.i, align 8
  call void @llvm.dbg.declare(metadata ptr %self.dbg.spill.i.i, metadata !1125, metadata !DIExpression()), !dbg !1130
  store i64 2, ptr %0, align 8, !dbg !1132
  %_2.i.i = load i64, ptr %0, align 8, !dbg !1132
  %14 = trunc i64 %_2.i.i to i32, !dbg !1132
  %15 = icmp eq i32 %14, 1, !dbg !1133
  %_14 = xor i1 %15, true, !dbg !1134
  br i1 %_14, label %bb7, label %bb8, !dbg !1135

bb8:                                              ; preds = %bb3
  %16 = call { i64, i1 } @llvm.umul.with.overflow.i64(i64 8, i64 2), !dbg !1136
  %_21.0 = extractvalue { i64, i1 } %16, 0, !dbg !1136
  %_21.1 = extractvalue { i64, i1 } %16, 1, !dbg !1136
  %17 = call i1 @llvm.expect.i1(i1 %_21.1, i1 false), !dbg !1136
  br i1 %17, label %panic, label %bb14, !dbg !1136

bb7:                                              ; preds = %bb3
  store i8 1, ptr %_13, align 1, !dbg !1135
  br label %bb9, !dbg !1135

bb9:                                              ; preds = %bb14, %bb7
  %18 = load i8, ptr %_13, align 1, !dbg !1119, !range !197, !noundef !24
  %19 = trunc i8 %18 to i1, !dbg !1119
  %20 = zext i1 %19 to i8, !dbg !1119
  store i8 %20, ptr %_9, align 1, !dbg !1119
  br label %bb4, !dbg !1119

bb14:                                             ; preds = %bb8
  %_17 = icmp ugt i64 24, %_21.0, !dbg !1137
  %21 = zext i1 %_17 to i8, !dbg !1135
  store i8 %21, ptr %_13, align 1, !dbg !1135
  br label %bb9, !dbg !1135

panic:                                            ; preds = %bb8
; call core::panicking::panic
  call void @_ZN4core9panicking5panic17hbe538fb8c244b3dfE(ptr align 1 @str.5, i64 33, ptr align 8 @alloc331) #10, !dbg !1136
  unreachable, !dbg !1136

bb4:                                              ; preds = %bb2, %bb9
  %22 = load i8, ptr %_9, align 1, !dbg !1119, !range !197, !noundef !24
  %23 = trunc i8 %22 to i1, !dbg !1119
  br i1 %23, label %bb15, label %bb47, !dbg !1119

bb47:                                             ; preds = %bb34, %bb4
; call core::ptr::swap_nonoverlapping_simple_untyped
  call void @_ZN4core3ptr34swap_nonoverlapping_simple_untyped17h8f55be4c0c6ab40eE(ptr %x, ptr %y, i64 %count) #9, !dbg !1138
  br label %bb48, !dbg !1138

bb15:                                             ; preds = %bb4
  %_23 = icmp uge i64 8, 8, !dbg !1139
  br i1 %_23, label %bb17, label %bb16, !dbg !1139

bb16:                                             ; preds = %bb15
  store i8 0, ptr %_22, align 1, !dbg !1139
  br label %bb18, !dbg !1139

bb17:                                             ; preds = %bb15
  %_30 = icmp eq i64 8, 0, !dbg !1139
  %24 = call i1 @llvm.expect.i1(i1 %_30, i1 false), !dbg !1139
  br i1 %24, label %panic1, label %bb23, !dbg !1139

bb23:                                             ; preds = %bb17
  %_27 = urem i64 24, 8, !dbg !1139
  %_26 = icmp eq i64 %_27, 0, !dbg !1139
  %25 = zext i1 %_26 to i8, !dbg !1139
  store i8 %25, ptr %_22, align 1, !dbg !1139
  br label %bb18, !dbg !1139

panic1:                                           ; preds = %bb17
; call core::panicking::panic
  call void @_ZN4core9panicking5panic17hbe538fb8c244b3dfE(ptr align 1 @str.6, i64 57, ptr align 8 @alloc333) #10, !dbg !1139
  unreachable, !dbg !1139

bb18:                                             ; preds = %bb16, %bb23
  %26 = load i8, ptr %_22, align 1, !dbg !1139, !range !197, !noundef !24
  %27 = trunc i8 %26 to i1, !dbg !1139
  br i1 %27, label %bb24, label %bb31, !dbg !1139

bb31:                                             ; preds = %bb18
  %_46 = icmp uge i64 8, 1, !dbg !1140
  br i1 %_46, label %bb33, label %bb32, !dbg !1140

bb24:                                             ; preds = %bb18
  store ptr %x, ptr %self.dbg.spill.i18, align 8
  call void @llvm.dbg.declare(metadata ptr %self.dbg.spill.i18, metadata !1141, metadata !DIExpression()), !dbg !1148
  store ptr %x, ptr %x.dbg.spill3, align 8, !dbg !1139
  call void @llvm.dbg.declare(metadata ptr %x.dbg.spill3, metadata !1088, metadata !DIExpression()), !dbg !1150
  store ptr %y, ptr %self.dbg.spill.i17, align 8
  call void @llvm.dbg.declare(metadata ptr %self.dbg.spill.i17, metadata !1141, metadata !DIExpression()), !dbg !1151
  store ptr %y, ptr %y.dbg.spill5, align 8, !dbg !1150
  call void @llvm.dbg.declare(metadata ptr %y.dbg.spill5, metadata !1090, metadata !DIExpression()), !dbg !1153
  %_40 = icmp eq i64 8, 0, !dbg !1153
  %28 = call i1 @llvm.expect.i1(i1 %_40, i1 false), !dbg !1153
  br i1 %28, label %panic6, label %bb29, !dbg !1153

bb29:                                             ; preds = %bb24
  %_37 = udiv i64 24, 8, !dbg !1153
  %29 = call { i64, i1 } @llvm.umul.with.overflow.i64(i64 %count, i64 %_37), !dbg !1153
  %_41.0 = extractvalue { i64, i1 } %29, 0, !dbg !1153
  %_41.1 = extractvalue { i64, i1 } %29, 1, !dbg !1153
  %30 = call i1 @llvm.expect.i1(i1 %_41.1, i1 false), !dbg !1153
  br i1 %30, label %panic7, label %bb30, !dbg !1153

panic6:                                           ; preds = %bb24
; call core::panicking::panic
  call void @_ZN4core9panicking5panic17hbe538fb8c244b3dfE(ptr align 1 @str.3, i64 25, ptr align 8 @alloc333) #10, !dbg !1153
  unreachable, !dbg !1153

bb30:                                             ; preds = %bb29
  store i64 %_41.0, ptr %count.dbg.spill8, align 8, !dbg !1153
  call void @llvm.dbg.declare(metadata ptr %count.dbg.spill8, metadata !1092, metadata !DIExpression()), !dbg !1154
; call core::ptr::swap_nonoverlapping_simple_untyped
  call void @_ZN4core3ptr34swap_nonoverlapping_simple_untyped17ha860dd91c12b85d9E(ptr %x, ptr %y, i64 %_41.0) #9, !dbg !1154
  br label %bb48, !dbg !1154

panic7:                                           ; preds = %bb29
; call core::panicking::panic
  call void @_ZN4core9panicking5panic17hbe538fb8c244b3dfE(ptr align 1 @str.5, i64 33, ptr align 8 @alloc333) #10, !dbg !1153
  unreachable, !dbg !1153

bb48:                                             ; preds = %bb47, %bb46, %bb30
  ret void, !dbg !1155

bb32:                                             ; preds = %bb31
  store i8 0, ptr %_45, align 1, !dbg !1140
  br label %bb34, !dbg !1140

bb33:                                             ; preds = %bb31
  %_53 = icmp eq i64 1, 0, !dbg !1140
  %31 = call i1 @llvm.expect.i1(i1 %_53, i1 false), !dbg !1140
  br i1 %31, label %panic9, label %bb39, !dbg !1140

bb39:                                             ; preds = %bb33
  %_50 = urem i64 24, 1, !dbg !1140
  %_49 = icmp eq i64 %_50, 0, !dbg !1140
  %32 = zext i1 %_49 to i8, !dbg !1140
  store i8 %32, ptr %_45, align 1, !dbg !1140
  br label %bb34, !dbg !1140

panic9:                                           ; preds = %bb33
; call core::panicking::panic
  call void @_ZN4core9panicking5panic17hbe538fb8c244b3dfE(ptr align 1 @str.6, i64 57, ptr align 8 @alloc335) #10, !dbg !1140
  unreachable, !dbg !1140

bb34:                                             ; preds = %bb32, %bb39
  %33 = load i8, ptr %_45, align 1, !dbg !1140, !range !197, !noundef !24
  %34 = trunc i8 %33 to i1, !dbg !1140
  br i1 %34, label %bb40, label %bb47, !dbg !1140

bb40:                                             ; preds = %bb34
  store ptr %x, ptr %self.dbg.spill.i20, align 8
  call void @llvm.dbg.declare(metadata ptr %self.dbg.spill.i20, metadata !1156, metadata !DIExpression()), !dbg !1163
  store ptr %x, ptr %x.dbg.spill11, align 8, !dbg !1140
  call void @llvm.dbg.declare(metadata ptr %x.dbg.spill11, metadata !1094, metadata !DIExpression()), !dbg !1165
  store ptr %y, ptr %self.dbg.spill.i19, align 8
  call void @llvm.dbg.declare(metadata ptr %self.dbg.spill.i19, metadata !1156, metadata !DIExpression()), !dbg !1166
  store ptr %y, ptr %y.dbg.spill13, align 8, !dbg !1165
  call void @llvm.dbg.declare(metadata ptr %y.dbg.spill13, metadata !1097, metadata !DIExpression()), !dbg !1168
  %_63 = icmp eq i64 1, 0, !dbg !1168
  %35 = call i1 @llvm.expect.i1(i1 %_63, i1 false), !dbg !1168
  br i1 %35, label %panic14, label %bb45, !dbg !1168

bb45:                                             ; preds = %bb40
  %_60 = udiv i64 24, 1, !dbg !1168
  %36 = call { i64, i1 } @llvm.umul.with.overflow.i64(i64 %count, i64 %_60), !dbg !1168
  %_64.0 = extractvalue { i64, i1 } %36, 0, !dbg !1168
  %_64.1 = extractvalue { i64, i1 } %36, 1, !dbg !1168
  %37 = call i1 @llvm.expect.i1(i1 %_64.1, i1 false), !dbg !1168
  br i1 %37, label %panic15, label %bb46, !dbg !1168

panic14:                                          ; preds = %bb40
; call core::panicking::panic
  call void @_ZN4core9panicking5panic17hbe538fb8c244b3dfE(ptr align 1 @str.3, i64 25, ptr align 8 @alloc335) #10, !dbg !1168
  unreachable, !dbg !1168

bb46:                                             ; preds = %bb45
  store i64 %_64.0, ptr %count.dbg.spill16, align 8, !dbg !1168
  call void @llvm.dbg.declare(metadata ptr %count.dbg.spill16, metadata !1099, metadata !DIExpression()), !dbg !1169
; call core::ptr::swap_nonoverlapping_simple_untyped
  call void @_ZN4core3ptr34swap_nonoverlapping_simple_untyped17h27742db194a23e45E(ptr %x, ptr %y, i64 %_64.0) #9, !dbg !1169
  br label %bb48, !dbg !1169

panic15:                                          ; preds = %bb45
; call core::panicking::panic
  call void @_ZN4core9panicking5panic17hbe538fb8c244b3dfE(ptr align 1 @str.5, i64 33, ptr align 8 @alloc335) #10, !dbg !1168
  unreachable, !dbg !1168
}

; core::ptr::slice_from_raw_parts
; Function Attrs: inlinehint nounwind
define { ptr, i64 } @_ZN4core3ptr20slice_from_raw_parts17h7c226f047a56f6e1E(ptr %data, i64 %len) unnamed_addr #0 !dbg !1170 {
start:
  %self.dbg.spill.i = alloca ptr, align 8
  %len.dbg.spill = alloca i64, align 8
  %data.dbg.spill = alloca ptr, align 8
  store ptr %data, ptr %data.dbg.spill, align 8
  call void @llvm.dbg.declare(metadata ptr %data.dbg.spill, metadata !1174, metadata !DIExpression()), !dbg !1176
  store i64 %len, ptr %len.dbg.spill, align 8
  call void @llvm.dbg.declare(metadata ptr %len.dbg.spill, metadata !1175, metadata !DIExpression()), !dbg !1177
  store ptr %data, ptr %self.dbg.spill.i, align 8
  call void @llvm.dbg.declare(metadata ptr %self.dbg.spill.i, metadata !1178, metadata !DIExpression()), !dbg !1185
; call core::ptr::metadata::from_raw_parts
  %0 = call { ptr, i64 } @_ZN4core3ptr8metadata14from_raw_parts17h8a297b215105e1daE(ptr %data, i64 %len) #9, !dbg !1187
  %1 = extractvalue { ptr, i64 } %0, 0, !dbg !1187
  %2 = extractvalue { ptr, i64 } %0, 1, !dbg !1187
  %3 = insertvalue { ptr, i64 } undef, ptr %1, 0, !dbg !1188
  %4 = insertvalue { ptr, i64 } %3, i64 %2, 1, !dbg !1188
  ret { ptr, i64 } %4, !dbg !1188
}

; core::ptr::slice_from_raw_parts_mut
; Function Attrs: inlinehint nounwind
define { ptr, i64 } @_ZN4core3ptr24slice_from_raw_parts_mut17h1dda79c878ed0e4cE(ptr %data, i64 %len) unnamed_addr #0 !dbg !1189 {
start:
  %self.dbg.spill.i = alloca ptr, align 8
  %len.dbg.spill = alloca i64, align 8
  %data.dbg.spill = alloca ptr, align 8
  store ptr %data, ptr %data.dbg.spill, align 8
  call void @llvm.dbg.declare(metadata ptr %data.dbg.spill, metadata !1193, metadata !DIExpression()), !dbg !1195
  store i64 %len, ptr %len.dbg.spill, align 8
  call void @llvm.dbg.declare(metadata ptr %len.dbg.spill, metadata !1194, metadata !DIExpression()), !dbg !1196
  store ptr %data, ptr %self.dbg.spill.i, align 8
  call void @llvm.dbg.declare(metadata ptr %self.dbg.spill.i, metadata !1197, metadata !DIExpression()), !dbg !1203
; call core::ptr::metadata::from_raw_parts_mut
  %0 = call { ptr, i64 } @_ZN4core3ptr8metadata18from_raw_parts_mut17h18078e084df49860E(ptr %data, i64 %len) #9, !dbg !1205
  %1 = extractvalue { ptr, i64 } %0, 0, !dbg !1205
  %2 = extractvalue { ptr, i64 } %0, 1, !dbg !1205
  %3 = insertvalue { ptr, i64 } undef, ptr %1, 0, !dbg !1206
  %4 = insertvalue { ptr, i64 } %3, i64 %2, 1, !dbg !1206
  ret { ptr, i64 } %4, !dbg !1206
}

; core::ptr::drop_in_place<&u8>
; Function Attrs: inlinehint nounwind
define internal void @"_ZN4core3ptr27drop_in_place$LT$$RF$u8$GT$17h74c48886f9ebbf75E"(ptr %_1) unnamed_addr #0 !dbg !1207 {
start:
  %_1.dbg.spill = alloca ptr, align 8
  store ptr %_1, ptr %_1.dbg.spill, align 8
  call void @llvm.dbg.declare(metadata ptr %_1.dbg.spill, metadata !1212, metadata !DIExpression()), !dbg !1215
  ret void, !dbg !1215
}

; core::ptr::drop_in_place<&u32>
; Function Attrs: inlinehint nounwind
define internal void @"_ZN4core3ptr28drop_in_place$LT$$RF$u32$GT$17hf42615f1433062f0E"(ptr %_1) unnamed_addr #0 !dbg !1216 {
start:
  %_1.dbg.spill = alloca ptr, align 8
  store ptr %_1, ptr %_1.dbg.spill, align 8
  call void @llvm.dbg.declare(metadata ptr %_1.dbg.spill, metadata !1221, metadata !DIExpression()), !dbg !1224
  ret void, !dbg !1224
}

; core::ptr::drop_in_place<&u64>
; Function Attrs: inlinehint nounwind
define internal void @"_ZN4core3ptr28drop_in_place$LT$$RF$u64$GT$17h30040fe9f766753dE"(ptr %_1) unnamed_addr #0 !dbg !1225 {
start:
  %_1.dbg.spill = alloca ptr, align 8
  store ptr %_1, ptr %_1.dbg.spill, align 8
  call void @llvm.dbg.declare(metadata ptr %_1.dbg.spill, metadata !1230, metadata !DIExpression()), !dbg !1233
  ret void, !dbg !1233
}

; core::ptr::swap_nonoverlapping_simple_untyped
; Function Attrs: inlinehint nounwind
define void @_ZN4core3ptr34swap_nonoverlapping_simple_untyped17h8f55be4c0c6ab40eE(ptr %x, ptr %y, i64 %count) unnamed_addr #0 !dbg !1234 {
start:
  %0 = alloca ptr, align 8
  %count.dbg.spill.i13 = alloca i64, align 8
  %self.dbg.spill.i14 = alloca ptr, align 8
  %1 = alloca ptr, align 8
  %count.dbg.spill.i11 = alloca i64, align 8
  %self.dbg.spill.i12 = alloca ptr, align 8
  %self.dbg.spill.i10 = alloca ptr, align 8
  %self.dbg.spill.i9 = alloca ptr, align 8
  %count.dbg.spill.i7 = alloca i64, align 8
  %self.dbg.spill.i8 = alloca ptr, align 8
  %count.dbg.spill.i = alloca i64, align 8
  %self.dbg.spill.i = alloca ptr, align 8
  %y.dbg.spill6 = alloca ptr, align 8
  %x.dbg.spill5 = alloca ptr, align 8
  %y.dbg.spill4 = alloca ptr, align 8
  %x.dbg.spill2 = alloca ptr, align 8
  %count.dbg.spill = alloca i64, align 8
  %y.dbg.spill = alloca ptr, align 8
  %x.dbg.spill = alloca ptr, align 8
  %i = alloca i64, align 8
  store ptr %x, ptr %x.dbg.spill, align 8
  call void @llvm.dbg.declare(metadata ptr %x.dbg.spill, metadata !1236, metadata !DIExpression()), !dbg !1250
  store ptr %y, ptr %y.dbg.spill, align 8
  call void @llvm.dbg.declare(metadata ptr %y.dbg.spill, metadata !1237, metadata !DIExpression()), !dbg !1251
  store i64 %count, ptr %count.dbg.spill, align 8
  call void @llvm.dbg.declare(metadata ptr %count.dbg.spill, metadata !1238, metadata !DIExpression()), !dbg !1252
  call void @llvm.dbg.declare(metadata ptr %i, metadata !1244, metadata !DIExpression()), !dbg !1253
  store ptr %x, ptr %self.dbg.spill.i10, align 8
  call void @llvm.dbg.declare(metadata ptr %self.dbg.spill.i10, metadata !1254, metadata !DIExpression()), !dbg !1261
  store ptr %x, ptr %x.dbg.spill2, align 8, !dbg !1263
  call void @llvm.dbg.declare(metadata ptr %x.dbg.spill2, metadata !1239, metadata !DIExpression()), !dbg !1264
  store ptr %y, ptr %self.dbg.spill.i9, align 8
  call void @llvm.dbg.declare(metadata ptr %self.dbg.spill.i9, metadata !1254, metadata !DIExpression()), !dbg !1265
  store ptr %y, ptr %y.dbg.spill4, align 8, !dbg !1267
  call void @llvm.dbg.declare(metadata ptr %y.dbg.spill4, metadata !1242, metadata !DIExpression()), !dbg !1268
  store i64 0, ptr %i, align 8, !dbg !1269
  br label %bb3, !dbg !1270

bb3:                                              ; preds = %bb8, %start
  %_10 = load i64, ptr %i, align 8, !dbg !1271
  %_9 = icmp ult i64 %_10, %count, !dbg !1271
  br i1 %_9, label %bb4, label %bb9, !dbg !1271

bb9:                                              ; preds = %bb3
  ret void, !dbg !1272

bb4:                                              ; preds = %bb3
  %_16 = load i64, ptr %i, align 8, !dbg !1273
  store ptr %x, ptr %self.dbg.spill.i8, align 8
  call void @llvm.dbg.declare(metadata ptr %self.dbg.spill.i8, metadata !1274, metadata !DIExpression()), !dbg !1280
  store i64 %_16, ptr %count.dbg.spill.i7, align 8
  call void @llvm.dbg.declare(metadata ptr %count.dbg.spill.i7, metadata !1279, metadata !DIExpression()), !dbg !1282
  store ptr %x, ptr %self.dbg.spill.i12, align 8
  call void @llvm.dbg.declare(metadata ptr %self.dbg.spill.i12, metadata !1283, metadata !DIExpression()), !dbg !1289
  store i64 %_16, ptr %count.dbg.spill.i11, align 8
  call void @llvm.dbg.declare(metadata ptr %count.dbg.spill.i11, metadata !1288, metadata !DIExpression()), !dbg !1291
  %2 = getelementptr inbounds %"core::mem::maybe_uninit::MaybeUninit<bootinfo::memory_map::MemoryRegion>", ptr %x, i64 %_16, !dbg !1292
  store ptr %2, ptr %1, align 8, !dbg !1292
  %_3.i = load ptr, ptr %1, align 8, !dbg !1292
  store ptr %_3.i, ptr %x.dbg.spill5, align 8, !dbg !1293
  call void @llvm.dbg.declare(metadata ptr %x.dbg.spill5, metadata !1246, metadata !DIExpression()), !dbg !1294
  %_21 = load i64, ptr %i, align 8, !dbg !1295
  store ptr %y, ptr %self.dbg.spill.i, align 8
  call void @llvm.dbg.declare(metadata ptr %self.dbg.spill.i, metadata !1274, metadata !DIExpression()), !dbg !1296
  store i64 %_21, ptr %count.dbg.spill.i, align 8
  call void @llvm.dbg.declare(metadata ptr %count.dbg.spill.i, metadata !1279, metadata !DIExpression()), !dbg !1298
  store ptr %y, ptr %self.dbg.spill.i14, align 8
  call void @llvm.dbg.declare(metadata ptr %self.dbg.spill.i14, metadata !1283, metadata !DIExpression()), !dbg !1299
  store i64 %_21, ptr %count.dbg.spill.i13, align 8
  call void @llvm.dbg.declare(metadata ptr %count.dbg.spill.i13, metadata !1288, metadata !DIExpression()), !dbg !1301
  %3 = getelementptr inbounds %"core::mem::maybe_uninit::MaybeUninit<bootinfo::memory_map::MemoryRegion>", ptr %y, i64 %_21, !dbg !1302
  store ptr %3, ptr %0, align 8, !dbg !1302
  %_3.i15 = load ptr, ptr %0, align 8, !dbg !1302
  store ptr %_3.i15, ptr %y.dbg.spill6, align 8, !dbg !1303
  call void @llvm.dbg.declare(metadata ptr %y.dbg.spill6, metadata !1248, metadata !DIExpression()), !dbg !1304
; call core::mem::swap_simple
  call void @_ZN4core3mem11swap_simple17h3ba34396ece90482E(ptr align 8 %_3.i, ptr align 8 %_3.i15) #9, !dbg !1305
  %4 = load i64, ptr %i, align 8, !dbg !1306
  %5 = call { i64, i1 } @llvm.uadd.with.overflow.i64(i64 %4, i64 1), !dbg !1306
  %_25.0 = extractvalue { i64, i1 } %5, 0, !dbg !1306
  %_25.1 = extractvalue { i64, i1 } %5, 1, !dbg !1306
  %6 = call i1 @llvm.expect.i1(i1 %_25.1, i1 false), !dbg !1306
  br i1 %6, label %panic, label %bb8, !dbg !1306

bb8:                                              ; preds = %bb4
  store i64 %_25.0, ptr %i, align 8, !dbg !1306
  br label %bb3, !dbg !1270

panic:                                            ; preds = %bb4
; call core::panicking::panic
  call void @_ZN4core9panicking5panic17hbe538fb8c244b3dfE(ptr align 1 @str.2, i64 28, ptr align 8 @alloc338) #10, !dbg !1306
  unreachable, !dbg !1306
}

; core::ptr::read
; Function Attrs: inlinehint nounwind
define void @_ZN4core3ptr4read17ha95782224e06da53E(ptr sret(%"bootinfo::memory_map::MemoryRegion") %0, ptr %src) unnamed_addr #0 !dbg !1307 {
start:
  %src.dbg.spill.i = alloca ptr, align 8
  %_3.i = alloca %"core::mem::manually_drop::ManuallyDrop<bootinfo::memory_map::MemoryRegion>", align 8
  %self.dbg.spill.i = alloca ptr, align 8
  %src.dbg.spill = alloca ptr, align 8
  %_9 = alloca %"core::mem::maybe_uninit::MaybeUninit<bootinfo::memory_map::MemoryRegion>", align 8
  %_4 = alloca ptr, align 8
  %tmp = alloca %"core::mem::maybe_uninit::MaybeUninit<bootinfo::memory_map::MemoryRegion>", align 8
  store ptr %src, ptr %src.dbg.spill, align 8
  call void @llvm.dbg.declare(metadata ptr %src.dbg.spill, metadata !1311, metadata !DIExpression()), !dbg !1314
  call void @llvm.dbg.declare(metadata ptr %tmp, metadata !1312, metadata !DIExpression()), !dbg !1315
  store ptr %src, ptr %_4, align 8, !dbg !1316
  %1 = load ptr, ptr %_4, align 8, !dbg !1316
  store ptr %1, ptr %src.dbg.spill.i, align 8
  call void @llvm.dbg.declare(metadata ptr %src.dbg.spill.i, metadata !1317, metadata !DIExpression()), !dbg !1323
; call core::intrinsics::is_aligned_and_not_null
  %_3.i1 = call zeroext i1 @_ZN4core10intrinsics23is_aligned_and_not_null17h191fc7491f4eaf64E(ptr %1) #9, !dbg !1325
  %_2.i = xor i1 %_3.i1, true, !dbg !1327
  br i1 %_2.i, label %bb2.i, label %_ZN4core3ptr4read7runtime17h1cb7899a0c5bbe71E.exit, !dbg !1327

bb2.i:                                            ; preds = %start
; call core::panicking::panic_nounwind
  call void @_ZN4core9panicking14panic_nounwind17h3015023400b7dcd0E(ptr align 1 @alloc342, i64 101) #10, !dbg !1328
  unreachable, !dbg !1328

_ZN4core3ptr4read7runtime17h1cb7899a0c5bbe71E.exit: ; preds = %start
  store ptr %tmp, ptr %self.dbg.spill.i, align 8
  call void @llvm.dbg.declare(metadata ptr %self.dbg.spill.i, metadata !1329, metadata !DIExpression()), !dbg !1335
  call void @llvm.memcpy.p0.p0.i64(ptr align 8 %tmp, ptr align 8 %src, i64 24, i1 false), !dbg !1337
  call void @llvm.memcpy.p0.p0.i64(ptr align 8 %_9, ptr align 8 %tmp, i64 24, i1 false), !dbg !1338
  call void @llvm.dbg.declare(metadata ptr %_9, metadata !1339, metadata !DIExpression()), !dbg !1344
  call void @llvm.memcpy.p0.p0.i64(ptr align 8 %_3.i, ptr align 8 %_9, i64 24, i1 false), !dbg !1346
  call void @llvm.dbg.declare(metadata ptr %_3.i, metadata !1347, metadata !DIExpression()), !dbg !1352
  call void @llvm.memcpy.p0.p0.i64(ptr align 8 %0, ptr align 8 %_3.i, i64 24, i1 false), !dbg !1354
  ret void, !dbg !1355
}

; core::ptr::read
; Function Attrs: inlinehint nounwind
define void @_ZN4core3ptr4read17hcdb9e853ce1a09c9E(ptr sret(%"core::mem::maybe_uninit::MaybeUninit<bootinfo::memory_map::MemoryRegion>") %0, ptr %src) unnamed_addr #0 !dbg !1356 {
start:
  %src.dbg.spill.i = alloca ptr, align 8
  %_3.i = alloca %"core::mem::manually_drop::ManuallyDrop<core::mem::maybe_uninit::MaybeUninit<bootinfo::memory_map::MemoryRegion>>", align 8
  %self.dbg.spill.i = alloca ptr, align 8
  %src.dbg.spill = alloca ptr, align 8
  %_9 = alloca %"core::mem::maybe_uninit::MaybeUninit<core::mem::maybe_uninit::MaybeUninit<bootinfo::memory_map::MemoryRegion>>", align 8
  %_4 = alloca ptr, align 8
  %tmp = alloca %"core::mem::maybe_uninit::MaybeUninit<core::mem::maybe_uninit::MaybeUninit<bootinfo::memory_map::MemoryRegion>>", align 8
  store ptr %src, ptr %src.dbg.spill, align 8
  call void @llvm.dbg.declare(metadata ptr %src.dbg.spill, metadata !1360, metadata !DIExpression()), !dbg !1370
  call void @llvm.dbg.declare(metadata ptr %tmp, metadata !1361, metadata !DIExpression()), !dbg !1371
  store ptr %src, ptr %_4, align 8, !dbg !1372
  %1 = load ptr, ptr %_4, align 8, !dbg !1372
  store ptr %1, ptr %src.dbg.spill.i, align 8
  call void @llvm.dbg.declare(metadata ptr %src.dbg.spill.i, metadata !1373, metadata !DIExpression()), !dbg !1378
; call core::intrinsics::is_aligned_and_not_null
  %_3.i1 = call zeroext i1 @_ZN4core10intrinsics23is_aligned_and_not_null17h3ae8b15e74e9fc8bE(ptr %1) #9, !dbg !1380
  %_2.i = xor i1 %_3.i1, true, !dbg !1382
  br i1 %_2.i, label %bb2.i, label %_ZN4core3ptr4read7runtime17h6f41538425a84fc5E.exit, !dbg !1382

bb2.i:                                            ; preds = %start
; call core::panicking::panic_nounwind
  call void @_ZN4core9panicking14panic_nounwind17h3015023400b7dcd0E(ptr align 1 @alloc342, i64 101) #10, !dbg !1383
  unreachable, !dbg !1383

_ZN4core3ptr4read7runtime17h6f41538425a84fc5E.exit: ; preds = %start
  store ptr %tmp, ptr %self.dbg.spill.i, align 8
  call void @llvm.dbg.declare(metadata ptr %self.dbg.spill.i, metadata !1384, metadata !DIExpression()), !dbg !1390
  call void @llvm.memcpy.p0.p0.i64(ptr align 8 %tmp, ptr align 8 %src, i64 24, i1 false), !dbg !1392
  call void @llvm.memcpy.p0.p0.i64(ptr align 8 %_9, ptr align 8 %tmp, i64 24, i1 false), !dbg !1393
  call void @llvm.dbg.declare(metadata ptr %_9, metadata !1394, metadata !DIExpression()), !dbg !1399
  call void @llvm.memcpy.p0.p0.i64(ptr align 8 %_3.i, ptr align 8 %_9, i64 24, i1 false), !dbg !1401
  call void @llvm.dbg.declare(metadata ptr %_3.i, metadata !1402, metadata !DIExpression()), !dbg !1407
  call void @llvm.memcpy.p0.p0.i64(ptr align 8 %0, ptr align 8 %_3.i, i64 24, i1 false), !dbg !1409
  ret void, !dbg !1410
}

; core::ptr::swap
; Function Attrs: inlinehint nounwind
define void @_ZN4core3ptr4swap17h97a35c5be2edf197E(ptr %x, ptr %y) unnamed_addr #0 !dbg !1411 {
start:
  %0 = alloca i64, align 8
  %self.dbg.spill.i1 = alloca ptr, align 8
  %self.dbg.spill.i = alloca ptr, align 8
  %y.dbg.spill = alloca ptr, align 8
  %x.dbg.spill = alloca ptr, align 8
  %tmp = alloca i64, align 8
  store ptr %x, ptr %x.dbg.spill, align 8
  call void @llvm.dbg.declare(metadata ptr %x.dbg.spill, metadata !1415, metadata !DIExpression()), !dbg !1426
  store ptr %y, ptr %y.dbg.spill, align 8
  call void @llvm.dbg.declare(metadata ptr %y.dbg.spill, metadata !1416, metadata !DIExpression()), !dbg !1427
  call void @llvm.dbg.declare(metadata ptr %tmp, metadata !1417, metadata !DIExpression()), !dbg !1428
  %1 = load i64, ptr %0, align 8, !dbg !1429
  store i64 %1, ptr %tmp, align 8, !dbg !1434
  store ptr %tmp, ptr %self.dbg.spill.i, align 8
  call void @llvm.dbg.declare(metadata ptr %self.dbg.spill.i, metadata !1435, metadata !DIExpression()), !dbg !1441
; call core::intrinsics::copy_nonoverlapping
  call void @_ZN4core10intrinsics19copy_nonoverlapping17hbf460b23e3b7f8e7E(ptr %x, ptr %tmp, i64 1) #9, !dbg !1443
; call core::intrinsics::copy
  call void @_ZN4core10intrinsics4copy17ha94ac2453a8a0b73E(ptr %y, ptr %x, i64 1) #9, !dbg !1444
  store ptr %tmp, ptr %self.dbg.spill.i1, align 8
  call void @llvm.dbg.declare(metadata ptr %self.dbg.spill.i1, metadata !1445, metadata !DIExpression()), !dbg !1451
; call core::intrinsics::copy_nonoverlapping
  call void @_ZN4core10intrinsics19copy_nonoverlapping17hbf460b23e3b7f8e7E(ptr %tmp, ptr %y, i64 1) #9, !dbg !1453
  ret void, !dbg !1454
}

; core::ptr::swap
; Function Attrs: inlinehint nounwind
define void @_ZN4core3ptr4swap17hebe35c3e69f80720E(ptr %x, ptr %y) unnamed_addr #0 !dbg !1455 {
start:
  %self.dbg.spill.i1 = alloca ptr, align 8
  %self.dbg.spill.i = alloca ptr, align 8
  %y.dbg.spill = alloca ptr, align 8
  %x.dbg.spill = alloca ptr, align 8
  %tmp = alloca %"core::mem::maybe_uninit::MaybeUninit<bootinfo::memory_map::MemoryRegion>", align 8
  store ptr %x, ptr %x.dbg.spill, align 8
  call void @llvm.dbg.declare(metadata ptr %x.dbg.spill, metadata !1459, metadata !DIExpression()), !dbg !1463
  store ptr %y, ptr %y.dbg.spill, align 8
  call void @llvm.dbg.declare(metadata ptr %y.dbg.spill, metadata !1460, metadata !DIExpression()), !dbg !1464
  call void @llvm.dbg.declare(metadata ptr %tmp, metadata !1461, metadata !DIExpression()), !dbg !1465
  store ptr %tmp, ptr %self.dbg.spill.i, align 8
  call void @llvm.dbg.declare(metadata ptr %self.dbg.spill.i, metadata !1329, metadata !DIExpression()), !dbg !1466
; call core::intrinsics::copy_nonoverlapping
  call void @_ZN4core10intrinsics19copy_nonoverlapping17h5b68f14a857bbe6aE(ptr %x, ptr %tmp, i64 1) #9, !dbg !1468
; call core::intrinsics::copy
  call void @_ZN4core10intrinsics4copy17h2367f2f1a6a57e90E(ptr %y, ptr %x, i64 1) #9, !dbg !1469
  store ptr %tmp, ptr %self.dbg.spill.i1, align 8
  call void @llvm.dbg.declare(metadata ptr %self.dbg.spill.i1, metadata !1470, metadata !DIExpression()), !dbg !1476
; call core::intrinsics::copy_nonoverlapping
  call void @_ZN4core10intrinsics19copy_nonoverlapping17h5b68f14a857bbe6aE(ptr %tmp, ptr %y, i64 1) #9, !dbg !1478
  ret void, !dbg !1479
}

; core::ptr::drop_in_place<&bootloader::bootinfo::TlsTemplate>
; Function Attrs: inlinehint nounwind
define internal void @"_ZN4core3ptr58drop_in_place$LT$$RF$bootloader..bootinfo..TlsTemplate$GT$17h19140ab0c201addaE"(ptr %_1) unnamed_addr #0 !dbg !1480 {
start:
  %_1.dbg.spill = alloca ptr, align 8
  store ptr %_1, ptr %_1.dbg.spill, align 8
  call void @llvm.dbg.declare(metadata ptr %_1.dbg.spill, metadata !1485, metadata !DIExpression()), !dbg !1488
  ret void, !dbg !1488
}

; core::ptr::write
; Function Attrs: inlinehint nounwind
define void @_ZN4core3ptr5write17h0be64d935f02ff10E(ptr %dst, ptr %src) unnamed_addr #0 !dbg !1489 {
start:
  %dst.dbg.spill.i = alloca ptr, align 8
  %dst.dbg.spill = alloca ptr, align 8
  %_4 = alloca ptr, align 8
  store ptr %dst, ptr %dst.dbg.spill, align 8
  call void @llvm.dbg.declare(metadata ptr %dst.dbg.spill, metadata !1493, metadata !DIExpression()), !dbg !1495
  call void @llvm.dbg.declare(metadata ptr %src, metadata !1494, metadata !DIExpression()), !dbg !1496
  store ptr %dst, ptr %_4, align 8, !dbg !1497
  %0 = load ptr, ptr %_4, align 8, !dbg !1497
  store ptr %0, ptr %dst.dbg.spill.i, align 8
  call void @llvm.dbg.declare(metadata ptr %dst.dbg.spill.i, metadata !1498, metadata !DIExpression()), !dbg !1504
; call core::intrinsics::is_aligned_and_not_null
  %_3.i = call zeroext i1 @_ZN4core10intrinsics23is_aligned_and_not_null17h191fc7491f4eaf64E(ptr %0) #9, !dbg !1506
  %_2.i = xor i1 %_3.i, true, !dbg !1508
  br i1 %_2.i, label %bb2.i, label %_ZN4core3ptr5write7runtime17h9d14bfc1c7a11dcdE.exit, !dbg !1508

bb2.i:                                            ; preds = %start
; call core::panicking::panic_nounwind
  call void @_ZN4core9panicking14panic_nounwind17h3015023400b7dcd0E(ptr align 1 @alloc344, i64 102) #10, !dbg !1509
  unreachable, !dbg !1509

_ZN4core3ptr5write7runtime17h9d14bfc1c7a11dcdE.exit: ; preds = %start
  call void @llvm.memcpy.p0.p0.i64(ptr align 8 %dst, ptr align 8 %src, i64 24, i1 false), !dbg !1510
  ret void, !dbg !1511
}

; core::ptr::write
; Function Attrs: inlinehint nounwind
define void @_ZN4core3ptr5write17h12e73ac29a98b4a1E(ptr %dst, ptr %src) unnamed_addr #0 !dbg !1512 {
start:
  %dst.dbg.spill.i = alloca ptr, align 8
  %dst.dbg.spill = alloca ptr, align 8
  %_4 = alloca ptr, align 8
  store ptr %dst, ptr %dst.dbg.spill, align 8
  call void @llvm.dbg.declare(metadata ptr %dst.dbg.spill, metadata !1516, metadata !DIExpression()), !dbg !1518
  call void @llvm.dbg.declare(metadata ptr %src, metadata !1517, metadata !DIExpression()), !dbg !1519
  store ptr %dst, ptr %_4, align 8, !dbg !1520
  %0 = load ptr, ptr %_4, align 8, !dbg !1520
  store ptr %0, ptr %dst.dbg.spill.i, align 8
  call void @llvm.dbg.declare(metadata ptr %dst.dbg.spill.i, metadata !1521, metadata !DIExpression()), !dbg !1526
; call core::intrinsics::is_aligned_and_not_null
  %_3.i = call zeroext i1 @_ZN4core10intrinsics23is_aligned_and_not_null17h3ae8b15e74e9fc8bE(ptr %0) #9, !dbg !1528
  %_2.i = xor i1 %_3.i, true, !dbg !1530
  br i1 %_2.i, label %bb2.i, label %_ZN4core3ptr5write7runtime17h2e3699f519b06b14E.exit, !dbg !1530

bb2.i:                                            ; preds = %start
; call core::panicking::panic_nounwind
  call void @_ZN4core9panicking14panic_nounwind17h3015023400b7dcd0E(ptr align 1 @alloc344, i64 102) #10, !dbg !1531
  unreachable, !dbg !1531

_ZN4core3ptr5write7runtime17h2e3699f519b06b14E.exit: ; preds = %start
  call void @llvm.memcpy.p0.p0.i64(ptr align 8 %dst, ptr align 8 %src, i64 24, i1 false), !dbg !1532
  ret void, !dbg !1533
}

; core::ptr::drop_in_place<&bootloader::bootinfo::memory_map::MemoryMap>
; Function Attrs: inlinehint nounwind
define internal void @"_ZN4core3ptr68drop_in_place$LT$$RF$bootloader..bootinfo..memory_map..MemoryMap$GT$17hd1a70ca77dc2b21fE"(ptr %_1) unnamed_addr #0 !dbg !1534 {
start:
  %_1.dbg.spill = alloca ptr, align 8
  store ptr %_1, ptr %_1.dbg.spill, align 8
  call void @llvm.dbg.declare(metadata ptr %_1.dbg.spill, metadata !1539, metadata !DIExpression()), !dbg !1542
  ret void, !dbg !1542
}

; core::ptr::drop_in_place<&bootloader::bootinfo::memory_map::FrameRange>
; Function Attrs: inlinehint nounwind
define internal void @"_ZN4core3ptr69drop_in_place$LT$$RF$bootloader..bootinfo..memory_map..FrameRange$GT$17h3a6f7e4a71429a14E"(ptr %_1) unnamed_addr #0 !dbg !1543 {
start:
  %_1.dbg.spill = alloca ptr, align 8
  store ptr %_1, ptr %_1.dbg.spill, align 8
  call void @llvm.dbg.declare(metadata ptr %_1.dbg.spill, metadata !1548, metadata !DIExpression()), !dbg !1551
  ret void, !dbg !1551
}

; core::ptr::drop_in_place<&bootloader::bootinfo::memory_map::MemoryRegion>
; Function Attrs: inlinehint nounwind
define internal void @"_ZN4core3ptr71drop_in_place$LT$$RF$bootloader..bootinfo..memory_map..MemoryRegion$GT$17hacb7dc5c538a1e3fE"(ptr %_1) unnamed_addr #0 !dbg !1552 {
start:
  %_1.dbg.spill = alloca ptr, align 8
  store ptr %_1, ptr %_1.dbg.spill, align 8
  call void @llvm.dbg.declare(metadata ptr %_1.dbg.spill, metadata !1557, metadata !DIExpression()), !dbg !1558
  ret void, !dbg !1558
}

; core::ptr::drop_in_place<&bootloader::bootinfo::memory_map::MemoryRegionType>
; Function Attrs: inlinehint nounwind
define internal void @"_ZN4core3ptr75drop_in_place$LT$$RF$bootloader..bootinfo..memory_map..MemoryRegionType$GT$17h8394beee1d64ef07E"(ptr %_1) unnamed_addr #0 !dbg !1559 {
start:
  %_1.dbg.spill = alloca ptr, align 8
  store ptr %_1, ptr %_1.dbg.spill, align 8
  call void @llvm.dbg.declare(metadata ptr %_1.dbg.spill, metadata !1564, metadata !DIExpression()), !dbg !1567
  ret void, !dbg !1567
}

; core::ptr::mut_ptr::<impl *mut T>::is_null::runtime_impl
; Function Attrs: inlinehint nounwind
define internal zeroext i1 @"_ZN4core3ptr7mut_ptr31_$LT$impl$u20$$BP$mut$u20$T$GT$7is_null12runtime_impl17hf00f56d98bb53a96E"(ptr %ptr) unnamed_addr #0 !dbg !1568 {
start:
  %0 = alloca i64, align 8
  %self.dbg.spill.i = alloca ptr, align 8
  %ptr.dbg.spill = alloca ptr, align 8
  store ptr %ptr, ptr %ptr.dbg.spill, align 8
  call void @llvm.dbg.declare(metadata ptr %ptr.dbg.spill, metadata !1573, metadata !DIExpression()), !dbg !1574
  store ptr %ptr, ptr %self.dbg.spill.i, align 8
  call void @llvm.dbg.declare(metadata ptr %self.dbg.spill.i, metadata !1575, metadata !DIExpression()), !dbg !1582
  store ptr %ptr, ptr %0, align 8, !dbg !1584
  %1 = load i64, ptr %0, align 8, !dbg !1584
  %2 = icmp eq i64 %1, 0, !dbg !1585
  ret i1 %2, !dbg !1586
}

; core::ptr::mut_ptr::<impl *mut T>::is_null
; Function Attrs: inlinehint nounwind
define zeroext i1 @"_ZN4core3ptr7mut_ptr31_$LT$impl$u20$$BP$mut$u20$T$GT$7is_null17hd4deb5829ae92cd6E"(ptr %self) unnamed_addr #0 !dbg !1587 {
start:
  %self.dbg.spill = alloca ptr, align 8
  %_2 = alloca ptr, align 8
  store ptr %self, ptr %self.dbg.spill, align 8
  call void @llvm.dbg.declare(metadata ptr %self.dbg.spill, metadata !1591, metadata !DIExpression()), !dbg !1592
  store ptr %self, ptr %_2, align 8, !dbg !1593
  %0 = load ptr, ptr %_2, align 8, !dbg !1594
; call core::ptr::mut_ptr::<impl *mut T>::is_null::runtime_impl
  %1 = call zeroext i1 @"_ZN4core3ptr7mut_ptr31_$LT$impl$u20$$BP$mut$u20$T$GT$7is_null12runtime_impl17hf00f56d98bb53a96E"(ptr %0) #9, !dbg !1594
  ret i1 %1, !dbg !1595
}

; core::ptr::metadata::from_raw_parts
; Function Attrs: inlinehint nounwind
define ptr @_ZN4core3ptr8metadata14from_raw_parts17h593fa9bb566176deE(ptr %data_address) unnamed_addr #0 !dbg !1596 {
start:
  %metadata.dbg.spill = alloca {}, align 1
  %data_address.dbg.spill = alloca ptr, align 8
  %_4 = alloca %"core::ptr::metadata::PtrComponents<bootinfo::memory_map::MemoryRegion>", align 8
  %_3 = alloca %"core::ptr::metadata::PtrRepr<bootinfo::memory_map::MemoryRegion>", align 8
  store ptr %data_address, ptr %data_address.dbg.spill, align 8
  call void @llvm.dbg.declare(metadata ptr %data_address.dbg.spill, metadata !1602, metadata !DIExpression()), !dbg !1604
  call void @llvm.dbg.declare(metadata ptr %metadata.dbg.spill, metadata !1603, metadata !DIExpression()), !dbg !1605
  store ptr %data_address, ptr %_4, align 8, !dbg !1606
  %0 = getelementptr inbounds %"core::ptr::metadata::PtrComponents<bootinfo::memory_map::MemoryRegion>", ptr %_4, i32 0, i32 1, !dbg !1606
  call void @llvm.memcpy.p0.p0.i64(ptr align 8 %_3, ptr align 8 %_4, i64 8, i1 false), !dbg !1607
  %1 = load ptr, ptr %_3, align 8, !dbg !1607
  ret ptr %1, !dbg !1608
}

; core::ptr::metadata::from_raw_parts
; Function Attrs: inlinehint nounwind
define { ptr, i64 } @_ZN4core3ptr8metadata14from_raw_parts17h8a297b215105e1daE(ptr %data_address, i64 %metadata) unnamed_addr #0 !dbg !1609 {
start:
  %metadata.dbg.spill = alloca i64, align 8
  %data_address.dbg.spill = alloca ptr, align 8
  %_4 = alloca { ptr, i64 }, align 8
  %_3 = alloca %"core::ptr::metadata::PtrRepr<[bootinfo::memory_map::MemoryRegion]>", align 8
  store ptr %data_address, ptr %data_address.dbg.spill, align 8
  call void @llvm.dbg.declare(metadata ptr %data_address.dbg.spill, metadata !1613, metadata !DIExpression()), !dbg !1615
  store i64 %metadata, ptr %metadata.dbg.spill, align 8
  call void @llvm.dbg.declare(metadata ptr %metadata.dbg.spill, metadata !1614, metadata !DIExpression()), !dbg !1616
  store ptr %data_address, ptr %_4, align 8, !dbg !1617
  %0 = getelementptr inbounds { ptr, i64 }, ptr %_4, i32 0, i32 1, !dbg !1617
  store i64 %metadata, ptr %0, align 8, !dbg !1617
  %1 = getelementptr inbounds { ptr, i64 }, ptr %_4, i32 0, i32 0, !dbg !1618
  %2 = load ptr, ptr %1, align 8, !dbg !1618
  %3 = getelementptr inbounds { ptr, i64 }, ptr %_4, i32 0, i32 1, !dbg !1618
  %4 = load i64, ptr %3, align 8, !dbg !1618
  %5 = getelementptr inbounds { ptr, i64 }, ptr %_3, i32 0, i32 0, !dbg !1618
  store ptr %2, ptr %5, align 8, !dbg !1618
  %6 = getelementptr inbounds { ptr, i64 }, ptr %_3, i32 0, i32 1, !dbg !1618
  store i64 %4, ptr %6, align 8, !dbg !1618
  %7 = getelementptr inbounds { ptr, i64 }, ptr %_3, i32 0, i32 0, !dbg !1618
  %8 = load ptr, ptr %7, align 8, !dbg !1618
  %9 = getelementptr inbounds { ptr, i64 }, ptr %_3, i32 0, i32 1, !dbg !1618
  %10 = load i64, ptr %9, align 8, !dbg !1618
  %11 = insertvalue { ptr, i64 } undef, ptr %8, 0, !dbg !1619
  %12 = insertvalue { ptr, i64 } %11, i64 %10, 1, !dbg !1619
  ret { ptr, i64 } %12, !dbg !1619
}

; core::ptr::metadata::from_raw_parts_mut
; Function Attrs: inlinehint nounwind
define { ptr, i64 } @_ZN4core3ptr8metadata18from_raw_parts_mut17h18078e084df49860E(ptr %data_address, i64 %metadata) unnamed_addr #0 !dbg !1620 {
start:
  %metadata.dbg.spill = alloca i64, align 8
  %data_address.dbg.spill = alloca ptr, align 8
  %_4 = alloca { ptr, i64 }, align 8
  %_3 = alloca %"core::ptr::metadata::PtrRepr<[bootinfo::memory_map::MemoryRegion]>", align 8
  store ptr %data_address, ptr %data_address.dbg.spill, align 8
  call void @llvm.dbg.declare(metadata ptr %data_address.dbg.spill, metadata !1624, metadata !DIExpression()), !dbg !1626
  store i64 %metadata, ptr %metadata.dbg.spill, align 8
  call void @llvm.dbg.declare(metadata ptr %metadata.dbg.spill, metadata !1625, metadata !DIExpression()), !dbg !1627
  store ptr %data_address, ptr %_4, align 8, !dbg !1628
  %0 = getelementptr inbounds { ptr, i64 }, ptr %_4, i32 0, i32 1, !dbg !1628
  store i64 %metadata, ptr %0, align 8, !dbg !1628
  %1 = getelementptr inbounds { ptr, i64 }, ptr %_4, i32 0, i32 0, !dbg !1629
  %2 = load ptr, ptr %1, align 8, !dbg !1629
  %3 = getelementptr inbounds { ptr, i64 }, ptr %_4, i32 0, i32 1, !dbg !1629
  %4 = load i64, ptr %3, align 8, !dbg !1629
  %5 = getelementptr inbounds { ptr, i64 }, ptr %_3, i32 0, i32 0, !dbg !1629
  store ptr %2, ptr %5, align 8, !dbg !1629
  %6 = getelementptr inbounds { ptr, i64 }, ptr %_3, i32 0, i32 1, !dbg !1629
  store i64 %4, ptr %6, align 8, !dbg !1629
  %7 = getelementptr inbounds { ptr, i64 }, ptr %_3, i32 0, i32 0, !dbg !1629
  %8 = load ptr, ptr %7, align 8, !dbg !1629
  %9 = getelementptr inbounds { ptr, i64 }, ptr %_3, i32 0, i32 1, !dbg !1629
  %10 = load i64, ptr %9, align 8, !dbg !1629
  %11 = insertvalue { ptr, i64 } undef, ptr %8, 0, !dbg !1630
  %12 = insertvalue { ptr, i64 } %11, i64 %10, 1, !dbg !1630
  ret { ptr, i64 } %12, !dbg !1630
}

; core::ptr::metadata::metadata
; Function Attrs: inlinehint nounwind
define void @_ZN4core3ptr8metadata8metadata17h15971b78c0a1f5e4E(ptr %ptr) unnamed_addr #0 !dbg !1631 {
start:
  %ptr.dbg.spill = alloca ptr, align 8
  %_2 = alloca %"core::ptr::metadata::PtrRepr<bootinfo::memory_map::MemoryRegion>", align 8
  store ptr %ptr, ptr %ptr.dbg.spill, align 8
  call void @llvm.dbg.declare(metadata ptr %ptr.dbg.spill, metadata !1633, metadata !DIExpression()), !dbg !1634
  store ptr %ptr, ptr %_2, align 8, !dbg !1635
  ret void, !dbg !1636
}

; core::ptr::metadata::metadata
; Function Attrs: inlinehint nounwind
define i64 @_ZN4core3ptr8metadata8metadata17h5474da0b230ff847E(ptr %ptr.0, i64 %ptr.1) unnamed_addr #0 !dbg !1637 {
start:
  %ptr.dbg.spill = alloca { ptr, i64 }, align 8
  %_2 = alloca %"core::ptr::metadata::PtrRepr<[bootinfo::memory_map::MemoryRegion]>", align 8
  %0 = getelementptr inbounds { ptr, i64 }, ptr %ptr.dbg.spill, i32 0, i32 0
  store ptr %ptr.0, ptr %0, align 8
  %1 = getelementptr inbounds { ptr, i64 }, ptr %ptr.dbg.spill, i32 0, i32 1
  store i64 %ptr.1, ptr %1, align 8
  call void @llvm.dbg.declare(metadata ptr %ptr.dbg.spill, metadata !1641, metadata !DIExpression()), !dbg !1642
  %2 = getelementptr inbounds { ptr, i64 }, ptr %_2, i32 0, i32 0, !dbg !1643
  store ptr %ptr.0, ptr %2, align 8, !dbg !1643
  %3 = getelementptr inbounds { ptr, i64 }, ptr %_2, i32 0, i32 1, !dbg !1643
  store i64 %ptr.1, ptr %3, align 8, !dbg !1643
  %4 = getelementptr inbounds { ptr, i64 }, ptr %_2, i32 0, i32 1, !dbg !1643
  %5 = load i64, ptr %4, align 8, !dbg !1643
  ret i64 %5, !dbg !1644
}

; core::ptr::non_null::NonNull<T>::new_unchecked
; Function Attrs: inlinehint nounwind
define ptr @"_ZN4core3ptr8non_null16NonNull$LT$T$GT$13new_unchecked17h3ee90615051925c7E"(ptr %ptr) unnamed_addr #0 !dbg !1645 {
start:
  %ptr.dbg.spill.i = alloca ptr, align 8
  %ptr.dbg.spill = alloca ptr, align 8
  %_3 = alloca ptr, align 8
  %0 = alloca ptr, align 8
  store ptr %ptr, ptr %ptr.dbg.spill, align 8
  call void @llvm.dbg.declare(metadata ptr %ptr.dbg.spill, metadata !1650, metadata !DIExpression()), !dbg !1651
  store ptr %ptr, ptr %_3, align 8, !dbg !1652
  %1 = load ptr, ptr %_3, align 8, !dbg !1652
  store ptr %1, ptr %ptr.dbg.spill.i, align 8
  call void @llvm.dbg.declare(metadata ptr %ptr.dbg.spill.i, metadata !1653, metadata !DIExpression()), !dbg !1658
; call core::ptr::mut_ptr::<impl *mut T>::is_null
  %_4.i = call zeroext i1 @"_ZN4core3ptr7mut_ptr31_$LT$impl$u20$$BP$mut$u20$T$GT$7is_null17hd4deb5829ae92cd6E"(ptr %1) #9, !dbg !1660
  %_3.i = xor i1 %_4.i, true, !dbg !1662
  br i1 %_4.i, label %bb2.i, label %"_ZN4core3ptr8non_null16NonNull$LT$T$GT$13new_unchecked7runtime17h245c8076ab8ac616E.exit", !dbg !1663

bb2.i:                                            ; preds = %start
; call core::panicking::panic_nounwind
  call void @_ZN4core9panicking14panic_nounwind17h3015023400b7dcd0E(ptr align 1 @alloc345, i64 93) #10, !dbg !1664
  unreachable, !dbg !1664

"_ZN4core3ptr8non_null16NonNull$LT$T$GT$13new_unchecked7runtime17h245c8076ab8ac616E.exit": ; preds = %start
  store ptr %ptr, ptr %0, align 8, !dbg !1665
  %2 = load ptr, ptr %0, align 8, !dbg !1666, !nonnull !24, !noundef !24
  ret ptr %2, !dbg !1666
}

; core::ptr::const_ptr::<impl *const T>::is_aligned
; Function Attrs: inlinehint nounwind
define zeroext i1 @"_ZN4core3ptr9const_ptr33_$LT$impl$u20$$BP$const$u20$T$GT$10is_aligned17h964aaba6ed48161dE"(ptr %self) unnamed_addr #0 !dbg !1667 {
start:
  %self.dbg.spill = alloca ptr, align 8
  store ptr %self, ptr %self.dbg.spill, align 8
  call void @llvm.dbg.declare(metadata ptr %self.dbg.spill, metadata !1669, metadata !DIExpression()), !dbg !1670
; call core::ptr::const_ptr::<impl *const T>::is_aligned_to
  %0 = call zeroext i1 @"_ZN4core3ptr9const_ptr33_$LT$impl$u20$$BP$const$u20$T$GT$13is_aligned_to17h3ad5bb28cceaf429E"(ptr %self, i64 8) #9, !dbg !1671
  ret i1 %0, !dbg !1672
}

; core::ptr::const_ptr::<impl *const T>::is_aligned
; Function Attrs: inlinehint nounwind
define zeroext i1 @"_ZN4core3ptr9const_ptr33_$LT$impl$u20$$BP$const$u20$T$GT$10is_aligned17hce49a87df7da1578E"(ptr %self) unnamed_addr #0 !dbg !1673 {
start:
  %self.dbg.spill = alloca ptr, align 8
  store ptr %self, ptr %self.dbg.spill, align 8
  call void @llvm.dbg.declare(metadata ptr %self.dbg.spill, metadata !1675, metadata !DIExpression()), !dbg !1676
; call core::ptr::const_ptr::<impl *const T>::is_aligned_to
  %0 = call zeroext i1 @"_ZN4core3ptr9const_ptr33_$LT$impl$u20$$BP$const$u20$T$GT$13is_aligned_to17hca21b8c6578f4cb7E"(ptr %self, i64 8) #9, !dbg !1677
  ret i1 %0, !dbg !1678
}

; core::ptr::const_ptr::<impl *const T>::is_aligned_to::runtime_impl
; Function Attrs: inlinehint nounwind
define internal zeroext i1 @"_ZN4core3ptr9const_ptr33_$LT$impl$u20$$BP$const$u20$T$GT$13is_aligned_to12runtime_impl17h10928f879ca649e4E"(ptr %ptr, i64 %align) unnamed_addr #0 !dbg !1679 {
start:
  %0 = alloca i64, align 8
  %self.dbg.spill.i = alloca ptr, align 8
  %align.dbg.spill = alloca i64, align 8
  %ptr.dbg.spill = alloca ptr, align 8
  store ptr %ptr, ptr %ptr.dbg.spill, align 8
  call void @llvm.dbg.declare(metadata ptr %ptr.dbg.spill, metadata !1684, metadata !DIExpression()), !dbg !1686
  store i64 %align, ptr %align.dbg.spill, align 8
  call void @llvm.dbg.declare(metadata ptr %align.dbg.spill, metadata !1685, metadata !DIExpression()), !dbg !1687
  store ptr %ptr, ptr %self.dbg.spill.i, align 8
  call void @llvm.dbg.declare(metadata ptr %self.dbg.spill.i, metadata !1688, metadata !DIExpression()), !dbg !1694
  store ptr %ptr, ptr %0, align 8, !dbg !1696
  %1 = load i64, ptr %0, align 8, !dbg !1696
  %_8.0 = sub i64 %align, 1, !dbg !1697
  %_8.1 = icmp ult i64 %align, 1, !dbg !1697
  %2 = call i1 @llvm.expect.i1(i1 %_8.1, i1 false), !dbg !1697
  br i1 %2, label %panic, label %bb2, !dbg !1697

bb2:                                              ; preds = %start
  %_3 = and i64 %1, %_8.0, !dbg !1698
  %3 = icmp eq i64 %_3, 0, !dbg !1698
  ret i1 %3, !dbg !1699

panic:                                            ; preds = %start
; call core::panicking::panic
  call void @_ZN4core9panicking5panic17hbe538fb8c244b3dfE(ptr align 1 @str.0, i64 33, ptr align 8 @alloc347) #10, !dbg !1697
  unreachable, !dbg !1697
}

; core::ptr::const_ptr::<impl *const T>::is_aligned_to
; Function Attrs: inlinehint nounwind
define zeroext i1 @"_ZN4core3ptr9const_ptr33_$LT$impl$u20$$BP$const$u20$T$GT$13is_aligned_to17h3ad5bb28cceaf429E"(ptr %self, i64 %align) unnamed_addr #0 !dbg !1700 {
start:
  %self.dbg.spill.i1 = alloca ptr, align 8
  %0 = alloca i64, align 8
  %self.dbg.spill.i.i = alloca i64, align 8
  %self.dbg.spill.i = alloca i64, align 8
  %align.dbg.spill = alloca i64, align 8
  %self.dbg.spill = alloca ptr, align 8
  %_14 = alloca { ptr, i64 }, align 8
  %_7 = alloca %"core::fmt::Arguments<'_>", align 8
  store ptr %self, ptr %self.dbg.spill, align 8
  call void @llvm.dbg.declare(metadata ptr %self.dbg.spill, metadata !1704, metadata !DIExpression()), !dbg !1706
  store i64 %align, ptr %align.dbg.spill, align 8
  call void @llvm.dbg.declare(metadata ptr %align.dbg.spill, metadata !1705, metadata !DIExpression()), !dbg !1707
  store i64 %align, ptr %self.dbg.spill.i, align 8
  call void @llvm.dbg.declare(metadata ptr %self.dbg.spill.i, metadata !1120, metadata !DIExpression()), !dbg !1708
  store i64 %align, ptr %self.dbg.spill.i.i, align 8
  call void @llvm.dbg.declare(metadata ptr %self.dbg.spill.i.i, metadata !1125, metadata !DIExpression()), !dbg !1710
  %1 = call i64 @llvm.ctpop.i64(i64 %align), !dbg !1712
  store i64 %1, ptr %0, align 8, !dbg !1712
  %_2.i.i = load i64, ptr %0, align 8, !dbg !1712
  %2 = trunc i64 %_2.i.i to i32, !dbg !1712
  %3 = icmp eq i32 %2, 1, !dbg !1713
  %_3 = xor i1 %3, true, !dbg !1714
  br i1 %_3, label %bb2, label %bb4, !dbg !1714

bb4:                                              ; preds = %start
  store ptr %self, ptr %self.dbg.spill.i1, align 8
  call void @llvm.dbg.declare(metadata ptr %self.dbg.spill.i1, metadata !1178, metadata !DIExpression()), !dbg !1715
  store ptr %self, ptr %_14, align 8, !dbg !1717
  %4 = getelementptr inbounds { ptr, i64 }, ptr %_14, i32 0, i32 1, !dbg !1717
  store i64 %align, ptr %4, align 8, !dbg !1717
  %5 = load ptr, ptr %_14, align 8, !dbg !1718
  %6 = getelementptr inbounds { ptr, i64 }, ptr %_14, i32 0, i32 1, !dbg !1718
  %7 = load i64, ptr %6, align 8, !dbg !1718
; call core::ptr::const_ptr::<impl *const T>::is_aligned_to::runtime_impl
  %8 = call zeroext i1 @"_ZN4core3ptr9const_ptr33_$LT$impl$u20$$BP$const$u20$T$GT$13is_aligned_to12runtime_impl17h10928f879ca649e4E"(ptr %5, i64 %7) #9, !dbg !1718
  ret i1 %8, !dbg !1719

bb2:                                              ; preds = %start
; call core::fmt::Arguments::new_v1
  call void @_ZN4core3fmt9Arguments6new_v117he0ff5f68815cdf51E(ptr sret(%"core::fmt::Arguments<'_>") %_7, ptr align 8 @alloc92, i64 1, ptr align 8 @alloc94, i64 0) #9, !dbg !1720
; call core::panicking::panic_fmt
  call void @_ZN4core9panicking9panic_fmt17hfe64dbbc238629aeE(ptr %_7, ptr align 8 @alloc349) #10, !dbg !1720
  unreachable, !dbg !1720
}

; core::ptr::const_ptr::<impl *const T>::is_aligned_to
; Function Attrs: inlinehint nounwind
define zeroext i1 @"_ZN4core3ptr9const_ptr33_$LT$impl$u20$$BP$const$u20$T$GT$13is_aligned_to17hca21b8c6578f4cb7E"(ptr %self, i64 %align) unnamed_addr #0 !dbg !1721 {
start:
  %self.dbg.spill.i1 = alloca ptr, align 8
  %0 = alloca i64, align 8
  %self.dbg.spill.i.i = alloca i64, align 8
  %self.dbg.spill.i = alloca i64, align 8
  %align.dbg.spill = alloca i64, align 8
  %self.dbg.spill = alloca ptr, align 8
  %_14 = alloca { ptr, i64 }, align 8
  %_7 = alloca %"core::fmt::Arguments<'_>", align 8
  store ptr %self, ptr %self.dbg.spill, align 8
  call void @llvm.dbg.declare(metadata ptr %self.dbg.spill, metadata !1725, metadata !DIExpression()), !dbg !1727
  store i64 %align, ptr %align.dbg.spill, align 8
  call void @llvm.dbg.declare(metadata ptr %align.dbg.spill, metadata !1726, metadata !DIExpression()), !dbg !1728
  store i64 %align, ptr %self.dbg.spill.i, align 8
  call void @llvm.dbg.declare(metadata ptr %self.dbg.spill.i, metadata !1120, metadata !DIExpression()), !dbg !1729
  store i64 %align, ptr %self.dbg.spill.i.i, align 8
  call void @llvm.dbg.declare(metadata ptr %self.dbg.spill.i.i, metadata !1125, metadata !DIExpression()), !dbg !1731
  %1 = call i64 @llvm.ctpop.i64(i64 %align), !dbg !1733
  store i64 %1, ptr %0, align 8, !dbg !1733
  %_2.i.i = load i64, ptr %0, align 8, !dbg !1733
  %2 = trunc i64 %_2.i.i to i32, !dbg !1733
  %3 = icmp eq i32 %2, 1, !dbg !1734
  %_3 = xor i1 %3, true, !dbg !1735
  br i1 %_3, label %bb2, label %bb4, !dbg !1735

bb4:                                              ; preds = %start
  store ptr %self, ptr %self.dbg.spill.i1, align 8
  call void @llvm.dbg.declare(metadata ptr %self.dbg.spill.i1, metadata !1736, metadata !DIExpression()), !dbg !1742
  store ptr %self, ptr %_14, align 8, !dbg !1744
  %4 = getelementptr inbounds { ptr, i64 }, ptr %_14, i32 0, i32 1, !dbg !1744
  store i64 %align, ptr %4, align 8, !dbg !1744
  %5 = load ptr, ptr %_14, align 8, !dbg !1745
  %6 = getelementptr inbounds { ptr, i64 }, ptr %_14, i32 0, i32 1, !dbg !1745
  %7 = load i64, ptr %6, align 8, !dbg !1745
; call core::ptr::const_ptr::<impl *const T>::is_aligned_to::runtime_impl
  %8 = call zeroext i1 @"_ZN4core3ptr9const_ptr33_$LT$impl$u20$$BP$const$u20$T$GT$13is_aligned_to12runtime_impl17h10928f879ca649e4E"(ptr %5, i64 %7) #9, !dbg !1745
  ret i1 %8, !dbg !1746

bb2:                                              ; preds = %start
; call core::fmt::Arguments::new_v1
  call void @_ZN4core3fmt9Arguments6new_v117he0ff5f68815cdf51E(ptr sret(%"core::fmt::Arguments<'_>") %_7, ptr align 8 @alloc92, i64 1, ptr align 8 @alloc94, i64 0) #9, !dbg !1747
; call core::panicking::panic_fmt
  call void @_ZN4core9panicking9panic_fmt17hfe64dbbc238629aeE(ptr %_7, ptr align 8 @alloc349) #10, !dbg !1747
  unreachable, !dbg !1747
}

; core::ptr::const_ptr::<impl *const T>::with_metadata_of
; Function Attrs: inlinehint nounwind
define ptr @"_ZN4core3ptr9const_ptr33_$LT$impl$u20$$BP$const$u20$T$GT$16with_metadata_of17h1d48da229a0de13eE"(ptr %self, ptr %meta) unnamed_addr #0 !dbg !1748 {
start:
  %meta.dbg.spill = alloca ptr, align 8
  %self.dbg.spill = alloca ptr, align 8
  store ptr %self, ptr %self.dbg.spill, align 8
  call void @llvm.dbg.declare(metadata ptr %self.dbg.spill, metadata !1753, metadata !DIExpression()), !dbg !1757
  store ptr %meta, ptr %meta.dbg.spill, align 8
  call void @llvm.dbg.declare(metadata ptr %meta.dbg.spill, metadata !1754, metadata !DIExpression()), !dbg !1758
; call core::ptr::metadata::metadata
  call void @_ZN4core3ptr8metadata8metadata17h15971b78c0a1f5e4E(ptr %meta) #9, !dbg !1759
; call core::ptr::metadata::from_raw_parts
  %0 = call ptr @_ZN4core3ptr8metadata14from_raw_parts17h593fa9bb566176deE(ptr %self) #9, !dbg !1760
  ret ptr %0, !dbg !1761
}

; core::ptr::const_ptr::<impl *const T>::is_null::runtime_impl
; Function Attrs: inlinehint nounwind
define internal zeroext i1 @"_ZN4core3ptr9const_ptr33_$LT$impl$u20$$BP$const$u20$T$GT$7is_null12runtime_impl17hf75b3eb408bf6226E"(ptr %ptr) unnamed_addr #0 !dbg !1762 {
start:
  %0 = alloca i64, align 8
  %self.dbg.spill.i = alloca ptr, align 8
  %ptr.dbg.spill = alloca ptr, align 8
  store ptr %ptr, ptr %ptr.dbg.spill, align 8
  call void @llvm.dbg.declare(metadata ptr %ptr.dbg.spill, metadata !1767, metadata !DIExpression()), !dbg !1768
  store ptr %ptr, ptr %self.dbg.spill.i, align 8
  call void @llvm.dbg.declare(metadata ptr %self.dbg.spill.i, metadata !1769, metadata !DIExpression()), !dbg !1774
  store ptr %ptr, ptr %0, align 8, !dbg !1776
  %1 = load i64, ptr %0, align 8, !dbg !1776
  %2 = icmp eq i64 %1, 0, !dbg !1777
  ret i1 %2, !dbg !1778
}

; core::ptr::const_ptr::<impl *const T>::is_null
; Function Attrs: inlinehint nounwind
define zeroext i1 @"_ZN4core3ptr9const_ptr33_$LT$impl$u20$$BP$const$u20$T$GT$7is_null17h2043cc258b4e9802E"(ptr %self) unnamed_addr #0 !dbg !1779 {
start:
  %self.dbg.spill = alloca ptr, align 8
  %_2 = alloca ptr, align 8
  store ptr %self, ptr %self.dbg.spill, align 8
  call void @llvm.dbg.declare(metadata ptr %self.dbg.spill, metadata !1781, metadata !DIExpression()), !dbg !1782
  store ptr %self, ptr %_2, align 8, !dbg !1783
  %0 = load ptr, ptr %_2, align 8, !dbg !1784
; call core::ptr::const_ptr::<impl *const T>::is_null::runtime_impl
  %1 = call zeroext i1 @"_ZN4core3ptr9const_ptr33_$LT$impl$u20$$BP$const$u20$T$GT$7is_null12runtime_impl17hf75b3eb408bf6226E"(ptr %0) #9, !dbg !1784
  ret i1 %1, !dbg !1785
}

; core::ptr::const_ptr::<impl *const T>::is_null
; Function Attrs: inlinehint nounwind
define zeroext i1 @"_ZN4core3ptr9const_ptr33_$LT$impl$u20$$BP$const$u20$T$GT$7is_null17h961ad4093d64d15cE"(ptr %self) unnamed_addr #0 !dbg !1786 {
start:
  %self.dbg.spill = alloca ptr, align 8
  %_2 = alloca ptr, align 8
  store ptr %self, ptr %self.dbg.spill, align 8
  call void @llvm.dbg.declare(metadata ptr %self.dbg.spill, metadata !1788, metadata !DIExpression()), !dbg !1789
  store ptr %self, ptr %_2, align 8, !dbg !1790
  %0 = load ptr, ptr %_2, align 8, !dbg !1791
; call core::ptr::const_ptr::<impl *const T>::is_null::runtime_impl
  %1 = call zeroext i1 @"_ZN4core3ptr9const_ptr33_$LT$impl$u20$$BP$const$u20$T$GT$7is_null12runtime_impl17hf75b3eb408bf6226E"(ptr %0) #9, !dbg !1791
  ret i1 %1, !dbg !1792
}

; core::ptr::const_ptr::<impl *const [T]>::len
; Function Attrs: inlinehint nounwind
define i64 @"_ZN4core3ptr9const_ptr43_$LT$impl$u20$$BP$const$u20$$u5b$T$u5d$$GT$3len17h03cda586708b467eE"(ptr %self.0, i64 %self.1) unnamed_addr #0 !dbg !1793 {
start:
  %self.dbg.spill = alloca { ptr, i64 }, align 8
  %0 = getelementptr inbounds { ptr, i64 }, ptr %self.dbg.spill, i32 0, i32 0
  store ptr %self.0, ptr %0, align 8
  %1 = getelementptr inbounds { ptr, i64 }, ptr %self.dbg.spill, i32 0, i32 1
  store i64 %self.1, ptr %1, align 8
  call void @llvm.dbg.declare(metadata ptr %self.dbg.spill, metadata !1796, metadata !DIExpression()), !dbg !1797
; call core::ptr::metadata::metadata
  %2 = call i64 @_ZN4core3ptr8metadata8metadata17h5474da0b230ff847E(ptr %self.0, i64 %self.1) #9, !dbg !1798
  ret i64 %2, !dbg !1799
}

; core::ptr::const_ptr::<impl *const [T]>::as_ptr
; Function Attrs: inlinehint nounwind
define ptr @"_ZN4core3ptr9const_ptr43_$LT$impl$u20$$BP$const$u20$$u5b$T$u5d$$GT$6as_ptr17h9882ca83784fb867E"(ptr %self.0, i64 %self.1) unnamed_addr #0 !dbg !1800 {
start:
  %self.dbg.spill = alloca { ptr, i64 }, align 8
  %0 = getelementptr inbounds { ptr, i64 }, ptr %self.dbg.spill, i32 0, i32 0
  store ptr %self.0, ptr %0, align 8
  %1 = getelementptr inbounds { ptr, i64 }, ptr %self.dbg.spill, i32 0, i32 1
  store i64 %self.1, ptr %1, align 8
  call void @llvm.dbg.declare(metadata ptr %self.dbg.spill, metadata !1804, metadata !DIExpression()), !dbg !1805
  ret ptr %self.0, !dbg !1806
}

; core::array::<impl core::ops::index::Index<I> for [T; N]>::index
; Function Attrs: inlinehint nounwind
define { ptr, i64 } @"_ZN4core5array85_$LT$impl$u20$core..ops..index..Index$LT$I$GT$$u20$for$u20$$u5b$T$u3b$$u20$N$u5d$$GT$5index17h9b4df8baf82846fcE"(ptr align 8 %self, i64 %index.0, i64 %index.1, ptr align 8 %0) unnamed_addr #0 !dbg !1807 {
start:
  %index.dbg.spill = alloca { i64, i64 }, align 8
  %self.dbg.spill = alloca ptr, align 8
  store ptr %self, ptr %self.dbg.spill, align 8
  call void @llvm.dbg.declare(metadata ptr %self.dbg.spill, metadata !1815, metadata !DIExpression()), !dbg !1819
  %1 = getelementptr inbounds { i64, i64 }, ptr %index.dbg.spill, i32 0, i32 0
  store i64 %index.0, ptr %1, align 8
  %2 = getelementptr inbounds { i64, i64 }, ptr %index.dbg.spill, i32 0, i32 1
  store i64 %index.1, ptr %2, align 8
  call void @llvm.dbg.declare(metadata ptr %index.dbg.spill, metadata !1816, metadata !DIExpression()), !dbg !1820
; call core::slice::index::<impl core::ops::index::Index<I> for [T]>::index
  %3 = call { ptr, i64 } @"_ZN4core5slice5index74_$LT$impl$u20$core..ops..index..Index$LT$I$GT$$u20$for$u20$$u5b$T$u5d$$GT$5index17h0292b465385ce1d2E"(ptr align 8 %self, i64 64, i64 %index.0, i64 %index.1, ptr align 8 %0) #9, !dbg !1821
  %4 = extractvalue { ptr, i64 } %3, 0, !dbg !1821
  %5 = extractvalue { ptr, i64 } %3, 1, !dbg !1821
  %6 = insertvalue { ptr, i64 } undef, ptr %4, 0, !dbg !1822
  %7 = insertvalue { ptr, i64 } %6, i64 %5, 1, !dbg !1822
  ret { ptr, i64 } %7, !dbg !1822
}

; core::array::<impl core::ops::index::IndexMut<I> for [T; N]>::index_mut
; Function Attrs: inlinehint nounwind
define { ptr, i64 } @"_ZN4core5array88_$LT$impl$u20$core..ops..index..IndexMut$LT$I$GT$$u20$for$u20$$u5b$T$u3b$$u20$N$u5d$$GT$9index_mut17h82be705d8fb6bddcE"(ptr align 8 %self, i64 %index.0, i64 %index.1, ptr align 8 %0) unnamed_addr #0 !dbg !1823 {
start:
  %index.dbg.spill = alloca { i64, i64 }, align 8
  %self.dbg.spill = alloca ptr, align 8
  store ptr %self, ptr %self.dbg.spill, align 8
  call void @llvm.dbg.declare(metadata ptr %self.dbg.spill, metadata !1829, metadata !DIExpression()), !dbg !1831
  %1 = getelementptr inbounds { i64, i64 }, ptr %index.dbg.spill, i32 0, i32 0
  store i64 %index.0, ptr %1, align 8
  %2 = getelementptr inbounds { i64, i64 }, ptr %index.dbg.spill, i32 0, i32 1
  store i64 %index.1, ptr %2, align 8
  call void @llvm.dbg.declare(metadata ptr %index.dbg.spill, metadata !1830, metadata !DIExpression()), !dbg !1832
; call core::slice::index::<impl core::ops::index::IndexMut<I> for [T]>::index_mut
  %3 = call { ptr, i64 } @"_ZN4core5slice5index77_$LT$impl$u20$core..ops..index..IndexMut$LT$I$GT$$u20$for$u20$$u5b$T$u5d$$GT$9index_mut17hf47f58bf0b24c6daE"(ptr align 8 %self, i64 64, i64 %index.0, i64 %index.1, ptr align 8 %0) #9, !dbg !1833
  %_4.0 = extractvalue { ptr, i64 } %3, 0, !dbg !1833
  %_4.1 = extractvalue { ptr, i64 } %3, 1, !dbg !1833
  %4 = insertvalue { ptr, i64 } undef, ptr %_4.0, 0, !dbg !1834
  %5 = insertvalue { ptr, i64 } %4, i64 %_4.1, 1, !dbg !1834
  ret { ptr, i64 } %5, !dbg !1834
}

; core::slice::<impl [T]>::split_at_mut
; Function Attrs: inlinehint nounwind
define void @"_ZN4core5slice29_$LT$impl$u20$$u5b$T$u5d$$GT$12split_at_mut17hb3055503da8b305eE"(ptr sret({ { ptr, i64 }, { ptr, i64 } }) %0, ptr align 8 %self.0, i64 %self.1, i64 %mid, ptr align 8 %1) unnamed_addr #0 !dbg !1835 {
start:
  %mid.dbg.spill = alloca i64, align 8
  %self.dbg.spill = alloca { ptr, i64 }, align 8
  %2 = getelementptr inbounds { ptr, i64 }, ptr %self.dbg.spill, i32 0, i32 0
  store ptr %self.0, ptr %2, align 8
  %3 = getelementptr inbounds { ptr, i64 }, ptr %self.dbg.spill, i32 0, i32 1
  store i64 %self.1, ptr %3, align 8
  call void @llvm.dbg.declare(metadata ptr %self.dbg.spill, metadata !1844, metadata !DIExpression()), !dbg !1846
  store i64 %mid, ptr %mid.dbg.spill, align 8
  call void @llvm.dbg.declare(metadata ptr %mid.dbg.spill, metadata !1845, metadata !DIExpression()), !dbg !1847
  %_4 = icmp ule i64 %mid, %self.1, !dbg !1848
  %_3 = xor i1 %_4, true, !dbg !1849
  br i1 %_3, label %bb1, label %bb2, !dbg !1849

bb2:                                              ; preds = %start
; call core::slice::<impl [T]>::split_at_mut_unchecked
  call void @"_ZN4core5slice29_$LT$impl$u20$$u5b$T$u5d$$GT$22split_at_mut_unchecked17hd2def1432b522bfdE"(ptr sret({ { ptr, i64 }, { ptr, i64 } }) %0, ptr align 8 %self.0, i64 %self.1, i64 %mid) #9, !dbg !1850
  ret void, !dbg !1851

bb1:                                              ; preds = %start
; call core::panicking::panic
  call void @_ZN4core9panicking5panic17hbe538fb8c244b3dfE(ptr align 1 @alloc350, i64 35, ptr align 8 %1) #10, !dbg !1849
  unreachable, !dbg !1849
}

; core::slice::<impl [T]>::get_unchecked
; Function Attrs: inlinehint nounwind
define align 8 ptr @"_ZN4core5slice29_$LT$impl$u20$$u5b$T$u5d$$GT$13get_unchecked17h1fcfd4382bb88a2bE"(ptr align 8 %self.0, i64 %self.1, i64 %index) unnamed_addr #0 !dbg !1852 {
start:
  %index.dbg.spill = alloca i64, align 8
  %self.dbg.spill = alloca { ptr, i64 }, align 8
  %0 = getelementptr inbounds { ptr, i64 }, ptr %self.dbg.spill, i32 0, i32 0
  store ptr %self.0, ptr %0, align 8
  %1 = getelementptr inbounds { ptr, i64 }, ptr %self.dbg.spill, i32 0, i32 1
  store i64 %self.1, ptr %1, align 8
  call void @llvm.dbg.declare(metadata ptr %self.dbg.spill, metadata !1856, metadata !DIExpression()), !dbg !1860
  store i64 %index, ptr %index.dbg.spill, align 8
  call void @llvm.dbg.declare(metadata ptr %index.dbg.spill, metadata !1857, metadata !DIExpression()), !dbg !1861
; call <usize as core::slice::index::SliceIndex<[T]>>::get_unchecked
  %_3 = call ptr @"_ZN75_$LT$usize$u20$as$u20$core..slice..index..SliceIndex$LT$$u5b$T$u5d$$GT$$GT$13get_unchecked17ha33f3ba1ce76c409E"(i64 %index, ptr %self.0, i64 %self.1) #9, !dbg !1862
  ret ptr %_3, !dbg !1863
}

; core::slice::<impl [T]>::as_mut_ptr_range
; Function Attrs: inlinehint nounwind
define { ptr, ptr } @"_ZN4core5slice29_$LT$impl$u20$$u5b$T$u5d$$GT$16as_mut_ptr_range17hade19065685374b6E"(ptr align 8 %self.0, i64 %self.1) unnamed_addr #0 !dbg !1864 {
start:
  %self.dbg.spill.i4 = alloca { ptr, i64 }, align 8
  %0 = alloca ptr, align 8
  %count.dbg.spill.i2 = alloca i64, align 8
  %self.dbg.spill.i3 = alloca ptr, align 8
  %count.dbg.spill.i = alloca i64, align 8
  %self.dbg.spill.i = alloca ptr, align 8
  %end.dbg.spill = alloca ptr, align 8
  %start.dbg.spill = alloca ptr, align 8
  %self.dbg.spill = alloca { ptr, i64 }, align 8
  %1 = alloca { ptr, ptr }, align 8
  %2 = getelementptr inbounds { ptr, i64 }, ptr %self.dbg.spill, i32 0, i32 0
  store ptr %self.0, ptr %2, align 8
  %3 = getelementptr inbounds { ptr, i64 }, ptr %self.dbg.spill, i32 0, i32 1
  store i64 %self.1, ptr %3, align 8
  call void @llvm.dbg.declare(metadata ptr %self.dbg.spill, metadata !1874, metadata !DIExpression()), !dbg !1879
  store ptr %self.0, ptr %self.dbg.spill.i4, align 8
  %4 = getelementptr inbounds { ptr, i64 }, ptr %self.dbg.spill.i4, i32 0, i32 1
  store i64 %self.1, ptr %4, align 8
  call void @llvm.dbg.declare(metadata ptr %self.dbg.spill.i4, metadata !1880, metadata !DIExpression()), !dbg !1885
  store ptr %self.0, ptr %start.dbg.spill, align 8, !dbg !1887
  call void @llvm.dbg.declare(metadata ptr %start.dbg.spill, metadata !1875, metadata !DIExpression()), !dbg !1888
  store ptr %self.0, ptr %self.dbg.spill.i, align 8
  call void @llvm.dbg.declare(metadata ptr %self.dbg.spill.i, metadata !278, metadata !DIExpression()), !dbg !1889
  store i64 %self.1, ptr %count.dbg.spill.i, align 8
  call void @llvm.dbg.declare(metadata ptr %count.dbg.spill.i, metadata !284, metadata !DIExpression()), !dbg !1891
  store ptr %self.0, ptr %self.dbg.spill.i3, align 8
  call void @llvm.dbg.declare(metadata ptr %self.dbg.spill.i3, metadata !288, metadata !DIExpression()), !dbg !1892
  store i64 %self.1, ptr %count.dbg.spill.i2, align 8
  call void @llvm.dbg.declare(metadata ptr %count.dbg.spill.i2, metadata !293, metadata !DIExpression()), !dbg !1894
  %5 = getelementptr inbounds %"bootinfo::memory_map::MemoryRegion", ptr %self.0, i64 %self.1, !dbg !1895
  store ptr %5, ptr %0, align 8, !dbg !1895
  %_3.i = load ptr, ptr %0, align 8, !dbg !1895
  store ptr %_3.i, ptr %end.dbg.spill, align 8, !dbg !1896
  call void @llvm.dbg.declare(metadata ptr %end.dbg.spill, metadata !1877, metadata !DIExpression()), !dbg !1897
  store ptr %self.0, ptr %1, align 8, !dbg !1898
  %6 = getelementptr inbounds { ptr, ptr }, ptr %1, i32 0, i32 1, !dbg !1898
  store ptr %_3.i, ptr %6, align 8, !dbg !1898
  %7 = getelementptr inbounds { ptr, ptr }, ptr %1, i32 0, i32 0, !dbg !1899
  %8 = load ptr, ptr %7, align 8, !dbg !1899
  %9 = getelementptr inbounds { ptr, ptr }, ptr %1, i32 0, i32 1, !dbg !1899
  %10 = load ptr, ptr %9, align 8, !dbg !1899
  %11 = insertvalue { ptr, ptr } undef, ptr %8, 0, !dbg !1899
  %12 = insertvalue { ptr, ptr } %11, ptr %10, 1, !dbg !1899
  ret { ptr, ptr } %12, !dbg !1899
}

; core::slice::<impl [T]>::sort_unstable_by
; Function Attrs: inlinehint nounwind
define void @"_ZN4core5slice29_$LT$impl$u20$$u5b$T$u5d$$GT$16sort_unstable_by17h02aaf4d3f834c14bE"(ptr align 8 %self.0, i64 %self.1) unnamed_addr #0 !dbg !1900 {
start:
  %self.dbg.spill = alloca { ptr, i64 }, align 8
  %_5 = alloca ptr, align 8
  %compare = alloca %"[closure@/Users/yaw/.cargo/registry/src/github.com-1ecc6299db9ec823/bootloader-0.9.23/src/bootinfo/memory_map.rs:40:39: 40:47]", align 1
  %0 = getelementptr inbounds { ptr, i64 }, ptr %self.dbg.spill, i32 0, i32 0
  store ptr %self.0, ptr %0, align 8
  %1 = getelementptr inbounds { ptr, i64 }, ptr %self.dbg.spill, i32 0, i32 1
  store i64 %self.1, ptr %1, align 8
  call void @llvm.dbg.declare(metadata ptr %self.dbg.spill, metadata !1904, metadata !DIExpression()), !dbg !1908
  call void @llvm.dbg.declare(metadata ptr %compare, metadata !1905, metadata !DIExpression()), !dbg !1909
  store ptr %compare, ptr %_5, align 8, !dbg !1910
  %2 = load ptr, ptr %_5, align 8, !dbg !1911, !nonnull !24, !align !1912, !noundef !24
; call core::slice::sort::quicksort
  call void @_ZN4core5slice4sort9quicksort17h6888c9a95251c62bE(ptr align 8 %self.0, i64 %self.1, ptr align 1 %2) #9, !dbg !1911
  ret void, !dbg !1913
}

; core::slice::<impl [T]>::sort_unstable_by::{{closure}}
; Function Attrs: inlinehint nounwind
define zeroext i1 @"_ZN4core5slice29_$LT$impl$u20$$u5b$T$u5d$$GT$16sort_unstable_by28_$u7b$$u7b$closure$u7d$$u7d$17hcc6221f5a07d47f0E"(ptr align 8 %_1, ptr align 8 %a, ptr align 8 %b) unnamed_addr #0 !dbg !1914 {
start:
  %b.dbg.spill = alloca ptr, align 8
  %a.dbg.spill = alloca ptr, align 8
  %_1.dbg.spill = alloca ptr, align 8
  %_7 = alloca { ptr, ptr }, align 8
  %_5 = alloca i8, align 1
  store ptr %_1, ptr %_1.dbg.spill, align 8
  call void @llvm.dbg.declare(metadata ptr %_1.dbg.spill, metadata !1920, metadata !DIExpression(DW_OP_deref, DW_OP_deref)), !dbg !1921
  store ptr %a, ptr %a.dbg.spill, align 8
  call void @llvm.dbg.declare(metadata ptr %a.dbg.spill, metadata !1918, metadata !DIExpression()), !dbg !1922
  store ptr %b, ptr %b.dbg.spill, align 8
  call void @llvm.dbg.declare(metadata ptr %b.dbg.spill, metadata !1919, metadata !DIExpression()), !dbg !1923
  %_12 = load ptr, ptr %_1, align 8, !dbg !1924, !nonnull !24, !align !1912, !noundef !24
  store ptr %a, ptr %_7, align 8, !dbg !1924
  %0 = getelementptr inbounds { ptr, ptr }, ptr %_7, i32 0, i32 1, !dbg !1924
  store ptr %b, ptr %0, align 8, !dbg !1924
  %1 = getelementptr inbounds { ptr, ptr }, ptr %_7, i32 0, i32 0, !dbg !1924
  %2 = load ptr, ptr %1, align 8, !dbg !1924, !nonnull !24, !align !459, !noundef !24
  %3 = getelementptr inbounds { ptr, ptr }, ptr %_7, i32 0, i32 1, !dbg !1924
  %4 = load ptr, ptr %3, align 8, !dbg !1924, !nonnull !24, !align !459, !noundef !24
; call bootloader::bootinfo::memory_map::MemoryMap::sort::{{closure}}
  %5 = call i8 @"_ZN10bootloader8bootinfo10memory_map9MemoryMap4sort28_$u7b$$u7b$closure$u7d$$u7d$17h6a691bcc2f19fd3bE"(ptr align 1 %_12, ptr align 8 %2, ptr align 8 %4) #9, !dbg !1924, !range !724
  store i8 %5, ptr %_5, align 1, !dbg !1924
; call <core::cmp::Ordering as core::cmp::PartialEq>::eq
  %6 = call zeroext i1 @"_ZN60_$LT$core..cmp..Ordering$u20$as$u20$core..cmp..PartialEq$GT$2eq17h4181cb9d190f4730E"(ptr align 1 %_5, ptr align 1 @alloc68) #9, !dbg !1924
  ret i1 %6, !dbg !1925
}

; core::slice::<impl [T]>::split_at_mut_unchecked
; Function Attrs: inlinehint nounwind
define void @"_ZN4core5slice29_$LT$impl$u20$$u5b$T$u5d$$GT$22split_at_mut_unchecked17hd2def1432b522bfdE"(ptr sret({ { ptr, i64 }, { ptr, i64 } }) %0, ptr align 8 %self.0, i64 %self.1, i64 %mid) unnamed_addr #0 !dbg !1926 {
start:
  %len.dbg.spill.i = alloca i64, align 8
  %mid.dbg.spill.i = alloca i64, align 8
  %self.dbg.spill.i3 = alloca { ptr, i64 }, align 8
  %1 = alloca ptr, align 8
  %count.dbg.spill.i1 = alloca i64, align 8
  %self.dbg.spill.i2 = alloca ptr, align 8
  %count.dbg.spill.i = alloca i64, align 8
  %self.dbg.spill.i = alloca ptr, align 8
  %ptr.dbg.spill = alloca ptr, align 8
  %len.dbg.spill = alloca i64, align 8
  %mid.dbg.spill = alloca i64, align 8
  %self.dbg.spill = alloca { ptr, i64 }, align 8
  %_8 = alloca { i64, i64 }, align 8
  %2 = getelementptr inbounds { ptr, i64 }, ptr %self.dbg.spill, i32 0, i32 0
  store ptr %self.0, ptr %2, align 8
  %3 = getelementptr inbounds { ptr, i64 }, ptr %self.dbg.spill, i32 0, i32 1
  store i64 %self.1, ptr %3, align 8
  call void @llvm.dbg.declare(metadata ptr %self.dbg.spill, metadata !1930, metadata !DIExpression()), !dbg !1936
  store i64 %mid, ptr %mid.dbg.spill, align 8
  call void @llvm.dbg.declare(metadata ptr %mid.dbg.spill, metadata !1931, metadata !DIExpression()), !dbg !1937
  store i64 %self.1, ptr %len.dbg.spill, align 8, !dbg !1938
  call void @llvm.dbg.declare(metadata ptr %len.dbg.spill, metadata !1932, metadata !DIExpression()), !dbg !1939
  store ptr %self.0, ptr %self.dbg.spill.i3, align 8
  %4 = getelementptr inbounds { ptr, i64 }, ptr %self.dbg.spill.i3, i32 0, i32 1
  store i64 %self.1, ptr %4, align 8
  call void @llvm.dbg.declare(metadata ptr %self.dbg.spill.i3, metadata !1880, metadata !DIExpression()), !dbg !1940
  store ptr %self.0, ptr %ptr.dbg.spill, align 8, !dbg !1942
  call void @llvm.dbg.declare(metadata ptr %ptr.dbg.spill, metadata !1934, metadata !DIExpression()), !dbg !1943
  store i64 %mid, ptr %_8, align 8, !dbg !1944
  %5 = getelementptr inbounds { i64, i64 }, ptr %_8, i32 0, i32 1, !dbg !1944
  store i64 %self.1, ptr %5, align 8, !dbg !1944
  %6 = load i64, ptr %_8, align 8, !dbg !1944
  %7 = getelementptr inbounds { i64, i64 }, ptr %_8, i32 0, i32 1, !dbg !1944
  %8 = load i64, ptr %7, align 8, !dbg !1944
  store i64 %6, ptr %mid.dbg.spill.i, align 8
  call void @llvm.dbg.declare(metadata ptr %mid.dbg.spill.i, metadata !1945, metadata !DIExpression()), !dbg !1952
  store i64 %8, ptr %len.dbg.spill.i, align 8
  call void @llvm.dbg.declare(metadata ptr %len.dbg.spill.i, metadata !1951, metadata !DIExpression()), !dbg !1952
  %_4.i = icmp ule i64 %6, %8, !dbg !1954
  %_3.i4 = xor i1 %_4.i, true, !dbg !1956
  br i1 %_3.i4, label %bb1.i, label %"_ZN4core5slice29_$LT$impl$u20$$u5b$T$u5d$$GT$22split_at_mut_unchecked7runtime17h5c4a45bb3300e950E.exit", !dbg !1956

bb1.i:                                            ; preds = %start
; call core::panicking::panic_nounwind
  call void @_ZN4core9panicking14panic_nounwind17h3015023400b7dcd0E(ptr align 1 @alloc353, i64 104) #10, !dbg !1957
  unreachable, !dbg !1957

"_ZN4core5slice29_$LT$impl$u20$$u5b$T$u5d$$GT$22split_at_mut_unchecked7runtime17h5c4a45bb3300e950E.exit": ; preds = %start
; call core::slice::raw::from_raw_parts_mut
  %9 = call { ptr, i64 } @_ZN4core5slice3raw18from_raw_parts_mut17h19a66dadbd8bae08E(ptr %self.0, i64 %mid) #9, !dbg !1958
  %_12.0 = extractvalue { ptr, i64 } %9, 0, !dbg !1958
  %_12.1 = extractvalue { ptr, i64 } %9, 1, !dbg !1958
  store ptr %self.0, ptr %self.dbg.spill.i, align 8
  call void @llvm.dbg.declare(metadata ptr %self.dbg.spill.i, metadata !278, metadata !DIExpression()), !dbg !1959
  store i64 %mid, ptr %count.dbg.spill.i, align 8
  call void @llvm.dbg.declare(metadata ptr %count.dbg.spill.i, metadata !284, metadata !DIExpression()), !dbg !1961
  store ptr %self.0, ptr %self.dbg.spill.i2, align 8
  call void @llvm.dbg.declare(metadata ptr %self.dbg.spill.i2, metadata !288, metadata !DIExpression()), !dbg !1962
  store i64 %mid, ptr %count.dbg.spill.i1, align 8
  call void @llvm.dbg.declare(metadata ptr %count.dbg.spill.i1, metadata !293, metadata !DIExpression()), !dbg !1964
  %10 = getelementptr inbounds %"bootinfo::memory_map::MemoryRegion", ptr %self.0, i64 %mid, !dbg !1965
  store ptr %10, ptr %1, align 8, !dbg !1965
  %_3.i = load ptr, ptr %1, align 8, !dbg !1965
  %_23.0 = sub i64 %self.1, %mid, !dbg !1966
  %_23.1 = icmp ult i64 %self.1, %mid, !dbg !1966
  %11 = call i1 @llvm.expect.i1(i1 %_23.1, i1 false), !dbg !1966
  br i1 %11, label %panic, label %bb5, !dbg !1966

bb5:                                              ; preds = %"_ZN4core5slice29_$LT$impl$u20$$u5b$T$u5d$$GT$22split_at_mut_unchecked7runtime17h5c4a45bb3300e950E.exit"
; call core::slice::raw::from_raw_parts_mut
  %12 = call { ptr, i64 } @_ZN4core5slice3raw18from_raw_parts_mut17h19a66dadbd8bae08E(ptr %_3.i, i64 %_23.0) #9, !dbg !1967
  %_16.0 = extractvalue { ptr, i64 } %12, 0, !dbg !1967
  %_16.1 = extractvalue { ptr, i64 } %12, 1, !dbg !1967
  %13 = getelementptr inbounds { ptr, i64 }, ptr %0, i32 0, i32 0, !dbg !1968
  store ptr %_12.0, ptr %13, align 8, !dbg !1968
  %14 = getelementptr inbounds { ptr, i64 }, ptr %0, i32 0, i32 1, !dbg !1968
  store i64 %_12.1, ptr %14, align 8, !dbg !1968
  %15 = getelementptr inbounds { { ptr, i64 }, { ptr, i64 } }, ptr %0, i32 0, i32 1, !dbg !1968
  %16 = getelementptr inbounds { ptr, i64 }, ptr %15, i32 0, i32 0, !dbg !1968
  store ptr %_16.0, ptr %16, align 8, !dbg !1968
  %17 = getelementptr inbounds { ptr, i64 }, ptr %15, i32 0, i32 1, !dbg !1968
  store i64 %_16.1, ptr %17, align 8, !dbg !1968
  ret void, !dbg !1969

panic:                                            ; preds = %"_ZN4core5slice29_$LT$impl$u20$$u5b$T$u5d$$GT$22split_at_mut_unchecked7runtime17h5c4a45bb3300e950E.exit"
; call core::panicking::panic
  call void @_ZN4core9panicking5panic17hbe538fb8c244b3dfE(ptr align 1 @str.0, i64 33, ptr align 8 @alloc352) #10, !dbg !1966
  unreachable, !dbg !1966
}

; core::slice::<impl [T]>::iter
; Function Attrs: inlinehint nounwind
define { ptr, ptr } @"_ZN4core5slice29_$LT$impl$u20$$u5b$T$u5d$$GT$4iter17h61f0675e03e23a53E"(ptr align 8 %self.0, i64 %self.1) unnamed_addr #0 !dbg !1970 {
start:
  %self.dbg.spill = alloca { ptr, i64 }, align 8
  %0 = getelementptr inbounds { ptr, i64 }, ptr %self.dbg.spill, i32 0, i32 0
  store ptr %self.0, ptr %0, align 8
  %1 = getelementptr inbounds { ptr, i64 }, ptr %self.dbg.spill, i32 0, i32 1
  store i64 %self.1, ptr %1, align 8
  call void @llvm.dbg.declare(metadata ptr %self.dbg.spill, metadata !1974, metadata !DIExpression()), !dbg !1975
; call core::slice::iter::Iter<T>::new
  %2 = call { ptr, ptr } @"_ZN4core5slice4iter13Iter$LT$T$GT$3new17he5b7c2273b298ae2E"(ptr align 8 %self.0, i64 %self.1) #9, !dbg !1976
  %3 = extractvalue { ptr, ptr } %2, 0, !dbg !1976
  %4 = extractvalue { ptr, ptr } %2, 1, !dbg !1976
  %5 = insertvalue { ptr, ptr } undef, ptr %3, 0, !dbg !1977
  %6 = insertvalue { ptr, ptr } %5, ptr %4, 1, !dbg !1977
  ret { ptr, ptr } %6, !dbg !1977
}

; core::slice::<impl [T]>::swap
; Function Attrs: inlinehint nounwind
define void @"_ZN4core5slice29_$LT$impl$u20$$u5b$T$u5d$$GT$4swap17hd90254a98feea549E"(ptr align 8 %self.0, i64 %self.1, i64 %a, i64 %b, ptr align 8 %0) unnamed_addr #0 !dbg !1978 {
start:
  %pb.dbg.spill = alloca ptr, align 8
  %pa.dbg.spill = alloca ptr, align 8
  %b.dbg.spill = alloca i64, align 8
  %a.dbg.spill = alloca i64, align 8
  %self.dbg.spill = alloca { ptr, i64 }, align 8
  %1 = getelementptr inbounds { ptr, i64 }, ptr %self.dbg.spill, i32 0, i32 0
  store ptr %self.0, ptr %1, align 8
  %2 = getelementptr inbounds { ptr, i64 }, ptr %self.dbg.spill, i32 0, i32 1
  store i64 %self.1, ptr %2, align 8
  call void @llvm.dbg.declare(metadata ptr %self.dbg.spill, metadata !1982, metadata !DIExpression()), !dbg !1989
  store i64 %a, ptr %a.dbg.spill, align 8
  call void @llvm.dbg.declare(metadata ptr %a.dbg.spill, metadata !1983, metadata !DIExpression()), !dbg !1990
  store i64 %b, ptr %b.dbg.spill, align 8
  call void @llvm.dbg.declare(metadata ptr %b.dbg.spill, metadata !1984, metadata !DIExpression()), !dbg !1991
  %_7 = icmp ult i64 %a, %self.1, !dbg !1992
  %3 = call i1 @llvm.expect.i1(i1 %_7, i1 true), !dbg !1992
  br i1 %3, label %bb1, label %panic, !dbg !1992

bb1:                                              ; preds = %start
  %pa = getelementptr inbounds [0 x %"bootinfo::memory_map::MemoryRegion"], ptr %self.0, i64 0, i64 %a, !dbg !1993
  store ptr %pa, ptr %pa.dbg.spill, align 8, !dbg !1993
  call void @llvm.dbg.declare(metadata ptr %pa.dbg.spill, metadata !1985, metadata !DIExpression()), !dbg !1994
  %_11 = icmp ult i64 %b, %self.1, !dbg !1995
  %4 = call i1 @llvm.expect.i1(i1 %_11, i1 true), !dbg !1995
  br i1 %4, label %bb2, label %panic1, !dbg !1995

panic:                                            ; preds = %start
; call core::panicking::panic_bounds_check
  call void @_ZN4core9panicking18panic_bounds_check17h592942248c7b8112E(i64 %a, i64 %self.1, ptr align 8 %0) #10, !dbg !1992
  unreachable, !dbg !1992

bb2:                                              ; preds = %bb1
  %pb = getelementptr inbounds [0 x %"bootinfo::memory_map::MemoryRegion"], ptr %self.0, i64 0, i64 %b, !dbg !1996
  store ptr %pb, ptr %pb.dbg.spill, align 8, !dbg !1996
  call void @llvm.dbg.declare(metadata ptr %pb.dbg.spill, metadata !1987, metadata !DIExpression()), !dbg !1997
; call core::ptr::swap
  call void @_ZN4core3ptr4swap17hebe35c3e69f80720E(ptr %pa, ptr %pb) #9, !dbg !1998
  ret void, !dbg !1999

panic1:                                           ; preds = %bb1
; call core::panicking::panic_bounds_check
  call void @_ZN4core9panicking18panic_bounds_check17h592942248c7b8112E(i64 %b, i64 %self.1, ptr align 8 %0) #10, !dbg !1995
  unreachable, !dbg !1995
}

; core::slice::<impl [T]>::reverse
; Function Attrs: inlinehint nounwind
define void @"_ZN4core5slice29_$LT$impl$u20$$u5b$T$u5d$$GT$7reverse17h59a33a22afb38c83E"(ptr align 8 %self.0, i64 %self.1) unnamed_addr #0 !dbg !2000 {
start:
  %0 = alloca ptr, align 8
  %count.dbg.spill.i1 = alloca i64, align 8
  %self.dbg.spill.i2 = alloca ptr, align 8
  %rhs.dbg.spill.i.i = alloca i64, align 8
  %self.dbg.spill.i1.i = alloca i64, align 8
  %self.dbg.spill.i.i = alloca i64, align 8
  %count.dbg.spill.i = alloca i64, align 8
  %self.dbg.spill.i = alloca ptr, align 8
  %back_half.dbg.spill = alloca { ptr, i64 }, align 8
  %front_half.dbg.spill = alloca { ptr, i64 }, align 8
  %end.dbg.spill = alloca ptr, align 8
  %start.dbg.spill = alloca ptr, align 8
  %half_len.dbg.spill = alloca i64, align 8
  %self.dbg.spill = alloca { ptr, i64 }, align 8
  %_11 = alloca { { ptr, i64 }, { ptr, i64 } }, align 8
  %1 = getelementptr inbounds { ptr, i64 }, ptr %self.dbg.spill, i32 0, i32 0
  store ptr %self.0, ptr %1, align 8
  %2 = getelementptr inbounds { ptr, i64 }, ptr %self.dbg.spill, i32 0, i32 1
  store i64 %self.1, ptr %2, align 8
  call void @llvm.dbg.declare(metadata ptr %self.dbg.spill, metadata !2004, metadata !DIExpression()), !dbg !2013
  %half_len = udiv i64 %self.1, 2, !dbg !2014
  store i64 %half_len, ptr %half_len.dbg.spill, align 8, !dbg !2014
  call void @llvm.dbg.declare(metadata ptr %half_len.dbg.spill, metadata !2005, metadata !DIExpression()), !dbg !2015
; call core::slice::<impl [T]>::as_mut_ptr_range
  %3 = call { ptr, ptr } @"_ZN4core5slice29_$LT$impl$u20$$u5b$T$u5d$$GT$16as_mut_ptr_range17hade19065685374b6E"(ptr align 8 %self.0, i64 %self.1) #9, !dbg !2016
  %_7.0 = extractvalue { ptr, ptr } %3, 0, !dbg !2016
  %_7.1 = extractvalue { ptr, ptr } %3, 1, !dbg !2016
  store ptr %_7.0, ptr %start.dbg.spill, align 8, !dbg !2017
  call void @llvm.dbg.declare(metadata ptr %start.dbg.spill, metadata !2007, metadata !DIExpression()), !dbg !2018
  store ptr %_7.1, ptr %end.dbg.spill, align 8, !dbg !2019
  call void @llvm.dbg.declare(metadata ptr %end.dbg.spill, metadata !2009, metadata !DIExpression()), !dbg !2020
; call core::slice::raw::from_raw_parts_mut
  %4 = call { ptr, i64 } @_ZN4core5slice3raw18from_raw_parts_mut17h19a66dadbd8bae08E(ptr %_7.0, i64 %half_len) #9, !dbg !2021
  %_12.0 = extractvalue { ptr, i64 } %4, 0, !dbg !2021
  %_12.1 = extractvalue { ptr, i64 } %4, 1, !dbg !2021
  store ptr %_7.1, ptr %self.dbg.spill.i, align 8
  call void @llvm.dbg.declare(metadata ptr %self.dbg.spill.i, metadata !2022, metadata !DIExpression()), !dbg !2026
  store i64 %half_len, ptr %count.dbg.spill.i, align 8
  call void @llvm.dbg.declare(metadata ptr %count.dbg.spill.i, metadata !2025, metadata !DIExpression()), !dbg !2028
  store i64 %half_len, ptr %self.dbg.spill.i.i, align 8
  call void @llvm.dbg.declare(metadata ptr %self.dbg.spill.i.i, metadata !2029, metadata !DIExpression()), !dbg !2036
  store i64 0, ptr %self.dbg.spill.i1.i, align 8
  call void @llvm.dbg.declare(metadata ptr %self.dbg.spill.i1.i, metadata !2038, metadata !DIExpression()), !dbg !2044
  store i64 %half_len, ptr %rhs.dbg.spill.i.i, align 8
  call void @llvm.dbg.declare(metadata ptr %rhs.dbg.spill.i.i, metadata !2043, metadata !DIExpression()), !dbg !2046
  %5 = sub i64 0, %half_len, !dbg !2047
  store ptr %_7.1, ptr %self.dbg.spill.i2, align 8
  call void @llvm.dbg.declare(metadata ptr %self.dbg.spill.i2, metadata !288, metadata !DIExpression()), !dbg !2048
  store i64 %5, ptr %count.dbg.spill.i1, align 8
  call void @llvm.dbg.declare(metadata ptr %count.dbg.spill.i1, metadata !293, metadata !DIExpression()), !dbg !2050
  %6 = getelementptr inbounds %"bootinfo::memory_map::MemoryRegion", ptr %_7.1, i64 %5, !dbg !2051
  store ptr %6, ptr %0, align 8, !dbg !2051
  %_3.i = load ptr, ptr %0, align 8, !dbg !2051
; call core::slice::raw::from_raw_parts_mut
  %7 = call { ptr, i64 } @_ZN4core5slice3raw18from_raw_parts_mut17h19a66dadbd8bae08E(ptr %_3.i, i64 %half_len) #9, !dbg !2052
  %_15.0 = extractvalue { ptr, i64 } %7, 0, !dbg !2052
  %_15.1 = extractvalue { ptr, i64 } %7, 1, !dbg !2052
  %8 = getelementptr inbounds { ptr, i64 }, ptr %_11, i32 0, i32 0, !dbg !2053
  store ptr %_12.0, ptr %8, align 8, !dbg !2053
  %9 = getelementptr inbounds { ptr, i64 }, ptr %_11, i32 0, i32 1, !dbg !2053
  store i64 %_12.1, ptr %9, align 8, !dbg !2053
  %10 = getelementptr inbounds { { ptr, i64 }, { ptr, i64 } }, ptr %_11, i32 0, i32 1, !dbg !2053
  %11 = getelementptr inbounds { ptr, i64 }, ptr %10, i32 0, i32 0, !dbg !2053
  store ptr %_15.0, ptr %11, align 8, !dbg !2053
  %12 = getelementptr inbounds { ptr, i64 }, ptr %10, i32 0, i32 1, !dbg !2053
  store i64 %_15.1, ptr %12, align 8, !dbg !2053
  %13 = getelementptr inbounds { ptr, i64 }, ptr %_11, i32 0, i32 0, !dbg !2054
  %front_half.0 = load ptr, ptr %13, align 8, !dbg !2054, !nonnull !24, !align !459, !noundef !24
  %14 = getelementptr inbounds { ptr, i64 }, ptr %_11, i32 0, i32 1, !dbg !2054
  %front_half.1 = load i64, ptr %14, align 8, !dbg !2054
  %15 = getelementptr inbounds { ptr, i64 }, ptr %front_half.dbg.spill, i32 0, i32 0, !dbg !2054
  store ptr %front_half.0, ptr %15, align 8, !dbg !2054
  %16 = getelementptr inbounds { ptr, i64 }, ptr %front_half.dbg.spill, i32 0, i32 1, !dbg !2054
  store i64 %front_half.1, ptr %16, align 8, !dbg !2054
  call void @llvm.dbg.declare(metadata ptr %front_half.dbg.spill, metadata !2010, metadata !DIExpression()), !dbg !2055
  %17 = getelementptr inbounds { { ptr, i64 }, { ptr, i64 } }, ptr %_11, i32 0, i32 1, !dbg !2056
  %18 = getelementptr inbounds { ptr, i64 }, ptr %17, i32 0, i32 0, !dbg !2056
  %back_half.0 = load ptr, ptr %18, align 8, !dbg !2056, !nonnull !24, !align !459, !noundef !24
  %19 = getelementptr inbounds { ptr, i64 }, ptr %17, i32 0, i32 1, !dbg !2056
  %back_half.1 = load i64, ptr %19, align 8, !dbg !2056
  %20 = getelementptr inbounds { ptr, i64 }, ptr %back_half.dbg.spill, i32 0, i32 0, !dbg !2056
  store ptr %back_half.0, ptr %20, align 8, !dbg !2056
  %21 = getelementptr inbounds { ptr, i64 }, ptr %back_half.dbg.spill, i32 0, i32 1, !dbg !2056
  store i64 %back_half.1, ptr %21, align 8, !dbg !2056
  call void @llvm.dbg.declare(metadata ptr %back_half.dbg.spill, metadata !2012, metadata !DIExpression()), !dbg !2057
; call core::slice::<impl [T]>::reverse::revswap
  call void @"_ZN4core5slice29_$LT$impl$u20$$u5b$T$u5d$$GT$7reverse7revswap17heeeca15fbc8287ffE"(ptr align 8 %front_half.0, i64 %front_half.1, ptr align 8 %back_half.0, i64 %back_half.1, i64 %half_len) #9, !dbg !2058
  ret void, !dbg !2059
}

; core::slice::<impl [T]>::reverse::revswap
; Function Attrs: inlinehint nounwind
define void @"_ZN4core5slice29_$LT$impl$u20$$u5b$T$u5d$$GT$7reverse7revswap17heeeca15fbc8287ffE"(ptr align 8 %a.0, i64 %a.1, ptr align 8 %b.0, i64 %b.1, i64 %n) unnamed_addr #0 !dbg !2060 {
start:
  %b.dbg.spill6 = alloca { ptr, i64 }, align 8
  %a.dbg.spill3 = alloca { ptr, i64 }, align 8
  %n.dbg.spill = alloca i64, align 8
  %b.dbg.spill = alloca { ptr, i64 }, align 8
  %a.dbg.spill = alloca { ptr, i64 }, align 8
  %i = alloca i64, align 8
  %_27 = alloca i64, align 8
  %_22 = alloca i64, align 8
  %_18 = alloca { { ptr, i64 }, { ptr, i64 } }, align 8
  %0 = getelementptr inbounds { ptr, i64 }, ptr %a.dbg.spill, i32 0, i32 0
  store ptr %a.0, ptr %0, align 8
  %1 = getelementptr inbounds { ptr, i64 }, ptr %a.dbg.spill, i32 0, i32 1
  store i64 %a.1, ptr %1, align 8
  call void @llvm.dbg.declare(metadata ptr %a.dbg.spill, metadata !2065, metadata !DIExpression()), !dbg !2073
  %2 = getelementptr inbounds { ptr, i64 }, ptr %b.dbg.spill, i32 0, i32 0
  store ptr %b.0, ptr %2, align 8
  %3 = getelementptr inbounds { ptr, i64 }, ptr %b.dbg.spill, i32 0, i32 1
  store i64 %b.1, ptr %3, align 8
  call void @llvm.dbg.declare(metadata ptr %b.dbg.spill, metadata !2066, metadata !DIExpression()), !dbg !2074
  store i64 %n, ptr %n.dbg.spill, align 8
  call void @llvm.dbg.declare(metadata ptr %n.dbg.spill, metadata !2067, metadata !DIExpression()), !dbg !2075
  call void @llvm.dbg.declare(metadata ptr %i, metadata !2071, metadata !DIExpression()), !dbg !2076
  %_5 = icmp eq i64 %a.1, %n, !dbg !2077
  %_4 = xor i1 %_5, true, !dbg !2078
  br i1 %_4, label %bb1, label %bb2, !dbg !2078

bb2:                                              ; preds = %start
  %_11 = icmp eq i64 %b.1, %n, !dbg !2079
  %_10 = xor i1 %_11, true, !dbg !2080
  br i1 %_10, label %bb3, label %bb4, !dbg !2080

bb1:                                              ; preds = %start
; call core::panicking::panic
  call void @_ZN4core9panicking5panic17hbe538fb8c244b3dfE(ptr align 1 @alloc354, i64 30, ptr align 8 @alloc356) #10, !dbg !2078
  unreachable, !dbg !2078

bb4:                                              ; preds = %bb2
  store i64 %n, ptr %_22, align 8, !dbg !2081
  %4 = load i64, ptr %_22, align 8, !dbg !2082
; call core::slice::index::<impl core::ops::index::IndexMut<I> for [T]>::index_mut
  %5 = call { ptr, i64 } @"_ZN4core5slice5index77_$LT$impl$u20$core..ops..index..IndexMut$LT$I$GT$$u20$for$u20$$u5b$T$u5d$$GT$9index_mut17h2b57730299f4bf14E"(ptr align 8 %a.0, i64 %a.1, i64 %4, ptr align 8 @alloc361) #9, !dbg !2082
  %_20.0 = extractvalue { ptr, i64 } %5, 0, !dbg !2082
  %_20.1 = extractvalue { ptr, i64 } %5, 1, !dbg !2082
  store i64 %n, ptr %_27, align 8, !dbg !2083
  %6 = load i64, ptr %_27, align 8, !dbg !2084
; call core::slice::index::<impl core::ops::index::IndexMut<I> for [T]>::index_mut
  %7 = call { ptr, i64 } @"_ZN4core5slice5index77_$LT$impl$u20$core..ops..index..IndexMut$LT$I$GT$$u20$for$u20$$u5b$T$u5d$$GT$9index_mut17h2b57730299f4bf14E"(ptr align 8 %b.0, i64 %b.1, i64 %6, ptr align 8 @alloc363) #9, !dbg !2084
  %_25.0 = extractvalue { ptr, i64 } %7, 0, !dbg !2084
  %_25.1 = extractvalue { ptr, i64 } %7, 1, !dbg !2084
  %8 = getelementptr inbounds { ptr, i64 }, ptr %_18, i32 0, i32 0, !dbg !2085
  store ptr %_20.0, ptr %8, align 8, !dbg !2085
  %9 = getelementptr inbounds { ptr, i64 }, ptr %_18, i32 0, i32 1, !dbg !2085
  store i64 %_20.1, ptr %9, align 8, !dbg !2085
  %10 = getelementptr inbounds { { ptr, i64 }, { ptr, i64 } }, ptr %_18, i32 0, i32 1, !dbg !2085
  %11 = getelementptr inbounds { ptr, i64 }, ptr %10, i32 0, i32 0, !dbg !2085
  store ptr %_25.0, ptr %11, align 8, !dbg !2085
  %12 = getelementptr inbounds { ptr, i64 }, ptr %10, i32 0, i32 1, !dbg !2085
  store i64 %_25.1, ptr %12, align 8, !dbg !2085
  %13 = getelementptr inbounds { ptr, i64 }, ptr %_18, i32 0, i32 0, !dbg !2086
  %a.01 = load ptr, ptr %13, align 8, !dbg !2086, !nonnull !24, !align !459, !noundef !24
  %14 = getelementptr inbounds { ptr, i64 }, ptr %_18, i32 0, i32 1, !dbg !2086
  %a.12 = load i64, ptr %14, align 8, !dbg !2086
  %15 = getelementptr inbounds { ptr, i64 }, ptr %a.dbg.spill3, i32 0, i32 0, !dbg !2086
  store ptr %a.01, ptr %15, align 8, !dbg !2086
  %16 = getelementptr inbounds { ptr, i64 }, ptr %a.dbg.spill3, i32 0, i32 1, !dbg !2086
  store i64 %a.12, ptr %16, align 8, !dbg !2086
  call void @llvm.dbg.declare(metadata ptr %a.dbg.spill3, metadata !2068, metadata !DIExpression()), !dbg !2087
  %17 = getelementptr inbounds { { ptr, i64 }, { ptr, i64 } }, ptr %_18, i32 0, i32 1, !dbg !2088
  %18 = getelementptr inbounds { ptr, i64 }, ptr %17, i32 0, i32 0, !dbg !2088
  %b.04 = load ptr, ptr %18, align 8, !dbg !2088, !nonnull !24, !align !459, !noundef !24
  %19 = getelementptr inbounds { ptr, i64 }, ptr %17, i32 0, i32 1, !dbg !2088
  %b.15 = load i64, ptr %19, align 8, !dbg !2088
  %20 = getelementptr inbounds { ptr, i64 }, ptr %b.dbg.spill6, i32 0, i32 0, !dbg !2088
  store ptr %b.04, ptr %20, align 8, !dbg !2088
  %21 = getelementptr inbounds { ptr, i64 }, ptr %b.dbg.spill6, i32 0, i32 1, !dbg !2088
  store i64 %b.15, ptr %21, align 8, !dbg !2088
  call void @llvm.dbg.declare(metadata ptr %b.dbg.spill6, metadata !2070, metadata !DIExpression()), !dbg !2089
  store i64 0, ptr %i, align 8, !dbg !2090
  br label %bb7, !dbg !2091

bb3:                                              ; preds = %bb2
; call core::panicking::panic
  call void @_ZN4core9panicking5panic17hbe538fb8c244b3dfE(ptr align 1 @alloc357, i64 30, ptr align 8 @alloc359) #10, !dbg !2080
  unreachable, !dbg !2080

bb7:                                              ; preds = %bb14, %bb4
  %_31 = load i64, ptr %i, align 8, !dbg !2092
  %_30 = icmp ult i64 %_31, %n, !dbg !2092
  br i1 %_30, label %bb8, label %bb15, !dbg !2092

bb15:                                             ; preds = %bb7
  ret void, !dbg !2093

bb8:                                              ; preds = %bb7
  %_36 = load i64, ptr %i, align 8, !dbg !2094
  %_38 = icmp ult i64 %_36, %a.12, !dbg !2095
  %22 = call i1 @llvm.expect.i1(i1 %_38, i1 true), !dbg !2095
  br i1 %22, label %bb9, label %panic, !dbg !2095

bb9:                                              ; preds = %bb8
  %_35 = getelementptr inbounds [0 x %"bootinfo::memory_map::MemoryRegion"], ptr %a.01, i64 0, i64 %_36, !dbg !2096
  %_44.0 = sub i64 %n, 1, !dbg !2097
  %_44.1 = icmp ult i64 %n, 1, !dbg !2097
  %23 = call i1 @llvm.expect.i1(i1 %_44.1, i1 false), !dbg !2097
  br i1 %23, label %panic7, label %bb10, !dbg !2097

panic:                                            ; preds = %bb8
; call core::panicking::panic_bounds_check
  call void @_ZN4core9panicking18panic_bounds_check17h592942248c7b8112E(i64 %_36, i64 %a.12, ptr align 8 @alloc365) #10, !dbg !2095
  unreachable, !dbg !2095

bb10:                                             ; preds = %bb9
  %_45 = load i64, ptr %i, align 8, !dbg !2098
  %_46.0 = sub i64 %_44.0, %_45, !dbg !2097
  %_46.1 = icmp ult i64 %_44.0, %_45, !dbg !2097
  %24 = call i1 @llvm.expect.i1(i1 %_46.1, i1 false), !dbg !2097
  br i1 %24, label %panic8, label %bb11, !dbg !2097

panic7:                                           ; preds = %bb9
; call core::panicking::panic
  call void @_ZN4core9panicking5panic17hbe538fb8c244b3dfE(ptr align 1 @str.0, i64 33, ptr align 8 @alloc367) #10, !dbg !2097
  unreachable, !dbg !2097

bb11:                                             ; preds = %bb10
  %_48 = icmp ult i64 %_46.0, %b.15, !dbg !2099
  %25 = call i1 @llvm.expect.i1(i1 %_48, i1 true), !dbg !2099
  br i1 %25, label %bb12, label %panic9, !dbg !2099

panic8:                                           ; preds = %bb10
; call core::panicking::panic
  call void @_ZN4core9panicking5panic17hbe538fb8c244b3dfE(ptr align 1 @str.0, i64 33, ptr align 8 @alloc367) #10, !dbg !2097
  unreachable, !dbg !2097

bb12:                                             ; preds = %bb11
  %_40 = getelementptr inbounds [0 x %"bootinfo::memory_map::MemoryRegion"], ptr %b.04, i64 0, i64 %_46.0, !dbg !2100
; call core::mem::swap
  call void @_ZN4core3mem4swap17h28f0b8b076779fceE(ptr align 8 %_35, ptr align 8 %_40) #9, !dbg !2101
  %26 = load i64, ptr %i, align 8, !dbg !2102
  %27 = call { i64, i1 } @llvm.uadd.with.overflow.i64(i64 %26, i64 1), !dbg !2102
  %_49.0 = extractvalue { i64, i1 } %27, 0, !dbg !2102
  %_49.1 = extractvalue { i64, i1 } %27, 1, !dbg !2102
  %28 = call i1 @llvm.expect.i1(i1 %_49.1, i1 false), !dbg !2102
  br i1 %28, label %panic10, label %bb14, !dbg !2102

panic9:                                           ; preds = %bb11
; call core::panicking::panic_bounds_check
  call void @_ZN4core9panicking18panic_bounds_check17h592942248c7b8112E(i64 %_46.0, i64 %b.15, ptr align 8 @alloc369) #10, !dbg !2099
  unreachable, !dbg !2099

bb14:                                             ; preds = %bb12
  store i64 %_49.0, ptr %i, align 8, !dbg !2102
  br label %bb7, !dbg !2091

panic10:                                          ; preds = %bb12
; call core::panicking::panic
  call void @_ZN4core9panicking5panic17hbe538fb8c244b3dfE(ptr align 1 @str.2, i64 28, ptr align 8 @alloc371) #10, !dbg !2102
  unreachable, !dbg !2102
}

; core::slice::raw::from_raw_parts_mut
; Function Attrs: inlinehint nounwind
define { ptr, i64 } @_ZN4core5slice3raw18from_raw_parts_mut17h19a66dadbd8bae08E(ptr %data, i64 %len) unnamed_addr #0 !dbg !2103 {
start:
  %len.dbg.spill.i = alloca i64, align 8
  %data.dbg.spill.i = alloca ptr, align 8
  %_4.i = alloca i8, align 1
  %len.dbg.spill = alloca i64, align 8
  %data.dbg.spill = alloca ptr, align 8
  %_6 = alloca { ptr, i64 }, align 8
  store ptr %data, ptr %data.dbg.spill, align 8
  call void @llvm.dbg.declare(metadata ptr %data.dbg.spill, metadata !2109, metadata !DIExpression()), !dbg !2111
  store i64 %len, ptr %len.dbg.spill, align 8
  call void @llvm.dbg.declare(metadata ptr %len.dbg.spill, metadata !2110, metadata !DIExpression()), !dbg !2112
  store ptr %data, ptr %_6, align 8, !dbg !2113
  %0 = getelementptr inbounds { ptr, i64 }, ptr %_6, i32 0, i32 1, !dbg !2113
  store i64 %len, ptr %0, align 8, !dbg !2113
  %1 = load ptr, ptr %_6, align 8, !dbg !2113
  %2 = getelementptr inbounds { ptr, i64 }, ptr %_6, i32 0, i32 1, !dbg !2113
  %3 = load i64, ptr %2, align 8, !dbg !2113
  store ptr %1, ptr %data.dbg.spill.i, align 8
  call void @llvm.dbg.declare(metadata ptr %data.dbg.spill.i, metadata !2114, metadata !DIExpression()), !dbg !2121
  store i64 %3, ptr %len.dbg.spill.i, align 8
  call void @llvm.dbg.declare(metadata ptr %len.dbg.spill.i, metadata !2120, metadata !DIExpression()), !dbg !2121
; call core::intrinsics::is_aligned_and_not_null
  %_5.i = call zeroext i1 @_ZN4core10intrinsics23is_aligned_and_not_null17h191fc7491f4eaf64E(ptr %1) #9, !dbg !2123
  br i1 %_5.i, label %bb2.i, label %bb1.i, !dbg !2123

bb1.i:                                            ; preds = %start
  store i8 0, ptr %_4.i, align 1, !dbg !2123
  br label %bb3.i, !dbg !2123

bb2.i:                                            ; preds = %start
; call core::intrinsics::is_valid_allocation_size
  %_8.i = call zeroext i1 @_ZN4core10intrinsics24is_valid_allocation_size17he3e7a21271b492f4E(i64 %3) #9, !dbg !2125
  %4 = zext i1 %_8.i to i8, !dbg !2123
  store i8 %4, ptr %_4.i, align 1, !dbg !2123
  br label %bb3.i, !dbg !2123

bb3.i:                                            ; preds = %bb2.i, %bb1.i
  %5 = load i8, ptr %_4.i, align 1, !dbg !2126, !range !197, !noundef !24
  %6 = trunc i8 %5 to i1, !dbg !2126
  %_3.i = xor i1 %6, true, !dbg !2126
  br i1 %_3.i, label %bb6.i, label %_ZN4core5slice3raw18from_raw_parts_mut7runtime17hd21085d20cd0d06fE.exit, !dbg !2126

bb6.i:                                            ; preds = %bb3.i
; call core::panicking::panic_nounwind
  call void @_ZN4core9panicking14panic_nounwind17h3015023400b7dcd0E(ptr align 1 @alloc372, i64 166) #10, !dbg !2127
  unreachable, !dbg !2127

_ZN4core5slice3raw18from_raw_parts_mut7runtime17hd21085d20cd0d06fE.exit: ; preds = %bb3.i
; call core::ptr::slice_from_raw_parts_mut
  %7 = call { ptr, i64 } @_ZN4core3ptr24slice_from_raw_parts_mut17h1dda79c878ed0e4cE(ptr %data, i64 %len) #9, !dbg !2128
  %_10.0 = extractvalue { ptr, i64 } %7, 0, !dbg !2128
  %_10.1 = extractvalue { ptr, i64 } %7, 1, !dbg !2128
  %8 = insertvalue { ptr, i64 } undef, ptr %_10.0, 0, !dbg !2129
  %9 = insertvalue { ptr, i64 } %8, i64 %_10.1, 1, !dbg !2129
  ret { ptr, i64 } %9, !dbg !2129
}

; core::slice::iter::Iter<T>::new
; Function Attrs: inlinehint nounwind
define { ptr, ptr } @"_ZN4core5slice4iter13Iter$LT$T$GT$3new17he5b7c2273b298ae2E"(ptr align 8 %slice.0, i64 %slice.1) unnamed_addr #0 !dbg !2130 {
start:
  %self.dbg.spill.i6 = alloca { ptr, i64 }, align 8
  %0 = alloca ptr, align 8
  %count.dbg.spill.i4 = alloca i64, align 8
  %self.dbg.spill.i5 = alloca ptr, align 8
  %self.dbg.spill.i3 = alloca ptr, align 8
  %count.dbg.spill.i1 = alloca i64, align 8
  %self.dbg.spill.i2 = alloca ptr, align 8
  %1 = alloca ptr, align 8
  %count.dbg.spill.i1.i = alloca i64, align 8
  %self.dbg.spill.i2.i = alloca ptr, align 8
  %count.dbg.spill.i.i = alloca i64, align 8
  %self.dbg.spill.i.i = alloca ptr, align 8
  %count.dbg.spill.i = alloca i64, align 8
  %self.dbg.spill.i = alloca ptr, align 8
  %ptr.dbg.spill = alloca ptr, align 8
  %slice.dbg.spill = alloca { ptr, i64 }, align 8
  %end = alloca ptr, align 8
  %2 = alloca { ptr, ptr }, align 8
  %3 = getelementptr inbounds { ptr, i64 }, ptr %slice.dbg.spill, i32 0, i32 0
  store ptr %slice.0, ptr %3, align 8
  %4 = getelementptr inbounds { ptr, i64 }, ptr %slice.dbg.spill, i32 0, i32 1
  store i64 %slice.1, ptr %4, align 8
  call void @llvm.dbg.declare(metadata ptr %slice.dbg.spill, metadata !2133, metadata !DIExpression()), !dbg !2138
  call void @llvm.dbg.declare(metadata ptr %end, metadata !2136, metadata !DIExpression()), !dbg !2139
  store ptr %slice.0, ptr %self.dbg.spill.i6, align 8
  %5 = getelementptr inbounds { ptr, i64 }, ptr %self.dbg.spill.i6, i32 0, i32 1
  store i64 %slice.1, ptr %5, align 8
  call void @llvm.dbg.declare(metadata ptr %self.dbg.spill.i6, metadata !2140, metadata !DIExpression()), !dbg !2145
  store ptr %slice.0, ptr %ptr.dbg.spill, align 8, !dbg !2147
  call void @llvm.dbg.declare(metadata ptr %ptr.dbg.spill, metadata !2134, metadata !DIExpression()), !dbg !2148
; call core::ptr::const_ptr::<impl *const T>::is_null
  %_5 = call zeroext i1 @"_ZN4core3ptr9const_ptr33_$LT$impl$u20$$BP$const$u20$T$GT$7is_null17h961ad4093d64d15cE"(ptr %slice.0) #9, !dbg !2149
  %_4 = xor i1 %_5, true, !dbg !2150
  call void @llvm.assume(i1 %_4), !dbg !2151
  br i1 false, label %bb3, label %bb4, !dbg !2152

bb4:                                              ; preds = %start
  store ptr %slice.0, ptr %self.dbg.spill.i2, align 8
  call void @llvm.dbg.declare(metadata ptr %self.dbg.spill.i2, metadata !200, metadata !DIExpression()), !dbg !2153
  store i64 %slice.1, ptr %count.dbg.spill.i1, align 8
  call void @llvm.dbg.declare(metadata ptr %count.dbg.spill.i1, metadata !210, metadata !DIExpression()), !dbg !2155
  store ptr %slice.0, ptr %self.dbg.spill.i5, align 8
  call void @llvm.dbg.declare(metadata ptr %self.dbg.spill.i5, metadata !214, metadata !DIExpression()), !dbg !2156
  store i64 %slice.1, ptr %count.dbg.spill.i4, align 8
  call void @llvm.dbg.declare(metadata ptr %count.dbg.spill.i4, metadata !220, metadata !DIExpression()), !dbg !2158
  %6 = getelementptr inbounds %"bootinfo::memory_map::MemoryRegion", ptr %slice.0, i64 %slice.1, !dbg !2159
  store ptr %6, ptr %0, align 8, !dbg !2159
  %7 = load ptr, ptr %0, align 8, !dbg !2159
  store ptr %7, ptr %end, align 8, !dbg !2160
  br label %bb5, !dbg !2160

bb3:                                              ; preds = %start
  store ptr %slice.0, ptr %self.dbg.spill.i, align 8
  call void @llvm.dbg.declare(metadata ptr %self.dbg.spill.i, metadata !2161, metadata !DIExpression()), !dbg !2165
  store i64 %slice.1, ptr %count.dbg.spill.i, align 8
  call void @llvm.dbg.declare(metadata ptr %count.dbg.spill.i, metadata !2164, metadata !DIExpression()), !dbg !2167
  store ptr %slice.0, ptr %self.dbg.spill.i3, align 8
  call void @llvm.dbg.declare(metadata ptr %self.dbg.spill.i3, metadata !2168, metadata !DIExpression()), !dbg !2173
  store ptr %slice.0, ptr %self.dbg.spill.i.i, align 8
  call void @llvm.dbg.declare(metadata ptr %self.dbg.spill.i.i, metadata !2175, metadata !DIExpression()), !dbg !2181
  store i64 %slice.1, ptr %count.dbg.spill.i.i, align 8
  call void @llvm.dbg.declare(metadata ptr %count.dbg.spill.i.i, metadata !2180, metadata !DIExpression()), !dbg !2183
  store ptr %slice.0, ptr %self.dbg.spill.i2.i, align 8
  call void @llvm.dbg.declare(metadata ptr %self.dbg.spill.i2.i, metadata !2184, metadata !DIExpression()), !dbg !2190
  store i64 %slice.1, ptr %count.dbg.spill.i1.i, align 8
  call void @llvm.dbg.declare(metadata ptr %count.dbg.spill.i1.i, metadata !2189, metadata !DIExpression()), !dbg !2192
  %8 = getelementptr i8, ptr %slice.0, i64 %slice.1, !dbg !2193
  store ptr %8, ptr %1, align 8, !dbg !2193
  %9 = load ptr, ptr %1, align 8, !dbg !2193
; call core::ptr::const_ptr::<impl *const T>::with_metadata_of
  %10 = call ptr @"_ZN4core3ptr9const_ptr33_$LT$impl$u20$$BP$const$u20$T$GT$16with_metadata_of17h1d48da229a0de13eE"(ptr %9, ptr %slice.0) #9, !dbg !2194
  store ptr %10, ptr %end, align 8, !dbg !2195
  br label %bb5, !dbg !2195

bb5:                                              ; preds = %bb4, %bb3
; call core::ptr::non_null::NonNull<T>::new_unchecked
  %_15 = call ptr @"_ZN4core3ptr8non_null16NonNull$LT$T$GT$13new_unchecked17h3ee90615051925c7E"(ptr %slice.0) #9, !dbg !2196
  %_18 = load ptr, ptr %end, align 8, !dbg !2197
  %11 = getelementptr inbounds { ptr, ptr }, ptr %2, i32 0, i32 1, !dbg !2198
  store ptr %_15, ptr %11, align 8, !dbg !2198
  store ptr %_18, ptr %2, align 8, !dbg !2198
  %12 = getelementptr inbounds { ptr, ptr }, ptr %2, i32 0, i32 0, !dbg !2199
  %13 = load ptr, ptr %12, align 8, !dbg !2199
  %14 = getelementptr inbounds { ptr, ptr }, ptr %2, i32 0, i32 1, !dbg !2199
  %15 = load ptr, ptr %14, align 8, !dbg !2199, !nonnull !24, !noundef !24
  %16 = insertvalue { ptr, ptr } undef, ptr %13, 0, !dbg !2199
  %17 = insertvalue { ptr, ptr } %16, ptr %15, 1, !dbg !2199
  ret { ptr, ptr } %17, !dbg !2199
}

; core::slice::sort::shift_head
; Function Attrs: nounwind
define void @_ZN4core5slice4sort10shift_head17h77038b8e90ea640aE(ptr align 8 %v.0, i64 %v.1, ptr align 8 %is_less) unnamed_addr #1 !dbg !2200 {
start:
  %self.dbg.spill.i36 = alloca ptr, align 8
  %self.dbg.spill.i35 = alloca ptr, align 8
  %self.dbg.spill.i34 = alloca { ptr, i64 }, align 8
  %0 = alloca ptr, align 8
  %count.dbg.spill.i31 = alloca i64, align 8
  %self.dbg.spill.i32 = alloca ptr, align 8
  %1 = alloca ptr, align 8
  %count.dbg.spill.i28 = alloca i64, align 8
  %self.dbg.spill.i29 = alloca ptr, align 8
  %2 = alloca ptr, align 8
  %count.dbg.spill.i25 = alloca i64, align 8
  %self.dbg.spill.i26 = alloca ptr, align 8
  %3 = alloca ptr, align 8
  %count.dbg.spill.i22 = alloca i64, align 8
  %self.dbg.spill.i23 = alloca ptr, align 8
  %4 = alloca ptr, align 8
  %count.dbg.spill.i19 = alloca i64, align 8
  %self.dbg.spill.i20 = alloca ptr, align 8
  %5 = alloca ptr, align 8
  %count.dbg.spill.i16 = alloca i64, align 8
  %self.dbg.spill.i17 = alloca ptr, align 8
  %6 = alloca ptr, align 8
  %count.dbg.spill.i14 = alloca i64, align 8
  %self.dbg.spill.i15 = alloca ptr, align 8
  %count.dbg.spill.i12 = alloca i64, align 8
  %self.dbg.spill.i13 = alloca ptr, align 8
  %count.dbg.spill.i10 = alloca i64, align 8
  %self.dbg.spill.i11 = alloca ptr, align 8
  %count.dbg.spill.i8 = alloca i64, align 8
  %self.dbg.spill.i9 = alloca ptr, align 8
  %count.dbg.spill.i6 = alloca i64, align 8
  %self.dbg.spill.i7 = alloca ptr, align 8
  %count.dbg.spill.i4 = alloca i64, align 8
  %self.dbg.spill.i5 = alloca ptr, align 8
  %count.dbg.spill.i2 = alloca i64, align 8
  %self.dbg.spill.i3 = alloca ptr, align 8
  %count.dbg.spill.i = alloca i64, align 8
  %self.dbg.spill.i = alloca ptr, align 8
  %_2.i = alloca %"bootinfo::memory_map::MemoryRegion", align 8
  %i.dbg.spill = alloca i64, align 8
  %v.dbg.spill1 = alloca ptr, align 8
  %len.dbg.spill = alloca i64, align 8
  %is_less.dbg.spill = alloca ptr, align 8
  %v.dbg.spill = alloca { ptr, i64 }, align 8
  %_49 = alloca { ptr, ptr }, align 8
  %_41 = alloca { i64, i64 }, align 8
  %iter = alloca { i64, i64 }, align 8
  %_38 = alloca { i64, i64 }, align 8
  %hole = alloca { ptr, ptr }, align 8
  %_18 = alloca %"bootinfo::memory_map::MemoryRegion", align 8
  %tmp = alloca %"core::mem::manually_drop::ManuallyDrop<bootinfo::memory_map::MemoryRegion>", align 8
  %_10 = alloca { ptr, ptr }, align 8
  %_5 = alloca i8, align 1
  %7 = getelementptr inbounds { ptr, i64 }, ptr %v.dbg.spill, i32 0, i32 0
  store ptr %v.0, ptr %7, align 8
  %8 = getelementptr inbounds { ptr, i64 }, ptr %v.dbg.spill, i32 0, i32 1
  store i64 %v.1, ptr %8, align 8
  call void @llvm.dbg.declare(metadata ptr %v.dbg.spill, metadata !2205, metadata !DIExpression()), !dbg !2220
  store ptr %is_less, ptr %is_less.dbg.spill, align 8
  call void @llvm.dbg.declare(metadata ptr %is_less.dbg.spill, metadata !2206, metadata !DIExpression()), !dbg !2221
  call void @llvm.dbg.declare(metadata ptr %tmp, metadata !2209, metadata !DIExpression()), !dbg !2222
  call void @llvm.dbg.declare(metadata ptr %hole, metadata !2213, metadata !DIExpression()), !dbg !2223
  call void @llvm.dbg.declare(metadata ptr %iter, metadata !2215, metadata !DIExpression()), !dbg !2224
  store i64 %v.1, ptr %len.dbg.spill, align 8, !dbg !2225
  call void @llvm.dbg.declare(metadata ptr %len.dbg.spill, metadata !2207, metadata !DIExpression()), !dbg !2226
  %_6 = icmp uge i64 %v.1, 2, !dbg !2227
  br i1 %_6, label %bb2, label %bb1, !dbg !2227

bb1:                                              ; preds = %start
  store i8 0, ptr %_5, align 1, !dbg !2227
  br label %bb3, !dbg !2227

bb2:                                              ; preds = %start
; call core::slice::<impl [T]>::get_unchecked
  %_12 = call align 8 ptr @"_ZN4core5slice29_$LT$impl$u20$$u5b$T$u5d$$GT$13get_unchecked17h1fcfd4382bb88a2bE"(ptr align 8 %v.0, i64 %v.1, i64 1) #9, !dbg !2228
; call core::slice::<impl [T]>::get_unchecked
  %_15 = call align 8 ptr @"_ZN4core5slice29_$LT$impl$u20$$u5b$T$u5d$$GT$13get_unchecked17h1fcfd4382bb88a2bE"(ptr align 8 %v.0, i64 %v.1, i64 0) #9, !dbg !2229
  store ptr %_12, ptr %_10, align 8, !dbg !2230
  %9 = getelementptr inbounds { ptr, ptr }, ptr %_10, i32 0, i32 1, !dbg !2230
  store ptr %_15, ptr %9, align 8, !dbg !2230
  %10 = getelementptr inbounds { ptr, ptr }, ptr %_10, i32 0, i32 0, !dbg !2230
  %11 = load ptr, ptr %10, align 8, !dbg !2230, !nonnull !24, !align !459, !noundef !24
  %12 = getelementptr inbounds { ptr, ptr }, ptr %_10, i32 0, i32 1, !dbg !2230
  %13 = load ptr, ptr %12, align 8, !dbg !2230, !nonnull !24, !align !459, !noundef !24
; call core::slice::<impl [T]>::sort_unstable_by::{{closure}}
  %_8 = call zeroext i1 @"_ZN4core5slice29_$LT$impl$u20$$u5b$T$u5d$$GT$16sort_unstable_by28_$u7b$$u7b$closure$u7d$$u7d$17hcc6221f5a07d47f0E"(ptr align 8 %is_less, ptr align 8 %11, ptr align 8 %13) #9, !dbg !2230
  %14 = zext i1 %_8 to i8, !dbg !2227
  store i8 %14, ptr %_5, align 1, !dbg !2227
  br label %bb3, !dbg !2227

bb3:                                              ; preds = %bb1, %bb2
  %15 = load i8, ptr %_5, align 1, !dbg !2227, !range !197, !noundef !24
  %16 = trunc i8 %15 to i1, !dbg !2227
  br i1 %16, label %bb7, label %bb32, !dbg !2227

bb32:                                             ; preds = %bb31, %bb3
  ret void, !dbg !2231

bb7:                                              ; preds = %bb3
; call core::slice::<impl [T]>::get_unchecked
  %_20 = call align 8 ptr @"_ZN4core5slice29_$LT$impl$u20$$u5b$T$u5d$$GT$13get_unchecked17h1fcfd4382bb88a2bE"(ptr align 8 %v.0, i64 %v.1, i64 0) #9, !dbg !2232
; call core::ptr::read
  call void @_ZN4core3ptr4read17ha95782224e06da53E(ptr sret(%"bootinfo::memory_map::MemoryRegion") %_18, ptr %_20) #9, !dbg !2233
  call void @llvm.dbg.declare(metadata ptr %_18, metadata !950, metadata !DIExpression()), !dbg !2234
  call void @llvm.memcpy.p0.p0.i64(ptr align 8 %_2.i, ptr align 8 %_18, i64 24, i1 false), !dbg !2236
  call void @llvm.memcpy.p0.p0.i64(ptr align 8 %tmp, ptr align 8 %_2.i, i64 24, i1 false), !dbg !2237
  store ptr %v.0, ptr %self.dbg.spill.i34, align 8
  %17 = getelementptr inbounds { ptr, i64 }, ptr %self.dbg.spill.i34, i32 0, i32 1
  store i64 %v.1, ptr %17, align 8
  call void @llvm.dbg.declare(metadata ptr %self.dbg.spill.i34, metadata !1880, metadata !DIExpression()), !dbg !2238
  store ptr %v.0, ptr %v.dbg.spill1, align 8, !dbg !2240
  call void @llvm.dbg.declare(metadata ptr %v.dbg.spill1, metadata !2211, metadata !DIExpression()), !dbg !2241
  store ptr %tmp, ptr %self.dbg.spill.i36, align 8
  call void @llvm.dbg.declare(metadata ptr %self.dbg.spill.i36, metadata !2242, metadata !DIExpression()), !dbg !2249
  store ptr %v.0, ptr %self.dbg.spill.i13, align 8
  call void @llvm.dbg.declare(metadata ptr %self.dbg.spill.i13, metadata !278, metadata !DIExpression()), !dbg !2251
  store i64 1, ptr %count.dbg.spill.i12, align 8
  call void @llvm.dbg.declare(metadata ptr %count.dbg.spill.i12, metadata !284, metadata !DIExpression()), !dbg !2253
  store ptr %v.0, ptr %self.dbg.spill.i15, align 8
  call void @llvm.dbg.declare(metadata ptr %self.dbg.spill.i15, metadata !288, metadata !DIExpression()), !dbg !2254
  store i64 1, ptr %count.dbg.spill.i14, align 8
  call void @llvm.dbg.declare(metadata ptr %count.dbg.spill.i14, metadata !293, metadata !DIExpression()), !dbg !2256
  %18 = getelementptr inbounds %"bootinfo::memory_map::MemoryRegion", ptr %v.0, i64 1, !dbg !2257
  store ptr %18, ptr %6, align 8, !dbg !2257
  %_3.i = load ptr, ptr %6, align 8, !dbg !2257
  store ptr %tmp, ptr %hole, align 8, !dbg !2258
  %19 = getelementptr inbounds { ptr, ptr }, ptr %hole, i32 0, i32 1, !dbg !2258
  store ptr %_3.i, ptr %19, align 8, !dbg !2258
  store ptr %v.0, ptr %self.dbg.spill.i11, align 8
  call void @llvm.dbg.declare(metadata ptr %self.dbg.spill.i11, metadata !278, metadata !DIExpression()), !dbg !2259
  store i64 1, ptr %count.dbg.spill.i10, align 8
  call void @llvm.dbg.declare(metadata ptr %count.dbg.spill.i10, metadata !284, metadata !DIExpression()), !dbg !2261
  store ptr %v.0, ptr %self.dbg.spill.i17, align 8
  call void @llvm.dbg.declare(metadata ptr %self.dbg.spill.i17, metadata !288, metadata !DIExpression()), !dbg !2262
  store i64 1, ptr %count.dbg.spill.i16, align 8
  call void @llvm.dbg.declare(metadata ptr %count.dbg.spill.i16, metadata !293, metadata !DIExpression()), !dbg !2264
  %20 = getelementptr inbounds %"bootinfo::memory_map::MemoryRegion", ptr %v.0, i64 1, !dbg !2265
  store ptr %20, ptr %5, align 8, !dbg !2265
  %_3.i18 = load ptr, ptr %5, align 8, !dbg !2265
  store ptr %v.0, ptr %self.dbg.spill.i9, align 8
  call void @llvm.dbg.declare(metadata ptr %self.dbg.spill.i9, metadata !278, metadata !DIExpression()), !dbg !2266
  store i64 0, ptr %count.dbg.spill.i8, align 8
  call void @llvm.dbg.declare(metadata ptr %count.dbg.spill.i8, metadata !284, metadata !DIExpression()), !dbg !2268
  store ptr %v.0, ptr %self.dbg.spill.i20, align 8
  call void @llvm.dbg.declare(metadata ptr %self.dbg.spill.i20, metadata !288, metadata !DIExpression()), !dbg !2269
  store i64 0, ptr %count.dbg.spill.i19, align 8
  call void @llvm.dbg.declare(metadata ptr %count.dbg.spill.i19, metadata !293, metadata !DIExpression()), !dbg !2271
  store ptr %v.0, ptr %4, align 8, !dbg !2272
  %_3.i21 = load ptr, ptr %4, align 8, !dbg !2272
; call core::intrinsics::copy_nonoverlapping
  call void @_ZN4core10intrinsics19copy_nonoverlapping17h5b68f14a857bbe6aE(ptr %_3.i18, ptr %_3.i21, i64 1) #9, !dbg !2273
  store i64 2, ptr %_38, align 8, !dbg !2274
  %21 = getelementptr inbounds { i64, i64 }, ptr %_38, i32 0, i32 1, !dbg !2274
  store i64 %v.1, ptr %21, align 8, !dbg !2274
  %22 = getelementptr inbounds { i64, i64 }, ptr %_38, i32 0, i32 0, !dbg !2274
  %23 = load i64, ptr %22, align 8, !dbg !2274
  %24 = getelementptr inbounds { i64, i64 }, ptr %_38, i32 0, i32 1, !dbg !2274
  %25 = load i64, ptr %24, align 8, !dbg !2274
; call <I as core::iter::traits::collect::IntoIterator>::into_iter
  %26 = call { i64, i64 } @"_ZN63_$LT$I$u20$as$u20$core..iter..traits..collect..IntoIterator$GT$9into_iter17h4418b33273272068E"(i64 %23, i64 %25) #9, !dbg !2274
  %_37.0 = extractvalue { i64, i64 } %26, 0, !dbg !2274
  %_37.1 = extractvalue { i64, i64 } %26, 1, !dbg !2274
  %27 = getelementptr inbounds { i64, i64 }, ptr %iter, i32 0, i32 0, !dbg !2274
  store i64 %_37.0, ptr %27, align 8, !dbg !2274
  %28 = getelementptr inbounds { i64, i64 }, ptr %iter, i32 0, i32 1, !dbg !2274
  store i64 %_37.1, ptr %28, align 8, !dbg !2274
  br label %bb18, !dbg !2275

bb18:                                             ; preds = %bb27, %bb7
; call core::iter::range::<impl core::iter::traits::iterator::Iterator for core::ops::range::Range<A>>::next
  %29 = call { i64, i64 } @"_ZN4core4iter5range101_$LT$impl$u20$core..iter..traits..iterator..Iterator$u20$for$u20$core..ops..range..Range$LT$A$GT$$GT$4next17hda4c7cc31159f9caE"(ptr align 8 %iter) #9, !dbg !2224
  store { i64, i64 } %29, ptr %_41, align 8, !dbg !2224
  %_44 = load i64, ptr %_41, align 8, !dbg !2224, !range !1008, !noundef !24
  %30 = icmp eq i64 %_44, 0, !dbg !2224
  br i1 %30, label %bb31, label %bb20, !dbg !2224

bb31:                                             ; preds = %bb20, %bb18
; call core::ptr::drop_in_place<core::slice::sort::CopyOnDrop<bootloader::bootinfo::memory_map::MemoryRegion>>
  call void @"_ZN4core3ptr104drop_in_place$LT$core..slice..sort..CopyOnDrop$LT$bootloader..bootinfo..memory_map..MemoryRegion$GT$$GT$17h2f05392d7a370feaE"(ptr %hole) #9, !dbg !2276
  br label %bb32, !dbg !2276

bb20:                                             ; preds = %bb18
  %31 = getelementptr inbounds { i64, i64 }, ptr %_41, i32 0, i32 1, !dbg !2277
  %i = load i64, ptr %31, align 8, !dbg !2277
  store i64 %i, ptr %i.dbg.spill, align 8, !dbg !2277
  call void @llvm.dbg.declare(metadata ptr %i.dbg.spill, metadata !2217, metadata !DIExpression()), !dbg !2278
  store ptr %v.0, ptr %self.dbg.spill.i7, align 8
  call void @llvm.dbg.declare(metadata ptr %self.dbg.spill.i7, metadata !278, metadata !DIExpression()), !dbg !2279
  store i64 %i, ptr %count.dbg.spill.i6, align 8
  call void @llvm.dbg.declare(metadata ptr %count.dbg.spill.i6, metadata !284, metadata !DIExpression()), !dbg !2281
  store ptr %v.0, ptr %self.dbg.spill.i23, align 8
  call void @llvm.dbg.declare(metadata ptr %self.dbg.spill.i23, metadata !288, metadata !DIExpression()), !dbg !2282
  store i64 %i, ptr %count.dbg.spill.i22, align 8
  call void @llvm.dbg.declare(metadata ptr %count.dbg.spill.i22, metadata !293, metadata !DIExpression()), !dbg !2284
  %32 = getelementptr inbounds %"bootinfo::memory_map::MemoryRegion", ptr %v.0, i64 %i, !dbg !2285
  store ptr %32, ptr %3, align 8, !dbg !2285
  %_3.i24 = load ptr, ptr %3, align 8, !dbg !2285
  store ptr %tmp, ptr %self.dbg.spill.i35, align 8
  call void @llvm.dbg.declare(metadata ptr %self.dbg.spill.i35, metadata !2242, metadata !DIExpression()), !dbg !2286
  store ptr %_3.i24, ptr %_49, align 8, !dbg !2288
  %33 = getelementptr inbounds { ptr, ptr }, ptr %_49, i32 0, i32 1, !dbg !2288
  store ptr %tmp, ptr %33, align 8, !dbg !2288
  %34 = getelementptr inbounds { ptr, ptr }, ptr %_49, i32 0, i32 0, !dbg !2288
  %35 = load ptr, ptr %34, align 8, !dbg !2288, !nonnull !24, !align !459, !noundef !24
  %36 = getelementptr inbounds { ptr, ptr }, ptr %_49, i32 0, i32 1, !dbg !2288
  %37 = load ptr, ptr %36, align 8, !dbg !2288, !nonnull !24, !align !459, !noundef !24
; call core::slice::<impl [T]>::sort_unstable_by::{{closure}}
  %_47 = call zeroext i1 @"_ZN4core5slice29_$LT$impl$u20$$u5b$T$u5d$$GT$16sort_unstable_by28_$u7b$$u7b$closure$u7d$$u7d$17hcc6221f5a07d47f0E"(ptr align 8 %is_less, ptr align 8 %35, ptr align 8 %37) #9, !dbg !2288
  %_46 = xor i1 %_47, true, !dbg !2289
  br i1 %_46, label %bb31, label %bb25, !dbg !2289

bb21:                                             ; No predecessors!
  unreachable, !dbg !2224

bb25:                                             ; preds = %bb20
  store ptr %v.0, ptr %self.dbg.spill.i5, align 8
  call void @llvm.dbg.declare(metadata ptr %self.dbg.spill.i5, metadata !278, metadata !DIExpression()), !dbg !2290
  store i64 %i, ptr %count.dbg.spill.i4, align 8
  call void @llvm.dbg.declare(metadata ptr %count.dbg.spill.i4, metadata !284, metadata !DIExpression()), !dbg !2292
  store ptr %v.0, ptr %self.dbg.spill.i26, align 8
  call void @llvm.dbg.declare(metadata ptr %self.dbg.spill.i26, metadata !288, metadata !DIExpression()), !dbg !2293
  store i64 %i, ptr %count.dbg.spill.i25, align 8
  call void @llvm.dbg.declare(metadata ptr %count.dbg.spill.i25, metadata !293, metadata !DIExpression()), !dbg !2295
  %38 = getelementptr inbounds %"bootinfo::memory_map::MemoryRegion", ptr %v.0, i64 %i, !dbg !2296
  store ptr %38, ptr %2, align 8, !dbg !2296
  %_3.i27 = load ptr, ptr %2, align 8, !dbg !2296
  %_68.0 = sub i64 %i, 1, !dbg !2297
  %_68.1 = icmp ult i64 %i, 1, !dbg !2297
  %39 = call i1 @llvm.expect.i1(i1 %_68.1, i1 false), !dbg !2297
  br i1 %39, label %panic, label %bb27, !dbg !2297

bb27:                                             ; preds = %bb25
  store ptr %v.0, ptr %self.dbg.spill.i3, align 8
  call void @llvm.dbg.declare(metadata ptr %self.dbg.spill.i3, metadata !278, metadata !DIExpression()), !dbg !2298
  store i64 %_68.0, ptr %count.dbg.spill.i2, align 8
  call void @llvm.dbg.declare(metadata ptr %count.dbg.spill.i2, metadata !284, metadata !DIExpression()), !dbg !2300
  store ptr %v.0, ptr %self.dbg.spill.i29, align 8
  call void @llvm.dbg.declare(metadata ptr %self.dbg.spill.i29, metadata !288, metadata !DIExpression()), !dbg !2301
  store i64 %_68.0, ptr %count.dbg.spill.i28, align 8
  call void @llvm.dbg.declare(metadata ptr %count.dbg.spill.i28, metadata !293, metadata !DIExpression()), !dbg !2303
  %40 = getelementptr inbounds %"bootinfo::memory_map::MemoryRegion", ptr %v.0, i64 %_68.0, !dbg !2304
  store ptr %40, ptr %1, align 8, !dbg !2304
  %_3.i30 = load ptr, ptr %1, align 8, !dbg !2304
; call core::intrinsics::copy_nonoverlapping
  call void @_ZN4core10intrinsics19copy_nonoverlapping17h5b68f14a857bbe6aE(ptr %_3.i27, ptr %_3.i30, i64 1) #9, !dbg !2305
  store ptr %v.0, ptr %self.dbg.spill.i, align 8
  call void @llvm.dbg.declare(metadata ptr %self.dbg.spill.i, metadata !278, metadata !DIExpression()), !dbg !2306
  store i64 %i, ptr %count.dbg.spill.i, align 8
  call void @llvm.dbg.declare(metadata ptr %count.dbg.spill.i, metadata !284, metadata !DIExpression()), !dbg !2308
  store ptr %v.0, ptr %self.dbg.spill.i32, align 8
  call void @llvm.dbg.declare(metadata ptr %self.dbg.spill.i32, metadata !288, metadata !DIExpression()), !dbg !2309
  store i64 %i, ptr %count.dbg.spill.i31, align 8
  call void @llvm.dbg.declare(metadata ptr %count.dbg.spill.i31, metadata !293, metadata !DIExpression()), !dbg !2311
  %41 = getelementptr inbounds %"bootinfo::memory_map::MemoryRegion", ptr %v.0, i64 %i, !dbg !2312
  store ptr %41, ptr %0, align 8, !dbg !2312
  %_3.i33 = load ptr, ptr %0, align 8, !dbg !2312
  %42 = getelementptr inbounds { ptr, ptr }, ptr %hole, i32 0, i32 1, !dbg !2313
  store ptr %_3.i33, ptr %42, align 8, !dbg !2313
  br label %bb18, !dbg !2275

panic:                                            ; preds = %bb25
; call core::panicking::panic
  call void @_ZN4core9panicking5panic17hbe538fb8c244b3dfE(ptr align 1 @str.0, i64 33, ptr align 8 @alloc374) #10, !dbg !2297
  unreachable, !dbg !2297
}

; core::slice::sort::shift_tail
; Function Attrs: nounwind
define void @_ZN4core5slice4sort10shift_tail17hc2ddd7dca4b19350E(ptr align 8 %v.0, i64 %v.1, ptr align 8 %is_less) unnamed_addr #1 !dbg !2314 {
start:
  %self.dbg.spill.i43 = alloca ptr, align 8
  %self.dbg.spill.i42 = alloca ptr, align 8
  %self.dbg.spill.i41 = alloca { ptr, i64 }, align 8
  %0 = alloca ptr, align 8
  %count.dbg.spill.i38 = alloca i64, align 8
  %self.dbg.spill.i39 = alloca ptr, align 8
  %1 = alloca ptr, align 8
  %count.dbg.spill.i35 = alloca i64, align 8
  %self.dbg.spill.i36 = alloca ptr, align 8
  %2 = alloca ptr, align 8
  %count.dbg.spill.i32 = alloca i64, align 8
  %self.dbg.spill.i33 = alloca ptr, align 8
  %3 = alloca ptr, align 8
  %count.dbg.spill.i29 = alloca i64, align 8
  %self.dbg.spill.i30 = alloca ptr, align 8
  %4 = alloca ptr, align 8
  %count.dbg.spill.i26 = alloca i64, align 8
  %self.dbg.spill.i27 = alloca ptr, align 8
  %5 = alloca ptr, align 8
  %count.dbg.spill.i23 = alloca i64, align 8
  %self.dbg.spill.i24 = alloca ptr, align 8
  %6 = alloca ptr, align 8
  %count.dbg.spill.i21 = alloca i64, align 8
  %self.dbg.spill.i22 = alloca ptr, align 8
  %count.dbg.spill.i19 = alloca i64, align 8
  %self.dbg.spill.i20 = alloca ptr, align 8
  %count.dbg.spill.i17 = alloca i64, align 8
  %self.dbg.spill.i18 = alloca ptr, align 8
  %count.dbg.spill.i15 = alloca i64, align 8
  %self.dbg.spill.i16 = alloca ptr, align 8
  %count.dbg.spill.i13 = alloca i64, align 8
  %self.dbg.spill.i14 = alloca ptr, align 8
  %count.dbg.spill.i11 = alloca i64, align 8
  %self.dbg.spill.i12 = alloca ptr, align 8
  %count.dbg.spill.i9 = alloca i64, align 8
  %self.dbg.spill.i10 = alloca ptr, align 8
  %count.dbg.spill.i = alloca i64, align 8
  %self.dbg.spill.i = alloca ptr, align 8
  %_2.i = alloca %"bootinfo::memory_map::MemoryRegion", align 8
  %i.dbg.spill = alloca i64, align 8
  %v.dbg.spill3 = alloca ptr, align 8
  %len.dbg.spill = alloca i64, align 8
  %is_less.dbg.spill = alloca ptr, align 8
  %v.dbg.spill = alloca { ptr, i64 }, align 8
  %_70 = alloca { ptr, ptr }, align 8
  %_62 = alloca { i64, i64 }, align 8
  %iter = alloca { i64, i64 }, align 8
  %_57 = alloca { i64, i64 }, align 8
  %hole = alloca { ptr, ptr }, align 8
  %_24 = alloca %"bootinfo::memory_map::MemoryRegion", align 8
  %tmp = alloca %"core::mem::manually_drop::ManuallyDrop<bootinfo::memory_map::MemoryRegion>", align 8
  %_10 = alloca { ptr, ptr }, align 8
  %_5 = alloca i8, align 1
  %7 = getelementptr inbounds { ptr, i64 }, ptr %v.dbg.spill, i32 0, i32 0
  store ptr %v.0, ptr %7, align 8
  %8 = getelementptr inbounds { ptr, i64 }, ptr %v.dbg.spill, i32 0, i32 1
  store i64 %v.1, ptr %8, align 8
  call void @llvm.dbg.declare(metadata ptr %v.dbg.spill, metadata !2316, metadata !DIExpression()), !dbg !2338
  store ptr %is_less, ptr %is_less.dbg.spill, align 8
  call void @llvm.dbg.declare(metadata ptr %is_less.dbg.spill, metadata !2317, metadata !DIExpression()), !dbg !2339
  call void @llvm.dbg.declare(metadata ptr %tmp, metadata !2320, metadata !DIExpression()), !dbg !2340
  call void @llvm.dbg.declare(metadata ptr %hole, metadata !2324, metadata !DIExpression()), !dbg !2341
  call void @llvm.dbg.declare(metadata ptr %iter, metadata !2326, metadata !DIExpression()), !dbg !2342
  store i64 %v.1, ptr %len.dbg.spill, align 8, !dbg !2343
